
blank.elf.wip:     file format elf32-littleriscv


Disassembly of section .text:

0100654c <__cmrt_text_start>:
 100654c:	00051043          	fmadd.s	ft0,fa0,ft0,ft0,rtz

01006550 <version_info>:
 1006550:	3032                	fld	ft0,296(sp)
 1006552:	3632                	fld	fa2,296(sp)
 1006554:	302d                	jal	1005d7e <z_impl_k_busy_wait+0x7f9b10>
 1006556:	2d34                	fld	fa3,88(a0)
 1006558:	3032                	fld	ft0,296(sp)
 100655a:	672d                	lui	a4,0xb
 100655c:	6431                	lui	s0,0xc
 100655e:	3631                	jal	100606a <z_impl_k_busy_wait+0x7f9dfc>
 1006560:	3261                	jal	1005ee8 <z_impl_k_busy_wait+0x7f9c7a>
 1006562:	0065                	c.nop	25

01006564 <main>:
 1006564:	1141                	addi	sp,sp,-16
 1006566:	4541                	li	a0,16
 1006568:	45c1                	li	a1,16
 100656a:	c606                	sw	ra,12(sp)
 100656c:	c422                	sw	s0,8(sp)
 100656e:	c226                	sw	s1,4(sp)
 1006570:	ff800097          	auipc	ra,0xff800
 1006574:	de4080e7          	jalr	-540(ra) # 806354 <cmrt_set_boot_status>
 1006578:	6785                	lui	a5,0x1
 100657a:	5307a503          	lw	a0,1328(a5) # 1530 <__udivdi3-0x7fee7c>
 100657e:	57f5                	li	a5,-3
 1006580:	fff50713          	addi	a4,a0,-1
 1006584:	00e7f463          	bgeu	a5,a4,100658c <main+0x28>
 1006588:	50000513          	li	a0,1280
 100658c:	93010437          	lui	s0,0x93010
 1006590:	0ff40713          	addi	a4,s0,255 # 930100ff <_end+0x92009603>
 1006594:	6785                	lui	a5,0x1
 1006596:	52e7a823          	sw	a4,1328(a5) # 1530 <__udivdi3-0x7fee7c>
 100659a:	00000097          	auipc	ra,0x0
 100659e:	348080e7          	jalr	840(ra) # 10068e2 <cmrt_set_lifecycle>
 10065a2:	84aa                	mv	s1,a0
 10065a4:	45c1                	li	a1,16
 10065a6:	4501                	li	a0,0
 10065a8:	ff800097          	auipc	ra,0xff800
 10065ac:	dac080e7          	jalr	-596(ra) # 806354 <cmrt_set_boot_status>
 10065b0:	10040413          	addi	s0,s0,256
 10065b4:	0004c463          	bltz	s1,10065bc <main+0x58>
 10065b8:	93010437          	lui	s0,0x93010
 10065bc:	6785                	lui	a5,0x1
 10065be:	40b2                	lw	ra,12(sp)
 10065c0:	5287a823          	sw	s0,1328(a5) # 1530 <__udivdi3-0x7fee7c>
 10065c4:	4422                	lw	s0,8(sp)
 10065c6:	8526                	mv	a0,s1
 10065c8:	4492                	lw	s1,4(sp)
 10065ca:	0141                	addi	sp,sp,16
 10065cc:	8082                	ret

010065ce <cmrt_clear_container_context>:
 10065ce:	6785                	lui	a5,0x1
 10065d0:	00072737          	lui	a4,0x72
 10065d4:	711d                	addi	sp,sp,-96
 10065d6:	6505                	lui	a0,0x1
 10065d8:	31472303          	lw	t1,788(a4) # 72314 <__udivdi3-0x78e098>
 10065dc:	54450693          	addi	a3,a0,1348 # 1544 <__udivdi3-0x7fee68>
 10065e0:	31872883          	lw	a7,792(a4)
 10065e4:	32072803          	lw	a6,800(a4)
 10065e8:	1147af83          	lw	t6,276(a5) # 1114 <__udivdi3-0x7ff298>
 10065ec:	4287af03          	lw	t5,1064(a5)
 10065f0:	42c7ae83          	lw	t4,1068(a5)
 10065f4:	5307ae03          	lw	t3,1328(a5)
 10065f8:	878a                	mv	a5,sp
 10065fa:	1090                	addi	a2,sp,96
 10065fc:	873e                	mv	a4,a5
 10065fe:	8e9d                	sub	a3,a3,a5
 1006600:	00e685b3          	add	a1,a3,a4
 1006604:	418c                	lw	a1,0(a1)
 1006606:	0711                	addi	a4,a4,4
 1006608:	feb72e23          	sw	a1,-4(a4)
 100660c:	fec71ae3          	bne	a4,a2,1006600 <cmrt_clear_container_context+0x32>
 1006610:	4705                	li	a4,1
 1006612:	12e52e23          	sw	a4,316(a0)
 1006616:	14052583          	lw	a1,320(a0)
 100661a:	00e58963          	beq	a1,a4,100662c <cmrt_clear_container_context+0x5e>
 100661e:	6505                	lui	a0,0x1
 1006620:	4585                	li	a1,1
 1006622:	0001                	nop
 1006624:	14052703          	lw	a4,320(a0) # 1140 <__udivdi3-0x7ff26c>
 1006628:	feb71de3          	bne	a4,a1,1006622 <cmrt_clear_container_context+0x54>
 100662c:	6705                	lui	a4,0x1
 100662e:	12072e23          	sw	zero,316(a4) # 113c <__udivdi3-0x7ff270>
 1006632:	4585                	li	a1,1
 1006634:	14b72023          	sw	a1,320(a4)
 1006638:	11f72a23          	sw	t6,276(a4)
 100663c:	43e72423          	sw	t5,1064(a4)
 1006640:	43d72623          	sw	t4,1068(a4)
 1006644:	53c72823          	sw	t3,1328(a4)
 1006648:	438c                	lw	a1,0(a5)
 100664a:	00d78733          	add	a4,a5,a3
 100664e:	0791                	addi	a5,a5,4
 1006650:	c30c                	sw	a1,0(a4)
 1006652:	fec79be3          	bne	a5,a2,1006648 <cmrt_clear_container_context+0x7a>
 1006656:	000727b7          	lui	a5,0x72
 100665a:	3067aa23          	sw	t1,788(a5) # 72314 <__udivdi3-0x78e098>
 100665e:	3117ac23          	sw	a7,792(a5)
 1006662:	3307a023          	sw	a6,800(a5)
 1006666:	6125                	addi	sp,sp,96
 1006668:	8082                	ret

0100666a <cmrt_assert_canary>:
 100666a:	1141                	addi	sp,sp,-16
 100666c:	c606                	sw	ra,12(sp)
 100666e:	c422                	sw	s0,8(sp)
 1006670:	c226                	sw	s1,4(sp)
 1006672:	ff802097          	auipc	ra,0xff802
 1006676:	816080e7          	jalr	-2026(ra) # 807e88 <z_impl_cmrt_cc_open>
 100667a:	c921                	beqz	a0,10066ca <cmrt_assert_canary+0x60>
 100667c:	842a                	mv	s0,a0
 100667e:	20d8c637          	lui	a2,0x20d8c
 1006682:	4466d5b7          	lui	a1,0x4466d
 1006686:	72260613          	addi	a2,a2,1826 # 20d8c722 <_end+0x1fd85c26>
 100668a:	a5758593          	addi	a1,a1,-1449 # 4466ca57 <_end+0x43665f5b>
 100668e:	ff801097          	auipc	ra,0xff801
 1006692:	72e080e7          	jalr	1838(ra) # 807dbc <z_impl_cmrt_cc_assert>
 1006696:	abcdf5b7          	lui	a1,0xabcdf
 100669a:	f1258593          	addi	a1,a1,-238 # abcdef12 <_end+0xaacd8416>
 100669e:	8522                	mv	a0,s0
 10066a0:	ff801097          	auipc	ra,0xff801
 10066a4:	77e080e7          	jalr	1918(ra) # 807e1e <z_impl_cmrt_cc_mix>
 10066a8:	8522                	mv	a0,s0
 10066aa:	ff802097          	auipc	ra,0xff802
 10066ae:	810080e7          	jalr	-2032(ra) # 807eba <z_impl_cmrt_cc_sync>
 10066b2:	84aa                	mv	s1,a0
 10066b4:	8522                	mv	a0,s0
 10066b6:	ff801097          	auipc	ra,0xff801
 10066ba:	7e2080e7          	jalr	2018(ra) # 807e98 <z_impl_cmrt_cc_close>
 10066be:	40b2                	lw	ra,12(sp)
 10066c0:	4422                	lw	s0,8(sp)
 10066c2:	8526                	mv	a0,s1
 10066c4:	4492                	lw	s1,4(sp)
 10066c6:	0141                	addi	sp,sp,16
 10066c8:	8082                	ret
 10066ca:	54b5                	li	s1,-19
 10066cc:	bfcd                	j	10066be <cmrt_assert_canary+0x54>

010066ce <cmrt_debug_mode>:
 10066ce:	1141                	addi	sp,sp,-16
 10066d0:	c422                	sw	s0,8(sp)
 10066d2:	c606                	sw	ra,12(sp)
 10066d4:	c226                	sw	s1,4(sp)
 10066d6:	c04a                	sw	s2,0(sp)
 10066d8:	842a                	mv	s0,a0
 10066da:	ff802097          	auipc	ra,0xff802
 10066de:	3a8080e7          	jalr	936(ra) # 808a82 <z_impl_cmrt_fmc_open>
 10066e2:	c529                	beqz	a0,100672c <cmrt_debug_mode+0x5e>
 10066e4:	84aa                	mv	s1,a0
 10066e6:	ff802097          	auipc	ra,0xff802
 10066ea:	362080e7          	jalr	866(ra) # 808a48 <z_impl_cmrt_fmc_set_debug_mode>
 10066ee:	892a                	mv	s2,a0
 10066f0:	8526                	mv	a0,s1
 10066f2:	ff802097          	auipc	ra,0xff802
 10066f6:	3a0080e7          	jalr	928(ra) # 808a92 <z_impl_cmrt_fmc_close>
 10066fa:	02091263          	bnez	s2,100671e <cmrt_debug_mode+0x50>
 10066fe:	c005                	beqz	s0,100671e <cmrt_debug_mode+0x50>
 1006700:	6785                	lui	a5,0x1
 1006702:	5307a783          	lw	a5,1328(a5) # 1530 <__udivdi3-0x7fee7c>
 1006706:	00f40c63          	beq	s0,a5,100671e <cmrt_debug_mode+0x50>
 100670a:	6505                	lui	a0,0x1
 100670c:	ff806097          	auipc	ra,0xff806
 1006710:	b62080e7          	jalr	-1182(ra) # 80c26e <z_impl_k_busy_wait>
 1006714:	6785                	lui	a5,0x1
 1006716:	5307a783          	lw	a5,1328(a5) # 1530 <__udivdi3-0x7fee7c>
 100671a:	fef418e3          	bne	s0,a5,100670a <cmrt_debug_mode+0x3c>
 100671e:	40b2                	lw	ra,12(sp)
 1006720:	4422                	lw	s0,8(sp)
 1006722:	4492                	lw	s1,4(sp)
 1006724:	854a                	mv	a0,s2
 1006726:	4902                	lw	s2,0(sp)
 1006728:	0141                	addi	sp,sp,16
 100672a:	8082                	ret
 100672c:	5935                	li	s2,-19
 100672e:	bfc5                	j	100671e <cmrt_debug_mode+0x50>

01006730 <cmrt_get_randomv>:
 1006730:	7179                	addi	sp,sp,-48
 1006732:	c85a                	sw	s6,16(sp)
 1006734:	c462                	sw	s8,8(sp)
 1006736:	d606                	sw	ra,44(sp)
 1006738:	d422                	sw	s0,40(sp)
 100673a:	d226                	sw	s1,36(sp)
 100673c:	d04a                	sw	s2,32(sp)
 100673e:	ce4e                	sw	s3,28(sp)
 1006740:	cc52                	sw	s4,24(sp)
 1006742:	ca56                	sw	s5,20(sp)
 1006744:	c65e                	sw	s7,12(sp)
 1006746:	8b2a                	mv	s6,a0
 1006748:	8c2e                	mv	s8,a1
 100674a:	4581                	li	a1,0
 100674c:	4505                	li	a0,1
 100674e:	ff805097          	auipc	ra,0xff805
 1006752:	87c080e7          	jalr	-1924(ra) # 80afca <z_impl_cmrt_tmc_open>
 1006756:	c53d                	beqz	a0,10067c4 <cmrt_get_randomv+0x94>
 1006758:	8a2a                	mv	s4,a0
 100675a:	4b81                	li	s7,0
 100675c:	02000a93          	li	s5,32
 1006760:	060c0063          	beqz	s8,10067c0 <cmrt_get_randomv+0x90>
 1006764:	004b2403          	lw	s0,4(s6)
 1006768:	000b2983          	lw	s3,0(s6)
 100676c:	e401                	bnez	s0,1006774 <cmrt_get_randomv+0x44>
 100676e:	a0a9                	j	10067b8 <cmrt_get_randomv+0x88>
 1006770:	99a6                	add	s3,s3,s1
 1006772:	c039                	beqz	s0,10067b8 <cmrt_get_randomv+0x88>
 1006774:	84a2                	mv	s1,s0
 1006776:	008af463          	bgeu	s5,s0,100677e <cmrt_get_randomv+0x4e>
 100677a:	02000493          	li	s1,32
 100677e:	4585                	li	a1,1
 1006780:	864e                	mv	a2,s3
 1006782:	86a6                	mv	a3,s1
 1006784:	8552                	mv	a0,s4
 1006786:	ff804097          	auipc	ra,0xff804
 100678a:	740080e7          	jalr	1856(ra) # 80aec6 <z_impl_cmrt_tmc_command>
 100678e:	892a                	mv	s2,a0
 1006790:	8c05                	sub	s0,s0,s1
 1006792:	dd79                	beqz	a0,1006770 <cmrt_get_randomv+0x40>
 1006794:	8552                	mv	a0,s4
 1006796:	ff805097          	auipc	ra,0xff805
 100679a:	844080e7          	jalr	-1980(ra) # 80afda <z_impl_cmrt_tmc_close>
 100679e:	50b2                	lw	ra,44(sp)
 10067a0:	5422                	lw	s0,40(sp)
 10067a2:	5492                	lw	s1,36(sp)
 10067a4:	49f2                	lw	s3,28(sp)
 10067a6:	4a62                	lw	s4,24(sp)
 10067a8:	4ad2                	lw	s5,20(sp)
 10067aa:	4b42                	lw	s6,16(sp)
 10067ac:	4bb2                	lw	s7,12(sp)
 10067ae:	4c22                	lw	s8,8(sp)
 10067b0:	854a                	mv	a0,s2
 10067b2:	5902                	lw	s2,32(sp)
 10067b4:	6145                	addi	sp,sp,48
 10067b6:	8082                	ret
 10067b8:	0b85                	addi	s7,s7,1
 10067ba:	0b21                	addi	s6,s6,8
 10067bc:	fb7c14e3          	bne	s8,s7,1006764 <cmrt_get_randomv+0x34>
 10067c0:	4901                	li	s2,0
 10067c2:	bfc9                	j	1006794 <cmrt_get_randomv+0x64>
 10067c4:	5935                	li	s2,-19
 10067c6:	bfe1                	j	100679e <cmrt_get_randomv+0x6e>

010067c8 <z_impl_cmrt_get_random>:
 10067c8:	1101                	addi	sp,sp,-32
 10067ca:	cc22                	sw	s0,24(sp)
 10067cc:	c64e                	sw	s3,12(sp)
 10067ce:	ce06                	sw	ra,28(sp)
 10067d0:	ca26                	sw	s1,20(sp)
 10067d2:	c84a                	sw	s2,16(sp)
 10067d4:	c452                	sw	s4,8(sp)
 10067d6:	c256                	sw	s5,4(sp)
 10067d8:	89aa                	mv	s3,a0
 10067da:	842e                	mv	s0,a1
 10067dc:	4581                	li	a1,0
 10067de:	4505                	li	a0,1
 10067e0:	ff804097          	auipc	ra,0xff804
 10067e4:	7ea080e7          	jalr	2026(ra) # 80afca <z_impl_cmrt_tmc_open>
 10067e8:	c539                	beqz	a0,1006836 <z_impl_cmrt_get_random+0x6e>
 10067ea:	8a2a                	mv	s4,a0
 10067ec:	02000a93          	li	s5,32
 10067f0:	c01d                	beqz	s0,1006816 <z_impl_cmrt_get_random+0x4e>
 10067f2:	84a2                	mv	s1,s0
 10067f4:	008af463          	bgeu	s5,s0,10067fc <z_impl_cmrt_get_random+0x34>
 10067f8:	02000493          	li	s1,32
 10067fc:	4585                	li	a1,1
 10067fe:	864e                	mv	a2,s3
 1006800:	86a6                	mv	a3,s1
 1006802:	8552                	mv	a0,s4
 1006804:	ff804097          	auipc	ra,0xff804
 1006808:	6c2080e7          	jalr	1730(ra) # 80aec6 <z_impl_cmrt_tmc_command>
 100680c:	892a                	mv	s2,a0
 100680e:	8c05                	sub	s0,s0,s1
 1006810:	e501                	bnez	a0,1006818 <z_impl_cmrt_get_random+0x50>
 1006812:	99a6                	add	s3,s3,s1
 1006814:	fc79                	bnez	s0,10067f2 <z_impl_cmrt_get_random+0x2a>
 1006816:	4901                	li	s2,0
 1006818:	8552                	mv	a0,s4
 100681a:	ff804097          	auipc	ra,0xff804
 100681e:	7c0080e7          	jalr	1984(ra) # 80afda <z_impl_cmrt_tmc_close>
 1006822:	40f2                	lw	ra,28(sp)
 1006824:	4462                	lw	s0,24(sp)
 1006826:	44d2                	lw	s1,20(sp)
 1006828:	49b2                	lw	s3,12(sp)
 100682a:	4a22                	lw	s4,8(sp)
 100682c:	4a92                	lw	s5,4(sp)
 100682e:	854a                	mv	a0,s2
 1006830:	4942                	lw	s2,16(sp)
 1006832:	6105                	addi	sp,sp,32
 1006834:	8082                	ret
 1006836:	5935                	li	s2,-19
 1006838:	b7ed                	j	1006822 <z_impl_cmrt_get_random+0x5a>

0100683a <cmrt_get_entropyv>:
 100683a:	1101                	addi	sp,sp,-32
 100683c:	cc22                	sw	s0,24(sp)
 100683e:	842a                	mv	s0,a0
 1006840:	4505                	li	a0,1
 1006842:	c452                	sw	s4,8(sp)
 1006844:	ce06                	sw	ra,28(sp)
 1006846:	ca26                	sw	s1,20(sp)
 1006848:	c84a                	sw	s2,16(sp)
 100684a:	c64e                	sw	s3,12(sp)
 100684c:	8a2e                	mv	s4,a1
 100684e:	ff802097          	auipc	ra,0xff802
 1006852:	054080e7          	jalr	84(ra) # 8088a2 <cmrt_emc_open>
 1006856:	c139                	beqz	a0,100689c <cmrt_get_entropyv+0x62>
 1006858:	89aa                	mv	s3,a0
 100685a:	020a0f63          	beqz	s4,1006898 <cmrt_get_entropyv+0x5e>
 100685e:	4901                	li	s2,0
 1006860:	a021                	j	1006868 <cmrt_get_entropyv+0x2e>
 1006862:	0421                	addi	s0,s0,8
 1006864:	032a0a63          	beq	s4,s2,1006898 <cmrt_get_entropyv+0x5e>
 1006868:	4050                	lw	a2,4(s0)
 100686a:	400c                	lw	a1,0(s0)
 100686c:	854e                	mv	a0,s3
 100686e:	0905                	addi	s2,s2,1
 1006870:	ff802097          	auipc	ra,0xff802
 1006874:	fd8080e7          	jalr	-40(ra) # 808848 <cmrt_emc_read>
 1006878:	84aa                	mv	s1,a0
 100687a:	d565                	beqz	a0,1006862 <cmrt_get_entropyv+0x28>
 100687c:	854e                	mv	a0,s3
 100687e:	ff802097          	auipc	ra,0xff802
 1006882:	034080e7          	jalr	52(ra) # 8088b2 <cmrt_emc_close>
 1006886:	40f2                	lw	ra,28(sp)
 1006888:	4462                	lw	s0,24(sp)
 100688a:	4942                	lw	s2,16(sp)
 100688c:	49b2                	lw	s3,12(sp)
 100688e:	4a22                	lw	s4,8(sp)
 1006890:	8526                	mv	a0,s1
 1006892:	44d2                	lw	s1,20(sp)
 1006894:	6105                	addi	sp,sp,32
 1006896:	8082                	ret
 1006898:	4481                	li	s1,0
 100689a:	b7cd                	j	100687c <cmrt_get_entropyv+0x42>
 100689c:	54b5                	li	s1,-19
 100689e:	b7e5                	j	1006886 <cmrt_get_entropyv+0x4c>

010068a0 <z_impl_cmrt_get_entropy>:
 10068a0:	1101                	addi	sp,sp,-32
 10068a2:	87aa                	mv	a5,a0
 10068a4:	4505                	li	a0,1
 10068a6:	ce06                	sw	ra,28(sp)
 10068a8:	cc22                	sw	s0,24(sp)
 10068aa:	c63e                	sw	a5,12(sp)
 10068ac:	c42e                	sw	a1,8(sp)
 10068ae:	ff802097          	auipc	ra,0xff802
 10068b2:	ff4080e7          	jalr	-12(ra) # 8088a2 <cmrt_emc_open>
 10068b6:	c505                	beqz	a0,10068de <z_impl_cmrt_get_entropy+0x3e>
 10068b8:	4622                	lw	a2,8(sp)
 10068ba:	45b2                	lw	a1,12(sp)
 10068bc:	842a                	mv	s0,a0
 10068be:	ff802097          	auipc	ra,0xff802
 10068c2:	f8a080e7          	jalr	-118(ra) # 808848 <cmrt_emc_read>
 10068c6:	87aa                	mv	a5,a0
 10068c8:	8522                	mv	a0,s0
 10068ca:	843e                	mv	s0,a5
 10068cc:	ff802097          	auipc	ra,0xff802
 10068d0:	fe6080e7          	jalr	-26(ra) # 8088b2 <cmrt_emc_close>
 10068d4:	40f2                	lw	ra,28(sp)
 10068d6:	8522                	mv	a0,s0
 10068d8:	4462                	lw	s0,24(sp)
 10068da:	6105                	addi	sp,sp,32
 10068dc:	8082                	ret
 10068de:	5435                	li	s0,-19
 10068e0:	bfd5                	j	10068d4 <z_impl_cmrt_get_entropy+0x34>

010068e2 <cmrt_set_lifecycle>:
 10068e2:	1101                	addi	sp,sp,-32
 10068e4:	ce06                	sw	ra,28(sp)
 10068e6:	cc22                	sw	s0,24(sp)
 10068e8:	ca26                	sw	s1,20(sp)
 10068ea:	c62a                	sw	a0,12(sp)
 10068ec:	6541                	lui	a0,0x10
 10068ee:	ff803097          	auipc	ra,0xff803
 10068f2:	492080e7          	jalr	1170(ra) # 809d80 <z_impl_cmrt_omc_open>
 10068f6:	cd0d                	beqz	a0,1006930 <cmrt_set_lifecycle+0x4e>
 10068f8:	84aa                	mv	s1,a0
 10068fa:	4691                	li	a3,4
 10068fc:	0070                	addi	a2,sp,12
 10068fe:	4581                	li	a1,0
 1006900:	ff803097          	auipc	ra,0xff803
 1006904:	f70080e7          	jalr	-144(ra) # 809870 <z_impl_cmrt_omc_write>
 1006908:	842a                	mv	s0,a0
 100690a:	cd01                	beqz	a0,1006922 <cmrt_set_lifecycle+0x40>
 100690c:	8526                	mv	a0,s1
 100690e:	ff803097          	auipc	ra,0xff803
 1006912:	4e8080e7          	jalr	1256(ra) # 809df6 <z_impl_cmrt_omc_close>
 1006916:	40f2                	lw	ra,28(sp)
 1006918:	8522                	mv	a0,s0
 100691a:	4462                	lw	s0,24(sp)
 100691c:	44d2                	lw	s1,20(sp)
 100691e:	6105                	addi	sp,sp,32
 1006920:	8082                	ret
 1006922:	8526                	mv	a0,s1
 1006924:	ff803097          	auipc	ra,0xff803
 1006928:	4f4080e7          	jalr	1268(ra) # 809e18 <z_impl_cmrt_omc_sync>
 100692c:	842a                	mv	s0,a0
 100692e:	bff9                	j	100690c <cmrt_set_lifecycle+0x2a>
 1006930:	5435                	li	s0,-19
 1006932:	b7d5                	j	1006916 <cmrt_set_lifecycle+0x34>

01006934 <cmrt_burn_dgok>:
 1006934:	7159                	addi	sp,sp,-112
 1006936:	d686                	sw	ra,108(sp)
 1006938:	d4a2                	sw	s0,104(sp)
 100693a:	d2a6                	sw	s1,100(sp)
 100693c:	d0ca                	sw	s2,96(sp)
 100693e:	4631                	li	a2,12
 1006940:	4581                	li	a1,0
 1006942:	0028                	addi	a0,sp,8
 1006944:	ff7fe097          	auipc	ra,0xff7fe
 1006948:	ad2080e7          	jalr	-1326(ra) # 804416 <memset>
 100694c:	6785                	lui	a5,0x1
 100694e:	2287a703          	lw	a4,552(a5) # 1228 <__udivdi3-0x7ff184>
 1006952:	c63a                	sw	a4,12(sp)
 1006954:	22c7a783          	lw	a5,556(a5)
 1006958:	4721                	li	a4,8
 100695a:	c83a                	sw	a4,16(sp)
 100695c:	c43e                	sw	a5,8(sp)
 100695e:	00020537          	lui	a0,0x20
 1006962:	002c                	addi	a1,sp,8
 1006964:	ff804097          	auipc	ra,0xff804
 1006968:	666080e7          	jalr	1638(ra) # 80afca <z_impl_cmrt_tmc_open>
 100696c:	c13d                	beqz	a0,10069d2 <cmrt_burn_dgok+0x9e>
 100696e:	892a                	mv	s2,a0
 1006970:	4501                	li	a0,0
 1006972:	ff803097          	auipc	ra,0xff803
 1006976:	9d8080e7          	jalr	-1576(ra) # 80934a <z_impl_cmrt_kdc_open>
 100697a:	842a                	mv	s0,a0
 100697c:	cd29                	beqz	a0,10069d6 <cmrt_burn_dgok+0xa2>
 100697e:	04c00613          	li	a2,76
 1006982:	4581                	li	a1,0
 1006984:	0848                	addi	a0,sp,20
 1006986:	ff7fe097          	auipc	ra,0xff7fe
 100698a:	a90080e7          	jalr	-1392(ra) # 804416 <memset>
 100698e:	47c1                	li	a5,16
 1006990:	084c                	addi	a1,sp,20
 1006992:	8522                	mv	a0,s0
 1006994:	d63e                	sw	a5,44(sp)
 1006996:	ff803097          	auipc	ra,0xff803
 100699a:	838080e7          	jalr	-1992(ra) # 8091ce <cmrt_kdc_burn_dgok>
 100699e:	84aa                	mv	s1,a0
 10069a0:	c115                	beqz	a0,10069c4 <cmrt_burn_dgok+0x90>
 10069a2:	8522                	mv	a0,s0
 10069a4:	ff803097          	auipc	ra,0xff803
 10069a8:	9b6080e7          	jalr	-1610(ra) # 80935a <z_impl_cmrt_kdc_close>
 10069ac:	854a                	mv	a0,s2
 10069ae:	ff804097          	auipc	ra,0xff804
 10069b2:	62c080e7          	jalr	1580(ra) # 80afda <z_impl_cmrt_tmc_close>
 10069b6:	50b6                	lw	ra,108(sp)
 10069b8:	5426                	lw	s0,104(sp)
 10069ba:	5906                	lw	s2,96(sp)
 10069bc:	8526                	mv	a0,s1
 10069be:	5496                	lw	s1,100(sp)
 10069c0:	6165                	addi	sp,sp,112
 10069c2:	8082                	ret
 10069c4:	8522                	mv	a0,s0
 10069c6:	ff803097          	auipc	ra,0xff803
 10069ca:	9b6080e7          	jalr	-1610(ra) # 80937c <z_impl_cmrt_kdc_sync>
 10069ce:	84aa                	mv	s1,a0
 10069d0:	bfc9                	j	10069a2 <cmrt_burn_dgok+0x6e>
 10069d2:	54b5                	li	s1,-19
 10069d4:	b7cd                	j	10069b6 <cmrt_burn_dgok+0x82>
 10069d6:	854a                	mv	a0,s2
 10069d8:	ff804097          	auipc	ra,0xff804
 10069dc:	602080e7          	jalr	1538(ra) # 80afda <z_impl_cmrt_tmc_close>
 10069e0:	54b5                	li	s1,-19
 10069e2:	bfd1                	j	10069b6 <cmrt_burn_dgok+0x82>

010069e4 <cmrt_otp_app_start>:
 10069e4:	1101                	addi	sp,sp,-32
 10069e6:	cc22                	sw	s0,24(sp)
 10069e8:	842a                	mv	s0,a0
 10069ea:	ce06                	sw	ra,28(sp)
 10069ec:	ca26                	sw	s1,20(sp)
 10069ee:	ff803097          	auipc	ra,0xff803
 10069f2:	388080e7          	jalr	904(ra) # 809d76 <cmrt_otp_esw_start>
 10069f6:	c819                	beqz	s0,1006a0c <cmrt_otp_app_start+0x28>
 10069f8:	84aa                	mv	s1,a0
 10069fa:	46a1                	li	a3,8
 10069fc:	85aa                	mv	a1,a0
 10069fe:	0030                	addi	a2,sp,8
 1006a00:	8522                	mv	a0,s0
 1006a02:	ff803097          	auipc	ra,0xff803
 1006a06:	d32080e7          	jalr	-718(ra) # 809734 <z_impl_cmrt_omc_read>
 1006a0a:	c519                	beqz	a0,1006a18 <cmrt_otp_app_start+0x34>
 1006a0c:	40f2                	lw	ra,28(sp)
 1006a0e:	4462                	lw	s0,24(sp)
 1006a10:	44d2                	lw	s1,20(sp)
 1006a12:	4501                	li	a0,0
 1006a14:	6105                	addi	sp,sp,32
 1006a16:	8082                	ret
 1006a18:	4522                	lw	a0,8(sp)
 1006a1a:	6791                	lui	a5,0x4
 1006a1c:	cf378793          	addi	a5,a5,-781 # 3cf3 <__udivdi3-0x7fc6b9>
 1006a20:	fff50713          	addi	a4,a0,-1 # 1ffff <__udivdi3-0x7e03ad>
 1006a24:	fee7e4e3          	bltu	a5,a4,1006a0c <cmrt_otp_app_start+0x28>
 1006a28:	00357793          	andi	a5,a0,3
 1006a2c:	f3e5                	bnez	a5,1006a0c <cmrt_otp_app_start+0x28>
 1006a2e:	47b2                	lw	a5,12(sp)
 1006a30:	fff7c793          	not	a5,a5
 1006a34:	fcf51ce3          	bne	a0,a5,1006a0c <cmrt_otp_app_start+0x28>
 1006a38:	40f2                	lw	ra,28(sp)
 1006a3a:	4462                	lw	s0,24(sp)
 1006a3c:	0521                	addi	a0,a0,8
 1006a3e:	9526                	add	a0,a0,s1
 1006a40:	44d2                	lw	s1,20(sp)
 1006a42:	6105                	addi	sp,sp,32
 1006a44:	8082                	ret

01006a46 <z_impl_cmrt_perf_ref>:
 1006a46:	000747b7          	lui	a5,0x74
 1006a4a:	1507a583          	lw	a1,336(a5) # 74150 <__udivdi3-0x78c25c>
 1006a4e:	14c7a503          	lw	a0,332(a5)
 1006a52:	1507a783          	lw	a5,336(a5)
 1006a56:	00b78563          	beq	a5,a1,1006a60 <z_impl_cmrt_perf_ref+0x1a>
 1006a5a:	00054363          	bltz	a0,1006a60 <z_impl_cmrt_perf_ref+0x1a>
 1006a5e:	85be                	mv	a1,a5
 1006a60:	8082                	ret

01006a62 <z_impl_cmrt_uptime_get>:
 1006a62:	1141                	addi	sp,sp,-16
 1006a64:	c606                	sw	ra,12(sp)
 1006a66:	000747b7          	lui	a5,0x74
 1006a6a:	1507a703          	lw	a4,336(a5) # 74150 <__udivdi3-0x78c25c>
 1006a6e:	14c7a503          	lw	a0,332(a5)
 1006a72:	1507a583          	lw	a1,336(a5)
 1006a76:	00b70463          	beq	a4,a1,1006a7e <z_impl_cmrt_uptime_get+0x1c>
 1006a7a:	02054863          	bltz	a0,1006aaa <z_impl_cmrt_uptime_get+0x48>
 1006a7e:	3e800793          	li	a5,1000
 1006a82:	01006737          	lui	a4,0x1006
 1006a86:	4fc72603          	lw	a2,1276(a4) # 10064fc <z_clock_hw_cycles_per_sec>
 1006a8a:	02b785b3          	mul	a1,a5,a1
 1006a8e:	41f65693          	srai	a3,a2,0x1f
 1006a92:	02a7b733          	mulhu	a4,a5,a0
 1006a96:	02a78533          	mul	a0,a5,a0
 1006a9a:	95ba                	add	a1,a1,a4
 1006a9c:	ff7fa097          	auipc	ra,0xff7fa
 1006aa0:	910080e7          	jalr	-1776(ra) # 8003ac <__udivdi3>
 1006aa4:	40b2                	lw	ra,12(sp)
 1006aa6:	0141                	addi	sp,sp,16
 1006aa8:	8082                	ret
 1006aaa:	85ba                	mv	a1,a4
 1006aac:	bfc9                	j	1006a7e <z_impl_cmrt_uptime_get+0x1c>

01006aae <cmrt_wait_cycles>:
 1006aae:	000747b7          	lui	a5,0x74
 1006ab2:	14c7a783          	lw	a5,332(a5) # 7414c <__udivdi3-0x78c260>
 1006ab6:	00074737          	lui	a4,0x74
 1006aba:	953e                	add	a0,a0,a5
 1006abc:	14c72783          	lw	a5,332(a4) # 7414c <__udivdi3-0x78c260>
 1006ac0:	8f89                	sub	a5,a5,a0
 1006ac2:	fe07cde3          	bltz	a5,1006abc <cmrt_wait_cycles+0xe>
 1006ac6:	8082                	ret

01006ac8 <z_impl_cmrt_init_tmc_config>:
 1006ac8:	1141                	addi	sp,sp,-16
 1006aca:	4631                	li	a2,12
 1006acc:	4581                	li	a1,0
 1006ace:	c422                	sw	s0,8(sp)
 1006ad0:	c606                	sw	ra,12(sp)
 1006ad2:	842a                	mv	s0,a0
 1006ad4:	ff7fe097          	auipc	ra,0xff7fe
 1006ad8:	942080e7          	jalr	-1726(ra) # 804416 <memset>
 1006adc:	6785                	lui	a5,0x1
 1006ade:	2287a703          	lw	a4,552(a5) # 1228 <__udivdi3-0x7ff184>
 1006ae2:	40b2                	lw	ra,12(sp)
 1006ae4:	c058                	sw	a4,4(s0)
 1006ae6:	22c7a783          	lw	a5,556(a5)
 1006aea:	4721                	li	a4,8
 1006aec:	c418                	sw	a4,8(s0)
 1006aee:	c01c                	sw	a5,0(s0)
 1006af0:	4422                	lw	s0,8(sp)
 1006af2:	0141                	addi	sp,sp,16
 1006af4:	8082                	ret
	...

Disassembly of section .sentinel:

01006af8 <__bss_start>:
 1006af8:	54524c43          	0x54524c43

Disassembly of section .debug_aranges:

00000000 <.debug_aranges>:
   0:	001c                	0x1c
   2:	0000                	unimp
   4:	0002                	c.slli64	zero
   6:	0000                	unimp
   8:	0000                	unimp
   a:	0004                	0x4
   c:	0000                	unimp
   e:	0000                	unimp
  10:	6564                	flw	fs1,76(a0)
  12:	0100                	addi	s0,sp,128
  14:	006a                	c.slli	zero,0x1a
	...
  1e:	0000                	unimp
  20:	0084                	addi	s1,sp,64
  22:	0000                	unimp
  24:	0002                	c.slli64	zero
  26:	0d5f 0000 0004      	0x400000d5f
  2c:	0000                	unimp
  2e:	0000                	unimp
  30:	65ce                	flw	fa1,208(sp)
  32:	0100                	addi	s0,sp,128
  34:	009c                	addi	a5,sp,64
  36:	0000                	unimp
  38:	666a                	flw	fa2,152(sp)
  3a:	0100                	addi	s0,sp,128
  3c:	0064                	addi	s1,sp,12
  3e:	0000                	unimp
  40:	66ce                	flw	fa3,208(sp)
  42:	0100                	addi	s0,sp,128
  44:	0062                	c.slli	zero,0x18
  46:	0000                	unimp
  48:	6730                	flw	fa2,72(a4)
  4a:	0100                	addi	s0,sp,128
  4c:	0098                	addi	a4,sp,64
  4e:	0000                	unimp
  50:	67c8                	flw	fa0,12(a5)
  52:	0100                	addi	s0,sp,128
  54:	0072                	c.slli	zero,0x1c
  56:	0000                	unimp
  58:	683a                	flw	fa6,140(sp)
  5a:	0100                	addi	s0,sp,128
  5c:	0066                	c.slli	zero,0x19
  5e:	0000                	unimp
  60:	68a0                	flw	fs0,80(s1)
  62:	0100                	addi	s0,sp,128
  64:	0042                	c.slli	zero,0x10
  66:	0000                	unimp
  68:	68e2                	flw	fa7,24(sp)
  6a:	0100                	addi	s0,sp,128
  6c:	0052                	c.slli	zero,0x14
  6e:	0000                	unimp
  70:	6934                	flw	fa3,80(a0)
  72:	0100                	addi	s0,sp,128
  74:	00b0                	addi	a2,sp,72
  76:	0000                	unimp
  78:	69e4                	flw	fs1,84(a1)
  7a:	0100                	addi	s0,sp,128
  7c:	0062                	c.slli	zero,0x18
  7e:	0000                	unimp
  80:	6a46                	flw	fs4,80(sp)
  82:	0100                	addi	s0,sp,128
  84:	001c                	0x1c
  86:	0000                	unimp
  88:	6a62                	flw	fs4,24(sp)
  8a:	0100                	addi	s0,sp,128
  8c:	004c                	addi	a1,sp,4
  8e:	0000                	unimp
  90:	6aae                	flw	fs5,200(sp)
  92:	0100                	addi	s0,sp,128
  94:	001a                	c.slli	zero,0x6
  96:	0000                	unimp
  98:	6ac8                	flw	fa0,20(a3)
  9a:	0100                	addi	s0,sp,128
  9c:	002e                	c.slli	zero,0xb
	...

Disassembly of section .debug_info:

00000000 <.debug_info>:
       0:	00000d5b          	0xd5b
       4:	0004                	0x4
       6:	0000                	unimp
       8:	0000                	unimp
       a:	0104                	addi	s1,sp,128
       c:	03f6                	slli	t2,t2,0x1d
       e:	0000                	unimp
      10:	830c                	0x830c
      12:	0000                	unimp
      14:	1600                	addi	s0,sp,800
      16:	18000003          	lb	zero,384(zero) # 180 <__udivdi3-0x80022c>
	...
      22:	0000                	unimp
      24:	0200                	addi	s0,sp,256
      26:	0504                	addi	s1,sp,640
      28:	6e69                	lui	t3,0x1a
      2a:	0074                	addi	a3,sp,12
      2c:	00006b03          	0x6b03
      30:	0400                	addi	s0,sp,512
      32:	17d1                	addi	a5,a5,-12
      34:	0038                	addi	a4,sp,8
      36:	0000                	unimp
      38:	0404                	addi	s1,sp,512
      3a:	00027f07          	0x27f07
      3e:	0400                	addi	s0,sp,512
      40:	0508                	addi	a0,sp,640
      42:	01ce                	slli	gp,gp,0x13
      44:	0000                	unimp
      46:	1004                	addi	s1,sp,32
      48:	3604                	fld	fs1,40(a2)
      4a:	0002                	c.slli64	zero
      4c:	0400                	addi	s0,sp,512
      4e:	0601                	addi	a2,a2,0
      50:	025f 0000 0204      	0x2040000025f
      56:	6105                	addi	sp,sp,32
      58:	0000                	unimp
      5a:	0300                	addi	s0,sp,384
      5c:	0141                	addi	sp,sp,16
      5e:	0000                	unimp
      60:	3a05                	jal	fffff990 <_end+0xfeff8e94>
      62:	6719                	lui	a4,0x6
      64:	0000                	unimp
      66:	0400                	addi	s0,sp,512
      68:	0801                	addi	a6,a6,0
      6a:	025d                	addi	tp,tp,23
      6c:	0000                	unimp
      6e:	00029c03          	lh	s8,0(t0)
      72:	0500                	addi	s0,sp,640
      74:	007a1a3b          	0x7a1a3b
      78:	0000                	unimp
      7a:	0204                	addi	s1,sp,256
      7c:	0002c507          	flq	fa0,0(t0)
      80:	0300                	addi	s0,sp,384
      82:	017c                	addi	a5,sp,140
      84:	0000                	unimp
      86:	3c05                	jal	fffffab6 <_end+0xfeff8fba>
      88:	381a                	fld	fa6,416(sp)
      8a:	0000                	unimp
      8c:	0500                	addi	s0,sp,640
      8e:	0081                	addi	ra,ra,0
      90:	0000                	unimp
      92:	0804                	addi	s1,sp,16
      94:	00027507          	0x27507
      98:	0400                	addi	s0,sp,512
      9a:	0504                	addi	s1,sp,640
      9c:	000001d3          	fadd.s	ft3,ft0,ft0,rne
      a0:	00039a03          	lh	s4,0(t2)
      a4:	0500                	addi	s0,sp,640
      a6:	00ac1a4b          	fnmsub.s	fs4,fs8,fa0,ft0,rtz
      aa:	0000                	unimp
      ac:	0404                	addi	s1,sp,512
      ae:	00027a07          	0x27a07
      b2:	0600                	addi	s0,sp,768
      b4:	0404                	addi	s1,sp,512
      b6:	0201                	addi	tp,tp,0
      b8:	02d8                	addi	a4,sp,324
      ba:	0000                	unimp
      bc:	005b0407          	0x5b0407
      c0:	0000                	unimp
      c2:	00c80407          	0xc80407
      c6:	0000                	unimp
      c8:	0104                	addi	s1,sp,128
      ca:	6608                	flw	fa0,8(a2)
      cc:	0002                	c.slli64	zero
      ce:	0500                	addi	s0,sp,640
      d0:	00c8                	addi	a0,sp,68
      d2:	0000                	unimp
      d4:	00da0407          	0xda0407
      d8:	0000                	unimp
      da:	0308                	addi	a0,sp,384
      dc:	000002b3          	add	t0,zero,zero
      e0:	1506                	slli	a0,a0,0x21
      e2:	0000a013          	slti	zero,ra,0
      e6:	0700                	addi	s0,sp,896
      e8:	cf04                	sw	s1,24(a4)
      ea:	0000                	unimp
      ec:	0900                	addi	s0,sp,144
      ee:	0000018b          	0x18b
      f2:	0708                	addi	a0,sp,896
      f4:	0810                	addi	a2,sp,16
      f6:	0115                	addi	sp,sp,5
      f8:	0000                	unimp
      fa:	240a                	fld	fs0,128(sp)
      fc:	0002                	c.slli64	zero
      fe:	0700                	addi	s0,sp,896
     100:	0e11                	addi	t3,t3,4
     102:	000000e7          	jalr	zero # 0 <__udivdi3-0x8003ac>
     106:	0a00                	addi	s0,sp,272
     108:	0394                	addi	a3,sp,448
     10a:	0000                	unimp
     10c:	5b0a1207          	0x5b0a1207
     110:	0000                	unimp
     112:	0400                	addi	s0,sp,512
     114:	0500                	addi	s0,sp,640
     116:	00ed                	addi	ra,ra,27
     118:	0000                	unimp
     11a:	ad09                	j	72c <__udivdi3-0x7ffc80>
     11c:	0001                	nop
     11e:	0400                	addi	s0,sp,512
     120:	35081d07          	0x35081d07
     124:	0001                	nop
     126:	0a00                	addi	s0,sp,272
     128:	030e                	slli	t1,t1,0x3
     12a:	0000                	unimp
     12c:	810b1e07          	0x810b1e07
     130:	0000                	unimp
     132:	0000                	unimp
     134:	0b00                	addi	s0,sp,400
     136:	059a                	slli	a1,a1,0x6
     138:	0000                	unimp
     13a:	012c0803          	lb	a6,18(s8)
     13e:	6e08                	flw	fa0,24(a2)
     140:	0001                	nop
     142:	0c00                	addi	s0,sp,528
     144:	656c                	flw	fa1,76(a0)
     146:	006e                	c.slli	zero,0x1b
     148:	2d08                	fld	fa0,24(a0)
     14a:	0a01                	addi	s4,s4,0
     14c:	0000005b          	0x5b
     150:	0d00                	addi	s0,sp,656
     152:	0139                	addi	sp,sp,14
     154:	0000                	unimp
     156:	2e08                	fld	fa0,24(a2)
     158:	0a01                	addi	s4,s4,0
     15a:	0000005b          	0x5b
     15e:	0d01                	addi	s10,s10,0
     160:	0136                	slli	sp,sp,0xd
     162:	0000                	unimp
     164:	2f08                	fld	fa0,24(a4)
     166:	0a01                	addi	s4,s4,0
     168:	0000005b          	0x5b
     16c:	0002                	c.slli64	zero
     16e:	050e                	slli	a0,a0,0x3
     170:	0002                	c.slli64	zero
     172:	0400                	addi	s0,sp,512
     174:	3308                	fld	fa0,32(a4)
     176:	0701                	addi	a4,a4,0
     178:	00000197          	auipc	gp,0x0
     17c:	0002ae0f          	0x2ae0f
     180:	0800                	addi	s0,sp,16
     182:	0134                	addi	a3,sp,136
     184:	3519                	jal	ffffff8a <_end+0xfeff948e>
     186:	0001                	nop
     188:	1000                	addi	s0,sp,32
     18a:	6172                	flw	ft2,28(sp)
     18c:	35080077          	0x35080077
     190:	0801                	addi	a6,a6,0
     192:	000000b3          	add	ra,zero,zero
     196:	0300                	addi	s0,sp,384
     198:	03d6                	slli	t2,t2,0x15
     19a:	0000                	unimp
     19c:	2209                	jal	29e <__udivdi3-0x80010e>
     19e:	8112                	mv	sp,tp
     1a0:	0000                	unimp
     1a2:	0900                	addi	s0,sp,144
     1a4:	02a5                	addi	t0,t0,9
     1a6:	0000                	unimp
     1a8:	0904                	addi	s1,sp,144
     1aa:	0832                	slli	a6,a6,0xc
     1ac:	0231                	addi	tp,tp,12
     1ae:	0000                	unimp
     1b0:	6511                	lui	a0,0x4
     1b2:	0006                	c.slli	zero,0x1
     1b4:	0900                	addi	s0,sp,144
     1b6:	00810233          	add	tp,sp,s0
     1ba:	0000                	unimp
     1bc:	0104                	addi	s1,sp,128
     1be:	001f e611 0003      	0x3e611001f
     1c4:	0900                	addi	s0,sp,144
     1c6:	00810233          	add	tp,sp,s0
     1ca:	0000                	unimp
     1cc:	0104                	addi	s1,sp,128
     1ce:	001e                	c.slli	zero,0x7
     1d0:	8c11                	sub	s0,s0,a2
     1d2:	0002                	c.slli64	zero
     1d4:	0900                	addi	s0,sp,144
     1d6:	00810233          	add	tp,sp,s0
     1da:	0000                	unimp
     1dc:	0104                	addi	s1,sp,128
     1de:	001d                	c.nop	7
     1e0:	1e11                	addi	t3,t3,-28
     1e2:	0000                	unimp
     1e4:	0900                	addi	s0,sp,144
     1e6:	0b34                	addi	a3,sp,408
     1e8:	0081                	addi	ra,ra,0
     1ea:	0000                	unimp
     1ec:	0304                	addi	s1,sp,384
     1ee:	001a                	c.slli	zero,0x6
     1f0:	9411                	srai	s0,s0,0x24
     1f2:	09000003          	lb	zero,144(zero) # 90 <__udivdi3-0x80031c>
     1f6:	0b35                	addi	s6,s6,13
     1f8:	0081                	addi	ra,ra,0
     1fa:	0000                	unimp
     1fc:	0304                	addi	s1,sp,384
     1fe:	8e110017          	auipc	zero,0x8e110
     202:	0005                	c.nop	1
     204:	0900                	addi	s0,sp,144
     206:	0b36                	slli	s6,s6,0xd
     208:	0081                	addi	ra,ra,0
     20a:	0000                	unimp
     20c:	0a04                	addi	s1,sp,272
     20e:	000d                	c.nop	3
     210:	1b11                	addi	s6,s6,-28
     212:	0002                	c.slli64	zero
     214:	0900                	addi	s0,sp,144
     216:	00810b37          	lui	s6,0x810
     21a:	0000                	unimp
     21c:	0c04                	addi	s1,sp,528
     21e:	0001                	nop
     220:	2311                	jal	724 <__udivdi3-0x7ffc88>
     222:	0005                	c.nop	1
     224:	0900                	addi	s0,sp,144
     226:	0b38                	addi	a4,sp,408
     228:	0081                	addi	ra,ra,0
     22a:	0000                	unimp
     22c:	0104                	addi	s1,sp,128
     22e:	0000                	unimp
     230:	0700                	addi	s0,sp,896
     232:	1504                	addi	s1,sp,672
     234:	0001                	nop
     236:	0700                	addi	s0,sp,896
     238:	1a04                	addi	s1,sp,304
     23a:	0001                	nop
     23c:	0900                	addi	s0,sp,144
     23e:	0229                	addi	tp,tp,10
     240:	0000                	unimp
     242:	090c                	addi	a1,sp,144
     244:	0841                	addi	a6,a6,16
     246:	0272                	slli	tp,tp,0x1c
     248:	0000                	unimp
     24a:	ae0a                	fsd	ft2,280(sp)
     24c:	0002                	c.slli64	zero
     24e:	0900                	addi	s0,sp,144
     250:	1742                	slli	a4,a4,0x30
     252:	000001a3          	sb	zero,3(zero) # 3 <__udivdi3-0x8003a9>
     256:	0a00                	addi	s0,sp,272
     258:	0214                	addi	a3,sp,256
     25a:	0000                	unimp
     25c:	4a09                	li	s4,2
     25e:	d40e                	sw	gp,40(sp)
     260:	0000                	unimp
     262:	0400                	addi	s0,sp,512
     264:	140a                	slli	s0,s0,0x22
     266:	0000                	unimp
     268:	0900                	addi	s0,sp,144
     26a:	0197124b          	fnmsub.s	ft4,fa4,fs9,ft0,rtz
     26e:	0000                	unimp
     270:	0008                	0x8
     272:	8709                	srai	a4,a4,0x2
     274:	0c000003          	lb	zero,192(zero) # c0 <__udivdi3-0x8002ec>
     278:	5509                	li	a0,-30
     27a:	9a08                	0x9a08
     27c:	0002                	c.slli64	zero
     27e:	1200                	addi	s0,sp,288
     280:	6468                	flw	fa0,76(s0)
     282:	0072                	c.slli	zero,0x1c
     284:	5609                	li	a2,-30
     286:	3d16                	fld	fs10,352(sp)
     288:	0002                	c.slli64	zero
     28a:	0000                	unimp
     28c:	c00a                	sw	sp,0(sp)
     28e:	0001                	nop
     290:	0900                	addi	s0,sp,144
     292:	029a0a57          	0x29a0a57
     296:	0000                	unimp
     298:	000c                	0xc
     29a:	00005b13          	srli	s6,zero,0x0
     29e:	a900                	fsd	fs0,16(a0)
     2a0:	0002                	c.slli64	zero
     2a2:	1400                	addi	s0,sp,544
     2a4:	0038                	addi	a4,sp,8
     2a6:	0000                	unimp
     2a8:	1500                	addi	s0,sp,672
     2aa:	02e5                	addi	t0,t0,25
     2ac:	0000                	unimp
     2ae:	00380407          	0x380407
     2b2:	0000                	unimp
     2b4:	6809                	lui	a6,0x2
     2b6:	d406                	sw	ra,40(sp)
     2b8:	0002                	c.slli64	zero
     2ba:	1600                	addi	s0,sp,800
     2bc:	0025                	c.nop	9
     2be:	0000                	unimp
     2c0:	1600                	addi	s0,sp,800
     2c2:	052c                	addi	a1,sp,648
     2c4:	0000                	unimp
     2c6:	1601                	addi	a2,a2,-32
     2c8:	0162                	slli	sp,sp,0x18
     2ca:	0000                	unimp
     2cc:	1602                	slli	a2,a2,0x20
     2ce:	0564                	addi	s1,sp,652
     2d0:	0000                	unimp
     2d2:	e6030003          	lb	zero,-416(t1)
     2d6:	0001                	nop
     2d8:	0a00                	addi	s0,sp,272
     2da:	171d                	addi	a4,a4,-25
     2dc:	00ac                	addi	a1,sp,72
     2de:	0000                	unimp
     2e0:	0509                	addi	a0,a0,2
     2e2:	0001                	nop
     2e4:	0200                	addi	s0,sp,256
     2e6:	550a                	lw	a0,160(sp)
     2e8:	1e08                	addi	a0,sp,816
     2ea:	11000003          	lb	zero,272(zero) # 110 <__udivdi3-0x80029c>
     2ee:	0394                	addi	a3,sp,448
     2f0:	0000                	unimp
     2f2:	560a                	lw	a2,160(sp)
     2f4:	00006e0b          	0x6e0b
     2f8:	0200                	addi	s0,sp,256
     2fa:	11000d03          	lb	s10,272(zero) # 110 <__udivdi3-0x80029c>
     2fe:	00000057          	0x57
     302:	570a                	lw	a4,160(sp)
     304:	00006e0b          	0x6e0b
     308:	0200                	addi	s0,sp,256
     30a:	11000a03          	lb	s4,272(zero) # 110 <__udivdi3-0x80029c>
     30e:	0505                	addi	a0,a0,1
     310:	0000                	unimp
     312:	580a                	lw	a6,160(sp)
     314:	00006e0b          	0x6e0b
     318:	0200                	addi	s0,sp,256
     31a:	000a                	c.slli	zero,0x2
     31c:	0000                	unimp
     31e:	00014917          	auipc	s2,0x14
     322:	0100                	addi	s0,sp,128
     324:	010c                	addi	a1,sp,128
     326:	0231                	addi	tp,tp,12
     328:	0000                	unimp
     32a:	1700                	addi	s0,sp,928
     32c:	0242                	slli	tp,tp,0x10
     32e:	0000                	unimp
     330:	0c01                	addi	s8,s8,0
     332:	3701                	jal	232 <__udivdi3-0x80017a>
     334:	0002                	c.slli64	zero
     336:	0000                	unimp
     338:	0000f917          	auipc	s2,0xf
     33c:	0100                	addi	s0,sp,128
     33e:	010c                	addi	a1,sp,128
     340:	008d                	addi	ra,ra,3
     342:	0000                	unimp
     344:	1300                	addi	s0,sp,416
     346:	000000cf          	fnmadd.s	ft1,ft0,ft0,ft0,rne
     34a:	0355                	addi	t1,t1,21
     34c:	0000                	unimp
     34e:	3818                	fld	fa4,48(s0)
     350:	0000                	unimp
     352:	1300                	addi	s0,sp,416
     354:	0500                	addi	s0,sp,640
     356:	0345                	addi	t1,t1,17
     358:	0000                	unimp
     35a:	0019                	c.nop	6
     35c:	0000                	unimp
     35e:	0100                	addi	s0,sp,128
     360:	1312                	slli	t1,t1,0x24
     362:	0355                	addi	t1,t1,21
     364:	0000                	unimp
     366:	0305                	addi	t1,t1,1
     368:	6550                	flw	fa2,12(a0)
     36a:	0100                	addi	s0,sp,128
     36c:	201a                	fld	ft0,384(sp)
     36e:	0000                	unimp
     370:	0100                	addi	s0,sp,128
     372:	0514                	addi	a3,sp,640
     374:	0025                	c.nop	9
     376:	0000                	unimp
     378:	6564                	flw	fs1,76(a0)
     37a:	0100                	addi	s0,sp,128
     37c:	006a                	c.slli	zero,0x1a
     37e:	0000                	unimp
     380:	9c01                	0x9c01
     382:	00000be3          	beqz	zero,b98 <__udivdi3-0x7ff814>
     386:	00011a1b          	0x11a1b
     38a:	0100                	addi	s0,sp,128
     38c:	00810b17          	auipc	s6,0x810
     390:	0000                	unimp
     392:	0000                	unimp
     394:	0000                	unimp
     396:	721c                	flw	fa5,32(a2)
     398:	7365                	lui	t1,0xffff9
     39a:	0100                	addi	s0,sp,128
     39c:	061e                	slli	a2,a2,0x7
     39e:	0025                	c.nop	9
     3a0:	0000                	unimp
     3a2:	00000013          	nop
     3a6:	6f1d                	lui	t5,0x7
     3a8:	7475                	lui	s0,0xffffd
     3aa:	0100                	addi	s0,sp,128
     3ac:	65a4022b          	0x65a4022b
     3b0:	0100                	addi	s0,sp,128
     3b2:	b41e                	fsd	ft7,40(sp)
     3b4:	1f000007          	0x1f000007
     3b8:	00000047          	fmsub.s	ft0,ft0,ft0,ft0,rne
     3bc:	1c01                	addi	s8,s8,-32
     3be:	b502                	fsd	ft0,168(sp)
     3c0:	0000                	unimp
     3c2:	1f00                	addi	s0,sp,944
     3c4:	030e                	slli	t1,t1,0x3
     3c6:	0000                	unimp
     3c8:	1c01                	addi	s8,s8,-32
     3ca:	8102                	jr	sp
     3cc:	0000                	unimp
     3ce:	1e00                	addi	s0,sp,816
     3d0:	0799                	addi	a5,a5,6
     3d2:	0000                	unimp
     3d4:	ef1f 0002 0100      	0x1000002ef1f
     3da:	021c                	addi	a5,sp,256
     3dc:	0025                	c.nop	9
     3de:	0000                	unimp
     3e0:	c71f 0003 0100      	0x1000003c71f
     3e6:	021c                	addi	a5,sp,256
     3e8:	000000b3          	add	ra,zero,zero
     3ec:	fe1e                	fsw	ft7,60(sp)
     3ee:	20000003          	lb	zero,512(zero) # 200 <__udivdi3-0x8001ac>
     3f2:	725f 0076 1c01      	0x1c010076725f
     3f8:	2502                	fld	fa0,0(sp)
     3fa:	0000                	unimp
     3fc:	0000                	unimp
     3fe:	1f21                	addi	t5,t5,-24
     400:	0185                	addi	gp,gp,1
     402:	0000                	unimp
     404:	1c01                	addi	s8,s8,-32
     406:	2502                	fld	fa0,0(sp)
     408:	0000                	unimp
     40a:	1f00                	addi	s0,sp,944
     40c:	03a4                	addi	s1,sp,456
     40e:	0000                	unimp
     410:	1c01                	addi	s8,s8,-32
     412:	e302                	fsw	ft0,132(sp)
     414:	1f00000b          	0x1f00000b
     418:	03a9                	addi	t2,t2,10
     41a:	0000                	unimp
     41c:	1c01                	addi	s8,s8,-32
     41e:	e902                	fsw	ft0,144(sp)
     420:	1f00000b          	0x1f00000b
     424:	003d                	c.nop	15
     426:	0000                	unimp
     428:	1c01                	addi	s8,s8,-32
     42a:	f902                	fsw	ft0,176(sp)
     42c:	1f00000b          	0x1f00000b
     430:	01dc                	addi	a5,sp,196
     432:	0000                	unimp
     434:	1c01                	addi	s8,s8,-32
     436:	0902                	c.slli64	s2
     438:	000c                	0xc
     43a:	1f00                	addi	s0,sp,944
     43c:	0072                	c.slli	zero,0x1c
     43e:	0000                	unimp
     440:	1c01                	addi	s8,s8,-32
     442:	1902                	slli	s2,s2,0x20
     444:	000c                	0xc
     446:	1f00                	addi	s0,sp,944
     448:	000003b3          	add	t2,zero,zero
     44c:	1c01                	addi	s8,s8,-32
     44e:	2902                	fld	fs2,0(sp)
     450:	000c                	0xc
     452:	1f00                	addi	s0,sp,944
     454:	0519                	addi	a0,a0,6
     456:	0000                	unimp
     458:	1c01                	addi	s8,s8,-32
     45a:	3902                	fld	fs2,32(sp)
     45c:	000c                	0xc
     45e:	1f00                	addi	s0,sp,944
     460:	03cc                	addi	a1,sp,452
     462:	0000                	unimp
     464:	1c01                	addi	s8,s8,-32
     466:	4902                	lw	s2,0(sp)
     468:	000c                	0xc
     46a:	1f00                	addi	s0,sp,944
     46c:	0304                	addi	s1,sp,384
     46e:	0000                	unimp
     470:	1c01                	addi	s8,s8,-32
     472:	5902                	lw	s2,32(sp)
     474:	000c                	0xc
     476:	1f00                	addi	s0,sp,944
     478:	000003eb          	0x3eb
     47c:	1c01                	addi	s8,s8,-32
     47e:	6902                	flw	fs2,0(sp)
     480:	000c                	0xc
     482:	1f00                	addi	s0,sp,944
     484:	0291                	addi	t0,t0,4
     486:	0000                	unimp
     488:	1c01                	addi	s8,s8,-32
     48a:	7902                	flw	fs2,32(sp)
     48c:	000c                	0xc
     48e:	1f00                	addi	s0,sp,944
     490:	02ad                	addi	t0,t0,11
     492:	0000                	unimp
     494:	1c01                	addi	s8,s8,-32
     496:	a302                	fsd	ft0,384(sp)
     498:	0001                	nop
     49a:	1e00                	addi	s0,sp,816
     49c:	0000061b          	0x61b
     4a0:	be1f 0003 0100      	0x1000003be1f
     4a6:	021c                	addi	a5,sp,256
     4a8:	00b5                	addi	ra,ra,13
     4aa:	0000                	unimp
     4ac:	f51f 0002 0100      	0x1000002f51f
     4b2:	021c                	addi	a5,sp,256
     4b4:	00bc                	addi	a5,sp,72
     4b6:	0000                	unimp
     4b8:	de1f 0002 0100      	0x1000002de1f
     4be:	021c                	addi	a5,sp,256
     4c0:	0000005b          	0x5b
     4c4:	6b1f 0002 0100      	0x10000026b1f
     4ca:	021c                	addi	a5,sp,256
     4cc:	0c89                	addi	s9,s9,2
     4ce:	0000                	unimp
     4d0:	7d1f 0000 0100      	0x10000007d1f
     4d6:	021c                	addi	a5,sp,256
     4d8:	002c                	addi	a1,sp,8
     4da:	0000                	unimp
     4dc:	fb1f 0002 0100      	0x1000002fb1f
     4e2:	021c                	addi	a5,sp,256
     4e4:	0025                	c.nop	9
     4e6:	0000                	unimp
     4e8:	fa1f 0004 0100      	0x1000004fa1f
     4ee:	021c                	addi	a5,sp,256
     4f0:	0025                	c.nop	9
     4f2:	0000                	unimp
     4f4:	a11f 0001 0100      	0x1000001a11f
     4fa:	021c                	addi	a5,sp,256
     4fc:	0025                	c.nop	9
     4fe:	0000                	unimp
     500:	c51f 0001 0100      	0x1000001c51f
     506:	021c                	addi	a5,sp,256
     508:	0c99                	addi	s9,s9,6
     50a:	0000                	unimp
     50c:	841e                	mv	s0,t2
     50e:	0005                	c.nop	1
     510:	1f00                	addi	s0,sp,944
     512:	0000050f          	0x50f
     516:	1c01                	addi	s8,s8,-32
     518:	8102                	jr	sp
     51a:	0000                	unimp
     51c:	1e00                	addi	s0,sp,816
     51e:	053a                	slli	a0,a0,0xe
     520:	0000                	unimp
     522:	5f20                	lw	s0,120(a4)
     524:	0076                	c.slli	zero,0x1d
     526:	1c01                	addi	s8,s8,-32
     528:	c202                	sw	zero,4(sp)
     52a:	0000                	unimp
     52c:	1f00                	addi	s0,sp,944
     52e:	0000050f          	0x50f
     532:	1c01                	addi	s8,s8,-32
     534:	2c02                	fld	fs8,0(sp)
     536:	0000                	unimp
     538:	0000                	unimp
     53a:	2021                	jal	542 <__udivdi3-0x7ffe6a>
     53c:	765f 0100 021c      	0x21c0100765f
     542:	00c2                	slli	ra,ra,0x10
     544:	0000                	unimp
     546:	5f20                	lw	s0,120(a4)
     548:	0064                	addi	s1,sp,12
     54a:	1c01                	addi	s8,s8,-32
     54c:	9f02                	jalr	t5
     54e:	000c                	0xc
     550:	1f00                	addi	s0,sp,944
     552:	0510                	addi	a2,sp,640
     554:	0000                	unimp
     556:	1c01                	addi	s8,s8,-32
     558:	2c02                	fld	fs8,0(sp)
     55a:	0000                	unimp
     55c:	1f00                	addi	s0,sp,944
     55e:	000d                	c.nop	3
     560:	0000                	unimp
     562:	1c01                	addi	s8,s8,-32
     564:	2c02                	fld	fs8,0(sp)
     566:	0000                	unimp
     568:	2100                	fld	fs0,0(a0)
     56a:	5f20                	lw	s0,120(a4)
     56c:	0076                	c.slli	zero,0x1d
     56e:	1c01                	addi	s8,s8,-32
     570:	c202                	sw	zero,4(sp)
     572:	0000                	unimp
     574:	1f00                	addi	s0,sp,944
     576:	0000050f          	0x50f
     57a:	1c01                	addi	s8,s8,-32
     57c:	2c02                	fld	fs8,0(sp)
     57e:	0000                	unimp
     580:	0000                	unimp
     582:	0000                	unimp
     584:	fc1e                	fsw	ft7,56(sp)
     586:	0005                	c.nop	1
     588:	1f00                	addi	s0,sp,944
     58a:	0000050f          	0x50f
     58e:	1c01                	addi	s8,s8,-32
     590:	8102                	jr	sp
     592:	0000                	unimp
     594:	1e00                	addi	s0,sp,816
     596:	05b2                	slli	a1,a1,0xc
     598:	0000                	unimp
     59a:	5f20                	lw	s0,120(a4)
     59c:	0076                	c.slli	zero,0x1d
     59e:	1c01                	addi	s8,s8,-32
     5a0:	e702                	fsw	ft0,140(sp)
     5a2:	0000                	unimp
     5a4:	1f00                	addi	s0,sp,944
     5a6:	0000050f          	0x50f
     5aa:	1c01                	addi	s8,s8,-32
     5ac:	2c02                	fld	fs8,0(sp)
     5ae:	0000                	unimp
     5b0:	0000                	unimp
     5b2:	2021                	jal	5ba <__udivdi3-0x7ffdf2>
     5b4:	765f 0100 021c      	0x21c0100765f
     5ba:	000000e7          	jalr	zero # 0 <__udivdi3-0x8003ac>
     5be:	5f20                	lw	s0,120(a4)
     5c0:	0064                	addi	s1,sp,12
     5c2:	1c01                	addi	s8,s8,-32
     5c4:	9f02                	jalr	t5
     5c6:	000c                	0xc
     5c8:	1f00                	addi	s0,sp,944
     5ca:	0510                	addi	a2,sp,640
     5cc:	0000                	unimp
     5ce:	1c01                	addi	s8,s8,-32
     5d0:	2c02                	fld	fs8,0(sp)
     5d2:	0000                	unimp
     5d4:	1f00                	addi	s0,sp,944
     5d6:	000d                	c.nop	3
     5d8:	0000                	unimp
     5da:	1c01                	addi	s8,s8,-32
     5dc:	2c02                	fld	fs8,0(sp)
     5de:	0000                	unimp
     5e0:	2100                	fld	fs0,0(a0)
     5e2:	5f20                	lw	s0,120(a4)
     5e4:	0076                	c.slli	zero,0x1d
     5e6:	1c01                	addi	s8,s8,-32
     5e8:	e702                	fsw	ft0,140(sp)
     5ea:	0000                	unimp
     5ec:	1f00                	addi	s0,sp,944
     5ee:	0000050f          	0x50f
     5f2:	1c01                	addi	s8,s8,-32
     5f4:	2c02                	fld	fs8,0(sp)
     5f6:	0000                	unimp
     5f8:	0000                	unimp
     5fa:	0000                	unimp
     5fc:	0c1e                	slli	s8,s8,0x7
     5fe:	0006                	c.slli	zero,0x1
     600:	2000                	fld	fs0,0(s0)
     602:	0069                	c.nop	26
     604:	1c01                	addi	s8,s8,-32
     606:	2502                	fld	fa0,0(sp)
     608:	0000                	unimp
     60a:	0000                	unimp
     60c:	2021                	jal	614 <__udivdi3-0x7ffd98>
     60e:	6468                	flw	fa0,76(s0)
     610:	0072                	c.slli	zero,0x1c
     612:	1c01                	addi	s8,s8,-32
     614:	6e02                	flw	ft8,0(sp)
     616:	0001                	nop
     618:	0000                	unimp
     61a:	2100                	fld	fs0,0(a0)
     61c:	be1f 0003 0100      	0x1000003be1f
     622:	021c                	addi	a5,sp,256
     624:	00b5                	addi	ra,ra,13
     626:	0000                	unimp
     628:	f51f 0002 0100      	0x1000002f51f
     62e:	021c                	addi	a5,sp,256
     630:	00bc                	addi	a5,sp,72
     632:	0000                	unimp
     634:	de1f 0002 0100      	0x1000002de1f
     63a:	021c                	addi	a5,sp,256
     63c:	0000005b          	0x5b
     640:	6b1f 0002 0100      	0x10000026b1f
     646:	021c                	addi	a5,sp,256
     648:	0c89                	addi	s9,s9,2
     64a:	0000                	unimp
     64c:	7d1f 0000 0100      	0x10000007d1f
     652:	021c                	addi	a5,sp,256
     654:	002c                	addi	a1,sp,8
     656:	0000                	unimp
     658:	fb1f 0002 0100      	0x1000002fb1f
     65e:	021c                	addi	a5,sp,256
     660:	0025                	c.nop	9
     662:	0000                	unimp
     664:	fa1f 0004 0100      	0x1000004fa1f
     66a:	021c                	addi	a5,sp,256
     66c:	0025                	c.nop	9
     66e:	0000                	unimp
     670:	a11f 0001 0100      	0x1000001a11f
     676:	021c                	addi	a5,sp,256
     678:	0025                	c.nop	9
     67a:	0000                	unimp
     67c:	c51f 0001 0100      	0x1000001c51f
     682:	021c                	addi	a5,sp,256
     684:	0c99                	addi	s9,s9,6
     686:	0000                	unimp
     688:	001e                	c.slli	zero,0x7
     68a:	1f000007          	0x1f000007
     68e:	0000050f          	0x50f
     692:	1c01                	addi	s8,s8,-32
     694:	8102                	jr	sp
     696:	0000                	unimp
     698:	1e00                	addi	s0,sp,816
     69a:	06b6                	slli	a3,a3,0xd
     69c:	0000                	unimp
     69e:	5f20                	lw	s0,120(a4)
     6a0:	0076                	c.slli	zero,0x1d
     6a2:	1c01                	addi	s8,s8,-32
     6a4:	c202                	sw	zero,4(sp)
     6a6:	0000                	unimp
     6a8:	1f00                	addi	s0,sp,944
     6aa:	0000050f          	0x50f
     6ae:	1c01                	addi	s8,s8,-32
     6b0:	2c02                	fld	fs8,0(sp)
     6b2:	0000                	unimp
     6b4:	0000                	unimp
     6b6:	2021                	jal	6be <__udivdi3-0x7ffcee>
     6b8:	765f 0100 021c      	0x21c0100765f
     6be:	00c2                	slli	ra,ra,0x10
     6c0:	0000                	unimp
     6c2:	5f20                	lw	s0,120(a4)
     6c4:	0064                	addi	s1,sp,12
     6c6:	1c01                	addi	s8,s8,-32
     6c8:	9f02                	jalr	t5
     6ca:	000c                	0xc
     6cc:	1f00                	addi	s0,sp,944
     6ce:	0510                	addi	a2,sp,640
     6d0:	0000                	unimp
     6d2:	1c01                	addi	s8,s8,-32
     6d4:	2c02                	fld	fs8,0(sp)
     6d6:	0000                	unimp
     6d8:	1f00                	addi	s0,sp,944
     6da:	000d                	c.nop	3
     6dc:	0000                	unimp
     6de:	1c01                	addi	s8,s8,-32
     6e0:	2c02                	fld	fs8,0(sp)
     6e2:	0000                	unimp
     6e4:	2100                	fld	fs0,0(a0)
     6e6:	5f20                	lw	s0,120(a4)
     6e8:	0076                	c.slli	zero,0x1d
     6ea:	1c01                	addi	s8,s8,-32
     6ec:	c202                	sw	zero,4(sp)
     6ee:	0000                	unimp
     6f0:	1f00                	addi	s0,sp,944
     6f2:	0000050f          	0x50f
     6f6:	1c01                	addi	s8,s8,-32
     6f8:	2c02                	fld	fs8,0(sp)
     6fa:	0000                	unimp
     6fc:	0000                	unimp
     6fe:	0000                	unimp
     700:	781e                	flw	fa6,228(sp)
     702:	1f000007          	0x1f000007
     706:	0000050f          	0x50f
     70a:	1c01                	addi	s8,s8,-32
     70c:	8102                	jr	sp
     70e:	0000                	unimp
     710:	1e00                	addi	s0,sp,816
     712:	072e                	slli	a4,a4,0xb
     714:	0000                	unimp
     716:	5f20                	lw	s0,120(a4)
     718:	0076                	c.slli	zero,0x1d
     71a:	1c01                	addi	s8,s8,-32
     71c:	e702                	fsw	ft0,140(sp)
     71e:	0000                	unimp
     720:	1f00                	addi	s0,sp,944
     722:	0000050f          	0x50f
     726:	1c01                	addi	s8,s8,-32
     728:	2c02                	fld	fs8,0(sp)
     72a:	0000                	unimp
     72c:	0000                	unimp
     72e:	2021                	jal	736 <__udivdi3-0x7ffc76>
     730:	765f 0100 021c      	0x21c0100765f
     736:	000000e7          	jalr	zero # 0 <__udivdi3-0x8003ac>
     73a:	5f20                	lw	s0,120(a4)
     73c:	0064                	addi	s1,sp,12
     73e:	1c01                	addi	s8,s8,-32
     740:	9f02                	jalr	t5
     742:	000c                	0xc
     744:	1f00                	addi	s0,sp,944
     746:	0510                	addi	a2,sp,640
     748:	0000                	unimp
     74a:	1c01                	addi	s8,s8,-32
     74c:	2c02                	fld	fs8,0(sp)
     74e:	0000                	unimp
     750:	1f00                	addi	s0,sp,944
     752:	000d                	c.nop	3
     754:	0000                	unimp
     756:	1c01                	addi	s8,s8,-32
     758:	2c02                	fld	fs8,0(sp)
     75a:	0000                	unimp
     75c:	2100                	fld	fs0,0(a0)
     75e:	5f20                	lw	s0,120(a4)
     760:	0076                	c.slli	zero,0x1d
     762:	1c01                	addi	s8,s8,-32
     764:	e702                	fsw	ft0,140(sp)
     766:	0000                	unimp
     768:	1f00                	addi	s0,sp,944
     76a:	0000050f          	0x50f
     76e:	1c01                	addi	s8,s8,-32
     770:	2c02                	fld	fs8,0(sp)
     772:	0000                	unimp
     774:	0000                	unimp
     776:	0000                	unimp
     778:	881e                	mv	a6,t2
     77a:	20000007          	0x20000007
     77e:	0069                	c.nop	26
     780:	1c01                	addi	s8,s8,-32
     782:	2502                	fld	fa0,0(sp)
     784:	0000                	unimp
     786:	0000                	unimp
     788:	2021                	jal	790 <__udivdi3-0x7ffc1c>
     78a:	6468                	flw	fa0,76(s0)
     78c:	0072                	c.slli	zero,0x1c
     78e:	1c01                	addi	s8,s8,-32
     790:	6e02                	flw	ft8,0(sp)
     792:	0001                	nop
     794:	0000                	unimp
     796:	0000                	unimp
     798:	2100                	fld	fs0,0(a0)
     79a:	be1f 0002 0100      	0x1000002be1f
     7a0:	021c                	addi	a5,sp,256
     7a2:	006e                	c.slli	zero,0x1b
     7a4:	0000                	unimp
     7a6:	901f 0003 0100      	0x1000003901f
     7ac:	021c                	addi	a5,sp,256
     7ae:	02e0                	addi	s0,sp,332
     7b0:	0000                	unimp
     7b2:	0000                	unimp
     7b4:	c61e                	sw	t2,12(sp)
     7b6:	000a                	c.slli	zero,0x2
     7b8:	1f00                	addi	s0,sp,944
     7ba:	00000047          	fmsub.s	ft0,ft0,ft0,ft0,rne
     7be:	2a01                	jal	8ce <__udivdi3-0x7ffade>
     7c0:	b502                	fsd	ft0,168(sp)
     7c2:	0000                	unimp
     7c4:	1f00                	addi	s0,sp,944
     7c6:	030e                	slli	t1,t1,0x3
     7c8:	0000                	unimp
     7ca:	2a01                	jal	8da <__udivdi3-0x7ffad2>
     7cc:	8102                	jr	sp
     7ce:	0000                	unimp
     7d0:	1e00                	addi	s0,sp,816
     7d2:	00000aab          	0xaab
     7d6:	ef1f 0002 0100      	0x1000002ef1f
     7dc:	022a                	slli	tp,tp,0xa
     7de:	0025                	c.nop	9
     7e0:	0000                	unimp
     7e2:	c71f 0003 0100      	0x1000003c71f
     7e8:	022a                	slli	tp,tp,0xa
     7ea:	000000b3          	add	ra,zero,zero
     7ee:	001e                	c.slli	zero,0x7
     7f0:	0008                	0x8
     7f2:	2000                	fld	fs0,0(s0)
     7f4:	725f 0076 2a01      	0x2a010076725f
     7fa:	2502                	fld	fa0,0(sp)
     7fc:	0000                	unimp
     7fe:	0000                	unimp
     800:	1f21                	addi	t5,t5,-24
     802:	0185                	addi	gp,gp,1
     804:	0000                	unimp
     806:	2a01                	jal	916 <__udivdi3-0x7ffa96>
     808:	2502                	fld	fa0,0(sp)
     80a:	0000                	unimp
     80c:	1f00                	addi	s0,sp,944
     80e:	03a4                	addi	s1,sp,456
     810:	0000                	unimp
     812:	2a01                	jal	922 <__udivdi3-0x7ffa8a>
     814:	e302                	fsw	ft0,132(sp)
     816:	1f00000b          	0x1f00000b
     81a:	03a9                	addi	t2,t2,10
     81c:	0000                	unimp
     81e:	2a01                	jal	92e <__udivdi3-0x7ffa7e>
     820:	e902                	fsw	ft0,144(sp)
     822:	1f00000b          	0x1f00000b
     826:	003d                	c.nop	15
     828:	0000                	unimp
     82a:	2a01                	jal	93a <__udivdi3-0x7ffa72>
     82c:	f902                	fsw	ft0,176(sp)
     82e:	1f00000b          	0x1f00000b
     832:	01dc                	addi	a5,sp,196
     834:	0000                	unimp
     836:	2a01                	jal	946 <__udivdi3-0x7ffa66>
     838:	0902                	c.slli64	s2
     83a:	000c                	0xc
     83c:	1f00                	addi	s0,sp,944
     83e:	0072                	c.slli	zero,0x1c
     840:	0000                	unimp
     842:	2a01                	jal	952 <__udivdi3-0x7ffa5a>
     844:	1902                	slli	s2,s2,0x20
     846:	000c                	0xc
     848:	1f00                	addi	s0,sp,944
     84a:	000003b3          	add	t2,zero,zero
     84e:	2a01                	jal	95e <__udivdi3-0x7ffa4e>
     850:	2902                	fld	fs2,0(sp)
     852:	000c                	0xc
     854:	1f00                	addi	s0,sp,944
     856:	0519                	addi	a0,a0,6
     858:	0000                	unimp
     85a:	2a01                	jal	96a <__udivdi3-0x7ffa42>
     85c:	3902                	fld	fs2,32(sp)
     85e:	000c                	0xc
     860:	1f00                	addi	s0,sp,944
     862:	03cc                	addi	a1,sp,452
     864:	0000                	unimp
     866:	2a01                	jal	976 <__udivdi3-0x7ffa36>
     868:	4902                	lw	s2,0(sp)
     86a:	000c                	0xc
     86c:	1f00                	addi	s0,sp,944
     86e:	0304                	addi	s1,sp,384
     870:	0000                	unimp
     872:	2a01                	jal	982 <__udivdi3-0x7ffa2a>
     874:	5902                	lw	s2,32(sp)
     876:	000c                	0xc
     878:	1f00                	addi	s0,sp,944
     87a:	000003eb          	0x3eb
     87e:	2a01                	jal	98e <__udivdi3-0x7ffa1e>
     880:	6902                	flw	fs2,0(sp)
     882:	000c                	0xc
     884:	1f00                	addi	s0,sp,944
     886:	0291                	addi	t0,t0,4
     888:	0000                	unimp
     88a:	2a01                	jal	99a <__udivdi3-0x7ffa12>
     88c:	7902                	flw	fs2,32(sp)
     88e:	000c                	0xc
     890:	1f00                	addi	s0,sp,944
     892:	02ad                	addi	t0,t0,11
     894:	0000                	unimp
     896:	2a01                	jal	9a6 <__udivdi3-0x7ffa06>
     898:	a302                	fsd	ft0,384(sp)
     89a:	0001                	nop
     89c:	1e00                	addi	s0,sp,816
     89e:	09a5                	addi	s3,s3,9
     8a0:	0000                	unimp
     8a2:	be1f 0003 0100      	0x1000003be1f
     8a8:	022a                	slli	tp,tp,0xa
     8aa:	00b5                	addi	ra,ra,13
     8ac:	0000                	unimp
     8ae:	f51f 0002 0100      	0x1000002f51f
     8b4:	022a                	slli	tp,tp,0xa
     8b6:	00bc                	addi	a5,sp,72
     8b8:	0000                	unimp
     8ba:	de1f 0002 0100      	0x1000002de1f
     8c0:	022a                	slli	tp,tp,0xa
     8c2:	0000005b          	0x5b
     8c6:	6b1f 0002 0100      	0x10000026b1f
     8cc:	022a                	slli	tp,tp,0xa
     8ce:	0c89                	addi	s9,s9,2
     8d0:	0000                	unimp
     8d2:	7d1f 0000 0100      	0x10000007d1f
     8d8:	022a                	slli	tp,tp,0xa
     8da:	002c                	addi	a1,sp,8
     8dc:	0000                	unimp
     8de:	fb1f 0002 0100      	0x1000002fb1f
     8e4:	022a                	slli	tp,tp,0xa
     8e6:	0025                	c.nop	9
     8e8:	0000                	unimp
     8ea:	fa1f 0004 0100      	0x1000004fa1f
     8f0:	022a                	slli	tp,tp,0xa
     8f2:	0025                	c.nop	9
     8f4:	0000                	unimp
     8f6:	a11f 0001 0100      	0x1000001a11f
     8fc:	022a                	slli	tp,tp,0xa
     8fe:	0025                	c.nop	9
     900:	0000                	unimp
     902:	c51f 0001 0100      	0x1000001c51f
     908:	022a                	slli	tp,tp,0xa
     90a:	0c99                	addi	s9,s9,6
     90c:	0000                	unimp
     90e:	861e                	mv	a2,t2
     910:	0009                	c.nop	2
     912:	1f00                	addi	s0,sp,944
     914:	0000050f          	0x50f
     918:	2a01                	jal	a28 <__udivdi3-0x7ff984>
     91a:	8102                	jr	sp
     91c:	0000                	unimp
     91e:	1e00                	addi	s0,sp,816
     920:	093c                	addi	a5,sp,152
     922:	0000                	unimp
     924:	5f20                	lw	s0,120(a4)
     926:	0076                	c.slli	zero,0x1d
     928:	2a01                	jal	a38 <__udivdi3-0x7ff974>
     92a:	c202                	sw	zero,4(sp)
     92c:	0000                	unimp
     92e:	1f00                	addi	s0,sp,944
     930:	0000050f          	0x50f
     934:	2a01                	jal	a44 <__udivdi3-0x7ff968>
     936:	2c02                	fld	fs8,0(sp)
     938:	0000                	unimp
     93a:	0000                	unimp
     93c:	2021                	jal	944 <__udivdi3-0x7ffa68>
     93e:	765f 0100 022a      	0x22a0100765f
     944:	00c2                	slli	ra,ra,0x10
     946:	0000                	unimp
     948:	5f20                	lw	s0,120(a4)
     94a:	0064                	addi	s1,sp,12
     94c:	2a01                	jal	a5c <__udivdi3-0x7ff950>
     94e:	9f02                	jalr	t5
     950:	000c                	0xc
     952:	1f00                	addi	s0,sp,944
     954:	0510                	addi	a2,sp,640
     956:	0000                	unimp
     958:	2a01                	jal	a68 <__udivdi3-0x7ff944>
     95a:	2c02                	fld	fs8,0(sp)
     95c:	0000                	unimp
     95e:	1f00                	addi	s0,sp,944
     960:	000d                	c.nop	3
     962:	0000                	unimp
     964:	2a01                	jal	a74 <__udivdi3-0x7ff938>
     966:	2c02                	fld	fs8,0(sp)
     968:	0000                	unimp
     96a:	2100                	fld	fs0,0(a0)
     96c:	5f20                	lw	s0,120(a4)
     96e:	0076                	c.slli	zero,0x1d
     970:	2a01                	jal	a80 <__udivdi3-0x7ff92c>
     972:	c202                	sw	zero,4(sp)
     974:	0000                	unimp
     976:	1f00                	addi	s0,sp,944
     978:	0000050f          	0x50f
     97c:	2a01                	jal	a8c <__udivdi3-0x7ff920>
     97e:	2c02                	fld	fs8,0(sp)
     980:	0000                	unimp
     982:	0000                	unimp
     984:	0000                	unimp
     986:	961e                	add	a2,a2,t2
     988:	0009                	c.nop	2
     98a:	2000                	fld	fs0,0(s0)
     98c:	0069                	c.nop	26
     98e:	2a01                	jal	a9e <__udivdi3-0x7ff90e>
     990:	2502                	fld	fa0,0(sp)
     992:	0000                	unimp
     994:	0000                	unimp
     996:	2021                	jal	99e <__udivdi3-0x7ffa0e>
     998:	6468                	flw	fa0,76(s0)
     99a:	0072                	c.slli	zero,0x1c
     99c:	2a01                	jal	aac <__udivdi3-0x7ff900>
     99e:	6e02                	flw	ft8,0(sp)
     9a0:	0001                	nop
     9a2:	0000                	unimp
     9a4:	2100                	fld	fs0,0(a0)
     9a6:	be1f 0003 0100      	0x1000003be1f
     9ac:	022a                	slli	tp,tp,0xa
     9ae:	00b5                	addi	ra,ra,13
     9b0:	0000                	unimp
     9b2:	f51f 0002 0100      	0x1000002f51f
     9b8:	022a                	slli	tp,tp,0xa
     9ba:	00bc                	addi	a5,sp,72
     9bc:	0000                	unimp
     9be:	de1f 0002 0100      	0x1000002de1f
     9c4:	022a                	slli	tp,tp,0xa
     9c6:	0000005b          	0x5b
     9ca:	6b1f 0002 0100      	0x10000026b1f
     9d0:	022a                	slli	tp,tp,0xa
     9d2:	0c89                	addi	s9,s9,2
     9d4:	0000                	unimp
     9d6:	7d1f 0000 0100      	0x10000007d1f
     9dc:	022a                	slli	tp,tp,0xa
     9de:	002c                	addi	a1,sp,8
     9e0:	0000                	unimp
     9e2:	fb1f 0002 0100      	0x1000002fb1f
     9e8:	022a                	slli	tp,tp,0xa
     9ea:	0025                	c.nop	9
     9ec:	0000                	unimp
     9ee:	fa1f 0004 0100      	0x1000004fa1f
     9f4:	022a                	slli	tp,tp,0xa
     9f6:	0025                	c.nop	9
     9f8:	0000                	unimp
     9fa:	a11f 0001 0100      	0x1000001a11f
     a00:	022a                	slli	tp,tp,0xa
     a02:	0025                	c.nop	9
     a04:	0000                	unimp
     a06:	c51f 0001 0100      	0x1000001c51f
     a0c:	022a                	slli	tp,tp,0xa
     a0e:	0c99                	addi	s9,s9,6
     a10:	0000                	unimp
     a12:	8a1e                	mv	s4,t2
     a14:	000a                	c.slli	zero,0x2
     a16:	1f00                	addi	s0,sp,944
     a18:	0000050f          	0x50f
     a1c:	2a01                	jal	b2c <__udivdi3-0x7ff880>
     a1e:	8102                	jr	sp
     a20:	0000                	unimp
     a22:	1e00                	addi	s0,sp,816
     a24:	0a40                	addi	s0,sp,276
     a26:	0000                	unimp
     a28:	5f20                	lw	s0,120(a4)
     a2a:	0076                	c.slli	zero,0x1d
     a2c:	2a01                	jal	b3c <__udivdi3-0x7ff870>
     a2e:	c202                	sw	zero,4(sp)
     a30:	0000                	unimp
     a32:	1f00                	addi	s0,sp,944
     a34:	0000050f          	0x50f
     a38:	2a01                	jal	b48 <__udivdi3-0x7ff864>
     a3a:	2c02                	fld	fs8,0(sp)
     a3c:	0000                	unimp
     a3e:	0000                	unimp
     a40:	2021                	jal	a48 <__udivdi3-0x7ff964>
     a42:	765f 0100 022a      	0x22a0100765f
     a48:	00c2                	slli	ra,ra,0x10
     a4a:	0000                	unimp
     a4c:	5f20                	lw	s0,120(a4)
     a4e:	0064                	addi	s1,sp,12
     a50:	2a01                	jal	b60 <__udivdi3-0x7ff84c>
     a52:	9f02                	jalr	t5
     a54:	000c                	0xc
     a56:	1f00                	addi	s0,sp,944
     a58:	0510                	addi	a2,sp,640
     a5a:	0000                	unimp
     a5c:	2a01                	jal	b6c <__udivdi3-0x7ff840>
     a5e:	2c02                	fld	fs8,0(sp)
     a60:	0000                	unimp
     a62:	1f00                	addi	s0,sp,944
     a64:	000d                	c.nop	3
     a66:	0000                	unimp
     a68:	2a01                	jal	b78 <__udivdi3-0x7ff834>
     a6a:	2c02                	fld	fs8,0(sp)
     a6c:	0000                	unimp
     a6e:	2100                	fld	fs0,0(a0)
     a70:	5f20                	lw	s0,120(a4)
     a72:	0076                	c.slli	zero,0x1d
     a74:	2a01                	jal	b84 <__udivdi3-0x7ff828>
     a76:	c202                	sw	zero,4(sp)
     a78:	0000                	unimp
     a7a:	1f00                	addi	s0,sp,944
     a7c:	0000050f          	0x50f
     a80:	2a01                	jal	b90 <__udivdi3-0x7ff81c>
     a82:	2c02                	fld	fs8,0(sp)
     a84:	0000                	unimp
     a86:	0000                	unimp
     a88:	0000                	unimp
     a8a:	9a1e                	add	s4,s4,t2
     a8c:	000a                	c.slli	zero,0x2
     a8e:	2000                	fld	fs0,0(s0)
     a90:	0069                	c.nop	26
     a92:	2a01                	jal	ba2 <__udivdi3-0x7ff80a>
     a94:	2502                	fld	fa0,0(sp)
     a96:	0000                	unimp
     a98:	0000                	unimp
     a9a:	2021                	jal	aa2 <__udivdi3-0x7ff90a>
     a9c:	6468                	flw	fa0,76(s0)
     a9e:	0072                	c.slli	zero,0x1c
     aa0:	2a01                	jal	bb0 <__udivdi3-0x7ff7fc>
     aa2:	6e02                	flw	ft8,0(sp)
     aa4:	0001                	nop
     aa6:	0000                	unimp
     aa8:	0000                	unimp
     aaa:	2100                	fld	fs0,0(a0)
     aac:	be1f 0002 0100      	0x1000002be1f
     ab2:	022a                	slli	tp,tp,0xa
     ab4:	006e                	c.slli	zero,0x1b
     ab6:	0000                	unimp
     ab8:	901f 0003 0100      	0x1000003901f
     abe:	022a                	slli	tp,tp,0xa
     ac0:	02e0                	addi	s0,sp,332
     ac2:	0000                	unimp
     ac4:	0000                	unimp
     ac6:	d822                	sw	s0,48(sp)
     ac8:	000c                	0xc
     aca:	7800                	flw	fs0,48(s0)
     acc:	0065                	c.nop	25
     ace:	0601                	addi	a2,a2,0
     ad0:	0000                	unimp
     ad2:	0100                	addi	s0,sp,128
     ad4:	0b071717          	auipc	a4,0xb071
     ad8:	0000                	unimp
     ada:	000cf523          	0xcf523
     ade:	3100                	fld	fs0,32(a0)
     ae0:	0000                	unimp
     ae2:	2300                	fld	fs0,0(a4)
     ae4:	0ce9                	addi	s9,s9,26
     ae6:	0000                	unimp
     ae8:	00000047          	fmsub.s	ft0,ft0,ft0,ft0,rne
     aec:	2824                	fld	fs1,80(s0)
     aee:	000d                	c.nop	3
     af0:	7800                	flw	fs0,48(s0)
     af2:	0065                	c.nop	25
     af4:	0601                	addi	a2,a2,0
     af6:	0000                	unimp
     af8:	0200                	addi	s0,sp,256
     afa:	09b2                	slli	s3,s3,0xc
     afc:	000d3923          	0xd3923
     b00:	5d00                	lw	s0,56(a0)
     b02:	0000                	unimp
     b04:	0000                	unimp
     b06:	2200                	fld	fs0,0(a2)
     b08:	0ca6                	slli	s9,s9,0x9
     b0a:	0000                	unimp
     b0c:	658c                	flw	fa1,8(a1)
     b0e:	0100                	addi	s0,sp,128
     b10:	000e                	c.slli	zero,0x3
     b12:	0000                	unimp
     b14:	1b01                	addi	s6,s6,-32
     b16:	5a02                	lw	s4,32(sp)
     b18:	2300000b          	0x2300000b
     b1c:	00000ccb          	fnmsub.s	fs9,ft0,ft0,ft0,rne
     b20:	00000073          	ecall
     b24:	000cbf23          	0xcbf23
     b28:	8b00                	0x8b00
     b2a:	0000                	unimp
     b2c:	2300                	fld	fs0,0(a4)
     b2e:	00000cb3          	add	s9,zero,zero
     b32:	00a1                	addi	ra,ra,8
     b34:	0000                	unimp
     b36:	0224                	addi	s1,sp,264
     b38:	000d                	c.nop	3
     b3a:	8c00                	0x8c00
     b3c:	0065                	c.nop	25
     b3e:	0e01                	addi	t3,t3,0
     b40:	0000                	unimp
     b42:	0200                	addi	s0,sp,256
     b44:	02c0                	addi	s0,sp,324
     b46:	000d1b23          	sh	zero,22(s10)
     b4a:	b700                	fsd	fs0,40(a4)
     b4c:	0000                	unimp
     b4e:	2300                	fld	fs0,0(a4)
     b50:	00000d0f          	0xd0f
     b54:	00000073          	ecall
     b58:	0000                	unimp
     b5a:	a625                	j	e82 <__udivdi3-0x7ff52a>
     b5c:	000c                	0xc
     b5e:	bc00                	fsd	fs0,56(s0)
     b60:	0065                	c.nop	25
     b62:	0001                	nop
     b64:	0000                	unimp
     b66:	0100                	addi	s0,sp,128
     b68:	022d                	addi	tp,tp,11
     b6a:	0bad                	addi	s7,s7,11
     b6c:	0000                	unimp
     b6e:	000ccb23          	0xccb23
     b72:	cd00                	sw	s0,24(a0)
     b74:	0000                	unimp
     b76:	2300                	fld	fs0,0(a4)
     b78:	00000cbf 000000e0 	0xe000000cbf
     b80:	000cb323          	0xcb323
     b84:	f600                	fsw	fs0,40(a2)
     b86:	0000                	unimp
     b88:	2600                	fld	fs0,8(a2)
     b8a:	0d02                	c.slli64	s10
     b8c:	0000                	unimp
     b8e:	65bc                	flw	fa5,72(a1)
     b90:	0100                	addi	s0,sp,128
     b92:	0000                	unimp
     b94:	0000                	unimp
     b96:	c002                	sw	zero,0(sp)
     b98:	2302                	fld	ft6,0(sp)
     b9a:	00000d1b          	0xd1b
     b9e:	010c                	addi	a1,sp,128
     ba0:	0000                	unimp
     ba2:	000d0f23          	sb	zero,30(s10)
     ba6:	cd00                	sw	s0,24(a0)
     ba8:	0000                	unimp
     baa:	0000                	unimp
     bac:	2700                	fld	fs0,8(a4)
     bae:	6578                	flw	fa4,76(a0)
     bb0:	0100                	addi	s0,sp,128
     bb2:	0d46                	slli	s10,s10,0x11
     bb4:	0000                	unimp
     bb6:	0bc5                	addi	s7,s7,17
     bb8:	0000                	unimp
     bba:	0128                	addi	a0,sp,136
     bbc:	015a                	slli	sp,sp,0x16
     bbe:	2840                	fld	fs0,144(s0)
     bc0:	5b01                	li	s6,-32
     bc2:	4001                	c.li	zero,0
     bc4:	2900                	fld	fs0,16(a0)
     bc6:	65a2                	flw	fa1,8(sp)
     bc8:	0100                	addi	s0,sp,128
     bca:	0d52                	slli	s10,s10,0x14
     bcc:	0000                	unimp
     bce:	b02a                	fsd	fa0,32(sp)
     bd0:	0065                	c.nop	25
     bd2:	4601                	li	a2,0
     bd4:	000d                	c.nop	3
     bd6:	2800                	fld	fs0,16(s0)
     bd8:	5a01                	li	s4,-32
     bda:	3001                	jal	3da <__udivdi3-0x7fffd2>
     bdc:	0128                	addi	a0,sp,136
     bde:	0040015b          	0x40015b
     be2:	0700                	addi	s0,sp,896
     be4:	7204                	flw	fs1,32(a2)
     be6:	0002                	c.slli64	zero
     be8:	1300                	addi	s0,sp,416
     bea:	0000003f 00000bf9 	0xbf90000003f
     bf2:	3818                	fld	fa4,48(s0)
     bf4:	0000                	unimp
     bf6:	0300                	addi	s0,sp,384
     bf8:	1300                	addi	s0,sp,416
     bfa:	0000003f 00000c09 	0xc090000003f
     c02:	3818                	fld	fa4,48(s0)
     c04:	0000                	unimp
     c06:	0500                	addi	s0,sp,640
     c08:	1300                	addi	s0,sp,416
     c0a:	0000003f 00000c19 	0xc190000003f
     c12:	3818                	fld	fa4,48(s0)
     c14:	0000                	unimp
     c16:	0700                	addi	s0,sp,896
     c18:	1300                	addi	s0,sp,416
     c1a:	0000003f 00000c29 	0xc290000003f
     c22:	3818                	fld	fa4,48(s0)
     c24:	0000                	unimp
     c26:	0f00                	addi	s0,sp,912
     c28:	1300                	addi	s0,sp,416
     c2a:	0000003f 00000c39 	0xc390000003f
     c32:	3818                	fld	fa4,48(s0)
     c34:	0000                	unimp
     c36:	1f00                	addi	s0,sp,944
     c38:	1300                	addi	s0,sp,416
     c3a:	0046                	c.slli	zero,0x11
     c3c:	0000                	unimp
     c3e:	0c49                	addi	s8,s8,18
     c40:	0000                	unimp
     c42:	3818                	fld	fa4,48(s0)
     c44:	0000                	unimp
     c46:	0100                	addi	s0,sp,128
     c48:	1300                	addi	s0,sp,416
     c4a:	0046                	c.slli	zero,0x11
     c4c:	0000                	unimp
     c4e:	0c59                	addi	s8,s8,22
     c50:	0000                	unimp
     c52:	3818                	fld	fa4,48(s0)
     c54:	0000                	unimp
     c56:	0200                	addi	s0,sp,256
     c58:	1300                	addi	s0,sp,416
     c5a:	0046                	c.slli	zero,0x11
     c5c:	0000                	unimp
     c5e:	0c69                	addi	s8,s8,26
     c60:	0000                	unimp
     c62:	3818                	fld	fa4,48(s0)
     c64:	0000                	unimp
     c66:	0300                	addi	s0,sp,384
     c68:	1300                	addi	s0,sp,416
     c6a:	0046                	c.slli	zero,0x11
     c6c:	0000                	unimp
     c6e:	0c79                	addi	s8,s8,30
     c70:	0000                	unimp
     c72:	3818                	fld	fa4,48(s0)
     c74:	0000                	unimp
     c76:	0700                	addi	s0,sp,896
     c78:	1300                	addi	s0,sp,416
     c7a:	0046                	c.slli	zero,0x11
     c7c:	0000                	unimp
     c7e:	0c89                	addi	s9,s9,2
     c80:	0000                	unimp
     c82:	3818                	fld	fa4,48(s0)
     c84:	0000                	unimp
     c86:	0f00                	addi	s0,sp,912
     c88:	1300                	addi	s0,sp,416
     c8a:	006e                	c.slli	zero,0x1b
     c8c:	0000                	unimp
     c8e:	0c99                	addi	s9,s9,6
     c90:	0000                	unimp
     c92:	3818                	fld	fa4,48(s0)
     c94:	0000                	unimp
     c96:	0f00                	addi	s0,sp,912
     c98:	0700                	addi	s0,sp,896
     c9a:	6e04                	flw	fs1,24(a2)
     c9c:	0001                	nop
     c9e:	0400                	addi	s0,sp,512
     ca0:	0408                	addi	a0,sp,512
     ca2:	0000023b          	0x23b
     ca6:	0005472b          	0x5472b
     caa:	0200                	addi	s0,sp,256
     cac:	14be                	slli	s1,s1,0x2f
     cae:	000cd803          	lhu	a6,0(s9)
     cb2:	2c00                	fld	fs0,24(s0)
     cb4:	000001fb          	0x1fb
     cb8:	be02                	fsd	ft0,312(sp)
     cba:	812c                	0x812c
     cbc:	0000                	unimp
     cbe:	2d00                	fld	fs0,24(a0)
     cc0:	6572                	flw	fa0,28(sp)
     cc2:	be020067          	jr	-1056(tp) # 0 <__udivdi3-0x8003ac>
     cc6:	0000813b          	0x813b
     cca:	2c00                	fld	fs0,24(s0)
     ccc:	0130                	addi	a2,sp,136
     cce:	0000                	unimp
     cd0:	be02                	fsd	ft0,312(sp)
     cd2:	8149                	srli	a0,a0,0x12
     cd4:	0000                	unimp
     cd6:	0000                	unimp
     cd8:	562e                	lw	a2,232(sp)
     cda:	0005                	c.nop	1
     cdc:	0200                	addi	s0,sp,256
     cde:	18b0                	addi	a2,sp,120
     ce0:	0081                	addi	ra,ra,0
     ce2:	0000                	unimp
     ce4:	000d0203          	lb	tp,0(s10)
     ce8:	2c00                	fld	fs0,24(s0)
     cea:	000001fb          	0x1fb
     cee:	b002                	fsd	ft0,32(sp)
     cf0:	0000812f          	0x812f
     cf4:	2d00                	fld	fs0,24(a0)
     cf6:	6572                	flw	fa0,28(sp)
     cf8:	b0020067          	jr	-1280(tp) # 0 <__udivdi3-0x8003ac>
     cfc:	813e                	mv	sp,a5
     cfe:	0000                	unimp
     d00:	0000                	unimp
     d02:	0001242b          	0x1242b
     d06:	0300                	addi	s0,sp,384
     d08:	1b30                	addi	a2,sp,440
     d0a:	000d2803          	lw	a6,0(s10)
     d0e:	2c00                	fld	fs0,24(s0)
     d10:	01c0                	addi	s0,sp,196
     d12:	0000                	unimp
     d14:	81303003          	0x81303003
     d18:	0000                	unimp
     d1a:	2c00                	fld	fs0,24(s0)
     d1c:	0200                	addi	s0,sp,256
     d1e:	0000                	unimp
     d20:	db413003          	0xdb413003
     d24:	0000                	unimp
     d26:	0000                	unimp
     d28:	f02e                	fsw	fa1,32(sp)
     d2a:	0001                	nop
     d2c:	0300                	addi	s0,sp,384
     d2e:	00811f2b          	0x811f2b
     d32:	0000                	unimp
     d34:	000d4603          	lbu	a2,0(s10)
     d38:	2c00                	fld	fs0,24(s0)
     d3a:	0200                	addi	s0,sp,256
     d3c:	0000                	unimp
     d3e:	db352b03          	lw	s6,-589(a0) # 3db3 <__udivdi3-0x7fc5f9>
     d42:	0000                	unimp
     d44:	0000                	unimp
     d46:	0005792f          	0x5792f
     d4a:	7900                	flw	fs0,48(a0)
     d4c:	0005                	c.nop	1
     d4e:	0200                	addi	s0,sp,256
     d50:	06cc                	addi	a1,sp,836
     d52:	0001112f          	0x1112f
     d56:	1100                	addi	s0,sp,160
     d58:	0001                	nop
     d5a:	0b00                	addi	s0,sp,400
     d5c:	0569                	addi	a0,a0,26
     d5e:	e000                	fsw	fs0,0(s0)
     d60:	002c                	addi	a1,sp,8
     d62:	0400                	addi	s0,sp,512
     d64:	ac00                	fsd	fs0,24(s0)
     d66:	0002                	c.slli64	zero
     d68:	0400                	addi	s0,sp,512
     d6a:	f601                	bnez	a2,c72 <__udivdi3-0x7ff73a>
     d6c:	0c000003          	lb	zero,192(zero) # c0 <__udivdi3-0x8002ec>
     d70:	00000b9b          	0xb9b
     d74:	0996                	slli	s3,s3,0x5
     d76:	0000                	unimp
     d78:	0370                	addi	a2,sp,396
     d7a:	0000                	unimp
     d7c:	0000                	unimp
     d7e:	0000                	unimp
     d80:	04a2                	slli	s1,s1,0x8
     d82:	0000                	unimp
     d84:	0402                	c.slli64	s0
     d86:	6905                	lui	s2,0x1
     d88:	746e                	flw	fs0,248(sp)
     d8a:	0300                	addi	s0,sp,384
     d8c:	0000006b          	0x6b
     d90:	3817d10f          	0x3817d10f
     d94:	0000                	unimp
     d96:	0400                	addi	s0,sp,512
     d98:	0704                	addi	s1,sp,896
     d9a:	027f                	0x27f
     d9c:	0000                	unimp
     d9e:	0804                	addi	s1,sp,16
     da0:	ce05                	beqz	a2,dd8 <__udivdi3-0x7ff5d4>
     da2:	0001                	nop
     da4:	0400                	addi	s0,sp,512
     da6:	0410                	addi	a2,sp,512
     da8:	0236                	slli	tp,tp,0xd
     daa:	0000                	unimp
     dac:	0104                	addi	s1,sp,128
     dae:	5f06                	lw	t5,96(sp)
     db0:	0002                	c.slli64	zero
     db2:	0400                	addi	s0,sp,512
     db4:	0502                	c.slli64	a0
     db6:	0061                	c.nop	24
     db8:	0000                	unimp
     dba:	00017d03          	0x17d03
     dbe:	1000                	addi	s0,sp,32
     dc0:	192c                	addi	a1,sp,184
     dc2:	0025                	c.nop	9
     dc4:	0000                	unimp
     dc6:	00014103          	lbu	sp,0(sp)
     dca:	1000                	addi	s0,sp,32
     dcc:	193a                	slli	s2,s2,0x2e
     dce:	00000073          	ecall
     dd2:	0104                	addi	s1,sp,128
     dd4:	5d08                	lw	a0,56(a0)
     dd6:	0002                	c.slli64	zero
     dd8:	0300                	addi	s0,sp,384
     dda:	029c                	addi	a5,sp,320
     ddc:	0000                	unimp
     dde:	3b10                	fld	fa2,48(a4)
     de0:	861a                	mv	a2,t1
     de2:	0000                	unimp
     de4:	0400                	addi	s0,sp,512
     de6:	0702                	c.slli64	a4
     de8:	02c5                	addi	t0,t0,17
     dea:	0000                	unimp
     dec:	00017c03          	0x17c03
     df0:	1000                	addi	s0,sp,32
     df2:	1a3c                	addi	a5,sp,312
     df4:	0038                	addi	a4,sp,8
     df6:	0000                	unimp
     df8:	8d05                	sub	a0,a0,s1
     dfa:	0000                	unimp
     dfc:	0300                	addi	s0,sp,384
     dfe:	00000b87          	0xb87
     e02:	3d10                	fld	fa2,56(a0)
     e04:	aa1a                	fsd	ft6,272(sp)
     e06:	0000                	unimp
     e08:	0400                	addi	s0,sp,512
     e0a:	0708                	addi	a0,sp,896
     e0c:	0275                	addi	tp,tp,29
     e0e:	0000                	unimp
     e10:	0404                	addi	s1,sp,512
     e12:	d305                	beqz	a4,d32 <__udivdi3-0x7ff67a>
     e14:	0001                	nop
     e16:	0300                	addi	s0,sp,384
     e18:	039a                	slli	t2,t2,0x6
     e1a:	0000                	unimp
     e1c:	4b10                	lw	a2,16(a4)
     e1e:	c41a                	sw	t1,8(sp)
     e20:	0000                	unimp
     e22:	0400                	addi	s0,sp,512
     e24:	0704                	addi	s1,sp,896
     e26:	027a                	slli	tp,tp,0x1e
     e28:	0000                	unimp
     e2a:	0406                	slli	s0,s0,0x1
     e2c:	0104                	addi	s1,sp,128
     e2e:	d802                	sw	zero,48(sp)
     e30:	0002                	c.slli64	zero
     e32:	0700                	addi	s0,sp,896
     e34:	6704                	flw	fs1,8(a4)
     e36:	0000                	unimp
     e38:	0700                	addi	s0,sp,896
     e3a:	e004                	fsw	fs1,0(s0)
     e3c:	0000                	unimp
     e3e:	0400                	addi	s0,sp,512
     e40:	0801                	addi	a6,a6,0
     e42:	0266                	slli	tp,tp,0x19
     e44:	0000                	unimp
     e46:	e005                	bnez	s0,e66 <__udivdi3-0x7ff546>
     e48:	0000                	unimp
     e4a:	0700                	addi	s0,sp,896
     e4c:	f204                	fsw	fs1,32(a2)
     e4e:	0000                	unimp
     e50:	0800                	addi	s0,sp,16
     e52:	0002b303          	0x2b303
     e56:	1100                	addi	s0,sp,160
     e58:	1315                	addi	t1,t1,-27
     e5a:	00b8                	addi	a4,sp,72
     e5c:	0000                	unimp
     e5e:	00e70407          	0xe70407
     e62:	0000                	unimp
     e64:	00084303          	lbu	t1,0(a6) # 2000 <__udivdi3-0x7fe3ac>
     e68:	0200                	addi	s0,sp,256
     e6a:	0f26                	slli	t5,t5,0x9
     e6c:	000000cb          	fnmsub.s	ft1,ft0,ft0,ft0,rne
     e70:	00092603          	lw	a2,0(s2) # 1000 <__udivdi3-0x7ff3ac>
     e74:	1200                	addi	s0,sp,288
     e76:	211e                	fld	ft2,448(sp)
     e78:	011d                	addi	sp,sp,7
     e7a:	0000                	unimp
     e7c:	01230407          	0x1230407
     e80:	0000                	unimp
     e82:	5a09                	li	s4,-30
     e84:	000a                	c.slli	zero,0x2
     e86:	0a00                	addi	s0,sp,272
     e88:	008d                	addi	ra,ra,3
     e8a:	0000                	unimp
     e8c:	0138                	addi	a4,sp,136
     e8e:	0000                	unimp
     e90:	0000380b          	0x380b
     e94:	0700                	addi	s0,sp,896
     e96:	0a00                	addi	s0,sp,272
     e98:	008d                	addi	ra,ra,3
     e9a:	0000                	unimp
     e9c:	0148                	addi	a0,sp,132
     e9e:	0000                	unimp
     ea0:	0000380b          	0x380b
     ea4:	0300                	addi	s0,sp,384
     ea6:	0300                	addi	s0,sp,384
     ea8:	0d25                	addi	s10,s10,9
     eaa:	0000                	unimp
     eac:	54222313          	slti	t1,tp,1346
     eb0:	0001                	nop
     eb2:	0700                	addi	s0,sp,896
     eb4:	5a04                	lw	s1,48(a2)
     eb6:	0001                	nop
     eb8:	0900                	addi	s0,sp,144
     eba:	075c                	addi	a5,sp,900
     ebc:	0000                	unimp
     ebe:	000a8403          	lb	s0,0(s5)
     ec2:	1400                	addi	s0,sp,544
     ec4:	221f 016b 0000      	0x16b221f
     eca:	01710407          	0x1710407
     ece:	0000                	unimp
     ed0:	4b09                	li	s6,2
     ed2:	0c00000b          	0xc00000b
     ed6:	144c                	addi	a1,sp,548
     ed8:	0929                	addi	s2,s2,10
     eda:	01f5                	addi	gp,gp,29
     edc:	0000                	unimp
     ede:	1b0d                	addi	s6,s6,-29
     ee0:	14000007          	0x14000007
     ee4:	008d0b2b          	0x8d0b2b
     ee8:	0000                	unimp
     eea:	0d00                	addi	s0,sp,656
     eec:	00000ad7          	0xad7
     ef0:	3914                	fld	fa3,48(a0)
     ef2:	00008d0b          	0x8d0b
     ef6:	0400                	addi	s0,sp,512
     ef8:	e00d                	bnez	s0,f1a <__udivdi3-0x7ff492>
     efa:	000a                	c.slli	zero,0x2
     efc:	1400                	addi	s0,sp,544
     efe:	0b44                	addi	s1,sp,404
     f00:	008d                	addi	ra,ra,3
     f02:	0000                	unimp
     f04:	0d08                	addi	a0,sp,656
     f06:	00000b7b          	0xb7b
     f0a:	4a14                	lw	a3,16(a2)
     f0c:	00008d0b          	0x8d0b
     f10:	0c00                	addi	s0,sp,528
     f12:	200d                	jal	f34 <__udivdi3-0x7ff478>
     f14:	1400000b          	0x1400000b
     f18:	0b50                	addi	a2,sp,404
     f1a:	008d                	addi	ra,ra,3
     f1c:	0000                	unimp
     f1e:	0d10                	addi	a2,sp,656
     f20:	0d1c                	addi	a5,sp,656
     f22:	0000                	unimp
     f24:	5714                	lw	a3,40(a4)
     f26:	00008d0b          	0x8d0b
     f2a:	1400                	addi	s0,sp,544
     f2c:	920d                	srli	a2,a2,0x23
     f2e:	0006                	c.slli	zero,0x1
     f30:	1400                	addi	s0,sp,544
     f32:	0b5a                	slli	s6,s6,0x16
     f34:	008d                	addi	ra,ra,3
     f36:	0000                	unimp
     f38:	0d18                	addi	a4,sp,656
     f3a:	0000066b          	0x66b
     f3e:	5d14                	lw	a3,56(a0)
     f40:	0001380b          	0x1380b
     f44:	1c00                	addi	s0,sp,560
     f46:	6b0e                	flw	fs6,192(sp)
     f48:	7965                	lui	s2,0xffff9
     f4a:	1400                	addi	s0,sp,544
     f4c:	0b60                	addi	s0,sp,412
     f4e:	0128                	addi	a0,sp,136
     f50:	0000                	unimp
     f52:	002c                	addi	a1,sp,8
     f54:	00062803          	lw	a6,0(a2)
     f58:	1400                	addi	s0,sp,544
     f5a:	0361                	addi	t1,t1,24
     f5c:	0176                	slli	sp,sp,0x1d
     f5e:	0000                	unimp
     f60:	0006b303          	0x6b303
     f64:	1500                	addi	s0,sp,672
     f66:	221d                	jal	108c <__udivdi3-0x7ff320>
     f68:	020d                	addi	tp,tp,3
     f6a:	0000                	unimp
     f6c:	02130407          	0x2130407
     f70:	0000                	unimp
     f72:	a009                	j	f74 <__udivdi3-0x7ff438>
     f74:	03000007          	0x3000007
     f78:	0b90                	addi	a2,sp,464
     f7a:	0000                	unimp
     f7c:	2416                	fld	fs0,320(sp)
     f7e:	2422                	fld	fs0,8(sp)
     f80:	0002                	c.slli64	zero
     f82:	0700                	addi	s0,sp,896
     f84:	2a04                	fld	fs1,16(a2)
     f86:	0002                	c.slli64	zero
     f88:	0900                	addi	s0,sp,144
     f8a:	0985                	addi	s3,s3,1
     f8c:	0000                	unimp
     f8e:	000cca0f          	0xcca0f
     f92:	0700                	addi	s0,sp,896
     f94:	3804                	fld	fs1,48(s0)
     f96:	0000                	unimp
     f98:	1600                	addi	s0,sp,800
     f9a:	0e26                	slli	t3,t3,0x9
     f9c:	0266                	slli	tp,tp,0x19
     f9e:	0000                	unimp
     fa0:	0110                	addi	a2,sp,128
     fa2:	000c                	0xc
     fa4:	0100                	addi	s0,sp,128
     fa6:	6d10                	flw	fa2,24(a0)
     fa8:	000c                	0xc
     faa:	0300                	addi	s0,sp,384
     fac:	8110                	0x8110
     fae:	04000007          	0x4000007
     fb2:	3210                	fld	fa2,32(a2)
     fb4:	05000007          	0x5000007
     fb8:	fb10                	fsw	fa2,48(a4)
     fba:	000a                	c.slli	zero,0x2
     fbc:	0600                	addi	s0,sp,768
     fbe:	5110                	lw	a2,32(a0)
     fc0:	0008                	0x8
     fc2:	0700                	addi	s0,sp,896
     fc4:	0300                	addi	s0,sp,384
     fc6:	0cdd                	addi	s9,s9,23
     fc8:	0000                	unimp
     fca:	2d16                	fld	fs10,320(sp)
     fcc:	00022f03          	lw	t5,0(tp) # 0 <__udivdi3-0x8003ac>
     fd0:	1100                	addi	s0,sp,160
     fd2:	00000c13          	li	s8,0
     fd6:	160c                	addi	a1,sp,800
     fd8:	02a7102f          	0x2a7102f
     fdc:	0000                	unimp
     fde:	ec0d                	bnez	s0,1018 <__udivdi3-0x7ff394>
     fe0:	0005                	c.nop	1
     fe2:	1600                	addi	s0,sp,800
     fe4:	008d0b37          	lui	s6,0x8d0
     fe8:	0000                	unimp
     fea:	0d00                	addi	s0,sp,656
     fec:	091e                	slli	s2,s2,0x7
     fee:	0000                	unimp
     ff0:	3b16                	fld	fs6,352(sp)
     ff2:	00008d0b          	0x8d0b
     ff6:	0400                	addi	s0,sp,512
     ff8:	850d                	srai	a0,a0,0x3
     ffa:	0006                	c.slli	zero,0x1
     ffc:	1600                	addi	s0,sp,800
     ffe:	008d0b3f 00080000 	0x80000008d0b3f
    1006:	000b2503          	lw	a0,0(s6) # 8d0000 <z_impl_k_busy_wait+0xc3d92>
    100a:	1600                	addi	s0,sp,800
    100c:	0340                	addi	s0,sp,388
    100e:	0272                	slli	tp,tp,0x1c
    1010:	0000                	unimp
    1012:	00097103          	0x97103
    1016:	1700                	addi	s0,sp,928
    1018:	02bf222b          	0x2bf222b
    101c:	0000                	unimp
    101e:	02c50407          	0x2c50407
    1022:	0000                	unimp
    1024:	1709                	addi	a4,a4,-30
    1026:	0006                	c.slli	zero,0x1
    1028:	1200                	addi	s0,sp,288
    102a:	6f69                	lui	t5,0x1a
    102c:	0076                	c.slli	zero,0x1d
    102e:	1808                	addi	a0,sp,48
    1030:	083a                	slli	a6,a6,0xe
    1032:	02ee                	slli	t0,t0,0x1b
    1034:	0000                	unimp
    1036:	700e                	flw	ft0,224(sp)
    1038:	1800                	addi	s0,sp,48
    103a:	00cb083b          	0xcb083b
    103e:	0000                	unimp
    1040:	0e00                	addi	s0,sp,784
    1042:	006e                	c.slli	zero,0x1b
    1044:	3c18                	fld	fa4,56(s0)
    1046:	2c09                	jal	1258 <__udivdi3-0x7ff154>
    1048:	0000                	unimp
    104a:	0400                	addi	s0,sp,512
    104c:	0500                	addi	s0,sp,640
    104e:	02ca                	slli	t0,t0,0x12
    1050:	0000                	unimp
    1052:	080c                	addi	a1,sp,16
    1054:	340c                	fld	fa1,40(s0)
    1056:	1709                	addi	a4,a4,-30
    1058:	0d000003          	lb	zero,208(zero) # d0 <__udivdi3-0x8002dc>
    105c:	0aa4                	addi	s1,sp,344
    105e:	0000                	unimp
    1060:	350c                	fld	fa1,40(a0)
    1062:	00008d0b          	0x8d0b
    1066:	0000                	unimp
    1068:	440d                	li	s0,3
    106a:	0c00000b          	0xc00000b
    106e:	0b36                	slli	s6,s6,0xd
    1070:	008d                	addi	ra,ra,3
    1072:	0000                	unimp
    1074:	0004                	0x4
    1076:	00072003          	lw	zero,0(a4) # b071ad4 <_end+0xa06afd8>
    107a:	0c00                	addi	s0,sp,528
    107c:	02f30337          	lui	t1,0x2f30
    1080:	0000                	unimp
    1082:	1705                	addi	a4,a4,-31
    1084:	11000003          	lb	zero,272(zero) # 110 <__udivdi3-0x80029c>
    1088:	0000018b          	0x18b
    108c:	1908                	addi	a0,sp,176
    108e:	0810                	addi	a2,sp,16
    1090:	0350                	addi	a2,sp,388
    1092:	0000                	unimp
    1094:	240d                	jal	12b6 <__udivdi3-0x7ff0f6>
    1096:	0002                	c.slli64	zero
    1098:	1900                	addi	s0,sp,176
    109a:	0e11                	addi	t3,t3,4
    109c:	00ff                	0xff
    109e:	0000                	unimp
    10a0:	0d00                	addi	s0,sp,656
    10a2:	0394                	addi	a3,sp,448
    10a4:	0000                	unimp
    10a6:	1219                	addi	tp,tp,-26
    10a8:	670a                	flw	fa4,128(sp)
    10aa:	0000                	unimp
    10ac:	0400                	addi	s0,sp,512
    10ae:	0500                	addi	s0,sp,640
    10b0:	0328                	addi	a0,sp,392
    10b2:	0000                	unimp
    10b4:	ad11                	j	16c8 <__udivdi3-0x7fece4>
    10b6:	0001                	nop
    10b8:	0400                	addi	s0,sp,512
    10ba:	1d19                	addi	s10,s10,-26
    10bc:	7008                	flw	fa0,32(s0)
    10be:	0d000003          	lb	zero,208(zero) # d0 <__udivdi3-0x8002dc>
    10c2:	030e                	slli	t1,t1,0x3
    10c4:	0000                	unimp
    10c6:	1e19                	addi	t3,t3,-26
    10c8:	00008d0b          	0x8d0b
    10cc:	0000                	unimp
    10ce:	1300                	addi	s0,sp,416
    10d0:	059a                	slli	a1,a1,0x6
    10d2:	0000                	unimp
    10d4:	012c1a03          	lh	s4,18(s8)
    10d8:	a908                	fsd	fa0,16(a0)
    10da:	14000003          	lb	zero,320(zero) # 140 <__udivdi3-0x80026c>
    10de:	656c                	flw	fa1,76(a0)
    10e0:	006e                	c.slli	zero,0x1b
    10e2:	2d1a                	fld	fs10,384(sp)
    10e4:	0a01                	addi	s4,s4,0
    10e6:	00000067          	jr	zero # 0 <__udivdi3-0x8003ac>
    10ea:	1500                	addi	s0,sp,672
    10ec:	0139                	addi	sp,sp,14
    10ee:	0000                	unimp
    10f0:	2e1a                	fld	ft8,384(sp)
    10f2:	0a01                	addi	s4,s4,0
    10f4:	00000067          	jr	zero # 0 <__udivdi3-0x8003ac>
    10f8:	1501                	addi	a0,a0,-32
    10fa:	0136                	slli	sp,sp,0xd
    10fc:	0000                	unimp
    10fe:	2f1a                	fld	ft10,384(sp)
    1100:	0a01                	addi	s4,s4,0
    1102:	00000067          	jr	zero # 0 <__udivdi3-0x8003ac>
    1106:	0002                	c.slli64	zero
    1108:	0516                	slli	a0,a0,0x5
    110a:	0002                	c.slli64	zero
    110c:	0400                	addi	s0,sp,512
    110e:	331a                	fld	ft6,416(sp)
    1110:	0701                	addi	a4,a4,0
    1112:	03d2                	slli	t2,t2,0x14
    1114:	0000                	unimp
    1116:	0002ae17          	auipc	t3,0x2a
    111a:	1a00                	addi	s0,sp,304
    111c:	0134                	addi	a3,sp,136
    111e:	7019                	c.lui	zero,0xfffe6
    1120:	18000003          	lb	zero,384(zero) # 180 <__udivdi3-0x80022c>
    1124:	6172                	flw	ft2,28(sp)
    1126:	351a0077          	0x351a0077
    112a:	0801                	addi	a6,a6,0
    112c:	000000cb          	fnmsub.s	ft1,ft0,ft0,ft0,rne
    1130:	0300                	addi	s0,sp,384
    1132:	03d6                	slli	t2,t2,0x15
    1134:	0000                	unimp
    1136:	8d12221b          	0x8d12221b
    113a:	0000                	unimp
    113c:	1100                	addi	s0,sp,160
    113e:	02a5                	addi	t0,t0,9
    1140:	0000                	unimp
    1142:	1b04                	addi	s1,sp,432
    1144:	0832                	slli	a6,a6,0xc
    1146:	046c                	addi	a1,sp,524
    1148:	0000                	unimp
    114a:	6519                	lui	a0,0x6
    114c:	0006                	c.slli	zero,0x1
    114e:	1b00                	addi	s0,sp,432
    1150:	008d0233          	add	tp,s10,s0
    1154:	0000                	unimp
    1156:	0104                	addi	s1,sp,128
    1158:	001f e619 0003      	0x3e619001f
    115e:	1b00                	addi	s0,sp,432
    1160:	008d0233          	add	tp,s10,s0
    1164:	0000                	unimp
    1166:	0104                	addi	s1,sp,128
    1168:	001e                	c.slli	zero,0x7
    116a:	8c19                	sub	s0,s0,a4
    116c:	0002                	c.slli64	zero
    116e:	1b00                	addi	s0,sp,432
    1170:	008d0233          	add	tp,s10,s0
    1174:	0000                	unimp
    1176:	0104                	addi	s1,sp,128
    1178:	001d                	c.nop	7
    117a:	1e19                	addi	t3,t3,-26
    117c:	0000                	unimp
    117e:	1b00                	addi	s0,sp,432
    1180:	0b34                	addi	a3,sp,408
    1182:	008d                	addi	ra,ra,3
    1184:	0000                	unimp
    1186:	0304                	addi	s1,sp,384
    1188:	001a                	c.slli	zero,0x6
    118a:	9419                	srai	s0,s0,0x26
    118c:	1b000003          	lb	zero,432(zero) # 1b0 <__udivdi3-0x8001fc>
    1190:	0b35                	addi	s6,s6,13
    1192:	008d                	addi	ra,ra,3
    1194:	0000                	unimp
    1196:	0304                	addi	s1,sp,384
    1198:	8e190017          	auipc	zero,0x8e190
    119c:	0005                	c.nop	1
    119e:	1b00                	addi	s0,sp,432
    11a0:	0b36                	slli	s6,s6,0xd
    11a2:	008d                	addi	ra,ra,3
    11a4:	0000                	unimp
    11a6:	0a04                	addi	s1,sp,272
    11a8:	000d                	c.nop	3
    11aa:	1b19                	addi	s6,s6,-26
    11ac:	0002                	c.slli64	zero
    11ae:	1b00                	addi	s0,sp,432
    11b0:	008d0b37          	lui	s6,0x8d0
    11b4:	0000                	unimp
    11b6:	0c04                	addi	s1,sp,528
    11b8:	0001                	nop
    11ba:	2319                	jal	16c0 <__udivdi3-0x7fecec>
    11bc:	0005                	c.nop	1
    11be:	1b00                	addi	s0,sp,432
    11c0:	0b38                	addi	a4,sp,408
    11c2:	008d                	addi	ra,ra,3
    11c4:	0000                	unimp
    11c6:	0104                	addi	s1,sp,128
    11c8:	0000                	unimp
    11ca:	0700                	addi	s0,sp,896
    11cc:	5004                	lw	s1,32(s0)
    11ce:	07000003          	lb	zero,112(zero) # 70 <__udivdi3-0x80033c>
    11d2:	5504                	lw	s1,40(a0)
    11d4:	11000003          	lb	zero,272(zero) # 110 <__udivdi3-0x80029c>
    11d8:	0229                	addi	tp,tp,10
    11da:	0000                	unimp
    11dc:	1b0c                	addi	a1,sp,432
    11de:	0841                	addi	a6,a6,16
    11e0:	04ad                	addi	s1,s1,11
    11e2:	0000                	unimp
    11e4:	ae0d                	j	1516 <__udivdi3-0x7fee96>
    11e6:	0002                	c.slli64	zero
    11e8:	1b00                	addi	s0,sp,432
    11ea:	1742                	slli	a4,a4,0x30
    11ec:	03de                	slli	t2,t2,0x17
    11ee:	0000                	unimp
    11f0:	0d00                	addi	s0,sp,656
    11f2:	0214                	addi	a3,sp,256
    11f4:	0000                	unimp
    11f6:	ec0e4a1b          	0xec0e4a1b
    11fa:	0000                	unimp
    11fc:	0400                	addi	s0,sp,512
    11fe:	140d                	addi	s0,s0,-29
    1200:	0000                	unimp
    1202:	1b00                	addi	s0,sp,432
    1204:	03d2124b          	fnmsub.d	ft4,ft4,ft9,ft0,rtz
    1208:	0000                	unimp
    120a:	0008                	0x8
    120c:	8711                	srai	a4,a4,0x4
    120e:	0c000003          	lb	zero,192(zero) # c0 <__udivdi3-0x8002ec>
    1212:	d508551b          	0xd508551b
    1216:	0004                	0x4
    1218:	0e00                	addi	s0,sp,784
    121a:	6468                	flw	fa0,76(s0)
    121c:	0072                	c.slli	zero,0x1c
    121e:	7816561b          	0x7816561b
    1222:	0004                	0x4
    1224:	0000                	unimp
    1226:	c00d                	beqz	s0,1248 <__udivdi3-0x7ff164>
    1228:	0001                	nop
    122a:	1b00                	addi	s0,sp,432
    122c:	04d50a57          	0x4d50a57
    1230:	0000                	unimp
    1232:	000c                	0xc
    1234:	670a                	flw	fa4,128(sp)
    1236:	0000                	unimp
    1238:	e400                	fsw	fs0,8(s0)
    123a:	0004                	0x4
    123c:	1a00                	addi	s0,sp,304
    123e:	0038                	addi	a4,sp,8
    1240:	0000                	unimp
    1242:	0f00                	addi	s0,sp,912
    1244:	02e5                	addi	t0,t0,25
    1246:	0000                	unimp
    1248:	00380407          	0x380407
    124c:	0000                	unimp
    124e:	0f06681b          	0xf06681b
    1252:	0005                	c.nop	1
    1254:	1000                	addi	s0,sp,32
    1256:	0025                	c.nop	9
    1258:	0000                	unimp
    125a:	1000                	addi	s0,sp,32
    125c:	052c                	addi	a1,sp,648
    125e:	0000                	unimp
    1260:	1001                	c.nop	-32
    1262:	0162                	slli	sp,sp,0x18
    1264:	0000                	unimp
    1266:	1002                	c.slli	zero,0x20
    1268:	0564                	addi	s1,sp,652
    126a:	0000                	unimp
    126c:	e6030003          	lb	zero,-416(t1) # 2f2fe60 <_end+0x1f29364>
    1270:	0001                	nop
    1272:	1c00                	addi	s0,sp,560
    1274:	171d                	addi	a4,a4,-25
    1276:	00c4                	addi	s1,sp,68
    1278:	0000                	unimp
    127a:	0511                	addi	a0,a0,4
    127c:	0001                	nop
    127e:	0200                	addi	s0,sp,256
    1280:	551c                	lw	a5,40(a0)
    1282:	5908                	lw	a0,48(a0)
    1284:	0005                	c.nop	1
    1286:	1900                	addi	s0,sp,176
    1288:	0394                	addi	a3,sp,448
    128a:	0000                	unimp
    128c:	561c                	lw	a5,40(a2)
    128e:	00007a0b          	0x7a0b
    1292:	0200                	addi	s0,sp,256
    1294:	19000d03          	lb	s10,400(zero) # 190 <__udivdi3-0x80021c>
    1298:	00000057          	0x57
    129c:	571c                	lw	a5,40(a4)
    129e:	00007a0b          	0x7a0b
    12a2:	0200                	addi	s0,sp,256
    12a4:	19000a03          	lb	s4,400(zero) # 190 <__udivdi3-0x80021c>
    12a8:	0505                	addi	a0,a0,1
    12aa:	0000                	unimp
    12ac:	581c                	lw	a5,48(s0)
    12ae:	00007a0b          	0x7a0b
    12b2:	0200                	addi	s0,sp,256
    12b4:	000a                	c.slli	zero,0x2
    12b6:	0000                	unimp
    12b8:	0001491b          	0x1491b
    12bc:	0100                	addi	s0,sp,128
    12be:	0115                	addi	sp,sp,5
    12c0:	046c                	addi	a1,sp,524
    12c2:	0000                	unimp
    12c4:	1b00                	addi	s0,sp,432
    12c6:	0242                	slli	tp,tp,0x10
    12c8:	0000                	unimp
    12ca:	1501                	addi	a0,a0,-32
    12cc:	7201                	lui	tp,0xfffe0
    12ce:	0004                	0x4
    12d0:	0000                	unimp
    12d2:	0000f91b          	0xf91b
    12d6:	0100                	addi	s0,sp,128
    12d8:	0115                	addi	sp,sp,5
    12da:	0099                	addi	ra,ra,6
    12dc:	0000                	unimp
    12de:	1c00                	addi	s0,sp,560
    12e0:	000005d7          	0x5d7
    12e4:	2001                	jal	12e4 <__udivdi3-0x7ff0c8>
    12e6:	0601                	addi	a2,a2,0
    12e8:	9c01                	0x9c01
    12ea:	0005                	c.nop	1
    12ec:	1d00                	addi	s0,sp,688
    12ee:	0c21                	addi	s8,s8,8
    12f0:	0000                	unimp
    12f2:	2001                	jal	12f2 <__udivdi3-0x7ff0ba>
    12f4:	3a01                	jal	c04 <__udivdi3-0x7ff7a8>
    12f6:	059c                	addi	a5,sp,704
    12f8:	0000                	unimp
    12fa:	0700                	addi	s0,sp,896
    12fc:	a704                	fsd	fs1,8(a4)
    12fe:	0002                	c.slli64	zero
    1300:	1e00                	addi	s0,sp,816
    1302:	07b1                	addi	a5,a5,12
    1304:	0000                	unimp
    1306:	1201                	addi	tp,tp,-32
    1308:	0601                	addi	a2,a2,0
    130a:	6aae                	flw	fs5,200(sp)
    130c:	0100                	addi	s0,sp,128
    130e:	001a                	c.slli	zero,0x6
    1310:	0000                	unimp
    1312:	9c01                	0x9c01
    1314:	065c                	addi	a5,sp,772
    1316:	0000                	unimp
    1318:	bb1f 0007 0100      	0x1000007bb1f
    131e:	0112                	slli	sp,sp,0x4
    1320:	8d20                	0x8d20
    1322:	0000                	unimp
    1324:	2200                	fld	fs0,0(a2)
    1326:	0001                	nop
    1328:	2000                	fld	fs0,0(s0)
    132a:	6f6e                	flw	ft10,216(sp)
    132c:	14010077          	0x14010077
    1330:	0b01                	addi	s6,s6,0
    1332:	008d                	addi	ra,ra,3
    1334:	0000                	unimp
    1336:	0140                	addi	s0,sp,132
    1338:	0000                	unimp
    133a:	5021                	c.li	zero,-24
    133c:	ae000027          	0xae000027
    1340:	006a                	c.slli	zero,0x1a
    1342:	0801                	addi	a6,a6,0
    1344:	0000                	unimp
    1346:	0100                	addi	s0,sp,128
    1348:	0114                	addi	a3,sp,128
    134a:	1d11                	addi	s10,s10,-28
    134c:	0006                	c.slli	zero,0x1
    134e:	2200                	fld	fs0,0(a2)
    1350:	276d                	jal	1afa <__udivdi3-0x7fe8b2>
    1352:	0000                	unimp
    1354:	015e                	slli	sp,sp,0x17
    1356:	0000                	unimp
    1358:	6122                	flw	ft2,8(sp)
    135a:	74000027          	0x74000027
    135e:	0001                	nop
    1360:	2300                	fld	fs0,0(a4)
    1362:	281a                	fld	fa6,384(sp)
    1364:	0000                	unimp
    1366:	6aae                	flw	fs5,200(sp)
    1368:	0100                	addi	s0,sp,128
    136a:	0008                	0x8
    136c:	0000                	unimp
    136e:	b202                	fsd	ft0,288(sp)
    1370:	2209                	jal	1472 <__udivdi3-0x7fef3a>
    1372:	0000282b          	0x282b
    1376:	018a                	slli	gp,gp,0x2
    1378:	0000                	unimp
    137a:	0000                	unimp
    137c:	5024                	lw	s1,96(s0)
    137e:	b6000027          	0xb6000027
    1382:	006a                	c.slli	zero,0x1a
    1384:	5801                	li	a6,-32
    1386:	01000003          	lb	zero,16(zero) # 10 <__udivdi3-0x80039c>
    138a:	22090117          	auipc	sp,0x22090
    138e:	276d                	jal	1b38 <__udivdi3-0x7fe874>
    1390:	0000                	unimp
    1392:	01a2                	slli	gp,gp,0x8
    1394:	0000                	unimp
    1396:	6122                	flw	ft2,8(sp)
    1398:	b8000027          	0xb8000027
    139c:	0001                	nop
    139e:	2500                	fld	fs0,8(a0)
    13a0:	281a                	fld	fa6,384(sp)
    13a2:	0000                	unimp
    13a4:	6ab6                	flw	fs5,76(sp)
    13a6:	0100                	addi	s0,sp,128
    13a8:	0358                	addi	a4,sp,388
    13aa:	0000                	unimp
    13ac:	b202                	fsd	ft0,288(sp)
    13ae:	2209                	jal	14b0 <__udivdi3-0x7feefc>
    13b0:	0000282b          	0x282b
    13b4:	01ce                	slli	gp,gp,0x13
    13b6:	0000                	unimp
    13b8:	0000                	unimp
    13ba:	2600                	fld	fs0,8(a2)
    13bc:	0a2e                	slli	s4,s4,0xb
    13be:	0000                	unimp
    13c0:	0d01                	addi	s10,s10,0
    13c2:	0a01                	addi	s4,s4,0
    13c4:	009e                	slli	ra,ra,0x7
    13c6:	0000                	unimp
    13c8:	6a62                	flw	fs4,24(sp)
    13ca:	0100                	addi	s0,sp,128
    13cc:	004c                	addi	a1,sp,4
    13ce:	0000                	unimp
    13d0:	9c01                	0x9c01
    13d2:	07ce                	slli	a5,a5,0x13
    13d4:	0000                	unimp
    13d6:	00247127          	0x247127
    13da:	6200                	flw	fs0,0(a2)
    13dc:	006a                	c.slli	zero,0x1a
    13de:	c001                	beqz	s0,13de <__udivdi3-0x7fefce>
    13e0:	0002                	c.slli64	zero
    13e2:	0100                	addi	s0,sp,128
    13e4:	8109010f          	0x8109010f
    13e8:	25000007          	0x25000007
    13ec:	07ce                	slli	a5,a5,0x13
    13ee:	0000                	unimp
    13f0:	6a66                	flw	fs4,88(sp)
    13f2:	0100                	addi	s0,sp,128
    13f4:	02f8                	addi	a4,sp,332
    13f6:	0000                	unimp
    13f8:	4b0a                	lw	s6,128(sp)
    13fa:	2809                	jal	140c <__udivdi3-0x7fefa0>
    13fc:	02f8                	addi	a4,sp,332
    13fe:	0000                	unimp
    1400:	e029                	bnez	s0,1442 <__udivdi3-0x7fef6a>
    1402:	e6000007          	0xe6000007
    1406:	0001                	nop
    1408:	2900                	fld	fs0,16(a0)
    140a:	07ed                	addi	a5,a5,27
    140c:	0000                	unimp
    140e:	01f9                	addi	gp,gp,30
    1410:	0000                	unimp
    1412:	fa29                	bnez	a2,1364 <__udivdi3-0x7ff048>
    1414:	17000007          	0x17000007
    1418:	0002                	c.slli64	zero
    141a:	2100                	fld	fs0,0(a0)
    141c:	2750                	fld	fa2,136(a4)
    141e:	0000                	unimp
    1420:	6a66                	flw	fs4,88(sp)
    1422:	0100                	addi	s0,sp,128
    1424:	0008                	0x8
    1426:	0000                	unimp
    1428:	0301                	addi	t1,t1,0
    142a:	1601                	addi	a2,a2,-32
    142c:	06fe                	slli	a3,a3,0x1f
    142e:	0000                	unimp
    1430:	6d22                	flw	fs10,8(sp)
    1432:	35000027          	0x35000027
    1436:	0002                	c.slli64	zero
    1438:	2200                	fld	fs0,0(a2)
    143a:	2761                	jal	1bc2 <__udivdi3-0x7fe7ea>
    143c:	0000                	unimp
    143e:	0000024b          	fnmsub.s	ft4,ft0,ft0,ft0,rne
    1442:	00281a23          	sh	sp,20(a6)
    1446:	6600                	flw	fs0,8(a2)
    1448:	006a                	c.slli	zero,0x1a
    144a:	0801                	addi	a6,a6,0
    144c:	0000                	unimp
    144e:	0200                	addi	s0,sp,256
    1450:	09b2                	slli	s3,s3,0xc
    1452:	2b22                	fld	fs6,8(sp)
    1454:	0028                	addi	a0,sp,8
    1456:	6100                	flw	fs0,0(a0)
    1458:	0002                	c.slli64	zero
    145a:	0000                	unimp
    145c:	2100                	fld	fs0,0(a0)
    145e:	2750                	fld	fa2,136(a4)
    1460:	0000                	unimp
    1462:	6a6e                	flw	fs4,216(sp)
    1464:	0100                	addi	s0,sp,128
    1466:	0004                	0x4
    1468:	0000                	unimp
    146a:	0401                	addi	s0,s0,0
    146c:	1501                	addi	a0,a0,-32
    146e:	0740                	addi	s0,sp,900
    1470:	0000                	unimp
    1472:	6d22                	flw	fs10,8(sp)
    1474:	79000027          	0x79000027
    1478:	0002                	c.slli64	zero
    147a:	2200                	fld	fs0,0(a2)
    147c:	2761                	jal	1c04 <__udivdi3-0x7fe7a8>
    147e:	0000                	unimp
    1480:	0000028f          	0x28f
    1484:	00281a23          	sh	sp,20(a6)
    1488:	6e00                	flw	fs0,24(a2)
    148a:	006a                	c.slli	zero,0x1a
    148c:	0401                	addi	s0,s0,0
    148e:	0000                	unimp
    1490:	0200                	addi	s0,sp,256
    1492:	09b2                	slli	s3,s3,0xc
    1494:	2b22                	fld	fs6,8(sp)
    1496:	0028                	addi	a0,sp,8
    1498:	a500                	fsd	fs0,8(a0)
    149a:	0002                	c.slli64	zero
    149c:	0000                	unimp
    149e:	2a00                	fld	fs0,16(a2)
    14a0:	2750                	fld	fa2,136(a4)
    14a2:	0000                	unimp
    14a4:	6a72                	flw	fs4,28(sp)
    14a6:	0100                	addi	s0,sp,128
    14a8:	0004                	0x4
    14aa:	0000                	unimp
    14ac:	0501                	addi	a0,a0,0
    14ae:	1701                	addi	a4,a4,-32
    14b0:	6d22                	flw	fs10,8(sp)
    14b2:	bd000027          	0xbd000027
    14b6:	0002                	c.slli64	zero
    14b8:	2200                	fld	fs0,0(a2)
    14ba:	2761                	jal	1c42 <__udivdi3-0x7fe76a>
    14bc:	0000                	unimp
    14be:	000002d3          	fadd.s	ft5,ft0,ft0,rne
    14c2:	00281a23          	sh	sp,20(a6)
    14c6:	7200                	flw	fs0,32(a2)
    14c8:	006a                	c.slli	zero,0x1a
    14ca:	0401                	addi	s0,s0,0
    14cc:	0000                	unimp
    14ce:	0200                	addi	s0,sp,256
    14d0:	09b2                	slli	s3,s3,0xc
    14d2:	2b22                	fld	fs6,8(sp)
    14d4:	0028                	addi	a0,sp,8
    14d6:	e900                	fsw	fs0,16(a0)
    14d8:	0002                	c.slli64	zero
    14da:	0000                	unimp
    14dc:	0000                	unimp
    14de:	0000                	unimp
    14e0:	0027bf27          	fsd	ft2,30(a5)
    14e4:	7e00                	flw	fs0,56(a2)
    14e6:	006a                	c.slli	zero,0x1a
    14e8:	2801                	jal	14f8 <__udivdi3-0x7feeb4>
    14ea:	01000003          	lb	zero,16(zero) # 10 <__udivdi3-0x80039c>
    14ee:	c422010f          	0xc422010f
    14f2:	25000007          	0x25000007
    14f6:	27b2                	fld	fa5,264(sp)
    14f8:	0000                	unimp
    14fa:	6a7e                	flw	fs4,220(sp)
    14fc:	0100                	addi	s0,sp,128
    14fe:	0328                	addi	a0,sp,392
    1500:	0000                	unimp
    1502:	350d                	jal	1324 <__udivdi3-0x7ff088>
    1504:	2509                	jal	1b06 <__udivdi3-0x7fe8a6>
    1506:	27cc                	fld	fa1,136(a5)
    1508:	0000                	unimp
    150a:	6a7e                	flw	fs4,220(sp)
    150c:	0100                	addi	s0,sp,128
    150e:	0340                	addi	s0,sp,388
    1510:	0000                	unimp
    1512:	290e                	fld	fs2,192(sp)
    1514:	2809                	jal	1526 <__udivdi3-0x7fee86>
    1516:	0340                	addi	s0,sp,388
    1518:	0000                	unimp
    151a:	0027dd2b          	0x27dd2b
    151e:	0000                	unimp
    1520:	0000                	unimp
    1522:	2c00                	fld	fs0,24(s0)
    1524:	6aa4                	flw	fs1,80(a3)
    1526:	0100                	addi	s0,sp,128
    1528:	2ba2                	fld	fs7,8(sp)
    152a:	0000                	unimp
    152c:	2d00                	fld	fs0,24(a0)
    152e:	0909                	addi	s2,s2,2
    1530:	0000                	unimp
    1532:	0101                	addi	sp,sp,0
    1534:	0a01                	addi	s4,s4,0
    1536:	009e                	slli	ra,ra,0x7
    1538:	0000                	unimp
    153a:	0801                	addi	a6,a6,0
    153c:	0008                	0x8
    153e:	2e00                	fld	fs0,24(a2)
    1540:	0cc1                	addi	s9,s9,16
    1542:	0000                	unimp
    1544:	0301                	addi	t1,t1,0
    1546:	0b01                	addi	s6,s6,0
    1548:	008d                	addi	ra,ra,3
    154a:	0000                	unimp
    154c:	8f2e                	mv	t5,a1
    154e:	000c                	0xc
    1550:	0100                	addi	s0,sp,128
    1552:	0104                	addi	s1,sp,128
    1554:	00008d0b          	0x8d0b
    1558:	2e00                	fld	fs0,24(a2)
    155a:	00000823          	sb	zero,16(zero) # 10 <__udivdi3-0x80039c>
    155e:	0501                	addi	a0,a0,0
    1560:	0b01                	addi	s6,s6,0
    1562:	008d                	addi	ra,ra,3
    1564:	0000                	unimp
    1566:	2f00                	fld	fs0,24(a4)
    1568:	00000a1b          	0xa1b
    156c:	ef01                	bnez	a4,1584 <__udivdi3-0x7fee28>
    156e:	8d0a                	mv	s10,sp
    1570:	0000                	unimp
    1572:	e400                	fsw	fs0,8(s0)
    1574:	0069                	c.nop	26
    1576:	6201                	0x6201
    1578:	0000                	unimp
    157a:	0100                	addi	s0,sp,128
    157c:	ec9c                	fsw	fa5,24(s1)
    157e:	0008                	0x8
    1580:	3000                	fld	fs0,32(s0)
    1582:	00636d6f          	jal	s10,37588 <__udivdi3-0x7c8e24>
    1586:	ef01                	bnez	a4,159e <__udivdi3-0x7fee0e>
    1588:	b328                	fsd	fa0,96(a4)
    158a:	0002                	c.slli64	zero
    158c:	0100                	addi	s0,sp,128
    158e:	31000003          	lb	zero,784(zero) # 310 <__udivdi3-0x80009c>
    1592:	067a                	slli	a2,a2,0x1e
    1594:	0000                	unimp
    1596:	f101                	bnez	a0,1496 <__udivdi3-0x7fef16>
    1598:	00008d0b          	0x8d0b
    159c:	4600                	lw	s0,8(a2)
    159e:	32000003          	lb	zero,800(zero) # 320 <__udivdi3-0x80008c>
    15a2:	6468                	flw	fa0,76(s0)
    15a4:	0072                	c.slli	zero,0x1c
    15a6:	f601                	bnez	a2,14ae <__udivdi3-0x7feefe>
    15a8:	1714                	addi	a3,sp,928
    15aa:	02000003          	lb	zero,32(zero) # 20 <__udivdi3-0x80038c>
    15ae:	6891                	lui	a7,0x4
    15b0:	73657233          	0x73657233
    15b4:	0100                	addi	s0,sp,128
    15b6:	002506f7          	0x2506f7
    15ba:	0000                	unimp
    15bc:	037a                	slli	t1,t1,0x1e
    15be:	0000                	unimp
    15c0:	de34                	sw	a3,120(a2)
    15c2:	0024                	addi	s1,sp,8
    15c4:	f800                	fsw	fs0,48(s0)
    15c6:	0069                	c.nop	26
    15c8:	1201                	addi	tp,tp,-32
    15ca:	0000                	unimp
    15cc:	0100                	addi	s0,sp,128
    15ce:	08bb0cf7          	0x8bb0cf7
    15d2:	0000                	unimp
    15d4:	1322                	slli	t1,t1,0x28
    15d6:	0025                	c.nop	9
    15d8:	9800                	0x9800
    15da:	22000003          	lb	zero,544(zero) # 220 <__udivdi3-0x80018c>
    15de:	00002507          	flw	fa0,0(zero) # 0 <__udivdi3-0x8003ac>
    15e2:	03ac                	addi	a1,sp,456
    15e4:	0000                	unimp
    15e6:	fb22                	fsw	fs0,180(sp)
    15e8:	0024                	addi	s1,sp,8
    15ea:	d900                	sw	s0,48(a0)
    15ec:	22000003          	lb	zero,544(zero) # 220 <__udivdi3-0x80018c>
    15f0:	000024ef          	jal	s1,35f0 <__udivdi3-0x7fcdbc>
    15f4:	000003f7          	0x3f7
    15f8:	0a35                	addi	s4,s4,13
    15fa:	006a                	c.slli	zero,0x1a
    15fc:	ab01                	j	1b0c <__udivdi3-0x7fe8a0>
    15fe:	3600002b          	0x3600002b
    1602:	5a01                	li	s4,-32
    1604:	7802                	flw	fa6,32(sp)
    1606:	3600                	fld	fs0,40(a2)
    1608:	5b01                	li	s6,-32
    160a:	7902                	flw	fs2,32(sp)
    160c:	3600                	fld	fs0,40(a2)
    160e:	5c01                	li	s8,-32
    1610:	9102                	jalr	sp
    1612:	3668                	fld	fa0,232(a2)
    1614:	5d01                	li	s10,-32
    1616:	3801                	jal	e26 <__udivdi3-0x7ff586>
    1618:	0000                	unimp
    161a:	2734                	fld	fa3,72(a4)
    161c:	0024                	addi	s1,sp,8
    161e:	1800                	addi	s0,sp,48
    1620:	006a                	c.slli	zero,0x1a
    1622:	2001                	jal	1622 <__udivdi3-0x7fed8a>
    1624:	0000                	unimp
    1626:	0100                	addi	s0,sp,128
    1628:	12f8                	addi	a4,sp,364
    162a:	08e2                	slli	a7,a7,0x18
    162c:	0000                	unimp
    162e:	4422                	lw	s0,8(sp)
    1630:	0024                	addi	s1,sp,8
    1632:	0a00                	addi	s0,sp,272
    1634:	0004                	0x4
    1636:	2200                	fld	fs0,0(a2)
    1638:	2438                	fld	fa4,72(s0)
    163a:	0000                	unimp
    163c:	0420                	addi	s0,sp,520
    163e:	0000                	unimp
    1640:	2c00                	fld	fs0,24(s0)
    1642:	69f6                	flw	fs3,92(sp)
    1644:	0100                	addi	s0,sp,128
    1646:	00002bb7          	lui	s7,0x2
    164a:	2f00                	fld	fs0,24(a4)
    164c:	00000aab          	0xaab
    1650:	ac01                	j	1860 <__udivdi3-0x7feb4c>
    1652:	2505                	jal	1c72 <__udivdi3-0x7fe73a>
    1654:	0000                	unimp
    1656:	3400                	fld	fs0,40(s0)
    1658:	0069                	c.nop	26
    165a:	b001                	j	e5a <__udivdi3-0x7ff552>
    165c:	0000                	unimp
    165e:	0100                	addi	s0,sp,128
    1660:	9b9c                	0x9b9c
    1662:	000e                	c.slli	zero,0x3
    1664:	3700                	fld	fs0,40(a4)
    1666:	0c21                	addi	s8,s8,8
    1668:	0000                	unimp
    166a:	b001                	j	e6a <__udivdi3-0x7ff542>
    166c:	a719                	j	1d72 <__udivdi3-0x7fe63a>
    166e:	0002                	c.slli64	zero
    1670:	0300                	addi	s0,sp,384
    1672:	9891                	andi	s1,s1,-28
    1674:	337f                	0x337f
    1676:	6d74                	flw	fa3,92(a0)
    1678:	b2010063          	beqz	sp,998 <__udivdi3-0x7ffa14>
    167c:	180d                	addi	a6,a6,-29
    167e:	0002                	c.slli64	zero
    1680:	3500                	fld	fs0,40(a0)
    1682:	0004                	0x4
    1684:	3300                	fld	fs0,32(a4)
    1686:	0063646b          	0x63646b
    168a:	b401                	j	108a <__udivdi3-0x7ff322>
    168c:	5f0d                	li	t5,-29
    168e:	0001                	nop
    1690:	7400                	flw	fs0,40(s0)
    1692:	0004                	0x4
    1694:	3200                	fld	fs0,32(a2)
    1696:	00646d63          	bltu	s0,t1,16b0 <__udivdi3-0x7fecfc>
    169a:	b901                	j	12aa <__udivdi3-0x7ff102>
    169c:	f511                	bnez	a0,15a8 <__udivdi3-0x7fee04>
    169e:	0001                	nop
    16a0:	0300                	addi	s0,sp,384
    16a2:	a491                	j	18e6 <__udivdi3-0x7feac6>
    16a4:	337f                	0x337f
    16a6:	6572                	flw	fa0,28(sp)
    16a8:	be010073          	0xbe010073
    16ac:	2506                	fld	fa0,64(sp)
    16ae:	0000                	unimp
    16b0:	9d00                	0x9d00
    16b2:	0004                	0x4
    16b4:	3800                	fld	fs0,48(s0)
    16b6:	0c68                	addi	a0,sp,540
    16b8:	0000                	unimp
    16ba:	4739                	li	a4,14
    16bc:	0000                	unimp
    16be:	0100                	addi	s0,sp,128
    16c0:	02ae                	slli	t0,t0,0xb
    16c2:	00cd                	addi	ra,ra,19
    16c4:	0000                	unimp
    16c6:	0e39                	addi	t3,t3,14
    16c8:	01000003          	lb	zero,16(zero) # 10 <__udivdi3-0x80039c>
    16cc:	02ae                	slli	t0,t0,0xb
    16ce:	008d                	addi	ra,ra,3
    16d0:	0000                	unimp
    16d2:	4d38                	lw	a4,88(a0)
    16d4:	000c                	0xc
    16d6:	3900                	fld	fs0,48(a0)
    16d8:	000002ef          	jal	t0,16d8 <__udivdi3-0x7fecd4>
    16dc:	ae01                	j	19ec <__udivdi3-0x7fe9c0>
    16de:	2502                	fld	fa0,0(sp)
    16e0:	0000                	unimp
    16e2:	3900                	fld	fs0,48(a0)
    16e4:	000003c7          	fmsub.s	ft7,ft0,ft0,ft0,rne
    16e8:	ae01                	j	19f8 <__udivdi3-0x7fe9b4>
    16ea:	cb02                	sw	zero,148(sp)
    16ec:	0000                	unimp
    16ee:	3800                	fld	fs0,48(s0)
    16f0:	09a2                	slli	s3,s3,0x8
    16f2:	0000                	unimp
    16f4:	5f3a                	lw	t5,172(sp)
    16f6:	7672                	flw	fa2,60(sp)
    16f8:	0100                	addi	s0,sp,128
    16fa:	02ae                	slli	t0,t0,0xb
    16fc:	0025                	c.nop	9
    16fe:	0000                	unimp
    1700:	3b00                	fld	fs0,48(a4)
    1702:	8539                	srai	a0,a0,0xe
    1704:	0001                	nop
    1706:	0100                	addi	s0,sp,128
    1708:	02ae                	slli	t0,t0,0xb
    170a:	0025                	c.nop	9
    170c:	0000                	unimp
    170e:	a439                	j	191c <__udivdi3-0x7fea90>
    1710:	01000003          	lb	zero,16(zero) # 10 <__udivdi3-0x80039c>
    1714:	02ae                	slli	t0,t0,0xb
    1716:	00000e9b          	0xe9b
    171a:	a939                	j	1b38 <__udivdi3-0x7fe874>
    171c:	01000003          	lb	zero,16(zero) # 10 <__udivdi3-0x80039c>
    1720:	02ae                	slli	t0,t0,0xb
    1722:	0ea1                	addi	t4,t4,8
    1724:	0000                	unimp
    1726:	3d39                	jal	1544 <__udivdi3-0x7fee68>
    1728:	0000                	unimp
    172a:	0100                	addi	s0,sp,128
    172c:	02ae                	slli	t0,t0,0xb
    172e:	0eb1                	addi	t4,t4,12
    1730:	0000                	unimp
    1732:	dc39                	beqz	s0,1690 <__udivdi3-0x7fed1c>
    1734:	0001                	nop
    1736:	0100                	addi	s0,sp,128
    1738:	02ae                	slli	t0,t0,0xb
    173a:	0ec1                	addi	t4,t4,16
    173c:	0000                	unimp
    173e:	7239                	lui	tp,0xfffee
    1740:	0000                	unimp
    1742:	0100                	addi	s0,sp,128
    1744:	02ae                	slli	t0,t0,0xb
    1746:	0ed1                	addi	t4,t4,20
    1748:	0000                	unimp
    174a:	b339                	j	1458 <__udivdi3-0x7fef54>
    174c:	01000003          	lb	zero,16(zero) # 10 <__udivdi3-0x80039c>
    1750:	02ae                	slli	t0,t0,0xb
    1752:	0ee1                	addi	t4,t4,24
    1754:	0000                	unimp
    1756:	1939                	addi	s2,s2,-18
    1758:	0005                	c.nop	1
    175a:	0100                	addi	s0,sp,128
    175c:	02ae                	slli	t0,t0,0xb
    175e:	0ef1                	addi	t4,t4,28
    1760:	0000                	unimp
    1762:	cc39                	beqz	s0,17c0 <__udivdi3-0x7febec>
    1764:	01000003          	lb	zero,16(zero) # 10 <__udivdi3-0x80039c>
    1768:	02ae                	slli	t0,t0,0xb
    176a:	0f01                	addi	t5,t5,0
    176c:	0000                	unimp
    176e:	0439                	addi	s0,s0,14
    1770:	01000003          	lb	zero,16(zero) # 10 <__udivdi3-0x80039c>
    1774:	02ae                	slli	t0,t0,0xb
    1776:	0f11                	addi	t5,t5,4
    1778:	0000                	unimp
    177a:	eb39                	bnez	a4,17d0 <__udivdi3-0x7febdc>
    177c:	01000003          	lb	zero,16(zero) # 10 <__udivdi3-0x80039c>
    1780:	02ae                	slli	t0,t0,0xb
    1782:	0f21                	addi	t5,t5,8
    1784:	0000                	unimp
    1786:	9139                	srli	a0,a0,0x2e
    1788:	0002                	c.slli64	zero
    178a:	0100                	addi	s0,sp,128
    178c:	02ae                	slli	t0,t0,0xb
    178e:	0f31                	addi	t5,t5,12
    1790:	0000                	unimp
    1792:	ad39                	j	1db0 <__udivdi3-0x7fe5fc>
    1794:	0002                	c.slli64	zero
    1796:	0100                	addi	s0,sp,128
    1798:	02ae                	slli	t0,t0,0xb
    179a:	03de                	slli	t2,t2,0x17
    179c:	0000                	unimp
    179e:	4738                	lw	a4,72(a4)
    17a0:	3900000b          	0x3900000b
    17a4:	03be                	slli	t2,t2,0xf
    17a6:	0000                	unimp
    17a8:	ae01                	j	1ab8 <__udivdi3-0x7fe8f4>
    17aa:	cd02                	sw	zero,152(sp)
    17ac:	0000                	unimp
    17ae:	3900                	fld	fs0,48(a0)
    17b0:	02f5                	addi	t0,t0,29
    17b2:	0000                	unimp
    17b4:	ae01                	j	1ac4 <__udivdi3-0x7fe8e8>
    17b6:	d402                	sw	zero,40(sp)
    17b8:	0000                	unimp
    17ba:	3900                	fld	fs0,48(a0)
    17bc:	02de                	slli	t0,t0,0x17
    17be:	0000                	unimp
    17c0:	ae01                	j	1ad0 <__udivdi3-0x7fe8dc>
    17c2:	6702                	flw	fa4,0(sp)
    17c4:	0000                	unimp
    17c6:	3900                	fld	fs0,48(a0)
    17c8:	0000026b          	0x26b
    17cc:	ae01                	j	1adc <__udivdi3-0x7fe8d0>
    17ce:	4102                	lw	sp,0(sp)
    17d0:	3900000f          	0x3900000f
    17d4:	007d                	c.nop	31
    17d6:	0000                	unimp
    17d8:	ae01                	j	1ae8 <__udivdi3-0x7fe8c4>
    17da:	2c02                	fld	fs8,0(sp)
    17dc:	0000                	unimp
    17de:	3900                	fld	fs0,48(a0)
    17e0:	000002fb          	0x2fb
    17e4:	ae01                	j	1af4 <__udivdi3-0x7fe8b8>
    17e6:	2502                	fld	fa0,0(sp)
    17e8:	0000                	unimp
    17ea:	3900                	fld	fs0,48(a0)
    17ec:	04fa                	slli	s1,s1,0x1e
    17ee:	0000                	unimp
    17f0:	ae01                	j	1b00 <__udivdi3-0x7fe8ac>
    17f2:	2502                	fld	fa0,0(sp)
    17f4:	0000                	unimp
    17f6:	3900                	fld	fs0,48(a0)
    17f8:	01a1                	addi	gp,gp,8
    17fa:	0000                	unimp
    17fc:	ae01                	j	1b0c <__udivdi3-0x7fe8a0>
    17fe:	2502                	fld	fa0,0(sp)
    1800:	0000                	unimp
    1802:	3900                	fld	fs0,48(a0)
    1804:	01c5                	addi	gp,gp,17
    1806:	0000                	unimp
    1808:	ae01                	j	1b18 <__udivdi3-0x7fe894>
    180a:	5102                	lw	sp,32(sp)
    180c:	3800000f          	0x3800000f
    1810:	0b28                	addi	a0,sp,408
    1812:	0000                	unimp
    1814:	0f39                	addi	t5,t5,14
    1816:	0005                	c.nop	1
    1818:	0100                	addi	s0,sp,128
    181a:	02ae                	slli	t0,t0,0xb
    181c:	008d                	addi	ra,ra,3
    181e:	0000                	unimp
    1820:	de38                	sw	a4,120(a2)
    1822:	000a                	c.slli	zero,0x2
    1824:	3a00                	fld	fs0,48(a2)
    1826:	765f 0100 02ae      	0x2ae0100765f
    182c:	00da                	slli	ra,ra,0x16
    182e:	0000                	unimp
    1830:	0f39                	addi	t5,t5,14
    1832:	0005                	c.nop	1
    1834:	0100                	addi	s0,sp,128
    1836:	02ae                	slli	t0,t0,0xb
    1838:	002c                	addi	a1,sp,8
    183a:	0000                	unimp
    183c:	3b00                	fld	fs0,48(a4)
    183e:	5f3a                	lw	t5,172(sp)
    1840:	0076                	c.slli	zero,0x1d
    1842:	ae01                	j	1b52 <__udivdi3-0x7fe85a>
    1844:	da02                	sw	zero,52(sp)
    1846:	0000                	unimp
    1848:	3a00                	fld	fs0,48(a2)
    184a:	645f 0100 02ae      	0x2ae0100645f
    1850:	00000f57          	0xf57
    1854:	1039                	c.nop	-18
    1856:	0005                	c.nop	1
    1858:	0100                	addi	s0,sp,128
    185a:	02ae                	slli	t0,t0,0xb
    185c:	002c                	addi	a1,sp,8
    185e:	0000                	unimp
    1860:	0d39                	addi	s10,s10,14
    1862:	0000                	unimp
    1864:	0100                	addi	s0,sp,128
    1866:	02ae                	slli	t0,t0,0xb
    1868:	002c                	addi	a1,sp,8
    186a:	0000                	unimp
    186c:	765f3a3b          	0x765f3a3b
    1870:	0100                	addi	s0,sp,128
    1872:	02ae                	slli	t0,t0,0xb
    1874:	00da                	slli	ra,ra,0x16
    1876:	0000                	unimp
    1878:	0f39                	addi	t5,t5,14
    187a:	0005                	c.nop	1
    187c:	0100                	addi	s0,sp,128
    187e:	02ae                	slli	t0,t0,0xb
    1880:	002c                	addi	a1,sp,8
    1882:	0000                	unimp
    1884:	0000                	unimp
    1886:	3800                	fld	fs0,48(s0)
    1888:	0b38                	addi	a4,sp,408
    188a:	0000                	unimp
    188c:	693a                	flw	fs2,140(sp)
    188e:	0100                	addi	s0,sp,128
    1890:	02ae                	slli	t0,t0,0xb
    1892:	0025                	c.nop	9
    1894:	0000                	unimp
    1896:	3b00                	fld	fs0,48(a4)
    1898:	683a                	flw	fa6,140(sp)
    189a:	7264                	flw	fs1,100(a2)
    189c:	0100                	addi	s0,sp,128
    189e:	02ae                	slli	t0,t0,0xb
    18a0:	03a9                	addi	t2,t2,10
    18a2:	0000                	unimp
    18a4:	0000                	unimp
    18a6:	03be393b          	0x3be393b
    18aa:	0000                	unimp
    18ac:	ae01                	j	1bbc <__udivdi3-0x7fe7f0>
    18ae:	cd02                	sw	zero,152(sp)
    18b0:	0000                	unimp
    18b2:	3900                	fld	fs0,48(a0)
    18b4:	02f5                	addi	t0,t0,29
    18b6:	0000                	unimp
    18b8:	ae01                	j	1bc8 <__udivdi3-0x7fe7e4>
    18ba:	d402                	sw	zero,40(sp)
    18bc:	0000                	unimp
    18be:	3900                	fld	fs0,48(a0)
    18c0:	02de                	slli	t0,t0,0x17
    18c2:	0000                	unimp
    18c4:	ae01                	j	1bd4 <__udivdi3-0x7fe7d8>
    18c6:	6702                	flw	fa4,0(sp)
    18c8:	0000                	unimp
    18ca:	3900                	fld	fs0,48(a0)
    18cc:	0000026b          	0x26b
    18d0:	ae01                	j	1be0 <__udivdi3-0x7fe7cc>
    18d2:	4102                	lw	sp,0(sp)
    18d4:	3900000f          	0x3900000f
    18d8:	007d                	c.nop	31
    18da:	0000                	unimp
    18dc:	ae01                	j	1bec <__udivdi3-0x7fe7c0>
    18de:	2c02                	fld	fs8,0(sp)
    18e0:	0000                	unimp
    18e2:	3900                	fld	fs0,48(a0)
    18e4:	000002fb          	0x2fb
    18e8:	ae01                	j	1bf8 <__udivdi3-0x7fe7b4>
    18ea:	2502                	fld	fa0,0(sp)
    18ec:	0000                	unimp
    18ee:	3900                	fld	fs0,48(a0)
    18f0:	04fa                	slli	s1,s1,0x1e
    18f2:	0000                	unimp
    18f4:	ae01                	j	1c04 <__udivdi3-0x7fe7a8>
    18f6:	2502                	fld	fa0,0(sp)
    18f8:	0000                	unimp
    18fa:	3900                	fld	fs0,48(a0)
    18fc:	01a1                	addi	gp,gp,8
    18fe:	0000                	unimp
    1900:	ae01                	j	1c10 <__udivdi3-0x7fe79c>
    1902:	2502                	fld	fa0,0(sp)
    1904:	0000                	unimp
    1906:	3900                	fld	fs0,48(a0)
    1908:	01c5                	addi	gp,gp,17
    190a:	0000                	unimp
    190c:	ae01                	j	1c1c <__udivdi3-0x7fe790>
    190e:	5102                	lw	sp,32(sp)
    1910:	3800000f          	0x3800000f
    1914:	0c2c                	addi	a1,sp,536
    1916:	0000                	unimp
    1918:	0f39                	addi	t5,t5,14
    191a:	0005                	c.nop	1
    191c:	0100                	addi	s0,sp,128
    191e:	02ae                	slli	t0,t0,0xb
    1920:	008d                	addi	ra,ra,3
    1922:	0000                	unimp
    1924:	e238                	fsw	fa4,64(a2)
    1926:	3a00000b          	0x3a00000b
    192a:	765f 0100 02ae      	0x2ae0100765f
    1930:	00da                	slli	ra,ra,0x16
    1932:	0000                	unimp
    1934:	0f39                	addi	t5,t5,14
    1936:	0005                	c.nop	1
    1938:	0100                	addi	s0,sp,128
    193a:	02ae                	slli	t0,t0,0xb
    193c:	002c                	addi	a1,sp,8
    193e:	0000                	unimp
    1940:	3b00                	fld	fs0,48(a4)
    1942:	5f3a                	lw	t5,172(sp)
    1944:	0076                	c.slli	zero,0x1d
    1946:	ae01                	j	1c56 <__udivdi3-0x7fe756>
    1948:	da02                	sw	zero,52(sp)
    194a:	0000                	unimp
    194c:	3a00                	fld	fs0,48(a2)
    194e:	645f 0100 02ae      	0x2ae0100645f
    1954:	00000f57          	0xf57
    1958:	1039                	c.nop	-18
    195a:	0005                	c.nop	1
    195c:	0100                	addi	s0,sp,128
    195e:	02ae                	slli	t0,t0,0xb
    1960:	002c                	addi	a1,sp,8
    1962:	0000                	unimp
    1964:	0d39                	addi	s10,s10,14
    1966:	0000                	unimp
    1968:	0100                	addi	s0,sp,128
    196a:	02ae                	slli	t0,t0,0xb
    196c:	002c                	addi	a1,sp,8
    196e:	0000                	unimp
    1970:	765f3a3b          	0x765f3a3b
    1974:	0100                	addi	s0,sp,128
    1976:	02ae                	slli	t0,t0,0xb
    1978:	00da                	slli	ra,ra,0x16
    197a:	0000                	unimp
    197c:	0f39                	addi	t5,t5,14
    197e:	0005                	c.nop	1
    1980:	0100                	addi	s0,sp,128
    1982:	02ae                	slli	t0,t0,0xb
    1984:	002c                	addi	a1,sp,8
    1986:	0000                	unimp
    1988:	0000                	unimp
    198a:	3800                	fld	fs0,48(s0)
    198c:	0c3c                	addi	a5,sp,536
    198e:	0000                	unimp
    1990:	693a                	flw	fs2,140(sp)
    1992:	0100                	addi	s0,sp,128
    1994:	02ae                	slli	t0,t0,0xb
    1996:	0025                	c.nop	9
    1998:	0000                	unimp
    199a:	3b00                	fld	fs0,48(a4)
    199c:	683a                	flw	fa6,140(sp)
    199e:	7264                	flw	fs1,100(a2)
    19a0:	0100                	addi	s0,sp,128
    19a2:	02ae                	slli	t0,t0,0xb
    19a4:	03a9                	addi	t2,t2,10
    19a6:	0000                	unimp
    19a8:	0000                	unimp
    19aa:	0000                	unimp
    19ac:	02be393b          	0x2be393b
    19b0:	0000                	unimp
    19b2:	ae01                	j	1cc2 <__udivdi3-0x7fe6ea>
    19b4:	7a02                	flw	fs4,32(sp)
    19b6:	0000                	unimp
    19b8:	3900                	fld	fs0,48(a0)
    19ba:	0390                	addi	a2,sp,448
    19bc:	0000                	unimp
    19be:	ae01                	j	1cce <__udivdi3-0x7fe6de>
    19c0:	1b02                	slli	s6,s6,0x20
    19c2:	0005                	c.nop	1
    19c4:	0000                	unimp
    19c6:	3c00                	fld	fs0,56(s0)
    19c8:	00002457          	0x2457
    19cc:	6936                	flw	fs2,76(sp)
    19ce:	0100                	addi	s0,sp,128
    19d0:	0278                	addi	a4,sp,268
    19d2:	0000                	unimp
    19d4:	b101                	j	15d4 <__udivdi3-0x7fedd8>
    19d6:	3f02                	fld	ft10,32(sp)
    19d8:	000d                	c.nop	3
    19da:	2200                	fld	fs0,0(a2)
    19dc:	2464                	fld	fs1,200(s0)
    19de:	0000                	unimp
    19e0:	000004bb          	0x4bb
    19e4:	8025                	srli	s0,s0,0x9
    19e6:	0005                	c.nop	1
    19e8:	3e00                	fld	fs0,56(a2)
    19ea:	0069                	c.nop	26
    19ec:	a001                	j	19ec <__udivdi3-0x7fe9c0>
    19ee:	0002                	c.slli64	zero
    19f0:	0a00                	addi	s0,sp,272
    19f2:	026e                	slli	tp,tp,0x1b
    19f4:	8e22                	mv	t3,s0
    19f6:	0005                	c.nop	1
    19f8:	ea00                	fsw	fs0,16(a2)
    19fa:	0004                	0x4
    19fc:	2100                	fld	fs0,0(a0)
    19fe:	2750                	fld	fa2,136(a4)
    1a00:	0000                	unimp
    1a02:	694c                	flw	fa1,20(a0)
    1a04:	0100                	addi	s0,sp,128
    1a06:	0006                	c.slli	zero,0x1
    1a08:	0000                	unimp
    1a0a:	2401                	jal	1c0a <__udivdi3-0x7fe7a2>
    1a0c:	1401                	addi	s0,s0,-32
    1a0e:	0ce0                	addi	s0,sp,604
    1a10:	0000                	unimp
    1a12:	6d22                	flw	fs10,8(sp)
    1a14:	19000027          	0x19000027
    1a18:	0005                	c.nop	1
    1a1a:	2200                	fld	fs0,0(a2)
    1a1c:	2761                	jal	21a4 <__udivdi3-0x7fe208>
    1a1e:	0000                	unimp
    1a20:	0000052f          	0x52f
    1a24:	00281a23          	sh	sp,20(a6)
    1a28:	4c00                	lw	s0,24(s0)
    1a2a:	0069                	c.nop	26
    1a2c:	0601                	addi	a2,a2,0
    1a2e:	0000                	unimp
    1a30:	0200                	addi	s0,sp,256
    1a32:	09b2                	slli	s3,s3,0xc
    1a34:	2b22                	fld	fs6,8(sp)
    1a36:	0028                	addi	a0,sp,8
    1a38:	4500                	lw	s0,8(a0)
    1a3a:	0005                	c.nop	1
    1a3c:	0000                	unimp
    1a3e:	2100                	fld	fs0,0(a0)
    1a40:	2750                	fld	fa2,136(a4)
    1a42:	0000                	unimp
    1a44:	6954                	flw	fa3,20(a0)
    1a46:	0100                	addi	s0,sp,128
    1a48:	0004                	0x4
    1a4a:	0000                	unimp
    1a4c:	2501                	jal	204c <__udivdi3-0x7fe360>
    1a4e:	1301                	addi	t1,t1,-32
    1a50:	0d22                	slli	s10,s10,0x8
    1a52:	0000                	unimp
    1a54:	6d22                	flw	fs10,8(sp)
    1a56:	5b000027          	0x5b000027
    1a5a:	0005                	c.nop	1
    1a5c:	2200                	fld	fs0,0(a2)
    1a5e:	2761                	jal	21e6 <__udivdi3-0x7fe1c6>
    1a60:	0000                	unimp
    1a62:	0571                	addi	a0,a0,28
    1a64:	0000                	unimp
    1a66:	00281a23          	sh	sp,20(a6)
    1a6a:	5400                	lw	s0,40(s0)
    1a6c:	0069                	c.nop	26
    1a6e:	0401                	addi	s0,s0,0
    1a70:	0000                	unimp
    1a72:	0200                	addi	s0,sp,256
    1a74:	09b2                	slli	s3,s3,0xc
    1a76:	2b22                	fld	fs6,8(sp)
    1a78:	0028                	addi	a0,sp,8
    1a7a:	8700                	0x8700
    1a7c:	0005                	c.nop	1
    1a7e:	0000                	unimp
    1a80:	3500                	fld	fs0,40(a0)
    1a82:	694c                	flw	fa1,20(a0)
    1a84:	0100                	addi	s0,sp,128
    1a86:	00002bc3          	fmadd.s	fs7,ft0,ft0,ft0,rdn
    1a8a:	0136                	slli	sp,sp,0xd
    1a8c:	035a                	slli	t1,t1,0x16
    1a8e:	9891                	andi	s1,s1,-28
    1a90:	367f                	0x367f
    1a92:	5b01                	li	s6,-32
    1a94:	3001                	jal	1294 <__udivdi3-0x7ff118>
    1a96:	0136                	slli	sp,sp,0xd
    1a98:	015c                	addi	a5,sp,132
    1a9a:	003c                	addi	a5,sp,8
    1a9c:	0000                	unimp
    1a9e:	b434                	fsd	fa3,104(s0)
    1aa0:	0025                	c.nop	9
    1aa2:	5e00                	lw	s0,56(a2)
    1aa4:	0069                	c.nop	26
    1aa6:	0e01                	addi	t3,t3,0
    1aa8:	0000                	unimp
    1aaa:	0100                	addi	s0,sp,128
    1aac:	13b2                	slli	t2,t2,0x2c
    1aae:	0d7e                	slli	s10,s10,0x1f
    1ab0:	0000                	unimp
    1ab2:	d122                	sw	s0,160(sp)
    1ab4:	0025                	c.nop	9
    1ab6:	9d00                	0x9d00
    1ab8:	0005                	c.nop	1
    1aba:	2200                	fld	fs0,0(a2)
    1abc:	25c5                	jal	219c <__udivdi3-0x7fe210>
    1abe:	0000                	unimp
    1ac0:	05cc                	addi	a1,sp,708
    1ac2:	0000                	unimp
    1ac4:	6c35                	lui	s8,0xd
    1ac6:	0069                	c.nop	26
    1ac8:	cf01                	beqz	a4,1ae0 <__udivdi3-0x7fe8cc>
    1aca:	3600002b          	0x3600002b
    1ace:	5a01                	li	s4,-32
    1ad0:	243d4003          	lbu	zero,579(s10)
    1ad4:	0136                	slli	sp,sp,0xd
    1ad6:	9891035b          	0x9891035b
    1ada:	007f                	0x7f
    1adc:	3400                	fld	fs0,40(s0)
    1ade:	2616                	fld	fa2,320(sp)
    1ae0:	0000                	unimp
    1ae2:	6970                	flw	fa2,84(a0)
    1ae4:	0100                	addi	s0,sp,128
    1ae6:	000c                	0xc
    1ae8:	0000                	unimp
    1aea:	b401                	j	14ea <__udivdi3-0x7feec2>
    1aec:	000dab13          	slti	s6,s11,0
    1af0:	2200                	fld	fs0,0(a2)
    1af2:	00002627          	fsw	ft0,12(zero) # c <__udivdi3-0x8003a0>
    1af6:	05e2                	slli	a1,a1,0x18
    1af8:	0000                	unimp
    1afa:	7a35                	lui	s4,0xfffed
    1afc:	0069                	c.nop	26
    1afe:	db01                	beqz	a4,1a0e <__udivdi3-0x7fe99e>
    1b00:	3600002b          	0x3600002b
    1b04:	5a01                	li	s4,-32
    1b06:	3001                	jal	1306 <__udivdi3-0x7ff0a6>
    1b08:	0000                	unimp
    1b0a:	fc34                	fsw	fa3,120(s0)
    1b0c:	0025                	c.nop	9
    1b0e:	a200                	fsd	fs0,0(a2)
    1b10:	0069                	c.nop	26
    1b12:	0a01                	addi	s4,s4,0
    1b14:	0000                	unimp
    1b16:	0100                	addi	s0,sp,128
    1b18:	02c0                	addi	s0,sp,324
    1b1a:	0dd9                	addi	s11,s11,22
    1b1c:	0000                	unimp
    1b1e:	0922                	slli	s2,s2,0x8
    1b20:	0026                	c.slli	zero,0x9
    1b22:	f600                	fsw	fs0,40(a2)
    1b24:	0005                	c.nop	1
    1b26:	3500                	fld	fs0,40(a0)
    1b28:	69ac                	flw	fa1,80(a1)
    1b2a:	0100                	addi	s0,sp,128
    1b2c:	00002be7          	0x2be7
    1b30:	0136                	slli	sp,sp,0xd
    1b32:	025a                	slli	tp,tp,0x16
    1b34:	0078                	addi	a4,sp,12
    1b36:	0000                	unimp
    1b38:	9a34                	0x9a34
    1b3a:	0025                	c.nop	9
    1b3c:	ac00                	fsd	fs0,24(s0)
    1b3e:	0069                	c.nop	26
    1b40:	0a01                	addi	s4,s4,0
    1b42:	0000                	unimp
    1b44:	0100                	addi	s0,sp,128
    1b46:	02c1                	addi	t0,t0,16
    1b48:	00000e07          	0xe07
    1b4c:	a722                	fsd	fs0,392(sp)
    1b4e:	0025                	c.nop	9
    1b50:	0900                	addi	s0,sp,144
    1b52:	0006                	c.slli	zero,0x1
    1b54:	3500                	fld	fs0,40(a0)
    1b56:	69b6                	flw	fs3,76(sp)
    1b58:	0100                	addi	s0,sp,128
    1b5a:	00002bf3          	csrr	s7,ustatus
    1b5e:	0136                	slli	sp,sp,0xd
    1b60:	025a                	slli	tp,tp,0x16
    1b62:	0082                	c.slli64	ra
    1b64:	0000                	unimp
    1b66:	de34                	sw	a3,120(a2)
    1b68:	0025                	c.nop	9
    1b6a:	c400                	sw	s0,8(s0)
    1b6c:	0069                	c.nop	26
    1b6e:	0e01                	addi	t3,t3,0
    1b70:	0000                	unimp
    1b72:	0100                	addi	s0,sp,128
    1b74:	0e3518bf ef220000 	0xef2200000e3518bf
    1b7c:	0025                	c.nop	9
    1b7e:	1c00                	addi	s0,sp,560
    1b80:	0006                	c.slli	zero,0x1
    1b82:	3500                	fld	fs0,40(a0)
    1b84:	69ce                	flw	fs3,208(sp)
    1b86:	0100                	addi	s0,sp,128
    1b88:	2bff                	0x2bff
    1b8a:	0000                	unimp
    1b8c:	0136                	slli	sp,sp,0xd
    1b8e:	025a                	slli	tp,tp,0x16
    1b90:	0078                	addi	a4,sp,12
    1b92:	0000                	unimp
    1b94:	9a34                	0x9a34
    1b96:	0025                	c.nop	9
    1b98:	d600                	sw	s0,40(a2)
    1b9a:	0069                	c.nop	26
    1b9c:	0a01                	addi	s4,s4,0
    1b9e:	0000                	unimp
    1ba0:	0100                	addi	s0,sp,128
    1ba2:	03b6                	slli	t2,t2,0xd
    1ba4:	00000e63          	beqz	zero,1bc0 <__udivdi3-0x7fe7ec>
    1ba8:	a722                	fsd	fs0,392(sp)
    1baa:	0025                	c.nop	9
    1bac:	2f00                	fld	fs0,24(a4)
    1bae:	0006                	c.slli	zero,0x1
    1bb0:	3500                	fld	fs0,40(a0)
    1bb2:	69e0                	flw	fs0,84(a1)
    1bb4:	0100                	addi	s0,sp,128
    1bb6:	00002bf3          	csrr	s7,ustatus
    1bba:	0136                	slli	sp,sp,0xd
    1bbc:	025a                	slli	tp,tp,0x16
    1bbe:	0082                	c.slli64	ra
    1bc0:	0000                	unimp
    1bc2:	8e3d                	xor	a2,a2,a5
    1bc4:	0069                	c.nop	26
    1bc6:	c301                	beqz	a4,1bc6 <__udivdi3-0x7fe7e6>
    1bc8:	8300002b          	0x8300002b
    1bcc:	000e                	c.slli	zero,0x3
    1bce:	3600                	fld	fs0,40(a2)
    1bd0:	5a01                	li	s4,-32
    1bd2:	7fa49103          	lh	sp,2042(s1)
    1bd6:	0136                	slli	sp,sp,0xd
    1bd8:	3630015b          	0x3630015b
    1bdc:	5c01                	li	s8,-32
    1bde:	0802                	c.slli64	a6
    1be0:	004c                	addi	a1,sp,4
    1be2:	9e35                	0x9e35
    1be4:	0069                	c.nop	26
    1be6:	0b01                	addi	s6,s6,0
    1be8:	002c                	addi	a1,sp,8
    1bea:	3600                	fld	fs0,40(a2)
    1bec:	5a01                	li	s4,-32
    1bee:	7802                	flw	fa6,32(sp)
    1bf0:	3600                	fld	fs0,40(a2)
    1bf2:	5b01                	li	s6,-32
    1bf4:	7fa49103          	lh	sp,2042(s1)
    1bf8:	0000                	unimp
    1bfa:	04ad0407          	0x4ad0407
    1bfe:	0000                	unimp
    1c00:	3f0a                	fld	ft10,160(sp)
    1c02:	0000                	unimp
    1c04:	b100                	fsd	fs0,32(a0)
    1c06:	000e                	c.slli	zero,0x3
    1c08:	0b00                	addi	s0,sp,400
    1c0a:	0038                	addi	a4,sp,8
    1c0c:	0000                	unimp
    1c0e:	3f0a0003          	lb	zero,1008(s4) # fffed3f0 <_end+0xfefe68f4>
    1c12:	0000                	unimp
    1c14:	c100                	sw	s0,0(a0)
    1c16:	000e                	c.slli	zero,0x3
    1c18:	0b00                	addi	s0,sp,400
    1c1a:	0038                	addi	a4,sp,8
    1c1c:	0000                	unimp
    1c1e:	0005                	c.nop	1
    1c20:	3f0a                	fld	ft10,160(sp)
    1c22:	0000                	unimp
    1c24:	d100                	sw	s0,32(a0)
    1c26:	000e                	c.slli	zero,0x3
    1c28:	0b00                	addi	s0,sp,400
    1c2a:	0038                	addi	a4,sp,8
    1c2c:	0000                	unimp
    1c2e:	3f0a0007          	0x3f0a0007
    1c32:	0000                	unimp
    1c34:	e100                	fsw	fs0,0(a0)
    1c36:	000e                	c.slli	zero,0x3
    1c38:	0b00                	addi	s0,sp,400
    1c3a:	0038                	addi	a4,sp,8
    1c3c:	0000                	unimp
    1c3e:	3f0a000f          	0x3f0a000f
    1c42:	0000                	unimp
    1c44:	f100                	fsw	fs0,32(a0)
    1c46:	000e                	c.slli	zero,0x3
    1c48:	0b00                	addi	s0,sp,400
    1c4a:	0038                	addi	a4,sp,8
    1c4c:	0000                	unimp
    1c4e:	001f 460a 0000      	0x460a001f
    1c54:	0100                	addi	s0,sp,128
    1c56:	0b00000f          	fence	irw,unknown
    1c5a:	0038                	addi	a4,sp,8
    1c5c:	0000                	unimp
    1c5e:	0001                	nop
    1c60:	460a                	lw	a2,128(sp)
    1c62:	0000                	unimp
    1c64:	1100                	addi	s0,sp,160
    1c66:	0b00000f          	fence	irw,unknown
    1c6a:	0038                	addi	a4,sp,8
    1c6c:	0000                	unimp
    1c6e:	0002                	c.slli64	zero
    1c70:	460a                	lw	a2,128(sp)
    1c72:	0000                	unimp
    1c74:	2100                	fld	fs0,0(a0)
    1c76:	0b00000f          	fence	irw,unknown
    1c7a:	0038                	addi	a4,sp,8
    1c7c:	0000                	unimp
    1c7e:	460a0003          	lb	zero,1120(s4)
    1c82:	0000                	unimp
    1c84:	3100                	fld	fs0,32(a0)
    1c86:	0b00000f          	fence	irw,unknown
    1c8a:	0038                	addi	a4,sp,8
    1c8c:	0000                	unimp
    1c8e:	460a0007          	0x460a0007
    1c92:	0000                	unimp
    1c94:	4100                	lw	s0,0(a0)
    1c96:	0b00000f          	fence	irw,unknown
    1c9a:	0038                	addi	a4,sp,8
    1c9c:	0000                	unimp
    1c9e:	7a0a000f          	0x7a0a000f
    1ca2:	0000                	unimp
    1ca4:	5100                	lw	s0,32(a0)
    1ca6:	0b00000f          	fence	irw,unknown
    1caa:	0038                	addi	a4,sp,8
    1cac:	0000                	unimp
    1cae:	0407000f          	0x407000f
    1cb2:	03a9                	addi	t2,t2,10
    1cb4:	0000                	unimp
    1cb6:	0804                	addi	s1,sp,16
    1cb8:	3b04                	fld	fs1,48(a4)
    1cba:	0002                	c.slli64	zero
    1cbc:	2f00                	fld	fs0,24(a4)
    1cbe:	0111                	addi	sp,sp,4
    1cc0:	0000                	unimp
    1cc2:	a101                	j	20c2 <__udivdi3-0x7fe2ea>
    1cc4:	2505                	jal	22e4 <__udivdi3-0x7fe0c8>
    1cc6:	0000                	unimp
    1cc8:	e200                	fsw	fs0,0(a2)
    1cca:	0068                	addi	a0,sp,12
    1ccc:	5201                	li	tp,-32
    1cce:	0000                	unimp
    1cd0:	0100                	addi	s0,sp,128
    1cd2:	8b9c                	0x8b9c
    1cd4:	0014                	0x14
    1cd6:	3e00                	fld	fs0,56(a2)
    1cd8:	0130                	addi	a2,sp,136
    1cda:	0000                	unimp
    1cdc:	a101                	j	20dc <__udivdi3-0x7fe2d0>
    1cde:	8d21                	xor	a0,a0,s0
    1ce0:	0000                	unimp
    1ce2:	4200                	lw	s0,0(a2)
    1ce4:	0006                	c.slli	zero,0x1
    1ce6:	3300                	fld	fs0,32(a4)
    1ce8:	00636d6f          	jal	s10,37cee <__udivdi3-0x7c86be>
    1cec:	a401                	j	1eec <__udivdi3-0x7fe4c0>
    1cee:	b30d                	j	1a10 <__udivdi3-0x7fe99c>
    1cf0:	0002                	c.slli64	zero
    1cf2:	6100                	flw	fs0,0(a0)
    1cf4:	0006                	c.slli	zero,0x1
    1cf6:	3300                	fld	fs0,32(a4)
    1cf8:	6572                	flw	fa0,28(sp)
    1cfa:	a6010073          	0xa6010073
    1cfe:	2506                	fld	fa0,64(sp)
    1d00:	0000                	unimp
    1d02:	9500                	0x9500
    1d04:	0006                	c.slli	zero,0x1
    1d06:	3800                	fld	fs0,48(s0)
    1d08:	13aa                	slli	t2,t2,0x2a
    1d0a:	0000                	unimp
    1d0c:	4739                	li	a4,14
    1d0e:	0000                	unimp
    1d10:	0100                	addi	s0,sp,128
    1d12:	00cd02a3          	sb	a2,5(s10)
    1d16:	0000                	unimp
    1d18:	0e39                	addi	t3,t3,14
    1d1a:	01000003          	lb	zero,16(zero) # 10 <__udivdi3-0x80039c>
    1d1e:	008d02a3          	sb	s0,5(s10)
    1d22:	0000                	unimp
    1d24:	8f38                	0x8f38
    1d26:	39000013          	li	zero,912
    1d2a:	000002ef          	jal	t0,1d2a <__udivdi3-0x7fe682>
    1d2e:	a301                	j	222e <__udivdi3-0x7fe17e>
    1d30:	2502                	fld	fa0,0(sp)
    1d32:	0000                	unimp
    1d34:	3900                	fld	fs0,48(a0)
    1d36:	000003c7          	fmsub.s	ft7,ft0,ft0,ft0,rne
    1d3a:	a301                	j	223a <__udivdi3-0x7fe172>
    1d3c:	cb02                	sw	zero,148(sp)
    1d3e:	0000                	unimp
    1d40:	3800                	fld	fs0,48(s0)
    1d42:	0ff4                	addi	a3,sp,988
    1d44:	0000                	unimp
    1d46:	5f3a                	lw	t5,172(sp)
    1d48:	7672                	flw	fa2,60(sp)
    1d4a:	0100                	addi	s0,sp,128
    1d4c:	002502a3          	sb	sp,5(a0) # 6005 <__udivdi3-0x7fa3a7>
    1d50:	0000                	unimp
    1d52:	3b00                	fld	fs0,48(a4)
    1d54:	8539                	srai	a0,a0,0xe
    1d56:	0001                	nop
    1d58:	0100                	addi	s0,sp,128
    1d5a:	002502a3          	sb	sp,5(a0)
    1d5e:	0000                	unimp
    1d60:	a439                	j	1f6e <__udivdi3-0x7fe43e>
    1d62:	01000003          	lb	zero,16(zero) # 10 <__udivdi3-0x80039c>
    1d66:	0e9b02a3          	sb	s1,229(s6) # 8d00e5 <z_impl_k_busy_wait+0xc3e77>
    1d6a:	0000                	unimp
    1d6c:	a939                	j	218a <__udivdi3-0x7fe222>
    1d6e:	01000003          	lb	zero,16(zero) # 10 <__udivdi3-0x80039c>
    1d72:	0ea102a3          	sb	a0,229(sp) # 2209146f <_end+0x2108a973>
    1d76:	0000                	unimp
    1d78:	3d39                	jal	1b96 <__udivdi3-0x7fe816>
    1d7a:	0000                	unimp
    1d7c:	0100                	addi	s0,sp,128
    1d7e:	0eb102a3          	sb	a1,229(sp)
    1d82:	0000                	unimp
    1d84:	dc39                	beqz	s0,1ce2 <__udivdi3-0x7fe6ca>
    1d86:	0001                	nop
    1d88:	0100                	addi	s0,sp,128
    1d8a:	0ec102a3          	sb	a2,229(sp)
    1d8e:	0000                	unimp
    1d90:	7239                	lui	tp,0xfffee
    1d92:	0000                	unimp
    1d94:	0100                	addi	s0,sp,128
    1d96:	0ed102a3          	sb	a3,229(sp)
    1d9a:	0000                	unimp
    1d9c:	b339                	j	1aaa <__udivdi3-0x7fe902>
    1d9e:	01000003          	lb	zero,16(zero) # 10 <__udivdi3-0x80039c>
    1da2:	0ee102a3          	sb	a4,229(sp)
    1da6:	0000                	unimp
    1da8:	1939                	addi	s2,s2,-18
    1daa:	0005                	c.nop	1
    1dac:	0100                	addi	s0,sp,128
    1dae:	0ef102a3          	sb	a5,229(sp)
    1db2:	0000                	unimp
    1db4:	cc39                	beqz	s0,1e12 <__udivdi3-0x7fe59a>
    1db6:	01000003          	lb	zero,16(zero) # 10 <__udivdi3-0x80039c>
    1dba:	0f0102a3          	sb	a6,229(sp)
    1dbe:	0000                	unimp
    1dc0:	0439                	addi	s0,s0,14
    1dc2:	01000003          	lb	zero,16(zero) # 10 <__udivdi3-0x80039c>
    1dc6:	0f1102a3          	sb	a7,229(sp)
    1dca:	0000                	unimp
    1dcc:	eb39                	bnez	a4,1e22 <__udivdi3-0x7fe58a>
    1dce:	01000003          	lb	zero,16(zero) # 10 <__udivdi3-0x80039c>
    1dd2:	0f2102a3          	sb	s2,229(sp)
    1dd6:	0000                	unimp
    1dd8:	9139                	srli	a0,a0,0x2e
    1dda:	0002                	c.slli64	zero
    1ddc:	0100                	addi	s0,sp,128
    1dde:	0f3102a3          	sb	s3,229(sp)
    1de2:	0000                	unimp
    1de4:	ad39                	j	2402 <__udivdi3-0x7fdfaa>
    1de6:	0002                	c.slli64	zero
    1de8:	0100                	addi	s0,sp,128
    1dea:	03de02a3          	sb	t4,37(t3) # 2b13b <__udivdi3-0x7d5271>
    1dee:	0000                	unimp
    1df0:	1138                	addi	a4,sp,168
    1df2:	0012                	c.slli	zero,0x4
    1df4:	3900                	fld	fs0,48(a0)
    1df6:	03be                	slli	t2,t2,0xf
    1df8:	0000                	unimp
    1dfa:	a301                	j	22fa <__udivdi3-0x7fe0b2>
    1dfc:	cd02                	sw	zero,152(sp)
    1dfe:	0000                	unimp
    1e00:	3900                	fld	fs0,48(a0)
    1e02:	02f5                	addi	t0,t0,29
    1e04:	0000                	unimp
    1e06:	a301                	j	2306 <__udivdi3-0x7fe0a6>
    1e08:	d402                	sw	zero,40(sp)
    1e0a:	0000                	unimp
    1e0c:	3900                	fld	fs0,48(a0)
    1e0e:	02de                	slli	t0,t0,0x17
    1e10:	0000                	unimp
    1e12:	a301                	j	2312 <__udivdi3-0x7fe09a>
    1e14:	6702                	flw	fa4,0(sp)
    1e16:	0000                	unimp
    1e18:	3900                	fld	fs0,48(a0)
    1e1a:	0000026b          	0x26b
    1e1e:	a301                	j	231e <__udivdi3-0x7fe08e>
    1e20:	4102                	lw	sp,0(sp)
    1e22:	3900000f          	0x3900000f
    1e26:	007d                	c.nop	31
    1e28:	0000                	unimp
    1e2a:	a301                	j	232a <__udivdi3-0x7fe082>
    1e2c:	2c02                	fld	fs8,0(sp)
    1e2e:	0000                	unimp
    1e30:	3900                	fld	fs0,48(a0)
    1e32:	000002fb          	0x2fb
    1e36:	a301                	j	2336 <__udivdi3-0x7fe076>
    1e38:	2502                	fld	fa0,0(sp)
    1e3a:	0000                	unimp
    1e3c:	3900                	fld	fs0,48(a0)
    1e3e:	04fa                	slli	s1,s1,0x1e
    1e40:	0000                	unimp
    1e42:	a301                	j	2342 <__udivdi3-0x7fe06a>
    1e44:	2502                	fld	fa0,0(sp)
    1e46:	0000                	unimp
    1e48:	3900                	fld	fs0,48(a0)
    1e4a:	01a1                	addi	gp,gp,8
    1e4c:	0000                	unimp
    1e4e:	a301                	j	234e <__udivdi3-0x7fe05e>
    1e50:	2502                	fld	fa0,0(sp)
    1e52:	0000                	unimp
    1e54:	3900                	fld	fs0,48(a0)
    1e56:	01c5                	addi	gp,gp,17
    1e58:	0000                	unimp
    1e5a:	a301                	j	235a <__udivdi3-0x7fe052>
    1e5c:	5102                	lw	sp,32(sp)
    1e5e:	3800000f          	0x3800000f
    1e62:	117a                	slli	sp,sp,0x3e
    1e64:	0000                	unimp
    1e66:	0f39                	addi	t5,t5,14
    1e68:	0005                	c.nop	1
    1e6a:	0100                	addi	s0,sp,128
    1e6c:	008d02a3          	sb	s0,5(s10)
    1e70:	0000                	unimp
    1e72:	3038                	fld	fa4,96(s0)
    1e74:	0011                	c.nop	4
    1e76:	3a00                	fld	fs0,48(a2)
    1e78:	765f 0100 02a3      	0x2a30100765f
    1e7e:	00da                	slli	ra,ra,0x16
    1e80:	0000                	unimp
    1e82:	0f39                	addi	t5,t5,14
    1e84:	0005                	c.nop	1
    1e86:	0100                	addi	s0,sp,128
    1e88:	002c02a3          	sb	sp,5(s8) # d005 <__udivdi3-0x7f33a7>
    1e8c:	0000                	unimp
    1e8e:	3b00                	fld	fs0,48(a4)
    1e90:	5f3a                	lw	t5,172(sp)
    1e92:	0076                	c.slli	zero,0x1d
    1e94:	a301                	j	2394 <__udivdi3-0x7fe018>
    1e96:	da02                	sw	zero,52(sp)
    1e98:	0000                	unimp
    1e9a:	3a00                	fld	fs0,48(a2)
    1e9c:	645f 0100 02a3      	0x2a30100645f
    1ea2:	00000f57          	0xf57
    1ea6:	1039                	c.nop	-18
    1ea8:	0005                	c.nop	1
    1eaa:	0100                	addi	s0,sp,128
    1eac:	002c02a3          	sb	sp,5(s8)
    1eb0:	0000                	unimp
    1eb2:	0d39                	addi	s10,s10,14
    1eb4:	0000                	unimp
    1eb6:	0100                	addi	s0,sp,128
    1eb8:	002c02a3          	sb	sp,5(s8)
    1ebc:	0000                	unimp
    1ebe:	765f3a3b          	0x765f3a3b
    1ec2:	0100                	addi	s0,sp,128
    1ec4:	00da02a3          	sb	a3,5(s4)
    1ec8:	0000                	unimp
    1eca:	0f39                	addi	t5,t5,14
    1ecc:	0005                	c.nop	1
    1ece:	0100                	addi	s0,sp,128
    1ed0:	002c02a3          	sb	sp,5(s8)
    1ed4:	0000                	unimp
    1ed6:	0000                	unimp
    1ed8:	3800                	fld	fs0,48(s0)
    1eda:	11f2                	slli	gp,gp,0x3c
    1edc:	0000                	unimp
    1ede:	0f39                	addi	t5,t5,14
    1ee0:	0005                	c.nop	1
    1ee2:	0100                	addi	s0,sp,128
    1ee4:	008d02a3          	sb	s0,5(s10)
    1ee8:	0000                	unimp
    1eea:	a838                	fsd	fa4,80(s0)
    1eec:	0011                	c.nop	4
    1eee:	3a00                	fld	fs0,48(a2)
    1ef0:	765f 0100 02a3      	0x2a30100765f
    1ef6:	008d                	addi	ra,ra,3
    1ef8:	0000                	unimp
    1efa:	0f39                	addi	t5,t5,14
    1efc:	0005                	c.nop	1
    1efe:	0100                	addi	s0,sp,128
    1f00:	002c02a3          	sb	sp,5(s8)
    1f04:	0000                	unimp
    1f06:	3b00                	fld	fs0,48(a4)
    1f08:	5f3a                	lw	t5,172(sp)
    1f0a:	0076                	c.slli	zero,0x1d
    1f0c:	a301                	j	240c <__udivdi3-0x7fdfa0>
    1f0e:	8d02                	jr	s10
    1f10:	0000                	unimp
    1f12:	3a00                	fld	fs0,48(a2)
    1f14:	645f 0100 02a3      	0x2a30100645f
    1f1a:	00000f57          	0xf57
    1f1e:	1039                	c.nop	-18
    1f20:	0005                	c.nop	1
    1f22:	0100                	addi	s0,sp,128
    1f24:	002c02a3          	sb	sp,5(s8)
    1f28:	0000                	unimp
    1f2a:	0d39                	addi	s10,s10,14
    1f2c:	0000                	unimp
    1f2e:	0100                	addi	s0,sp,128
    1f30:	002c02a3          	sb	sp,5(s8)
    1f34:	0000                	unimp
    1f36:	765f3a3b          	0x765f3a3b
    1f3a:	0100                	addi	s0,sp,128
    1f3c:	008d02a3          	sb	s0,5(s10)
    1f40:	0000                	unimp
    1f42:	0f39                	addi	t5,t5,14
    1f44:	0005                	c.nop	1
    1f46:	0100                	addi	s0,sp,128
    1f48:	002c02a3          	sb	sp,5(s8)
    1f4c:	0000                	unimp
    1f4e:	0000                	unimp
    1f50:	3800                	fld	fs0,48(s0)
    1f52:	1202                	slli	tp,tp,0x20
    1f54:	0000                	unimp
    1f56:	693a                	flw	fs2,140(sp)
    1f58:	0100                	addi	s0,sp,128
    1f5a:	002502a3          	sb	sp,5(a0)
    1f5e:	0000                	unimp
    1f60:	3b00                	fld	fs0,48(a4)
    1f62:	683a                	flw	fa6,140(sp)
    1f64:	7264                	flw	fs1,100(a2)
    1f66:	0100                	addi	s0,sp,128
    1f68:	03a902a3          	sb	s10,37(s2) # ffff9025 <_end+0xfeff2529>
    1f6c:	0000                	unimp
    1f6e:	0000                	unimp
    1f70:	03be393b          	0x3be393b
    1f74:	0000                	unimp
    1f76:	a301                	j	2476 <__udivdi3-0x7fdf36>
    1f78:	cd02                	sw	zero,152(sp)
    1f7a:	0000                	unimp
    1f7c:	3900                	fld	fs0,48(a0)
    1f7e:	02f5                	addi	t0,t0,29
    1f80:	0000                	unimp
    1f82:	a301                	j	2482 <__udivdi3-0x7fdf2a>
    1f84:	d402                	sw	zero,40(sp)
    1f86:	0000                	unimp
    1f88:	3900                	fld	fs0,48(a0)
    1f8a:	02de                	slli	t0,t0,0x17
    1f8c:	0000                	unimp
    1f8e:	a301                	j	248e <__udivdi3-0x7fdf1e>
    1f90:	6702                	flw	fa4,0(sp)
    1f92:	0000                	unimp
    1f94:	3900                	fld	fs0,48(a0)
    1f96:	0000026b          	0x26b
    1f9a:	a301                	j	249a <__udivdi3-0x7fdf12>
    1f9c:	4102                	lw	sp,0(sp)
    1f9e:	3900000f          	0x3900000f
    1fa2:	007d                	c.nop	31
    1fa4:	0000                	unimp
    1fa6:	a301                	j	24a6 <__udivdi3-0x7fdf06>
    1fa8:	2c02                	fld	fs8,0(sp)
    1faa:	0000                	unimp
    1fac:	3900                	fld	fs0,48(a0)
    1fae:	000002fb          	0x2fb
    1fb2:	a301                	j	24b2 <__udivdi3-0x7fdefa>
    1fb4:	2502                	fld	fa0,0(sp)
    1fb6:	0000                	unimp
    1fb8:	3900                	fld	fs0,48(a0)
    1fba:	04fa                	slli	s1,s1,0x1e
    1fbc:	0000                	unimp
    1fbe:	a301                	j	24be <__udivdi3-0x7fdeee>
    1fc0:	2502                	fld	fa0,0(sp)
    1fc2:	0000                	unimp
    1fc4:	3900                	fld	fs0,48(a0)
    1fc6:	01a1                	addi	gp,gp,8
    1fc8:	0000                	unimp
    1fca:	a301                	j	24ca <__udivdi3-0x7fdee2>
    1fcc:	2502                	fld	fa0,0(sp)
    1fce:	0000                	unimp
    1fd0:	3900                	fld	fs0,48(a0)
    1fd2:	01c5                	addi	gp,gp,17
    1fd4:	0000                	unimp
    1fd6:	a301                	j	24d6 <__udivdi3-0x7fded6>
    1fd8:	5102                	lw	sp,32(sp)
    1fda:	3800000f          	0x3800000f
    1fde:	12f6                	slli	t0,t0,0x3d
    1fe0:	0000                	unimp
    1fe2:	0f39                	addi	t5,t5,14
    1fe4:	0005                	c.nop	1
    1fe6:	0100                	addi	s0,sp,128
    1fe8:	008d02a3          	sb	s0,5(s10)
    1fec:	0000                	unimp
    1fee:	ac38                	fsd	fa4,88(s0)
    1ff0:	0012                	c.slli	zero,0x4
    1ff2:	3a00                	fld	fs0,48(a2)
    1ff4:	765f 0100 02a3      	0x2a30100765f
    1ffa:	00da                	slli	ra,ra,0x16
    1ffc:	0000                	unimp
    1ffe:	0f39                	addi	t5,t5,14
    2000:	0005                	c.nop	1
    2002:	0100                	addi	s0,sp,128
    2004:	002c02a3          	sb	sp,5(s8)
    2008:	0000                	unimp
    200a:	3b00                	fld	fs0,48(a4)
    200c:	5f3a                	lw	t5,172(sp)
    200e:	0076                	c.slli	zero,0x1d
    2010:	a301                	j	2510 <__udivdi3-0x7fde9c>
    2012:	da02                	sw	zero,52(sp)
    2014:	0000                	unimp
    2016:	3a00                	fld	fs0,48(a2)
    2018:	645f 0100 02a3      	0x2a30100645f
    201e:	00000f57          	0xf57
    2022:	1039                	c.nop	-18
    2024:	0005                	c.nop	1
    2026:	0100                	addi	s0,sp,128
    2028:	002c02a3          	sb	sp,5(s8)
    202c:	0000                	unimp
    202e:	0d39                	addi	s10,s10,14
    2030:	0000                	unimp
    2032:	0100                	addi	s0,sp,128
    2034:	002c02a3          	sb	sp,5(s8)
    2038:	0000                	unimp
    203a:	765f3a3b          	0x765f3a3b
    203e:	0100                	addi	s0,sp,128
    2040:	00da02a3          	sb	a3,5(s4)
    2044:	0000                	unimp
    2046:	0f39                	addi	t5,t5,14
    2048:	0005                	c.nop	1
    204a:	0100                	addi	s0,sp,128
    204c:	002c02a3          	sb	sp,5(s8)
    2050:	0000                	unimp
    2052:	0000                	unimp
    2054:	3800                	fld	fs0,48(s0)
    2056:	136e                	slli	t1,t1,0x3b
    2058:	0000                	unimp
    205a:	0f39                	addi	t5,t5,14
    205c:	0005                	c.nop	1
    205e:	0100                	addi	s0,sp,128
    2060:	008d02a3          	sb	s0,5(s10)
    2064:	0000                	unimp
    2066:	2438                	fld	fa4,72(s0)
    2068:	3a000013          	li	zero,928
    206c:	765f 0100 02a3      	0x2a30100765f
    2072:	008d                	addi	ra,ra,3
    2074:	0000                	unimp
    2076:	0f39                	addi	t5,t5,14
    2078:	0005                	c.nop	1
    207a:	0100                	addi	s0,sp,128
    207c:	002c02a3          	sb	sp,5(s8)
    2080:	0000                	unimp
    2082:	3b00                	fld	fs0,48(a4)
    2084:	5f3a                	lw	t5,172(sp)
    2086:	0076                	c.slli	zero,0x1d
    2088:	a301                	j	2588 <__udivdi3-0x7fde24>
    208a:	8d02                	jr	s10
    208c:	0000                	unimp
    208e:	3a00                	fld	fs0,48(a2)
    2090:	645f 0100 02a3      	0x2a30100645f
    2096:	00000f57          	0xf57
    209a:	1039                	c.nop	-18
    209c:	0005                	c.nop	1
    209e:	0100                	addi	s0,sp,128
    20a0:	002c02a3          	sb	sp,5(s8)
    20a4:	0000                	unimp
    20a6:	0d39                	addi	s10,s10,14
    20a8:	0000                	unimp
    20aa:	0100                	addi	s0,sp,128
    20ac:	002c02a3          	sb	sp,5(s8)
    20b0:	0000                	unimp
    20b2:	765f3a3b          	0x765f3a3b
    20b6:	0100                	addi	s0,sp,128
    20b8:	008d02a3          	sb	s0,5(s10)
    20bc:	0000                	unimp
    20be:	0f39                	addi	t5,t5,14
    20c0:	0005                	c.nop	1
    20c2:	0100                	addi	s0,sp,128
    20c4:	002c02a3          	sb	sp,5(s8)
    20c8:	0000                	unimp
    20ca:	0000                	unimp
    20cc:	3800                	fld	fs0,48(s0)
    20ce:	137e                	slli	t1,t1,0x3f
    20d0:	0000                	unimp
    20d2:	693a                	flw	fs2,140(sp)
    20d4:	0100                	addi	s0,sp,128
    20d6:	002502a3          	sb	sp,5(a0)
    20da:	0000                	unimp
    20dc:	3b00                	fld	fs0,48(a4)
    20de:	683a                	flw	fa6,140(sp)
    20e0:	7264                	flw	fs1,100(a2)
    20e2:	0100                	addi	s0,sp,128
    20e4:	03a902a3          	sb	s10,37(s2)
    20e8:	0000                	unimp
    20ea:	0000                	unimp
    20ec:	0000                	unimp
    20ee:	02be393b          	0x2be393b
    20f2:	0000                	unimp
    20f4:	a301                	j	25f4 <__udivdi3-0x7fddb8>
    20f6:	7a02                	flw	fs4,32(sp)
    20f8:	0000                	unimp
    20fa:	3900                	fld	fs0,48(a0)
    20fc:	0390                	addi	a2,sp,448
    20fe:	0000                	unimp
    2100:	a301                	j	2600 <__udivdi3-0x7fddac>
    2102:	1b02                	slli	s6,s6,0x20
    2104:	0005                	c.nop	1
    2106:	0000                	unimp
    2108:	3c00                	fld	fs0,56(s0)
    210a:	253a                	fld	fa0,392(sp)
    210c:	0000                	unimp
    210e:	68e2                	flw	fa7,24(sp)
    2110:	0100                	addi	s0,sp,128
    2112:	0260                	addi	s0,sp,268
    2114:	0000                	unimp
    2116:	a401                	j	2316 <__udivdi3-0x7fe096>
    2118:	0013d913          	srli	s2,t2,0x1
    211c:	2200                	fld	fs0,0(a2)
    211e:	0000254b          	fnmsub.s	fa0,ft0,ft0,ft0,rdn
    2122:	000006b3          	add	a3,zero,zero
    2126:	f635                	bnez	a2,2092 <__udivdi3-0x7fe31a>
    2128:	0068                	addi	a0,sp,12
    212a:	1701                	addi	a4,a4,-32
    212c:	002c                	addi	a1,sp,8
    212e:	3600                	fld	fs0,40(a2)
    2130:	5a01                	li	s4,-32
    2132:	243c4003          	lbu	zero,579(s8)
    2136:	0000                	unimp
    2138:	9c34                	0x9c34
    213a:	0024                	addi	s1,sp,8
    213c:	fa00                	fsw	fs0,48(a2)
    213e:	0068                	addi	a0,sp,12
    2140:	1001                	c.nop	-32
    2142:	0000                	unimp
    2144:	0100                	addi	s0,sp,128
    2146:	0ca6                	slli	s9,s9,0x9
    2148:	1432                	slli	s0,s0,0x2c
    214a:	0000                	unimp
    214c:	d122                	sw	s0,160(sp)
    214e:	0024                	addi	s1,sp,8
    2150:	c900                	sw	s0,16(a0)
    2152:	0006                	c.slli	zero,0x1
    2154:	2200                	fld	fs0,0(a2)
    2156:	24c5                	jal	2436 <__udivdi3-0x7fdf76>
    2158:	0000                	unimp
    215a:	06dd                	addi	a3,a3,23
    215c:	0000                	unimp
    215e:	b922                	fsd	fs0,176(sp)
    2160:	0024                	addi	s1,sp,8
    2162:	0a00                	addi	s0,sp,272
    2164:	22000007          	0x22000007
    2168:	24ad                	jal	23d2 <__udivdi3-0x7fdfda>
    216a:	0000                	unimp
    216c:	071e                	slli	a4,a4,0x7
    216e:	0000                	unimp
    2170:	0835                	addi	a6,a6,13
    2172:	0069                	c.nop	26
    2174:	2301                	jal	2674 <__udivdi3-0x7fdd38>
    2176:	002c                	addi	a1,sp,8
    2178:	3600                	fld	fs0,40(a2)
    217a:	5a01                	li	s4,-32
    217c:	7902                	flw	fs2,32(sp)
    217e:	3600                	fld	fs0,40(a2)
    2180:	5b01                	li	s6,-32
    2182:	3001                	jal	1982 <__udivdi3-0x7fea2a>
    2184:	0136                	slli	sp,sp,0xd
    2186:	025c                	addi	a5,sp,260
    2188:	6c91                	lui	s9,0x4
    218a:	0136                	slli	sp,sp,0xd
    218c:	015d                	addi	sp,sp,23
    218e:	0034                	addi	a3,sp,8
    2190:	3400                	fld	fs0,40(s0)
    2192:	2520                	fld	fs0,72(a0)
    2194:	0000                	unimp
    2196:	690c                	flw	fa1,16(a0)
    2198:	0100                	addi	s0,sp,128
    219a:	000a                	c.slli	zero,0x2
    219c:	0000                	unimp
    219e:	a801                	j	21ae <__udivdi3-0x7fe1fe>
    21a0:	6002                	flw	ft0,0(sp)
    21a2:	0014                	0x14
    21a4:	2200                	fld	fs0,0(a2)
    21a6:	252d                	jal	27d0 <__udivdi3-0x7fdbdc>
    21a8:	0000                	unimp
    21aa:	073c                	addi	a5,sp,904
    21ac:	0000                	unimp
    21ae:	1635                	addi	a2,a2,-19
    21b0:	0069                	c.nop	26
    21b2:	2f01                	jal	28c2 <__udivdi3-0x7fdaea>
    21b4:	002c                	addi	a1,sp,8
    21b6:	3600                	fld	fs0,40(a2)
    21b8:	5a01                	li	s4,-32
    21ba:	7902                	flw	fs2,32(sp)
    21bc:	0000                	unimp
    21be:	2300                	fld	fs0,0(a4)
    21c0:	247e                	fld	fs0,472(sp)
    21c2:	0000                	unimp
    21c4:	6922                	flw	fs2,8(sp)
    21c6:	0100                	addi	s0,sp,128
    21c8:	000e                	c.slli	zero,0x3
    21ca:	0000                	unimp
    21cc:	a701                	j	28cc <__udivdi3-0x7fdae0>
    21ce:	2218                	fld	fa4,0(a2)
    21d0:	0000248f          	0x248f
    21d4:	0000074f          	fnmadd.s	fa4,ft0,ft0,ft0,rne
    21d8:	2c35                	jal	2414 <__udivdi3-0x7fdf98>
    21da:	0069                	c.nop	26
    21dc:	3b01                	jal	1eec <__udivdi3-0x7fe4c0>
    21de:	002c                	addi	a1,sp,8
    21e0:	3600                	fld	fs0,40(a2)
    21e2:	5a01                	li	s4,-32
    21e4:	7902                	flw	fs2,32(sp)
    21e6:	0000                	unimp
    21e8:	0000                	unimp
    21ea:	0009372f          	0x9372f
    21ee:	0100                	addi	s0,sp,128
    21f0:	0595                	addi	a1,a1,5
    21f2:	0025                	c.nop	9
    21f4:	0000                	unimp
    21f6:	68a0                	flw	fs0,80(s1)
    21f8:	0100                	addi	s0,sp,128
    21fa:	0042                	c.slli	zero,0x10
    21fc:	0000                	unimp
    21fe:	9c01                	0x9c01
    2200:	1560                	addi	s0,sp,684
    2202:	0000                	unimp
    2204:	6230                	flw	fa2,64(a2)
    2206:	6675                	lui	a2,0x1d
    2208:	0100                	addi	s0,sp,128
    220a:	2395                	jal	276e <__udivdi3-0x7fdc3e>
    220c:	000000cb          	fnmsub.s	ft1,ft0,ft0,ft0,rne
    2210:	0762                	slli	a4,a4,0x18
    2212:	0000                	unimp
    2214:	6c30                	flw	fa2,88(s0)
    2216:	6e65                	lui	t3,0x19
    2218:	0100                	addi	s0,sp,128
    221a:	2f95                	jal	298e <__udivdi3-0x7fda1e>
    221c:	002c                	addi	a1,sp,8
    221e:	0000                	unimp
    2220:	07a4                	addi	s1,sp,968
    2222:	0000                	unimp
    2224:	01007633          	and	a2,zero,a6
    2228:	02ca0d97          	auipc	s11,0x2ca0
    222c:	0000                	unimp
    222e:	000007db          	0x7db
    2232:	6025                	c.lui	zero,0x9
    2234:	0015                	c.nop	5
    2236:	a400                	fsd	fs0,8(s0)
    2238:	0068                	addi	a0,sp,12
    223a:	2001                	jal	223a <__udivdi3-0x7fe172>
    223c:	0002                	c.slli64	zero
    223e:	0100                	addi	s0,sp,128
    2240:	099a                	slli	s3,s3,0x6
    2242:	7b22                	flw	fs6,40(sp)
    2244:	0015                	c.nop	5
    2246:	3800                	fld	fs0,48(s0)
    2248:	0008                	0x8
    224a:	2200                	fld	fs0,0(a2)
    224c:	1571                	addi	a0,a0,-4
    224e:	0000                	unimp
    2250:	0858                	addi	a4,sp,20
    2252:	0000                	unimp
    2254:	2028                	fld	fa0,64(s0)
    2256:	0002                	c.slli64	zero
    2258:	2900                	fld	fs0,16(a0)
    225a:	1586                	slli	a1,a1,0x21
    225c:	0000                	unimp
    225e:	0880                	addi	s0,sp,80
    2260:	0000                	unimp
    2262:	9229                	srli	a2,a2,0x2a
    2264:	0015                	c.nop	5
    2266:	b400                	fsd	fs0,40(s0)
    2268:	0008                	0x8
    226a:	3f00                	fld	fs0,56(a4)
    226c:	159e                	slli	a1,a1,0x27
    226e:	0000                	unimp
    2270:	0248                	addi	a0,sp,260
    2272:	0000                	unimp
    2274:	1541                	addi	a0,a0,-16
    2276:	0000                	unimp
    2278:	9f29                	0x9f29
    227a:	0015                	c.nop	5
    227c:	d300                	sw	s0,32(a4)
    227e:	0008                	0x8
    2280:	3500                	fld	fs0,40(a0)
    2282:	68c6                	flw	fa7,80(sp)
    2284:	0100                	addi	s0,sp,128
    2286:	00002c47          	fmsub.s	fs8,ft0,ft0,ft0,rdn
    228a:	0136                	slli	sp,sp,0xd
    228c:	025a                	slli	tp,tp,0x16
    228e:	0078                	addi	a4,sp,12
    2290:	0136                	slli	sp,sp,0xd
    2292:	6c91035b          	0x6c91035b
    2296:	3606                	fld	fa2,96(sp)
    2298:	5c01                	li	s8,-32
    229a:	06689103          	lh	sp,102(a7) # 4066 <__udivdi3-0x7fc346>
    229e:	0000                	unimp
    22a0:	b63d                	j	1dce <__udivdi3-0x7fe5de>
    22a2:	0068                	addi	a0,sp,12
    22a4:	5301                	li	t1,-32
    22a6:	002c                	addi	a1,sp,8
    22a8:	5400                	lw	s0,40(s0)
    22aa:	0015                	c.nop	5
    22ac:	3600                	fld	fs0,40(a2)
    22ae:	5a01                	li	s4,-32
    22b0:	3101                	jal	1eb0 <__udivdi3-0x7fe4fc>
    22b2:	2c00                	fld	fs0,24(s0)
    22b4:	68d4                	flw	fa3,20(s1)
    22b6:	0100                	addi	s0,sp,128
    22b8:	2c5f 0000 0000      	0x2c5f
    22be:	4000                	lw	s0,0(s0)
    22c0:	0ae9                	addi	s5,s5,26
    22c2:	0000                	unimp
    22c4:	8601                	c.srai64	a2
    22c6:	2505                	jal	28e6 <__udivdi3-0x7fdac6>
    22c8:	0000                	unimp
    22ca:	0100                	addi	s0,sp,128
    22cc:	000015bb          	0x15bb
    22d0:	7641                	lui	a2,0xffff0
    22d2:	0100                	addi	s0,sp,128
    22d4:	2986                	fld	fs3,64(sp)
    22d6:	000015bb          	0x15bb
    22da:	6e41                	lui	t3,0x10
    22dc:	0076                	c.slli	zero,0x1d
    22de:	8601                	c.srai64	a2
    22e0:	00002c33          	sltz	s8,zero
    22e4:	3a00                	fld	fs0,48(a2)
    22e6:	6d65                	lui	s10,0x19
    22e8:	88010063          	beqz	sp,1368 <__udivdi3-0x7ff044>
    22ec:	010d                	addi	sp,sp,3
    22ee:	0002                	c.slli64	zero
    22f0:	3a00                	fld	fs0,48(a2)
    22f2:	6572                	flw	fa0,28(sp)
    22f4:	8b010073          	0x8b010073
    22f8:	2506                	fld	fa0,64(sp)
    22fa:	0000                	unimp
    22fc:	3b00                	fld	fs0,48(a4)
    22fe:	693a                	flw	fs2,140(sp)
    2300:	0100                	addi	s0,sp,128
    2302:	0e8c                	addi	a1,sp,848
    2304:	002c                	addi	a1,sp,8
    2306:	0000                	unimp
    2308:	7835                	lui	a6,0xfffed
    230a:	0068                	addi	a0,sp,12
    230c:	4701                	li	a4,0
    230e:	002c                	addi	a1,sp,8
    2310:	3600                	fld	fs0,40(a2)
    2312:	5a01                	li	s4,-32
    2314:	8302                	jr	t1
    2316:	0000                	unimp
    2318:	0000                	unimp
    231a:	02ee0407          	0x2ee0407
    231e:	0000                	unimp
    2320:	000c312f          	0xc312f
    2324:	0100                	addi	s0,sp,128
    2326:	057f                	0x57f
    2328:	0025                	c.nop	9
    232a:	0000                	unimp
    232c:	67c8                	flw	fa0,12(a5)
    232e:	0100                	addi	s0,sp,128
    2330:	0072                	c.slli	zero,0x1c
    2332:	0000                	unimp
    2334:	9c01                	0x9c01
    2336:	00001763          	bnez	zero,2344 <__udivdi3-0x7fe068>
    233a:	6230                	flw	fa2,64(a2)
    233c:	6675                	lui	a2,0x1d
    233e:	0100                	addi	s0,sp,128
    2340:	227f                	0x227f
    2342:	000000cb          	fnmsub.s	ft1,ft0,ft0,ft0,rne
    2346:	000008e7          	jalr	a7,zero # 0 <__udivdi3-0x8003ac>
    234a:	6c30                	flw	fa2,88(s0)
    234c:	6e65                	lui	t3,0x19
    234e:	0100                	addi	s0,sp,128
    2350:	2e7f                	0x2e7f
    2352:	002c                	addi	a1,sp,8
    2354:	0000                	unimp
    2356:	091e                	slli	s2,s2,0x7
    2358:	0000                	unimp
    235a:	01007633          	and	a2,zero,a6
    235e:	0d81                	addi	s11,s11,0
    2360:	02ca                	slli	t0,t0,0x12
    2362:	0000                	unimp
    2364:	0955                	addi	s2,s2,21
    2366:	0000                	unimp
    2368:	6325                	lui	t1,0x9
    236a:	dc000017          	auipc	zero,0xdc000
    236e:	b0010067          	jr	-1280(sp)
    2372:	0001                	nop
    2374:	0100                	addi	s0,sp,128
    2376:	0982                	c.slli64	s3
    2378:	7e22                	flw	ft8,40(sp)
    237a:	c2000017          	auipc	zero,0xc2000
    237e:	0009                	c.nop	2
    2380:	2200                	fld	fs0,0(a2)
    2382:	1774                	addi	a3,sp,940
    2384:	0000                	unimp
    2386:	09e2                	slli	s3,s3,0x18
    2388:	0000                	unimp
    238a:	b028                	fsd	fa0,96(s0)
    238c:	0001                	nop
    238e:	2900                	fld	fs0,16(a0)
    2390:	1789                	addi	a5,a5,-30
    2392:	0000                	unimp
    2394:	0a0a                	slli	s4,s4,0x2
    2396:	0000                	unimp
    2398:	9529                	srai	a0,a0,0x2a
    239a:	33000017          	auipc	zero,0x33000
    239e:	000a                	c.slli	zero,0x2
    23a0:	3400                	fld	fs0,40(s0)
    23a2:	25b4                	fld	fa3,72(a1)
    23a4:	0000                	unimp
    23a6:	67dc                	flw	fa5,12(a5)
    23a8:	0100                	addi	s0,sp,128
    23aa:	000c                	0xc
    23ac:	0000                	unimp
    23ae:	6e01                	0x6e01
    23b0:	00167d13          	andi	s10,a2,1
    23b4:	2200                	fld	fs0,0(a2)
    23b6:	25d1                	jal	2a7a <__udivdi3-0x7fd932>
    23b8:	0000                	unimp
    23ba:	0a52                	slli	s4,s4,0x14
    23bc:	0000                	unimp
    23be:	c522                	sw	s0,136(sp)
    23c0:	0025                	c.nop	9
    23c2:	6600                	flw	fs0,8(a2)
    23c4:	000a                	c.slli	zero,0x2
    23c6:	3500                	fld	fs0,40(a0)
    23c8:	67e8                	flw	fa0,76(a5)
    23ca:	0100                	addi	s0,sp,128
    23cc:	00002bcf          	fnmadd.s	fs7,ft0,ft0,ft0,rdn
    23d0:	0136                	slli	sp,sp,0xd
    23d2:	015a                	slli	sp,sp,0x16
    23d4:	3631                	jal	1ee0 <__udivdi3-0x7fe4cc>
    23d6:	5b01                	li	s6,-32
    23d8:	3001                	jal	1bd8 <__udivdi3-0x7fe7d4>
    23da:	0000                	unimp
    23dc:	a142                	fsd	fa6,128(sp)
    23de:	ec000017          	auipc	zero,0xec000
    23e2:	2a010067          	jr	672(sp)
    23e6:	0000                	unimp
    23e8:	3600                	fld	fs0,40(a2)
    23ea:	29000017          	auipc	zero,0x29000
    23ee:	17a2                	slli	a5,a5,0x28
    23f0:	0000                	unimp
    23f2:	0a7a                	slli	s4,s4,0x1e
    23f4:	0000                	unimp
    23f6:	0017ae23          	sw	ra,28(a5)
    23fa:	ec00                	fsw	fs0,24(s0)
    23fc:	2a010067          	jr	672(sp)
    2400:	0000                	unimp
    2402:	0100                	addi	s0,sp,128
    2404:	d7220a77          	0xd7220a77
    2408:	8e000017          	auipc	zero,0x8e000
    240c:	000a                	c.slli	zero,0x2
    240e:	2200                	fld	fs0,0(a2)
    2410:	000017cb          	fnmsub.s	fa5,ft0,ft0,ft0,rtz
    2414:	0aac                	addi	a1,sp,344
    2416:	0000                	unimp
    2418:	bf22                	fsd	fs0,440(sp)
    241a:	bf000017          	auipc	zero,0xbf000
    241e:	000a                	c.slli	zero,0x2
    2420:	4300                	lw	s0,0(a4)
    2422:	000017e3          	bnez	zero,2c30 <__udivdi3-0x7fd77c>
    2426:	01d8                	addi	a4,sp,196
    2428:	0000                	unimp
    242a:	e429                	bnez	s0,2474 <__udivdi3-0x7fdf38>
    242c:	dd000017          	auipc	zero,0xdd000
    2430:	000a                	c.slli	zero,0x2
    2432:	2900                	fld	fs0,16(a0)
    2434:	17f0                	addi	a2,sp,1004
    2436:	0000                	unimp
    2438:	0af0                	addi	a2,sp,348
    243a:	0000                	unimp
    243c:	5825                	li	a6,-23
    243e:	0025                	c.nop	9
    2440:	fc00                	fsw	fs0,56(s0)
    2442:	f0010067          	jr	-256(sp)
    2446:	0001                	nop
    2448:	0100                	addi	s0,sp,128
    244a:	0d64                	addi	s1,sp,668
    244c:	8d22                	mv	s10,s0
    244e:	0025                	c.nop	9
    2450:	0300                	addi	s0,sp,384
    2452:	2200000b          	0x2200000b
    2456:	2581                	jal	2a96 <__udivdi3-0x7fd916>
    2458:	0000                	unimp
    245a:	0b16                	slli	s6,s6,0x5
    245c:	0000                	unimp
    245e:	7522                	flw	fa0,40(sp)
    2460:	0025                	c.nop	9
    2462:	2900                	fld	fs0,16(a0)
    2464:	2200000b          	0x2200000b
    2468:	2569                	jal	2af2 <__udivdi3-0x7fd8ba>
    246a:	0000                	unimp
    246c:	0b3d                	addi	s6,s6,15
    246e:	0000                	unimp
    2470:	0c35                	addi	s8,s8,13
    2472:	0068                	addi	a0,sp,12
    2474:	6b01                	0x6b01
    2476:	002c                	addi	a1,sp,8
    2478:	3600                	fld	fs0,40(a2)
    247a:	5a01                	li	s4,-32
    247c:	8402                	jr	s0
    247e:	3600                	fld	fs0,40(a2)
    2480:	5b01                	li	s6,-32
    2482:	3101                	jal	2082 <__udivdi3-0x7fe32a>
    2484:	0136                	slli	sp,sp,0xd
    2486:	025c                	addi	a5,sp,260
    2488:	01360083          	lb	ra,19(a2) # 1d013 <__udivdi3-0x7e3399>
    248c:	025d                	addi	tp,tp,23
    248e:	0079                	c.nop	30
    2490:	0000                	unimp
    2492:	0000                	unimp
    2494:	2300                	fld	fs0,0(a4)
    2496:	259a                	fld	fa1,384(sp)
    2498:	0000                	unimp
    249a:	6818                	flw	fa4,16(s0)
    249c:	0100                	addi	s0,sp,128
    249e:	000a                	c.slli	zero,0x2
    24a0:	0000                	unimp
    24a2:	7b01                	lui	s6,0xfffe0
    24a4:	2202                	fld	ft4,0(sp)
    24a6:	000025a7          	fsw	ft0,11(zero) # b <__udivdi3-0x8003a1>
    24aa:	0b50                	addi	a2,sp,404
    24ac:	0000                	unimp
    24ae:	2235                	jal	25da <__udivdi3-0x7fddd2>
    24b0:	0068                	addi	a0,sp,12
    24b2:	f301                	bnez	a4,23b2 <__udivdi3-0x7fdffa>
    24b4:	3600002b          	0x3600002b
    24b8:	5a01                	li	s4,-32
    24ba:	8402                	jr	s0
    24bc:	0000                	unimp
    24be:	0000                	unimp
    24c0:	0000                	unimp
    24c2:	e340                	fsw	fs0,4(a4)
    24c4:	0008                	0x8
    24c6:	0100                	addi	s0,sp,128
    24c8:	056c                	addi	a1,sp,652
    24ca:	0025                	c.nop	9
    24cc:	0000                	unimp
    24ce:	ae01                	j	27de <__udivdi3-0x7fdbce>
    24d0:	41000017          	auipc	zero,0x41000
    24d4:	0076                	c.slli	zero,0x1d
    24d6:	6c01                	0x6c01
    24d8:	bb28                	fsd	fa0,112(a4)
    24da:	0015                	c.nop	5
    24dc:	4100                	lw	s0,0(a0)
    24de:	766e                	flw	fa2,248(sp)
    24e0:	0100                	addi	s0,sp,128
    24e2:	326c                	fld	fa1,224(a2)
    24e4:	002c                	addi	a1,sp,8
    24e6:	0000                	unimp
    24e8:	743a                	flw	fs0,172(sp)
    24ea:	636d                	lui	t1,0x1b
    24ec:	0100                	addi	s0,sp,128
    24ee:	0d6e                	slli	s10,s10,0x1b
    24f0:	0218                	addi	a4,sp,256
    24f2:	0000                	unimp
    24f4:	723a                	flw	ft4,172(sp)
    24f6:	7365                	lui	t1,0xffff9
    24f8:	0100                	addi	s0,sp,128
    24fa:	0670                	addi	a2,sp,780
    24fc:	0025                	c.nop	9
    24fe:	0000                	unimp
    2500:	00693a3b          	0x693a3b
    2504:	7601                	lui	a2,0xfffe0
    2506:	00002c0f          	0x2c0f
    250a:	0000                	unimp
    250c:	4400                	lw	s0,8(s0)
    250e:	0d0c                	addi	a1,sp,656
    2510:	0000                	unimp
    2512:	6001                	0x6001
    2514:	250c                	fld	fa1,8(a0)
    2516:	0000                	unimp
    2518:	0100                	addi	s0,sp,128
    251a:	17fe                	slli	a5,a5,0x3f
    251c:	0000                	unimp
    251e:	7441                	lui	s0,0xffff0
    2520:	636d                	lui	t1,0x1b
    2522:	0100                	addi	s0,sp,128
    2524:	2760                	fld	fs0,200(a4)
    2526:	0218                	addi	a4,sp,256
    2528:	0000                	unimp
    252a:	6241                	lui	tp,0x10
    252c:	6675                	lui	a2,0x1d
    252e:	0100                	addi	s0,sp,128
    2530:	3560                	fld	fs0,232(a0)
    2532:	00d4                	addi	a3,sp,68
    2534:	0000                	unimp
    2536:	1445                	addi	s0,s0,-15
    2538:	0005                	c.nop	1
    253a:	0100                	addi	s0,sp,128
    253c:	4160                	lw	s0,68(a0)
    253e:	002c                	addi	a1,sp,8
    2540:	0000                	unimp
    2542:	656c3a3b          	0x656c3a3b
    2546:	006e                	c.slli	zero,0x1b
    2548:	6301                	0x6301
    254a:	2c0a                	fld	fs8,128(sp)
    254c:	0000                	unimp
    254e:	3a00                	fld	fs0,48(a2)
    2550:	6572                	flw	fa0,28(sp)
    2552:	64010073          	0x64010073
    2556:	00002507          	flw	fa0,0(zero) # 0 <__udivdi3-0x8003ac>
    255a:	0000                	unimp
    255c:	2f00                	fld	fs0,24(a4)
    255e:	06da                	slli	a3,a3,0x16
    2560:	0000                	unimp
    2562:	4e01                	li	t3,0
    2564:	2505                	jal	2b84 <__udivdi3-0x7fd828>
    2566:	0000                	unimp
    2568:	ce00                	sw	s0,24(a2)
    256a:	0066                	c.slli	zero,0x19
    256c:	6201                	0x6201
    256e:	0000                	unimp
    2570:	0100                	addi	s0,sp,128
    2572:	2f9c                	fld	fa5,24(a5)
    2574:	0019                	c.nop	6
    2576:	3e00                	fld	fs0,56(a2)
    2578:	0b3c                	addi	a5,sp,408
    257a:	0000                	unimp
    257c:	4e01                	li	t3,0
    257e:	8d1e                	mv	s10,t2
    2580:	0000                	unimp
    2582:	6300                	flw	fs0,0(a4)
    2584:	3300000b          	0x3300000b
    2588:	6d66                	flw	fs10,88(sp)
    258a:	50010063          	beqz	sp,2a8a <__udivdi3-0x7fd922>
    258e:	480d                	li	a6,3
    2590:	0001                	nop
    2592:	9a00                	0x9a00
    2594:	3300000b          	0x3300000b
    2598:	6572                	flw	fa0,28(sp)
    259a:	54010073          	0x54010073
    259e:	2506                	fld	fa0,64(sp)
    25a0:	0000                	unimp
    25a2:	c300                	sw	s0,0(a4)
    25a4:	3c00000b          	0x3c00000b
    25a8:	266c                	fld	fa1,200(a2)
    25aa:	0000                	unimp
    25ac:	66ce                	flw	fa3,208(sp)
    25ae:	0100                	addi	s0,sp,128
    25b0:	0100                	addi	s0,sp,128
    25b2:	0000                	unimp
    25b4:	5001                	c.li	zero,-32
    25b6:	00186613          	ori	a2,a6,1
    25ba:	2c00                	fld	fs0,24(s0)
    25bc:	66e2                	flw	fa3,24(sp)
    25be:	0100                	addi	s0,sp,128
    25c0:	00002c77          	0x2c77
    25c4:	3400                	fld	fs0,40(s0)
    25c6:	2634                	fld	fa3,72(a2)
    25c8:	0000                	unimp
    25ca:	66e6                	flw	fa3,88(sp)
    25cc:	0100                	addi	s0,sp,128
    25ce:	000a                	c.slli	zero,0x2
    25d0:	0000                	unimp
    25d2:	5401                	li	s0,-32
    25d4:	940c                	0x940c
    25d6:	0018                	0x18
    25d8:	2200                	fld	fs0,0(a2)
    25da:	2645                	jal	297a <__udivdi3-0x7fda32>
    25dc:	0000                	unimp
    25de:	0be1                	addi	s7,s7,24
    25e0:	0000                	unimp
    25e2:	ee35                	bnez	a2,265e <__udivdi3-0x7fdd4e>
    25e4:	0066                	c.slli	zero,0x19
    25e6:	8301                	c.srli64	a4
    25e8:	002c                	addi	a1,sp,8
    25ea:	3600                	fld	fs0,40(a2)
    25ec:	5a01                	li	s4,-32
    25ee:	7902                	flw	fs2,32(sp)
    25f0:	0000                	unimp
    25f2:	3400                	fld	fs0,40(s0)
    25f4:	2652                	fld	fa2,272(sp)
    25f6:	0000                	unimp
    25f8:	66f0                	flw	fa2,76(a3)
    25fa:	0100                	addi	s0,sp,128
    25fc:	000a                	c.slli	zero,0x2
    25fe:	0000                	unimp
    2600:	5501                	li	a0,-32
    2602:	c202                	sw	zero,4(sp)
    2604:	0018                	0x18
    2606:	2200                	fld	fs0,0(a2)
    2608:	265f 0000 0bff      	0xbff0000265f
    260e:	0000                	unimp
    2610:	fa35                	bnez	a2,2584 <__udivdi3-0x7fde28>
    2612:	0066                	c.slli	zero,0x19
    2614:	8f01                	sub	a4,a4,s0
    2616:	002c                	addi	a1,sp,8
    2618:	3600                	fld	fs0,40(a2)
    261a:	5a01                	li	s4,-32
    261c:	7902                	flw	fs2,32(sp)
    261e:	0000                	unimp
    2620:	3c00                	fld	fs0,56(s0)
    2622:	2750                	fld	fa2,136(a4)
    2624:	0000                	unimp
    2626:	6700                	flw	fs0,8(a4)
    2628:	0100                	addi	s0,sp,128
    262a:	0118                	addi	a4,sp,128
    262c:	0000                	unimp
    262e:	5901                	li	s2,-32
    2630:	030a                	slli	t1,t1,0x2
    2632:	0019                	c.nop	6
    2634:	2200                	fld	fs0,0(a2)
    2636:	276d                	jal	2de0 <__udivdi3-0x7fd5cc>
    2638:	0000                	unimp
    263a:	0c12                	slli	s8,s8,0x4
    263c:	0000                	unimp
    263e:	6122                	flw	ft2,8(sp)
    2640:	36000027          	0x36000027
    2644:	000c                	0xc
    2646:	2500                	fld	fs0,8(a0)
    2648:	281a                	fld	fa6,384(sp)
    264a:	0000                	unimp
    264c:	6700                	flw	fs0,8(a4)
    264e:	0100                	addi	s0,sp,128
    2650:	0118                	addi	a4,sp,128
    2652:	0000                	unimp
    2654:	b202                	fsd	ft0,288(sp)
    2656:	2209                	jal	2758 <__udivdi3-0x7fdc54>
    2658:	0000282b          	0x282b
    265c:	0c5a                	slli	s8,s8,0x16
    265e:	0000                	unimp
    2660:	0000                	unimp
    2662:	00279823          	sh	sp,16(a5)
    2666:	0a00                	addi	s0,sp,272
    2668:	0a010067          	jr	160(sp)
    266c:	0000                	unimp
    266e:	0100                	addi	s0,sp,128
    2670:	045a                	slli	s0,s0,0x16
    2672:	a522                	fsd	fs0,136(sp)
    2674:	7e000027          	0x7e000027
    2678:	000c                	0xc
    267a:	3500                	fld	fs0,40(a0)
    267c:	6714                	flw	fa3,8(a4)
    267e:	0100                	addi	s0,sp,128
    2680:	00002c9b          	0x2c9b
    2684:	0136                	slli	sp,sp,0xd
    2686:	035a                	slli	t1,t1,0x16
    2688:	000a                	c.slli	zero,0x2
    268a:	0010                	0x10
    268c:	0000                	unimp
    268e:	00095e2f          	0x95e2f
    2692:	0100                	addi	s0,sp,128
    2694:	0540                	addi	s0,sp,644
    2696:	0025                	c.nop	9
    2698:	0000                	unimp
    269a:	666a                	flw	fa2,152(sp)
    269c:	0100                	addi	s0,sp,128
    269e:	0064                	addi	s1,sp,12
    26a0:	0000                	unimp
    26a2:	9c01                	0x9c01
    26a4:	1a72                	slli	s4,s4,0x3c
    26a6:	0000                	unimp
    26a8:	00636333          	or	t1,t1,t1
    26ac:	4201                	li	tp,0
    26ae:	110c                	addi	a1,sp,160
    26b0:	0001                	nop
    26b2:	9400                	0x9400
    26b4:	000c                	0xc
    26b6:	3300                	fld	fs0,32(a4)
    26b8:	6572                	flw	fa0,28(sp)
    26ba:	48010073          	0x48010073
    26be:	2506                	fld	fa0,64(sp)
    26c0:	0000                	unimp
    26c2:	bd00                	fsd	fs0,56(a0)
    26c4:	000c                	0xc
    26c6:	3c00                	fld	fs0,56(s0)
    26c8:	2711                	jal	2dcc <__udivdi3-0x7fd5e0>
    26ca:	0000                	unimp
    26cc:	666a                	flw	fa2,152(sp)
    26ce:	0100                	addi	s0,sp,128
    26d0:	00e8                	addi	a0,sp,76
    26d2:	0000                	unimp
    26d4:	4201                	li	tp,0
    26d6:	8611                	srai	a2,a2,0x4
    26d8:	0019                	c.nop	6
    26da:	2c00                	fld	fs0,24(s0)
    26dc:	667a                	flw	fa2,156(sp)
    26de:	0100                	addi	s0,sp,128
    26e0:	00002ca7          	fsw	ft0,25(zero) # 19 <__udivdi3-0x800393>
    26e4:	3400                	fld	fs0,40(s0)
    26e6:	26c1                	jal	2aa6 <__udivdi3-0x7fd906>
    26e8:	0000                	unimp
    26ea:	667e                	flw	fa2,220(sp)
    26ec:	0100                	addi	s0,sp,128
    26ee:	0018                	0x18
    26f0:	0000                	unimp
    26f2:	4601                	li	a2,0
    26f4:	d808                	sw	a0,48(s0)
    26f6:	0019                	c.nop	6
    26f8:	2200                	fld	fs0,0(a2)
    26fa:	26ea                	fld	fa3,152(sp)
    26fc:	0000                	unimp
    26fe:	0cd0                	addi	a2,sp,596
    2700:	0000                	unimp
    2702:	de22                	sw	s0,60(sp)
    2704:	0026                	c.slli	zero,0x9
    2706:	e800                	fsw	fs0,16(s0)
    2708:	000c                	0xc
    270a:	2200                	fld	fs0,0(a2)
    270c:	26d2                	fld	fa3,272(sp)
    270e:	0000                	unimp
    2710:	0d00                	addi	s0,sp,656
    2712:	0000                	unimp
    2714:	9635                	srai	a2,a2,0x2d
    2716:	0066                	c.slli	zero,0x19
    2718:	b301                	j	2418 <__udivdi3-0x7fdf94>
    271a:	002c                	addi	a1,sp,8
    271c:	3600                	fld	fs0,40(a2)
    271e:	5a01                	li	s4,-32
    2720:	7802                	flw	fa6,32(sp)
    2722:	3600                	fld	fs0,40(a2)
    2724:	5b01                	li	s6,-32
    2726:	0c05                	addi	s8,s8,1
    2728:	4466ca57          	0x4466ca57
    272c:	0136                	slli	sp,sp,0xd
    272e:	055c                	addi	a5,sp,644
    2730:	220c                	fld	fa1,0(a2)
    2732:	0020d8c7          	fmsub.s	fa7,ft1,ft2,ft0,unknown
    2736:	3400                	fld	fs0,40(s0)
    2738:	00002697          	auipc	a3,0x2
    273c:	6696                	flw	fa3,68(sp)
    273e:	0100                	addi	s0,sp,128
    2740:	0012                	c.slli	zero,0x4
    2742:	0000                	unimp
    2744:	4701                	li	a4,0
    2746:	1908                	addi	a0,sp,176
    2748:	001a                	c.slli	zero,0x6
    274a:	2200                	fld	fs0,0(a2)
    274c:	26b4                	fld	fa3,72(a3)
    274e:	0000                	unimp
    2750:	0d1e                	slli	s10,s10,0x7
    2752:	0000                	unimp
    2754:	a822                	fsd	fs0,16(sp)
    2756:	0026                	c.slli	zero,0x9
    2758:	3600                	fld	fs0,40(a2)
    275a:	000d                	c.nop	3
    275c:	3500                	fld	fs0,40(a0)
    275e:	66a8                	flw	fa0,72(a3)
    2760:	0100                	addi	s0,sp,128
    2762:	00002cbf 025a0136 	0x25a013600002cbf
    276a:	0078                	addi	a4,sp,12
    276c:	0136                	slli	sp,sp,0xd
    276e:	9211065b          	0x9211065b
    2772:	b7de                	fsd	fs7,488(sp)
    2774:	7ade                	flw	fs5,244(sp)
    2776:	0000                	unimp
    2778:	7934                	flw	fa3,112(a0)
    277a:	0026                	c.slli	zero,0x9
    277c:	a800                	fsd	fs0,16(s0)
    277e:	0066                	c.slli	zero,0x19
    2780:	0c01                	addi	s8,s8,0
    2782:	0000                	unimp
    2784:	0100                	addi	s0,sp,128
    2786:	0c48                	addi	a0,sp,532
    2788:	00001a47          	fmsub.s	fs4,ft0,ft0,ft0,rtz
    278c:	8a22                	mv	s4,s0
    278e:	0026                	c.slli	zero,0x9
    2790:	4900                	lw	s0,16(a0)
    2792:	000d                	c.nop	3
    2794:	3500                	fld	fs0,40(a0)
    2796:	66b2                	flw	fa3,12(sp)
    2798:	0100                	addi	s0,sp,128
    279a:	00002ccb          	fnmsub.s	fs9,ft0,ft0,ft0,rdn
    279e:	0136                	slli	sp,sp,0xd
    27a0:	025a                	slli	tp,tp,0x16
    27a2:	0078                	addi	a4,sp,12
    27a4:	0000                	unimp
    27a6:	0026f723          	0x26f723
    27aa:	b400                	fsd	fs0,40(s0)
    27ac:	0066                	c.slli	zero,0x19
    27ae:	0a01                	addi	s4,s4,0
    27b0:	0000                	unimp
    27b2:	0100                	addi	s0,sp,128
    27b4:	0249                	addi	tp,tp,18
    27b6:	0422                	slli	s0,s0,0x8
    27b8:	5c000027          	0x5c000027
    27bc:	000d                	c.nop	3
    27be:	3500                	fld	fs0,40(a0)
    27c0:	66be                	flw	fa3,204(sp)
    27c2:	0100                	addi	s0,sp,128
    27c4:	00002cd7          	0x2cd7
    27c8:	0136                	slli	sp,sp,0xd
    27ca:	025a                	slli	tp,tp,0x16
    27cc:	0078                	addi	a4,sp,12
    27ce:	0000                	unimp
    27d0:	4600                	lw	s0,8(a2)
    27d2:	05aa                	slli	a1,a1,0xa
    27d4:	0000                	unimp
    27d6:	1701                	addi	a4,a4,-32
    27d8:	ce06                	sw	ra,28(sp)
    27da:	0065                	c.nop	25
    27dc:	9c01                	0x9c01
    27de:	0000                	unimp
    27e0:	0100                	addi	s0,sp,128
    27e2:	179c                	addi	a5,sp,992
    27e4:	0024                	addi	s1,sp,8
    27e6:	3700                	fld	fs0,40(a4)
    27e8:	0b5c                	addi	a5,sp,404
    27ea:	0000                	unimp
    27ec:	1a01                	addi	s4,s4,-32
    27ee:	00008d0b          	0x8d0b
    27f2:	0100                	addi	s0,sp,128
    27f4:	3756                	fld	fa4,368(sp)
    27f6:	070d                	addi	a4,a4,3
    27f8:	0000                	unimp
    27fa:	1b01                	addi	s6,s6,-32
    27fc:	00008d0b          	0x8d0b
    2800:	0100                	addi	s0,sp,128
    2802:	3761                	jal	278a <__udivdi3-0x7fdc22>
    2804:	0c28                	addi	a0,sp,536
    2806:	0000                	unimp
    2808:	1c01                	addi	s8,s8,-32
    280a:	00008d0b          	0x8d0b
    280e:	0100                	addi	s0,sp,128
    2810:	3760                	fld	fs0,232(a4)
    2812:	06cd                	addi	a3,a3,19
    2814:	0000                	unimp
    2816:	1d01                	addi	s10,s10,-32
    2818:	00008d0b          	0x8d0b
    281c:	0100                	addi	s0,sp,128
    281e:	094f376f          	jal	a4,f58b2 <__udivdi3-0x70aafa>
    2822:	0000                	unimp
    2824:	1e01                	addi	t3,t3,-32
    2826:	00008d0b          	0x8d0b
    282a:	0100                	addi	s0,sp,128
    282c:	376e                	fld	fa4,248(sp)
    282e:	0749                	addi	a4,a4,18
    2830:	0000                	unimp
    2832:	1f01                	addi	t5,t5,-32
    2834:	00008d0b          	0x8d0b
    2838:	0100                	addi	s0,sp,128
    283a:	376d                	jal	27e4 <__udivdi3-0x7fdbc8>
    283c:	08c1                	addi	a7,a7,16
    283e:	0000                	unimp
    2840:	2001                	jal	2840 <__udivdi3-0x7fdb6c>
    2842:	00008d0b          	0x8d0b
    2846:	0100                	addi	s0,sp,128
    2848:	376c                	fld	fa1,232(a4)
    284a:	0cb6                	slli	s9,s9,0xd
    284c:	0000                	unimp
    284e:	2201                	jal	294e <__udivdi3-0x7fda5e>
    2850:	0024170b          	0x24170b
    2854:	0300                	addi	s0,sp,384
    2856:	a091                	j	289a <__udivdi3-0x7fdb12>
    2858:	387f                	0x387f
    285a:	1e0c                	addi	a1,sp,816
    285c:	0000                	unimp
    285e:	4739                	li	a4,14
    2860:	0000                	unimp
    2862:	0100                	addi	s0,sp,128
    2864:	0219                	addi	tp,tp,6
    2866:	00cd                	addi	ra,ra,19
    2868:	0000                	unimp
    286a:	0e39                	addi	t3,t3,14
    286c:	01000003          	lb	zero,16(zero) # 10 <__udivdi3-0x80039c>
    2870:	0219                	addi	tp,tp,6
    2872:	008d                	addi	ra,ra,3
    2874:	0000                	unimp
    2876:	f138                	fsw	fa4,96(a0)
    2878:	001d                	c.nop	7
    287a:	3900                	fld	fs0,48(a0)
    287c:	000002ef          	jal	t0,287c <__udivdi3-0x7fdb30>
    2880:	1901                	addi	s2,s2,-32
    2882:	2502                	fld	fa0,0(sp)
    2884:	0000                	unimp
    2886:	3900                	fld	fs0,48(a0)
    2888:	000003c7          	fmsub.s	ft7,ft0,ft0,ft0,rne
    288c:	1901                	addi	s2,s2,-32
    288e:	cb02                	sw	zero,148(sp)
    2890:	0000                	unimp
    2892:	3800                	fld	fs0,48(s0)
    2894:	1b46                	slli	s6,s6,0x31
    2896:	0000                	unimp
    2898:	5f3a                	lw	t5,172(sp)
    289a:	7672                	flw	fa2,60(sp)
    289c:	0100                	addi	s0,sp,128
    289e:	0219                	addi	tp,tp,6
    28a0:	0025                	c.nop	9
    28a2:	0000                	unimp
    28a4:	3b00                	fld	fs0,48(a4)
    28a6:	8539                	srai	a0,a0,0xe
    28a8:	0001                	nop
    28aa:	0100                	addi	s0,sp,128
    28ac:	0219                	addi	tp,tp,6
    28ae:	0025                	c.nop	9
    28b0:	0000                	unimp
    28b2:	a439                	j	2ac0 <__udivdi3-0x7fd8ec>
    28b4:	01000003          	lb	zero,16(zero) # 10 <__udivdi3-0x80039c>
    28b8:	0219                	addi	tp,tp,6
    28ba:	00000e9b          	0xe9b
    28be:	a939                	j	2cdc <__udivdi3-0x7fd6d0>
    28c0:	01000003          	lb	zero,16(zero) # 10 <__udivdi3-0x80039c>
    28c4:	0219                	addi	tp,tp,6
    28c6:	0ea1                	addi	t4,t4,8
    28c8:	0000                	unimp
    28ca:	3d39                	jal	26e8 <__udivdi3-0x7fdcc4>
    28cc:	0000                	unimp
    28ce:	0100                	addi	s0,sp,128
    28d0:	0219                	addi	tp,tp,6
    28d2:	0eb1                	addi	t4,t4,12
    28d4:	0000                	unimp
    28d6:	dc39                	beqz	s0,2834 <__udivdi3-0x7fdb78>
    28d8:	0001                	nop
    28da:	0100                	addi	s0,sp,128
    28dc:	0219                	addi	tp,tp,6
    28de:	0ec1                	addi	t4,t4,16
    28e0:	0000                	unimp
    28e2:	7239                	lui	tp,0xfffee
    28e4:	0000                	unimp
    28e6:	0100                	addi	s0,sp,128
    28e8:	0219                	addi	tp,tp,6
    28ea:	0ed1                	addi	t4,t4,20
    28ec:	0000                	unimp
    28ee:	b339                	j	25fc <__udivdi3-0x7fddb0>
    28f0:	01000003          	lb	zero,16(zero) # 10 <__udivdi3-0x80039c>
    28f4:	0219                	addi	tp,tp,6
    28f6:	0ee1                	addi	t4,t4,24
    28f8:	0000                	unimp
    28fa:	1939                	addi	s2,s2,-18
    28fc:	0005                	c.nop	1
    28fe:	0100                	addi	s0,sp,128
    2900:	0219                	addi	tp,tp,6
    2902:	0ef1                	addi	t4,t4,28
    2904:	0000                	unimp
    2906:	cc39                	beqz	s0,2964 <__udivdi3-0x7fda48>
    2908:	01000003          	lb	zero,16(zero) # 10 <__udivdi3-0x80039c>
    290c:	0219                	addi	tp,tp,6
    290e:	0f01                	addi	t5,t5,0
    2910:	0000                	unimp
    2912:	0439                	addi	s0,s0,14
    2914:	01000003          	lb	zero,16(zero) # 10 <__udivdi3-0x80039c>
    2918:	0219                	addi	tp,tp,6
    291a:	0f11                	addi	t5,t5,4
    291c:	0000                	unimp
    291e:	eb39                	bnez	a4,2974 <__udivdi3-0x7fda38>
    2920:	01000003          	lb	zero,16(zero) # 10 <__udivdi3-0x80039c>
    2924:	0219                	addi	tp,tp,6
    2926:	0f21                	addi	t5,t5,8
    2928:	0000                	unimp
    292a:	9139                	srli	a0,a0,0x2e
    292c:	0002                	c.slli64	zero
    292e:	0100                	addi	s0,sp,128
    2930:	0219                	addi	tp,tp,6
    2932:	0f31                	addi	t5,t5,12
    2934:	0000                	unimp
    2936:	ad39                	j	2f54 <__udivdi3-0x7fd458>
    2938:	0002                	c.slli64	zero
    293a:	0100                	addi	s0,sp,128
    293c:	0219                	addi	tp,tp,6
    293e:	03de                	slli	t2,t2,0x17
    2940:	0000                	unimp
    2942:	eb38                	fsw	fa4,80(a4)
    2944:	001c                	0x1c
    2946:	3900                	fld	fs0,48(a0)
    2948:	03be                	slli	t2,t2,0xf
    294a:	0000                	unimp
    294c:	1901                	addi	s2,s2,-32
    294e:	cd02                	sw	zero,152(sp)
    2950:	0000                	unimp
    2952:	3900                	fld	fs0,48(a0)
    2954:	02f5                	addi	t0,t0,29
    2956:	0000                	unimp
    2958:	1901                	addi	s2,s2,-32
    295a:	d402                	sw	zero,40(sp)
    295c:	0000                	unimp
    295e:	3900                	fld	fs0,48(a0)
    2960:	02de                	slli	t0,t0,0x17
    2962:	0000                	unimp
    2964:	1901                	addi	s2,s2,-32
    2966:	6702                	flw	fa4,0(sp)
    2968:	0000                	unimp
    296a:	3900                	fld	fs0,48(a0)
    296c:	0000026b          	0x26b
    2970:	1901                	addi	s2,s2,-32
    2972:	4102                	lw	sp,0(sp)
    2974:	3900000f          	0x3900000f
    2978:	007d                	c.nop	31
    297a:	0000                	unimp
    297c:	1901                	addi	s2,s2,-32
    297e:	2c02                	fld	fs8,0(sp)
    2980:	0000                	unimp
    2982:	3900                	fld	fs0,48(a0)
    2984:	000002fb          	0x2fb
    2988:	1901                	addi	s2,s2,-32
    298a:	2502                	fld	fa0,0(sp)
    298c:	0000                	unimp
    298e:	3900                	fld	fs0,48(a0)
    2990:	04fa                	slli	s1,s1,0x1e
    2992:	0000                	unimp
    2994:	1901                	addi	s2,s2,-32
    2996:	2502                	fld	fa0,0(sp)
    2998:	0000                	unimp
    299a:	3900                	fld	fs0,48(a0)
    299c:	01a1                	addi	gp,gp,8
    299e:	0000                	unimp
    29a0:	1901                	addi	s2,s2,-32
    29a2:	2502                	fld	fa0,0(sp)
    29a4:	0000                	unimp
    29a6:	3900                	fld	fs0,48(a0)
    29a8:	01c5                	addi	gp,gp,17
    29aa:	0000                	unimp
    29ac:	1901                	addi	s2,s2,-32
    29ae:	5102                	lw	sp,32(sp)
    29b0:	3800000f          	0x3800000f
    29b4:	1ccc                	addi	a1,sp,628
    29b6:	0000                	unimp
    29b8:	0f39                	addi	t5,t5,14
    29ba:	0005                	c.nop	1
    29bc:	0100                	addi	s0,sp,128
    29be:	0219                	addi	tp,tp,6
    29c0:	008d                	addi	ra,ra,3
    29c2:	0000                	unimp
    29c4:	8238                	0x8238
    29c6:	001c                	0x1c
    29c8:	3a00                	fld	fs0,48(a2)
    29ca:	765f 0100 0219      	0x2190100765f
    29d0:	00da                	slli	ra,ra,0x16
    29d2:	0000                	unimp
    29d4:	0f39                	addi	t5,t5,14
    29d6:	0005                	c.nop	1
    29d8:	0100                	addi	s0,sp,128
    29da:	0219                	addi	tp,tp,6
    29dc:	002c                	addi	a1,sp,8
    29de:	0000                	unimp
    29e0:	3b00                	fld	fs0,48(a4)
    29e2:	5f3a                	lw	t5,172(sp)
    29e4:	0076                	c.slli	zero,0x1d
    29e6:	1901                	addi	s2,s2,-32
    29e8:	da02                	sw	zero,52(sp)
    29ea:	0000                	unimp
    29ec:	3a00                	fld	fs0,48(a2)
    29ee:	645f 0100 0219      	0x2190100645f
    29f4:	00000f57          	0xf57
    29f8:	1039                	c.nop	-18
    29fa:	0005                	c.nop	1
    29fc:	0100                	addi	s0,sp,128
    29fe:	0219                	addi	tp,tp,6
    2a00:	002c                	addi	a1,sp,8
    2a02:	0000                	unimp
    2a04:	0d39                	addi	s10,s10,14
    2a06:	0000                	unimp
    2a08:	0100                	addi	s0,sp,128
    2a0a:	0219                	addi	tp,tp,6
    2a0c:	002c                	addi	a1,sp,8
    2a0e:	0000                	unimp
    2a10:	765f3a3b          	0x765f3a3b
    2a14:	0100                	addi	s0,sp,128
    2a16:	0219                	addi	tp,tp,6
    2a18:	00da                	slli	ra,ra,0x16
    2a1a:	0000                	unimp
    2a1c:	0f39                	addi	t5,t5,14
    2a1e:	0005                	c.nop	1
    2a20:	0100                	addi	s0,sp,128
    2a22:	0219                	addi	tp,tp,6
    2a24:	002c                	addi	a1,sp,8
    2a26:	0000                	unimp
    2a28:	0000                	unimp
    2a2a:	3800                	fld	fs0,48(s0)
    2a2c:	1cdc                	addi	a5,sp,628
    2a2e:	0000                	unimp
    2a30:	693a                	flw	fs2,140(sp)
    2a32:	0100                	addi	s0,sp,128
    2a34:	0219                	addi	tp,tp,6
    2a36:	0025                	c.nop	9
    2a38:	0000                	unimp
    2a3a:	3b00                	fld	fs0,48(a4)
    2a3c:	683a                	flw	fa6,140(sp)
    2a3e:	7264                	flw	fs1,100(a2)
    2a40:	0100                	addi	s0,sp,128
    2a42:	0219                	addi	tp,tp,6
    2a44:	03a9                	addi	t2,t2,10
    2a46:	0000                	unimp
    2a48:	0000                	unimp
    2a4a:	03be393b          	0x3be393b
    2a4e:	0000                	unimp
    2a50:	1901                	addi	s2,s2,-32
    2a52:	cd02                	sw	zero,152(sp)
    2a54:	0000                	unimp
    2a56:	3900                	fld	fs0,48(a0)
    2a58:	02f5                	addi	t0,t0,29
    2a5a:	0000                	unimp
    2a5c:	1901                	addi	s2,s2,-32
    2a5e:	d402                	sw	zero,40(sp)
    2a60:	0000                	unimp
    2a62:	3900                	fld	fs0,48(a0)
    2a64:	02de                	slli	t0,t0,0x17
    2a66:	0000                	unimp
    2a68:	1901                	addi	s2,s2,-32
    2a6a:	6702                	flw	fa4,0(sp)
    2a6c:	0000                	unimp
    2a6e:	3900                	fld	fs0,48(a0)
    2a70:	0000026b          	0x26b
    2a74:	1901                	addi	s2,s2,-32
    2a76:	4102                	lw	sp,0(sp)
    2a78:	3900000f          	0x3900000f
    2a7c:	007d                	c.nop	31
    2a7e:	0000                	unimp
    2a80:	1901                	addi	s2,s2,-32
    2a82:	2c02                	fld	fs8,0(sp)
    2a84:	0000                	unimp
    2a86:	3900                	fld	fs0,48(a0)
    2a88:	000002fb          	0x2fb
    2a8c:	1901                	addi	s2,s2,-32
    2a8e:	2502                	fld	fa0,0(sp)
    2a90:	0000                	unimp
    2a92:	3900                	fld	fs0,48(a0)
    2a94:	04fa                	slli	s1,s1,0x1e
    2a96:	0000                	unimp
    2a98:	1901                	addi	s2,s2,-32
    2a9a:	2502                	fld	fa0,0(sp)
    2a9c:	0000                	unimp
    2a9e:	3900                	fld	fs0,48(a0)
    2aa0:	01a1                	addi	gp,gp,8
    2aa2:	0000                	unimp
    2aa4:	1901                	addi	s2,s2,-32
    2aa6:	2502                	fld	fa0,0(sp)
    2aa8:	0000                	unimp
    2aaa:	3900                	fld	fs0,48(a0)
    2aac:	01c5                	addi	gp,gp,17
    2aae:	0000                	unimp
    2ab0:	1901                	addi	s2,s2,-32
    2ab2:	5102                	lw	sp,32(sp)
    2ab4:	3800000f          	0x3800000f
    2ab8:	1dd0                	addi	a2,sp,756
    2aba:	0000                	unimp
    2abc:	0f39                	addi	t5,t5,14
    2abe:	0005                	c.nop	1
    2ac0:	0100                	addi	s0,sp,128
    2ac2:	0219                	addi	tp,tp,6
    2ac4:	008d                	addi	ra,ra,3
    2ac6:	0000                	unimp
    2ac8:	8638                	0x8638
    2aca:	001d                	c.nop	7
    2acc:	3a00                	fld	fs0,48(a2)
    2ace:	765f 0100 0219      	0x2190100765f
    2ad4:	00da                	slli	ra,ra,0x16
    2ad6:	0000                	unimp
    2ad8:	0f39                	addi	t5,t5,14
    2ada:	0005                	c.nop	1
    2adc:	0100                	addi	s0,sp,128
    2ade:	0219                	addi	tp,tp,6
    2ae0:	002c                	addi	a1,sp,8
    2ae2:	0000                	unimp
    2ae4:	3b00                	fld	fs0,48(a4)
    2ae6:	5f3a                	lw	t5,172(sp)
    2ae8:	0076                	c.slli	zero,0x1d
    2aea:	1901                	addi	s2,s2,-32
    2aec:	da02                	sw	zero,52(sp)
    2aee:	0000                	unimp
    2af0:	3a00                	fld	fs0,48(a2)
    2af2:	645f 0100 0219      	0x2190100645f
    2af8:	00000f57          	0xf57
    2afc:	1039                	c.nop	-18
    2afe:	0005                	c.nop	1
    2b00:	0100                	addi	s0,sp,128
    2b02:	0219                	addi	tp,tp,6
    2b04:	002c                	addi	a1,sp,8
    2b06:	0000                	unimp
    2b08:	0d39                	addi	s10,s10,14
    2b0a:	0000                	unimp
    2b0c:	0100                	addi	s0,sp,128
    2b0e:	0219                	addi	tp,tp,6
    2b10:	002c                	addi	a1,sp,8
    2b12:	0000                	unimp
    2b14:	765f3a3b          	0x765f3a3b
    2b18:	0100                	addi	s0,sp,128
    2b1a:	0219                	addi	tp,tp,6
    2b1c:	00da                	slli	ra,ra,0x16
    2b1e:	0000                	unimp
    2b20:	0f39                	addi	t5,t5,14
    2b22:	0005                	c.nop	1
    2b24:	0100                	addi	s0,sp,128
    2b26:	0219                	addi	tp,tp,6
    2b28:	002c                	addi	a1,sp,8
    2b2a:	0000                	unimp
    2b2c:	0000                	unimp
    2b2e:	3800                	fld	fs0,48(s0)
    2b30:	1de0                	addi	s0,sp,764
    2b32:	0000                	unimp
    2b34:	693a                	flw	fs2,140(sp)
    2b36:	0100                	addi	s0,sp,128
    2b38:	0219                	addi	tp,tp,6
    2b3a:	0025                	c.nop	9
    2b3c:	0000                	unimp
    2b3e:	3b00                	fld	fs0,48(a4)
    2b40:	683a                	flw	fa6,140(sp)
    2b42:	7264                	flw	fs1,100(a2)
    2b44:	0100                	addi	s0,sp,128
    2b46:	0219                	addi	tp,tp,6
    2b48:	03a9                	addi	t2,t2,10
    2b4a:	0000                	unimp
    2b4c:	0000                	unimp
    2b4e:	0000                	unimp
    2b50:	02be393b          	0x2be393b
    2b54:	0000                	unimp
    2b56:	1901                	addi	s2,s2,-32
    2b58:	7a02                	flw	fs4,32(sp)
    2b5a:	0000                	unimp
    2b5c:	3900                	fld	fs0,48(a0)
    2b5e:	0390                	addi	a2,sp,448
    2b60:	0000                	unimp
    2b62:	1901                	addi	s2,s2,-32
    2b64:	1b02                	slli	s6,s6,0x20
    2b66:	0005                	c.nop	1
    2b68:	0000                	unimp
    2b6a:	4700                	lw	s0,8(a4)
    2b6c:	0078                	addi	a4,sp,12
    2b6e:	0000                	unimp
    2b70:	1e61                	addi	t3,t3,-8
    2b72:	0000                	unimp
    2b74:	01006933          	or	s2,zero,a6
    2b78:	002c0e23          	sb	sp,28(s8)
    2b7c:	0000                	unimp
    2b7e:	00000d6f          	jal	s10,2b7e <__udivdi3-0x7fd82e>
    2b82:	00275023          	0x275023
    2b86:	0000                	unimp
    2b88:	0066                	c.slli	zero,0x19
    2b8a:	0601                	addi	a2,a2,0
    2b8c:	0000                	unimp
    2b8e:	0100                	addi	s0,sp,128
    2b90:	1324                	addi	s1,sp,424
    2b92:	6d22                	flw	fs10,8(sp)
    2b94:	83000027          	0x83000027
    2b98:	000d                	c.nop	3
    2b9a:	2200                	fld	fs0,0(a2)
    2b9c:	2761                	jal	3324 <__udivdi3-0x7fd088>
    2b9e:	0000                	unimp
    2ba0:	0d9e                	slli	s11,s11,0x7
    2ba2:	0000                	unimp
    2ba4:	00281a23          	sh	sp,20(a6) # fffed014 <_end+0xfefe6518>
    2ba8:	0000                	unimp
    2baa:	0066                	c.slli	zero,0x19
    2bac:	0601                	addi	a2,a2,0
    2bae:	0000                	unimp
    2bb0:	0200                	addi	s0,sp,256
    2bb2:	09b2                	slli	s3,s3,0xc
    2bb4:	2b22                	fld	fs6,8(sp)
    2bb6:	0028                	addi	a0,sp,8
    2bb8:	b400                	fsd	fs0,40(s0)
    2bba:	000d                	c.nop	3
    2bbc:	0000                	unimp
    2bbe:	0000                	unimp
    2bc0:	0000b847          	fmsub.s	fa6,ft1,ft0,ft0,rup
    2bc4:	c400                	sw	s0,8(s0)
    2bc6:	001e                	c.slli	zero,0x7
    2bc8:	3a00                	fld	fs0,48(a2)
    2bca:	0069                	c.nop	26
    2bcc:	3301                	jal	28cc <__udivdi3-0x7fdae0>
    2bce:	2c0e                	fld	fs8,192(sp)
    2bd0:	0000                	unimp
    2bd2:	2500                	fld	fs0,8(a0)
    2bd4:	271e                	fld	fa4,448(sp)
    2bd6:	0000                	unimp
    2bd8:	664a                	flw	fa2,144(sp)
    2bda:	0100                	addi	s0,sp,128
    2bdc:	00d0                	addi	a2,sp,68
    2bde:	0000                	unimp
    2be0:	3401                	jal	25e0 <__udivdi3-0x7fddcc>
    2be2:	27432203          	lw	tp,628(t1) # 1b274 <__udivdi3-0x7e5138>
    2be6:	0000                	unimp
    2be8:	00000dcf          	fnmadd.s	fs11,ft0,ft0,ft0,rne
    2bec:	3722                	fld	fa4,40(sp)
    2bee:	e2000027          	0xe2000027
    2bf2:	000d                	c.nop	3
    2bf4:	2200                	fld	fs0,0(a2)
    2bf6:	0000272b          	0x272b
    2bfa:	0e10                	addi	a2,sp,784
    2bfc:	0000                	unimp
    2bfe:	f425                	bnez	s0,2b66 <__udivdi3-0x7fd846>
    2c00:	4a000027          	0x4a000027
    2c04:	0066                	c.slli	zero,0x19
    2c06:	d001                	beqz	s0,2b06 <__udivdi3-0x7fd8a6>
    2c08:	0000                	unimp
    2c0a:	0200                	addi	s0,sp,256
    2c0c:	02c0                	addi	s0,sp,324
    2c0e:	0d22                	slli	s10,s10,0x8
    2c10:	0028                	addi	a0,sp,8
    2c12:	2600                	fld	fs0,8(a2)
    2c14:	000e                	c.slli	zero,0x3
    2c16:	2200                	fld	fs0,0(a2)
    2c18:	2801                	jal	2c28 <__udivdi3-0x7fd784>
    2c1a:	0000                	unimp
    2c1c:	00000dcf          	fnmadd.s	fs11,ft0,ft0,ft0,rne
    2c20:	0000                	unimp
    2c22:	3c00                	fld	fs0,56(s0)
    2c24:	2750                	fld	fa2,136(a4)
    2c26:	0000                	unimp
    2c28:	65ce                	flw	fa1,208(sp)
    2c2a:	0100                	addi	s0,sp,128
    2c2c:	0028                	addi	a0,sp,8
    2c2e:	0000                	unimp
    2c30:	1a01                	addi	s4,s4,-32
    2c32:	0518                	addi	a4,sp,640
    2c34:	001f 2200 276d      	0x276d2200001f
    2c3a:	0000                	unimp
    2c3c:	0e54                	addi	a3,sp,788
    2c3e:	0000                	unimp
    2c40:	6122                	flw	ft2,8(sp)
    2c42:	6a000027          	0x6a000027
    2c46:	000e                	c.slli	zero,0x3
    2c48:	2500                	fld	fs0,8(a0)
    2c4a:	281a                	fld	fa6,384(sp)
    2c4c:	0000                	unimp
    2c4e:	65ce                	flw	fa1,208(sp)
    2c50:	0100                	addi	s0,sp,128
    2c52:	0028                	addi	a0,sp,8
    2c54:	0000                	unimp
    2c56:	b202                	fsd	ft0,288(sp)
    2c58:	2209                	jal	2d5a <__udivdi3-0x7fd652>
    2c5a:	0000282b          	0x282b
    2c5e:	0e81                	addi	t4,t4,0
    2c60:	0000                	unimp
    2c62:	0000                	unimp
    2c64:	503c                	lw	a5,96(s0)
    2c66:	ce000027          	0xce000027
    2c6a:	0065                	c.nop	25
    2c6c:	4801                	li	a6,0
    2c6e:	0000                	unimp
    2c70:	0100                	addi	s0,sp,128
    2c72:	1a1d                	addi	s4,s4,-25
    2c74:	1f46                	slli	t5,t5,0x31
    2c76:	0000                	unimp
    2c78:	6d22                	flw	fs10,8(sp)
    2c7a:	99000027          	0x99000027
    2c7e:	000e                	c.slli	zero,0x3
    2c80:	2200                	fld	fs0,0(a2)
    2c82:	2761                	jal	340a <__udivdi3-0x7fcfa2>
    2c84:	0000                	unimp
    2c86:	00000eaf          	0xeaf
    2c8a:	1a25                	addi	s4,s4,-23
    2c8c:	0028                	addi	a0,sp,8
    2c8e:	ce00                	sw	s0,24(a2)
    2c90:	0065                	c.nop	25
    2c92:	4801                	li	a6,0
    2c94:	0000                	unimp
    2c96:	0200                	addi	s0,sp,256
    2c98:	09b2                	slli	s3,s3,0xc
    2c9a:	2b22                	fld	fs6,8(sp)
    2c9c:	0028                	addi	a0,sp,8
    2c9e:	c500                	sw	s0,8(a0)
    2ca0:	000e                	c.slli	zero,0x3
    2ca2:	0000                	unimp
    2ca4:	3400                	fld	fs0,40(s0)
    2ca6:	2750                	fld	fa2,136(a4)
    2ca8:	0000                	unimp
    2caa:	65dc                	flw	fa5,12(a1)
    2cac:	0100                	addi	s0,sp,128
    2cae:	0008                	0x8
    2cb0:	0000                	unimp
    2cb2:	1b01                	addi	s6,s6,-32
    2cb4:	001f871b          	0x1f871b
    2cb8:	2200                	fld	fs0,0(a2)
    2cba:	276d                	jal	3464 <__udivdi3-0x7fcf48>
    2cbc:	0000                	unimp
    2cbe:	00000edb          	0xedb
    2cc2:	6122                	flw	ft2,8(sp)
    2cc4:	f1000027          	0xf1000027
    2cc8:	000e                	c.slli	zero,0x3
    2cca:	2300                	fld	fs0,0(a4)
    2ccc:	281a                	fld	fa6,384(sp)
    2cce:	0000                	unimp
    2cd0:	65dc                	flw	fa5,12(a1)
    2cd2:	0100                	addi	s0,sp,128
    2cd4:	0008                	0x8
    2cd6:	0000                	unimp
    2cd8:	b202                	fsd	ft0,288(sp)
    2cda:	2209                	jal	2ddc <__udivdi3-0x7fd5d0>
    2cdc:	0000282b          	0x282b
    2ce0:	0f08                	addi	a0,sp,912
    2ce2:	0000                	unimp
    2ce4:	0000                	unimp
    2ce6:	5034                	lw	a3,96(s0)
    2ce8:	e4000027          	0xe4000027
    2cec:	0065                	c.nop	25
    2cee:	0401                	addi	s0,s0,0
    2cf0:	0000                	unimp
    2cf2:	0100                	addi	s0,sp,128
    2cf4:	161c                	addi	a5,sp,800
    2cf6:	1fc8                	addi	a0,sp,1012
    2cf8:	0000                	unimp
    2cfa:	6d22                	flw	fs10,8(sp)
    2cfc:	20000027          	0x20000027
    2d00:	2200000f          	0x2200000f
    2d04:	2761                	jal	348c <__udivdi3-0x7fcf20>
    2d06:	0000                	unimp
    2d08:	0f36                	slli	t5,t5,0xd
    2d0a:	0000                	unimp
    2d0c:	00281a23          	sh	sp,20(a6)
    2d10:	e400                	fsw	fs0,8(s0)
    2d12:	0065                	c.nop	25
    2d14:	0401                	addi	s0,s0,0
    2d16:	0000                	unimp
    2d18:	0200                	addi	s0,sp,256
    2d1a:	09b2                	slli	s3,s3,0xc
    2d1c:	2b22                	fld	fs6,8(sp)
    2d1e:	0028                	addi	a0,sp,8
    2d20:	4d00                	lw	s0,24(a0)
    2d22:	0000000f          	fence	unknown,unknown
    2d26:	3400                	fld	fs0,40(s0)
    2d28:	2750                	fld	fa2,136(a4)
    2d2a:	0000                	unimp
    2d2c:	65ec                	flw	fa1,76(a1)
    2d2e:	0100                	addi	s0,sp,128
    2d30:	0004                	0x4
    2d32:	0000                	unimp
    2d34:	1e01                	addi	t3,t3,-32
    2d36:	091c                	addi	a5,sp,144
    2d38:	0020                	addi	s0,sp,8
    2d3a:	2200                	fld	fs0,0(a2)
    2d3c:	276d                	jal	34e6 <__udivdi3-0x7fcec6>
    2d3e:	0000                	unimp
    2d40:	0f65                	addi	t5,t5,25
    2d42:	0000                	unimp
    2d44:	6122                	flw	ft2,8(sp)
    2d46:	7b000027          	0x7b000027
    2d4a:	2300000f          	0x2300000f
    2d4e:	281a                	fld	fa6,384(sp)
    2d50:	0000                	unimp
    2d52:	65ec                	flw	fa1,76(a1)
    2d54:	0100                	addi	s0,sp,128
    2d56:	0004                	0x4
    2d58:	0000                	unimp
    2d5a:	b202                	fsd	ft0,288(sp)
    2d5c:	2209                	jal	2e5e <__udivdi3-0x7fd54e>
    2d5e:	0000282b          	0x282b
    2d62:	0f91                	addi	t6,t6,4
    2d64:	0000                	unimp
    2d66:	0000                	unimp
    2d68:	5034                	lw	a3,96(s0)
    2d6a:	f0000027          	0xf0000027
    2d6e:	0065                	c.nop	25
    2d70:	0401                	addi	s0,s0,0
    2d72:	0000                	unimp
    2d74:	0100                	addi	s0,sp,128
    2d76:	191f 204a 0000      	0x204a191f
    2d7c:	6d22                	flw	fs10,8(sp)
    2d7e:	a7000027          	0xa7000027
    2d82:	2200000f          	0x2200000f
    2d86:	2761                	jal	350e <__udivdi3-0x7fce9e>
    2d88:	0000                	unimp
    2d8a:	0fbd                	addi	t6,t6,15
    2d8c:	0000                	unimp
    2d8e:	00281a23          	sh	sp,20(a6)
    2d92:	f000                	fsw	fs0,32(s0)
    2d94:	0065                	c.nop	25
    2d96:	0401                	addi	s0,s0,0
    2d98:	0000                	unimp
    2d9a:	0200                	addi	s0,sp,256
    2d9c:	09b2                	slli	s3,s3,0xc
    2d9e:	2b22                	fld	fs6,8(sp)
    2da0:	0028                	addi	a0,sp,8
    2da2:	d300                	sw	s0,32(a4)
    2da4:	0000000f          	fence	unknown,unknown
    2da8:	3c00                	fld	fs0,56(s0)
    2daa:	2750                	fld	fa2,136(a4)
    2dac:	0000                	unimp
    2dae:	65f4                	flw	fa3,76(a1)
    2db0:	0100                	addi	s0,sp,128
    2db2:	0060                	addi	s0,sp,12
    2db4:	0000                	unimp
    2db6:	2001                	jal	2db6 <__udivdi3-0x7fd5f6>
    2db8:	00208b17          	auipc	s6,0x208
    2dbc:	2200                	fld	fs0,0(a2)
    2dbe:	276d                	jal	3568 <__udivdi3-0x7fce44>
    2dc0:	0000                	unimp
    2dc2:	0fe9                	addi	t6,t6,26
    2dc4:	0000                	unimp
    2dc6:	6122                	flw	ft2,8(sp)
    2dc8:	ff000027          	0xff000027
    2dcc:	2500000f          	0x2500000f
    2dd0:	281a                	fld	fa6,384(sp)
    2dd2:	0000                	unimp
    2dd4:	65f4                	flw	fa3,76(a1)
    2dd6:	0100                	addi	s0,sp,128
    2dd8:	0060                	addi	s0,sp,12
    2dda:	0000                	unimp
    2ddc:	b202                	fsd	ft0,288(sp)
    2dde:	2209                	jal	2ee0 <__udivdi3-0x7fd4cc>
    2de0:	0000282b          	0x282b
    2de4:	1015                	c.nop	-27
    2de6:	0000                	unimp
    2de8:	0000                	unimp
    2dea:	1e34                	addi	a3,sp,824
    2dec:	10000027          	0x10000027
    2df0:	0066                	c.slli	zero,0x19
    2df2:	0601                	addi	a2,a2,0
    2df4:	0000                	unimp
    2df6:	0100                	addi	s0,sp,128
    2df8:	20de0227          	0x20de0227
    2dfc:	0000                	unimp
    2dfe:	4322                	lw	t1,8(sp)
    2e00:	2b000027          	0x2b000027
    2e04:	0010                	0x10
    2e06:	2200                	fld	fs0,0(a2)
    2e08:	00002737          	lui	a4,0x2
    2e0c:	0000103f 00272b22 	0x272b220000103f
    2e14:	5500                	lw	s0,40(a0)
    2e16:	0010                	0x10
    2e18:	2300                	fld	fs0,0(a4)
    2e1a:	27f4                	fld	fa3,200(a5)
    2e1c:	0000                	unimp
    2e1e:	6610                	flw	fa2,8(a2)
    2e20:	0100                	addi	s0,sp,128
    2e22:	0006                	c.slli	zero,0x1
    2e24:	0000                	unimp
    2e26:	c002                	sw	zero,0(sp)
    2e28:	2202                	fld	ft4,0(sp)
    2e2a:	280d                	jal	2e5c <__udivdi3-0x7fd550>
    2e2c:	0000                	unimp
    2e2e:	0000106b          	0x106b
    2e32:	0122                	slli	sp,sp,0x8
    2e34:	0028                	addi	a0,sp,8
    2e36:	2b00                	fld	fs0,16(a4)
    2e38:	0010                	0x10
    2e3a:	0000                	unimp
    2e3c:	3c00                	fld	fs0,56(s0)
    2e3e:	2750                	fld	fa2,136(a4)
    2e40:	0000                	unimp
    2e42:	6616                	flw	fa2,68(sp)
    2e44:	0100                	addi	s0,sp,128
    2e46:	0098                	addi	a4,sp,64
    2e48:	0000                	unimp
    2e4a:	2801                	jal	2e5a <__udivdi3-0x7fd552>
    2e4c:	1f09                	addi	t5,t5,-30
    2e4e:	0021                	c.nop	8
    2e50:	2200                	fld	fs0,0(a2)
    2e52:	276d                	jal	35fc <__udivdi3-0x7fcdb0>
    2e54:	0000                	unimp
    2e56:	1081                	addi	ra,ra,-32
    2e58:	0000                	unimp
    2e5a:	6122                	flw	ft2,8(sp)
    2e5c:	a5000027          	0xa5000027
    2e60:	0010                	0x10
    2e62:	2500                	fld	fs0,8(a0)
    2e64:	281a                	fld	fa6,384(sp)
    2e66:	0000                	unimp
    2e68:	6616                	flw	fa2,68(sp)
    2e6a:	0100                	addi	s0,sp,128
    2e6c:	0098                	addi	a4,sp,64
    2e6e:	0000                	unimp
    2e70:	b202                	fsd	ft0,288(sp)
    2e72:	2209                	jal	2f74 <__udivdi3-0x7fd438>
    2e74:	0000282b          	0x282b
    2e78:	10c9                	addi	ra,ra,-14
    2e7a:	0000                	unimp
    2e7c:	0000                	unimp
    2e7e:	ea48                	fsw	fa0,20(a2)
    2e80:	22000027          	0x22000027
    2e84:	0066                	c.slli	zero,0x19
    2e86:	0201                	addi	tp,tp,0
    2e88:	0000                	unimp
    2e8a:	0100                	addi	s0,sp,128
    2e8c:	0329                	addi	t1,t1,10
    2e8e:	1e34                	addi	a3,sp,824
    2e90:	2c000027          	0x2c000027
    2e94:	0066                	c.slli	zero,0x19
    2e96:	0601                	addi	a2,a2,0
    2e98:	0000                	unimp
    2e9a:	0100                	addi	s0,sp,128
    2e9c:	2182022b          	0x2182022b
    2ea0:	0000                	unimp
    2ea2:	4322                	lw	t1,8(sp)
    2ea4:	ed000027          	0xed000027
    2ea8:	0010                	0x10
    2eaa:	2200                	fld	fs0,0(a2)
    2eac:	00002737          	lui	a4,0x2
    2eb0:	1101                	addi	sp,sp,-32
    2eb2:	0000                	unimp
    2eb4:	2b22                	fld	fs6,8(sp)
    2eb6:	17000027          	0x17000027
    2eba:	0011                	c.nop	4
    2ebc:	2300                	fld	fs0,0(a4)
    2ebe:	27f4                	fld	fa3,200(a5)
    2ec0:	0000                	unimp
    2ec2:	662c                	flw	fa1,72(a2)
    2ec4:	0100                	addi	s0,sp,128
    2ec6:	0006                	c.slli	zero,0x1
    2ec8:	0000                	unimp
    2eca:	c002                	sw	zero,0(sp)
    2ecc:	2202                	fld	ft4,0(sp)
    2ece:	280d                	jal	2f00 <__udivdi3-0x7fd4ac>
    2ed0:	0000                	unimp
    2ed2:	112d                	addi	sp,sp,-21
    2ed4:	0000                	unimp
    2ed6:	0122                	slli	sp,sp,0x8
    2ed8:	0028                	addi	a0,sp,8
    2eda:	ed00                	fsw	fs0,24(a0)
    2edc:	0010                	0x10
    2ede:	0000                	unimp
    2ee0:	3400                	fld	fs0,40(s0)
    2ee2:	271e                	fld	fa4,448(sp)
    2ee4:	0000                	unimp
    2ee6:	6632                	flw	fa2,12(sp)
    2ee8:	0100                	addi	s0,sp,128
    2eea:	0006                	c.slli	zero,0x1
    2eec:	0000                	unimp
    2eee:	2c01                	jal	30fe <__udivdi3-0x7fd2ae>
    2ef0:	d502                	sw	zero,168(sp)
    2ef2:	0021                	c.nop	8
    2ef4:	2200                	fld	fs0,0(a2)
    2ef6:	00002743          	fmadd.s	fa4,ft0,ft0,ft0,rdn
    2efa:	00001143          	fmadd.s	ft2,ft0,ft0,ft0,rtz
    2efe:	3722                	fld	fa4,40(sp)
    2f00:	57000027          	0x57000027
    2f04:	0011                	c.nop	4
    2f06:	2200                	fld	fs0,0(a2)
    2f08:	0000272b          	0x272b
    2f0c:	116d                	addi	sp,sp,-5
    2f0e:	0000                	unimp
    2f10:	0027f423          	0x27f423
    2f14:	3200                	fld	fs0,32(a2)
    2f16:	0066                	c.slli	zero,0x19
    2f18:	0601                	addi	a2,a2,0
    2f1a:	0000                	unimp
    2f1c:	0200                	addi	s0,sp,256
    2f1e:	02c0                	addi	s0,sp,324
    2f20:	0d22                	slli	s10,s10,0x8
    2f22:	0028                	addi	a0,sp,8
    2f24:	8300                	0x8300
    2f26:	0011                	c.nop	4
    2f28:	2200                	fld	fs0,0(a2)
    2f2a:	2801                	jal	2f3a <__udivdi3-0x7fd472>
    2f2c:	0000                	unimp
    2f2e:	00001143          	fmadd.s	ft2,ft0,ft0,ft0,rtz
    2f32:	0000                	unimp
    2f34:	1e34                	addi	a3,sp,824
    2f36:	38000027          	0x38000027
    2f3a:	0066                	c.slli	zero,0x19
    2f3c:	0401                	addi	s0,s0,0
    2f3e:	0000                	unimp
    2f40:	0100                	addi	s0,sp,128
    2f42:	022e                	slli	tp,tp,0xb
    2f44:	2228                	fld	fa0,64(a2)
    2f46:	0000                	unimp
    2f48:	4322                	lw	t1,8(sp)
    2f4a:	99000027          	0x99000027
    2f4e:	0011                	c.nop	4
    2f50:	2200                	fld	fs0,0(a2)
    2f52:	00002737          	lui	a4,0x2
    2f56:	11ac                	addi	a1,sp,232
    2f58:	0000                	unimp
    2f5a:	2b22                	fld	fs6,8(sp)
    2f5c:	c2000027          	0xc2000027
    2f60:	0011                	c.nop	4
    2f62:	2300                	fld	fs0,0(a4)
    2f64:	27f4                	fld	fa3,200(a5)
    2f66:	0000                	unimp
    2f68:	6638                	flw	fa4,72(a2)
    2f6a:	0100                	addi	s0,sp,128
    2f6c:	0004                	0x4
    2f6e:	0000                	unimp
    2f70:	c002                	sw	zero,0(sp)
    2f72:	2202                	fld	ft4,0(sp)
    2f74:	280d                	jal	2fa6 <__udivdi3-0x7fd406>
    2f76:	0000                	unimp
    2f78:	11d8                	addi	a4,sp,228
    2f7a:	0000                	unimp
    2f7c:	0122                	slli	sp,sp,0x8
    2f7e:	0028                	addi	a0,sp,8
    2f80:	9900                	0x9900
    2f82:	0011                	c.nop	4
    2f84:	0000                	unimp
    2f86:	3400                	fld	fs0,40(s0)
    2f88:	271e                	fld	fa4,448(sp)
    2f8a:	0000                	unimp
    2f8c:	663c                	flw	fa5,72(a2)
    2f8e:	0100                	addi	s0,sp,128
    2f90:	0004                	0x4
    2f92:	0000                	unimp
    2f94:	2f01                	jal	36a4 <__udivdi3-0x7fcd08>
    2f96:	7b02                	flw	fs6,32(sp)
    2f98:	0022                	c.slli	zero,0x8
    2f9a:	2200                	fld	fs0,0(a2)
    2f9c:	00002743          	fmadd.s	fa4,ft0,ft0,ft0,rdn
    2fa0:	11ee                	slli	gp,gp,0x3b
    2fa2:	0000                	unimp
    2fa4:	3722                	fld	fa4,40(sp)
    2fa6:	01000027          	0x1000027
    2faa:	0012                	c.slli	zero,0x4
    2fac:	2200                	fld	fs0,0(a2)
    2fae:	0000272b          	0x272b
    2fb2:	00001217          	auipc	tp,0x1
    2fb6:	0027f423          	0x27f423
    2fba:	3c00                	fld	fs0,56(s0)
    2fbc:	0066                	c.slli	zero,0x19
    2fbe:	0401                	addi	s0,s0,0
    2fc0:	0000                	unimp
    2fc2:	0200                	addi	s0,sp,256
    2fc4:	02c0                	addi	s0,sp,324
    2fc6:	0d22                	slli	s10,s10,0x8
    2fc8:	0028                	addi	a0,sp,8
    2fca:	2d00                	fld	fs0,24(a0)
    2fcc:	0012                	c.slli	zero,0x4
    2fce:	2200                	fld	fs0,0(a2)
    2fd0:	2801                	jal	2fe0 <__udivdi3-0x7fd3cc>
    2fd2:	0000                	unimp
    2fd4:	11ee                	slli	gp,gp,0x3b
    2fd6:	0000                	unimp
    2fd8:	0000                	unimp
    2fda:	1e34                	addi	a3,sp,824
    2fdc:	40000027          	0x40000027
    2fe0:	0066                	c.slli	zero,0x19
    2fe2:	0401                	addi	s0,s0,0
    2fe4:	0000                	unimp
    2fe6:	0100                	addi	s0,sp,128
    2fe8:	0230                	addi	a2,sp,264
    2fea:	22ce                	fld	ft5,208(sp)
    2fec:	0000                	unimp
    2fee:	4322                	lw	t1,8(sp)
    2ff0:	43000027          	0x43000027
    2ff4:	0012                	c.slli	zero,0x4
    2ff6:	2200                	fld	fs0,0(a2)
    2ff8:	00002737          	lui	a4,0x2
    2ffc:	1256                	slli	tp,tp,0x35
    2ffe:	0000                	unimp
    3000:	2b22                	fld	fs6,8(sp)
    3002:	6c000027          	0x6c000027
    3006:	0012                	c.slli	zero,0x4
    3008:	2300                	fld	fs0,0(a4)
    300a:	27f4                	fld	fa3,200(a5)
    300c:	0000                	unimp
    300e:	6640                	flw	fs0,12(a2)
    3010:	0100                	addi	s0,sp,128
    3012:	0004                	0x4
    3014:	0000                	unimp
    3016:	c002                	sw	zero,0(sp)
    3018:	2202                	fld	ft4,0(sp)
    301a:	280d                	jal	304c <__udivdi3-0x7fd360>
    301c:	0000                	unimp
    301e:	1282                	slli	t0,t0,0x20
    3020:	0000                	unimp
    3022:	0122                	slli	sp,sp,0x8
    3024:	0028                	addi	a0,sp,8
    3026:	4300                	lw	s0,0(a4)
    3028:	0012                	c.slli	zero,0x4
    302a:	0000                	unimp
    302c:	3400                	fld	fs0,40(s0)
    302e:	271e                	fld	fa4,448(sp)
    3030:	0000                	unimp
    3032:	6644                	flw	fs1,12(a2)
    3034:	0100                	addi	s0,sp,128
    3036:	0004                	0x4
    3038:	0000                	unimp
    303a:	3101                	jal	2c3a <__udivdi3-0x7fd772>
    303c:	2102                	fld	ft2,0(sp)
    303e:	22000023          	sb	zero,544(zero) # 220 <__udivdi3-0x80018c>
    3042:	00002743          	fmadd.s	fa4,ft0,ft0,ft0,rdn
    3046:	1298                	addi	a4,sp,352
    3048:	0000                	unimp
    304a:	3722                	fld	fa4,40(sp)
    304c:	ab000027          	0xab000027
    3050:	0012                	c.slli	zero,0x4
    3052:	2200                	fld	fs0,0(a2)
    3054:	0000272b          	0x272b
    3058:	12c1                	addi	t0,t0,-16
    305a:	0000                	unimp
    305c:	0027f423          	0x27f423
    3060:	4400                	lw	s0,8(s0)
    3062:	0066                	c.slli	zero,0x19
    3064:	0401                	addi	s0,s0,0
    3066:	0000                	unimp
    3068:	0200                	addi	s0,sp,256
    306a:	02c0                	addi	s0,sp,324
    306c:	0d22                	slli	s10,s10,0x8
    306e:	0028                	addi	a0,sp,8
    3070:	d700                	sw	s0,40(a4)
    3072:	0012                	c.slli	zero,0x4
    3074:	2200                	fld	fs0,0(a2)
    3076:	2801                	jal	3086 <__udivdi3-0x7fd326>
    3078:	0000                	unimp
    307a:	1298                	addi	a4,sp,352
    307c:	0000                	unimp
    307e:	0000                	unimp
    3080:	1e34                	addi	a3,sp,824
    3082:	56000027          	0x56000027
    3086:	0066                	c.slli	zero,0x19
    3088:	0801                	addi	a6,a6,0
    308a:	0000                	unimp
    308c:	0100                	addi	s0,sp,128
    308e:	23740237          	lui	tp,0x23740
    3092:	0000                	unimp
    3094:	4322                	lw	t1,8(sp)
    3096:	ed000027          	0xed000027
    309a:	0012                	c.slli	zero,0x4
    309c:	2200                	fld	fs0,0(a2)
    309e:	00002737          	lui	a4,0x2
    30a2:	1300                	addi	s0,sp,416
    30a4:	0000                	unimp
    30a6:	2b22                	fld	fs6,8(sp)
    30a8:	16000027          	0x16000027
    30ac:	23000013          	li	zero,560
    30b0:	27f4                	fld	fa3,200(a5)
    30b2:	0000                	unimp
    30b4:	6656                	flw	fa2,84(sp)
    30b6:	0100                	addi	s0,sp,128
    30b8:	0008                	0x8
    30ba:	0000                	unimp
    30bc:	c002                	sw	zero,0(sp)
    30be:	2202                	fld	ft4,0(sp)
    30c0:	280d                	jal	30f2 <__udivdi3-0x7fd2ba>
    30c2:	0000                	unimp
    30c4:	132d                	addi	t1,t1,-21
    30c6:	0000                	unimp
    30c8:	0122                	slli	sp,sp,0x8
    30ca:	0028                	addi	a0,sp,8
    30cc:	ed00                	fsw	fs0,24(a0)
    30ce:	0012                	c.slli	zero,0x4
    30d0:	0000                	unimp
    30d2:	3400                	fld	fs0,40(s0)
    30d4:	271e                	fld	fa4,448(sp)
    30d6:	0000                	unimp
    30d8:	665e                	flw	fa2,212(sp)
    30da:	0100                	addi	s0,sp,128
    30dc:	0004                	0x4
    30de:	0000                	unimp
    30e0:	3801                	jal	28f0 <__udivdi3-0x7fdabc>
    30e2:	c702                	sw	zero,140(sp)
    30e4:	22000023          	sb	zero,544(zero) # 220 <__udivdi3-0x80018c>
    30e8:	00002743          	fmadd.s	fa4,ft0,ft0,ft0,rdn
    30ec:	1345                	addi	t1,t1,-15
    30ee:	0000                	unimp
    30f0:	3722                	fld	fa4,40(sp)
    30f2:	58000027          	0x58000027
    30f6:	22000013          	li	zero,544
    30fa:	0000272b          	0x272b
    30fe:	136e                	slli	t1,t1,0x3b
    3100:	0000                	unimp
    3102:	0027f423          	0x27f423
    3106:	5e00                	lw	s0,56(a2)
    3108:	0066                	c.slli	zero,0x19
    310a:	0401                	addi	s0,s0,0
    310c:	0000                	unimp
    310e:	0200                	addi	s0,sp,256
    3110:	02c0                	addi	s0,sp,324
    3112:	0d22                	slli	s10,s10,0x8
    3114:	0028                	addi	a0,sp,8
    3116:	8500                	0x8500
    3118:	22000013          	li	zero,544
    311c:	2801                	jal	312c <__udivdi3-0x7fd280>
    311e:	0000                	unimp
    3120:	1345                	addi	t1,t1,-15
    3122:	0000                	unimp
    3124:	0000                	unimp
    3126:	00271e23          	sh	sp,28(a4) # 201c <__udivdi3-0x7fe390>
    312a:	6200                	flw	fs0,0(a2)
    312c:	0066                	c.slli	zero,0x19
    312e:	0401                	addi	s0,s0,0
    3130:	0000                	unimp
    3132:	0100                	addi	s0,sp,128
    3134:	0239                	addi	tp,tp,14
    3136:	4322                	lw	t1,8(sp)
    3138:	9d000027          	0x9d000027
    313c:	22000013          	li	zero,544
    3140:	00002737          	lui	a4,0x2
    3144:	13b0                	addi	a2,sp,488
    3146:	0000                	unimp
    3148:	2b22                	fld	fs6,8(sp)
    314a:	c6000027          	0xc6000027
    314e:	23000013          	li	zero,560
    3152:	27f4                	fld	fa3,200(a5)
    3154:	0000                	unimp
    3156:	6662                	flw	fa2,24(sp)
    3158:	0100                	addi	s0,sp,128
    315a:	0004                	0x4
    315c:	0000                	unimp
    315e:	c002                	sw	zero,0(sp)
    3160:	2202                	fld	ft4,0(sp)
    3162:	280d                	jal	3194 <__udivdi3-0x7fd218>
    3164:	0000                	unimp
    3166:	13dd                	addi	t2,t2,-9
    3168:	0000                	unimp
    316a:	0122                	slli	sp,sp,0x8
    316c:	0028                	addi	a0,sp,8
    316e:	9d00                	0x9d00
    3170:	00000013          	nop
    3174:	0000                	unimp
    3176:	8d0a                	mv	s10,sp
    3178:	0000                	unimp
    317a:	2700                	fld	fs0,8(a4)
    317c:	0024                	addi	s1,sp,8
    317e:	0b00                	addi	s0,sp,400
    3180:	0038                	addi	a4,sp,8
    3182:	0000                	unimp
    3184:	48440017          	auipc	zero,0x48440
    3188:	000c                	0xc
    318a:	0c00                	addi	s0,sp,528
    318c:	1439                	addi	s0,s0,-18
    318e:	00cd                	addi	ra,ra,19
    3190:	0000                	unimp
    3192:	00245103          	lhu	sp,2(s0) # ffff0002 <_end+0xfefe9506>
    3196:	4100                	lw	s0,0(a0)
    3198:	6468                	flw	fa0,76(s0)
    319a:	0072                	c.slli	zero,0x1c
    319c:	390c                	fld	fa1,48(a0)
    319e:	0024513f 0acf4500 	0xacf45000024513f
    31a6:	0000                	unimp
    31a8:	390c                	fld	fa1,48(a0)
    31aa:	00002c4b          	fnmsub.s	fs8,ft0,ft0,ft0,rdn
    31ae:	0000                	unimp
    31b0:	03230407          	0x3230407
    31b4:	0000                	unimp
    31b6:	de49                	beqz	a2,3150 <__udivdi3-0x7fd25c>
    31b8:	0005                	c.nop	1
    31ba:	0a00                	addi	s0,sp,272
    31bc:	1464                	addi	s1,sp,556
    31be:	00247103          	0x247103
    31c2:	4500                	lw	s0,8(a0)
    31c4:	0c21                	addi	s8,s8,8
    31c6:	0000                	unimp
    31c8:	640a                	flw	fs0,128(sp)
    31ca:	9c42                	add	s8,s8,a6
    31cc:	0005                	c.nop	1
    31ce:	0000                	unimp
    31d0:	104a                	c.slli	zero,0x32
    31d2:	0009                	c.nop	2
    31d4:	0a00                	addi	s0,sp,272
    31d6:	1840                	addi	s0,sp,52
    31d8:	009e                	slli	ra,ra,0x7
    31da:	0000                	unimp
    31dc:	0a4c4403          	lbu	s0,164(s8)
    31e0:	0000                	unimp
    31e2:	7109                	addi	sp,sp,-384
    31e4:	00002513          	slti	a0,zero,0
    31e8:	0300                	addi	s0,sp,384
    31ea:	249c                	fld	fa5,8(s1)
    31ec:	0000                	unimp
    31ee:	6245                	lui	tp,0x11
    31f0:	000a                	c.slli	zero,0x2
    31f2:	0900                	addi	s0,sp,144
    31f4:	2c71                	jal	3490 <__udivdi3-0x7fcf1c>
    31f6:	000002b3          	add	t0,zero,zero
    31fa:	4400                	lw	s0,8(s0)
    31fc:	0608                	addi	a0,sp,768
    31fe:	0000                	unimp
    3200:	5109                	li	sp,-30
    3202:	00002513          	slti	a0,zero,0
    3206:	0300                	addi	s0,sp,384
    3208:	24de                	fld	fs1,464(sp)
    320a:	0000                	unimp
    320c:	6245                	lui	tp,0x11
    320e:	000a                	c.slli	zero,0x2
    3210:	0900                	addi	s0,sp,144
    3212:	2d51                	jal	38a6 <__udivdi3-0x7fcb06>
    3214:	000002b3          	add	t0,zero,zero
    3218:	a645                	j	35b8 <__udivdi3-0x7fcdf4>
    321a:	0001                	nop
    321c:	0900                	addi	s0,sp,144
    321e:	3f51                	jal	31b2 <__udivdi3-0x7fd1fa>
    3220:	008d                	addi	ra,ra,3
    3222:	0000                	unimp
    3224:	6e45                	lui	t3,0x11
    3226:	0002                	c.slli64	zero
    3228:	0900                	addi	s0,sp,144
    322a:	5451                	li	s0,-12
    322c:	00ec                	addi	a1,sp,76
    322e:	0000                	unimp
    3230:	3045                	jal	2ad0 <__udivdi3-0x7fd8dc>
    3232:	0009                	c.nop	2
    3234:	0900                	addi	s0,sp,144
    3236:	6351                	lui	t1,0x14
    3238:	002c                	addi	a1,sp,8
    323a:	0000                	unimp
    323c:	4400                	lw	s0,8(s0)
    323e:	0a96                	slli	s5,s5,0x5
    3240:	0000                	unimp
    3242:	4109                	li	sp,2
    3244:	00002513          	slti	a0,zero,0
    3248:	0300                	addi	s0,sp,384
    324a:	2520                	fld	fs0,72(a0)
    324c:	0000                	unimp
    324e:	6245                	lui	tp,0x11
    3250:	000a                	c.slli	zero,0x2
    3252:	0900                	addi	s0,sp,144
    3254:	2c41                	jal	34e4 <__udivdi3-0x7fcec8>
    3256:	000002b3          	add	t0,zero,zero
    325a:	a645                	j	35fa <__udivdi3-0x7fcdb2>
    325c:	0001                	nop
    325e:	0900                	addi	s0,sp,144
    3260:	3e41                	jal	2df0 <__udivdi3-0x7fd5bc>
    3262:	008d                	addi	ra,ra,3
    3264:	0000                	unimp
    3266:	6e45                	lui	t3,0x11
    3268:	0002                	c.slli64	zero
    326a:	0900                	addi	s0,sp,144
    326c:	4d41                	li	s10,16
    326e:	000000cb          	fnmsub.s	ft1,ft0,ft0,ft0,rne
    3272:	3045                	jal	2b12 <__udivdi3-0x7fd89a>
    3274:	0009                	c.nop	2
    3276:	0900                	addi	s0,sp,144
    3278:	5c41                	li	s8,-16
    327a:	002c                	addi	a1,sp,8
    327c:	0000                	unimp
    327e:	4900                	lw	s0,16(a0)
    3280:	07c9                	addi	a5,a5,18
    3282:	0000                	unimp
    3284:	3009                	jal	2a86 <__udivdi3-0x7fd926>
    3286:	0314                	addi	a3,sp,384
    3288:	253a                	fld	fa0,392(sp)
    328a:	0000                	unimp
    328c:	6245                	lui	tp,0x11
    328e:	000a                	c.slli	zero,0x2
    3290:	0900                	addi	s0,sp,144
    3292:	2e30                	fld	fa2,88(a2)
    3294:	000002b3          	add	t0,zero,zero
    3298:	4400                	lw	s0,8(s0)
    329a:	000008fb          	0x8fb
    329e:	2009                	jal	32a0 <__udivdi3-0x7fd10c>
    32a0:	b31a                	fsd	ft6,416(sp)
    32a2:	0002                	c.slli64	zero
    32a4:	0300                	addi	s0,sp,384
    32a6:	2558                	fld	fa4,136(a0)
    32a8:	0000                	unimp
    32aa:	9a45                	andi	a2,a2,-15
    32ac:	09000007          	0x9000007
    32b0:	3120                	fld	fs0,96(a0)
    32b2:	008d                	addi	ra,ra,3
    32b4:	0000                	unimp
    32b6:	4400                	lw	s0,8(s0)
    32b8:	08d2                	slli	a7,a7,0x14
    32ba:	0000                	unimp
    32bc:	4108                	lw	a0,0(a0)
    32be:	00002513          	slti	a0,zero,0
    32c2:	0300                	addi	s0,sp,384
    32c4:	259a                	fld	fa1,384(sp)
    32c6:	0000                	unimp
    32c8:	6245                	lui	tp,0x11
    32ca:	000a                	c.slli	zero,0x2
    32cc:	0800                	addi	s0,sp,16
    32ce:	2f41                	jal	3a5e <__udivdi3-0x7fc94e>
    32d0:	0218                	addi	a4,sp,256
    32d2:	0000                	unimp
    32d4:	db45                	beqz	a4,3284 <__udivdi3-0x7fd128>
    32d6:	0008                	0x8
    32d8:	0800                	addi	s0,sp,16
    32da:	4b41                	li	s6,16
    32dc:	0266                	slli	tp,tp,0x19
    32de:	0000                	unimp
    32e0:	6e45                	lui	t3,0x11
    32e2:	0002                	c.slli64	zero
    32e4:	0800                	addi	s0,sp,16
    32e6:	5b41                	li	s6,-16
    32e8:	000000cb          	fnmsub.s	ft1,ft0,ft0,ft0,rne
    32ec:	1445                	addi	s0,s0,-15
    32ee:	0005                	c.nop	1
    32f0:	0800                	addi	s0,sp,16
    32f2:	6a41                	lui	s4,0x10
    32f4:	002c                	addi	a1,sp,8
    32f6:	0000                	unimp
    32f8:	4900                	lw	s0,16(a0)
    32fa:	086e                	slli	a6,a6,0x1b
    32fc:	0000                	unimp
    32fe:	3008                	fld	fa0,32(s0)
    3300:	0314                	addi	a3,sp,384
    3302:	25b4                	fld	fa3,72(a1)
    3304:	0000                	unimp
    3306:	6245                	lui	tp,0x11
    3308:	000a                	c.slli	zero,0x2
    330a:	0800                	addi	s0,sp,16
    330c:	2e30                	fld	fa2,88(a2)
    330e:	0218                	addi	a4,sp,256
    3310:	0000                	unimp
    3312:	4400                	lw	s0,8(s0)
    3314:	0ac1                	addi	s5,s5,16
    3316:	0000                	unimp
    3318:	2008                	fld	fa0,0(s0)
    331a:	181a                	slli	a6,a6,0x26
    331c:	0002                	c.slli64	zero
    331e:	0300                	addi	s0,sp,384
    3320:	25de                	fld	fa1,464(sp)
    3322:	0000                	unimp
    3324:	9a45                	andi	a2,a2,-15
    3326:	08000007          	0x8000007
    332a:	3120                	fld	fs0,96(a0)
    332c:	008d                	addi	ra,ra,3
    332e:	0000                	unimp
    3330:	6141                	addi	sp,sp,16
    3332:	6772                	flw	fa4,28(sp)
    3334:	0800                	addi	s0,sp,16
    3336:	3f20                	fld	fs0,120(a4)
    3338:	000000cb          	fnmsub.s	ft1,ft0,ft0,ft0,rne
    333c:	4400                	lw	s0,8(s0)
    333e:	07f5                	addi	a5,a5,29
    3340:	0000                	unimp
    3342:	2513610b          	0x2513610b
    3346:	0000                	unimp
    3348:	0300                	addi	s0,sp,384
    334a:	25fc                	fld	fa5,200(a1)
    334c:	0000                	unimp
    334e:	6245                	lui	tp,0x11
    3350:	000a                	c.slli	zero,0x2
    3352:	0b00                	addi	s0,sp,400
    3354:	2c61                	jal	35ec <__udivdi3-0x7fcdc0>
    3356:	015f 0000 4900      	0x49000000015f
    335c:	0834                	addi	a3,sp,24
    335e:	0000                	unimp
    3360:	0314300b          	0x314300b
    3364:	2616                	fld	fa2,320(sp)
    3366:	0000                	unimp
    3368:	6245                	lui	tp,0x11
    336a:	000a                	c.slli	zero,0x2
    336c:	0b00                	addi	s0,sp,400
    336e:	2e30                	fld	fa2,88(a2)
    3370:	015f 0000 4400      	0x44000000015f
    3376:	06f1                	addi	a3,a3,28
    3378:	0000                	unimp
    337a:	5f1a200b          	0x5f1a200b
    337e:	0001                	nop
    3380:	0300                	addi	s0,sp,384
    3382:	2634                	fld	fa3,72(a2)
    3384:	0000                	unimp
    3386:	9a45                	andi	a2,a2,-15
    3388:	0b000007          	0xb000007
    338c:	3120                	fld	fs0,96(a0)
    338e:	008d                	addi	ra,ra,3
    3390:	0000                	unimp
    3392:	4400                	lw	s0,8(s0)
    3394:	0c9e                	slli	s9,s9,0x7
    3396:	0000                	unimp
    3398:	6106                	flw	ft2,64(sp)
    339a:	00002513          	slti	a0,zero,0
    339e:	0300                	addi	s0,sp,384
    33a0:	2652                	fld	fa2,272(sp)
    33a2:	0000                	unimp
    33a4:	6245                	lui	tp,0x11
    33a6:	000a                	c.slli	zero,0x2
    33a8:	0600                	addi	s0,sp,768
    33aa:	3661                	jal	2f32 <__udivdi3-0x7fd47a>
    33ac:	0148                	addi	a0,sp,132
    33ae:	0000                	unimp
    33b0:	4900                	lw	s0,16(a0)
    33b2:	07df 0000 3006      	0x3006000007df
    33b8:	0314                	addi	a3,sp,384
    33ba:	266c                	fld	fa1,200(a2)
    33bc:	0000                	unimp
    33be:	6245                	lui	tp,0x11
    33c0:	000a                	c.slli	zero,0x2
    33c2:	0600                	addi	s0,sp,768
    33c4:	2e30                	fld	fa2,88(a2)
    33c6:	0148                	addi	a0,sp,132
    33c8:	0000                	unimp
    33ca:	4a00                	lw	s0,16(a2)
    33cc:	000008b3          	add	a7,zero,zero
    33d0:	2006                	fld	ft0,64(sp)
    33d2:	481a                	lw	a6,132(sp)
    33d4:	0001                	nop
    33d6:	0300                	addi	s0,sp,384
    33d8:	6e44                	flw	fs1,28(a2)
    33da:	0500000b          	0x500000b
    33de:	1361                	addi	t1,t1,-8
    33e0:	0025                	c.nop	9
    33e2:	0000                	unimp
    33e4:	00269703          	lh	a4,2(a3) # 473a <__udivdi3-0x7fbc72>
    33e8:	4500                	lw	s0,8(a0)
    33ea:	0a62                	slli	s4,s4,0x18
    33ec:	0000                	unimp
    33ee:	6105                	addi	sp,sp,32
    33f0:	112a                	slli	sp,sp,0x2a
    33f2:	0001                	nop
    33f4:	0000                	unimp
    33f6:	6144                	flw	fs1,4(a0)
    33f8:	000c                	0xc
    33fa:	0500                	addi	s0,sp,640
    33fc:	1351                	addi	t1,t1,-12
    33fe:	0025                	c.nop	9
    3400:	0000                	unimp
    3402:	0026c103          	lbu	sp,2(a3)
    3406:	4500                	lw	s0,8(a0)
    3408:	0a62                	slli	s4,s4,0x18
    340a:	0000                	unimp
    340c:	5105                	li	sp,-31
    340e:	1129                	addi	sp,sp,-22
    3410:	0001                	nop
    3412:	4500                	lw	s0,8(a0)
    3414:	0130                	addi	a2,sp,136
    3416:	0000                	unimp
    3418:	5105                	li	sp,-31
    341a:	00008d3b          	0x8d3b
    341e:	0000                	unimp
    3420:	0a44                	addi	s1,sp,276
    3422:	0008                	0x8
    3424:	0500                	addi	s0,sp,640
    3426:	1341                	addi	t1,t1,-16
    3428:	0025                	c.nop	9
    342a:	0000                	unimp
    342c:	0026f703          	0x26f703
    3430:	4500                	lw	s0,8(a0)
    3432:	0a62                	slli	s4,s4,0x18
    3434:	0000                	unimp
    3436:	4105                	li	sp,1
    3438:	112c                	addi	a1,sp,168
    343a:	0001                	nop
    343c:	4500                	lw	s0,8(a0)
    343e:	000005c7          	fmsub.s	fa1,ft0,ft0,ft0,rne
    3442:	4105                	li	sp,1
    3444:	8d3e                	mv	s10,a5
    3446:	0000                	unimp
    3448:	4500                	lw	s0,8(a0)
    344a:	000005cf          	fnmadd.s	fa1,ft0,ft0,ft0,rne
    344e:	4105                	li	sp,1
    3450:	8d50                	0x8d50
    3452:	0000                	unimp
    3454:	0000                	unimp
    3456:	1249                	addi	tp,tp,-14
    3458:	0500000b          	0x500000b
    345c:	1430                	addi	a2,sp,552
    345e:	00271103          	lh	sp,2(a4) # 2002 <__udivdi3-0x7fe3aa>
    3462:	4500                	lw	s0,8(a0)
    3464:	0a62                	slli	s4,s4,0x18
    3466:	0000                	unimp
    3468:	3005                	jal	2c88 <__udivdi3-0x7fd724>
    346a:	112c                	addi	a1,sp,168
    346c:	0001                	nop
    346e:	0000                	unimp
    3470:	744a                	flw	fs0,176(sp)
    3472:	05000007          	0x5000007
    3476:	1920                	addi	s0,sp,184
    3478:	0111                	addi	sp,sp,4
    347a:	0000                	unimp
    347c:	05474903          	lbu	s2,84(a4)
    3480:	0000                	unimp
    3482:	be02                	fsd	ft0,312(sp)
    3484:	0314                	addi	a3,sp,384
    3486:	2750                	fld	fa2,136(a4)
    3488:	0000                	unimp
    348a:	fb45                	bnez	a4,343a <__udivdi3-0x7fcf72>
    348c:	0001                	nop
    348e:	0200                	addi	s0,sp,256
    3490:	2cbe                	fld	fs9,456(sp)
    3492:	008d                	addi	ra,ra,3
    3494:	0000                	unimp
    3496:	7241                	lui	tp,0xffff0
    3498:	6765                	lui	a4,0x19
    349a:	0200                	addi	s0,sp,256
    349c:	3bbe                	fld	fs7,488(sp)
    349e:	008d                	addi	ra,ra,3
    34a0:	0000                	unimp
    34a2:	3045                	jal	2d42 <__udivdi3-0x7fd66a>
    34a4:	0001                	nop
    34a6:	0200                	addi	s0,sp,256
    34a8:	49be                	lw	s3,204(sp)
    34aa:	008d                	addi	ra,ra,3
    34ac:	0000                	unimp
    34ae:	4400                	lw	s0,8(s0)
    34b0:	0556                	slli	a0,a0,0x15
    34b2:	0000                	unimp
    34b4:	b002                	fsd	ft0,32(sp)
    34b6:	8d18                	0x8d18
    34b8:	0000                	unimp
    34ba:	0300                	addi	s0,sp,384
    34bc:	277a                	fld	fa4,408(sp)
    34be:	0000                	unimp
    34c0:	fb45                	bnez	a4,3470 <__udivdi3-0x7fcf3c>
    34c2:	0001                	nop
    34c4:	0200                	addi	s0,sp,256
    34c6:	2fb0                	fld	fa2,88(a5)
    34c8:	008d                	addi	ra,ra,3
    34ca:	0000                	unimp
    34cc:	7241                	lui	tp,0xffff0
    34ce:	6765                	lui	a4,0x19
    34d0:	0200                	addi	s0,sp,256
    34d2:	3eb0                	fld	fa2,120(a3)
    34d4:	008d                	addi	ra,ra,3
    34d6:	0000                	unimp
    34d8:	4400                	lw	s0,8(s0)
    34da:	065d                	addi	a2,a2,23
    34dc:	0000                	unimp
    34de:	2802                	fld	fa6,0(sp)
    34e0:	cd14                	sw	a3,24(a0)
    34e2:	0000                	unimp
    34e4:	0300                	addi	s0,sp,384
    34e6:	2798                	fld	fa4,8(a5)
    34e8:	0000                	unimp
    34ea:	6245                	lui	tp,0x11
    34ec:	000a                	c.slli	zero,0x2
    34ee:	0200                	addi	s0,sp,256
    34f0:	3028                	fld	fa0,96(s0)
    34f2:	0105                	addi	sp,sp,1
    34f4:	0000                	unimp
    34f6:	4900                	lw	s0,16(a0)
    34f8:	063e                	slli	a2,a2,0xf
    34fa:	0000                	unimp
    34fc:	03147e07          	0x3147e07
    3500:	27b2                	fld	fa5,264(sp)
    3502:	0000                	unimp
    3504:	8245                	srli	a2,a2,0x11
    3506:	000c                	0xc
    3508:	0700                	addi	s0,sp,896
    350a:	297e                	fld	fs2,472(sp)
    350c:	008d                	addi	ra,ra,3
    350e:	0000                	unimp
    3510:	4a00                	lw	s0,16(a2)
    3512:	0884                	addi	s1,sp,80
    3514:	0000                	unimp
    3516:	200e                	fld	ft0,192(sp)
    3518:	00002513          	slti	a0,zero,0
    351c:	0300                	addi	s0,sp,384
    351e:	f04a                	fsw	fs2,32(sp)
    3520:	000c                	0xc
    3522:	0d00                	addi	s0,sp,656
    3524:	2232                	fld	ft4,264(sp)
    3526:	0025                	c.nop	9
    3528:	0000                	unimp
    352a:	087d4403          	lbu	s0,135(s10) # 19087 <__udivdi3-0x7e7325>
    352e:	0000                	unimp
    3530:	200d                	jal	3552 <__udivdi3-0x7fce5a>
    3532:	00002513          	slti	a0,zero,0
    3536:	0300                	addi	s0,sp,384
    3538:	27ea                	fld	fa5,152(sp)
    353a:	0000                	unimp
    353c:	000a6a4b          	fnmsub.s	fs4,fs4,ft0,ft0,unknown
    3540:	0d00                	addi	s0,sp,656
    3542:	0d22                	slli	s10,s10,0x8
    3544:	0025                	c.nop	9
    3546:	0000                	unimp
    3548:	4c00                	lw	s0,24(s0)
    354a:	097c                	addi	a5,sp,156
    354c:	0000                	unimp
    354e:	6404                	flw	fs1,8(s0)
    3550:	1b01                	addi	s6,s6,-32
    3552:	01244903          	lbu	s2,18(s0)
    3556:	0000                	unimp
    3558:	031b3003          	0x31b3003
    355c:	281a                	fld	fa6,384(sp)
    355e:	0000                	unimp
    3560:	c045                	beqz	s0,3600 <__udivdi3-0x7fcdac>
    3562:	0001                	nop
    3564:	0300                	addi	s0,sp,384
    3566:	3030                	fld	fa2,96(s0)
    3568:	008d                	addi	ra,ra,3
    356a:	0000                	unimp
    356c:	0045                	c.nop	17
    356e:	0002                	c.slli64	zero
    3570:	0300                	addi	s0,sp,384
    3572:	4130                	lw	a2,64(a0)
    3574:	000000f3          	0xf3
    3578:	4400                	lw	s0,8(s0)
    357a:	01f0                	addi	a2,sp,204
    357c:	0000                	unimp
    357e:	8d1f2b03          	lw	s6,-1839(t5) # 198d1 <__udivdi3-0x7e6adb>
    3582:	0000                	unimp
    3584:	0300                	addi	s0,sp,384
    3586:	2838                	fld	fa4,80(s0)
    3588:	0000                	unimp
    358a:	0045                	c.nop	17
    358c:	0002                	c.slli64	zero
    358e:	0300                	addi	s0,sp,384
    3590:	00f3352b          	0xf3352b
    3594:	0000                	unimp
    3596:	4d00                	lw	s0,24(a0)
    3598:	00001763          	bnez	zero,35a6 <__udivdi3-0x7fce06>
    359c:	6730                	flw	fa2,72(a4)
    359e:	0100                	addi	s0,sp,128
    35a0:	0098                	addi	a4,sp,64
    35a2:	0000                	unimp
    35a4:	9c01                	0x9c01
    35a6:	298a                	fld	fs3,128(sp)
    35a8:	0000                	unimp
    35aa:	7422                	flw	fs0,40(sp)
    35ac:	f5000017          	auipc	zero,0xf5000
    35b0:	22000013          	li	zero,544
    35b4:	177e                	slli	a4,a4,0x3f
    35b6:	0000                	unimp
    35b8:	142c                	addi	a1,sp,552
    35ba:	0000                	unimp
    35bc:	8929                	andi	a0,a0,10
    35be:	63000017          	auipc	zero,0x63000
    35c2:	0014                	0x14
    35c4:	2900                	fld	fs0,16(a0)
    35c6:	1795                	addi	a5,a5,-27
    35c8:	0000                	unimp
    35ca:	00001497          	auipc	s1,0x1
    35ce:	b43c                	fsd	fa5,104(s0)
    35d0:	0025                	c.nop	9
    35d2:	3000                	fld	fs0,32(s0)
    35d4:	30010067          	jr	768(sp)
    35d8:	0001                	nop
    35da:	0100                	addi	s0,sp,128
    35dc:	136e                	slli	t1,t1,0x3b
    35de:	28aa                	fld	fa7,136(sp)
    35e0:	0000                	unimp
    35e2:	d122                	sw	s0,160(sp)
    35e4:	0025                	c.nop	9
    35e6:	c200                	sw	s0,0(a2)
    35e8:	0014                	0x14
    35ea:	2200                	fld	fs0,0(a2)
    35ec:	25c5                	jal	3ccc <__udivdi3-0x7fc6e0>
    35ee:	0000                	unimp
    35f0:	14d6                	slli	s1,s1,0x35
    35f2:	0000                	unimp
    35f4:	5635                	li	a2,-19
    35f6:	cf010067          	jr	-784(sp)
    35fa:	3600002b          	0x3600002b
    35fe:	5a01                	li	s4,-32
    3600:	3101                	jal	3200 <__udivdi3-0x7fd1ac>
    3602:	0136                	slli	sp,sp,0xd
    3604:	0030015b          	0x30015b
    3608:	3f00                	fld	fs0,56(a4)
    360a:	17a1                	addi	a5,a5,-24
    360c:	0000                	unimp
    360e:	0148                	addi	a0,sp,132
    3610:	0000                	unimp
    3612:	295f 0000 a229      	0xa2290000295f
    3618:	ea000017          	auipc	zero,0xea000
    361c:	0014                	0x14
    361e:	2500                	fld	fs0,8(a0)
    3620:	17ae                	slli	a5,a5,0x2b
    3622:	0000                	unimp
    3624:	675c                	flw	fa5,12(a4)
    3626:	0100                	addi	s0,sp,128
    3628:	0160                	addi	s0,sp,140
    362a:	0000                	unimp
    362c:	7701                	lui	a4,0xfffe0
    362e:	220a                	fld	ft4,128(sp)
    3630:	000017d7          	0x17d7
    3634:	1514                	addi	a3,sp,672
    3636:	0000                	unimp
    3638:	cb22                	sw	s0,148(sp)
    363a:	32000017          	auipc	zero,0x32000
    363e:	0015                	c.nop	5
    3640:	2200                	fld	fs0,0(a2)
    3642:	000017bf 00001545 	0x1545000017bf
    364a:	0017e343          	fmadd.s	ft6,fa5,ft1,ft0,unknown
    364e:	7800                	flw	fs0,48(s0)
    3650:	0001                	nop
    3652:	2900                	fld	fs0,16(a0)
    3654:	17e4                	addi	s1,sp,1004
    3656:	0000                	unimp
    3658:	1558                	addi	a4,sp,676
    365a:	0000                	unimp
    365c:	f029                	bnez	s0,359e <__udivdi3-0x7fce0e>
    365e:	76000017          	auipc	zero,0x76000
    3662:	0015                	c.nop	5
    3664:	2500                	fld	fs0,8(a0)
    3666:	2558                	fld	fa4,136(a0)
    3668:	0000                	unimp
    366a:	677e                	flw	fa4,220(sp)
    366c:	0100                	addi	s0,sp,128
    366e:	0198                	addi	a4,sp,192
    3670:	0000                	unimp
    3672:	6401                	0x6401
    3674:	220d                	jal	3796 <__udivdi3-0x7fcc16>
    3676:	258d                	jal	3cd8 <__udivdi3-0x7fc6d4>
    3678:	0000                	unimp
    367a:	1594                	addi	a3,sp,736
    367c:	0000                	unimp
    367e:	8122                	mv	sp,s0
    3680:	0025                	c.nop	9
    3682:	a700                	fsd	fs0,8(a4)
    3684:	0015                	c.nop	5
    3686:	2200                	fld	fs0,0(a2)
    3688:	2575                	jal	3d34 <__udivdi3-0x7fc678>
    368a:	0000                	unimp
    368c:	15ba                	slli	a1,a1,0x2e
    368e:	0000                	unimp
    3690:	6922                	flw	fs2,8(sp)
    3692:	0025                	c.nop	9
    3694:	ce00                	sw	s0,24(a2)
    3696:	0015                	c.nop	5
    3698:	3500                	fld	fs0,40(a0)
    369a:	678e                	flw	fa5,192(sp)
    369c:	0100                	addi	s0,sp,128
    369e:	00002c6b          	0x2c6b
    36a2:	0136                	slli	sp,sp,0xd
    36a4:	025a                	slli	tp,tp,0x16
    36a6:	0084                	addi	s1,sp,64
    36a8:	0136                	slli	sp,sp,0xd
    36aa:	3631015b          	0x3631015b
    36ae:	5c01                	li	s8,-32
    36b0:	8302                	jr	t1
    36b2:	3600                	fld	fs0,40(a2)
    36b4:	5d01                	li	s10,-32
    36b6:	7902                	flw	fs2,32(sp)
    36b8:	0000                	unimp
    36ba:	0000                	unimp
    36bc:	0000                	unimp
    36be:	00259a23          	sh	sp,20(a1)
    36c2:	9400                	0x9400
    36c4:	0a010067          	jr	160(sp)
    36c8:	0000                	unimp
    36ca:	0100                	addi	s0,sp,128
    36cc:	a722027b          	0xa722027b
    36d0:	0025                	c.nop	9
    36d2:	e100                	fsw	fs0,0(a0)
    36d4:	0015                	c.nop	5
    36d6:	3500                	fld	fs0,40(a0)
    36d8:	679e                	flw	fa5,196(sp)
    36da:	0100                	addi	s0,sp,128
    36dc:	00002bf3          	csrr	s7,ustatus
    36e0:	0136                	slli	sp,sp,0xd
    36e2:	025a                	slli	tp,tp,0x16
    36e4:	0084                	addi	s1,sp,64
    36e6:	0000                	unimp
    36e8:	4d00                	lw	s0,24(a0)
    36ea:	1560                	addi	s0,sp,684
    36ec:	0000                	unimp
    36ee:	683a                	flw	fa6,140(sp)
    36f0:	0100                	addi	s0,sp,128
    36f2:	0066                	c.slli	zero,0x19
    36f4:	0000                	unimp
    36f6:	9c01                	0x9c01
    36f8:	29fc                	fld	fa5,208(a1)
    36fa:	0000                	unimp
    36fc:	7122                	flw	ft2,40(sp)
    36fe:	0015                	c.nop	5
    3700:	f400                	fsw	fs0,40(s0)
    3702:	0015                	c.nop	5
    3704:	2200                	fld	fs0,0(a2)
    3706:	0000157b          	0x157b
    370a:	0000162b          	0x162b
    370e:	8629                	srai	a2,a2,0xa
    3710:	0015                	c.nop	5
    3712:	6200                	flw	fs0,0(a2)
    3714:	0016                	c.slli	zero,0x5
    3716:	2900                	fld	fs0,16(a0)
    3718:	1592                	slli	a1,a1,0x24
    371a:	0000                	unimp
    371c:	1696                	slli	a3,a3,0x25
    371e:	0000                	unimp
    3720:	00159e3f 00020800 	0x2080000159e3f
    3728:	d800                	sw	s0,48(s0)
    372a:	0029                	c.nop	10
    372c:	2900                	fld	fs0,16(a0)
    372e:	159f 0000 16cc      	0x16cc0000159f
    3734:	0000                	unimp
    3736:	3d00                	fld	fs0,56(a0)
    3738:	6856                	flw	fa6,84(sp)
    373a:	0100                	addi	s0,sp,128
    373c:	00002c53          	fadd.s	fs8,ft0,ft0,rdn
    3740:	000029eb          	0x29eb
    3744:	0136                	slli	sp,sp,0xd
    3746:	015a                	slli	sp,sp,0x16
    3748:	0031                	c.nop	12
    374a:	8635                	srai	a2,a2,0xd
    374c:	0068                	addi	a0,sp,12
    374e:	5f01                	li	t5,-32
    3750:	002c                	addi	a1,sp,8
    3752:	3600                	fld	fs0,40(a2)
    3754:	5a01                	li	s4,-32
    3756:	8302                	jr	t1
    3758:	0000                	unimp
    375a:	4d00                	lw	s0,24(a0)
    375c:	07ce                	slli	a5,a5,0x13
    375e:	0000                	unimp
    3760:	6a46                	flw	fs4,80(sp)
    3762:	0100                	addi	s0,sp,128
    3764:	001c                	0x1c
    3766:	0000                	unimp
    3768:	9c01                	0x9c01
    376a:	00002ae7          	0x2ae7
    376e:	e04e                	fsw	fs3,0(sp)
    3770:	01000007          	0x1000007
    3774:	07ed4e5b          	0x7ed4e5b
    3778:	0000                	unimp
    377a:	5a01                	li	s4,-32
    377c:	fa4e                	fsw	fs3,52(sp)
    377e:	01000007          	0x1000007
    3782:	215f 2750 0000      	0x2750215f
    3788:	6a46                	flw	fs4,80(sp)
    378a:	0100                	addi	s0,sp,128
    378c:	0008                	0x8
    378e:	0000                	unimp
    3790:	0301                	addi	t1,t1,0
    3792:	1601                	addi	a2,a2,-32
    3794:	2a66                	fld	fs4,88(sp)
    3796:	0000                	unimp
    3798:	6d22                	flw	fs10,8(sp)
    379a:	03000027          	0x3000027
    379e:	22000017          	auipc	zero,0x22000
    37a2:	2761                	jal	3f2a <__udivdi3-0x7fc482>
    37a4:	0000                	unimp
    37a6:	1719                	addi	a4,a4,-26
    37a8:	0000                	unimp
    37aa:	00281a23          	sh	sp,20(a6)
    37ae:	4600                	lw	s0,8(a2)
    37b0:	006a                	c.slli	zero,0x1a
    37b2:	0801                	addi	a6,a6,0
    37b4:	0000                	unimp
    37b6:	0200                	addi	s0,sp,256
    37b8:	09b2                	slli	s3,s3,0xc
    37ba:	2b22                	fld	fs6,8(sp)
    37bc:	0028                	addi	a0,sp,8
    37be:	2f00                	fld	fs0,24(a4)
    37c0:	00000017          	auipc	zero,0x0
    37c4:	2100                	fld	fs0,0(a0)
    37c6:	2750                	fld	fa2,136(a4)
    37c8:	0000                	unimp
    37ca:	6a4e                	flw	fs4,208(sp)
    37cc:	0100                	addi	s0,sp,128
    37ce:	0004                	0x4
    37d0:	0000                	unimp
    37d2:	0401                	addi	s0,s0,0
    37d4:	1501                	addi	a0,a0,-32
    37d6:	2aa8                	fld	fa0,80(a3)
    37d8:	0000                	unimp
    37da:	6d22                	flw	fs10,8(sp)
    37dc:	47000027          	0x47000027
    37e0:	22000017          	auipc	zero,0x22000
    37e4:	2761                	jal	3f6c <__udivdi3-0x7fc440>
    37e6:	0000                	unimp
    37e8:	175d                	addi	a4,a4,-9
    37ea:	0000                	unimp
    37ec:	00281a23          	sh	sp,20(a6)
    37f0:	4e00                	lw	s0,24(a2)
    37f2:	006a                	c.slli	zero,0x1a
    37f4:	0401                	addi	s0,s0,0
    37f6:	0000                	unimp
    37f8:	0200                	addi	s0,sp,256
    37fa:	09b2                	slli	s3,s3,0xc
    37fc:	2b22                	fld	fs6,8(sp)
    37fe:	0028                	addi	a0,sp,8
    3800:	7300                	flw	fs0,32(a4)
    3802:	00000017          	auipc	zero,0x0
    3806:	2a00                	fld	fs0,16(a2)
    3808:	2750                	fld	fa2,136(a4)
    380a:	0000                	unimp
    380c:	6a52                	flw	fs4,20(sp)
    380e:	0100                	addi	s0,sp,128
    3810:	0004                	0x4
    3812:	0000                	unimp
    3814:	0501                	addi	a0,a0,0
    3816:	1701                	addi	a4,a4,-32
    3818:	6d22                	flw	fs10,8(sp)
    381a:	8b000027          	0x8b000027
    381e:	22000017          	auipc	zero,0x22000
    3822:	2761                	jal	3faa <__udivdi3-0x7fc402>
    3824:	0000                	unimp
    3826:	17a1                	addi	a5,a5,-24
    3828:	0000                	unimp
    382a:	00281a23          	sh	sp,20(a6)
    382e:	5200                	lw	s0,32(a2)
    3830:	006a                	c.slli	zero,0x1a
    3832:	0401                	addi	s0,s0,0
    3834:	0000                	unimp
    3836:	0200                	addi	s0,sp,256
    3838:	09b2                	slli	s3,s3,0xc
    383a:	2b22                	fld	fs6,8(sp)
    383c:	0028                	addi	a0,sp,8
    383e:	b700                	fsd	fs0,40(a4)
    3840:	00000017          	auipc	zero,0x0
    3844:	0000                	unimp
    3846:	804d                	srli	s0,s0,0x13
    3848:	0005                	c.nop	1
    384a:	c800                	sw	s0,16(s0)
    384c:	006a                	c.slli	zero,0x1a
    384e:	2e01                	jal	3b5e <__udivdi3-0x7fc84e>
    3850:	0000                	unimp
    3852:	0100                	addi	s0,sp,128
    3854:	a29c                	fsd	fa5,0(a3)
    3856:	2200002b          	0x2200002b
    385a:	058e                	slli	a1,a1,0x3
    385c:	0000                	unimp
    385e:	000017cf          	fnmadd.s	fa5,ft0,ft0,ft0,rtz
    3862:	5021                	c.li	zero,-24
    3864:	dc000027          	0xdc000027
    3868:	006a                	c.slli	zero,0x1a
    386a:	0601                	addi	a2,a2,0
    386c:	0000                	unimp
    386e:	0100                	addi	s0,sp,128
    3870:	0124                	addi	s1,sp,136
    3872:	4514                	lw	a3,8(a0)
    3874:	2200002b          	0x2200002b
    3878:	276d                	jal	4022 <__udivdi3-0x7fc38a>
    387a:	0000                	unimp
    387c:	000017fb          	0x17fb
    3880:	6122                	flw	ft2,8(sp)
    3882:	11000027          	0x11000027
    3886:	0018                	0x18
    3888:	2300                	fld	fs0,0(a4)
    388a:	281a                	fld	fa6,384(sp)
    388c:	0000                	unimp
    388e:	6adc                	flw	fa5,20(a3)
    3890:	0100                	addi	s0,sp,128
    3892:	0006                	c.slli	zero,0x1
    3894:	0000                	unimp
    3896:	b202                	fsd	ft0,288(sp)
    3898:	2209                	jal	399a <__udivdi3-0x7fca12>
    389a:	0000282b          	0x282b
    389e:	00001827          	0x1827
    38a2:	0000                	unimp
    38a4:	5021                	c.li	zero,-24
    38a6:	e6000027          	0xe6000027
    38aa:	006a                	c.slli	zero,0x1a
    38ac:	0401                	addi	s0,s0,0
    38ae:	0000                	unimp
    38b0:	0100                	addi	s0,sp,128
    38b2:	0125                	addi	sp,sp,9
    38b4:	002b8713          	addi	a4,s7,2 # 2002 <__udivdi3-0x7fe3aa>
    38b8:	2200                	fld	fs0,0(a2)
    38ba:	276d                	jal	4064 <__udivdi3-0x7fc348>
    38bc:	0000                	unimp
    38be:	183d                	addi	a6,a6,-17
    38c0:	0000                	unimp
    38c2:	6122                	flw	ft2,8(sp)
    38c4:	53000027          	0x53000027
    38c8:	0018                	0x18
    38ca:	2300                	fld	fs0,0(a4)
    38cc:	281a                	fld	fa6,384(sp)
    38ce:	0000                	unimp
    38d0:	6ae6                	flw	fs5,88(sp)
    38d2:	0100                	addi	s0,sp,128
    38d4:	0004                	0x4
    38d6:	0000                	unimp
    38d8:	b202                	fsd	ft0,288(sp)
    38da:	2209                	jal	39dc <__udivdi3-0x7fc9d0>
    38dc:	0000282b          	0x282b
    38e0:	1869                	addi	a6,a6,-6
    38e2:	0000                	unimp
    38e4:	0000                	unimp
    38e6:	dc35                	beqz	s0,3862 <__udivdi3-0x7fcb4a>
    38e8:	006a                	c.slli	zero,0x1a
    38ea:	c301                	beqz	a4,38ea <__udivdi3-0x7fcac2>
    38ec:	3600002b          	0x3600002b
    38f0:	5a01                	li	s4,-32
    38f2:	7802                	flw	fa6,32(sp)
    38f4:	3600                	fld	fs0,40(a2)
    38f6:	5b01                	li	s6,-32
    38f8:	3001                	jal	30f8 <__udivdi3-0x7fd2b4>
    38fa:	0136                	slli	sp,sp,0xd
    38fc:	015c                	addi	a5,sp,132
    38fe:	003c                	addi	a5,sp,8
    3900:	4f00                	lw	s0,24(a4)
    3902:	0819                	addi	a6,a6,6
    3904:	0000                	unimp
    3906:	0819                	addi	a6,a6,6
    3908:	0000                	unimp
    390a:	8f50                	0x8f50
    390c:	000a                	c.slli	zero,0x2
    390e:	8f00                	0x8f00
    3910:	000a                	c.slli	zero,0x2
    3912:	0900                	addi	s0,sp,144
    3914:	0c3e                	slli	s8,s8,0xf
    3916:	4a50                	lw	a2,20(a2)
    3918:	0006                	c.slli	zero,0x1
    391a:	4a00                	lw	s0,16(a2)
    391c:	0006                	c.slli	zero,0x1
    391e:	1700                	addi	s0,sp,928
    3920:	0a40                	addi	s0,sp,276
    3922:	5550                	lw	a2,44(a0)
    3924:	55000007          	0x55000007
    3928:	1d000007          	0x1d000007
    392c:	0f2a                	slli	t5,t5,0xa
    392e:	ba50                	fsd	fa2,176(a2)
    3930:	000a                	c.slli	zero,0x2
    3932:	ba00                	fsd	fs0,48(a2)
    3934:	000a                	c.slli	zero,0x2
    3936:	0800                	addi	s0,sp,16
    3938:	131d                	addi	t1,t1,-25
    393a:	ea50                	fsw	fa2,20(a2)
    393c:	0006                	c.slli	zero,0x1
    393e:	ea00                	fsw	fs0,16(a2)
    3940:	0006                	c.slli	zero,0x1
    3942:	0b00                	addi	s0,sp,400
    3944:	131d                	addi	t1,t1,-25
    3946:	2d50                	fld	fa2,152(a0)
    3948:	0008                	0x8
    394a:	2d00                	fld	fs0,24(a0)
    394c:	0008                	0x8
    394e:	0b00                	addi	s0,sp,400
    3950:	0d2d                	addi	s10,s10,11
    3952:	6750                	flw	fa2,12(a4)
    3954:	0008                	0x8
    3956:	6700                	flw	fs0,8(a4)
    3958:	0008                	0x8
    395a:	0800                	addi	s0,sp,16
    395c:	0d2d                	addi	s10,s10,11
    395e:	ee50                	fsw	fa2,28(a2)
    3960:	ee000007          	0xee000007
    3964:	0b000007          	0xb000007
    3968:	0c5e                	slli	s8,s8,0x17
    396a:	a050                	fsd	fa2,128(s0)
    396c:	0006                	c.slli	zero,0x1
    396e:	a000                	fsd	fs0,0(s0)
    3970:	0006                	c.slli	zero,0x1
    3972:	1400                	addi	s0,sp,544
    3974:	f4500587          	0xf4500587
    3978:	0008                	0x8
    397a:	f400                	fsw	fs0,40(s0)
    397c:	0008                	0x8
    397e:	0900                	addi	s0,sp,144
    3980:	131d                	addi	t1,t1,-25
    3982:	0150                	addi	a2,sp,132
    3984:	0006                	c.slli	zero,0x1
    3986:	0100                	addi	s0,sp,128
    3988:	0006                	c.slli	zero,0x1
    398a:	0900                	addi	s0,sp,144
    398c:	0c4e                	slli	s8,s8,0x13
    398e:	c250                	sw	a2,4(a2)
    3990:	c2000007          	0xc2000007
    3994:	09000007          	0x9000007
    3998:	0d2d                	addi	s10,s10,11
    399a:	4550                	lw	a2,12(a0)
    399c:	000a                	c.slli	zero,0x2
    399e:	4500                	lw	s0,8(a0)
    39a0:	000a                	c.slli	zero,0x2
    39a2:	0900                	addi	s0,sp,144
    39a4:	0c6e                	slli	s8,s8,0x1b
    39a6:	ff50                	fsw	fa2,60(a4)
    39a8:	0006                	c.slli	zero,0x1
    39aa:	ff00                	fsw	fs0,56(a4)
    39ac:	0006                	c.slli	zero,0x1
    39ae:	1500                	addi	s0,sp,672
    39b0:	053e                	slli	a0,a0,0xf
    39b2:	f350                	fsw	fa2,36(a4)
    39b4:	0005                	c.nop	1
    39b6:	f300                	fsw	fs0,32(a4)
    39b8:	0005                	c.nop	1
    39ba:	1500                	addi	s0,sp,672
    39bc:	be500c27          	0xbe500c27
    39c0:	0006                	c.slli	zero,0x1
    39c2:	be00                	fsd	fs0,56(a2)
    39c4:	0006                	c.slli	zero,0x1
    39c6:	1500                	addi	s0,sp,672
    39c8:	0630                	addi	a2,sp,776
    39ca:	cb50                	sw	a2,20(a4)
    39cc:	0008                	0x8
    39ce:	cb00                	sw	s0,16(a4)
    39d0:	0008                	0x8
    39d2:	0800                	addi	s0,sp,16
    39d4:	0c3e                	slli	s8,s8,0xf
    39d6:	ac50                	fsd	fa2,152(s0)
    39d8:	0008                	0x8
    39da:	ac00                	fsd	fs0,24(s0)
    39dc:	0008                	0x8
    39de:	0600                	addi	s0,sp,768
    39e0:	131d                	addi	t1,t1,-25
    39e2:	9750                	0x9750
    39e4:	000c                	0xc
    39e6:	9700                	0x9700
    39e8:	000c                	0xc
    39ea:	0600                	addi	s0,sp,768
    39ec:	0c5e                	slli	s8,s8,0x17
    39ee:	d850                	sw	a2,52(s0)
    39f0:	d8000007          	0xd8000007
    39f4:	06000007          	0x6000007
    39f8:	0d2d                	addi	s10,s10,11
    39fa:	3750                	fld	fa2,168(a4)
    39fc:	0006                	c.slli	zero,0x1
    39fe:	3700                	fld	fs0,40(a4)
    3a00:	0006                	c.slli	zero,0x1
    3a02:	0700                	addi	s0,sp,896
    3a04:	6d500d7b          	0x6d500d7b
    3a08:	6d000007          	0x6d000007
    3a0c:	05000007          	0x5000007
    3a10:	121d                	addi	tp,tp,-25
    3a12:	0350                	addi	a2,sp,388
    3a14:	0008                	0x8
    3a16:	0300                	addi	s0,sp,384
    3a18:	0008                	0x8
    3a1a:	0500                	addi	s0,sp,640
    3a1c:	0c3e                	slli	s8,s8,0xf
    3a1e:	5a50                	lw	a2,52(a2)
    3a20:	000c                	0xc
    3a22:	5a00                	lw	s0,48(a2)
    3a24:	000c                	0xc
    3a26:	0500                	addi	s0,sp,640
    3a28:	0c4e                	slli	s8,s8,0x13
    3a2a:	6750                	flw	fa2,12(a4)
    3a2c:	6700000b          	0x6700000b
    3a30:	0500000b          	0x500000b
    3a34:	0c5e                	slli	s8,s8,0x17
    3a36:	0b50                	addi	a2,sp,404
    3a38:	0b00000b          	0xb00000b
    3a3c:	0500000b          	0x500000b
    3a40:	0d2d                	addi	s10,s10,11
	...

Disassembly of section .debug_abbrev:

00000000 <.debug_abbrev>:
   0:	1101                	addi	sp,sp,-32
   2:	2501                	jal	602 <__udivdi3-0x7ffdaa>
   4:	130e                	slli	t1,t1,0x23
   6:	1b0e030b          	0x1b0e030b
   a:	550e                	lw	a0,224(sp)
   c:	10011117          	auipc	sp,0x10011
  10:	02000017          	auipc	zero,0x2000
  14:	0024                	addi	s1,sp,8
  16:	0b3e0b0b          	0xb3e0b0b
  1a:	00000803          	lb	a6,0(zero) # 0 <__udivdi3-0x8003ac>
  1e:	03001603          	lh	a2,48(zero) # 30 <__udivdi3-0x80037c>
  22:	3a0e                	fld	fs4,224(sp)
  24:	390b3b0b          	0x390b3b0b
  28:	0013490b          	0x13490b
  2c:	0400                	addi	s0,sp,512
  2e:	0024                	addi	s1,sp,8
  30:	0b3e0b0b          	0xb3e0b0b
  34:	00000e03          	lb	t3,0(zero) # 0 <__udivdi3-0x8003ac>
  38:	2605                	jal	358 <__udivdi3-0x800054>
  3a:	4900                	lw	s0,16(a0)
  3c:	06000013          	li	zero,96
  40:	0b0b000f          	0xb0b000f
  44:	0000                	unimp
  46:	0b000f07          	0xb000f07
  4a:	0013490b          	0x13490b
  4e:	0800                	addi	s0,sp,16
  50:	0026                	c.slli	zero,0x9
  52:	0000                	unimp
  54:	1309                	addi	t1,t1,-30
  56:	0301                	addi	t1,t1,0
  58:	0b0e                	slli	s6,s6,0x3
  5a:	3b0b3a0b          	0x3b0b3a0b
  5e:	010b390b          	0x10b390b
  62:	0a000013          	li	zero,160
  66:	000d                	c.nop	3
  68:	0b3a0e03          	lb	t3,179(s4) # 100b3 <__udivdi3-0x7f02f9>
  6c:	0b390b3b          	0xb390b3b
  70:	1349                	addi	t1,t1,-14
  72:	0b38                	addi	a4,sp,408
  74:	0000                	unimp
  76:	0301130b          	0x301130b
  7a:	0b0e                	slli	s6,s6,0x3
  7c:	3b0b3a0b          	0x3b0b3a0b
  80:	3905                	jal	fffffcb0 <_end+0xfeff91b4>
  82:	0013010b          	0x13010b
  86:	0c00                	addi	s0,sp,528
  88:	000d                	c.nop	3
  8a:	0b3a0803          	lb	a6,179(s4)
  8e:	0b39053b          	0xb39053b
  92:	1349                	addi	t1,t1,-14
  94:	0b38                	addi	a4,sp,408
  96:	0000                	unimp
  98:	0d0d                	addi	s10,s10,3
  9a:	0300                	addi	s0,sp,384
  9c:	3a0e                	fld	fs4,224(sp)
  9e:	39053b0b          	0x39053b0b
  a2:	3813490b          	0x3813490b
  a6:	0e00000b          	0xe00000b
  aa:	0e030117          	auipc	sp,0xe030
  ae:	0b3a0b0b          	0xb3a0b0b
  b2:	0b39053b          	0xb39053b
  b6:	1301                	addi	t1,t1,-32
  b8:	0000                	unimp
  ba:	03000d0f          	0x3000d0f
  be:	3a0e                	fld	fs4,224(sp)
  c0:	39053b0b          	0x39053b0b
  c4:	0013490b          	0x13490b
  c8:	1000                	addi	s0,sp,32
  ca:	000d                	c.nop	3
  cc:	0b3a0803          	lb	a6,179(s4)
  d0:	0b39053b          	0xb39053b
  d4:	1349                	addi	t1,t1,-14
  d6:	0000                	unimp
  d8:	0d11                	addi	s10,s10,4
  da:	0300                	addi	s0,sp,384
  dc:	3a0e                	fld	fs4,224(sp)
  de:	390b3b0b          	0x390b3b0b
  e2:	0b13490b          	0xb13490b
  e6:	0c0b0d0b          	0xc0b0d0b
  ea:	000b380b          	0xb380b
  ee:	1200                	addi	s0,sp,288
  f0:	000d                	c.nop	3
  f2:	0b3a0803          	lb	a6,179(s4)
  f6:	0b390b3b          	0xb390b3b
  fa:	1349                	addi	t1,t1,-14
  fc:	0b38                	addi	a4,sp,408
  fe:	0000                	unimp
 100:	49010113          	addi	sp,sp,1168 # e03053a <_end+0xd029a3e>
 104:	00130113          	addi	sp,t1,1 # 14001 <__udivdi3-0x7ec3ab>
 108:	1400                	addi	s0,sp,544
 10a:	0021                	c.nop	8
 10c:	1349                	addi	t1,t1,-14
 10e:	0000                	unimp
 110:	0415                	addi	s0,s0,5
 112:	0301                	addi	t1,t1,0
 114:	3e0e                	fld	ft8,224(sp)
 116:	490b0b0b          	0x490b0b0b
 11a:	3b0b3a13          	sltiu	s4,s6,944
 11e:	010b390b          	0x10b390b
 122:	16000013          	li	zero,352
 126:	0028                	addi	a0,sp,8
 128:	0b1c0e03          	lb	t3,177(s8)
 12c:	0000                	unimp
 12e:	03003417          	auipc	s0,0x3003
 132:	3a0e                	fld	fs4,224(sp)
 134:	390b3b0b          	0x390b3b0b
 138:	1c13490b          	0x1c13490b
 13c:	1800000b          	0x1800000b
 140:	0021                	c.nop	8
 142:	1349                	addi	t1,t1,-14
 144:	00000b2f          	0xb2f
 148:	3419                	jal	fffffb4e <_end+0xfeff9052>
 14a:	0300                	addi	s0,sp,384
 14c:	3a0e                	fld	fs4,224(sp)
 14e:	390b3b0b          	0x390b3b0b
 152:	0213490b          	0x213490b
 156:	0018                	0x18
 158:	1a00                	addi	s0,sp,304
 15a:	012e                	slli	sp,sp,0xb
 15c:	0e03193f 0b3b0b3a 	0xb3b0b3a0e03193f
 164:	0b39                	addi	s6,s6,14
 166:	13491927          	0x13491927
 16a:	0111                	addi	sp,sp,4
 16c:	0612                	slli	a2,a2,0x4
 16e:	1840                	addi	s0,sp,52
 170:	01194297          	auipc	t0,0x1194
 174:	1b000013          	li	zero,432
 178:	0034                	addi	a3,sp,8
 17a:	0b3a0e03          	lb	t3,179(s4)
 17e:	0b390b3b          	0xb390b3b
 182:	1349                	addi	t1,t1,-14
 184:	1702                	slli	a4,a4,0x20
 186:	0000                	unimp
 188:	341c                	fld	fa5,40(s0)
 18a:	0300                	addi	s0,sp,384
 18c:	3a08                	fld	fa0,48(a2)
 18e:	390b3b0b          	0x390b3b0b
 192:	0213490b          	0x213490b
 196:	1d000017          	auipc	zero,0x1d000
 19a:	000a                	c.slli	zero,0x2
 19c:	0b3a0803          	lb	a6,179(s4)
 1a0:	0b390b3b          	0xb390b3b
 1a4:	0111                	addi	sp,sp,4
 1a6:	0000                	unimp
 1a8:	0b1e                	slli	s6,s6,0x7
 1aa:	0101                	addi	sp,sp,0
 1ac:	1f000013          	li	zero,496
 1b0:	0034                	addi	a3,sp,8
 1b2:	0b3a0e03          	lb	t3,179(s4)
 1b6:	0b390b3b          	0xb390b3b
 1ba:	1349                	addi	t1,t1,-14
 1bc:	0000                	unimp
 1be:	3420                	fld	fs0,104(s0)
 1c0:	0300                	addi	s0,sp,384
 1c2:	3a08                	fld	fa0,48(a2)
 1c4:	390b3b0b          	0x390b3b0b
 1c8:	0013490b          	0x13490b
 1cc:	2100                	fld	fs0,0(a0)
 1ce:	0000010b          	0x10b
 1d2:	1d22                	slli	s10,s10,0x28
 1d4:	3101                	jal	fffffdd4 <_end+0xfeff92d8>
 1d6:	12011113          	0x12011113
 1da:	5806                	lw	a6,96(sp)
 1dc:	570b590b          	0x570b590b
 1e0:	0013010b          	0x13010b
 1e4:	2300                	fld	fs0,0(a4)
 1e6:	0005                	c.nop	1
 1e8:	1331                	addi	t1,t1,-20
 1ea:	1702                	slli	a4,a4,0x20
 1ec:	0000                	unimp
 1ee:	1d24                	addi	s1,sp,696
 1f0:	3101                	jal	fffffdf0 <_end+0xfeff92f4>
 1f2:	12011113          	0x12011113
 1f6:	5806                	lw	a6,96(sp)
 1f8:	570b590b          	0x570b590b
 1fc:	2500000b          	0x2500000b
 200:	011d                	addi	sp,sp,7
 202:	1331                	addi	t1,t1,-20
 204:	0152                	slli	sp,sp,0x14
 206:	1755                	addi	a4,a4,-11
 208:	0b58                	addi	a4,sp,404
 20a:	0b59                	addi	s6,s6,22
 20c:	13010b57          	0x13010b57
 210:	0000                	unimp
 212:	1d26                	slli	s10,s10,0x29
 214:	3101                	jal	fffffe14 <_end+0xfeff9318>
 216:	55015213          	0x55015213
 21a:	590b5817          	auipc	a6,0x590b5
 21e:	000b570b          	0xb570b
 222:	2700                	fld	fs0,8(a4)
 224:	8289                	srli	a3,a3,0x2
 226:	0101                	addi	sp,sp,0
 228:	0111                	addi	sp,sp,4
 22a:	1331                	addi	t1,t1,-20
 22c:	1301                	addi	t1,t1,-32
 22e:	0000                	unimp
 230:	8a28                	0x8a28
 232:	0182                	c.slli64	gp
 234:	0200                	addi	s0,sp,256
 236:	9118                	0x9118
 238:	1842                	slli	a6,a6,0x30
 23a:	0000                	unimp
 23c:	8929                	andi	a0,a0,10
 23e:	0182                	c.slli64	gp
 240:	1100                	addi	s0,sp,160
 242:	3101                	jal	fffffe42 <_end+0xfeff9346>
 244:	2a000013          	li	zero,672
 248:	8289                	srli	a3,a3,0x2
 24a:	0101                	addi	sp,sp,0
 24c:	0111                	addi	sp,sp,4
 24e:	1331                	addi	t1,t1,-20
 250:	0000                	unimp
 252:	03012e2b          	0x3012e2b
 256:	3a0e                	fld	fs4,224(sp)
 258:	390b3b0b          	0x390b3b0b
 25c:	2019270b          	0x2019270b
 260:	0013010b          	0x13010b
 264:	2c00                	fld	fs0,24(s0)
 266:	0005                	c.nop	1
 268:	0b3a0e03          	lb	t3,179(s4)
 26c:	0b390b3b          	0xb390b3b
 270:	1349                	addi	t1,t1,-14
 272:	0000                	unimp
 274:	052d                	addi	a0,a0,11
 276:	0300                	addi	s0,sp,384
 278:	3a08                	fld	fa0,48(a2)
 27a:	390b3b0b          	0x390b3b0b
 27e:	0013490b          	0x13490b
 282:	2e00                	fld	fs0,24(a2)
 284:	012e                	slli	sp,sp,0xb
 286:	0b3a0e03          	lb	t3,179(s4)
 28a:	0b390b3b          	0xb390b3b
 28e:	13491927          	0x13491927
 292:	0b20                	addi	s0,sp,408
 294:	1301                	addi	t1,t1,-32
 296:	0000                	unimp
 298:	3f002e2f          	0x3f002e2f
 29c:	3c19                	jal	fffffcb2 <_end+0xfeff91b6>
 29e:	6e19                	lui	t3,0x6
 2a0:	030e                	slli	t1,t1,0x3
 2a2:	3a0e                	fld	fs4,224(sp)
 2a4:	390b3b0b          	0x390b3b0b
 2a8:	0000000b          	0xb
 2ac:	1101                	addi	sp,sp,-32
 2ae:	2501                	jal	8ae <__udivdi3-0x7ffafe>
 2b0:	130e                	slli	t1,t1,0x23
 2b2:	1b0e030b          	0x1b0e030b
 2b6:	550e                	lw	a0,224(sp)
 2b8:	10011117          	auipc	sp,0x10011
 2bc:	02000017          	auipc	zero,0x2000
 2c0:	0024                	addi	s1,sp,8
 2c2:	0b3e0b0b          	0xb3e0b0b
 2c6:	00000803          	lb	a6,0(zero) # 0 <__udivdi3-0x8003ac>
 2ca:	03001603          	lh	a2,48(zero) # 30 <__udivdi3-0x80037c>
 2ce:	3a0e                	fld	fs4,224(sp)
 2d0:	390b3b0b          	0x390b3b0b
 2d4:	0013490b          	0x13490b
 2d8:	0400                	addi	s0,sp,512
 2da:	0024                	addi	s1,sp,8
 2dc:	0b3e0b0b          	0xb3e0b0b
 2e0:	00000e03          	lb	t3,0(zero) # 0 <__udivdi3-0x8003ac>
 2e4:	2605                	jal	604 <__udivdi3-0x7ffda8>
 2e6:	4900                	lw	s0,16(a0)
 2e8:	06000013          	li	zero,96
 2ec:	0b0b000f          	0xb0b000f
 2f0:	0000                	unimp
 2f2:	0b000f07          	0xb000f07
 2f6:	0013490b          	0x13490b
 2fa:	0800                	addi	s0,sp,16
 2fc:	0026                	c.slli	zero,0x9
 2fe:	0000                	unimp
 300:	1309                	addi	t1,t1,-30
 302:	0300                	addi	s0,sp,384
 304:	3c0e                	fld	fs8,224(sp)
 306:	0019                	c.nop	6
 308:	0a00                	addi	s0,sp,272
 30a:	0101                	addi	sp,sp,0
 30c:	1349                	addi	t1,t1,-14
 30e:	1301                	addi	t1,t1,-32
 310:	0000                	unimp
 312:	4900210b          	0x4900210b
 316:	000b2f13          	slti	t5,s6,0
 31a:	0c00                	addi	s0,sp,528
 31c:	0b0b0113          	addi	sp,s6,176 # 20ae68 <__udivdi3-0x5f5544>
 320:	0b3a                	slli	s6,s6,0xe
 322:	0b390b3b          	0xb390b3b
 326:	1301                	addi	t1,t1,-32
 328:	0000                	unimp
 32a:	0d0d                	addi	s10,s10,3
 32c:	0300                	addi	s0,sp,384
 32e:	3a0e                	fld	fs4,224(sp)
 330:	390b3b0b          	0x390b3b0b
 334:	3813490b          	0x3813490b
 338:	0e00000b          	0xe00000b
 33c:	000d                	c.nop	3
 33e:	0b3a0803          	lb	a6,179(s4)
 342:	0b390b3b          	0xb390b3b
 346:	1349                	addi	t1,t1,-14
 348:	0b38                	addi	a4,sp,408
 34a:	0000                	unimp
 34c:	0301040f          	0x301040f
 350:	3e0e                	fld	ft8,224(sp)
 352:	490b0b0b          	0x490b0b0b
 356:	3b0b3a13          	sltiu	s4,s6,944
 35a:	010b390b          	0x10b390b
 35e:	10000013          	li	zero,256
 362:	0028                	addi	a0,sp,8
 364:	0b1c0e03          	lb	t3,177(s8)
 368:	0000                	unimp
 36a:	1311                	addi	t1,t1,-28
 36c:	0301                	addi	t1,t1,0
 36e:	0b0e                	slli	s6,s6,0x3
 370:	3b0b3a0b          	0x3b0b3a0b
 374:	010b390b          	0x10b390b
 378:	12000013          	li	zero,288
 37c:	08030113          	addi	sp,t1,128
 380:	0b3a0b0b          	0xb3a0b0b
 384:	0b390b3b          	0xb390b3b
 388:	1301                	addi	t1,t1,-32
 38a:	0000                	unimp
 38c:	03011313          	slli	t1,sp,0x30
 390:	0b0e                	slli	s6,s6,0x3
 392:	3b0b3a0b          	0x3b0b3a0b
 396:	3905                	jal	ffffffc6 <_end+0xfeff94ca>
 398:	0013010b          	0x13010b
 39c:	1400                	addi	s0,sp,544
 39e:	000d                	c.nop	3
 3a0:	0b3a0803          	lb	a6,179(s4)
 3a4:	0b39053b          	0xb39053b
 3a8:	1349                	addi	t1,t1,-14
 3aa:	0b38                	addi	a4,sp,408
 3ac:	0000                	unimp
 3ae:	0d15                	addi	s10,s10,5
 3b0:	0300                	addi	s0,sp,384
 3b2:	3a0e                	fld	fs4,224(sp)
 3b4:	39053b0b          	0x39053b0b
 3b8:	3813490b          	0x3813490b
 3bc:	1600000b          	0x1600000b
 3c0:	0e030117          	auipc	sp,0xe030
 3c4:	0b3a0b0b          	0xb3a0b0b
 3c8:	0b39053b          	0xb39053b
 3cc:	1301                	addi	t1,t1,-32
 3ce:	0000                	unimp
 3d0:	03000d17          	auipc	s10,0x3000
 3d4:	3a0e                	fld	fs4,224(sp)
 3d6:	39053b0b          	0x39053b0b
 3da:	0013490b          	0x13490b
 3de:	1800                	addi	s0,sp,48
 3e0:	000d                	c.nop	3
 3e2:	0b3a0803          	lb	a6,179(s4)
 3e6:	0b39053b          	0xb39053b
 3ea:	1349                	addi	t1,t1,-14
 3ec:	0000                	unimp
 3ee:	0d19                	addi	s10,s10,6
 3f0:	0300                	addi	s0,sp,384
 3f2:	3a0e                	fld	fs4,224(sp)
 3f4:	390b3b0b          	0x390b3b0b
 3f8:	0b13490b          	0xb13490b
 3fc:	0c0b0d0b          	0xc0b0d0b
 400:	000b380b          	0xb380b
 404:	1a00                	addi	s0,sp,304
 406:	0021                	c.nop	8
 408:	1349                	addi	t1,t1,-14
 40a:	0000                	unimp
 40c:	0300341b          	0x300341b
 410:	3a0e                	fld	fs4,224(sp)
 412:	390b3b0b          	0x390b3b0b
 416:	1c13490b          	0x1c13490b
 41a:	1c00000b          	0x1c00000b
 41e:	012e                	slli	sp,sp,0xb
 420:	0e03193f 053b0b3a 	0x53b0b3a0e03193f
 428:	0b39                	addi	s6,s6,14
 42a:	0b201927          	0xb201927
 42e:	1301                	addi	t1,t1,-32
 430:	0000                	unimp
 432:	051d                	addi	a0,a0,7
 434:	0300                	addi	s0,sp,384
 436:	3a0e                	fld	fs4,224(sp)
 438:	39053b0b          	0x39053b0b
 43c:	0013490b          	0x13490b
 440:	1e00                	addi	s0,sp,816
 442:	012e                	slli	sp,sp,0xb
 444:	0e03193f 053b0b3a 	0x53b0b3a0e03193f
 44c:	0b39                	addi	s6,s6,14
 44e:	01111927          	0x1111927
 452:	0612                	slli	a2,a2,0x4
 454:	1840                	addi	s0,sp,52
 456:	01194297          	auipc	t0,0x1194
 45a:	1f000013          	li	zero,496
 45e:	0005                	c.nop	1
 460:	0b3a0e03          	lb	t3,179(s4)
 464:	0b39053b          	0xb39053b
 468:	1349                	addi	t1,t1,-14
 46a:	1702                	slli	a4,a4,0x20
 46c:	0000                	unimp
 46e:	3420                	fld	fs0,104(s0)
 470:	0300                	addi	s0,sp,384
 472:	3a08                	fld	fa0,48(a2)
 474:	39053b0b          	0x39053b0b
 478:	0213490b          	0x213490b
 47c:	21000017          	auipc	zero,0x21000
 480:	011d                	addi	sp,sp,7
 482:	1331                	addi	t1,t1,-20
 484:	0111                	addi	sp,sp,4
 486:	0612                	slli	a2,a2,0x4
 488:	0b58                	addi	a4,sp,404
 48a:	0559                	addi	a0,a0,22
 48c:	13010b57          	0x13010b57
 490:	0000                	unimp
 492:	0522                	slli	a0,a0,0x8
 494:	3100                	fld	fs0,32(a0)
 496:	00170213          	addi	tp,a4,1 # fffe0001 <_end+0xfefd9505>
 49a:	2300                	fld	fs0,0(a4)
 49c:	011d                	addi	sp,sp,7
 49e:	1331                	addi	t1,t1,-20
 4a0:	0111                	addi	sp,sp,4
 4a2:	0612                	slli	a2,a2,0x4
 4a4:	0b58                	addi	a4,sp,404
 4a6:	0b59                	addi	s6,s6,22
 4a8:	00000b57          	0xb57
 4ac:	1d24                	addi	s1,sp,696
 4ae:	3101                	jal	ae <__udivdi3-0x8002fe>
 4b0:	55015213          	0x55015213
 4b4:	590b5817          	auipc	a6,0x590b5
 4b8:	5705                	li	a4,-31
 4ba:	2500000b          	0x2500000b
 4be:	011d                	addi	sp,sp,7
 4c0:	1331                	addi	t1,t1,-20
 4c2:	0152                	slli	sp,sp,0x14
 4c4:	1755                	addi	a4,a4,-11
 4c6:	0b58                	addi	a4,sp,404
 4c8:	0b59                	addi	s6,s6,22
 4ca:	00000b57          	0xb57
 4ce:	2e26                	fld	ft8,72(sp)
 4d0:	3f01                	jal	3e0 <__udivdi3-0x7fffcc>
 4d2:	0319                	addi	t1,t1,6
 4d4:	3a0e                	fld	fs4,224(sp)
 4d6:	39053b0b          	0x39053b0b
 4da:	4919270b          	0x4919270b
 4de:	12011113          	0x12011113
 4e2:	4006                	0x4006
 4e4:	9718                	0x9718
 4e6:	1942                	slli	s2,s2,0x30
 4e8:	1301                	addi	t1,t1,-32
 4ea:	0000                	unimp
 4ec:	31011d27          	0x31011d27
 4f0:	55015213          	0x55015213
 4f4:	590b5817          	auipc	a6,0x590b5
 4f8:	5705                	li	a4,-31
 4fa:	0013010b          	0x13010b
 4fe:	2800                	fld	fs0,16(s0)
 500:	1755010b          	0x1755010b
 504:	0000                	unimp
 506:	3429                	jal	ffffff10 <_end+0xfeff9414>
 508:	3100                	fld	fs0,32(a0)
 50a:	00170213          	addi	tp,a4,1
 50e:	2a00                	fld	fs0,16(a2)
 510:	011d                	addi	sp,sp,7
 512:	1331                	addi	t1,t1,-20
 514:	0111                	addi	sp,sp,4
 516:	0612                	slli	a2,a2,0x4
 518:	0b58                	addi	a4,sp,404
 51a:	0559                	addi	a0,a0,22
 51c:	00000b57          	0xb57
 520:	3100342b          	0x3100342b
 524:	00193c13          	seqz	s8,s2
 528:	2c00                	fld	fs0,24(s0)
 52a:	8289                	srli	a3,a3,0x2
 52c:	0001                	nop
 52e:	0111                	addi	sp,sp,4
 530:	1331                	addi	t1,t1,-20
 532:	0000                	unimp
 534:	2e2d                	jal	86e <__udivdi3-0x7ffb3e>
 536:	3f01                	jal	446 <__udivdi3-0x7fff66>
 538:	0319                	addi	t1,t1,6
 53a:	3a0e                	fld	fs4,224(sp)
 53c:	39053b0b          	0x39053b0b
 540:	4919270b          	0x4919270b
 544:	010b2013          	slti	zero,s6,16
 548:	2e000013          	li	zero,736
 54c:	0034                	addi	a3,sp,8
 54e:	0b3a0e03          	lb	t3,179(s4)
 552:	0b39053b          	0xb39053b
 556:	1349                	addi	t1,t1,-14
 558:	0000                	unimp
 55a:	3f012e2f          	0x3f012e2f
 55e:	0319                	addi	t1,t1,6
 560:	3a0e                	fld	fs4,224(sp)
 562:	390b3b0b          	0x390b3b0b
 566:	4919270b          	0x4919270b
 56a:	12011113          	0x12011113
 56e:	4006                	0x4006
 570:	9718                	0x9718
 572:	1942                	slli	s2,s2,0x30
 574:	1301                	addi	t1,t1,-32
 576:	0000                	unimp
 578:	0530                	addi	a2,sp,648
 57a:	0300                	addi	s0,sp,384
 57c:	3a08                	fld	fa0,48(a2)
 57e:	390b3b0b          	0x390b3b0b
 582:	0213490b          	0x213490b
 586:	31000017          	auipc	zero,0x31000
 58a:	0034                	addi	a3,sp,8
 58c:	0b3a0e03          	lb	t3,179(s4)
 590:	0b390b3b          	0xb390b3b
 594:	1349                	addi	t1,t1,-14
 596:	1702                	slli	a4,a4,0x20
 598:	0000                	unimp
 59a:	3432                	fld	fs0,296(sp)
 59c:	0300                	addi	s0,sp,384
 59e:	3a08                	fld	fa0,48(a2)
 5a0:	390b3b0b          	0x390b3b0b
 5a4:	0213490b          	0x213490b
 5a8:	0018                	0x18
 5aa:	3300                	fld	fs0,32(a4)
 5ac:	0034                	addi	a3,sp,8
 5ae:	0b3a0803          	lb	a6,179(s4)
 5b2:	0b390b3b          	0xb390b3b
 5b6:	1349                	addi	t1,t1,-14
 5b8:	1702                	slli	a4,a4,0x20
 5ba:	0000                	unimp
 5bc:	1d34                	addi	a3,sp,696
 5be:	3101                	jal	1be <__udivdi3-0x8001ee>
 5c0:	12011113          	0x12011113
 5c4:	5806                	lw	a6,96(sp)
 5c6:	570b590b          	0x570b590b
 5ca:	0013010b          	0x13010b
 5ce:	3500                	fld	fs0,40(a0)
 5d0:	8289                	srli	a3,a3,0x2
 5d2:	0101                	addi	sp,sp,0
 5d4:	0111                	addi	sp,sp,4
 5d6:	1331                	addi	t1,t1,-20
 5d8:	0000                	unimp
 5da:	8a36                	mv	s4,a3
 5dc:	0182                	c.slli64	gp
 5de:	0200                	addi	s0,sp,256
 5e0:	9118                	0x9118
 5e2:	1842                	slli	a6,a6,0x30
 5e4:	0000                	unimp
 5e6:	03003437          	lui	s0,0x3003
 5ea:	3a0e                	fld	fs4,224(sp)
 5ec:	390b3b0b          	0x390b3b0b
 5f0:	0213490b          	0x213490b
 5f4:	0018                	0x18
 5f6:	3800                	fld	fs0,48(s0)
 5f8:	1301010b          	0x1301010b
 5fc:	0000                	unimp
 5fe:	3439                	jal	c <__udivdi3-0x8003a0>
 600:	0300                	addi	s0,sp,384
 602:	3a0e                	fld	fs4,224(sp)
 604:	390b3b0b          	0x390b3b0b
 608:	0013490b          	0x13490b
 60c:	3a00                	fld	fs0,48(a2)
 60e:	0034                	addi	a3,sp,8
 610:	0b3a0803          	lb	a6,179(s4)
 614:	0b390b3b          	0xb390b3b
 618:	1349                	addi	t1,t1,-14
 61a:	0000                	unimp
 61c:	00010b3b          	0x10b3b
 620:	3c00                	fld	fs0,56(s0)
 622:	011d                	addi	sp,sp,7
 624:	1331                	addi	t1,t1,-20
 626:	0152                	slli	sp,sp,0x14
 628:	1755                	addi	a4,a4,-11
 62a:	0b58                	addi	a4,sp,404
 62c:	0b59                	addi	s6,s6,22
 62e:	13010b57          	0x13010b57
 632:	0000                	unimp
 634:	893d                	andi	a0,a0,15
 636:	0182                	c.slli64	gp
 638:	1101                	addi	sp,sp,-32
 63a:	3101                	jal	23a <__udivdi3-0x800172>
 63c:	00130113          	addi	sp,t1,1
 640:	3e00                	fld	fs0,56(a2)
 642:	0005                	c.nop	1
 644:	0b3a0e03          	lb	t3,179(s4)
 648:	0b390b3b          	0xb390b3b
 64c:	1349                	addi	t1,t1,-14
 64e:	1702                	slli	a4,a4,0x20
 650:	0000                	unimp
 652:	31010b3f 01175513 	0x117551331010b3f
 65a:	40000013          	li	zero,1024
 65e:	012e                	slli	sp,sp,0xb
 660:	0e03193f 0b3b0b3a 	0xb3b0b3a0e03193f
 668:	0b39                	addi	s6,s6,14
 66a:	13491927          	0x13491927
 66e:	0b20                	addi	s0,sp,408
 670:	1301                	addi	t1,t1,-32
 672:	0000                	unimp
 674:	0541                	addi	a0,a0,16
 676:	0300                	addi	s0,sp,384
 678:	3a08                	fld	fa0,48(a2)
 67a:	390b3b0b          	0x390b3b0b
 67e:	0013490b          	0x13490b
 682:	4200                	lw	s0,0(a2)
 684:	1331010b          	0x1331010b
 688:	0111                	addi	sp,sp,4
 68a:	0612                	slli	a2,a2,0x4
 68c:	1301                	addi	t1,t1,-32
 68e:	0000                	unimp
 690:	31010b43          	fmadd.s	fs6,ft2,fa6,ft6,rne
 694:	00175513          	srli	a0,a4,0x1
 698:	4400                	lw	s0,8(s0)
 69a:	012e                	slli	sp,sp,0xb
 69c:	0b3a0e03          	lb	t3,179(s4)
 6a0:	0b390b3b          	0xb390b3b
 6a4:	13491927          	0x13491927
 6a8:	0b20                	addi	s0,sp,408
 6aa:	1301                	addi	t1,t1,-32
 6ac:	0000                	unimp
 6ae:	0545                	addi	a0,a0,17
 6b0:	0300                	addi	s0,sp,384
 6b2:	3a0e                	fld	fs4,224(sp)
 6b4:	390b3b0b          	0x390b3b0b
 6b8:	0013490b          	0x13490b
 6bc:	4600                	lw	s0,8(a2)
 6be:	012e                	slli	sp,sp,0xb
 6c0:	0e03193f 0b3b0b3a 	0xb3b0b3a0e03193f
 6c8:	0b39                	addi	s6,s6,14
 6ca:	01111927          	0x1111927
 6ce:	0612                	slli	a2,a2,0x4
 6d0:	1840                	addi	s0,sp,52
 6d2:	01194297          	auipc	t0,0x1194
 6d6:	47000013          	li	zero,1136
 6da:	1755010b          	0x1755010b
 6de:	1301                	addi	t1,t1,-32
 6e0:	0000                	unimp
 6e2:	1d48                	addi	a0,sp,692
 6e4:	3100                	fld	fs0,32(a0)
 6e6:	12011113          	0x12011113
 6ea:	5806                	lw	a6,96(sp)
 6ec:	570b590b          	0x570b590b
 6f0:	4900000b          	0x4900000b
 6f4:	012e                	slli	sp,sp,0xb
 6f6:	0b3a0e03          	lb	t3,179(s4)
 6fa:	0b390b3b          	0xb390b3b
 6fe:	0b201927          	0xb201927
 702:	1301                	addi	t1,t1,-32
 704:	0000                	unimp
 706:	2e4a                	fld	ft8,144(sp)
 708:	0300                	addi	s0,sp,384
 70a:	3a0e                	fld	fs4,224(sp)
 70c:	390b3b0b          	0x390b3b0b
 710:	4919270b          	0x4919270b
 714:	000b2013          	slti	zero,s6,0
 718:	4b00                	lw	s0,16(a4)
 71a:	0034                	addi	a3,sp,8
 71c:	0b3a0e03          	lb	t3,179(s4)
 720:	0b390b3b          	0xb390b3b
 724:	1349                	addi	t1,t1,-14
 726:	193c193f 2e4c0000 	0x2e4c0000193c193f
 72e:	0300                	addi	s0,sp,384
 730:	3a0e                	fld	fs4,224(sp)
 732:	39053b0b          	0x39053b0b
 736:	2019270b          	0x2019270b
 73a:	4d00000b          	0x4d00000b
 73e:	012e                	slli	sp,sp,0xb
 740:	1331                	addi	t1,t1,-20
 742:	0111                	addi	sp,sp,4
 744:	0612                	slli	a2,a2,0x4
 746:	1840                	addi	s0,sp,52
 748:	01194297          	auipc	t0,0x1194
 74c:	4e000013          	li	zero,1248
 750:	0034                	addi	a3,sp,8
 752:	1331                	addi	t1,t1,-20
 754:	1802                	slli	a6,a6,0x20
 756:	0000                	unimp
 758:	3f002e4f          	fnmadd.q	ft8,ft0,fa6,ft7,rdn
 75c:	3c19                	jal	172 <__udivdi3-0x80023a>
 75e:	6e19                	lui	t3,0x6
 760:	030e                	slli	t1,t1,0x3
 762:	000e                	c.slli	zero,0x3
 764:	5000                	lw	s0,32(s0)
 766:	002e                	c.slli	zero,0xb
 768:	193c193f 0e030e6e 	0xe030e6e193c193f
 770:	0b3a                	slli	s6,s6,0xe
 772:	0b390b3b          	0xb390b3b
 776:	0000                	unimp
	...

Disassembly of section .debug_line:

00000000 <.debug_line>:
       0:	049e                	slli	s1,s1,0x7
       2:	0000                	unimp
       4:	03450003          	lb	zero,52(a0)
       8:	0000                	unimp
       a:	0101                	addi	sp,sp,0
       c:	000d0efb          	0xd0efb
      10:	0101                	addi	sp,sp,0
      12:	0101                	addi	sp,sp,0
      14:	0000                	unimp
      16:	0100                	addi	s0,sp,128
      18:	0000                	unimp
      1a:	2f01                	jal	72a <__udivdi3-0x7ffc82>
      1c:	6f68                	flw	fa0,92(a4)
      1e:	656d                	lui	a0,0x1b
      20:	6e6f6a2f          	0x6e6f6a2f
      24:	2e616a67          	0x2e616a67
      28:	2f6f6863          	bltu	t5,s6,318 <__udivdi3-0x800094>
      2c:	2f746947          	fmsub.q	fs2,fs0,fs7,ft5,unknown
      30:	656c                	flw	fa1,76(a0)
      32:	79636167          	0x79636167
      36:	6265722f          	0x6265722f
      3a:	6c65                	lui	s8,0x19
      3c:	635f 7364 635f      	0x635f7364635f
      42:	616c6c6f          	jal	s8,c6658 <__udivdi3-0x739d54>
      46:	5f62                	lw	t5,56(sp)
      48:	7768                	flw	fa0,108(a4)
      4a:	6f6f622f          	0x6f6f622f
      4e:	6c74                	flw	fa3,92(s0)
      50:	6564616f          	jal	sp,466a6 <__udivdi3-0x7b9d06>
      54:	2f72                	fld	ft10,280(sp)
      56:	6f72                	flw	ft10,28(sp)
      58:	2f74                	fld	fa3,216(a4)
      5a:	74726d63          	bltu	tp,t2,7b4 <__udivdi3-0x7ffbf8>
      5e:	7a2d                	lui	s4,0xfffeb
      60:	7065                	c.lui	zero,0xffff9
      62:	7968                	flw	fa0,116(a0)
      64:	2d72                	fld	fs10,280(sp)
      66:	2e32                	fld	ft8,264(sp)
      68:	2e30                	fld	fa2,88(a2)
      6a:	732f3633          	0x732f3633
      6e:	6d61                	lui	s10,0x18
      70:	6c70                	flw	fa2,92(s0)
      72:	7365                	lui	t1,0xffff9
      74:	726d632f          	0x726d632f
      78:	2f74                	fld	fa3,216(a4)
      7a:	6570                	flw	fa2,76(a0)
      7c:	7372                	flw	ft6,60(sp)
      7e:	6c622f6f          	jal	t5,22744 <__udivdi3-0x7ddc68>
      82:	6e61                	lui	t3,0x18
      84:	72732f6b          	0x72732f6b
      88:	682f0063          	beq	t5,sp,708 <__udivdi3-0x7ffca4>
      8c:	2f656d6f          	jal	s10,56382 <__udivdi3-0x7aa02a>
      90:	6f6a                	flw	ft10,152(sp)
      92:	676e                	flw	fa4,216(sp)
      94:	616a                	flw	ft2,152(sp)
      96:	632e                	flw	ft6,200(sp)
      98:	6f68                	flw	fa0,92(a4)
      9a:	7469472f          	0x7469472f
      9e:	67656c2f          	0x67656c2f
      a2:	6361                	lui	t1,0x18
      a4:	2f79                	jal	842 <__udivdi3-0x7ffb6a>
      a6:	6572                	flw	fa0,28(sp)
      a8:	6562                	flw	fa0,24(sp)
      aa:	5f6c                	lw	a1,124(a4)
      ac:	5f736463          	bltu	t1,s7,694 <__udivdi3-0x7ffd18>
      b0:	6c6c6f63          	bltu	s8,t1,78e <__udivdi3-0x7ffc1e>
      b4:	6261                	lui	tp,0x18
      b6:	685f 2f77 6f62      	0x6f622f77685f
      bc:	6f6c746f          	jal	s0,c77b2 <__udivdi3-0x738bfa>
      c0:	6461                	lui	s0,0x18
      c2:	7265                	lui	tp,0xffff9
      c4:	746f722f          	0x746f722f
      c8:	726d632f          	0x726d632f
      cc:	2d74                	fld	fa3,216(a0)
      ce:	657a                	flw	fa0,156(sp)
      d0:	6870                	flw	fa2,84(s0)
      d2:	7279                	lui	tp,0xffffe
      d4:	322d                	jal	fffff9fe <_end+0xfeff8f02>
      d6:	302e                	fld	ft0,232(sp)
      d8:	332e                	fld	ft6,232(sp)
      da:	2f36                	fld	ft10,328(sp)
      dc:	6e69                	lui	t3,0x1a
      de:	64756c63          	bltu	a0,t2,736 <__udivdi3-0x7ffc76>
      e2:	2f65                	jal	89a <__udivdi3-0x7ffb12>
      e4:	7264                	flw	fs1,100(a2)
      e6:	7669                	lui	a2,0xffffa
      e8:	7265                	lui	tp,0xffff9
      ea:	6d632f73          	csrrs	t5,0x6d6,t1
      ee:	7472                	flw	fs0,60(sp)
      f0:	2f00                	fld	fs0,24(a4)
      f2:	6f68                	flw	fa0,92(a4)
      f4:	656d                	lui	a0,0x1b
      f6:	6e6f6a2f          	0x6e6f6a2f
      fa:	2e616a67          	0x2e616a67
      fe:	2f6f6863          	bltu	t5,s6,3ee <__udivdi3-0x7fffbe>
     102:	2f746947          	fmsub.q	fs2,fs0,fs7,ft5,unknown
     106:	656c                	flw	fa1,76(a0)
     108:	79636167          	0x79636167
     10c:	6265722f          	0x6265722f
     110:	6c65                	lui	s8,0x19
     112:	635f 7364 635f      	0x635f7364635f
     118:	616c6c6f          	jal	s8,c672e <__udivdi3-0x739c7e>
     11c:	5f62                	lw	t5,56(sp)
     11e:	7768                	flw	fa0,108(a4)
     120:	6f6f622f          	0x6f6f622f
     124:	6c74                	flw	fa3,92(s0)
     126:	6564616f          	jal	sp,4677c <__udivdi3-0x7b9c30>
     12a:	2f72                	fld	ft10,280(sp)
     12c:	6f72                	flw	ft10,28(sp)
     12e:	2f74                	fld	fa3,216(a4)
     130:	74726d63          	bltu	tp,t2,88a <__udivdi3-0x7ffb22>
     134:	7a2d                	lui	s4,0xfffeb
     136:	7065                	c.lui	zero,0xffff9
     138:	7968                	flw	fa0,116(a0)
     13a:	2d72                	fld	fs10,280(sp)
     13c:	2e32                	fld	ft8,264(sp)
     13e:	2e30                	fld	fa2,88(a2)
     140:	692f3633          	0x692f3633
     144:	636e                	flw	ft6,216(sp)
     146:	756c                	flw	fa1,108(a0)
     148:	6564                	flw	fs1,76(a0)
     14a:	6372612f          	0x6372612f
     14e:	2f68                	fld	fa0,216(a4)
     150:	6d6d6f63          	bltu	s10,s6,82e <__udivdi3-0x7ffb7e>
     154:	2f006e6f          	jal	t3,6444 <__udivdi3-0x7f9f68>
     158:	2f74706f          	j	47c4e <__udivdi3-0x7b875e>
     15c:	74726d63          	bltu	tp,t2,8b6 <__udivdi3-0x7ffaf6>
     160:	6b64732f          	0x6b64732f
     164:	62696c2f          	0x62696c2f
     168:	6363672f          	0x6363672f
     16c:	7369722f          	0x7369722f
     170:	32337663          	bgeu	t1,gp,49c <__udivdi3-0x7fff10>
     174:	752d                	lui	a0,0xfffeb
     176:	6b6e                	flw	fs6,216(sp)
     178:	6f6e                	flw	ft10,216(sp)
     17a:	652d6e77          	0x652d6e77
     17e:	666c                	flw	fa1,76(a2)
     180:	2e30312f          	0x2e30312f
     184:	2e32                	fld	ft8,264(sp)
     186:	2f30                	fld	fa2,88(a4)
     188:	6e69                	lui	t3,0x1a
     18a:	64756c63          	bltu	a0,t2,7e2 <__udivdi3-0x7ffbca>
     18e:	0065                	c.nop	25
     190:	6d6f682f          	0x6d6f682f
     194:	2f65                	jal	94c <__udivdi3-0x7ffa60>
     196:	6f6a                	flw	ft10,152(sp)
     198:	676e                	flw	fa4,216(sp)
     19a:	616a                	flw	ft2,152(sp)
     19c:	632e                	flw	ft6,200(sp)
     19e:	6f68                	flw	fa0,92(a4)
     1a0:	7469472f          	0x7469472f
     1a4:	67656c2f          	0x67656c2f
     1a8:	6361                	lui	t1,0x18
     1aa:	2f79                	jal	948 <__udivdi3-0x7ffa64>
     1ac:	6572                	flw	fa0,28(sp)
     1ae:	6562                	flw	fa0,24(sp)
     1b0:	5f6c                	lw	a1,124(a4)
     1b2:	5f736463          	bltu	t1,s7,79a <__udivdi3-0x7ffc12>
     1b6:	6c6c6f63          	bltu	s8,t1,894 <__udivdi3-0x7ffb18>
     1ba:	6261                	lui	tp,0x18
     1bc:	685f 2f77 6f62      	0x6f622f77685f
     1c2:	6f6c746f          	jal	s0,c78b8 <__udivdi3-0x738af4>
     1c6:	6461                	lui	s0,0x18
     1c8:	7265                	lui	tp,0xffff9
     1ca:	746f722f          	0x746f722f
     1ce:	726d632f          	0x726d632f
     1d2:	2d74                	fld	fa3,216(a0)
     1d4:	657a                	flw	fa0,156(sp)
     1d6:	6870                	flw	fa2,84(s0)
     1d8:	7279                	lui	tp,0xffffe
     1da:	322d                	jal	fffffb04 <_end+0xfeff9008>
     1dc:	302e                	fld	ft0,232(sp)
     1de:	332e                	fld	ft6,232(sp)
     1e0:	2f36                	fld	ft10,328(sp)
     1e2:	696c                	flw	fa1,84(a0)
     1e4:	2f62                	fld	ft10,24(sp)
     1e6:	696c                	flw	fa1,84(a0)
     1e8:	6362                	flw	ft6,24(sp)
     1ea:	6e696d2f          	0x6e696d2f
     1ee:	6d69                	lui	s10,0x1a
     1f0:	6c61                	lui	s8,0x18
     1f2:	636e692f          	0x636e692f
     1f6:	756c                	flw	fa1,108(a0)
     1f8:	6564                	flw	fs1,76(a0)
     1fa:	2f00                	fld	fs0,24(a4)
     1fc:	6f68                	flw	fa0,92(a4)
     1fe:	656d                	lui	a0,0x1b
     200:	6e6f6a2f          	0x6e6f6a2f
     204:	2e616a67          	0x2e616a67
     208:	2f6f6863          	bltu	t5,s6,4f8 <__udivdi3-0x7ffeb4>
     20c:	2f746947          	fmsub.q	fs2,fs0,fs7,ft5,unknown
     210:	656c                	flw	fa1,76(a0)
     212:	79636167          	0x79636167
     216:	6265722f          	0x6265722f
     21a:	6c65                	lui	s8,0x19
     21c:	635f 7364 635f      	0x635f7364635f
     222:	616c6c6f          	jal	s8,c6838 <__udivdi3-0x739b74>
     226:	5f62                	lw	t5,56(sp)
     228:	7768                	flw	fa0,108(a4)
     22a:	6f6f622f          	0x6f6f622f
     22e:	6c74                	flw	fa3,92(s0)
     230:	6564616f          	jal	sp,46886 <__udivdi3-0x7b9b26>
     234:	2f72                	fld	ft10,280(sp)
     236:	6f72                	flw	ft10,28(sp)
     238:	2f74                	fld	fa3,216(a4)
     23a:	74726d63          	bltu	tp,t2,994 <__udivdi3-0x7ffa18>
     23e:	7a2d                	lui	s4,0xfffeb
     240:	7065                	c.lui	zero,0xffff9
     242:	7968                	flw	fa0,116(a0)
     244:	2d72                	fld	fs10,280(sp)
     246:	2e32                	fld	ft8,264(sp)
     248:	2e30                	fld	fa2,88(a2)
     24a:	692f3633          	0x692f3633
     24e:	636e                	flw	ft6,216(sp)
     250:	756c                	flw	fa1,108(a0)
     252:	6564                	flw	fs1,76(a0)
     254:	7379732f          	0x7379732f
     258:	2f00                	fld	fs0,24(a4)
     25a:	6f68                	flw	fa0,92(a4)
     25c:	656d                	lui	a0,0x1b
     25e:	6e6f6a2f          	0x6e6f6a2f
     262:	2e616a67          	0x2e616a67
     266:	2f6f6863          	bltu	t5,s6,556 <__udivdi3-0x7ffe56>
     26a:	2f746947          	fmsub.q	fs2,fs0,fs7,ft5,unknown
     26e:	656c                	flw	fa1,76(a0)
     270:	79636167          	0x79636167
     274:	6265722f          	0x6265722f
     278:	6c65                	lui	s8,0x19
     27a:	635f 7364 635f      	0x635f7364635f
     280:	616c6c6f          	jal	s8,c6896 <__udivdi3-0x739b16>
     284:	5f62                	lw	t5,56(sp)
     286:	7768                	flw	fa0,108(a4)
     288:	6f6f622f          	0x6f6f622f
     28c:	6c74                	flw	fa3,92(s0)
     28e:	6564616f          	jal	sp,468e4 <__udivdi3-0x7b9ac8>
     292:	2f72                	fld	ft10,280(sp)
     294:	6f72                	flw	ft10,28(sp)
     296:	2f74                	fld	fa3,216(a4)
     298:	74726d63          	bltu	tp,t2,9f2 <__udivdi3-0x7ff9ba>
     29c:	7a2d                	lui	s4,0xfffeb
     29e:	7065                	c.lui	zero,0xffff9
     2a0:	7968                	flw	fa0,116(a0)
     2a2:	2d72                	fld	fs10,280(sp)
     2a4:	2e32                	fld	ft8,264(sp)
     2a6:	2e30                	fld	fa2,88(a2)
     2a8:	692f3633          	0x692f3633
     2ac:	636e                	flw	ft6,216(sp)
     2ae:	756c                	flw	fa1,108(a0)
     2b0:	6564                	flw	fs1,76(a0)
     2b2:	676f6c2f          	0x676f6c2f
     2b6:	676e6967          	0x676e6967
     2ba:	0000                	unimp
     2bc:	616d                	addi	sp,sp,240
     2be:	6e69                	lui	t3,0x1a
     2c0:	632e                	flw	ft6,200(sp)
     2c2:	0100                	addi	s0,sp,128
     2c4:	0000                	unimp
     2c6:	74726d63          	bltu	tp,t2,a20 <__udivdi3-0x7ff98c>
     2ca:	682e                	flw	fa6,200(sp)
     2cc:	0200                	addi	s0,sp,256
     2ce:	0000                	unimp
     2d0:	5f737973          	csrrci	s2,0x5f7,6
     2d4:	6f69                	lui	t5,0x1a
     2d6:	682e                	flw	fa6,200(sp)
     2d8:	0300                	addi	s0,sp,384
     2da:	0000                	unimp
     2dc:	64647473          	csrrci	s0,0x646,8
     2e0:	6665                	lui	a2,0x19
     2e2:	682e                	flw	fa6,200(sp)
     2e4:	0400                	addi	s0,sp,512
     2e6:	0000                	unimp
     2e8:	69647473          	csrrci	s0,0x696,8
     2ec:	746e                	flw	fs0,248(sp)
     2ee:	682e                	flw	fa6,200(sp)
     2f0:	0500                	addi	s0,sp,640
     2f2:	0000                	unimp
     2f4:	5f737973          	csrrci	s2,0x5f7,6
     2f8:	6f69                	lui	t5,0x1a
     2fa:	682e                	flw	fa6,200(sp)
     2fc:	0600                	addi	s0,sp,768
     2fe:	0000                	unimp
     300:	6f6c                	flw	fa1,92(a4)
     302:	6e695f67          	0x6e695f67
     306:	6e617473          	csrrci	s0,0x6e6,2
     30a:	682e6563          	bltu	t3,sp,994 <__udivdi3-0x7ffa18>
     30e:	0700                	addi	s0,sp,896
     310:	0000                	unimp
     312:	72706263          	bltu	zero,t2,a36 <__udivdi3-0x7ff976>
     316:	6e69                	lui	t3,0x1a
     318:	6674                	flw	fa3,76(a2)
     31a:	695f 746e 7265      	0x7265746e695f
     320:	616e                	flw	ft2,216(sp)
     322:	2e6c                	fld	fa1,216(a2)
     324:	0068                	addi	a0,sp,12
     326:	0006                	c.slli	zero,0x1
     328:	6c00                	flw	fs0,24(s0)
     32a:	6d5f676f          	jal	a4,f71fe <__udivdi3-0x7091ae>
     32e:	2e326773          	csrrsi	a4,0x2e3,4
     332:	0068                	addi	a0,sp,12
     334:	6c000007          	0x6c000007
     338:	6d5f676f          	jal	a4,f720c <__udivdi3-0x7091a0>
     33c:	682e6773          	csrrsi	a4,0x682,28
     340:	0700                	addi	s0,sp,896
     342:	0000                	unimp
     344:	7475                	lui	s0,0xffffd
     346:	6c69                	lui	s8,0x1a
     348:	682e                	flw	fa6,200(sp)
     34a:	0200                	addi	s0,sp,256
     34c:	0000                	unimp
     34e:	0500                	addi	s0,sp,640
     350:	0001                	nop
     352:	0205                	addi	tp,tp,1
     354:	6564                	flw	fs1,76(a0)
     356:	0100                	addi	s0,sp,128
     358:	05011403          	lh	s0,80(sp) # e030410 <_end+0xd029914>
     35c:	0302                	c.slli64	t1
     35e:	0901                	addi	s2,s2,0
     360:	0000                	unimp
     362:	0501                	addi	a0,a0,0
     364:	0601                	addi	a2,a2,0
     366:	00097f03          	0x97f03
     36a:	0100                	addi	s0,sp,128
     36c:	0205                	addi	tp,tp,1
     36e:	02090103          	lb	sp,32(s2)
     372:	0100                	addi	s0,sp,128
     374:	0105                	addi	sp,sp,1
     376:	04097f03          	0x4097f03
     37a:	0100                	addi	s0,sp,128
     37c:	0205                	addi	tp,tp,1
     37e:	06090103          	lb	sp,96(s2)
     382:	0100                	addi	s0,sp,128
     384:	0306                	slli	t1,t1,0x1
     386:	0901                	addi	s2,s2,0
     388:	0008                	0x8
     38a:	0401                	addi	s0,s0,0
     38c:	0302                	c.slli64	t1
     38e:	0009019b          	0x9019b
     392:	0100                	addi	s0,sp,128
     394:	0304                	addi	s1,sp,384
     396:	097efb03          	0x97efb03
     39a:	0000                	unimp
     39c:	0501                	addi	a0,a0,0
     39e:	0609                	addi	a2,a2,2
     3a0:	00090003          	lb	zero,0(s2)
     3a4:	0100                	addi	s0,sp,128
     3a6:	0104                	addi	s1,sp,128
     3a8:	0205                	addi	tp,tp,1
     3aa:	0306                	slli	t1,t1,0x1
     3ac:	0006096b          	0x6096b
     3b0:	0501                	addi	a0,a0,0
     3b2:	0605                	addi	a2,a2,1
     3b4:	00090003          	lb	zero,0(s2)
     3b8:	0100                	addi	s0,sp,128
     3ba:	1505                	addi	a0,a0,-31
     3bc:	02090003          	lb	zero,32(s2)
     3c0:	0100                	addi	s0,sp,128
     3c2:	0505                	addi	a0,a0,1
     3c4:	04090003          	lb	zero,64(s2)
     3c8:	0100                	addi	s0,sp,128
     3ca:	1005                	c.nop	-31
     3cc:	04090103          	lb	sp,64(s2)
     3d0:	0100                	addi	s0,sp,128
     3d2:	0205                	addi	tp,tp,1
     3d4:	0306                	slli	t1,t1,0x1
     3d6:	0902                	c.slli64	s2
     3d8:	0004                	0x4
     3da:	0401                	addi	s0,s0,0
     3dc:	0302                	c.slli64	t1
     3de:	01a5                	addi	gp,gp,9
     3e0:	0009                	c.nop	2
     3e2:	0100                	addi	s0,sp,128
     3e4:	0304                	addi	s1,sp,384
     3e6:	097ef203          	0x97ef203
     3ea:	0000                	unimp
     3ec:	0501                	addi	a0,a0,0
     3ee:	061d                	addi	a2,a2,7
     3f0:	00090003          	lb	zero,0(s2)
     3f4:	0100                	addi	s0,sp,128
     3f6:	0104                	addi	s1,sp,128
     3f8:	0205                	addi	tp,tp,1
     3fa:	0306                	slli	t1,t1,0x1
     3fc:	096a                	slli	s2,s2,0x1a
     3fe:	000e                	c.slli	zero,0x3
     400:	0301                	addi	t1,t1,0
     402:	0900                	addi	s0,sp,144
     404:	0000                	unimp
     406:	0301                	addi	t1,t1,0
     408:	0900                	addi	s0,sp,144
     40a:	0000                	unimp
     40c:	0301                	addi	t1,t1,0
     40e:	0902                	c.slli64	s2
     410:	0000                	unimp
     412:	0301                	addi	t1,t1,0
     414:	0909                	addi	s2,s2,2
     416:	0000                	unimp
     418:	0501                	addi	a0,a0,0
     41a:	0608                	addi	a0,sp,768
     41c:	00090003          	lb	zero,0(s2)
     420:	0100                	addi	s0,sp,128
     422:	0205                	addi	tp,tp,1
     424:	0306                	slli	t1,t1,0x1
     426:	0901                	addi	s2,s2,0
     428:	000a                	c.slli	zero,0x2
     42a:	0301                	addi	t1,t1,0
     42c:	0902                	c.slli64	s2
     42e:	0000                	unimp
     430:	0301                	addi	t1,t1,0
     432:	0902                	c.slli64	s2
     434:	0000                	unimp
     436:	0301                	addi	t1,t1,0
     438:	0901                	addi	s2,s2,0
     43a:	000c                	0xc
     43c:	0401                	addi	s0,s0,0
     43e:	0002                	c.slli64	zero
     440:	0402                	c.slli64	s0
     442:	0304                	addi	s1,sp,384
     444:	0c090193          	addi	gp,s2,192
     448:	0100                	addi	s0,sp,128
     44a:	0304                	addi	s1,sp,384
     44c:	0200                	addi	s0,sp,256
     44e:	0404                	addi	s1,sp,512
     450:	097ef203          	0x97ef203
     454:	0000                	unimp
     456:	0501                	addi	a0,a0,0
     458:	001d                	c.nop	7
     45a:	0402                	c.slli64	s0
     45c:	0604                	addi	s1,sp,768
     45e:	00090003          	lb	zero,0(s2)
     462:	0100                	addi	s0,sp,128
     464:	0104                	addi	s1,sp,128
     466:	0105                	addi	sp,sp,1
     468:	0200                	addi	s0,sp,256
     46a:	0404                	addi	s1,sp,512
     46c:	02097e03          	0x2097e03
     470:	0100                	addi	s0,sp,128
     472:	0304                	addi	s1,sp,384
     474:	1d05                	addi	s10,s10,-31
     476:	0200                	addi	s0,sp,256
     478:	0404                	addi	s1,sp,512
     47a:	02090203          	lb	tp,32(s2)
     47e:	0100                	addi	s0,sp,128
     480:	0104                	addi	s1,sp,128
     482:	0205                	addi	tp,tp,1
     484:	0200                	addi	s0,sp,256
     486:	0404                	addi	s1,sp,512
     488:	0306                	slli	t1,t1,0x1
     48a:	097d                	addi	s2,s2,31
     48c:	0004                	0x4
     48e:	0501                	addi	a0,a0,0
     490:	0001                	nop
     492:	0402                	c.slli64	s0
     494:	0604                	addi	s1,sp,768
     496:	00090103          	lb	sp,0(s2)
     49a:	0100                	addi	s0,sp,128
     49c:	0a09                	addi	s4,s4,2
     49e:	0000                	unimp
     4a0:	0101                	addi	sp,sp,0
     4a2:	00001a0b          	0x1a0b
     4a6:	054f0003          	lb	zero,84(t5) # 1a054 <__udivdi3-0x7e6358>
     4aa:	0000                	unimp
     4ac:	0101                	addi	sp,sp,0
     4ae:	000d0efb          	0xd0efb
     4b2:	0101                	addi	sp,sp,0
     4b4:	0101                	addi	sp,sp,0
     4b6:	0000                	unimp
     4b8:	0100                	addi	s0,sp,128
     4ba:	0000                	unimp
     4bc:	2f01                	jal	bcc <__udivdi3-0x7ff7e0>
     4be:	6f68                	flw	fa0,92(a4)
     4c0:	656d                	lui	a0,0x1b
     4c2:	6e6f6a2f          	0x6e6f6a2f
     4c6:	2e616a67          	0x2e616a67
     4ca:	2f6f6863          	bltu	t5,s6,7ba <__udivdi3-0x7ffbf2>
     4ce:	2f746947          	fmsub.q	fs2,fs0,fs7,ft5,unknown
     4d2:	656c                	flw	fa1,76(a0)
     4d4:	79636167          	0x79636167
     4d8:	6265722f          	0x6265722f
     4dc:	6c65                	lui	s8,0x19
     4de:	635f 7364 635f      	0x635f7364635f
     4e4:	616c6c6f          	jal	s8,c6afa <__udivdi3-0x7398b2>
     4e8:	5f62                	lw	t5,56(sp)
     4ea:	7768                	flw	fa0,108(a4)
     4ec:	6f6f622f          	0x6f6f622f
     4f0:	6c74                	flw	fa3,92(s0)
     4f2:	6564616f          	jal	sp,46b48 <__udivdi3-0x7b9864>
     4f6:	2f72                	fld	ft10,280(sp)
     4f8:	6f72                	flw	ft10,28(sp)
     4fa:	2f74                	fld	fa3,216(a4)
     4fc:	74726d63          	bltu	tp,t2,c56 <__udivdi3-0x7ff756>
     500:	7a2d                	lui	s4,0xfffeb
     502:	7065                	c.lui	zero,0xffff9
     504:	7968                	flw	fa0,116(a0)
     506:	2d72                	fld	fs10,280(sp)
     508:	2e32                	fld	ft8,264(sp)
     50a:	2e30                	fld	fa2,88(a2)
     50c:	642f3633          	0x642f3633
     510:	6972                	flw	fs2,28(sp)
     512:	6576                	flw	fa0,92(sp)
     514:	7372                	flw	ft6,60(sp)
     516:	726d632f          	0x726d632f
     51a:	0074                	addi	a3,sp,12
     51c:	6d6f682f          	0x6d6f682f
     520:	2f65                	jal	cd8 <__udivdi3-0x7ff6d4>
     522:	6f6a                	flw	ft10,152(sp)
     524:	676e                	flw	fa4,216(sp)
     526:	616a                	flw	ft2,152(sp)
     528:	632e                	flw	ft6,200(sp)
     52a:	6f68                	flw	fa0,92(a4)
     52c:	7469472f          	0x7469472f
     530:	67656c2f          	0x67656c2f
     534:	6361                	lui	t1,0x18
     536:	2f79                	jal	cd4 <__udivdi3-0x7ff6d8>
     538:	6572                	flw	fa0,28(sp)
     53a:	6562                	flw	fa0,24(sp)
     53c:	5f6c                	lw	a1,124(a4)
     53e:	5f736463          	bltu	t1,s7,b26 <__udivdi3-0x7ff886>
     542:	6c6c6f63          	bltu	s8,t1,c20 <__udivdi3-0x7ff78c>
     546:	6261                	lui	tp,0x18
     548:	685f 2f77 6f62      	0x6f622f77685f
     54e:	6f6c746f          	jal	s0,c7c44 <__udivdi3-0x738768>
     552:	6461                	lui	s0,0x18
     554:	7265                	lui	tp,0xffff9
     556:	746f722f          	0x746f722f
     55a:	726d632f          	0x726d632f
     55e:	2d74                	fld	fa3,216(a0)
     560:	657a                	flw	fa0,156(sp)
     562:	6870                	flw	fa2,84(s0)
     564:	7279                	lui	tp,0xffffe
     566:	322d                	jal	fffffe90 <_end+0xfeff9394>
     568:	302e                	fld	ft0,232(sp)
     56a:	332e                	fld	ft6,232(sp)
     56c:	2f36                	fld	ft10,328(sp)
     56e:	6e69                	lui	t3,0x1a
     570:	64756c63          	bltu	a0,t2,bc8 <__udivdi3-0x7ff7e4>
     574:	2f65                	jal	d2c <__udivdi3-0x7ff680>
     576:	7264                	flw	fs1,100(a2)
     578:	7669                	lui	a2,0xffffa
     57a:	7265                	lui	tp,0xffff9
     57c:	6d632f73          	csrrs	t5,0x6d6,t1
     580:	7472                	flw	fs0,60(sp)
     582:	2f00                	fld	fs0,24(a4)
     584:	6f68                	flw	fa0,92(a4)
     586:	656d                	lui	a0,0x1b
     588:	6e6f6a2f          	0x6e6f6a2f
     58c:	2e616a67          	0x2e616a67
     590:	2f6f6863          	bltu	t5,s6,880 <__udivdi3-0x7ffb2c>
     594:	2f746947          	fmsub.q	fs2,fs0,fs7,ft5,unknown
     598:	656c                	flw	fa1,76(a0)
     59a:	79636167          	0x79636167
     59e:	6265722f          	0x6265722f
     5a2:	6c65                	lui	s8,0x19
     5a4:	635f 7364 635f      	0x635f7364635f
     5aa:	616c6c6f          	jal	s8,c6bc0 <__udivdi3-0x7397ec>
     5ae:	5f62                	lw	t5,56(sp)
     5b0:	7768                	flw	fa0,108(a4)
     5b2:	6f6f622f          	0x6f6f622f
     5b6:	6c74                	flw	fa3,92(s0)
     5b8:	6564616f          	jal	sp,46c0e <__udivdi3-0x7b979e>
     5bc:	2f72                	fld	ft10,280(sp)
     5be:	6f72                	flw	ft10,28(sp)
     5c0:	2f74                	fld	fa3,216(a4)
     5c2:	74726d63          	bltu	tp,t2,d1c <__udivdi3-0x7ff690>
     5c6:	7a2d                	lui	s4,0xfffeb
     5c8:	7065                	c.lui	zero,0xffff9
     5ca:	7968                	flw	fa0,116(a0)
     5cc:	2d72                	fld	fs10,280(sp)
     5ce:	2e32                	fld	ft8,264(sp)
     5d0:	2e30                	fld	fa2,88(a2)
     5d2:	692f3633          	0x692f3633
     5d6:	636e                	flw	ft6,216(sp)
     5d8:	756c                	flw	fa1,108(a0)
     5da:	6564                	flw	fs1,76(a0)
     5dc:	6372612f          	0x6372612f
     5e0:	2f68                	fld	fa0,216(a4)
     5e2:	6d6d6f63          	bltu	s10,s6,cc0 <__udivdi3-0x7ff6ec>
     5e6:	2f006e6f          	jal	t3,68d6 <__udivdi3-0x7f9ad6>
     5ea:	6f68                	flw	fa0,92(a4)
     5ec:	656d                	lui	a0,0x1b
     5ee:	6e6f6a2f          	0x6e6f6a2f
     5f2:	2e616a67          	0x2e616a67
     5f6:	2f6f6863          	bltu	t5,s6,8e6 <__udivdi3-0x7ffac6>
     5fa:	2f746947          	fmsub.q	fs2,fs0,fs7,ft5,unknown
     5fe:	656c                	flw	fa1,76(a0)
     600:	79636167          	0x79636167
     604:	6265722f          	0x6265722f
     608:	6c65                	lui	s8,0x19
     60a:	635f 7364 635f      	0x635f7364635f
     610:	616c6c6f          	jal	s8,c6c26 <__udivdi3-0x739786>
     614:	5f62                	lw	t5,56(sp)
     616:	7768                	flw	fa0,108(a4)
     618:	6f6f622f          	0x6f6f622f
     61c:	6c74                	flw	fa3,92(s0)
     61e:	6564616f          	jal	sp,46c74 <__udivdi3-0x7b9738>
     622:	2f72                	fld	ft10,280(sp)
     624:	6f72                	flw	ft10,28(sp)
     626:	2f74                	fld	fa3,216(a4)
     628:	74726d63          	bltu	tp,t2,d82 <__udivdi3-0x7ff62a>
     62c:	7a2d                	lui	s4,0xfffeb
     62e:	7065                	c.lui	zero,0xffff9
     630:	7968                	flw	fa0,116(a0)
     632:	2d72                	fld	fs10,280(sp)
     634:	2e32                	fld	ft8,264(sp)
     636:	2e30                	fld	fa2,88(a2)
     638:	692f3633          	0x692f3633
     63c:	636e                	flw	ft6,216(sp)
     63e:	756c                	flw	fa1,108(a0)
     640:	6564                	flw	fs1,76(a0)
     642:	6372612f          	0x6372612f
     646:	2f68                	fld	fa0,216(a4)
     648:	6972                	flw	fs2,28(sp)
     64a:	00766373          	csrrsi	t1,0x7,12
     64e:	6d6f682f          	0x6d6f682f
     652:	2f65                	jal	e0a <__udivdi3-0x7ff5a2>
     654:	6f6a                	flw	ft10,152(sp)
     656:	676e                	flw	fa4,216(sp)
     658:	616a                	flw	ft2,152(sp)
     65a:	632e                	flw	ft6,200(sp)
     65c:	6f68                	flw	fa0,92(a4)
     65e:	7469472f          	0x7469472f
     662:	67656c2f          	0x67656c2f
     666:	6361                	lui	t1,0x18
     668:	2f79                	jal	e06 <__udivdi3-0x7ff5a6>
     66a:	6572                	flw	fa0,28(sp)
     66c:	6562                	flw	fa0,24(sp)
     66e:	5f6c                	lw	a1,124(a4)
     670:	5f736463          	bltu	t1,s7,c58 <__udivdi3-0x7ff754>
     674:	6c6c6f63          	bltu	s8,t1,d52 <__udivdi3-0x7ff65a>
     678:	6261                	lui	tp,0x18
     67a:	685f 2f77 6f62      	0x6f622f77685f
     680:	6f6c746f          	jal	s0,c7d76 <__udivdi3-0x738636>
     684:	6461                	lui	s0,0x18
     686:	7265                	lui	tp,0xffff9
     688:	746f722f          	0x746f722f
     68c:	726d632f          	0x726d632f
     690:	2d74                	fld	fa3,216(a0)
     692:	657a                	flw	fa0,156(sp)
     694:	6870                	flw	fa2,84(s0)
     696:	7279                	lui	tp,0xffffe
     698:	322d                	jal	ffffffc2 <_end+0xfeff94c6>
     69a:	302e                	fld	ft0,232(sp)
     69c:	332e                	fld	ft6,232(sp)
     69e:	2f36                	fld	ft10,328(sp)
     6a0:	706d6173          	csrrsi	sp,0x706,26
     6a4:	656c                	flw	fa1,76(a0)
     6a6:	6d632f73          	csrrs	t5,0x6d6,t1
     6aa:	7472                	flw	fs0,60(sp)
     6ac:	7265702f          	0x7265702f
     6b0:	622f6f73          	csrrsi	t5,0x622,30
     6b4:	616c                	flw	fa1,68(a0)
     6b6:	6b6e                	flw	fs6,216(sp)
     6b8:	6975622f          	0x6975622f
     6bc:	646c                	flw	fa1,76(s0)
     6be:	70657a2f          	0x70657a2f
     6c2:	7968                	flw	fa0,116(a0)
     6c4:	2f72                	fld	ft10,280(sp)
     6c6:	6e69                	lui	t3,0x1a
     6c8:	64756c63          	bltu	a0,t2,d20 <__udivdi3-0x7ff68c>
     6cc:	2f65                	jal	e84 <__udivdi3-0x7ff528>
     6ce:	656e6567          	0x656e6567
     6d2:	6172                	flw	ft2,28(sp)
     6d4:	6574                	flw	fa3,76(a0)
     6d6:	2f64                	fld	fs1,216(a4)
     6d8:	63737973          	csrrci	s2,0x637,6
     6dc:	6c61                	lui	s8,0x18
     6de:	736c                	flw	fa1,100(a4)
     6e0:	2f00                	fld	fs0,24(a4)
     6e2:	6f68                	flw	fa0,92(a4)
     6e4:	656d                	lui	a0,0x1b
     6e6:	6e6f6a2f          	0x6e6f6a2f
     6ea:	2e616a67          	0x2e616a67
     6ee:	2f6f6863          	bltu	t5,s6,9de <__udivdi3-0x7ff9ce>
     6f2:	2f746947          	fmsub.q	fs2,fs0,fs7,ft5,unknown
     6f6:	656c                	flw	fa1,76(a0)
     6f8:	79636167          	0x79636167
     6fc:	6265722f          	0x6265722f
     700:	6c65                	lui	s8,0x19
     702:	635f 7364 635f      	0x635f7364635f
     708:	616c6c6f          	jal	s8,c6d1e <__udivdi3-0x73968e>
     70c:	5f62                	lw	t5,56(sp)
     70e:	7768                	flw	fa0,108(a4)
     710:	6f6f622f          	0x6f6f622f
     714:	6c74                	flw	fa3,92(s0)
     716:	6564616f          	jal	sp,46d6c <__udivdi3-0x7b9640>
     71a:	2f72                	fld	ft10,280(sp)
     71c:	6f72                	flw	ft10,28(sp)
     71e:	2f74                	fld	fa3,216(a4)
     720:	74726d63          	bltu	tp,t2,e7a <__udivdi3-0x7ff532>
     724:	7a2d                	lui	s4,0xfffeb
     726:	7065                	c.lui	zero,0xffff9
     728:	7968                	flw	fa0,116(a0)
     72a:	2d72                	fld	fs10,280(sp)
     72c:	2e32                	fld	ft8,264(sp)
     72e:	2e30                	fld	fa2,88(a2)
     730:	692f3633          	0x692f3633
     734:	636e                	flw	ft6,216(sp)
     736:	756c                	flw	fa1,108(a0)
     738:	6564                	flw	fs1,76(a0)
     73a:	726d632f          	0x726d632f
     73e:	2f74                	fld	fa3,216(a4)
     740:	6266                	flw	ft4,88(sp)
     742:	00746f6f          	jal	t5,46f48 <__udivdi3-0x7b9464>
     746:	6d6f682f          	0x6d6f682f
     74a:	2f65                	jal	f02 <__udivdi3-0x7ff4aa>
     74c:	6f6a                	flw	ft10,152(sp)
     74e:	676e                	flw	fa4,216(sp)
     750:	616a                	flw	ft2,152(sp)
     752:	632e                	flw	ft6,200(sp)
     754:	6f68                	flw	fa0,92(a4)
     756:	7469472f          	0x7469472f
     75a:	67656c2f          	0x67656c2f
     75e:	6361                	lui	t1,0x18
     760:	2f79                	jal	efe <__udivdi3-0x7ff4ae>
     762:	6572                	flw	fa0,28(sp)
     764:	6562                	flw	fa0,24(sp)
     766:	5f6c                	lw	a1,124(a4)
     768:	5f736463          	bltu	t1,s7,d50 <__udivdi3-0x7ff65c>
     76c:	6c6c6f63          	bltu	s8,t1,e4a <__udivdi3-0x7ff562>
     770:	6261                	lui	tp,0x18
     772:	685f 2f77 6f62      	0x6f622f77685f
     778:	6f6c746f          	jal	s0,c7e6e <__udivdi3-0x73853e>
     77c:	6461                	lui	s0,0x18
     77e:	7265                	lui	tp,0xffff9
     780:	746f722f          	0x746f722f
     784:	726d632f          	0x726d632f
     788:	2d74                	fld	fa3,216(a0)
     78a:	657a                	flw	fa0,156(sp)
     78c:	6870                	flw	fa2,84(s0)
     78e:	7279                	lui	tp,0xffffe
     790:	322d                	jal	ba <__udivdi3-0x8002f2>
     792:	302e                	fld	ft0,232(sp)
     794:	332e                	fld	ft6,232(sp)
     796:	2f36                	fld	ft10,328(sp)
     798:	6e69                	lui	t3,0x1a
     79a:	64756c63          	bltu	a0,t2,df2 <__udivdi3-0x7ff5ba>
     79e:	2f65                	jal	f56 <__udivdi3-0x7ff456>
     7a0:	00737973          	csrrci	s2,0x7,6
     7a4:	74706f2f          	0x74706f2f
     7a8:	726d632f          	0x726d632f
     7ac:	2f74                	fld	fa3,216(a4)
     7ae:	2f6b6473          	csrrsi	s0,0x2f6,22
     7b2:	696c                	flw	fa1,84(a0)
     7b4:	2f62                	fld	ft10,24(sp)
     7b6:	2f636367          	0x2f636367
     7ba:	6972                	flw	fs2,28(sp)
     7bc:	33766373          	csrrsi	t1,mhpmevent23,12
     7c0:	2d32                	fld	fs10,264(sp)
     7c2:	6e75                	lui	t3,0x1d
     7c4:	776f6e6b          	0x776f6e6b
     7c8:	2d6e                	fld	fs10,216(sp)
     7ca:	6c65                	lui	s8,0x19
     7cc:	2f66                	fld	ft10,88(sp)
     7ce:	3031                	jal	ffffffda <_end+0xfeff94de>
     7d0:	322e                	fld	ft4,232(sp)
     7d2:	302e                	fld	ft0,232(sp)
     7d4:	636e692f          	0x636e692f
     7d8:	756c                	flw	fa1,108(a0)
     7da:	6564                	flw	fs1,76(a0)
     7dc:	2f00                	fld	fs0,24(a4)
     7de:	6f68                	flw	fa0,92(a4)
     7e0:	656d                	lui	a0,0x1b
     7e2:	6e6f6a2f          	0x6e6f6a2f
     7e6:	2e616a67          	0x2e616a67
     7ea:	2f6f6863          	bltu	t5,s6,ada <__udivdi3-0x7ff8d2>
     7ee:	2f746947          	fmsub.q	fs2,fs0,fs7,ft5,unknown
     7f2:	656c                	flw	fa1,76(a0)
     7f4:	79636167          	0x79636167
     7f8:	6265722f          	0x6265722f
     7fc:	6c65                	lui	s8,0x19
     7fe:	635f 7364 635f      	0x635f7364635f
     804:	616c6c6f          	jal	s8,c6e1a <__udivdi3-0x739592>
     808:	5f62                	lw	t5,56(sp)
     80a:	7768                	flw	fa0,108(a4)
     80c:	6f6f622f          	0x6f6f622f
     810:	6c74                	flw	fa3,92(s0)
     812:	6564616f          	jal	sp,46e68 <__udivdi3-0x7b9544>
     816:	2f72                	fld	ft10,280(sp)
     818:	6f72                	flw	ft10,28(sp)
     81a:	2f74                	fld	fa3,216(a4)
     81c:	74726d63          	bltu	tp,t2,f76 <__udivdi3-0x7ff436>
     820:	7a2d                	lui	s4,0xfffeb
     822:	7065                	c.lui	zero,0xffff9
     824:	7968                	flw	fa0,116(a0)
     826:	2d72                	fld	fs10,280(sp)
     828:	2e32                	fld	ft8,264(sp)
     82a:	2e30                	fld	fa2,88(a2)
     82c:	6c2f3633          	0x6c2f3633
     830:	6269                	lui	tp,0x1a
     832:	62696c2f          	0x62696c2f
     836:	696d2f63          	0x696d2f63
     83a:	696e                	flw	fs2,216(sp)
     83c:	616d                	addi	sp,sp,240
     83e:	2f6c                	fld	fa1,216(a4)
     840:	6e69                	lui	t3,0x1a
     842:	64756c63          	bltu	a0,t2,e9a <__udivdi3-0x7ff512>
     846:	0065                	c.nop	25
     848:	6d6f682f          	0x6d6f682f
     84c:	2f65                	jal	1004 <__udivdi3-0x7ff3a8>
     84e:	6f6a                	flw	ft10,152(sp)
     850:	676e                	flw	fa4,216(sp)
     852:	616a                	flw	ft2,152(sp)
     854:	632e                	flw	ft6,200(sp)
     856:	6f68                	flw	fa0,92(a4)
     858:	7469472f          	0x7469472f
     85c:	67656c2f          	0x67656c2f
     860:	6361                	lui	t1,0x18
     862:	2f79                	jal	1000 <__udivdi3-0x7ff3ac>
     864:	6572                	flw	fa0,28(sp)
     866:	6562                	flw	fa0,24(sp)
     868:	5f6c                	lw	a1,124(a4)
     86a:	5f736463          	bltu	t1,s7,e52 <__udivdi3-0x7ff55a>
     86e:	6c6c6f63          	bltu	s8,t1,f4c <__udivdi3-0x7ff460>
     872:	6261                	lui	tp,0x18
     874:	685f 2f77 6f62      	0x6f622f77685f
     87a:	6f6c746f          	jal	s0,c7f70 <__udivdi3-0x73843c>
     87e:	6461                	lui	s0,0x18
     880:	7265                	lui	tp,0xffff9
     882:	746f722f          	0x746f722f
     886:	726d632f          	0x726d632f
     88a:	2d74                	fld	fa3,216(a0)
     88c:	657a                	flw	fa0,156(sp)
     88e:	6870                	flw	fa2,84(s0)
     890:	7279                	lui	tp,0xffffe
     892:	322d                	jal	1bc <__udivdi3-0x8001f0>
     894:	302e                	fld	ft0,232(sp)
     896:	332e                	fld	ft6,232(sp)
     898:	2f36                	fld	ft10,328(sp)
     89a:	6e69                	lui	t3,0x1a
     89c:	64756c63          	bltu	a0,t2,ef4 <__udivdi3-0x7ff4b8>
     8a0:	2f65                	jal	1058 <__udivdi3-0x7ff354>
     8a2:	6f6c                	flw	fa1,92(a4)
     8a4:	6e696767          	0x6e696767
     8a8:	75000067          	jr	1872(zero) # 0 <__udivdi3-0x8003ac>
     8ac:	6974                	flw	fa3,84(a0)
     8ae:	2e6c                	fld	fa1,216(a2)
     8b0:	00010063          	beqz	sp,8b0 <__udivdi3-0x7ffafc>
     8b4:	6300                	flw	fs0,0(a4)
     8b6:	726d                	lui	tp,0xffffb
     8b8:	2e74                	fld	fa3,216(a2)
     8ba:	0068                	addi	a0,sp,12
     8bc:	0002                	c.slli64	zero
     8be:	7300                	flw	fs0,32(a4)
     8c0:	7379                	lui	t1,0xffffe
     8c2:	695f 2e6f 0068      	0x682e6f695f
     8c8:	61000003          	lb	zero,1552(zero) # 610 <__udivdi3-0x7ffd9c>
     8cc:	6372                	flw	ft6,28(sp)
     8ce:	2e68                	fld	fa0,216(a2)
     8d0:	0068                	addi	a0,sp,12
     8d2:	0004                	0x4
     8d4:	6300                	flw	fs0,0(a4)
     8d6:	00682e63          	0x682e63
     8da:	0005                	c.nop	1
     8dc:	6600                	flw	fs0,8(a2)
     8de:	636d                	lui	t1,0x1b
     8e0:	682e                	flw	fa6,200(sp)
     8e2:	0500                	addi	s0,sp,640
     8e4:	0000                	unimp
     8e6:	6e72656b          	0x6e72656b
     8ea:	6c65                	lui	s8,0x19
     8ec:	682e                	flw	fa6,200(sp)
     8ee:	0500                	addi	s0,sp,640
     8f0:	0000                	unimp
     8f2:	6d74                	flw	fa3,92(a0)
     8f4:	00682e63          	0x682e63
     8f8:	0005                	c.nop	1
     8fa:	6f00                	flw	fs0,24(a4)
     8fc:	636d                	lui	t1,0x1b
     8fe:	682e                	flw	fa6,200(sp)
     900:	0500                	addi	s0,sp,640
     902:	0000                	unimp
     904:	7475                	lui	s0,0xffffd
     906:	6c69                	lui	s8,0x1a
     908:	682e                	flw	fa6,200(sp)
     90a:	0500                	addi	s0,sp,640
     90c:	0000                	unimp
     90e:	2e63646b          	0x2e63646b
     912:	0068                	addi	a0,sp,12
     914:	0005                	c.nop	1
     916:	6900                	flw	fs0,16(a0)
     918:	676d                	lui	a4,0x1b
     91a:	665f 726f 616d      	0x616d726f665f
     920:	2e74                	fld	fa3,216(a2)
     922:	0068                	addi	a0,sp,12
     924:	0006                	c.slli	zero,0x1
     926:	7400                	flw	fs0,40(s0)
     928:	6d69                	lui	s10,0x1a
     92a:	5f65                	li	t5,-7
     92c:	6e75                	lui	t3,0x1d
     92e:	7469                	lui	s0,0xffffa
     930:	00682e73          	csrrs	t3,0x6,a6
     934:	74000007          	0x74000007
     938:	6d69                	lui	s10,0x1a
     93a:	5f65                	li	t5,-7
     93c:	6e75                	lui	t3,0x1d
     93e:	7469                	lui	s0,0xffffa
     940:	00682e73          	csrrs	t3,0x6,a6
     944:	0005                	c.nop	1
     946:	7300                	flw	fs0,32(a4)
     948:	6474                	flw	fa3,76(s0)
     94a:	6564                	flw	fs1,76(a0)
     94c:	2e66                	fld	ft8,88(sp)
     94e:	0068                	addi	a0,sp,12
     950:	0008                	0x8
     952:	7300                	flw	fs0,32(a4)
     954:	6474                	flw	fa3,76(s0)
     956:	6e69                	lui	t3,0x1a
     958:	2e74                	fld	fa3,216(a2)
     95a:	0068                	addi	a0,sp,12
     95c:	0009                	c.nop	2
     95e:	7300                	flw	fs0,32(a4)
     960:	7379                	lui	t1,0xffffe
     962:	695f 2e6f 0068      	0x682e6f695f
     968:	63000007          	0x63000007
     96c:	00682e63          	0x682e63
     970:	0002                	c.slli64	zero
     972:	6600                	flw	fs0,8(a2)
     974:	636d                	lui	t1,0x1b
     976:	682e                	flw	fa6,200(sp)
     978:	0200                	addi	s0,sp,256
     97a:	0000                	unimp
     97c:	2e63646b          	0x2e63646b
     980:	0068                	addi	a0,sp,12
     982:	0002                	c.slli64	zero
     984:	6500                	flw	fs0,8(a0)
     986:	636d                	lui	t1,0x1b
     988:	682e                	flw	fa6,200(sp)
     98a:	0200                	addi	s0,sp,256
     98c:	0000                	unimp
     98e:	6d74                	flw	fa3,92(a0)
     990:	00682e63          	0x682e63
     994:	0002                	c.slli64	zero
     996:	6f00                	flw	fs0,24(a4)
     998:	636d                	lui	t1,0x1b
     99a:	682e                	flw	fa6,200(sp)
     99c:	0200                	addi	s0,sp,256
     99e:	0000                	unimp
     9a0:	7475                	lui	s0,0xffffd
     9a2:	6c69                	lui	s8,0x1a
     9a4:	682e                	flw	fa6,200(sp)
     9a6:	0200                	addi	s0,sp,256
     9a8:	0000                	unimp
     9aa:	6f6c                	flw	fa1,92(a4)
     9ac:	6e695f67          	0x6e695f67
     9b0:	6e617473          	csrrci	s0,0x6e6,2
     9b4:	682e6563          	bltu	t3,sp,103e <__udivdi3-0x7ff36e>
     9b8:	0a00                	addi	s0,sp,272
     9ba:	0000                	unimp
     9bc:	72706263          	bltu	zero,t2,10e0 <__udivdi3-0x7ff2cc>
     9c0:	6e69                	lui	t3,0x1a
     9c2:	6674                	flw	fa3,76(a2)
     9c4:	695f 746e 7265      	0x7265746e695f
     9ca:	616e                	flw	ft2,216(sp)
     9cc:	2e6c                	fld	fa1,216(a2)
     9ce:	0068                	addi	a0,sp,12
     9d0:	6c000007          	0x6c000007
     9d4:	6d5f676f          	jal	a4,f78a8 <__udivdi3-0x708b04>
     9d8:	2e326773          	csrrsi	a4,0x2e3,4
     9dc:	0068                	addi	a0,sp,12
     9de:	000a                	c.slli	zero,0x2
     9e0:	6c00                	flw	fs0,24(s0)
     9e2:	6d5f676f          	jal	a4,f78b6 <__udivdi3-0x708af6>
     9e6:	682e6773          	csrrsi	a4,0x682,28
     9ea:	0a00                	addi	s0,sp,272
     9ec:	0000                	unimp
     9ee:	69727473          	csrrci	s0,0x697,4
     9f2:	676e                	flw	fa4,216(sp)
     9f4:	682e                	flw	fa6,200(sp)
     9f6:	0900                	addi	s0,sp,144
     9f8:	0000                	unimp
     9fa:	0500                	addi	s0,sp,640
     9fc:	0001                	nop
     9fe:	0205                	addi	tp,tp,1
     a00:	65ce                	flw	fa1,208(sp)
     a02:	0100                	addi	s0,sp,128
     a04:	05011703          	lh	a4,80(sp)
     a08:	0302                	c.slli64	t1
     a0a:	0901                	addi	s2,s2,0
     a0c:	0000                	unimp
     a0e:	0301                	addi	t1,t1,0
     a10:	0900                	addi	s0,sp,144
     a12:	0000                	unimp
     a14:	0301                	addi	t1,t1,0
     a16:	0900                	addi	s0,sp,144
     a18:	0000                	unimp
     a1a:	0301                	addi	t1,t1,0
     a1c:	0901                	addi	s2,s2,0
     a1e:	0000                	unimp
     a20:	0401                	addi	s0,s0,0
     a22:	0302                	c.slli64	t1
     a24:	0198                	addi	a4,sp,192
     a26:	0009                	c.nop	2
     a28:	0100                	addi	s0,sp,128
     a2a:	0304                	addi	s1,sp,384
     a2c:	097efb03          	0x97efb03
     a30:	0000                	unimp
     a32:	0501                	addi	a0,a0,0
     a34:	0609                	addi	a2,a2,2
     a36:	00090003          	lb	zero,0(s2)
     a3a:	0100                	addi	s0,sp,128
     a3c:	0104                	addi	s1,sp,128
     a3e:	0105                	addi	sp,sp,1
     a40:	06096b03          	0x6096b03
     a44:	0100                	addi	s0,sp,128
     a46:	0304                	addi	s1,sp,384
     a48:	0905                	addi	s2,s2,1
     a4a:	04091503          	lh	a0,64(s2)
     a4e:	0100                	addi	s0,sp,128
     a50:	0104                	addi	s1,sp,128
     a52:	0205                	addi	tp,tp,1
     a54:	0306                	slli	t1,t1,0x1
     a56:	096e                	slli	s2,s2,0x1b
     a58:	0004                	0x4
     a5a:	0401                	addi	s0,s0,0
     a5c:	0302                	c.slli64	t1
     a5e:	00090197          	auipc	gp,0x90
     a62:	0100                	addi	s0,sp,128
     a64:	0304                	addi	s1,sp,384
     a66:	097efb03          	0x97efb03
     a6a:	0000                	unimp
     a6c:	0501                	addi	a0,a0,0
     a6e:	0609                	addi	a2,a2,2
     a70:	04090003          	lb	zero,64(s2)
     a74:	0100                	addi	s0,sp,128
     a76:	0104                	addi	s1,sp,128
     a78:	0205                	addi	tp,tp,1
     a7a:	0306                	slli	t1,t1,0x1
     a7c:	0004096f          	jal	s2,40a7c <__udivdi3-0x7bf930>
     a80:	0401                	addi	s0,s0,0
     a82:	0302                	c.slli64	t1
     a84:	0196                	slli	gp,gp,0x5
     a86:	0009                	c.nop	2
     a88:	0100                	addi	s0,sp,128
     a8a:	0304                	addi	s1,sp,384
     a8c:	097efb03          	0x97efb03
     a90:	0000                	unimp
     a92:	0501                	addi	a0,a0,0
     a94:	0609                	addi	a2,a2,2
     a96:	00090003          	lb	zero,0(s2)
     a9a:	0100                	addi	s0,sp,128
     a9c:	0104                	addi	s1,sp,128
     a9e:	0205                	addi	tp,tp,1
     aa0:	0306                	slli	t1,t1,0x1
     aa2:	0970                	addi	a2,sp,156
     aa4:	0004                	0x4
     aa6:	0401                	addi	s0,s0,0
     aa8:	0302                	c.slli64	t1
     aaa:	0195                	addi	gp,gp,5
     aac:	0009                	c.nop	2
     aae:	0100                	addi	s0,sp,128
     ab0:	0304                	addi	s1,sp,384
     ab2:	097efb03          	0x97efb03
     ab6:	0000                	unimp
     ab8:	0501                	addi	a0,a0,0
     aba:	0609                	addi	a2,a2,2
     abc:	00090003          	lb	zero,0(s2)
     ac0:	0100                	addi	s0,sp,128
     ac2:	0104                	addi	s1,sp,128
     ac4:	0205                	addi	tp,tp,1
     ac6:	0306                	slli	t1,t1,0x1
     ac8:	0971                	addi	s2,s2,28
     aca:	0004                	0x4
     acc:	0401                	addi	s0,s0,0
     ace:	0302                	c.slli64	t1
     ad0:	0194                	addi	a3,sp,192
     ad2:	0009                	c.nop	2
     ad4:	0100                	addi	s0,sp,128
     ad6:	0304                	addi	s1,sp,384
     ad8:	097efb03          	0x97efb03
     adc:	0000                	unimp
     ade:	0501                	addi	a0,a0,0
     ae0:	0609                	addi	a2,a2,2
     ae2:	00090003          	lb	zero,0(s2)
     ae6:	0100                	addi	s0,sp,128
     ae8:	0104                	addi	s1,sp,128
     aea:	0205                	addi	tp,tp,1
     aec:	0306                	slli	t1,t1,0x1
     aee:	0972                	slli	s2,s2,0x1c
     af0:	0004                	0x4
     af2:	0401                	addi	s0,s0,0
     af4:	0302                	c.slli64	t1
     af6:	00090193          	mv	gp,s2
     afa:	0100                	addi	s0,sp,128
     afc:	0304                	addi	s1,sp,384
     afe:	097efb03          	0x97efb03
     b02:	0000                	unimp
     b04:	0501                	addi	a0,a0,0
     b06:	0609                	addi	a2,a2,2
     b08:	00090003          	lb	zero,0(s2)
     b0c:	0100                	addi	s0,sp,128
     b0e:	0104                	addi	s1,sp,128
     b10:	0205                	addi	tp,tp,1
     b12:	0306                	slli	t1,t1,0x1
     b14:	00040973          	0x40973
     b18:	0401                	addi	s0,s0,0
     b1a:	0302                	c.slli64	t1
     b1c:	0192                	slli	gp,gp,0x4
     b1e:	0009                	c.nop	2
     b20:	0100                	addi	s0,sp,128
     b22:	0304                	addi	s1,sp,384
     b24:	097efb03          	0x97efb03
     b28:	0000                	unimp
     b2a:	0501                	addi	a0,a0,0
     b2c:	0609                	addi	a2,a2,2
     b2e:	00090003          	lb	zero,0(s2)
     b32:	0100                	addi	s0,sp,128
     b34:	0104                	addi	s1,sp,128
     b36:	0205                	addi	tp,tp,1
     b38:	0306                	slli	t1,t1,0x1
     b3a:	0975                	addi	s2,s2,29
     b3c:	0004                	0x4
     b3e:	0301                	addi	t1,t1,0
     b40:	0901                	addi	s2,s2,0
     b42:	0000                	unimp
     b44:	0501                	addi	a0,a0,0
     b46:	09000307          	0x9000307
     b4a:	0000                	unimp
     b4c:	0501                	addi	a0,a0,0
     b4e:	0315                	addi	t1,t1,5
     b50:	0900                	addi	s0,sp,144
     b52:	0000                	unimp
     b54:	0401                	addi	s0,s0,0
     b56:	06090503          	lb	a0,96(s2)
     b5a:	04090a03          	lb	s4,64(s2)
     b5e:	0100                	addi	s0,sp,128
     b60:	0104                	addi	s1,sp,128
     b62:	0305                	addi	t1,t1,1
     b64:	0200                	addi	s0,sp,256
     b66:	0304                	addi	s1,sp,384
     b68:	0306                	slli	t1,t1,0x1
     b6a:	00040977          	0x40977
     b6e:	0401                	addi	s0,s0,0
     b70:	0502                	c.slli64	a0
     b72:	0002                	c.slli64	zero
     b74:	0402                	c.slli64	s0
     b76:	018e0303          	lb	t1,24(t3) # 1a018 <__udivdi3-0x7e6394>
     b7a:	0009                	c.nop	2
     b7c:	0100                	addi	s0,sp,128
     b7e:	0304                	addi	s1,sp,384
     b80:	0200                	addi	s0,sp,256
     b82:	0304                	addi	s1,sp,384
     b84:	097efb03          	0x97efb03
     b88:	0000                	unimp
     b8a:	0501                	addi	a0,a0,0
     b8c:	0009                	c.nop	2
     b8e:	0402                	c.slli64	s0
     b90:	00030603          	lb	a2,0(t1) # 1b000 <__udivdi3-0x7e53ac>
     b94:	0409                	addi	s0,s0,2
     b96:	0100                	addi	s0,sp,128
     b98:	0104                	addi	s1,sp,128
     b9a:	0205                	addi	tp,tp,1
     b9c:	0200                	addi	s0,sp,256
     b9e:	0304                	addi	s1,sp,384
     ba0:	02097603          	0x2097603
     ba4:	0100                	addi	s0,sp,128
     ba6:	1105                	addi	sp,sp,-31
     ba8:	0200                	addi	s0,sp,256
     baa:	0304                	addi	s1,sp,384
     bac:	02090103          	lb	sp,32(s2)
     bb0:	0100                	addi	s0,sp,128
     bb2:	2e05                	jal	ee2 <__udivdi3-0x7ff4ca>
     bb4:	0200                	addi	s0,sp,256
     bb6:	0304                	addi	s1,sp,384
     bb8:	0306                	slli	t1,t1,0x1
     bba:	097f                	0x97f
     bbc:	0004                	0x4
     bbe:	0501                	addi	a0,a0,0
     bc0:	0015                	c.nop	5
     bc2:	0402                	c.slli64	s0
     bc4:	09000303          	lb	t1,144(zero) # 90 <__udivdi3-0x80031c>
     bc8:	0000                	unimp
     bca:	0501                	addi	a0,a0,0
     bcc:	0002                	c.slli64	zero
     bce:	0402                	c.slli64	s0
     bd0:	00030603          	lb	a2,0(t1)
     bd4:	0009                	c.nop	2
     bd6:	0100                	addi	s0,sp,128
     bd8:	0306                	slli	t1,t1,0x1
     bda:	0904                	addi	s1,sp,144
     bdc:	0004                	0x4
     bde:	0401                	addi	s0,s0,0
     be0:	0302                	c.slli64	t1
     be2:	0199                	addi	gp,gp,6
     be4:	0009                	c.nop	2
     be6:	0100                	addi	s0,sp,128
     be8:	0304                	addi	s1,sp,384
     bea:	097ef203          	0x97ef203
     bee:	0000                	unimp
     bf0:	0501                	addi	a0,a0,0
     bf2:	061d                	addi	a2,a2,7
     bf4:	00090003          	lb	zero,0(s2)
     bf8:	0100                	addi	s0,sp,128
     bfa:	0104                	addi	s1,sp,128
     bfc:	0805                	addi	a6,a6,1
     bfe:	0306                	slli	t1,t1,0x1
     c00:	0976                	slli	s2,s2,0x1d
     c02:	0006                	c.slli	zero,0x1
     c04:	0401                	addi	s0,s0,0
     c06:	0502                	c.slli64	a0
     c08:	0302                	c.slli64	t1
     c0a:	018a                	slli	gp,gp,0x2
     c0c:	0009                	c.nop	2
     c0e:	0100                	addi	s0,sp,128
     c10:	0304                	addi	s1,sp,384
     c12:	097efb03          	0x97efb03
     c16:	0000                	unimp
     c18:	0501                	addi	a0,a0,0
     c1a:	0609                	addi	a2,a2,2
     c1c:	00090003          	lb	zero,0(s2)
     c20:	0100                	addi	s0,sp,128
     c22:	0104                	addi	s1,sp,128
     c24:	0805                	addi	a6,a6,1
     c26:	04097b03          	0x4097b03
     c2a:	0100                	addi	s0,sp,128
     c2c:	0304                	addi	s1,sp,384
     c2e:	0905                	addi	s2,s2,1
     c30:	04090503          	lb	a0,64(s2)
     c34:	0100                	addi	s0,sp,128
     c36:	0104                	addi	s1,sp,128
     c38:	0805                	addi	a6,a6,1
     c3a:	02097b03          	0x2097b03
     c3e:	0100                	addi	s0,sp,128
     c40:	0305                	addi	t1,t1,1
     c42:	0306                	slli	t1,t1,0x1
     c44:	0901                	addi	s2,s2,0
     c46:	0002                	c.slli64	zero
     c48:	0401                	addi	s0,s0,0
     c4a:	0504                	addi	s1,sp,640
     c4c:	0302                	c.slli64	t1
     c4e:	02bd                	addi	t0,t0,15
     c50:	0009                	c.nop	2
     c52:	0100                	addi	s0,sp,128
     c54:	0104                	addi	s1,sp,128
     c56:	0805                	addi	a6,a6,1
     c58:	097dc203          	lbu	tp,151(s11) # 2ca22bf <_end+0x1c9b7c3>
     c5c:	0002                	c.slli64	zero
     c5e:	0401                	addi	s0,s0,0
     c60:	0502                	c.slli64	a0
     c62:	0302                	c.slli64	t1
     c64:	018a                	slli	gp,gp,0x2
     c66:	0009                	c.nop	2
     c68:	0100                	addi	s0,sp,128
     c6a:	0304                	addi	s1,sp,384
     c6c:	097efb03          	0x97efb03
     c70:	0000                	unimp
     c72:	0501                	addi	a0,a0,0
     c74:	0609                	addi	a2,a2,2
     c76:	00090003          	lb	zero,0(s2)
     c7a:	0100                	addi	s0,sp,128
     c7c:	0104                	addi	s1,sp,128
     c7e:	0805                	addi	a6,a6,1
     c80:	04097b03          	0x4097b03
     c84:	0100                	addi	s0,sp,128
     c86:	0205                	addi	tp,tp,1
     c88:	0306                	slli	t1,t1,0x1
     c8a:	00040903          	lb	s2,0(s0) # ffffd000 <_end+0xfeff6504>
     c8e:	0401                	addi	s0,s0,0
     c90:	0302                	c.slli64	t1
     c92:	0195                	addi	gp,gp,5
     c94:	0009                	c.nop	2
     c96:	0100                	addi	s0,sp,128
     c98:	0304                	addi	s1,sp,384
     c9a:	097ef203          	0x97ef203
     c9e:	0000                	unimp
     ca0:	0501                	addi	a0,a0,0
     ca2:	061d                	addi	a2,a2,7
     ca4:	00090003          	lb	zero,0(s2)
     ca8:	0100                	addi	s0,sp,128
     caa:	0104                	addi	s1,sp,128
     cac:	0205                	addi	tp,tp,1
     cae:	0306                	slli	t1,t1,0x1
     cb0:	097a                	slli	s2,s2,0x1e
     cb2:	0006                	c.slli	zero,0x1
     cb4:	0401                	addi	s0,s0,0
     cb6:	0302                	c.slli64	t1
     cb8:	0194                	addi	a3,sp,192
     cba:	0009                	c.nop	2
     cbc:	0100                	addi	s0,sp,128
     cbe:	0304                	addi	s1,sp,384
     cc0:	097ef203          	0x97ef203
     cc4:	0000                	unimp
     cc6:	0501                	addi	a0,a0,0
     cc8:	061d                	addi	a2,a2,7
     cca:	00090003          	lb	zero,0(s2)
     cce:	0100                	addi	s0,sp,128
     cd0:	0104                	addi	s1,sp,128
     cd2:	0205                	addi	tp,tp,1
     cd4:	0306                	slli	t1,t1,0x1
     cd6:	097c                	addi	a5,sp,156
     cd8:	0006                	c.slli	zero,0x1
     cda:	0401                	addi	s0,s0,0
     cdc:	0302                	c.slli64	t1
     cde:	0192                	slli	gp,gp,0x4
     ce0:	0009                	c.nop	2
     ce2:	0100                	addi	s0,sp,128
     ce4:	0304                	addi	s1,sp,384
     ce6:	097ef203          	0x97ef203
     cea:	0000                	unimp
     cec:	0501                	addi	a0,a0,0
     cee:	061d                	addi	a2,a2,7
     cf0:	00090003          	lb	zero,0(s2)
     cf4:	0100                	addi	s0,sp,128
     cf6:	0104                	addi	s1,sp,128
     cf8:	0205                	addi	tp,tp,1
     cfa:	0306                	slli	t1,t1,0x1
     cfc:	097d                	addi	s2,s2,31
     cfe:	0004                	0x4
     d00:	0401                	addi	s0,s0,0
     d02:	0302                	c.slli64	t1
     d04:	0191                	addi	gp,gp,4
     d06:	0009                	c.nop	2
     d08:	0100                	addi	s0,sp,128
     d0a:	0304                	addi	s1,sp,384
     d0c:	097ef203          	0x97ef203
     d10:	0000                	unimp
     d12:	0501                	addi	a0,a0,0
     d14:	061d                	addi	a2,a2,7
     d16:	00090003          	lb	zero,0(s2)
     d1a:	0100                	addi	s0,sp,128
     d1c:	0104                	addi	s1,sp,128
     d1e:	0205                	addi	tp,tp,1
     d20:	0306                	slli	t1,t1,0x1
     d22:	097e                	slli	s2,s2,0x1f
     d24:	0004                	0x4
     d26:	0401                	addi	s0,s0,0
     d28:	0302                	c.slli64	t1
     d2a:	0190                	addi	a2,sp,192
     d2c:	0009                	c.nop	2
     d2e:	0100                	addi	s0,sp,128
     d30:	0304                	addi	s1,sp,384
     d32:	097ef203          	0x97ef203
     d36:	0000                	unimp
     d38:	0501                	addi	a0,a0,0
     d3a:	061d                	addi	a2,a2,7
     d3c:	00090003          	lb	zero,0(s2)
     d40:	0100                	addi	s0,sp,128
     d42:	0104                	addi	s1,sp,128
     d44:	0205                	addi	tp,tp,1
     d46:	0306                	slli	t1,t1,0x1
     d48:	097f                	0x97f
     d4a:	0004                	0x4
     d4c:	0401                	addi	s0,s0,0
     d4e:	0302                	c.slli64	t1
     d50:	0009018f          	0x9018f
     d54:	0100                	addi	s0,sp,128
     d56:	0304                	addi	s1,sp,384
     d58:	097ef203          	0x97ef203
     d5c:	0000                	unimp
     d5e:	0501                	addi	a0,a0,0
     d60:	061d                	addi	a2,a2,7
     d62:	00090003          	lb	zero,0(s2)
     d66:	0100                	addi	s0,sp,128
     d68:	0104                	addi	s1,sp,128
     d6a:	0205                	addi	tp,tp,1
     d6c:	0306                	slli	t1,t1,0x1
     d6e:	0901                	addi	s2,s2,0
     d70:	0004                	0x4
     d72:	0501                	addi	a0,a0,0
     d74:	09000307          	0x9000307
     d78:	0000                	unimp
     d7a:	0501                	addi	a0,a0,0
     d7c:	0315                	addi	t1,t1,5
     d7e:	0900                	addi	s0,sp,144
     d80:	0000                	unimp
     d82:	0501                	addi	a0,a0,0
     d84:	04020003          	lb	zero,64(tp) # ffffb040 <_end+0xfeff4544>
     d88:	09010303          	lb	t1,144(sp)
     d8c:	0000                	unimp
     d8e:	0401                	addi	s0,s0,0
     d90:	0502                	c.slli64	a0
     d92:	0002                	c.slli64	zero
     d94:	0402                	c.slli64	s0
     d96:	018c0303          	lb	t1,24(s8) # 1a018 <__udivdi3-0x7e6394>
     d9a:	0209                	addi	tp,tp,2
     d9c:	0100                	addi	s0,sp,128
     d9e:	0304                	addi	s1,sp,384
     da0:	0200                	addi	s0,sp,256
     da2:	0304                	addi	s1,sp,384
     da4:	097ef203          	0x97ef203
     da8:	0000                	unimp
     daa:	0401                	addi	s0,s0,0
     dac:	0001                	nop
     dae:	0402                	c.slli64	s0
     db0:	01030603          	lb	a2,16(t1)
     db4:	0409                	addi	s0,s0,2
     db6:	0100                	addi	s0,sp,128
     db8:	0304                	addi	s1,sp,384
     dba:	1d05                	addi	s10,s10,-31
     dbc:	0200                	addi	s0,sp,256
     dbe:	0304                	addi	s1,sp,384
     dc0:	02097f03          	0x2097f03
     dc4:	0100                	addi	s0,sp,128
     dc6:	0104                	addi	s1,sp,128
     dc8:	2e05                	jal	10f8 <__udivdi3-0x7ff2b4>
     dca:	0200                	addi	s0,sp,256
     dcc:	0304                	addi	s1,sp,384
     dce:	0306                	slli	t1,t1,0x1
     dd0:	0901                	addi	s2,s2,0
     dd2:	0002                	c.slli64	zero
     dd4:	0501                	addi	a0,a0,0
     dd6:	0015                	c.nop	5
     dd8:	0402                	c.slli64	s0
     dda:	09000303          	lb	t1,144(zero) # 90 <__udivdi3-0x80031c>
     dde:	0000                	unimp
     de0:	0501                	addi	a0,a0,0
     de2:	0002                	c.slli64	zero
     de4:	0402                	c.slli64	s0
     de6:	00030603          	lb	a2,0(t1)
     dea:	0009                	c.nop	2
     dec:	0100                	addi	s0,sp,128
     dee:	0306                	slli	t1,t1,0x1
     df0:	0904                	addi	s1,sp,144
     df2:	0004                	0x4
     df4:	0401                	addi	s0,s0,0
     df6:	0302                	c.slli64	t1
     df8:	0189                	addi	gp,gp,2
     dfa:	0009                	c.nop	2
     dfc:	0100                	addi	s0,sp,128
     dfe:	0304                	addi	s1,sp,384
     e00:	097ef203          	0x97ef203
     e04:	0000                	unimp
     e06:	0501                	addi	a0,a0,0
     e08:	061d                	addi	a2,a2,7
     e0a:	00090003          	lb	zero,0(s2)
     e0e:	0100                	addi	s0,sp,128
     e10:	0104                	addi	s1,sp,128
     e12:	0205                	addi	tp,tp,1
     e14:	0306                	slli	t1,t1,0x1
     e16:	0906                	slli	s2,s2,0x1
     e18:	0008                	0x8
     e1a:	0401                	addi	s0,s0,0
     e1c:	0302                	c.slli64	t1
     e1e:	0188                	addi	a0,sp,192
     e20:	0009                	c.nop	2
     e22:	0100                	addi	s0,sp,128
     e24:	0304                	addi	s1,sp,384
     e26:	097ef203          	0x97ef203
     e2a:	0000                	unimp
     e2c:	0501                	addi	a0,a0,0
     e2e:	061d                	addi	a2,a2,7
     e30:	00090003          	lb	zero,0(s2)
     e34:	0100                	addi	s0,sp,128
     e36:	0104                	addi	s1,sp,128
     e38:	0205                	addi	tp,tp,1
     e3a:	0306                	slli	t1,t1,0x1
     e3c:	00040907          	0x40907
     e40:	0401                	addi	s0,s0,0
     e42:	0302                	c.slli64	t1
     e44:	00090187          	0x90187
     e48:	0100                	addi	s0,sp,128
     e4a:	0304                	addi	s1,sp,384
     e4c:	097ef203          	0x97ef203
     e50:	0000                	unimp
     e52:	0501                	addi	a0,a0,0
     e54:	061d                	addi	a2,a2,7
     e56:	00090003          	lb	zero,0(s2)
     e5a:	0100                	addi	s0,sp,128
     e5c:	0104                	addi	s1,sp,128
     e5e:	0105                	addi	sp,sp,1
     e60:	04090803          	lb	a6,64(s2)
     e64:	0100                	addi	s0,sp,128
     e66:	0409                	addi	s0,s0,2
     e68:	0000                	unimp
     e6a:	0101                	addi	sp,sp,0
     e6c:	0105                	addi	sp,sp,1
     e6e:	0500                	addi	s0,sp,640
     e70:	6a02                	flw	fs4,0(sp)
     e72:	0066                	c.slli	zero,0x19
     e74:	0301                	addi	t1,t1,0
     e76:	00c0                	addi	s0,sp,68
     e78:	0501                	addi	a0,a0,0
     e7a:	0302                	c.slli64	t1
     e7c:	0901                	addi	s2,s2,0
     e7e:	0000                	unimp
     e80:	0401                	addi	s0,s0,0
     e82:	0305                	addi	t1,t1,1
     e84:	0966                	slli	s2,s2,0x19
     e86:	0000                	unimp
     e88:	0301                	addi	t1,t1,0
     e8a:	0900                	addi	s0,sp,144
     e8c:	0000                	unimp
     e8e:	0401                	addi	s0,s0,0
     e90:	0501                	addi	a0,a0,0
     e92:	0601                	addi	a2,a2,0
     e94:	00091903          	lh	s2,0(s2)
     e98:	0100                	addi	s0,sp,128
     e9a:	0504                	addi	s1,sp,640
     e9c:	0205                	addi	tp,tp,1
     e9e:	08096703          	0x8096703
     ea2:	0100                	addi	s0,sp,128
     ea4:	0306                	slli	t1,t1,0x1
     ea6:	0900                	addi	s0,sp,144
     ea8:	0000                	unimp
     eaa:	0301                	addi	t1,t1,0
     eac:	0901                	addi	s2,s2,0
     eae:	0000                	unimp
     eb0:	0501                	addi	a0,a0,0
     eb2:	0609                	addi	a2,a2,2
     eb4:	00090003          	lb	zero,0(s2)
     eb8:	0100                	addi	s0,sp,128
     eba:	0104                	addi	s1,sp,128
     ebc:	0205                	addi	tp,tp,1
     ebe:	0306                	slli	t1,t1,0x1
     ec0:	091a                	slli	s2,s2,0x6
     ec2:	0008                	0x8
     ec4:	0401                	addi	s0,s0,0
     ec6:	0302                	c.slli64	t1
     ec8:	0968                	addi	a0,sp,156
     eca:	0000                	unimp
     ecc:	0401                	addi	s0,s0,0
     ece:	0501                	addi	a0,a0,0
     ed0:	0605                	addi	a2,a2,1
     ed2:	00091803          	lh	a6,0(s2)
     ed6:	0100                	addi	s0,sp,128
     ed8:	0205                	addi	tp,tp,1
     eda:	0306                	slli	t1,t1,0x1
     edc:	00040903          	lb	s2,0(s0)
     ee0:	0401                	addi	s0,s0,0
     ee2:	0305                	addi	t1,t1,1
     ee4:	00000903          	lb	s2,0(zero) # 0 <__udivdi3-0x8003ac>
     ee8:	0301                	addi	t1,t1,0
     eea:	0900                	addi	s0,sp,144
     eec:	0000                	unimp
     eee:	0301                	addi	t1,t1,0
     ef0:	0900                	addi	s0,sp,144
     ef2:	0000                	unimp
     ef4:	0301                	addi	t1,t1,0
     ef6:	0901                	addi	s2,s2,0
     ef8:	0000                	unimp
     efa:	0501                	addi	a0,a0,0
     efc:	0609                	addi	a2,a2,2
     efe:	00090003          	lb	zero,0(s2)
     f02:	0100                	addi	s0,sp,128
     f04:	0104                	addi	s1,sp,128
     f06:	0205                	addi	tp,tp,1
     f08:	0306                	slli	t1,t1,0x1
     f0a:	097d                	addi	s2,s2,31
     f0c:	0018                	0x18
     f0e:	0401                	addi	s0,s0,0
     f10:	0305                	addi	t1,t1,1
     f12:	0912                	slli	s2,s2,0x4
     f14:	0000                	unimp
     f16:	0301                	addi	t1,t1,0
     f18:	0900                	addi	s0,sp,144
     f1a:	0000                	unimp
     f1c:	0301                	addi	t1,t1,0
     f1e:	0900                	addi	s0,sp,144
     f20:	0000                	unimp
     f22:	0301                	addi	t1,t1,0
     f24:	0901                	addi	s2,s2,0
     f26:	0000                	unimp
     f28:	0501                	addi	a0,a0,0
     f2a:	0609                	addi	a2,a2,2
     f2c:	00090003          	lb	zero,0(s2)
     f30:	0100                	addi	s0,sp,128
     f32:	0104                	addi	s1,sp,128
     f34:	0205                	addi	tp,tp,1
     f36:	0306                	slli	t1,t1,0x1
     f38:	096e                	slli	s2,s2,0x1b
     f3a:	0012                	c.slli	zero,0x4
     f3c:	0401                	addi	s0,s0,0
     f3e:	0305                	addi	t1,t1,1
     f40:	0921                	addi	s2,s2,8
     f42:	0000                	unimp
     f44:	0301                	addi	t1,t1,0
     f46:	0900                	addi	s0,sp,144
     f48:	0000                	unimp
     f4a:	0301                	addi	t1,t1,0
     f4c:	0900                	addi	s0,sp,144
     f4e:	0000                	unimp
     f50:	0301                	addi	t1,t1,0
     f52:	0901                	addi	s2,s2,0
     f54:	0000                	unimp
     f56:	0501                	addi	a0,a0,0
     f58:	0609                	addi	a2,a2,2
     f5a:	00090003          	lb	zero,0(s2)
     f5e:	0100                	addi	s0,sp,128
     f60:	0104                	addi	s1,sp,128
     f62:	0205                	addi	tp,tp,1
     f64:	0306                	slli	t1,t1,0x1
     f66:	095f 000c 0401      	0x401000c095f
     f6c:	0305                	addi	t1,t1,1
     f6e:	0970                	addi	a2,sp,156
     f70:	0000                	unimp
     f72:	0301                	addi	t1,t1,0
     f74:	0900                	addi	s0,sp,144
     f76:	0000                	unimp
     f78:	0301                	addi	t1,t1,0
     f7a:	0900                	addi	s0,sp,144
     f7c:	0000                	unimp
     f7e:	0301                	addi	t1,t1,0
     f80:	0901                	addi	s2,s2,0
     f82:	0000                	unimp
     f84:	0401                	addi	s0,s0,0
     f86:	0301                	addi	t1,t1,0
     f88:	0910                	addi	a2,sp,144
     f8a:	000a                	c.slli	zero,0x2
     f8c:	0501                	addi	a0,a0,0
     f8e:	0601                	addi	a2,a2,0
     f90:	00090103          	lb	sp,0(s2)
     f94:	0100                	addi	s0,sp,128
     f96:	0a05                	addi	s4,s4,1
     f98:	0c097903          	0xc097903
     f9c:	0100                	addi	s0,sp,128
     f9e:	0409                	addi	s0,s0,2
     fa0:	0000                	unimp
     fa2:	0101                	addi	sp,sp,0
     fa4:	0105                	addi	sp,sp,1
     fa6:	0500                	addi	s0,sp,640
     fa8:	ce02                	sw	zero,28(sp)
     faa:	0066                	c.slli	zero,0x19
     fac:	0301                	addi	t1,t1,0
     fae:	00ce                	slli	ra,ra,0x13
     fb0:	0501                	addi	a0,a0,0
     fb2:	0302                	c.slli64	t1
     fb4:	0901                	addi	s2,s2,0
     fb6:	0000                	unimp
     fb8:	0401                	addi	s0,s0,0
     fba:	0306                	slli	t1,t1,0x1
     fbc:	0958                	addi	a4,sp,148
     fbe:	0000                	unimp
     fc0:	0301                	addi	t1,t1,0
     fc2:	0900                	addi	s0,sp,144
     fc4:	0000                	unimp
     fc6:	0401                	addi	s0,s0,0
     fc8:	0501                	addi	a0,a0,0
     fca:	0601                	addi	a2,a2,0
     fcc:	00092703          	lw	a4,0(s2)
     fd0:	0100                	addi	s0,sp,128
     fd2:	0a090003          	lb	zero,160(s2)
     fd6:	0100                	addi	s0,sp,128
     fd8:	0604                	addi	s1,sp,768
     fda:	0205                	addi	tp,tp,1
     fdc:	02095903          	lhu	s2,32(s2)
     fe0:	0100                	addi	s0,sp,128
     fe2:	0306                	slli	t1,t1,0x1
     fe4:	0900                	addi	s0,sp,144
     fe6:	0000                	unimp
     fe8:	0301                	addi	t1,t1,0
     fea:	0901                	addi	s2,s2,0
     fec:	0000                	unimp
     fee:	0501                	addi	a0,a0,0
     ff0:	0609                	addi	a2,a2,2
     ff2:	00090003          	lb	zero,0(s2)
     ff6:	0100                	addi	s0,sp,128
     ff8:	0104                	addi	s1,sp,128
     ffa:	0205                	addi	tp,tp,1
     ffc:	0306                	slli	t1,t1,0x1
     ffe:	0928                	addi	a0,sp,152
    1000:	0008                	0x8
    1002:	0401                	addi	s0,s0,0
    1004:	0302                	c.slli64	t1
    1006:	095a                	slli	s2,s2,0x16
    1008:	0000                	unimp
    100a:	0401                	addi	s0,s0,0
    100c:	0501                	addi	a0,a0,0
    100e:	0605                	addi	a2,a2,1
    1010:	00092603          	lw	a2,0(s2)
    1014:	0100                	addi	s0,sp,128
    1016:	0205                	addi	tp,tp,1
    1018:	0306                	slli	t1,t1,0x1
    101a:	00040903          	lb	s2,0(s0)
    101e:	0401                	addi	s0,s0,0
    1020:	0306                	slli	t1,t1,0x1
    1022:	0915                	addi	s2,s2,5
    1024:	0000                	unimp
    1026:	0301                	addi	t1,t1,0
    1028:	0900                	addi	s0,sp,144
    102a:	0000                	unimp
    102c:	0301                	addi	t1,t1,0
    102e:	0900                	addi	s0,sp,144
    1030:	0000                	unimp
    1032:	0301                	addi	t1,t1,0
    1034:	0901                	addi	s2,s2,0
    1036:	0000                	unimp
    1038:	0501                	addi	a0,a0,0
    103a:	0609                	addi	a2,a2,2
    103c:	00090003          	lb	zero,0(s2)
    1040:	0100                	addi	s0,sp,128
    1042:	0104                	addi	s1,sp,128
    1044:	0205                	addi	tp,tp,1
    1046:	0306                	slli	t1,t1,0x1
    1048:	000a096b          	0xa096b
    104c:	0401                	addi	s0,s0,0
    104e:	0306                	slli	t1,t1,0x1
    1050:	0964                	addi	s1,sp,156
    1052:	0000                	unimp
    1054:	0301                	addi	t1,t1,0
    1056:	0900                	addi	s0,sp,144
    1058:	0000                	unimp
    105a:	0301                	addi	t1,t1,0
    105c:	0900                	addi	s0,sp,144
    105e:	0000                	unimp
    1060:	0301                	addi	t1,t1,0
    1062:	0901                	addi	s2,s2,0
    1064:	0000                	unimp
    1066:	0401                	addi	s0,s0,0
    1068:	0301                	addi	t1,t1,0
    106a:	091c                	addi	a5,sp,144
    106c:	000a                	c.slli	zero,0x2
    106e:	0501                	addi	a0,a0,0
    1070:	0605                	addi	a2,a2,1
    1072:	00090003          	lb	zero,0(s2)
    1076:	0100                	addi	s0,sp,128
    1078:	0205                	addi	tp,tp,1
    107a:	0306                	slli	t1,t1,0x1
    107c:	0902                	c.slli64	s2
    107e:	0004                	0x4
    1080:	0501                	addi	a0,a0,0
    1082:	0605                	addi	a2,a2,1
    1084:	00090003          	lb	zero,0(s2)
    1088:	0100                	addi	s0,sp,128
    108a:	0905                	addi	s2,s2,1
    108c:	0306                	slli	t1,t1,0x1
    108e:	0901                	addi	s2,s2,0
    1090:	0002                	c.slli64	zero
    1092:	0401                	addi	s0,s0,0
    1094:	0502                	c.slli64	a0
    1096:	0302                	c.slli64	t1
    1098:	00d9                	addi	ra,ra,22
    109a:	0009                	c.nop	2
    109c:	0100                	addi	s0,sp,128
    109e:	0304                	addi	s1,sp,384
    10a0:	097efb03          	0x97efb03
    10a4:	0000                	unimp
    10a6:	0501                	addi	a0,a0,0
    10a8:	0609                	addi	a2,a2,2
    10aa:	00090003          	lb	zero,0(s2)
    10ae:	0100                	addi	s0,sp,128
    10b0:	0104                	addi	s1,sp,128
    10b2:	06092c03          	lw	s8,96(s2)
    10b6:	0100                	addi	s0,sp,128
    10b8:	0405                	addi	s0,s0,1
    10ba:	0306                	slli	t1,t1,0x1
    10bc:	0901                	addi	s2,s2,0
    10be:	0004                	0x4
    10c0:	0401                	addi	s0,s0,0
    10c2:	03020507          	0x3020507
    10c6:	092d                	addi	s2,s2,11
    10c8:	0000                	unimp
    10ca:	0301                	addi	t1,t1,0
    10cc:	0900                	addi	s0,sp,144
    10ce:	0000                	unimp
    10d0:	0301                	addi	t1,t1,0
    10d2:	0900                	addi	s0,sp,144
    10d4:	0000                	unimp
    10d6:	0301                	addi	t1,t1,0
    10d8:	0901                	addi	s2,s2,0
    10da:	0000                	unimp
    10dc:	0401                	addi	s0,s0,0
    10de:	0501                	addi	a0,a0,0
    10e0:	0309                	addi	t1,t1,2
    10e2:	0951                	addi	s2,s2,20
    10e4:	000a                	c.slli	zero,0x2
    10e6:	0401                	addi	s0,s0,0
    10e8:	0502                	c.slli64	a0
    10ea:	0302                	c.slli64	t1
    10ec:	00d9                	addi	ra,ra,22
    10ee:	0009                	c.nop	2
    10f0:	0100                	addi	s0,sp,128
    10f2:	0304                	addi	s1,sp,384
    10f4:	097efb03          	0x97efb03
    10f8:	0000                	unimp
    10fa:	0501                	addi	a0,a0,0
    10fc:	0609                	addi	a2,a2,2
    10fe:	00090003          	lb	zero,0(s2)
    1102:	0100                	addi	s0,sp,128
    1104:	0104                	addi	s1,sp,128
    1106:	06092c03          	lw	s8,96(s2)
    110a:	0100                	addi	s0,sp,128
    110c:	0105                	addi	sp,sp,1
    110e:	04090503          	lb	a0,64(s2)
    1112:	0100                	addi	s0,sp,128
    1114:	0a05                	addi	s4,s4,1
    1116:	0e097403          	0xe097403
    111a:	0100                	addi	s0,sp,128
    111c:	0409                	addi	s0,s0,2
    111e:	0000                	unimp
    1120:	0101                	addi	sp,sp,0
    1122:	0105                	addi	sp,sp,1
    1124:	0500                	addi	s0,sp,640
    1126:	3002                	fld	ft0,32(sp)
    1128:	03010067          	jr	48(sp)
    112c:	00ec                	addi	a1,sp,76
    112e:	0501                	addi	a0,a0,0
    1130:	0302                	c.slli64	t1
    1132:	0901                	addi	s2,s2,0
    1134:	0000                	unimp
    1136:	0401                	addi	s0,s0,0
    1138:	0308                	addi	a0,sp,384
    113a:	7fba                	flw	ft11,172(sp)
    113c:	0009                	c.nop	2
    113e:	0100                	addi	s0,sp,128
    1140:	00090003          	lb	zero,0(s2)
    1144:	0100                	addi	s0,sp,128
    1146:	0104                	addi	s1,sp,128
    1148:	0105                	addi	sp,sp,1
    114a:	0306                	slli	t1,t1,0x1
    114c:	00c5                	addi	ra,ra,17
    114e:	0009                	c.nop	2
    1150:	0100                	addi	s0,sp,128
    1152:	16090003          	lb	zero,352(s2)
    1156:	0100                	addi	s0,sp,128
    1158:	0804                	addi	s1,sp,16
    115a:	0205                	addi	tp,tp,1
    115c:	097fbb03          	0x97fbb03
    1160:	0004                	0x4
    1162:	0601                	addi	a2,a2,0
    1164:	00090003          	lb	zero,0(s2)
    1168:	0100                	addi	s0,sp,128
    116a:	00090103          	lb	sp,0(s2)
    116e:	0100                	addi	s0,sp,128
    1170:	0905                	addi	s2,s2,1
    1172:	0306                	slli	t1,t1,0x1
    1174:	0900                	addi	s0,sp,144
    1176:	0000                	unimp
    1178:	0401                	addi	s0,s0,0
    117a:	0501                	addi	a0,a0,0
    117c:	0602                	c.slli64	a2
    117e:	0900c603          	lbu	a2,144(ra)
    1182:	000c                	0xc
    1184:	0401                	addi	s0,s0,0
    1186:	0302                	c.slli64	t1
    1188:	7fbc                	flw	fa5,120(a5)
    118a:	0009                	c.nop	2
    118c:	0100                	addi	s0,sp,128
    118e:	0104                	addi	s1,sp,128
    1190:	0505                	addi	a0,a0,1
    1192:	0306                	slli	t1,t1,0x1
    1194:	00c4                	addi	s1,sp,68
    1196:	0009                	c.nop	2
    1198:	0100                	addi	s0,sp,128
    119a:	1605                	addi	a2,a2,-31
    119c:	0306                	slli	t1,t1,0x1
    119e:	00040907          	0x40907
    11a2:	0501                	addi	a0,a0,0
    11a4:	0003060f          	0x3060f
    11a8:	0009                	c.nop	2
    11aa:	0100                	addi	s0,sp,128
    11ac:	0a05                	addi	s4,s4,1
    11ae:	02096d03          	0x2096d03
    11b2:	0100                	addi	s0,sp,128
    11b4:	0305                	addi	t1,t1,1
    11b6:	04091303          	lh	t1,64(s2)
    11ba:	0100                	addi	s0,sp,128
    11bc:	0405                	addi	s0,s0,1
    11be:	0306                	slli	t1,t1,0x1
    11c0:	0901                	addi	s2,s2,0
    11c2:	0004                	0x4
    11c4:	0501                	addi	a0,a0,0
    11c6:	060a                	slli	a2,a2,0x2
    11c8:	00090003          	lb	zero,0(s2)
    11cc:	0100                	addi	s0,sp,128
    11ce:	2305                	jal	16ee <__udivdi3-0x7fecbe>
    11d0:	04090003          	lb	zero,64(s2)
    11d4:	0100                	addi	s0,sp,128
    11d6:	0205                	addi	tp,tp,1
    11d8:	0306                	slli	t1,t1,0x1
    11da:	0004096b          	0x4096b
    11de:	0501                	addi	a0,a0,0
    11e0:	0308                	addi	a0,sp,384
    11e2:	0900                	addi	s0,sp,144
    11e4:	0000                	unimp
    11e6:	0501                	addi	a0,a0,0
    11e8:	04030607          	0x4030607
    11ec:	0409                	addi	s0,s0,2
    11ee:	0100                	addi	s0,sp,128
    11f0:	0305                	addi	t1,t1,1
    11f2:	0306                	slli	t1,t1,0x1
    11f4:	0901                	addi	s2,s2,0
    11f6:	0002                	c.slli64	zero
    11f8:	0501                	addi	a0,a0,0
    11fa:	0308                	addi	a0,sp,384
    11fc:	0000097b          	0x97b
    1200:	0501                	addi	a0,a0,0
    1202:	09010303          	lb	t1,144(sp)
    1206:	0002                	c.slli64	zero
    1208:	0501                	addi	a0,a0,0
    120a:	060a                	slli	a2,a2,0x2
    120c:	00090003          	lb	zero,0(s2)
    1210:	0100                	addi	s0,sp,128
    1212:	0305                	addi	t1,t1,1
    1214:	0306                	slli	t1,t1,0x1
    1216:	0901                	addi	s2,s2,0
    1218:	000a                	c.slli	zero,0x2
    121a:	0401                	addi	s0,s0,0
    121c:	0508                	addi	a0,sp,640
    121e:	0302                	c.slli64	t1
    1220:	0965                	addi	s2,s2,25
    1222:	0000                	unimp
    1224:	0301                	addi	t1,t1,0
    1226:	0900                	addi	s0,sp,144
    1228:	0000                	unimp
    122a:	0301                	addi	t1,t1,0
    122c:	0900                	addi	s0,sp,144
    122e:	0000                	unimp
    1230:	0301                	addi	t1,t1,0
    1232:	0901                	addi	s2,s2,0
    1234:	0000                	unimp
    1236:	0501                	addi	a0,a0,0
    1238:	0609                	addi	a2,a2,2
    123a:	00090003          	lb	zero,0(s2)
    123e:	0100                	addi	s0,sp,128
    1240:	0104                	addi	s1,sp,128
    1242:	0305                	addi	t1,t1,1
    1244:	0306                	slli	t1,t1,0x1
    1246:	091c                	addi	a5,sp,144
    1248:	0010                	0x10
    124a:	0401                	addi	s0,s0,0
    124c:	0508                	addi	a0,sp,640
    124e:	0609                	addi	a2,a2,2
    1250:	00096403          	0x96403
    1254:	0100                	addi	s0,sp,128
    1256:	0104                	addi	s1,sp,128
    1258:	0305                	addi	t1,t1,1
    125a:	0306                	slli	t1,t1,0x1
    125c:	0002091b          	0x2091b
    1260:	0501                	addi	a0,a0,0
    1262:	0608                	addi	a0,sp,768
    1264:	00090203          	lb	tp,0(s2)
    1268:	0100                	addi	s0,sp,128
    126a:	0605                	addi	a2,a2,1
    126c:	02097e03          	0x2097e03
    1270:	0100                	addi	s0,sp,128
    1272:	0205                	addi	tp,tp,1
    1274:	0306                	slli	t1,t1,0x1
    1276:	0916                	slli	s2,s2,0x5
    1278:	0002                	c.slli64	zero
    127a:	0401                	addi	s0,s0,0
    127c:	0308                	addi	a0,sp,384
    127e:	7fbe                	flw	ft11,236(sp)
    1280:	0009                	c.nop	2
    1282:	0100                	addi	s0,sp,128
    1284:	00090003          	lb	zero,0(s2)
    1288:	0100                	addi	s0,sp,128
    128a:	00090003          	lb	zero,0(s2)
    128e:	0100                	addi	s0,sp,128
    1290:	00090103          	lb	sp,0(s2)
    1294:	0100                	addi	s0,sp,128
    1296:	0104                	addi	s1,sp,128
    1298:	0900c203          	lbu	tp,144(ra)
    129c:	000a                	c.slli	zero,0x2
    129e:	0501                	addi	a0,a0,0
    12a0:	0601                	addi	a2,a2,0
    12a2:	00090103          	lb	sp,0(s2)
    12a6:	0100                	addi	s0,sp,128
    12a8:	0405                	addi	s0,s0,1
    12aa:	0306                	slli	t1,t1,0x1
    12ac:	001a097b          	0x1a097b
    12b0:	0501                	addi	a0,a0,0
    12b2:	031e                	slli	t1,t1,0x7
    12b4:	097e                	slli	s2,s2,0x1f
    12b6:	0000                	unimp
    12b8:	0501                	addi	a0,a0,0
    12ba:	0316                	slli	t1,t1,0x5
    12bc:	0900                	addi	s0,sp,144
    12be:	0002                	c.slli64	zero
    12c0:	0501                	addi	a0,a0,0
    12c2:	00030603          	lb	a2,0(t1)
    12c6:	0009                	c.nop	2
    12c8:	0100                	addi	s0,sp,128
    12ca:	0f05                	addi	t5,t5,1
    12cc:	06090003          	lb	zero,96(s2)
    12d0:	0100                	addi	s0,sp,128
    12d2:	2405                	jal	14f2 <__udivdi3-0x7feeba>
    12d4:	04097903          	0x4097903
    12d8:	0100                	addi	s0,sp,128
    12da:	0409                	addi	s0,s0,2
    12dc:	0000                	unimp
    12de:	0101                	addi	sp,sp,0
    12e0:	0105                	addi	sp,sp,1
    12e2:	0500                	addi	s0,sp,640
    12e4:	c802                	sw	zero,16(sp)
    12e6:	03010067          	jr	48(sp)
    12ea:	00ff                	0xff
    12ec:	0501                	addi	a0,a0,0
    12ee:	0302                	c.slli64	t1
    12f0:	0901                	addi	s2,s2,0
    12f2:	0000                	unimp
    12f4:	0501                	addi	a0,a0,0
    12f6:	0601                	addi	a2,a2,0
    12f8:	00097f03          	0x97f03
    12fc:	0100                	addi	s0,sp,128
    12fe:	10090003          	lb	zero,256(s2)
    1302:	0100                	addi	s0,sp,128
    1304:	0205                	addi	tp,tp,1
    1306:	0306                	slli	t1,t1,0x1
    1308:	0902                	c.slli64	s2
    130a:	0004                	0x4
    130c:	0301                	addi	t1,t1,0
    130e:	096c                	addi	a1,sp,156
    1310:	0000                	unimp
    1312:	0401                	addi	s0,s0,0
    1314:	0308                	addi	a0,sp,384
    1316:	7fba                	flw	ft11,172(sp)
    1318:	0009                	c.nop	2
    131a:	0100                	addi	s0,sp,128
    131c:	00090003          	lb	zero,0(s2)
    1320:	0100                	addi	s0,sp,128
    1322:	00090003          	lb	zero,0(s2)
    1326:	0100                	addi	s0,sp,128
    1328:	00090103          	lb	sp,0(s2)
    132c:	0100                	addi	s0,sp,128
    132e:	0905                	addi	s2,s2,1
    1330:	0306                	slli	t1,t1,0x1
    1332:	0900                	addi	s0,sp,144
    1334:	0000                	unimp
    1336:	0401                	addi	s0,s0,0
    1338:	0501                	addi	a0,a0,0
    133a:	0602                	c.slli64	a2
    133c:	0900c603          	lbu	a2,144(ra)
    1340:	000c                	0xc
    1342:	0401                	addi	s0,s0,0
    1344:	0302                	c.slli64	t1
    1346:	7fbc                	flw	fa5,120(a5)
    1348:	0009                	c.nop	2
    134a:	0100                	addi	s0,sp,128
    134c:	0104                	addi	s1,sp,128
    134e:	0505                	addi	a0,a0,1
    1350:	0306                	slli	t1,t1,0x1
    1352:	00c4                	addi	s1,sp,68
    1354:	0009                	c.nop	2
    1356:	0100                	addi	s0,sp,128
    1358:	1605                	addi	a2,a2,-31
    135a:	0306                	slli	t1,t1,0x1
    135c:	00040907          	0x40907
    1360:	0501                	addi	a0,a0,0
    1362:	0304                	addi	s1,sp,384
    1364:	0901                	addi	s2,s2,0
    1366:	0000                	unimp
    1368:	0501                	addi	a0,a0,0
    136a:	0302                	c.slli64	t1
    136c:	0000096b          	0x96b
    1370:	0501                	addi	a0,a0,0
    1372:	0308                	addi	a0,sp,384
    1374:	0900                	addi	s0,sp,144
    1376:	0000                	unimp
    1378:	0501                	addi	a0,a0,0
    137a:	060a                	slli	a2,a2,0x2
    137c:	00090103          	lb	sp,0(s2)
    1380:	0100                	addi	s0,sp,128
    1382:	0805                	addi	a6,a6,1
    1384:	04097f03          	0x4097f03
    1388:	0100                	addi	s0,sp,128
    138a:	0305                	addi	t1,t1,1
    138c:	0306                	slli	t1,t1,0x1
    138e:	0901                	addi	s2,s2,0
    1390:	0002                	c.slli64	zero
    1392:	0501                	addi	a0,a0,0
    1394:	060a                	slli	a2,a2,0x2
    1396:	00090003          	lb	zero,0(s2)
    139a:	0100                	addi	s0,sp,128
    139c:	0305                	addi	t1,t1,1
    139e:	0306                	slli	t1,t1,0x1
    13a0:	0901                	addi	s2,s2,0
    13a2:	000a                	c.slli	zero,0x2
    13a4:	0401                	addi	s0,s0,0
    13a6:	0508                	addi	a0,sp,640
    13a8:	0302                	c.slli64	t1
    13aa:	0965                	addi	s2,s2,25
    13ac:	0000                	unimp
    13ae:	0301                	addi	t1,t1,0
    13b0:	0900                	addi	s0,sp,144
    13b2:	0000                	unimp
    13b4:	0301                	addi	t1,t1,0
    13b6:	0900                	addi	s0,sp,144
    13b8:	0000                	unimp
    13ba:	0301                	addi	t1,t1,0
    13bc:	0901                	addi	s2,s2,0
    13be:	0000                	unimp
    13c0:	0501                	addi	a0,a0,0
    13c2:	0609                	addi	a2,a2,2
    13c4:	00090003          	lb	zero,0(s2)
    13c8:	0100                	addi	s0,sp,128
    13ca:	0104                	addi	s1,sp,128
    13cc:	0305                	addi	t1,t1,1
    13ce:	0306                	slli	t1,t1,0x1
    13d0:	091c                	addi	a5,sp,144
    13d2:	0010                	0x10
    13d4:	0401                	addi	s0,s0,0
    13d6:	0508                	addi	a0,sp,640
    13d8:	0609                	addi	a2,a2,2
    13da:	00096403          	0x96403
    13de:	0100                	addi	s0,sp,128
    13e0:	0104                	addi	s1,sp,128
    13e2:	0305                	addi	t1,t1,1
    13e4:	0306                	slli	t1,t1,0x1
    13e6:	0002091b          	0x2091b
    13ea:	0501                	addi	a0,a0,0
    13ec:	0608                	addi	a0,sp,768
    13ee:	00090203          	lb	tp,0(s2)
    13f2:	0100                	addi	s0,sp,128
    13f4:	0605                	addi	a2,a2,1
    13f6:	02097e03          	0x2097e03
    13fa:	0100                	addi	s0,sp,128
    13fc:	0705                	addi	a4,a4,1
    13fe:	02090103          	lb	sp,32(s2)
    1402:	0100                	addi	s0,sp,128
    1404:	0305                	addi	t1,t1,1
    1406:	0306                	slli	t1,t1,0x1
    1408:	0901                	addi	s2,s2,0
    140a:	0002                	c.slli64	zero
    140c:	0501                	addi	a0,a0,0
    140e:	0308                	addi	a0,sp,384
    1410:	0000097b          	0x97b
    1414:	0501                	addi	a0,a0,0
    1416:	0601                	addi	a2,a2,0
    1418:	02091e03          	lh	t3,32(s2)
    141c:	0100                	addi	s0,sp,128
    141e:	0205                	addi	tp,tp,1
    1420:	0306                	slli	t1,t1,0x1
    1422:	0002097b          	0x2097b
    1426:	0401                	addi	s0,s0,0
    1428:	0308                	addi	a0,sp,384
    142a:	7fbe                	flw	ft11,236(sp)
    142c:	0009                	c.nop	2
    142e:	0100                	addi	s0,sp,128
    1430:	00090003          	lb	zero,0(s2)
    1434:	0100                	addi	s0,sp,128
    1436:	00090003          	lb	zero,0(s2)
    143a:	0100                	addi	s0,sp,128
    143c:	00090103          	lb	sp,0(s2)
    1440:	0100                	addi	s0,sp,128
    1442:	0104                	addi	s1,sp,128
    1444:	0900c203          	lbu	tp,144(ra)
    1448:	000a                	c.slli	zero,0x2
    144a:	0501                	addi	a0,a0,0
    144c:	0601                	addi	a2,a2,0
    144e:	00090703          	lb	a4,0(s2)
    1452:	0100                	addi	s0,sp,128
    1454:	2405                	jal	1674 <__udivdi3-0x7fed38>
    1456:	14096c03          	0x14096c03
    145a:	0100                	addi	s0,sp,128
    145c:	0905                	addi	s2,s2,1
    145e:	02091303          	lh	t1,32(s2)
    1462:	0100                	addi	s0,sp,128
    1464:	0209                	addi	tp,tp,2
    1466:	0000                	unimp
    1468:	0101                	addi	sp,sp,0
    146a:	0105                	addi	sp,sp,1
    146c:	0500                	addi	s0,sp,640
    146e:	3a02                	fld	fs4,32(sp)
    1470:	0068                	addi	a0,sp,12
    1472:	0301                	addi	t1,t1,0
    1474:	0186                	slli	gp,gp,0x1
    1476:	0501                	addi	a0,a0,0
    1478:	0302                	c.slli64	t1
    147a:	0901                	addi	s2,s2,0
    147c:	0000                	unimp
    147e:	0501                	addi	a0,a0,0
    1480:	0601                	addi	a2,a2,0
    1482:	00097f03          	0x97f03
    1486:	0100                	addi	s0,sp,128
    1488:	1305                	addi	t1,t1,-31
    148a:	06090103          	lb	sp,96(s2)
    148e:	0100                	addi	s0,sp,128
    1490:	0105                	addi	sp,sp,1
    1492:	02097f03          	0x2097f03
    1496:	0100                	addi	s0,sp,128
    1498:	0a090003          	lb	zero,160(s2)
    149c:	0100                	addi	s0,sp,128
    149e:	1305                	addi	t1,t1,-31
    14a0:	02090103          	lb	sp,32(s2)
    14a4:	0100                	addi	s0,sp,128
    14a6:	0205                	addi	tp,tp,1
    14a8:	0306                	slli	t1,t1,0x1
    14aa:	0901                	addi	s2,s2,0
    14ac:	0008                	0x8
    14ae:	0401                	addi	s0,s0,0
    14b0:	0302                	c.slli64	t1
    14b2:	7fa2                	flw	ft11,40(sp)
    14b4:	0009                	c.nop	2
    14b6:	0100                	addi	s0,sp,128
    14b8:	0104                	addi	s1,sp,128
    14ba:	0505                	addi	a0,a0,1
    14bc:	0306                	slli	t1,t1,0x1
    14be:	00de                	slli	ra,ra,0x17
    14c0:	0009                	c.nop	2
    14c2:	0100                	addi	s0,sp,128
    14c4:	1505                	addi	a0,a0,-31
    14c6:	0306                	slli	t1,t1,0x1
    14c8:	00040903          	lb	s2,0(s0)
    14cc:	0501                	addi	a0,a0,0
    14ce:	0602                	c.slli64	a2
    14d0:	00090003          	lb	zero,0(s2)
    14d4:	0100                	addi	s0,sp,128
    14d6:	0e05                	addi	t3,t3,1
    14d8:	04090003          	lb	zero,64(s2)
    14dc:	0100                	addi	s0,sp,128
    14de:	0205                	addi	tp,tp,1
    14e0:	0200                	addi	s0,sp,256
    14e2:	0204                	addi	s1,sp,256
    14e4:	04090003          	lb	zero,64(s2)
    14e8:	0100                	addi	s0,sp,128
    14ea:	0305                	addi	t1,t1,1
    14ec:	0306                	slli	t1,t1,0x1
    14ee:	0901                	addi	s2,s2,0
    14f0:	0006                	c.slli	zero,0x1
    14f2:	0501                	addi	a0,a0,0
    14f4:	0609                	addi	a2,a2,2
    14f6:	00090003          	lb	zero,0(s2)
    14fa:	0100                	addi	s0,sp,128
    14fc:	1e05                	addi	t3,t3,-31
    14fe:	06097f03          	0x6097f03
    1502:	0100                	addi	s0,sp,128
    1504:	0905                	addi	s2,s2,1
    1506:	02090103          	lb	sp,32(s2)
    150a:	0100                	addi	s0,sp,128
    150c:	1d05                	addi	s10,s10,-31
    150e:	0306                	slli	t1,t1,0x1
    1510:	097f                	0x97f
    1512:	0008                	0x8
    1514:	0501                	addi	a0,a0,0
    1516:	0315                	addi	t1,t1,5
    1518:	0900                	addi	s0,sp,144
    151a:	0000                	unimp
    151c:	0501                	addi	a0,a0,0
    151e:	0609                	addi	a2,a2,2
    1520:	00090103          	lb	sp,0(s2)
    1524:	0100                	addi	s0,sp,128
    1526:	0305                	addi	t1,t1,1
    1528:	0306                	slli	t1,t1,0x1
    152a:	0901                	addi	s2,s2,0
    152c:	0002                	c.slli64	zero
    152e:	0501                	addi	a0,a0,0
    1530:	0606                	slli	a2,a2,0x1
    1532:	00090003          	lb	zero,0(s2)
    1536:	0100                	addi	s0,sp,128
    1538:	0205                	addi	tp,tp,1
    153a:	0306                	slli	t1,t1,0x1
    153c:	0902                	c.slli64	s2
    153e:	0002                	c.slli64	zero
    1540:	0301                	addi	t1,t1,0
    1542:	0901                	addi	s2,s2,0
    1544:	000a                	c.slli	zero,0x2
    1546:	0501                	addi	a0,a0,0
    1548:	0601                	addi	a2,a2,0
    154a:	00090103          	lb	sp,0(s2)
    154e:	0100                	addi	s0,sp,128
    1550:	0e05                	addi	t3,t3,1
    1552:	12097a03          	0x12097a03
    1556:	0100                	addi	s0,sp,128
    1558:	2405                	jal	1778 <__udivdi3-0x7fec34>
    155a:	04097d03          	0x4097d03
    155e:	0100                	addi	s0,sp,128
    1560:	0409                	addi	s0,s0,2
    1562:	0000                	unimp
    1564:	0101                	addi	sp,sp,0
    1566:	0105                	addi	sp,sp,1
    1568:	0500                	addi	s0,sp,640
    156a:	a002                	fsd	ft0,0(sp)
    156c:	0068                	addi	a0,sp,12
    156e:	0301                	addi	t1,t1,0
    1570:	0195                	addi	gp,gp,5
    1572:	0501                	addi	a0,a0,0
    1574:	0302                	c.slli64	t1
    1576:	0901                	addi	s2,s2,0
    1578:	0000                	unimp
    157a:	0501                	addi	a0,a0,0
    157c:	0601                	addi	a2,a2,0
    157e:	00097f03          	0x97f03
    1582:	0100                	addi	s0,sp,128
    1584:	1305                	addi	t1,t1,-31
    1586:	04097203          	0x4097203
    158a:	0100                	addi	s0,sp,128
    158c:	0105                	addi	sp,sp,1
    158e:	02090e03          	lb	t3,32(s2)
    1592:	0100                	addi	s0,sp,128
    1594:	04090003          	lb	zero,64(s2)
    1598:	0100                	addi	s0,sp,128
    159a:	0205                	addi	tp,tp,1
    159c:	0306                	slli	t1,t1,0x1
    159e:	0904                	addi	s1,sp,144
    15a0:	0004                	0x4
    15a2:	0301                	addi	t1,t1,0
    15a4:	096e                	slli	s2,s2,0x1b
    15a6:	0000                	unimp
    15a8:	0501                	addi	a0,a0,0
    15aa:	00030613          	mv	a2,t1
    15ae:	0009                	c.nop	2
    15b0:	0100                	addi	s0,sp,128
    15b2:	0205                	addi	tp,tp,1
    15b4:	0306                	slli	t1,t1,0x1
    15b6:	0901                	addi	s2,s2,0
    15b8:	0008                	0x8
    15ba:	0401                	addi	s0,s0,0
    15bc:	0302                	c.slli64	t1
    15be:	7fa2                	flw	ft11,40(sp)
    15c0:	0009                	c.nop	2
    15c2:	0100                	addi	s0,sp,128
    15c4:	0104                	addi	s1,sp,128
    15c6:	0505                	addi	a0,a0,1
    15c8:	0306                	slli	t1,t1,0x1
    15ca:	00de                	slli	ra,ra,0x17
    15cc:	0009                	c.nop	2
    15ce:	0100                	addi	s0,sp,128
    15d0:	0905                	addi	s2,s2,1
    15d2:	02090403          	lb	s0,32(s2)
    15d6:	0100                	addi	s0,sp,128
    15d8:	0305                	addi	t1,t1,1
    15da:	0306                	slli	t1,t1,0x1
    15dc:	0900                	addi	s0,sp,144
    15de:	0006                	c.slli	zero,0x1
    15e0:	0501                	addi	a0,a0,0
    15e2:	0609                	addi	a2,a2,2
    15e4:	00090003          	lb	zero,0(s2)
    15e8:	0100                	addi	s0,sp,128
    15ea:	0205                	addi	tp,tp,1
    15ec:	0a090303          	lb	t1,160(s2)
    15f0:	0100                	addi	s0,sp,128
    15f2:	0905                	addi	s2,s2,1
    15f4:	02097d03          	0x2097d03
    15f8:	0100                	addi	s0,sp,128
    15fa:	0305                	addi	t1,t1,1
    15fc:	0306                	slli	t1,t1,0x1
    15fe:	0901                	addi	s2,s2,0
    1600:	0002                	c.slli64	zero
    1602:	0501                	addi	a0,a0,0
    1604:	0302                	c.slli64	t1
    1606:	0902                	c.slli64	s2
    1608:	0000                	unimp
    160a:	0301                	addi	t1,t1,0
    160c:	0901                	addi	s2,s2,0
    160e:	0008                	0x8
    1610:	0501                	addi	a0,a0,0
    1612:	0601                	addi	a2,a2,0
    1614:	00090e03          	lb	t3,0(s2)
    1618:	0100                	addi	s0,sp,128
    161a:	2405                	jal	183a <__udivdi3-0x7feb72>
    161c:	0a096a03          	0xa096a03
    1620:	0100                	addi	s0,sp,128
    1622:	0905                	addi	s2,s2,1
    1624:	02091103          	lh	sp,32(s2)
    1628:	0100                	addi	s0,sp,128
    162a:	0209                	addi	tp,tp,2
    162c:	0000                	unimp
    162e:	0101                	addi	sp,sp,0
    1630:	0105                	addi	sp,sp,1
    1632:	0500                	addi	s0,sp,640
    1634:	e202                	fsw	ft0,4(sp)
    1636:	0068                	addi	a0,sp,12
    1638:	0301                	addi	t1,t1,0
    163a:	01a1                	addi	gp,gp,8
    163c:	0501                	addi	a0,a0,0
    163e:	0302                	c.slli64	t1
    1640:	0901                	addi	s2,s2,0
    1642:	0000                	unimp
    1644:	0301                	addi	t1,t1,0
    1646:	0900                	addi	s0,sp,144
    1648:	0000                	unimp
    164a:	0301                	addi	t1,t1,0
    164c:	0900                	addi	s0,sp,144
    164e:	0000                	unimp
    1650:	0301                	addi	t1,t1,0
    1652:	0901                	addi	s2,s2,0
    1654:	0000                	unimp
    1656:	0401                	addi	s0,s0,0
    1658:	0309                	addi	t1,t1,2
    165a:	7f84                	flw	fs1,56(a5)
    165c:	0009                	c.nop	2
    165e:	0100                	addi	s0,sp,128
    1660:	00090003          	lb	zero,0(s2)
    1664:	0100                	addi	s0,sp,128
    1666:	0104                	addi	s1,sp,128
    1668:	0105                	addi	sp,sp,1
    166a:	0306                	slli	t1,t1,0x1
    166c:	00fa                	slli	ra,ra,0x1e
    166e:	0009                	c.nop	2
    1670:	0100                	addi	s0,sp,128
    1672:	08090003          	lb	zero,128(s2)
    1676:	0100                	addi	s0,sp,128
    1678:	0904                	addi	s1,sp,144
    167a:	0205                	addi	tp,tp,1
    167c:	097f8603          	lb	a2,151(t6)
    1680:	0002                	c.slli64	zero
    1682:	0601                	addi	a2,a2,0
    1684:	00090003          	lb	zero,0(s2)
    1688:	0100                	addi	s0,sp,128
    168a:	00090103          	lb	sp,0(s2)
    168e:	0100                	addi	s0,sp,128
    1690:	0905                	addi	s2,s2,1
    1692:	0306                	slli	t1,t1,0x1
    1694:	0900                	addi	s0,sp,144
    1696:	0000                	unimp
    1698:	0401                	addi	s0,s0,0
    169a:	0501                	addi	a0,a0,0
    169c:	0602                	c.slli64	a2
    169e:	0900fc03          	0x900fc03
    16a2:	000a                	c.slli	zero,0x2
    16a4:	0401                	addi	s0,s0,0
    16a6:	0302                	c.slli64	t1
    16a8:	7f86                	flw	ft11,96(sp)
    16aa:	0009                	c.nop	2
    16ac:	0100                	addi	s0,sp,128
    16ae:	0104                	addi	s1,sp,128
    16b0:	0505                	addi	a0,a0,1
    16b2:	0306                	slli	t1,t1,0x1
    16b4:	00fa                	slli	ra,ra,0x1e
    16b6:	0009                	c.nop	2
    16b8:	0100                	addi	s0,sp,128
    16ba:	0205                	addi	tp,tp,1
    16bc:	0306                	slli	t1,t1,0x1
    16be:	0901                	addi	s2,s2,0
    16c0:	0002                	c.slli64	zero
    16c2:	0401                	addi	s0,s0,0
    16c4:	0309                	addi	t1,t1,2
    16c6:	02097fb3          	remu	t6,s2,zero
    16ca:	0100                	addi	s0,sp,128
    16cc:	00090003          	lb	zero,0(s2)
    16d0:	0100                	addi	s0,sp,128
    16d2:	00090003          	lb	zero,0(s2)
    16d6:	0100                	addi	s0,sp,128
    16d8:	00090103          	lb	sp,0(s2)
    16dc:	0100                	addi	s0,sp,128
    16de:	0905                	addi	s2,s2,1
    16e0:	0306                	slli	t1,t1,0x1
    16e2:	0900                	addi	s0,sp,144
    16e4:	0000                	unimp
    16e6:	0401                	addi	s0,s0,0
    16e8:	0501                	addi	a0,a0,0
    16ea:	0602                	c.slli64	a2
    16ec:	0900cd03          	lbu	s10,144(ra)
    16f0:	0010                	0x10
    16f2:	0501                	addi	a0,a0,0
    16f4:	0605                	addi	a2,a2,1
    16f6:	00090003          	lb	zero,0(s2)
    16fa:	0100                	addi	s0,sp,128
    16fc:	0205                	addi	tp,tp,1
    16fe:	0306                	slli	t1,t1,0x1
    1700:	0901                	addi	s2,s2,0
    1702:	0002                	c.slli64	zero
    1704:	0401                	addi	s0,s0,0
    1706:	0309                	addi	t1,t1,2
    1708:	7f91                	lui	t6,0xfffe4
    170a:	0009                	c.nop	2
    170c:	0100                	addi	s0,sp,128
    170e:	00090003          	lb	zero,0(s2)
    1712:	0100                	addi	s0,sp,128
    1714:	00090003          	lb	zero,0(s2)
    1718:	0100                	addi	s0,sp,128
    171a:	00090103          	lb	sp,0(s2)
    171e:	0100                	addi	s0,sp,128
    1720:	0104                	addi	s1,sp,128
    1722:	0900ef03          	0x900ef03
    1726:	000a                	c.slli	zero,0x2
    1728:	0501                	addi	a0,a0,0
    172a:	0601                	addi	a2,a2,0
    172c:	00090103          	lb	sp,0(s2)
    1730:	0100                	addi	s0,sp,128
    1732:	1205                	addi	tp,tp,-31
    1734:	0306                	slli	t1,t1,0x1
    1736:	097d                	addi	s2,s2,31
    1738:	000c                	0xc
    173a:	0401                	addi	s0,s0,0
    173c:	0509                	addi	a0,a0,2
    173e:	0302                	c.slli64	t1
    1740:	0952                	slli	s2,s2,0x14
    1742:	0000                	unimp
    1744:	0301                	addi	t1,t1,0
    1746:	0900                	addi	s0,sp,144
    1748:	0000                	unimp
    174a:	0301                	addi	t1,t1,0
    174c:	0900                	addi	s0,sp,144
    174e:	0000                	unimp
    1750:	0301                	addi	t1,t1,0
    1752:	0901                	addi	s2,s2,0
    1754:	0000                	unimp
    1756:	0501                	addi	a0,a0,0
    1758:	0609                	addi	a2,a2,2
    175a:	00090003          	lb	zero,0(s2)
    175e:	0100                	addi	s0,sp,128
    1760:	0104                	addi	s1,sp,128
    1762:	2405                	jal	1982 <__udivdi3-0x7fea2a>
    1764:	0e092b03          	lw	s6,224(s2)
    1768:	0100                	addi	s0,sp,128
    176a:	0409                	addi	s0,s0,2
    176c:	0000                	unimp
    176e:	0101                	addi	sp,sp,0
    1770:	0105                	addi	sp,sp,1
    1772:	0500                	addi	s0,sp,640
    1774:	3402                	fld	fs0,32(sp)
    1776:	0069                	c.nop	26
    1778:	0301                	addi	t1,t1,0
    177a:	01ac                	addi	a1,sp,200
    177c:	0501                	addi	a0,a0,0
    177e:	0302                	c.slli64	t1
    1780:	0901                	addi	s2,s2,0
    1782:	0000                	unimp
    1784:	0301                	addi	t1,t1,0
    1786:	0900                	addi	s0,sp,144
    1788:	0000                	unimp
    178a:	0301                	addi	t1,t1,0
    178c:	0900                	addi	s0,sp,144
    178e:	0000                	unimp
    1790:	0301                	addi	t1,t1,0
    1792:	0902                	c.slli64	s2
    1794:	0000                	unimp
    1796:	0301                	addi	t1,t1,0
    1798:	0901                	addi	s2,s2,0
    179a:	0000                	unimp
    179c:	0501                	addi	a0,a0,0
    179e:	0601                	addi	a2,a2,0
    17a0:	00097c03          	0x97c03
    17a4:	0100                	addi	s0,sp,128
    17a6:	0a04                	addi	s1,sp,272
    17a8:	0205                	addi	tp,tp,1
    17aa:	0306                	slli	t1,t1,0x1
    17ac:	0940                	addi	s0,sp,148
    17ae:	0002                	c.slli64	zero
    17b0:	0301                	addi	t1,t1,0
    17b2:	0900                	addi	s0,sp,144
    17b4:	0000                	unimp
    17b6:	0401                	addi	s0,s0,0
    17b8:	0501                	addi	a0,a0,0
    17ba:	0601                	addi	a2,a2,0
    17bc:	0900c003          	lbu	zero,144(ra)
    17c0:	0000                	unimp
    17c2:	0401                	addi	s0,s0,0
    17c4:	050a                	slli	a0,a0,0x2
    17c6:	0302                	c.slli64	t1
    17c8:	0940                	addi	s0,sp,148
    17ca:	0008                	0x8
    17cc:	0601                	addi	a2,a2,0
    17ce:	00090003          	lb	zero,0(s2)
    17d2:	0100                	addi	s0,sp,128
    17d4:	00090103          	lb	sp,0(s2)
    17d8:	0100                	addi	s0,sp,128
    17da:	0104                	addi	s1,sp,128
    17dc:	0901b403          	0x901b403
    17e0:	0000                	unimp
    17e2:	0501                	addi	a0,a0,0
    17e4:	0608                	addi	a0,sp,768
    17e6:	00090003          	lb	zero,0(s2)
    17ea:	0100                	addi	s0,sp,128
    17ec:	0205                	addi	tp,tp,1
    17ee:	0306                	slli	t1,t1,0x1
    17f0:	0902                	c.slli64	s2
    17f2:	000e                	c.slli	zero,0x3
    17f4:	0401                	addi	s0,s0,0
    17f6:	0302                	c.slli64	t1
    17f8:	7f8e                	flw	ft11,224(sp)
    17fa:	0009                	c.nop	2
    17fc:	0100                	addi	s0,sp,128
    17fe:	0304                	addi	s1,sp,384
    1800:	097efb03          	0x97efb03
    1804:	0000                	unimp
    1806:	0501                	addi	a0,a0,0
    1808:	0609                	addi	a2,a2,2
    180a:	00090003          	lb	zero,0(s2)
    180e:	0100                	addi	s0,sp,128
    1810:	0104                	addi	s1,sp,128
    1812:	1205                	addi	tp,tp,-31
    1814:	0901f703          	0x901f703
    1818:	0006                	c.slli	zero,0x1
    181a:	0501                	addi	a0,a0,0
    181c:	0602                	c.slli64	a2
    181e:	02090103          	lb	sp,32(s2)
    1822:	0100                	addi	s0,sp,128
    1824:	0204                	addi	s1,sp,256
    1826:	097f8d03          	lb	s10,151(t6) # fffe4097 <_end+0xfefdd59b>
    182a:	0000                	unimp
    182c:	0401                	addi	s0,s0,0
    182e:	7efb0303          	lb	t1,2031(s6)
    1832:	0009                	c.nop	2
    1834:	0100                	addi	s0,sp,128
    1836:	0905                	addi	s2,s2,1
    1838:	0306                	slli	t1,t1,0x1
    183a:	0900                	addi	s0,sp,144
    183c:	0000                	unimp
    183e:	0401                	addi	s0,s0,0
    1840:	0501                	addi	a0,a0,0
    1842:	01f90317          	auipc	t1,0x1f90
    1846:	0409                	addi	s0,s0,2
    1848:	0100                	addi	s0,sp,128
    184a:	1105                	addi	sp,sp,-31
    184c:	04097f03          	0x4097f03
    1850:	0100                	addi	s0,sp,128
    1852:	0205                	addi	tp,tp,1
    1854:	0306                	slli	t1,t1,0x1
    1856:	0901                	addi	s2,s2,0
    1858:	0002                	c.slli64	zero
    185a:	0301                	addi	t1,t1,0
    185c:	7f8c                	flw	fa1,56(a5)
    185e:	0009                	c.nop	2
    1860:	0100                	addi	s0,sp,128
    1862:	0804                	addi	s1,sp,16
    1864:	097ef603          	0x97ef603
    1868:	0000                	unimp
    186a:	0301                	addi	t1,t1,0
    186c:	0900                	addi	s0,sp,144
    186e:	0000                	unimp
    1870:	0301                	addi	t1,t1,0
    1872:	0900                	addi	s0,sp,144
    1874:	0000                	unimp
    1876:	0301                	addi	t1,t1,0
    1878:	0901                	addi	s2,s2,0
    187a:	0000                	unimp
    187c:	0501                	addi	a0,a0,0
    187e:	0609                	addi	a2,a2,2
    1880:	00090003          	lb	zero,0(s2)
    1884:	0100                	addi	s0,sp,128
    1886:	0104                	addi	s1,sp,128
    1888:	0205                	addi	tp,tp,1
    188a:	0306                	slli	t1,t1,0x1
    188c:	018a                	slli	gp,gp,0x2
    188e:	0e09                	addi	t3,t3,2
    1890:	0100                	addi	s0,sp,128
    1892:	0204                	addi	s1,sp,256
    1894:	097ef803          	0x97ef803
    1898:	0000                	unimp
    189a:	0401                	addi	s0,s0,0
    189c:	0501                	addi	a0,a0,0
    189e:	0605                	addi	a2,a2,1
    18a0:	09018803          	lb	a6,144(gp) # 90aee <__udivdi3-0x76f8be>
    18a4:	0000                	unimp
    18a6:	0501                	addi	a0,a0,0
    18a8:	0602                	c.slli64	a2
    18aa:	04090103          	lb	sp,64(s2)
    18ae:	0100                	addi	s0,sp,128
    18b0:	0b04                	addi	s1,sp,400
    18b2:	097ef403          	0x97ef403
    18b6:	0000                	unimp
    18b8:	0301                	addi	t1,t1,0
    18ba:	0900                	addi	s0,sp,144
    18bc:	0000                	unimp
    18be:	0301                	addi	t1,t1,0
    18c0:	0900                	addi	s0,sp,144
    18c2:	0000                	unimp
    18c4:	0301                	addi	t1,t1,0
    18c6:	0901                	addi	s2,s2,0
    18c8:	0000                	unimp
    18ca:	0501                	addi	a0,a0,0
    18cc:	0609                	addi	a2,a2,2
    18ce:	00090003          	lb	zero,0(s2)
    18d2:	0100                	addi	s0,sp,128
    18d4:	0104                	addi	s1,sp,128
    18d6:	0205                	addi	tp,tp,1
    18d8:	0306                	slli	t1,t1,0x1
    18da:	018c                	addi	a1,sp,192
    18dc:	0c09                	addi	s8,s8,2
    18de:	0100                	addi	s0,sp,128
    18e0:	0204                	addi	s1,sp,256
    18e2:	097ef603          	0x97ef603
    18e6:	0000                	unimp
    18e8:	0401                	addi	s0,s0,0
    18ea:	0501                	addi	a0,a0,0
    18ec:	0605                	addi	a2,a2,1
    18ee:	09018a03          	lb	s4,144(gp)
    18f2:	0000                	unimp
    18f4:	0501                	addi	a0,a0,0
    18f6:	0602                	c.slli64	a2
    18f8:	02090403          	lb	s0,32(s2)
    18fc:	0100                	addi	s0,sp,128
    18fe:	00090203          	lb	tp,0(s2)
    1902:	0100                	addi	s0,sp,128
    1904:	10090103          	lb	sp,256(s2)
    1908:	0100                	addi	s0,sp,128
    190a:	1405                	addi	s0,s0,-31
    190c:	0306                	slli	t1,t1,0x1
    190e:	0900                	addi	s0,sp,144
    1910:	0000                	unimp
    1912:	0501                	addi	a0,a0,0
    1914:	030c                	addi	a1,sp,384
    1916:	0902                	c.slli64	s2
    1918:	0002                	c.slli64	zero
    191a:	0501                	addi	a0,a0,0
    191c:	0314                	addi	a3,sp,384
    191e:	097e                	slli	s2,s2,0x1f
    1920:	0004                	0x4
    1922:	0501                	addi	a0,a0,0
    1924:	0602                	c.slli64	a2
    1926:	02090203          	lb	tp,32(s2)
    192a:	0100                	addi	s0,sp,128
    192c:	0c05                	addi	s8,s8,1
    192e:	0306                	slli	t1,t1,0x1
    1930:	0900                	addi	s0,sp,144
    1932:	0000                	unimp
    1934:	0501                	addi	a0,a0,0
    1936:	0602                	c.slli64	a2
    1938:	0a090103          	lb	sp,160(s2)
    193c:	0100                	addi	s0,sp,128
    193e:	0505                	addi	a0,a0,1
    1940:	0306                	slli	t1,t1,0x1
    1942:	0900                	addi	s0,sp,144
    1944:	0000                	unimp
    1946:	0501                	addi	a0,a0,0
    1948:	0602                	c.slli64	a2
    194a:	02090103          	lb	sp,32(s2)
    194e:	0100                	addi	s0,sp,128
    1950:	0b04                	addi	s1,sp,400
    1952:	097ef903          	0x97ef903
    1956:	0000                	unimp
    1958:	0301                	addi	t1,t1,0
    195a:	0900                	addi	s0,sp,144
    195c:	0000                	unimp
    195e:	0301                	addi	t1,t1,0
    1960:	0900                	addi	s0,sp,144
    1962:	0000                	unimp
    1964:	0301                	addi	t1,t1,0
    1966:	0901                	addi	s2,s2,0
    1968:	0000                	unimp
    196a:	0401                	addi	s0,s0,0
    196c:	0301                	addi	t1,t1,0
    196e:	0a090187          	0xa090187
    1972:	0100                	addi	s0,sp,128
    1974:	0804                	addi	s1,sp,16
    1976:	097ef803          	0x97ef803
    197a:	0000                	unimp
    197c:	0301                	addi	t1,t1,0
    197e:	0900                	addi	s0,sp,144
    1980:	0000                	unimp
    1982:	0301                	addi	t1,t1,0
    1984:	0900                	addi	s0,sp,144
    1986:	0000                	unimp
    1988:	0301                	addi	t1,t1,0
    198a:	0901                	addi	s2,s2,0
    198c:	0000                	unimp
    198e:	0401                	addi	s0,s0,0
    1990:	0301                	addi	t1,t1,0
    1992:	0189                	addi	gp,gp,2
    1994:	0a09                	addi	s4,s4,2
    1996:	0100                	addi	s0,sp,128
    1998:	0105                	addi	sp,sp,1
    199a:	0306                	slli	t1,t1,0x1
    199c:	0901                	addi	s2,s2,0
    199e:	0000                	unimp
    19a0:	0501                	addi	a0,a0,0
    19a2:	0612                	slli	a2,a2,0x4
    19a4:	0e097b03          	0xe097b03
    19a8:	0100                	addi	s0,sp,128
    19aa:	0b04                	addi	s1,sp,400
    19ac:	0205                	addi	tp,tp,1
    19ae:	097faa03          	lw	s4,151(t6)
    19b2:	0000                	unimp
    19b4:	0301                	addi	t1,t1,0
    19b6:	0900                	addi	s0,sp,144
    19b8:	0000                	unimp
    19ba:	0301                	addi	t1,t1,0
    19bc:	0900                	addi	s0,sp,144
    19be:	0000                	unimp
    19c0:	0301                	addi	t1,t1,0
    19c2:	0901                	addi	s2,s2,0
    19c4:	0000                	unimp
    19c6:	0501                	addi	a0,a0,0
    19c8:	0609                	addi	a2,a2,2
    19ca:	00090003          	lb	zero,0(s2)
    19ce:	0100                	addi	s0,sp,128
    19d0:	0104                	addi	s1,sp,128
    19d2:	2405                	jal	1bf2 <__udivdi3-0x7fe7ba>
    19d4:	0900c903          	lbu	s2,144(ra)
    19d8:	000e                	c.slli	zero,0x3
    19da:	0501                	addi	a0,a0,0
    19dc:	03030603          	lb	a2,48(t1) # 1f91872 <_end+0xf8ad76>
    19e0:	0409                	addi	s0,s0,2
    19e2:	0100                	addi	s0,sp,128
    19e4:	0804                	addi	s1,sp,16
    19e6:	0205                	addi	tp,tp,1
    19e8:	097f8303          	lb	t1,151(t6)
    19ec:	0000                	unimp
    19ee:	0301                	addi	t1,t1,0
    19f0:	0900                	addi	s0,sp,144
    19f2:	0000                	unimp
    19f4:	0301                	addi	t1,t1,0
    19f6:	0900                	addi	s0,sp,144
    19f8:	0000                	unimp
    19fa:	0301                	addi	t1,t1,0
    19fc:	0901                	addi	s2,s2,0
    19fe:	0000                	unimp
    1a00:	0401                	addi	s0,s0,0
    1a02:	0501                	addi	a0,a0,0
    1a04:	00fd0303          	lb	t1,15(s10) # 1a00f <__udivdi3-0x7e639d>
    1a08:	0a09                	addi	s4,s4,2
    1a0a:	0100                	addi	s0,sp,128
    1a0c:	0a05                	addi	s4,s4,1
    1a0e:	0306                	slli	t1,t1,0x1
    1a10:	0900                	addi	s0,sp,144
    1a12:	0000                	unimp
    1a14:	0901                	addi	s2,s2,0
    1a16:	0004                	0x4
    1a18:	0100                	addi	s0,sp,128
    1a1a:	0501                	addi	a0,a0,0
    1a1c:	0001                	nop
    1a1e:	0205                	addi	tp,tp,1
    1a20:	69e4                	flw	fs1,84(a1)
    1a22:	0100                	addi	s0,sp,128
    1a24:	0101ef03          	0x101ef03
    1a28:	0205                	addi	tp,tp,1
    1a2a:	00090103          	lb	sp,0(s2)
    1a2e:	0100                	addi	s0,sp,128
    1a30:	0105                	addi	sp,sp,1
    1a32:	0306                	slli	t1,t1,0x1
    1a34:	097f                	0x97f
    1a36:	0000                	unimp
    1a38:	0501                	addi	a0,a0,0
    1a3a:	0318                	addi	a4,sp,384
    1a3c:	0901                	addi	s2,s2,0
    1a3e:	000a                	c.slli	zero,0x2
    1a40:	0501                	addi	a0,a0,0
    1a42:	0602                	c.slli64	a2
    1a44:	08090203          	lb	tp,128(s2)
    1a48:	0100                	addi	s0,sp,128
    1a4a:	0204                	addi	s1,sp,256
    1a4c:	097eb803          	0x97eb803
    1a50:	0000                	unimp
    1a52:	0401                	addi	s0,s0,0
    1a54:	0501                	addi	a0,a0,0
    1a56:	0605                	addi	a2,a2,1
    1a58:	0901c803          	lbu	a6,144(gp)
    1a5c:	0000                	unimp
    1a5e:	0501                	addi	a0,a0,0
    1a60:	0602                	c.slli64	a2
    1a62:	02090303          	lb	t1,32(s2)
    1a66:	0100                	addi	s0,sp,128
    1a68:	00090103          	lb	sp,0(s2)
    1a6c:	0100                	addi	s0,sp,128
    1a6e:	0904                	addi	s1,sp,144
    1a70:	097ed203          	lhu	tp,151(t4)
    1a74:	0000                	unimp
    1a76:	0301                	addi	t1,t1,0
    1a78:	0900                	addi	s0,sp,144
    1a7a:	0000                	unimp
    1a7c:	0301                	addi	t1,t1,0
    1a7e:	0900                	addi	s0,sp,144
    1a80:	0002                	c.slli64	zero
    1a82:	0301                	addi	t1,t1,0
    1a84:	0901                	addi	s2,s2,0
    1a86:	0000                	unimp
    1a88:	0501                	addi	a0,a0,0
    1a8a:	0609                	addi	a2,a2,2
    1a8c:	00090003          	lb	zero,0(s2)
    1a90:	0100                	addi	s0,sp,128
    1a92:	0104                	addi	s1,sp,128
    1a94:	0205                	addi	tp,tp,1
    1a96:	0306                	slli	t1,t1,0x1
    1a98:	01ae                	slli	gp,gp,0xb
    1a9a:	1009                	c.nop	-30
    1a9c:	0100                	addi	s0,sp,128
    1a9e:	0505                	addi	a0,a0,1
    1aa0:	0306                	slli	t1,t1,0x1
    1aa2:	0900                	addi	s0,sp,144
    1aa4:	0000                	unimp
    1aa6:	0501                	addi	a0,a0,0
    1aa8:	0301                	addi	t1,t1,0
    1aaa:	00020907          	0x20907
    1aae:	0501                	addi	a0,a0,0
    1ab0:	030a                	slli	t1,t1,0x2
    1ab2:	0975                	addi	s2,s2,29
    1ab4:	0006                	c.slli	zero,0x1
    1ab6:	0501                	addi	a0,a0,0
    1ab8:	0301                	addi	t1,t1,0
    1aba:	0002090b          	0x2090b
    1abe:	0401                	addi	s0,s0,0
    1ac0:	050c                	addi	a1,sp,640
    1ac2:	0602                	c.slli64	a2
    1ac4:	097ebc03          	0x97ebc03
    1ac8:	0004                	0x4
    1aca:	0501                	addi	a0,a0,0
    1acc:	0630                	addi	a2,sp,776
    1ace:	00090003          	lb	zero,0(s2)
    1ad2:	0100                	addi	s0,sp,128
    1ad4:	2905                	jal	1f04 <__udivdi3-0x7fe4a8>
    1ad6:	02090003          	lb	zero,32(s2)
    1ada:	0100                	addi	s0,sp,128
    1adc:	2d05                	jal	210c <__udivdi3-0x7fe2a0>
    1ade:	0e090103          	lb	sp,224(s2)
    1ae2:	0100                	addi	s0,sp,128
    1ae4:	1c05                	addi	s8,s8,-31
    1ae6:	04090003          	lb	zero,64(s2)
    1aea:	0100                	addi	s0,sp,128
    1aec:	1305                	addi	t1,t1,-31
    1aee:	02090103          	lb	sp,32(s2)
    1af2:	0100                	addi	s0,sp,128
    1af4:	3c05                	jal	1524 <__udivdi3-0x7fee88>
    1af6:	06097f03          	0x6097f03
    1afa:	0100                	addi	s0,sp,128
    1afc:	0104                	addi	s1,sp,128
    1afe:	0305                	addi	t1,t1,1
    1b00:	0306                	slli	t1,t1,0x1
    1b02:	01bd                	addi	gp,gp,15
    1b04:	0409                	addi	s0,s0,2
    1b06:	0100                	addi	s0,sp,128
    1b08:	0105                	addi	sp,sp,1
    1b0a:	0306                	slli	t1,t1,0x1
    1b0c:	0906                	slli	s2,s2,0x1
    1b0e:	0000                	unimp
    1b10:	0501                	addi	a0,a0,0
    1b12:	030e                	slli	t1,t1,0x3
    1b14:	097a                	slli	s2,s2,0x1e
    1b16:	0004                	0x4
    1b18:	0501                	addi	a0,a0,0
    1b1a:	0301                	addi	t1,t1,0
    1b1c:	0906                	slli	s2,s2,0x1
    1b1e:	0004                	0x4
    1b20:	0901                	addi	s2,s2,0
    1b22:	0006                	c.slli	zero,0x1
    1b24:	0100                	addi	s0,sp,128
    1b26:	0501                	addi	a0,a0,0
    1b28:	0001                	nop
    1b2a:	0205                	addi	tp,tp,1
    1b2c:	6a46                	flw	fs4,80(sp)
    1b2e:	0100                	addi	s0,sp,128
    1b30:	01028103          	lb	sp,16(t0) # 1194758 <_end+0x18dc5c>
    1b34:	0205                	addi	tp,tp,1
    1b36:	00090103          	lb	sp,0(s2)
    1b3a:	0100                	addi	s0,sp,128
    1b3c:	0204                	addi	s1,sp,256
    1b3e:	097faf03          	lw	t5,151(t6)
    1b42:	0000                	unimp
    1b44:	0401                	addi	s0,s0,0
    1b46:	7efb0303          	lb	t1,2031(s6)
    1b4a:	0009                	c.nop	2
    1b4c:	0100                	addi	s0,sp,128
    1b4e:	0905                	addi	s2,s2,1
    1b50:	0306                	slli	t1,t1,0x1
    1b52:	0900                	addi	s0,sp,144
    1b54:	0000                	unimp
    1b56:	0401                	addi	s0,s0,0
    1b58:	0501                	addi	a0,a0,0
    1b5a:	0602                	c.slli64	a2
    1b5c:	0901d703          	lhu	a4,144(gp)
    1b60:	0008                	0x8
    1b62:	0401                	addi	s0,s0,0
    1b64:	0302                	c.slli64	t1
    1b66:	7fae                	flw	ft11,232(sp)
    1b68:	0009                	c.nop	2
    1b6a:	0100                	addi	s0,sp,128
    1b6c:	0304                	addi	s1,sp,384
    1b6e:	097efb03          	0x97efb03
    1b72:	0000                	unimp
    1b74:	0501                	addi	a0,a0,0
    1b76:	0609                	addi	a2,a2,2
    1b78:	00090003          	lb	zero,0(s2)
    1b7c:	0100                	addi	s0,sp,128
    1b7e:	0104                	addi	s1,sp,128
    1b80:	0205                	addi	tp,tp,1
    1b82:	0306                	slli	t1,t1,0x1
    1b84:	01d8                	addi	a4,sp,196
    1b86:	0409                	addi	s0,s0,2
    1b88:	0100                	addi	s0,sp,128
    1b8a:	0204                	addi	s1,sp,256
    1b8c:	097fad03          	lw	s10,151(t6)
    1b90:	0000                	unimp
    1b92:	0401                	addi	s0,s0,0
    1b94:	7efb0303          	lb	t1,2031(s6)
    1b98:	0009                	c.nop	2
    1b9a:	0100                	addi	s0,sp,128
    1b9c:	0905                	addi	s2,s2,1
    1b9e:	0306                	slli	t1,t1,0x1
    1ba0:	0900                	addi	s0,sp,144
    1ba2:	0000                	unimp
    1ba4:	0401                	addi	s0,s0,0
    1ba6:	0501                	addi	a0,a0,0
    1ba8:	0602                	c.slli64	a2
    1baa:	0901da03          	lhu	s4,144(gp)
    1bae:	0004                	0x4
    1bb0:	0501                	addi	a0,a0,0
    1bb2:	0605                	addi	a2,a2,1
    1bb4:	00090003          	lb	zero,0(s2)
    1bb8:	0100                	addi	s0,sp,128
    1bba:	1c05                	addi	s8,s8,-31
    1bbc:	0200                	addi	s0,sp,256
    1bbe:	0104                	addi	s1,sp,128
    1bc0:	04090003          	lb	zero,64(s2)
    1bc4:	0100                	addi	s0,sp,128
    1bc6:	04090003          	lb	zero,64(s2)
    1bca:	0100                	addi	s0,sp,128
    1bcc:	0205                	addi	tp,tp,1
    1bce:	0306                	slli	t1,t1,0x1
    1bd0:	00020903          	lb	s2,0(tp) # 0 <__udivdi3-0x8003ac>
    1bd4:	0501                	addi	a0,a0,0
    1bd6:	0601                	addi	a2,a2,0
    1bd8:	00090103          	lb	sp,0(s2)
    1bdc:	0100                	addi	s0,sp,128
    1bde:	0209                	addi	tp,tp,2
    1be0:	0000                	unimp
    1be2:	0101                	addi	sp,sp,0
    1be4:	0105                	addi	sp,sp,1
    1be6:	0500                	addi	s0,sp,640
    1be8:	6202                	flw	ft4,0(sp)
    1bea:	006a                	c.slli	zero,0x1a
    1bec:	0301                	addi	t1,t1,0
    1bee:	028d                	addi	t0,t0,3
    1bf0:	0501                	addi	a0,a0,0
    1bf2:	0302                	c.slli64	t1
    1bf4:	0901                	addi	s2,s2,0
    1bf6:	0000                	unimp
    1bf8:	0401                	addi	s0,s0,0
    1bfa:	030a                	slli	t1,t1,0x2
    1bfc:	00097ebb          	0x97ebb
    1c00:	0100                	addi	s0,sp,128
    1c02:	00090003          	lb	zero,0(s2)
    1c06:	0100                	addi	s0,sp,128
    1c08:	0104                	addi	s1,sp,128
    1c0a:	0105                	addi	sp,sp,1
    1c0c:	0306                	slli	t1,t1,0x1
    1c0e:	01c4                	addi	s1,sp,196
    1c10:	0009                	c.nop	2
    1c12:	0100                	addi	s0,sp,128
    1c14:	0a04                	addi	s1,sp,272
    1c16:	0205                	addi	tp,tp,1
    1c18:	097ebc03          	0x97ebc03
    1c1c:	0004                	0x4
    1c1e:	0601                	addi	a2,a2,0
    1c20:	00090003          	lb	zero,0(s2)
    1c24:	0100                	addi	s0,sp,128
    1c26:	00090103          	lb	sp,0(s2)
    1c2a:	0100                	addi	s0,sp,128
    1c2c:	0104                	addi	s1,sp,128
    1c2e:	0901b803          	0x901b803
    1c32:	0000                	unimp
    1c34:	0401                	addi	s0,s0,0
    1c36:	0302                	c.slli64	t1
    1c38:	00097faf          	0x97faf
    1c3c:	0100                	addi	s0,sp,128
    1c3e:	0304                	addi	s1,sp,384
    1c40:	097efb03          	0x97efb03
    1c44:	0000                	unimp
    1c46:	0501                	addi	a0,a0,0
    1c48:	0609                	addi	a2,a2,2
    1c4a:	00090003          	lb	zero,0(s2)
    1c4e:	0100                	addi	s0,sp,128
    1c50:	0104                	addi	s1,sp,128
    1c52:	0205                	addi	tp,tp,1
    1c54:	0306                	slli	t1,t1,0x1
    1c56:	080901d7          	0x80901d7
    1c5a:	0100                	addi	s0,sp,128
    1c5c:	0204                	addi	s1,sp,256
    1c5e:	097fae03          	lw	t3,151(t6)
    1c62:	0000                	unimp
    1c64:	0401                	addi	s0,s0,0
    1c66:	7efb0303          	lb	t1,2031(s6)
    1c6a:	0009                	c.nop	2
    1c6c:	0100                	addi	s0,sp,128
    1c6e:	0905                	addi	s2,s2,1
    1c70:	0306                	slli	t1,t1,0x1
    1c72:	0900                	addi	s0,sp,144
    1c74:	0000                	unimp
    1c76:	0401                	addi	s0,s0,0
    1c78:	0501                	addi	a0,a0,0
    1c7a:	0602                	c.slli64	a2
    1c7c:	0901d803          	lhu	a6,144(gp)
    1c80:	0004                	0x4
    1c82:	0401                	addi	s0,s0,0
    1c84:	0302                	c.slli64	t1
    1c86:	7fad                	lui	t6,0xfffeb
    1c88:	0009                	c.nop	2
    1c8a:	0100                	addi	s0,sp,128
    1c8c:	0304                	addi	s1,sp,384
    1c8e:	097efb03          	0x97efb03
    1c92:	0000                	unimp
    1c94:	0501                	addi	a0,a0,0
    1c96:	0609                	addi	a2,a2,2
    1c98:	00090003          	lb	zero,0(s2)
    1c9c:	0100                	addi	s0,sp,128
    1c9e:	0104                	addi	s1,sp,128
    1ca0:	0205                	addi	tp,tp,1
    1ca2:	0306                	slli	t1,t1,0x1
    1ca4:	01da                	slli	gp,gp,0x16
    1ca6:	0409                	addi	s0,s0,2
    1ca8:	0100                	addi	s0,sp,128
    1caa:	0505                	addi	a0,a0,1
    1cac:	0306                	slli	t1,t1,0x1
    1cae:	0900                	addi	s0,sp,144
    1cb0:	0000                	unimp
    1cb2:	0501                	addi	a0,a0,0
    1cb4:	031c                	addi	a5,sp,384
    1cb6:	0900                	addi	s0,sp,144
    1cb8:	0004                	0x4
    1cba:	0501                	addi	a0,a0,0
    1cbc:	0602                	c.slli64	a2
    1cbe:	04090303          	lb	t1,64(s2)
    1cc2:	0100                	addi	s0,sp,128
    1cc4:	0d04                	addi	s1,sp,656
    1cc6:	097eab03          	lw	s6,151(t4)
    1cca:	0000                	unimp
    1ccc:	0401                	addi	s0,s0,0
    1cce:	030e                	slli	t1,t1,0x3
    1cd0:	00000973          	0x973
    1cd4:	0301                	addi	t1,t1,0
    1cd6:	0900                	addi	s0,sp,144
    1cd8:	0000                	unimp
    1cda:	0301                	addi	t1,t1,0
    1cdc:	0900                	addi	s0,sp,144
    1cde:	0000                	unimp
    1ce0:	0301                	addi	t1,t1,0
    1ce2:	0901                	addi	s2,s2,0
    1ce4:	0000                	unimp
    1ce6:	0401                	addi	s0,s0,0
    1ce8:	030d                	addi	t1,t1,3
    1cea:	0979                	addi	s2,s2,30
    1cec:	0000                	unimp
    1cee:	0301                	addi	t1,t1,0
    1cf0:	0902                	c.slli64	s2
    1cf2:	0000                	unimp
    1cf4:	0401                	addi	s0,s0,0
    1cf6:	0501                	addi	a0,a0,0
    1cf8:	0619                	addi	a2,a2,6
    1cfa:	0901eb03          	0x901eb03
    1cfe:	0000                	unimp
    1d00:	0401                	addi	s0,s0,0
    1d02:	050d                	addi	a0,a0,3
    1d04:	0309                	addi	t1,t1,2
    1d06:	7e95                	lui	t4,0xfffe5
    1d08:	0409                	addi	s0,s0,2
    1d0a:	0100                	addi	s0,sp,128
    1d0c:	0104                	addi	s1,sp,128
    1d0e:	2205                	jal	1e2e <__udivdi3-0x7fe57e>
    1d10:	0901eb03          	0x901eb03
    1d14:	0004                	0x4
    1d16:	0501                	addi	a0,a0,0
    1d18:	0319                	addi	t1,t1,6
    1d1a:	0900                	addi	s0,sp,144
    1d1c:	0004                	0x4
    1d1e:	0501                	addi	a0,a0,0
    1d20:	0320                	addi	s0,sp,392
    1d22:	0900                	addi	s0,sp,144
    1d24:	0004                	0x4
    1d26:	0501                	addi	a0,a0,0
    1d28:	0319                	addi	t1,t1,6
    1d2a:	0900                	addi	s0,sp,144
    1d2c:	0004                	0x4
    1d2e:	0501                	addi	a0,a0,0
    1d30:	0320                	addi	s0,sp,392
    1d32:	0900                	addi	s0,sp,144
    1d34:	0004                	0x4
    1d36:	0501                	addi	a0,a0,0
    1d38:	0301                	addi	t1,t1,0
    1d3a:	0901                	addi	s2,s2,0
    1d3c:	000e                	c.slli	zero,0x3
    1d3e:	0901                	addi	s2,s2,0
    1d40:	000a                	c.slli	zero,0x2
    1d42:	0100                	addi	s0,sp,128
    1d44:	0501                	addi	a0,a0,0
    1d46:	0001                	nop
    1d48:	0205                	addi	tp,tp,1
    1d4a:	6aae                	flw	fs5,200(sp)
    1d4c:	0100                	addi	s0,sp,128
    1d4e:	01029203          	lh	tp,16(t0)
    1d52:	0205                	addi	tp,tp,1
    1d54:	00090103          	lb	sp,0(s2)
    1d58:	0100                	addi	s0,sp,128
    1d5a:	0204                	addi	s1,sp,256
    1d5c:	097f9e03          	lh	t3,151(t6) # fffeb097 <_end+0xfefe459b>
    1d60:	0000                	unimp
    1d62:	0401                	addi	s0,s0,0
    1d64:	7efb0303          	lb	t1,2031(s6)
    1d68:	0009                	c.nop	2
    1d6a:	0100                	addi	s0,sp,128
    1d6c:	0905                	addi	s2,s2,1
    1d6e:	0306                	slli	t1,t1,0x1
    1d70:	0900                	addi	s0,sp,144
    1d72:	0000                	unimp
    1d74:	0401                	addi	s0,s0,0
    1d76:	0501                	addi	a0,a0,0
    1d78:	0602                	c.slli64	a2
    1d7a:	0901e803          	0x901e803
    1d7e:	0008                	0x8
    1d80:	0401                	addi	s0,s0,0
    1d82:	06090503          	lb	a0,96(s2)
    1d86:	097e9803          	lh	a6,151(t4) # fffe5097 <_end+0xfefde59b>
    1d8a:	0000                	unimp
    1d8c:	0401                	addi	s0,s0,0
    1d8e:	0301                	addi	t1,t1,0
    1d90:	01e8                	addi	a0,sp,204
    1d92:	0409                	addi	s0,s0,2
    1d94:	0100                	addi	s0,sp,128
    1d96:	0205                	addi	tp,tp,1
    1d98:	0306                	slli	t1,t1,0x1
    1d9a:	0901                	addi	s2,s2,0
    1d9c:	0002                	c.slli64	zero
    1d9e:	0501                	addi	a0,a0,0
    1da0:	09010303          	lb	t1,144(sp)
    1da4:	0000                	unimp
    1da6:	0401                	addi	s0,s0,0
    1da8:	0502                	c.slli64	a0
    1daa:	0302                	c.slli64	t1
    1dac:	00097f9b          	0x97f9b
    1db0:	0100                	addi	s0,sp,128
    1db2:	0304                	addi	s1,sp,384
    1db4:	097efb03          	0x97efb03
    1db8:	0000                	unimp
    1dba:	0501                	addi	a0,a0,0
    1dbc:	0609                	addi	a2,a2,2
    1dbe:	00090003          	lb	zero,0(s2)
    1dc2:	0100                	addi	s0,sp,128
    1dc4:	0104                	addi	s1,sp,128
    1dc6:	0305                	addi	t1,t1,1
    1dc8:	0306                	slli	t1,t1,0x1
    1dca:	040901eb          	0x40901eb
    1dce:	0100                	addi	s0,sp,128
    1dd0:	1505                	addi	a0,a0,-31
    1dd2:	0306                	slli	t1,t1,0x1
    1dd4:	0900                	addi	s0,sp,144
    1dd6:	0000                	unimp
    1dd8:	0501                	addi	a0,a0,0
    1dda:	0306                	slli	t1,t1,0x1
    1ddc:	0900                	addi	s0,sp,144
    1dde:	0002                	c.slli64	zero
    1de0:	0501                	addi	a0,a0,0
    1de2:	0301                	addi	t1,t1,0
    1de4:	0906                	slli	s2,s2,0x1
    1de6:	0004                	0x4
    1de8:	0901                	addi	s2,s2,0
    1dea:	0002                	c.slli64	zero
    1dec:	0100                	addi	s0,sp,128
    1dee:	0501                	addi	a0,a0,0
    1df0:	0001                	nop
    1df2:	0205                	addi	tp,tp,1
    1df4:	6ac8                	flw	fa0,20(a3)
    1df6:	0100                	addi	s0,sp,128
    1df8:	0102a003          	lw	zero,16(t0)
    1dfc:	0205                	addi	tp,tp,1
    1dfe:	00090103          	lb	sp,0(s2)
    1e02:	0100                	addi	s0,sp,128
    1e04:	0105                	addi	sp,sp,1
    1e06:	0306                	slli	t1,t1,0x1
    1e08:	097f                	0x97f
    1e0a:	0000                	unimp
    1e0c:	0501                	addi	a0,a0,0
    1e0e:	0308                	addi	a0,sp,384
    1e10:	0901                	addi	s2,s2,0
    1e12:	0002                	c.slli64	zero
    1e14:	0501                	addi	a0,a0,0
    1e16:	0301                	addi	t1,t1,0
    1e18:	097f                	0x97f
    1e1a:	0004                	0x4
    1e1c:	0301                	addi	t1,t1,0
    1e1e:	0900                	addi	s0,sp,144
    1e20:	0004                	0x4
    1e22:	0501                	addi	a0,a0,0
    1e24:	0308                	addi	a0,sp,384
    1e26:	0901                	addi	s2,s2,0
    1e28:	0002                	c.slli64	zero
    1e2a:	0501                	addi	a0,a0,0
    1e2c:	0602                	c.slli64	a2
    1e2e:	08090203          	lb	tp,128(s2)
    1e32:	0100                	addi	s0,sp,128
    1e34:	0204                	addi	s1,sp,256
    1e36:	097f8e03          	lb	t3,151(t6)
    1e3a:	0000                	unimp
    1e3c:	0401                	addi	s0,s0,0
    1e3e:	7efb0303          	lb	t1,2031(s6)
    1e42:	0009                	c.nop	2
    1e44:	0100                	addi	s0,sp,128
    1e46:	0905                	addi	s2,s2,1
    1e48:	0306                	slli	t1,t1,0x1
    1e4a:	0900                	addi	s0,sp,144
    1e4c:	0000                	unimp
    1e4e:	0401                	addi	s0,s0,0
    1e50:	0501                	addi	a0,a0,0
    1e52:	0301                	addi	t1,t1,0
    1e54:	060901fb          	0x60901fb
    1e58:	0100                	addi	s0,sp,128
    1e5a:	1205                	addi	tp,tp,-31
    1e5c:	02097c03          	0x2097c03
    1e60:	0100                	addi	s0,sp,128
    1e62:	0205                	addi	tp,tp,1
    1e64:	0306                	slli	t1,t1,0x1
    1e66:	0901                	addi	s2,s2,0
    1e68:	0002                	c.slli64	zero
    1e6a:	0401                	addi	s0,s0,0
    1e6c:	0302                	c.slli64	t1
    1e6e:	7f8d                	lui	t6,0xfffe3
    1e70:	0009                	c.nop	2
    1e72:	0100                	addi	s0,sp,128
    1e74:	0304                	addi	s1,sp,384
    1e76:	097efb03          	0x97efb03
    1e7a:	0000                	unimp
    1e7c:	0501                	addi	a0,a0,0
    1e7e:	0609                	addi	a2,a2,2
    1e80:	00090003          	lb	zero,0(s2)
    1e84:	0100                	addi	s0,sp,128
    1e86:	0104                	addi	s1,sp,128
    1e88:	1705                	addi	a4,a4,-31
    1e8a:	0901f903          	0x901f903
    1e8e:	0004                	0x4
    1e90:	0501                	addi	a0,a0,0
    1e92:	0311                	addi	t1,t1,4
    1e94:	097f                	0x97f
    1e96:	0004                	0x4
    1e98:	0501                	addi	a0,a0,0
    1e9a:	0602                	c.slli64	a2
    1e9c:	02090103          	lb	sp,32(s2)
    1ea0:	0100                	addi	s0,sp,128
    1ea2:	0105                	addi	sp,sp,1
    1ea4:	0306                	slli	t1,t1,0x1
    1ea6:	0902                	c.slli64	s2
    1ea8:	0000                	unimp
    1eaa:	0901                	addi	s2,s2,0
    1eac:	0006                	c.slli	zero,0x1
    1eae:	0100                	addi	s0,sp,128
    1eb0:	01              	Address 0x0000000000001eb0 is out of bounds.


Disassembly of section .debug_frame:

00000000 <.debug_frame>:
   0:	000c                	0xc
   2:	0000                	unimp
   4:	ffff                	0xffff
   6:	ffff                	0xffff
   8:	7c010003          	lb	zero,1984(sp)
   c:	0d01                	addi	s10,s10,0
   e:	0002                	c.slli64	zero
  10:	0020                	addi	s0,sp,8
  12:	0000                	unimp
  14:	0000                	unimp
  16:	0000                	unimp
  18:	6564                	flw	fs1,76(a0)
  1a:	0100                	addi	s0,sp,128
  1c:	006a                	c.slli	zero,0x1a
  1e:	0000                	unimp
  20:	0e42                	slli	t3,t3,0x10
  22:	4a10                	lw	a2,16(a2)
  24:	0181                	addi	gp,gp,0
  26:	0288                	addi	a0,sp,320
  28:	0389                	addi	t2,t2,2
  2a:	5002                	0x5002
  2c:	46c1                	li	a3,16
  2e:	44c8                	lw	a0,12(s1)
  30:	42c9                	li	t0,18
  32:	000e                	c.slli	zero,0x3
  34:	000c                	0xc
  36:	0000                	unimp
  38:	ffff                	0xffff
  3a:	ffff                	0xffff
  3c:	7c010003          	lb	zero,1984(sp)
  40:	0d01                	addi	s10,s10,0
  42:	0002                	c.slli64	zero
  44:	0014                	0x14
  46:	0000                	unimp
  48:	0034                	addi	a3,sp,8
  4a:	0000                	unimp
  4c:	65ce                	flw	fa1,208(sp)
  4e:	0100                	addi	s0,sp,128
  50:	009c                	addi	a5,sp,64
  52:	0000                	unimp
  54:	0e48                	addi	a0,sp,788
  56:	0260                	addi	s0,sp,268
  58:	0e92                	slli	t4,t4,0x4
  5a:	0000                	unimp
  5c:	0024                	addi	s1,sp,8
  5e:	0000                	unimp
  60:	0034                	addi	a3,sp,8
  62:	0000                	unimp
  64:	666a                	flw	fa2,152(sp)
  66:	0100                	addi	s0,sp,128
  68:	0064                	addi	s1,sp,12
  6a:	0000                	unimp
  6c:	0e42                	slli	t3,t3,0x10
  6e:	4610                	lw	a2,8(a2)
  70:	0181                	addi	gp,gp,0
  72:	0288                	addi	a0,sp,320
  74:	0389                	addi	t2,t2,2
  76:	4e02                	lw	t3,0(sp)
  78:	c10a                	sw	sp,128(sp)
  7a:	c842                	sw	a6,16(sp)
  7c:	c944                	sw	s1,20(a0)
  7e:	0e42                	slli	t3,t3,0x10
  80:	4200                	lw	s0,0(a2)
  82:	0028000b          	0x28000b
  86:	0000                	unimp
  88:	0034                	addi	a3,sp,8
  8a:	0000                	unimp
  8c:	66ce                	flw	fa3,208(sp)
  8e:	0100                	addi	s0,sp,128
  90:	0062                	c.slli	zero,0x18
  92:	0000                	unimp
  94:	0e42                	slli	t3,t3,0x10
  96:	4810                	lw	a2,16(s0)
  98:	0288                	addi	a0,sp,320
  9a:	0181                	addi	gp,gp,0
  9c:	0389                	addi	t2,t2,2
  9e:	0492                	slli	s1,s1,0x4
  a0:	4802                	lw	a6,0(sp)
  a2:	c10a                	sw	sp,128(sp)
  a4:	c842                	sw	a6,16(sp)
  a6:	c942                	sw	a6,144(sp)
  a8:	d244                	sw	s1,36(a2)
  aa:	0e42                	slli	t3,t3,0x10
  ac:	4200                	lw	s0,0(a2)
  ae:	0040000b          	0x40000b
  b2:	0000                	unimp
  b4:	0034                	addi	a3,sp,8
  b6:	0000                	unimp
  b8:	6730                	flw	fa2,72(a4)
  ba:	0100                	addi	s0,sp,128
  bc:	0098                	addi	a4,sp,64
  be:	0000                	unimp
  c0:	0e42                	slli	t3,t3,0x10
  c2:	5430                	lw	a2,104(s0)
  c4:	0896                	slli	a7,a7,0x5
  c6:	0a98                	addi	a4,sp,336
  c8:	0181                	addi	gp,gp,0
  ca:	0288                	addi	a0,sp,320
  cc:	0389                	addi	t2,t2,2
  ce:	0492                	slli	s1,s1,0x4
  d0:	06940593          	addi	a1,s0,105
  d4:	0795                	addi	a5,a5,5
  d6:	5a020997          	auipc	s3,0x5a020
  da:	c10a                	sw	sp,128(sp)
  dc:	c842                	sw	a6,16(sp)
  de:	c942                	sw	a6,144(sp)
  e0:	d342                	sw	a6,164(sp)
  e2:	d442                	sw	a6,40(sp)
  e4:	d542                	sw	a6,168(sp)
  e6:	d642                	sw	a6,44(sp)
  e8:	d742                	sw	a6,172(sp)
  ea:	d842                	sw	a6,48(sp)
  ec:	d244                	sw	s1,36(a2)
  ee:	0e42                	slli	t3,t3,0x10
  f0:	4200                	lw	s0,0(a2)
  f2:	0034000b          	0x34000b
  f6:	0000                	unimp
  f8:	0034                	addi	a3,sp,8
  fa:	0000                	unimp
  fc:	67c8                	flw	fa0,12(a5)
  fe:	0100                	addi	s0,sp,128
 100:	0072                	c.slli	zero,0x1c
 102:	0000                	unimp
 104:	0e42                	slli	t3,t3,0x10
 106:	4e20                	lw	s0,88(a2)
 108:	0288                	addi	a0,sp,320
 10a:	01810593          	addi	a1,sp,24
 10e:	0389                	addi	t2,t2,2
 110:	0492                	slli	s1,s1,0x4
 112:	0694                	addi	a3,sp,832
 114:	0795                	addi	a5,a5,5
 116:	4c02                	lw	s8,0(sp)
 118:	c10a                	sw	sp,128(sp)
 11a:	c842                	sw	a6,16(sp)
 11c:	c942                	sw	a6,144(sp)
 11e:	d342                	sw	a6,164(sp)
 120:	d442                	sw	a6,40(sp)
 122:	d542                	sw	a6,168(sp)
 124:	d244                	sw	s1,36(a2)
 126:	0e42                	slli	t3,t3,0x10
 128:	4200                	lw	s0,0(a2)
 12a:	0030000b          	0x30000b
 12e:	0000                	unimp
 130:	0034                	addi	a3,sp,8
 132:	0000                	unimp
 134:	683a                	flw	fa6,140(sp)
 136:	0100                	addi	s0,sp,128
 138:	0066                	c.slli	zero,0x19
 13a:	0000                	unimp
 13c:	0e42                	slli	t3,t3,0x10
 13e:	4220                	lw	s0,64(a2)
 140:	0288                	addi	a0,sp,320
 142:	944e                	add	s0,s0,s3
 144:	8106                	mv	sp,ra
 146:	8901                	andi	a0,a0,0
 148:	93049203          	lh	tp,-1744(s1) # 3efa <__udivdi3-0x7fc4b2>
 14c:	7c05                	lui	s8,0xfffe1
 14e:	c10a                	sw	sp,128(sp)
 150:	c842                	sw	a6,16(sp)
 152:	d242                	sw	a6,36(sp)
 154:	d342                	sw	a6,164(sp)
 156:	d442                	sw	a6,40(sp)
 158:	c944                	sw	s1,20(a0)
 15a:	0e42                	slli	t3,t3,0x10
 15c:	4200                	lw	s0,0(a2)
 15e:	0020000b          	0x20000b
 162:	0000                	unimp
 164:	0034                	addi	a3,sp,8
 166:	0000                	unimp
 168:	68a0                	flw	fs0,80(s1)
 16a:	0100                	addi	s0,sp,128
 16c:	0042                	c.slli	zero,0x10
 16e:	0000                	unimp
 170:	0e42                	slli	t3,t3,0x10
 172:	4820                	lw	s0,80(s0)
 174:	0181                	addi	gp,gp,0
 176:	0288                	addi	a0,sp,320
 178:	0a6c                	addi	a1,sp,284
 17a:	44c1                	li	s1,16
 17c:	42c8                	lw	a0,4(a3)
 17e:	000e                	c.slli	zero,0x3
 180:	0b42                	slli	s6,s6,0x10
 182:	0000                	unimp
 184:	0024                	addi	s1,sp,8
 186:	0000                	unimp
 188:	0034                	addi	a3,sp,8
 18a:	0000                	unimp
 18c:	68e2                	flw	fa7,24(sp)
 18e:	0100                	addi	s0,sp,128
 190:	0052                	c.slli	zero,0x14
 192:	0000                	unimp
 194:	0e42                	slli	t3,t3,0x10
 196:	4620                	lw	s0,72(a2)
 198:	0181                	addi	gp,gp,0
 19a:	0288                	addi	a0,sp,320
 19c:	0389                	addi	t2,t2,2
 19e:	0a6e                	slli	s4,s4,0x1b
 1a0:	44c1                	li	s1,16
 1a2:	42c8                	lw	a0,4(a3)
 1a4:	42c9                	li	t0,18
 1a6:	000e                	c.slli	zero,0x3
 1a8:	0b42                	slli	s6,s6,0x10
 1aa:	0000                	unimp
 1ac:	0028                	addi	a0,sp,8
 1ae:	0000                	unimp
 1b0:	0034                	addi	a3,sp,8
 1b2:	0000                	unimp
 1b4:	6934                	flw	fa3,80(a0)
 1b6:	0100                	addi	s0,sp,128
 1b8:	00b0                	addi	a2,sp,72
 1ba:	0000                	unimp
 1bc:	0e42                	slli	t3,t3,0x10
 1be:	4870                	lw	a2,84(s0)
 1c0:	0181                	addi	gp,gp,0
 1c2:	0288                	addi	a0,sp,320
 1c4:	0389                	addi	t2,t2,2
 1c6:	0492                	slli	s1,s1,0x4
 1c8:	7a02                	flw	fs4,32(sp)
 1ca:	c10a                	sw	sp,128(sp)
 1cc:	c842                	sw	a6,16(sp)
 1ce:	d242                	sw	a6,36(sp)
 1d0:	c944                	sw	s1,20(a0)
 1d2:	0e42                	slli	t3,t3,0x10
 1d4:	4200                	lw	s0,0(a2)
 1d6:	002c000b          	0x2c000b
 1da:	0000                	unimp
 1dc:	0034                	addi	a3,sp,8
 1de:	0000                	unimp
 1e0:	69e4                	flw	fs1,84(a1)
 1e2:	0100                	addi	s0,sp,128
 1e4:	0062                	c.slli	zero,0x18
 1e6:	0000                	unimp
 1e8:	0e42                	slli	t3,t3,0x10
 1ea:	4220                	lw	s0,64(a2)
 1ec:	0288                	addi	a0,sp,320
 1ee:	8146                	mv	sp,a7
 1f0:	8901                	andi	a0,a0,0
 1f2:	c10a6003          	0xc10a6003
 1f6:	c842                	sw	a6,16(sp)
 1f8:	c942                	sw	a6,144(sp)
 1fa:	0e44                	addi	s1,sp,788
 1fc:	4200                	lw	s0,0(a2)
 1fe:	42c1620b          	0x42c1620b
 202:	46c8                	lw	a0,12(a3)
 204:	42c9                	li	t0,18
 206:	000e                	c.slli	zero,0x3
 208:	000c                	0xc
 20a:	0000                	unimp
 20c:	0034                	addi	a3,sp,8
 20e:	0000                	unimp
 210:	6a46                	flw	fs4,80(sp)
 212:	0100                	addi	s0,sp,128
 214:	001c                	0x1c
 216:	0000                	unimp
 218:	001c                	0x1c
 21a:	0000                	unimp
 21c:	0034                	addi	a3,sp,8
 21e:	0000                	unimp
 220:	6a62                	flw	fs4,24(sp)
 222:	0100                	addi	s0,sp,128
 224:	004c                	addi	a1,sp,4
 226:	0000                	unimp
 228:	0e42                	slli	t3,t3,0x10
 22a:	4210                	lw	a2,0(a2)
 22c:	0181                	addi	gp,gp,0
 22e:	4002                	0x4002
 230:	c10a                	sw	sp,128(sp)
 232:	0e42                	slli	t3,t3,0x10
 234:	4200                	lw	s0,0(a2)
 236:	000c000b          	0xc000b
 23a:	0000                	unimp
 23c:	0034                	addi	a3,sp,8
 23e:	0000                	unimp
 240:	6aae                	flw	fs5,200(sp)
 242:	0100                	addi	s0,sp,128
 244:	001a                	c.slli	zero,0x6
 246:	0000                	unimp
 248:	001c                	0x1c
 24a:	0000                	unimp
 24c:	0034                	addi	a3,sp,8
 24e:	0000                	unimp
 250:	6ac8                	flw	fa0,20(a3)
 252:	0100                	addi	s0,sp,128
 254:	002e                	c.slli	zero,0xb
 256:	0000                	unimp
 258:	0e42                	slli	t3,t3,0x10
 25a:	4810                	lw	a2,16(s0)
 25c:	0288                	addi	a0,sp,320
 25e:	0181                	addi	gp,gp,0
 260:	c152                	sw	s4,128(sp)
 262:	c84e                	sw	s3,16(sp)
 264:	0e42                	slli	t3,t3,0x10
	...

Disassembly of section .debug_str:

00000000 <.debug_str>:
   0:	6576                	flw	fa0,92(sp)
   2:	7372                	flw	ft6,60(sp)
   4:	6f69                	lui	t5,0x1a
   6:	5f6e                	lw	t5,248(sp)
   8:	6e69                	lui	t3,0x1a
   a:	6f66                	flw	ft10,88(sp)
   c:	5f00                	lw	s0,56(a4)
   e:	7a697377          	0x7a697377
  12:	0065                	c.nop	25
  14:	6974                	flw	fa3,84(a0)
  16:	656d                	lui	a0,0x1b
  18:	6d617473          	csrrci	s0,0x6d6,2
  1c:	0070                	addi	a2,sp,12
  1e:	6f64                	flw	fs1,92(a4)
  20:	616d                	addi	sp,sp,240
  22:	6e69                	lui	t3,0x1a
  24:	5a00                	lw	s0,48(a2)
  26:	4c5f 474f 4d5f      	0x4d5f474f4c5f
  2c:	5f324753          	0x5f324753
  30:	4f4d                	li	t5,19
  32:	4544                	lw	s1,12(a0)
  34:	525f 4e55 4954      	0x49544e55525f
  3a:	454d                	li	a0,19
  3c:	5f00                	lw	s0,56(a4)
  3e:	6c6c                	flw	fa1,92(s0)
  40:	625f 6675 3834      	0x38346675625f
  46:	6900                	flw	fs0,16(a0)
  48:	73755f73          	csrrwi	t5,0x737,10
  4c:	7265                	lui	tp,0xffff9
  4e:	635f 6e6f 6574      	0x65746e6f635f
  54:	7478                	flw	fa4,108(s0)
  56:	6400                	flw	fs0,8(s0)
  58:	69616d6f          	jal	s10,166ee <__udivdi3-0x7e9cbe>
  5c:	5f6e                	lw	t5,248(sp)
  5e:	6469                	lui	s0,0x1a
  60:	7300                	flw	fs0,32(a4)
  62:	6f68                	flw	fa0,92(a4)
  64:	7472                	flw	fs0,60(sp)
  66:	6920                	flw	fs0,80(a0)
  68:	746e                	flw	fs0,248(sp)
  6a:	7300                	flw	fs0,32(a4)
  6c:	7a69                	lui	s4,0xffffa
  6e:	5f65                	li	t5,-7
  70:	0074                	addi	a3,sp,12
  72:	6c5f 5f6c 7562      	0x75625f6c6c5f
  78:	3166                	fld	ft2,120(sp)
  7a:	3832                	fld	fa6,296(sp)
  7c:	5f00                	lw	s0,56(a4)
  7e:	6d70                	flw	fa2,92(a0)
  80:	7861                	lui	a6,0xffff8
  82:	2f00                	fld	fs0,24(a4)
  84:	6f68                	flw	fa0,92(a4)
  86:	656d                	lui	a0,0x1b
  88:	6e6f6a2f          	0x6e6f6a2f
  8c:	2e616a67          	0x2e616a67
  90:	2f6f6863          	bltu	t5,s6,380 <__udivdi3-0x80002c>
  94:	2f746947          	fmsub.q	fs2,fs0,fs7,ft5,unknown
  98:	656c                	flw	fa1,76(a0)
  9a:	79636167          	0x79636167
  9e:	6265722f          	0x6265722f
  a2:	6c65                	lui	s8,0x19
  a4:	635f 7364 635f      	0x635f7364635f
  aa:	616c6c6f          	jal	s8,c66c0 <__udivdi3-0x739cec>
  ae:	5f62                	lw	t5,56(sp)
  b0:	7768                	flw	fa0,108(a4)
  b2:	6f6f622f          	0x6f6f622f
  b6:	6c74                	flw	fa3,92(s0)
  b8:	6564616f          	jal	sp,4670e <__udivdi3-0x7b9c9e>
  bc:	2f72                	fld	ft10,280(sp)
  be:	6f72                	flw	ft10,28(sp)
  c0:	2f74                	fld	fa3,216(a4)
  c2:	74726d63          	bltu	tp,t2,81c <__udivdi3-0x7ffb90>
  c6:	7a2d                	lui	s4,0xfffeb
  c8:	7065                	c.lui	zero,0xffff9
  ca:	7968                	flw	fa0,116(a0)
  cc:	2d72                	fld	fs10,280(sp)
  ce:	2e32                	fld	ft8,264(sp)
  d0:	2e30                	fld	fa2,88(a2)
  d2:	732f3633          	0x732f3633
  d6:	6d61                	lui	s10,0x18
  d8:	6c70                	flw	fa2,92(s0)
  da:	7365                	lui	t1,0xffff9
  dc:	726d632f          	0x726d632f
  e0:	2f74                	fld	fa3,216(a4)
  e2:	6570                	flw	fa2,76(a0)
  e4:	7372                	flw	ft6,60(sp)
  e6:	6c622f6f          	jal	t5,227ac <__udivdi3-0x7ddc00>
  ea:	6e61                	lui	t3,0x18
  ec:	72732f6b          	0x72732f6b
  f0:	616d2f63          	0x616d2f63
  f4:	6e69                	lui	t3,0x1a
  f6:	632e                	flw	ft6,200(sp)
  f8:	5f00                	lw	s0,56(a4)
  fa:	6c5f 676f 6c5f      	0x6c5f676f6c5f
 100:	7665                	lui	a2,0xffff9
 102:	6c65                	lui	s8,0x19
 104:	6c00                	flw	fs0,24(s0)
 106:	6d5f676f          	jal	a4,f6fda <__udivdi3-0x7093d2>
 10a:	695f6773          	csrrsi	a4,0x695,30
 10e:	7364                	flw	fs1,100(a4)
 110:	6300                	flw	fs0,0(a4)
 112:	726d                	lui	tp,0xffffb
 114:	5f74                	lw	a3,124(a4)
 116:	5f746573          	csrrsi	a0,0x5f7,8
 11a:	696c                	flw	fa1,84(a0)
 11c:	6566                	flw	fa0,88(sp)
 11e:	6c637963          	bgeu	t1,t1,7f0 <__udivdi3-0x7ffbbc>
 122:	0065                	c.nop	25
 124:	5f737973          	csrrci	s2,0x5f7,6
 128:	74697277          	0x74697277
 12c:	3365                	jal	fffffed4 <_end+0xfeff93d8>
 12e:	0032                	c.slli	zero,0xc
 130:	6176                	flw	ft2,92(sp)
 132:	756c                	flw	fa1,108(a0)
 134:	0065                	c.nop	25
 136:	6f72                	flw	ft10,28(sp)
 138:	735f 7274 635f      	0x635f7274735f
 13e:	746e                	flw	fs0,248(sp)
 140:	7500                	flw	fs0,40(a0)
 142:	6e69                	lui	t3,0x1a
 144:	3874                	fld	fa3,240(s0)
 146:	745f 5f00 6c5f      	0x6c5f5f00745f
 14c:	635f676f          	jal	a4,f6f80 <__udivdi3-0x70942c>
 150:	7275                	lui	tp,0xffffd
 152:	6572                	flw	fa0,28(sp)
 154:	746e                	flw	fs0,248(sp)
 156:	635f 6e6f 7473      	0x74736e6f635f
 15c:	645f 7461 0061      	0x617461645f
 162:	5f5a                	lw	t5,180(sp)
 164:	4f4c                	lw	a1,28(a4)
 166:	534d5f47          	fmsub.d	ft10,fs10,fs4,fa0,unknown
 16a:	4d5f3247          	0x4d5f3247
 16e:	5f45444f          	fnmadd.q	fs0,fa0,fs4,fa1,rmm
 172:	455a                	lw	a0,148(sp)
 174:	4f52                	lw	t5,20(sp)
 176:	435f 504f 0059      	0x59504f435f
 17c:	6975                	lui	s2,0x1d
 17e:	746e                	flw	fs0,248(sp)
 180:	745f3233          	0x745f3233
 184:	5f00                	lw	s0,56(a4)
 186:	6c70                	flw	fa2,92(s0)
 188:	6e65                	lui	t3,0x19
 18a:	6c00                	flw	fs0,24(s0)
 18c:	735f676f          	jal	a4,f70c0 <__udivdi3-0x7092ec>
 190:	6372756f          	jal	a0,27fc6 <__udivdi3-0x7d83e6>
 194:	5f65                	li	t5,-7
 196:	736e6f63          	bltu	t3,s6,8d4 <__udivdi3-0x7ffad8>
 19a:	5f74                	lw	a3,124(a4)
 19c:	6164                	flw	fs1,68(a0)
 19e:	6174                	flw	fa3,68(a0)
 1a0:	5f00                	lw	s0,56(a4)
 1a2:	6b70                	flw	fa2,84(a4)
 1a4:	666f5f67          	0x666f5f67
 1a8:	7366                	flw	ft6,120(sp)
 1aa:	7465                	lui	s0,0xffff9
 1ac:	6c00                	flw	fs0,24(s0)
 1ae:	735f676f          	jal	a4,f70e2 <__udivdi3-0x7092ca>
 1b2:	6372756f          	jal	a0,27fe8 <__udivdi3-0x7d83c4>
 1b6:	5f65                	li	t5,-7
 1b8:	7964                	flw	fs1,116(a0)
 1ba:	616e                	flw	ft2,216(sp)
 1bc:	696d                	lui	s2,0x1b
 1be:	61645f63          	bge	s0,s6,7dc <__udivdi3-0x7ffbd0>
 1c2:	6174                	flw	fa3,68(a0)
 1c4:	5f00                	lw	s0,56(a4)
 1c6:	656c                	flw	fa1,76(a0)
 1c8:	5f6e                	lw	t5,248(sp)
 1ca:	6f6c                	flw	fa1,92(a4)
 1cc:	6f6c0063          	beq	s8,s6,8ac <__udivdi3-0x7ffb00>
 1d0:	676e                	flw	fa4,216(sp)
 1d2:	6c20                	flw	fs0,88(s0)
 1d4:	20676e6f          	jal	t3,763da <__udivdi3-0x789fd2>
 1d8:	6e69                	lui	t3,0x1a
 1da:	0074                	addi	a3,sp,12
 1dc:	6c5f 5f6c 7562      	0x75625f6c6c5f
 1e2:	3666                	fld	fa2,120(sp)
 1e4:	0034                	addi	a3,sp,8
 1e6:	6f6c                	flw	fa1,92(a4)
 1e8:	72615f67          	0x72615f67
 1ec:	00745f67          	0x745f67
 1f0:	5f737973          	csrrci	s2,0x5f7,6
 1f4:	6572                	flw	fa0,28(sp)
 1f6:	6461                	lui	s0,0x18
 1f8:	62003233          	0x62003233
 1fc:	7361                	lui	t1,0xffff8
 1fe:	0065                	c.nop	25
 200:	6461                	lui	s0,0x18
 202:	7264                	flw	fs1,100(a2)
 204:	7a00                	flw	fs0,48(a2)
 206:	635f 7062 6972      	0x69727062635f
 20c:	746e                	flw	fs0,248(sp)
 20e:	5f66                	lw	t5,120(sp)
 210:	6468                	flw	fa0,76(s0)
 212:	0072                	c.slli	zero,0x1c
 214:	72756f73          	csrrsi	t5,0x727,10
 218:	64006563          	bltu	zero,zero,862 <__udivdi3-0x7ffb4a>
 21c:	7461                	lui	s0,0xffff8
 21e:	5f61                	li	t5,-8
 220:	656c                	flw	fa1,76(a0)
 222:	006e                	c.slli	zero,0x1b
 224:	616e                	flw	ft2,216(sp)
 226:	656d                	lui	a0,0x1b
 228:	6c00                	flw	fs0,24(s0)
 22a:	6d5f676f          	jal	a4,f70fe <__udivdi3-0x7092ae>
 22e:	5f326773          	csrrsi	a4,0x5f3,4
 232:	6468                	flw	fa0,76(s0)
 234:	0072                	c.slli	zero,0x1c
 236:	6f6c                	flw	fa1,92(a4)
 238:	676e                	flw	fa4,216(sp)
 23a:	6420                	flw	fs0,72(s0)
 23c:	6c62756f          	jal	a0,27902 <__udivdi3-0x7d8aaa>
 240:	0065                	c.nop	25
 242:	5f5f 6f6c 5f67      	0x5f676f6c5f5f
 248:	72727563          	bgeu	tp,t2,972 <__udivdi3-0x7ffa3a>
 24c:	6e65                	lui	t3,0x19
 24e:	5f74                	lw	a3,124(a4)
 250:	7964                	flw	fs1,116(a0)
 252:	616e                	flw	ft2,216(sp)
 254:	696d                	lui	s2,0x1b
 256:	61645f63          	bge	s0,s6,874 <__udivdi3-0x7ffb38>
 25a:	6174                	flw	fa3,68(a0)
 25c:	7500                	flw	fs0,40(a0)
 25e:	736e                	flw	ft6,248(sp)
 260:	6769                	lui	a4,0x1a
 262:	656e                	flw	fa0,216(sp)
 264:	2064                	fld	fs1,192(s0)
 266:	72616863          	bltu	sp,t1,996 <__udivdi3-0x7ffa16>
 26a:	5f00                	lw	s0,56(a4)
 26c:	75625f73          	csrrwi	t5,0x756,4
 270:	6666                	flw	fa2,88(sp)
 272:	7265                	lui	tp,0xffff9
 274:	6c00                	flw	fs0,24(s0)
 276:	20676e6f          	jal	t3,7647c <__udivdi3-0x789f30>
 27a:	6f6c                	flw	fa1,92(a4)
 27c:	676e                	flw	fa4,216(sp)
 27e:	7520                	flw	fs0,104(a0)
 280:	736e                	flw	ft6,248(sp)
 282:	6769                	lui	a4,0x1a
 284:	656e                	flw	fa0,216(sp)
 286:	2064                	fld	fs1,192(s0)
 288:	6e69                	lui	t3,0x1a
 28a:	0074                	addi	a3,sp,12
 28c:	7974                	flw	fa3,116(a0)
 28e:	6570                	flw	fa2,76(a0)
 290:	5f00                	lw	s0,56(a4)
 292:	646c                	flw	fa1,76(s0)
 294:	625f 6675 3532      	0x35326675625f
 29a:	0036                	c.slli	zero,0xd
 29c:	6975                	lui	s2,0x1d
 29e:	746e                	flw	fs0,248(sp)
 2a0:	3631                	jal	fffffdac <_end+0xfeff92b0>
 2a2:	745f 6c00 676f      	0x676f6c00745f
 2a8:	6d5f 6773 5f32      	0x5f3267736d5f
 2ae:	6564                	flw	fs1,76(a0)
 2b0:	6d006373          	csrrsi	t1,0x6d0,0
 2b4:	6d65                	lui	s10,0x19
 2b6:	615f 6464 5f72      	0x5f726464615f
 2bc:	0074                	addi	a3,sp,12
 2be:	5f637273          	csrrci	tp,0x5f6,6
 2c2:	6469                	lui	s0,0x1a
 2c4:	7300                	flw	fs0,32(a4)
 2c6:	6f68                	flw	fa0,92(a4)
 2c8:	7472                	flw	fs0,60(sp)
 2ca:	7520                	flw	fs0,104(a0)
 2cc:	736e                	flw	ft6,248(sp)
 2ce:	6769                	lui	a4,0x1a
 2d0:	656e                	flw	fa0,216(sp)
 2d2:	2064                	fld	fs1,192(s0)
 2d4:	6e69                	lui	t3,0x1a
 2d6:	0074                	addi	a3,sp,12
 2d8:	425f 6f6f 006c      	0x6c6f6f425f
 2de:	735f 635f 746e      	0x746e635f735f
 2e4:	7a00                	flw	fs0,48(a2)
 2e6:	6c5f 676f 6d5f      	0x6d5f676f6c5f
 2ec:	5f326773          	csrrsi	a4,0x5f3,4
 2f0:	6f6d                	lui	t5,0x1b
 2f2:	6564                	flw	fs1,76(a0)
 2f4:	5f00                	lw	s0,56(a4)
 2f6:	6270                	flw	fa2,68(a2)
 2f8:	6675                	lui	a2,0x1d
 2fa:	5f00                	lw	s0,56(a4)
 2fc:	6b70                	flw	fa2,84(a4)
 2fe:	656c5f67          	0x656c5f67
 302:	006e                	c.slli	zero,0x1b
 304:	6c5f 5f64 7562      	0x75625f646c5f
 30a:	3666                	fld	fa2,120(sp)
 30c:	0034                	addi	a3,sp,8
 30e:	6966                	flw	fs2,88(sp)
 310:	746c                	flw	fa1,108(s0)
 312:	7265                	lui	tp,0xffff9
 314:	682f0073          	0x682f0073
 318:	2f656d6f          	jal	s10,5660e <__udivdi3-0x7a9d9e>
 31c:	6f6a                	flw	ft10,152(sp)
 31e:	676e                	flw	fa4,216(sp)
 320:	616a                	flw	ft2,152(sp)
 322:	632e                	flw	ft6,200(sp)
 324:	6f68                	flw	fa0,92(a4)
 326:	7469472f          	0x7469472f
 32a:	67656c2f          	0x67656c2f
 32e:	6361                	lui	t1,0x18
 330:	2f79                	jal	ace <__udivdi3-0x7ff8de>
 332:	6572                	flw	fa0,28(sp)
 334:	6562                	flw	fa0,24(sp)
 336:	5f6c                	lw	a1,124(a4)
 338:	5f736463          	bltu	t1,s7,920 <__udivdi3-0x7ffa8c>
 33c:	6c6c6f63          	bltu	s8,t1,a1a <__udivdi3-0x7ff992>
 340:	6261                	lui	tp,0x18
 342:	685f 2f77 6f62      	0x6f622f77685f
 348:	6f6c746f          	jal	s0,c7a3e <__udivdi3-0x73896e>
 34c:	6461                	lui	s0,0x18
 34e:	7265                	lui	tp,0xffff9
 350:	746f722f          	0x746f722f
 354:	726d632f          	0x726d632f
 358:	2d74                	fld	fa3,216(a0)
 35a:	657a                	flw	fa0,156(sp)
 35c:	6870                	flw	fa2,84(s0)
 35e:	7279                	lui	tp,0xffffe
 360:	322d                	jal	fffffc8a <_end+0xfeff918e>
 362:	302e                	fld	ft0,232(sp)
 364:	332e                	fld	ft6,232(sp)
 366:	2f36                	fld	ft10,328(sp)
 368:	706d6173          	csrrsi	sp,0x706,26
 36c:	656c                	flw	fa1,76(a0)
 36e:	6d632f73          	csrrs	t5,0x6d6,t1
 372:	7472                	flw	fs0,60(sp)
 374:	7265702f          	0x7265702f
 378:	622f6f73          	csrrsi	t5,0x622,30
 37c:	616c                	flw	fa1,68(a0)
 37e:	6b6e                	flw	fs6,216(sp)
 380:	6975622f          	0x6975622f
 384:	646c                	flw	fa1,76(s0)
 386:	6c00                	flw	fs0,24(s0)
 388:	6d5f676f          	jal	a4,f725c <__udivdi3-0x709150>
 38c:	00326773          	csrrsi	a4,fcsr,4
 390:	5f637273          	csrrci	tp,0x5f6,6
 394:	656c                	flw	fa1,76(a0)
 396:	6576                	flw	fa0,92(sp)
 398:	006c                	addi	a1,sp,12
 39a:	6975                	lui	s2,0x1d
 39c:	746e                	flw	fs0,248(sp)
 39e:	7470                	flw	fa2,108(s0)
 3a0:	5f72                	lw	t5,60(sp)
 3a2:	0074                	addi	a3,sp,12
 3a4:	6d5f 6773 5f00      	0x5f0067736d5f
 3aa:	6c6c                	flw	fa1,92(s0)
 3ac:	625f 6675 3233      	0x32336675625f
 3b2:	5f00                	lw	s0,56(a4)
 3b4:	6c6c                	flw	fa1,92(s0)
 3b6:	625f 6675 3532      	0x35326675625f
 3bc:	0036                	c.slli	zero,0xd
 3be:	5f727473          	csrrci	s0,0x5f7,4
 3c2:	6469                	lui	s0,0x1a
 3c4:	7378                	flw	fa4,100(a4)
 3c6:	5f00                	lw	s0,56(a4)
 3c8:	00637273          	csrrci	tp,0x6,6
 3cc:	6c5f 5f64 7562      	0x75625f646c5f
 3d2:	3466                	fld	fs0,120(sp)
 3d4:	0038                	addi	a4,sp,8
 3d6:	6f6c                	flw	fa1,92(a4)
 3d8:	69745f67          	0x69745f67
 3dc:	656d                	lui	a0,0x1b
 3de:	6d617473          	csrrci	s0,0x6d6,2
 3e2:	5f70                	lw	a2,124(a4)
 3e4:	0074                	addi	a3,sp,12
 3e6:	7562                	flw	fa0,56(sp)
 3e8:	5f007973          	csrrci	s2,0x5f0,0
 3ec:	646c                	flw	fa1,76(s0)
 3ee:	625f 6675 3231      	0x32316675625f
 3f4:	0038                	addi	a4,sp,8
 3f6:	20554e47          	fmsub.s	ft8,fa0,ft5,ft4,rmm
 3fa:	20313143          	fmadd.s	ft2,ft2,ft3,ft4,rup
 3fe:	3031                	jal	fffffc0a <_end+0xfeff910e>
 400:	322e                	fld	ft4,232(sp)
 402:	302e                	fld	ft0,232(sp)
 404:	2d20                	fld	fs0,88(a0)
 406:	616d                	addi	sp,sp,240
 408:	6962                	flw	fs2,24(sp)
 40a:	693d                	lui	s2,0xf
 40c:	706c                	flw	fa1,100(s0)
 40e:	2d203233          	0x2d203233
 412:	616d                	addi	sp,sp,240
 414:	6372                	flw	ft6,28(sp)
 416:	3d68                	fld	fa0,248(a0)
 418:	7672                	flw	fa2,60(sp)
 41a:	6d693233          	0x6d693233
 41e:	6d2d2063          	0x6d2d2063
 422:	7574                	flw	fa3,108(a0)
 424:	656e                	flw	fa0,216(sp)
 426:	723d                	lui	tp,0xfffef
 428:	656b636f          	jal	t1,b6a7e <__udivdi3-0x74992e>
 42c:	2074                	fld	fa3,192(s0)
 42e:	6d2d                	lui	s10,0xb
 430:	7261                	lui	tp,0xffff8
 432:	723d6863          	bltu	s10,gp,b62 <__udivdi3-0x7ff84a>
 436:	3376                	fld	ft6,376(sp)
 438:	6932                	flw	fs2,12(sp)
 43a:	636d                	lui	t1,0x1b
 43c:	2d20                	fld	fs0,88(a0)
 43e:	672d2067          	0x672d2067
 442:	7764                	flw	fs1,108(a4)
 444:	7261                	lui	tp,0xffff8
 446:	2d66                	fld	fs10,88(sp)
 448:	2034                	fld	fa3,64(s0)
 44a:	4f2d                	li	t5,11
 44c:	2032                	fld	ft0,264(sp)
 44e:	732d                	lui	t1,0xfffeb
 450:	6474                	flw	fa3,76(s0)
 452:	633d                	lui	t1,0xf
 454:	3131                	jal	60 <__udivdi3-0x80034c>
 456:	2d20                	fld	fs0,88(a0)
 458:	6666                	flw	fa2,88(sp)
 45a:	6572                	flw	fa0,28(sp)
 45c:	7365                	lui	t1,0xffff9
 45e:	6174                	flw	fa3,68(a0)
 460:	646e                	flw	fs0,216(sp)
 462:	6e69                	lui	t3,0x1a
 464:	662d2067          	0x662d2067
 468:	6f6e                	flw	ft10,216(sp)
 46a:	632d                	lui	t1,0xb
 46c:	6f6d6d6f          	jal	s10,d6b62 <__udivdi3-0x72984a>
 470:	206e                	fld	ft0,216(sp)
 472:	662d                	lui	a2,0xb
 474:	6f6e                	flw	ft10,216(sp)
 476:	612d                	addi	sp,sp,224
 478:	636e7973          	csrrci	s2,0x636,28
 47c:	7268                	flw	fa0,100(a2)
 47e:	756f6e6f          	jal	t3,f6bd4 <__udivdi3-0x7097d8>
 482:	6e752d73          	csrrs	s10,0x6e7,a0
 486:	646e6977          	0x646e6977
 48a:	742d                	lui	s0,0xfffeb
 48c:	6261                	lui	tp,0x18
 48e:	656c                	flw	fa1,76(a0)
 490:	662d2073          	csrs	0x662,s10
 494:	6f6e                	flw	ft10,216(sp)
 496:	702d                	c.lui	zero,0xfffeb
 498:	6369                	lui	t1,0x1a
 49a:	2d20                	fld	fs0,88(a0)
 49c:	6e66                	flw	ft8,88(sp)
 49e:	74732d6f          	jal	s10,333e4 <__udivdi3-0x7ccfc8>
 4a2:	6972                	flw	fs2,28(sp)
 4a4:	6f2d7463          	bgeu	s10,s2,b8c <__udivdi3-0x7ff820>
 4a8:	6576                	flw	fa0,92(sp)
 4aa:	6672                	flw	fa2,28(sp)
 4ac:	6f6c                	flw	fa1,92(a4)
 4ae:	662d2077          	0x662d2077
 4b2:	6f6e                	flw	ft10,216(sp)
 4b4:	722d                	lui	tp,0xfffeb
 4b6:	6f65                	lui	t5,0x19
 4b8:	6472                	flw	fs0,28(sp)
 4ba:	7265                	lui	tp,0xffff9
 4bc:	662d                	lui	a2,0xb
 4be:	6e75                	lui	t3,0x1d
 4c0:	6f697463          	bgeu	s2,s6,ba8 <__udivdi3-0x7ff804>
 4c4:	736e                	flw	ft6,248(sp)
 4c6:	2d20                	fld	fs0,88(a0)
 4c8:	6e66                	flw	ft8,88(sp)
 4ca:	65642d6f          	jal	s10,42b20 <__udivdi3-0x7bd88c>
 4ce:	6566                	flw	fa0,88(sp)
 4d0:	2d72                	fld	fs10,280(sp)
 4d2:	6f70                	flw	fa2,92(a4)
 4d4:	2070                	fld	fa2,192(s0)
 4d6:	662d                	lui	a2,0xb
 4d8:	7566                	flw	fa0,120(sp)
 4da:	636e                	flw	ft6,216(sp)
 4dc:	6974                	flw	fa3,84(a0)
 4de:	732d6e6f          	jal	t3,d6c10 <__udivdi3-0x72979c>
 4e2:	6365                	lui	t1,0x19
 4e4:	6974                	flw	fa3,84(a0)
 4e6:	20736e6f          	jal	t3,36eec <__udivdi3-0x7c94c0>
 4ea:	662d                	lui	a2,0xb
 4ec:	6164                	flw	fs1,68(a0)
 4ee:	6174                	flw	fa3,68(a0)
 4f0:	732d                	lui	t1,0xfffeb
 4f2:	6365                	lui	t1,0x19
 4f4:	6974                	flw	fa3,84(a0)
 4f6:	00736e6f          	jal	t3,36cfc <__udivdi3-0x7c96b0>
 4fa:	745f 746f 6c61      	0x6c61746f745f
 500:	6c5f 6e65 7300      	0x73006e656c5f
 506:	6372756f          	jal	a0,2833c <__udivdi3-0x7d8070>
 50a:	5f65                	li	t5,-7
 50c:	6469                	lui	s0,0x1a
 50e:	5f00                	lw	s0,56(a4)
 510:	7261                	lui	tp,0xffff8
 512:	69735f67          	0x69735f67
 516:	657a                	flw	fa0,156(sp)
 518:	5f00                	lw	s0,56(a4)
 51a:	646c                	flw	fa1,76(s0)
 51c:	625f 6675 3233      	0x32336675625f
 522:	7200                	flw	fs0,32(a2)
 524:	7365                	lui	t1,0xffff9
 526:	7265                	lui	tp,0xffff9
 528:	6576                	flw	fa0,92(sp)
 52a:	0064                	addi	s1,sp,12
 52c:	5f5a                	lw	t5,180(sp)
 52e:	4f4c                	lw	a1,28(a4)
 530:	534d5f47          	fmsub.d	ft10,fs10,fs4,fa0,unknown
 534:	4d5f3247          	0x4d5f3247
 538:	5f45444f          	fnmadd.q	fs0,fa0,fs4,fa1,rmm
 53c:	5246                	lw	tp,112(sp)
 53e:	535f4d4f          	fnmadd.d	fs10,ft10,fs5,fa0,rmm
 542:	4154                	lw	a3,4(a0)
 544:	63004b43          	fmadd.d	fs6,ft0,fa6,fa2,rmm
 548:	726d                	lui	tp,0xffffb
 54a:	5f74                	lw	a3,124(a4)
 54c:	74697277          	0x74697277
 550:	5f65                	li	t5,-7
 552:	6572                	flw	fa0,28(sp)
 554:	6d630067          	jr	1750(t1) # ffff96d6 <_end+0xfeff2bda>
 558:	7472                	flw	fs0,60(sp)
 55a:	725f 6165 5f64      	0x5f646165725f
 560:	6572                	flw	fa0,28(sp)
 562:	5f5a0067          	jr	1525(s4) # fffeb5f5 <_end+0xfefe4af9>
 566:	4f4c                	lw	a1,28(a4)
 568:	534d5f47          	fmsub.d	ft10,fs10,fs4,fa0,unknown
 56c:	4d5f3247          	0x4d5f3247
 570:	5f45444f          	fnmadd.q	fs0,fa0,fs4,fa1,rmm
 574:	434e5953          	0x434e5953
 578:	6300                	flw	fs0,0(a4)
 57a:	726d                	lui	tp,0xffffb
 57c:	5f74                	lw	a3,124(a4)
 57e:	5f746573          	csrrsi	a0,0x5f7,8
 582:	6f62                	flw	ft10,24(sp)
 584:	735f746f          	jal	s0,f84b8 <__udivdi3-0x707ef4>
 588:	6174                	flw	fa3,68(a0)
 58a:	7574                	flw	fa3,108(a0)
 58c:	61700073          	0x61700073
 590:	67616b63          	bltu	sp,s6,c06 <__udivdi3-0x7ff7a6>
 594:	5f65                	li	t5,-7
 596:	656c                	flw	fa1,76(a0)
 598:	006e                	c.slli	zero,0x1b
 59a:	5f7a                	lw	t5,188(sp)
 59c:	72706263          	bltu	zero,t2,cc0 <__udivdi3-0x7ff6ec>
 5a0:	6e69                	lui	t3,0x1a
 5a2:	6674                	flw	fa3,76(a2)
 5a4:	645f 7365 0063      	0x637365645f
 5aa:	74726d63          	bltu	tp,t2,d04 <__udivdi3-0x7ff6a8>
 5ae:	635f 656c 7261      	0x7261656c635f
 5b4:	635f 6e6f 6174      	0x61746e6f635f
 5ba:	6e69                	lui	t3,0x1a
 5bc:	7265                	lui	tp,0xffff9
 5be:	635f 6e6f 6574      	0x65746e6f635f
 5c4:	7478                	flw	fa4,108(s0)
 5c6:	6100                	flw	fs0,0(a0)
 5c8:	72657373          	csrrci	t1,0x726,10
 5cc:	3074                	fld	fa3,224(s0)
 5ce:	6100                	flw	fs0,0(a0)
 5d0:	72657373          	csrrci	t1,0x726,10
 5d4:	3174                	fld	fa3,224(a0)
 5d6:	7a00                	flw	fs0,48(a2)
 5d8:	695f 706d 5f6c      	0x5f6c706d695f
 5de:	74726d63          	bltu	tp,t2,d38 <__udivdi3-0x7ff674>
 5e2:	695f 696e 5f74      	0x5f74696e695f
 5e8:	6d74                	flw	fa3,92(a0)
 5ea:	6f635f63          	bge	t1,s6,ce8 <__udivdi3-0x7ff6c4>
 5ee:	666e                	flw	fa2,216(sp)
 5f0:	6769                	lui	a4,0x1a
 5f2:	6300                	flw	fs0,0(a4)
 5f4:	726d                	lui	tp,0xffffb
 5f6:	5f74                	lw	a3,124(a4)
 5f8:	6d65                	lui	s10,0x19
 5fa:	706f5f63          	bge	t5,t1,d18 <__udivdi3-0x7ff694>
 5fe:	6e65                	lui	t3,0x19
 600:	7a00                	flw	fs0,48(a2)
 602:	695f 706d 5f6c      	0x5f6c706d695f
 608:	74726d63          	bltu	tp,t2,d62 <__udivdi3-0x7ff64a>
 60c:	6f5f 636d 775f      	0x775f636d6f5f
 612:	6972                	flw	fs2,28(sp)
 614:	6574                	flw	fa3,76(a0)
 616:	6300                	flw	fs0,0(a4)
 618:	726d                	lui	tp,0xffffb
 61a:	5f74                	lw	a3,124(a4)
 61c:	5f636d6f          	jal	s10,36c12 <__udivdi3-0x7c979a>
 620:	746e6f63          	bltu	t3,t1,d7e <__udivdi3-0x7ff62e>
 624:	7865                	lui	a6,0xffff9
 626:	0074                	addi	a3,sp,12
 628:	74726d63          	bltu	tp,t2,d82 <__udivdi3-0x7ff62a>
 62c:	6b5f 6364 635f      	0x635f63646b5f
 632:	646d                	lui	s0,0x1b
 634:	745f 7a00 695f      	0x695f7a00745f
 63a:	706d                	c.lui	zero,0xffffb
 63c:	5f6c                	lw	a1,124(a4)
 63e:	75625f6b          	0x75625f6b
 642:	775f7973          	csrrci	s2,0x775,30
 646:	6961                	lui	s2,0x18
 648:	0074                	addi	a3,sp,12
 64a:	74726d63          	bltu	tp,t2,da4 <__udivdi3-0x7ff608>
 64e:	6f5f 7074 655f      	0x655f70746f5f
 654:	735f7773          	csrrci	a4,0x735,30
 658:	6174                	flw	fa3,68(a0)
 65a:	7472                	flw	fs0,60(sp)
 65c:	6300                	flw	fs0,0(a4)
 65e:	726d                	lui	tp,0xffffb
 660:	5f74                	lw	a3,124(a4)
 662:	7369                	lui	t1,0xffffa
 664:	765f 6c61 6469      	0x64696c61765f
 66a:	6400                	flw	fs0,8(s0)
 66c:	7669                	lui	a2,0xffffa
 66e:	7265                	lui	tp,0xffff9
 670:	79666973          	csrrsi	s2,0x796,12
 674:	705f 7461 0068      	0x687461705f
 67a:	7365                	lui	t1,0xffff9
 67c:	666f5f77          	0x666f5f77
 680:	7366                	flw	ft6,120(sp)
 682:	7465                	lui	s0,0xffff9
 684:	6400                	flw	fs0,8(s0)
 686:	7465                	lui	s0,0xffff9
 688:	6e75                	lui	t3,0x1d
 68a:	5f65                	li	t5,-7
 68c:	696c                	flw	fa1,84(a0)
 68e:	696d                	lui	s2,0x1b
 690:	0074                	addi	a3,sp,12
 692:	6964                	flw	fs1,84(a0)
 694:	6576                	flw	fa0,92(sp)
 696:	7372                	flw	ft6,60(sp)
 698:	6669                	lui	a2,0x1a
 69a:	5f79                	li	t5,-2
 69c:	656c                	flw	fa1,76(a0)
 69e:	006e                	c.slli	zero,0x1b
 6a0:	74726d63          	bltu	tp,t2,dfa <__udivdi3-0x7ff5b2>
 6a4:	6b5f 6364 625f      	0x625f63646b5f
 6aa:	7275                	lui	tp,0xffffd
 6ac:	5f6e                	lw	t5,248(sp)
 6ae:	6764                	flw	fs1,76(a4)
 6b0:	63006b6f          	jal	s6,6ce0 <__udivdi3-0x7f96cc>
 6b4:	726d                	lui	tp,0xffffb
 6b6:	5f74                	lw	a3,124(a4)
 6b8:	6d65                	lui	s10,0x19
 6ba:	00745f63          	bge	s0,t2,6d8 <__udivdi3-0x7ffcd4>
 6be:	74726d63          	bltu	tp,t2,e18 <__udivdi3-0x7ff594>
 6c2:	655f 636d 635f      	0x635f636d655f
 6c8:	6f6c                	flw	fa1,92(a4)
 6ca:	73006573          	csrrsi	a0,0x730,0
 6ce:	6369                	lui	t1,0x1a
 6d0:	695f 7172 6d5f      	0x6d5f7172695f
 6d6:	7361                	lui	t1,0xffff8
 6d8:	6d63006b          	0x6d63006b
 6dc:	7472                	flw	fs0,60(sp)
 6de:	645f 6265 6775      	0x67756265645f
 6e4:	6d5f 646f 0065      	0x65646f6d5f
 6ea:	5f7a                	lw	t5,188(sp)
 6ec:	6d69                	lui	s10,0x1a
 6ee:	6c70                	flw	fa2,92(s0)
 6f0:	635f 726d 5f74      	0x5f74726d635f
 6f6:	5f63646b          	0x5f63646b
 6fa:	6e65706f          	j	57de0 <__udivdi3-0x7a85cc>
 6fe:	6300                	flw	fs0,0(a4)
 700:	726d                	lui	tp,0xffffb
 702:	5f74                	lw	a3,124(a4)
 704:	6d65                	lui	s10,0x19
 706:	65725f63          	bge	tp,s7,d64 <__udivdi3-0x7ff648>
 70a:	6461                	lui	s0,0x18
 70c:	7300                	flw	fs0,32(a4)
 70e:	7075                	c.lui	zero,0xffffd
 710:	7265                	lui	tp,0xffff9
 712:	6976                	flw	fs2,92(sp)
 714:	5f726f73          	csrrsi	t5,0x5f7,4
 718:	6569                	lui	a0,0x1a
 71a:	6300                	flw	fs0,0(a4)
 71c:	7274                	flw	fa3,100(a2)
 71e:	006c                	addi	a1,sp,12
 720:	74726d63          	bltu	tp,t2,e7a <__udivdi3-0x7ff532>
 724:	695f 676d 685f      	0x685f676d695f
 72a:	6165                	addi	sp,sp,112
 72c:	6564                	flw	fs1,76(a0)
 72e:	5f72                	lw	t5,60(sp)
 730:	0074                	addi	a3,sp,12
 732:	54524d43          	0x54524d43
 736:	545f 434d 555f      	0x555f434d545f
 73c:	494e                	lw	s2,208(sp)
 73e:	534e                	lw	t1,240(sp)
 740:	4154                	lw	a3,4(a0)
 742:	544e                	lw	s0,240(sp)
 744:	4149                	li	sp,18
 746:	4554                	lw	a3,12(a0)
 748:	7300                	flw	fs0,32(a4)
 74a:	6b64                	flw	fs1,84(a4)
 74c:	765f 7265 6973      	0x69737265765f
 752:	6d006e6f          	jal	t3,6e22 <__udivdi3-0x7f958a>
 756:	6d65                	lui	s10,0x19
 758:	00746573          	csrrsi	a0,0x7,8
 75c:	74726d63          	bltu	tp,t2,eb6 <__udivdi3-0x7ff4f6>
 760:	665f 636d 635f      	0x635f636d665f
 766:	65746e6f          	jal	t3,475bc <__udivdi3-0x7b8df0>
 76a:	7478                	flw	fa4,108(s0)
 76c:	7a00                	flw	fs0,48(a2)
 76e:	695f 706d 5f6c      	0x5f6c706d695f
 774:	74726d63          	bltu	tp,t2,ece <__udivdi3-0x7ff4de>
 778:	635f 5f63 706f      	0x706f5f63635f
 77e:	6e65                	lui	t3,0x19
 780:	4300                	lw	s0,0(a4)
 782:	524d                	li	tp,-13
 784:	5f54                	lw	a3,60(a4)
 786:	4d54                	lw	a3,28(a0)
 788:	45525f43          	0x45525f43
 78c:	44454553          	0x44454553
 790:	475f 4e45 5245      	0x52454e45475f
 796:	5441                	li	s0,-16
 798:	0045                	c.nop	17
 79a:	6c66                	flw	fs8,88(sp)
 79c:	6761                	lui	a4,0x18
 79e:	6d630073          	0x6d630073
 7a2:	7472                	flw	fs0,60(sp)
 7a4:	655f 636d 635f      	0x635f636d655f
 7aa:	65746e6f          	jal	t3,47600 <__udivdi3-0x7b8dac>
 7ae:	7478                	flw	fa4,108(s0)
 7b0:	6300                	flw	fs0,0(a4)
 7b2:	726d                	lui	tp,0xffffb
 7b4:	5f74                	lw	a3,124(a4)
 7b6:	74696177          	0x74696177
 7ba:	635f 6379 656c      	0x656c6379635f
 7c0:	5f7a0073          	0x5f7a0073
 7c4:	6d69                	lui	s10,0x1a
 7c6:	6c70                	flw	fa2,92(s0)
 7c8:	635f 726d 5f74      	0x5f74726d635f
 7ce:	5f636d6f          	jal	s10,36dc4 <__udivdi3-0x7c95e8>
 7d2:	736f6c63          	bltu	t5,s6,f0a <__udivdi3-0x7ff4a2>
 7d6:	0065                	c.nop	25
 7d8:	5f7a                	lw	t5,188(sp)
 7da:	6d69                	lui	s10,0x1a
 7dc:	6c70                	flw	fa2,92(s0)
 7de:	635f 726d 5f74      	0x5f74726d635f
 7e4:	6d66                	flw	fs10,88(sp)
 7e6:	6c635f63          	bge	t1,t1,ec4 <__udivdi3-0x7ff4e8>
 7ea:	0065736f          	jal	t1,577f0 <__udivdi3-0x7a8bbc>
 7ee:	5f7a                	lw	t5,188(sp)
 7f0:	6d69                	lui	s10,0x1a
 7f2:	6c70                	flw	fa2,92(s0)
 7f4:	635f 726d 5f74      	0x5f74726d635f
 7fa:	5f63646b          	0x5f63646b
 7fe:	636e7973          	csrrci	s2,0x636,28
 802:	7a00                	flw	fs0,48(a2)
 804:	695f 706d 5f6c      	0x5f6c706d695f
 80a:	74726d63          	bltu	tp,t2,f64 <__udivdi3-0x7ff448>
 80e:	635f 5f63 7361      	0x73615f63635f
 814:	74726573          	csrrsi	a0,0x747,4
 818:	5f00                	lw	s0,56(a4)
 81a:	755f 6964 6476      	0x64766964755f
 820:	3369                	jal	5aa <__udivdi3-0x7ffe02>
 822:	7200                	flw	fs0,32(a2)
 824:	6665                	lui	a2,0x19
 826:	685f 6769 3268      	0x32686769685f
 82c:	7a00                	flw	fs0,48(a2)
 82e:	695f 706d 5f6c      	0x5f6c706d695f
 834:	74726d63          	bltu	tp,t2,f8e <__udivdi3-0x7ff41e>
 838:	6b5f 6364 635f      	0x635f63646b5f
 83e:	6f6c                	flw	fa1,92(a4)
 840:	63006573          	csrrsi	a0,0x630,0
 844:	726d                	lui	tp,0xffffb
 846:	5f74                	lw	a3,124(a4)
 848:	6168                	flw	fa0,68(a0)
 84a:	646e                	flw	fs0,216(sp)
 84c:	656c                	flw	fa1,76(a0)
 84e:	745f 4300 524d      	0x524d4300745f
 854:	5f54                	lw	a3,60(a4)
 856:	4d54                	lw	a3,28(a0)
 858:	45485f43          	0x45485f43
 85c:	4c41                	li	s8,16
 85e:	4854                	lw	a3,20(s0)
 860:	435f 4548 4b43      	0x4b434548435f
 866:	7a00                	flw	fs0,48(a2)
 868:	695f 706d 5f6c      	0x5f6c706d695f
 86e:	74726d63          	bltu	tp,t2,fc8 <__udivdi3-0x7ff3e4>
 872:	745f 636d 635f      	0x635f636d745f
 878:	6f6c                	flw	fa1,92(a4)
 87a:	7a006573          	csrrsi	a0,tselect,0
 87e:	695f 706d 5f6c      	0x5f6c706d695f
 884:	5f737973          	csrrci	s2,0x5f7,6
 888:	636f6c63          	bltu	t5,s6,ec0 <__udivdi3-0x7ff4ec>
 88c:	77685f6b          	0x77685f6b
 890:	635f 6379 656c      	0x656c6379635f
 896:	65705f73          	csrrwi	t5,0x657,0
 89a:	5f72                	lw	t5,60(sp)
 89c:	5f636573          	csrrsi	a0,0x5f6,6
 8a0:	7572                	flw	fa0,60(sp)
 8a2:	746e                	flw	fs0,248(sp)
 8a4:	6d69                	lui	s10,0x1a
 8a6:	5f65                	li	t5,-7
 8a8:	00746567          	0x746567
 8ac:	5f7a                	lw	t5,188(sp)
 8ae:	6d69                	lui	s10,0x1a
 8b0:	6c70                	flw	fa2,92(s0)
 8b2:	635f 726d 5f74      	0x5f74726d635f
 8b8:	6d66                	flw	fs10,88(sp)
 8ba:	706f5f63          	bge	t5,t1,fd8 <__udivdi3-0x7ff3d4>
 8be:	6e65                	lui	t3,0x19
 8c0:	7300                	flw	fs0,32(a4)
 8c2:	74617263          	bgeu	sp,t1,1006 <__udivdi3-0x7ff3a6>
 8c6:	305f6863          	bltu	t5,t0,bd6 <__udivdi3-0x7ff7d6>
 8ca:	7a00                	flw	fs0,48(a2)
 8cc:	695f 706d 5f6c      	0x5f6c706d695f
 8d2:	74726d63          	bltu	tp,t2,102c <__udivdi3-0x7ff380>
 8d6:	745f 636d 635f      	0x635f636d745f
 8dc:	616d6d6f          	jal	s10,d6ef2 <__udivdi3-0x7294ba>
 8e0:	646e                	flw	fs0,216(sp)
 8e2:	6300                	flw	fs0,0(a4)
 8e4:	726d                	lui	tp,0xffffb
 8e6:	5f74                	lw	a3,124(a4)
 8e8:	5f746567          	0x5f746567
 8ec:	6172                	flw	ft2,28(sp)
 8ee:	646e                	flw	fs0,216(sp)
 8f0:	00766d6f          	jal	s10,670f6 <__udivdi3-0x7992b6>
 8f4:	5f7a                	lw	t5,188(sp)
 8f6:	6d69                	lui	s10,0x1a
 8f8:	6c70                	flw	fa2,92(s0)
 8fa:	635f 726d 5f74      	0x5f74726d635f
 900:	5f636d6f          	jal	s10,36ef6 <__udivdi3-0x7c94b6>
 904:	6e65706f          	j	57fea <__udivdi3-0x7a83c2>
 908:	7a00                	flw	fs0,48(a2)
 90a:	695f 706d 5f6c      	0x5f6c706d695f
 910:	74726d63          	bltu	tp,t2,106a <__udivdi3-0x7ff342>
 914:	705f 7265 5f66      	0x5f667265705f
 91a:	6572                	flw	fa0,28(sp)
 91c:	0066                	c.slli	zero,0x19
 91e:	746e6f63          	bltu	t3,t1,107c <__udivdi3-0x7ff330>
 922:	6f72                	flw	ft10,28(sp)
 924:	006c                	addi	a1,sp,12
 926:	74726d63          	bltu	tp,t2,1080 <__udivdi3-0x7ff32c>
 92a:	635f 5f63 0074      	0x745f63635f
 930:	7562                	flw	fa0,56(sp)
 932:	6c66                	flw	fs8,88(sp)
 934:	6e65                	lui	t3,0x19
 936:	7a00                	flw	fs0,48(a2)
 938:	695f 706d 5f6c      	0x5f6c706d695f
 93e:	74726d63          	bltu	tp,t2,1098 <__udivdi3-0x7ff314>
 942:	675f 7465 655f      	0x655f7465675f
 948:	746e                	flw	fs0,248(sp)
 94a:	6f72                	flw	ft10,28(sp)
 94c:	7970                	flw	fa2,116(a0)
 94e:	6b00                	flw	fs0,16(a4)
 950:	7265                	lui	tp,0xffff9
 952:	656e                	flw	fa0,216(sp)
 954:	5f6c                	lw	a1,124(a4)
 956:	6576                	flw	fa0,92(sp)
 958:	7372                	flw	ft6,60(sp)
 95a:	6f69                	lui	t5,0x1a
 95c:	006e                	c.slli	zero,0x1b
 95e:	74726d63          	bltu	tp,t2,10b8 <__udivdi3-0x7ff2f4>
 962:	615f 7373 7265      	0x72657373615f
 968:	5f74                	lw	a3,124(a4)
 96a:	616e6163          	bltu	t3,s6,f6c <__udivdi3-0x7ff440>
 96e:	7972                	flw	fs2,60(sp)
 970:	6300                	flw	fs0,0(a4)
 972:	726d                	lui	tp,0xffffb
 974:	5f74                	lw	a3,124(a4)
 976:	5f636d6f          	jal	s10,36f6c <__udivdi3-0x7c9440>
 97a:	0074                	addi	a3,sp,12
 97c:	7261                	lui	tp,0xffff8
 97e:	6e5f6863          	bltu	t5,t0,106e <__udivdi3-0x7ff33e>
 982:	6300706f          	j	7fb2 <__udivdi3-0x7f83fa>
 986:	726d                	lui	tp,0xffffb
 988:	5f74                	lw	a3,124(a4)
 98a:	6d74                	flw	fa3,92(a0)
 98c:	6f635f63          	bge	t1,s6,108a <__udivdi3-0x7ff322>
 990:	746e                	flw	fs0,248(sp)
 992:	7865                	lui	a6,0xffff9
 994:	0074                	addi	a3,sp,12
 996:	6d6f682f          	0x6d6f682f
 99a:	2f65                	jal	1152 <__udivdi3-0x7ff25a>
 99c:	6f6a                	flw	ft10,152(sp)
 99e:	676e                	flw	fa4,216(sp)
 9a0:	616a                	flw	ft2,152(sp)
 9a2:	632e                	flw	ft6,200(sp)
 9a4:	6f68                	flw	fa0,92(a4)
 9a6:	7469472f          	0x7469472f
 9aa:	67656c2f          	0x67656c2f
 9ae:	6361                	lui	t1,0x18
 9b0:	2f79                	jal	114e <__udivdi3-0x7ff25e>
 9b2:	6572                	flw	fa0,28(sp)
 9b4:	6562                	flw	fa0,24(sp)
 9b6:	5f6c                	lw	a1,124(a4)
 9b8:	5f736463          	bltu	t1,s7,fa0 <__udivdi3-0x7ff40c>
 9bc:	6c6c6f63          	bltu	s8,t1,109a <__udivdi3-0x7ff312>
 9c0:	6261                	lui	tp,0x18
 9c2:	685f 2f77 6f62      	0x6f622f77685f
 9c8:	6f6c746f          	jal	s0,c80be <__udivdi3-0x7382ee>
 9cc:	6461                	lui	s0,0x18
 9ce:	7265                	lui	tp,0xffff9
 9d0:	746f722f          	0x746f722f
 9d4:	726d632f          	0x726d632f
 9d8:	2d74                	fld	fa3,216(a0)
 9da:	657a                	flw	fa0,156(sp)
 9dc:	6870                	flw	fa2,84(s0)
 9de:	7279                	lui	tp,0xffffe
 9e0:	322d                	jal	30a <__udivdi3-0x8000a2>
 9e2:	302e                	fld	ft0,232(sp)
 9e4:	332e                	fld	ft6,232(sp)
 9e6:	2f36                	fld	ft10,328(sp)
 9e8:	706d6173          	csrrsi	sp,0x706,26
 9ec:	656c                	flw	fa1,76(a0)
 9ee:	6d632f73          	csrrs	t5,0x6d6,t1
 9f2:	7472                	flw	fs0,60(sp)
 9f4:	7265702f          	0x7265702f
 9f8:	622f6f73          	csrrsi	t5,0x622,30
 9fc:	616c                	flw	fa1,68(a0)
 9fe:	6b6e                	flw	fs6,216(sp)
 a00:	6975622f          	0x6975622f
 a04:	646c                	flw	fa1,76(s0)
 a06:	70657a2f          	0x70657a2f
 a0a:	7968                	flw	fa0,116(a0)
 a0c:	2f72                	fld	ft10,280(sp)
 a0e:	7264                	flw	fs1,100(a2)
 a10:	7669                	lui	a2,0xffffa
 a12:	7265                	lui	tp,0xffff9
 a14:	6d632f73          	csrrs	t5,0x6d6,t1
 a18:	7472                	flw	fs0,60(sp)
 a1a:	6300                	flw	fs0,0(a4)
 a1c:	726d                	lui	tp,0xffffb
 a1e:	5f74                	lw	a3,124(a4)
 a20:	5f70746f          	jal	s0,8816 <__udivdi3-0x7f7b96>
 a24:	7061                	c.lui	zero,0xffff8
 a26:	5f70                	lw	a2,124(a4)
 a28:	72617473          	csrrci	s0,0x726,2
 a2c:	0074                	addi	a3,sp,12
 a2e:	5f7a                	lw	t5,188(sp)
 a30:	6d69                	lui	s10,0x1a
 a32:	6c70                	flw	fa2,92(s0)
 a34:	635f 726d 5f74      	0x5f74726d635f
 a3a:	7075                	c.lui	zero,0xffffd
 a3c:	6974                	flw	fa3,84(a0)
 a3e:	656d                	lui	a0,0x1b
 a40:	675f 7465 7a00      	0x7a007465675f
 a46:	695f 706d 5f6c      	0x5f6c706d695f
 a4c:	74726d63          	bltu	tp,t2,11a6 <__udivdi3-0x7ff206>
 a50:	6f5f 636d 735f      	0x735f636d6f5f
 a56:	6e79                	lui	t3,0x1e
 a58:	6d630063          	beq	t1,s6,1118 <__udivdi3-0x7ff294>
 a5c:	7472                	flw	fs0,60(sp)
 a5e:	635f 5f63 6f63      	0x6f635f63635f
 a64:	746e                	flw	fs0,248(sp)
 a66:	7865                	lui	a6,0xffff9
 a68:	0074                	addi	a3,sp,12
 a6a:	5f7a                	lw	t5,188(sp)
 a6c:	636f6c63          	bltu	t5,s6,10a4 <__udivdi3-0x7ff308>
 a70:	77685f6b          	0x77685f6b
 a74:	635f 6379 656c      	0x656c6379635f
 a7a:	65705f73          	csrrwi	t5,0x657,0
 a7e:	5f72                	lw	t5,60(sp)
 a80:	00636573          	csrrsi	a0,0x6,6
 a84:	74726d63          	bltu	tp,t2,11de <__udivdi3-0x7ff1ce>
 a88:	6b5f 6364 745f      	0x745f63646b5f
 a8e:	7a00                	flw	fs0,48(a2)
 a90:	695f 706d 5f6c      	0x5f6c706d695f
 a96:	74726d63          	bltu	tp,t2,11f0 <__udivdi3-0x7ff1bc>
 a9a:	6f5f 636d 725f      	0x725f636d6f5f
 aa0:	6165                	addi	sp,sp,112
 aa2:	0064                	addi	s1,sp,12
 aa4:	656c                	flw	fa1,76(a0)
 aa6:	676e                	flw	fa4,216(sp)
 aa8:	6874                	flw	fa3,84(s0)
 aaa:	6300                	flw	fs0,0(a4)
 aac:	726d                	lui	tp,0xffffb
 aae:	5f74                	lw	a3,124(a4)
 ab0:	7562                	flw	fa0,56(sp)
 ab2:	6e72                	flw	ft8,28(sp)
 ab4:	645f 6f67 006b      	0x6b6f67645f
 aba:	5f7a                	lw	t5,188(sp)
 abc:	6d69                	lui	s10,0x1a
 abe:	6c70                	flw	fa2,92(s0)
 ac0:	635f 726d 5f74      	0x5f74726d635f
 ac6:	6d74                	flw	fa3,92(a0)
 ac8:	706f5f63          	bge	t5,t1,11e6 <__udivdi3-0x7ff1c6>
 acc:	6e65                	lui	t3,0x19
 ace:	6d00                	flw	fs0,24(a0)
 ad0:	7861                	lui	a6,0xffff8
 ad2:	657a6973          	csrrsi	s2,0x657,20
 ad6:	6300                	flw	fs0,0(a4)
 ad8:	616d6d6f          	jal	s10,d70ee <__udivdi3-0x7292be>
 adc:	646e                	flw	fs0,216(sp)
 ade:	0030                	addi	a2,sp,8
 ae0:	6d6d6f63          	bltu	s10,s6,11be <__udivdi3-0x7ff1ee>
 ae4:	6e61                	lui	t3,0x18
 ae6:	3164                	fld	fs1,224(a0)
 ae8:	6300                	flw	fs0,0(a4)
 aea:	726d                	lui	tp,0xffffb
 aec:	5f74                	lw	a3,124(a4)
 aee:	5f746567          	0x5f746567
 af2:	6e65                	lui	t3,0x19
 af4:	7274                	flw	fa3,100(a2)
 af6:	7679706f          	j	98a5c <__udivdi3-0x767950>
 afa:	4300                	lw	s0,0(a4)
 afc:	524d                	li	tp,-13
 afe:	5f54                	lw	a3,60(a4)
 b00:	4d54                	lw	a3,28(a0)
 b02:	45525f43          	0x45525f43
 b06:	44454553          	0x44454553
 b0a:	7a00                	flw	fs0,48(a2)
 b0c:	695f 706d 5f6c      	0x5f6c706d695f
 b12:	74726d63          	bltu	tp,t2,126c <__udivdi3-0x7ff140>
 b16:	635f 5f63 6c63      	0x6c635f63635f
 b1c:	0065736f          	jal	t1,57b22 <__udivdi3-0x7a888a>
 b20:	6564                	flw	fs1,76(a0)
 b22:	63007473          	csrrci	s0,0x630,0
 b26:	726d                	lui	tp,0xffffb
 b28:	5f74                	lw	a3,124(a4)
 b2a:	6d74                	flw	fa3,92(a0)
 b2c:	6e695f63          	bge	s2,t1,122a <__udivdi3-0x7ff182>
 b30:	7469                	lui	s0,0xffffa
 b32:	705f 7261 6d61      	0x6d617261705f
 b38:	00745f73          	csrrwi	t5,0x7,8
 b3c:	61726373          	csrrsi	t1,0x617,4
 b40:	6374                	flw	fa3,68(a4)
 b42:	0068                	addi	a0,sp,12
 b44:	696d                	lui	s2,0x1b
 b46:	7272                	flw	ft4,60(sp)
 b48:	6300726f          	jal	tp,8178 <__udivdi3-0x7f8234>
 b4c:	726d                	lui	tp,0xffffb
 b4e:	5f74                	lw	a3,124(a4)
 b50:	5f63646b          	0x5f63646b
 b54:	746e6f63          	bltu	t3,t1,12b2 <__udivdi3-0x7ff0fa>
 b58:	7865                	lui	a6,0xffff9
 b5a:	0074                	addi	a3,sp,12
 b5c:	616d                	addi	sp,sp,240
 b5e:	6e696863          	bltu	s2,t1,124e <__udivdi3-0x7ff15e>
 b62:	5f65                	li	t5,-7
 b64:	6569                	lui	a0,0x1a
 b66:	7a00                	flw	fs0,48(a2)
 b68:	695f 706d 5f6c      	0x5f6c706d695f
 b6e:	74726d63          	bltu	tp,t2,12c8 <__udivdi3-0x7ff0e4>
 b72:	635f 5f63 7973      	0x79735f63635f
 b78:	636e                	flw	ft6,216(sp)
 b7a:	6200                	flw	fs0,0(a2)
 b7c:	7361                	lui	t1,0xffff8
 b7e:	5f65                	li	t5,-7
 b80:	5f79656b          	0x5f79656b
 b84:	6469                	lui	s0,0x1a
 b86:	7500                	flw	fs0,40(a0)
 b88:	6e69                	lui	t3,0x1a
 b8a:	3674                	fld	fa3,232(a2)
 b8c:	5f34                	lw	a3,120(a4)
 b8e:	0074                	addi	a3,sp,12
 b90:	74726d63          	bltu	tp,t2,12ea <__udivdi3-0x7ff0c2>
 b94:	745f 636d 745f      	0x745f636d745f
 b9a:	2f00                	fld	fs0,24(a4)
 b9c:	6f68                	flw	fa0,92(a4)
 b9e:	656d                	lui	a0,0x1b
 ba0:	6e6f6a2f          	0x6e6f6a2f
 ba4:	2e616a67          	0x2e616a67
 ba8:	2f6f6863          	bltu	t5,s6,e98 <__udivdi3-0x7ff514>
 bac:	2f746947          	fmsub.q	fs2,fs0,fs7,ft5,unknown
 bb0:	656c                	flw	fa1,76(a0)
 bb2:	79636167          	0x79636167
 bb6:	6265722f          	0x6265722f
 bba:	6c65                	lui	s8,0x19
 bbc:	635f 7364 635f      	0x635f7364635f
 bc2:	616c6c6f          	jal	s8,c71d8 <__udivdi3-0x7391d4>
 bc6:	5f62                	lw	t5,56(sp)
 bc8:	7768                	flw	fa0,108(a4)
 bca:	6f6f622f          	0x6f6f622f
 bce:	6c74                	flw	fa3,92(s0)
 bd0:	6564616f          	jal	sp,47226 <__udivdi3-0x7b9186>
 bd4:	2f72                	fld	ft10,280(sp)
 bd6:	6f72                	flw	ft10,28(sp)
 bd8:	2f74                	fld	fa3,216(a4)
 bda:	74726d63          	bltu	tp,t2,1334 <__udivdi3-0x7ff078>
 bde:	7a2d                	lui	s4,0xfffeb
 be0:	7065                	c.lui	zero,0xffff9
 be2:	7968                	flw	fa0,116(a0)
 be4:	2d72                	fld	fs10,280(sp)
 be6:	2e32                	fld	ft8,264(sp)
 be8:	2e30                	fld	fa2,88(a2)
 bea:	642f3633          	0x642f3633
 bee:	6972                	flw	fs2,28(sp)
 bf0:	6576                	flw	fa0,92(sp)
 bf2:	7372                	flw	ft6,60(sp)
 bf4:	726d632f          	0x726d632f
 bf8:	2f74                	fld	fa3,216(a4)
 bfa:	7475                	lui	s0,0xffffd
 bfc:	6c69                	lui	s8,0x1a
 bfe:	632e                	flw	ft6,200(sp)
 c00:	4300                	lw	s0,0(a4)
 c02:	524d                	li	tp,-13
 c04:	5f54                	lw	a3,60(a4)
 c06:	4d54                	lw	a3,28(a0)
 c08:	45475f43          	0x45475f43
 c0c:	454e                	lw	a0,208(sp)
 c0e:	4152                	lw	sp,20(sp)
 c10:	4554                	lw	a3,12(a0)
 c12:	6300                	flw	fs0,0(a4)
 c14:	726d                	lui	tp,0xffffb
 c16:	5f74                	lw	a3,124(a4)
 c18:	6d74                	flw	fa3,92(a0)
 c1a:	6e695f63          	bge	s2,t1,1318 <__udivdi3-0x7ff094>
 c1e:	7469                	lui	s0,0xffffa
 c20:	705f 7261 6d61      	0x6d617261705f
 c26:	69740073          	0x69740073
 c2a:	656d                	lui	a0,0x1b
 c2c:	5f72                	lw	t5,60(sp)
 c2e:	6569                	lui	a0,0x1a
 c30:	7a00                	flw	fs0,48(a2)
 c32:	695f 706d 5f6c      	0x5f6c706d695f
 c38:	74726d63          	bltu	tp,t2,1392 <__udivdi3-0x7ff01a>
 c3c:	675f 7465 725f      	0x725f7465675f
 c42:	6e61                	lui	t3,0x18
 c44:	6f64                	flw	fs1,92(a4)
 c46:	006d                	c.nop	27
 c48:	74726d63          	bltu	tp,t2,13a2 <__udivdi3-0x7ff00a>
 c4c:	695f 5f73 6176      	0x61765f73695f
 c52:	696c                	flw	fa1,84(a0)
 c54:	5f64                	lw	s1,124(a4)
 c56:	6468                	flw	fa0,76(s0)
 c58:	0072                	c.slli	zero,0x1c
 c5a:	5f7a                	lw	t5,188(sp)
 c5c:	6d69                	lui	s10,0x1a
 c5e:	6c70                	flw	fa2,92(s0)
 c60:	635f 726d 5f74      	0x5f74726d635f
 c66:	6d5f6363          	bltu	t5,s5,132c <__udivdi3-0x7ff080>
 c6a:	7869                	lui	a6,0xffffa
 c6c:	4300                	lw	s0,0(a4)
 c6e:	524d                	li	tp,-13
 c70:	5f54                	lw	a3,60(a4)
 c72:	4d54                	lw	a3,28(a0)
 c74:	4e495f43          	fmadd.q	ft10,fs2,ft4,fs1,unknown
 c78:	4e415453          	0x4e415453
 c7c:	4954                	lw	a3,20(a0)
 c7e:	5441                	li	s0,-16
 c80:	0045                	c.nop	17
 c82:	7375                	lui	t1,0xffffd
 c84:	6365                	lui	t1,0x19
 c86:	745f 5f6f 6177      	0x61775f6f745f
 c8c:	7469                	lui	s0,0xffffa
 c8e:	7200                	flw	fs0,32(a2)
 c90:	6665                	lui	a2,0x19
 c92:	6c5f 776f 7a00      	0x7a00776f6c5f
 c98:	695f 706d 5f6c      	0x5f6c706d695f
 c9e:	74726d63          	bltu	tp,t2,13f8 <__udivdi3-0x7fefb4>
 ca2:	665f 636d 735f      	0x735f636d665f
 ca8:	7465                	lui	s0,0xffff9
 caa:	645f 6265 6775      	0x67756265645f
 cb0:	6d5f 646f 0065      	0x65646f6d5f
 cb6:	74737563          	bgeu	t1,t2,1400 <__udivdi3-0x7fefac>
 cba:	725f6d6f          	jal	s10,f7bde <__udivdi3-0x7087ce>
 cbe:	6765                	lui	a4,0x19
 cc0:	7200                	flw	fs0,32(a2)
 cc2:	6665                	lui	a2,0x19
 cc4:	685f 6769 0068      	0x686769685f
 cca:	74726d63          	bltu	tp,t2,1424 <__udivdi3-0x7fef88>
 cce:	745f 636d 635f      	0x635f636d745f
 cd4:	616d6d6f          	jal	s10,d72ea <__udivdi3-0x7290c2>
 cd8:	646e                	flw	fs0,216(sp)
 cda:	655f 6300 726d      	0x726d6300655f
 ce0:	5f74                	lw	a3,124(a4)
 ce2:	6d74                	flw	fa3,92(a0)
 ce4:	6f635f63          	bge	t1,s6,13e2 <__udivdi3-0x7fefca>
 ce8:	6d6d                	lui	s10,0x1b
 cea:	6e61                	lui	t3,0x18
 cec:	5f64                	lw	s1,124(a4)
 cee:	0074                	addi	a3,sp,12
 cf0:	5f737973          	csrrci	s2,0x5f7,6
 cf4:	636f6c63          	bltu	t5,s6,132c <__udivdi3-0x7ff080>
 cf8:	77685f6b          	0x77685f6b
 cfc:	635f 6379 656c      	0x656c6379635f
 d02:	65705f73          	csrrwi	t5,0x657,0
 d06:	5f72                	lw	t5,60(sp)
 d08:	00636573          	csrrsi	a0,0x6,6
 d0c:	656e6567          	0x656e6567
 d10:	6172                	flw	ft2,28(sp)
 d12:	6574                	flw	fa3,76(a0)
 d14:	725f 6e61 6f64      	0x6f646e61725f
 d1a:	006d                	c.nop	27
 d1c:	5f79656b          	0x5f79656b
 d20:	657a6973          	csrrsi	s2,0x657,20
 d24:	6300                	flw	fs0,0(a4)
 d26:	726d                	lui	tp,0xffffb
 d28:	5f74                	lw	a3,124(a4)
 d2a:	6d66                	flw	fs10,88(sp)
 d2c:	00745f63          	bge	s0,t2,d4a <__udivdi3-0x7ff662>

Disassembly of section .debug_loc:

00000000 <.debug_loc>:
       0:	657e                	flw	fa0,220(sp)
       2:	0100                	addi	s0,sp,128
       4:	65a1                	lui	a1,0x8
       6:	0100                	addi	s0,sp,128
       8:	0001                	nop
       a:	005a                	c.slli	zero,0x16
       c:	0000                	unimp
       e:	0000                	unimp
      10:	0000                	unimp
      12:	a400                	fsd	fs0,8(s0)
      14:	0065                	c.nop	25
      16:	ca01                	beqz	a2,26 <__udivdi3-0x800386>
      18:	0065                	c.nop	25
      1a:	0101                	addi	sp,sp,0
      1c:	5900                	lw	s0,48(a0)
      1e:	65ca                	flw	fa1,144(sp)
      20:	0100                	addi	s0,sp,128
      22:	65ce                	flw	fa1,208(sp)
      24:	0100                	addi	s0,sp,128
      26:	0001                	nop
      28:	005a                	c.slli	zero,0x16
      2a:	0000                	unimp
      2c:	0000                	unimp
      2e:	0000                	unimp
      30:	7800                	flw	fs0,48(s0)
      32:	0065                	c.nop	25
      34:	7e01                	lui	t3,0xfffe0
      36:	0065                	c.nop	25
      38:	0401                	addi	s0,s0,0
      3a:	0a00                	addi	s0,sp,272
      3c:	0530                	addi	a2,sp,648
      3e:	009f 0000 0000      	0x9f
      44:	0000                	unimp
      46:	7800                	flw	fs0,48(s0)
      48:	0065                	c.nop	25
      4a:	7e01                	lui	t3,0xfffe0
      4c:	0065                	c.nop	25
      4e:	0401                	addi	s0,s0,0
      50:	0a00                	addi	s0,sp,272
      52:	1000                	addi	s0,sp,32
      54:	009f 0000 0000      	0x9f
      5a:	0000                	unimp
      5c:	7800                	flw	fs0,48(s0)
      5e:	0065                	c.nop	25
      60:	7e01                	lui	t3,0xfffe0
      62:	0065                	c.nop	25
      64:	0401                	addi	s0,s0,0
      66:	0a00                	addi	s0,sp,272
      68:	1530                	addi	a2,sp,680
      6a:	009f 0000 0000      	0x9f
      70:	0000                	unimp
      72:	8c00                	0x8c00
      74:	0065                	c.nop	25
      76:	9a01                	andi	a2,a2,-32
      78:	0065                	c.nop	25
      7a:	0601                	addi	a2,a2,0
      7c:	9e00                	0x9e00
      7e:	ff04                	fsw	fs1,56(a4)
      80:	0100                	addi	s0,sp,128
      82:	00000093          	li	ra,0
      86:	0000                	unimp
      88:	0000                	unimp
      8a:	8c00                	0x8c00
      8c:	0065                	c.nop	25
      8e:	9a01                	andi	a2,a2,-32
      90:	0065                	c.nop	25
      92:	0401                	addi	s0,s0,0
      94:	0a00                	addi	s0,sp,272
      96:	0530                	addi	a2,sp,648
      98:	009f 0000 0000      	0x9f
      9e:	0000                	unimp
      a0:	8c00                	0x8c00
      a2:	0065                	c.nop	25
      a4:	9a01                	andi	a2,a2,-32
      a6:	0065                	c.nop	25
      a8:	0401                	addi	s0,s0,0
      aa:	0a00                	addi	s0,sp,272
      ac:	1000                	addi	s0,sp,32
      ae:	009f 0000 0000      	0x9f
      b4:	0000                	unimp
      b6:	8c00                	0x8c00
      b8:	0065                	c.nop	25
      ba:	9a01                	andi	a2,a2,-32
      bc:	0065                	c.nop	25
      be:	0401                	addi	s0,s0,0
      c0:	0a00                	addi	s0,sp,272
      c2:	1530                	addi	a2,sp,680
      c4:	009f 0000 0000      	0x9f
      ca:	0000                	unimp
      cc:	bc00                	fsd	fs0,56(s0)
      ce:	0065                	c.nop	25
      d0:	c401                	beqz	s0,d8 <__udivdi3-0x8002d4>
      d2:	0065                	c.nop	25
      d4:	0101                	addi	sp,sp,0
      d6:	5800                	lw	s0,48(s0)
	...
      e0:	65bc                	flw	fa5,72(a1)
      e2:	0100                	addi	s0,sp,128
      e4:	65c4                	flw	fs1,12(a1)
      e6:	0100                	addi	s0,sp,128
      e8:	0004                	0x4
      ea:	300a                	fld	ft0,160(sp)
      ec:	9f05                	0x9f05
	...
      f6:	65bc                	flw	fa5,72(a1)
      f8:	0100                	addi	s0,sp,128
      fa:	65c4                	flw	fs1,12(a1)
      fc:	0100                	addi	s0,sp,128
      fe:	0004                	0x4
     100:	000a                	c.slli	zero,0x2
     102:	9f10                	0x9f10
	...
     10c:	65bc                	flw	fa5,72(a1)
     10e:	0100                	addi	s0,sp,128
     110:	65c4                	flw	fs1,12(a1)
     112:	0100                	addi	s0,sp,128
     114:	0004                	0x4
     116:	300a                	fld	ft0,160(sp)
     118:	9f15                	0x9f15
	...
     122:	6aae                	flw	fs5,200(sp)
     124:	0100                	addi	s0,sp,128
     126:	6abc                	flw	fa5,80(a3)
     128:	0100                	addi	s0,sp,128
     12a:	0001                	nop
     12c:	bc5a                	fsd	fs6,56(sp)
     12e:	006a                	c.slli	zero,0x1a
     130:	c801                	beqz	s0,140 <__udivdi3-0x80026c>
     132:	006a                	c.slli	zero,0x1a
     134:	0101                	addi	sp,sp,0
     136:	5a00                	lw	s0,48(a2)
	...
     140:	6ab6                	flw	fs5,76(sp)
     142:	0100                	addi	s0,sp,128
     144:	6abc                	flw	fa5,80(a3)
     146:	0100                	addi	s0,sp,128
     148:	0001                	nop
     14a:	c05f 006a c201      	0xc201006ac05f
     150:	006a                	c.slli	zero,0x1a
     152:	0101                	addi	sp,sp,0
     154:	5f00                	lw	s0,56(a4)
	...
     15e:	6aae                	flw	fs5,200(sp)
     160:	0100                	addi	s0,sp,128
     162:	6ab6                	flw	fs5,76(sp)
     164:	0100                	addi	s0,sp,128
     166:	0004                	0x4
     168:	4c0a                	lw	s8,128(sp)
     16a:	9f01                	0x9f01
	...
     174:	6aae                	flw	fs5,200(sp)
     176:	0100                	addi	s0,sp,128
     178:	6ab6                	flw	fs5,76(sp)
     17a:	0100                	addi	s0,sp,128
     17c:	0004                	0x4
     17e:	3e4d                	jal	fffffd30 <_end+0xfeff9234>
     180:	9f24                	0x9f24
	...
     18a:	6aae                	flw	fs5,200(sp)
     18c:	0100                	addi	s0,sp,128
     18e:	6ab6                	flw	fs5,76(sp)
     190:	0100                	addi	s0,sp,128
     192:	0006                	c.slli	zero,0x1
     194:	4c0c                	lw	a1,24(s0)
     196:	0741                	addi	a4,a4,16
     198:	9f00                	0x9f00
	...
     1a2:	6abc                	flw	fa5,80(a3)
     1a4:	0100                	addi	s0,sp,128
     1a6:	6ac0                	flw	fs0,20(a3)
     1a8:	0100                	addi	s0,sp,128
     1aa:	0004                	0x4
     1ac:	4c0a                	lw	s8,128(sp)
     1ae:	9f01                	0x9f01
	...
     1b8:	6abc                	flw	fa5,80(a3)
     1ba:	0100                	addi	s0,sp,128
     1bc:	6ac0                	flw	fs0,20(a3)
     1be:	0100                	addi	s0,sp,128
     1c0:	0004                	0x4
     1c2:	3e4d                	jal	fffffd74 <_end+0xfeff9278>
     1c4:	9f24                	0x9f24
	...
     1ce:	6abc                	flw	fa5,80(a3)
     1d0:	0100                	addi	s0,sp,128
     1d2:	6ac0                	flw	fs0,20(a3)
     1d4:	0100                	addi	s0,sp,128
     1d6:	0006                	c.slli	zero,0x1
     1d8:	4c0c                	lw	a1,24(s0)
     1da:	0741                	addi	a4,a4,16
     1dc:	9f00                	0x9f00
	...
     1e6:	6a6e                	flw	fs4,216(sp)
     1e8:	0100                	addi	s0,sp,128
     1ea:	6a76                	flw	fs4,92(sp)
     1ec:	0100                	addi	s0,sp,128
     1ee:	0001                	nop
     1f0:	005e                	c.slli	zero,0x17
     1f2:	0000                	unimp
     1f4:	0000                	unimp
     1f6:	0000                	unimp
     1f8:	7200                	flw	fs0,32(a2)
     1fa:	006a                	c.slli	zero,0x1a
     1fc:	9a01                	andi	a2,a2,-32
     1fe:	006a                	c.slli	zero,0x1a
     200:	0101                	addi	sp,sp,0
     202:	5a00                	lw	s0,48(a2)
     204:	6aaa                	flw	fs5,136(sp)
     206:	0100                	addi	s0,sp,128
     208:	6aae                	flw	fs5,200(sp)
     20a:	0100                	addi	s0,sp,128
     20c:	0001                	nop
     20e:	005a                	c.slli	zero,0x16
     210:	0000                	unimp
     212:	0000                	unimp
     214:	0000                	unimp
     216:	7600                	flw	fs0,40(a2)
     218:	006a                	c.slli	zero,0x1a
     21a:	7e01                	lui	t3,0xfffe0
     21c:	006a                	c.slli	zero,0x1a
     21e:	0101                	addi	sp,sp,0
     220:	5b00                	lw	s0,48(a4)
     222:	6aaa                	flw	fs5,136(sp)
     224:	0100                	addi	s0,sp,128
     226:	6aac                	flw	fa1,80(a3)
     228:	0100                	addi	s0,sp,128
     22a:	0001                	nop
     22c:	0000005b          	0x5b
     230:	0000                	unimp
     232:	0000                	unimp
     234:	6600                	flw	fs0,8(a2)
     236:	006a                	c.slli	zero,0x1a
     238:	6e01                	0x6e01
     23a:	006a                	c.slli	zero,0x1a
     23c:	0401                	addi	s0,s0,0
     23e:	0a00                	addi	s0,sp,272
     240:	0150                	addi	a2,sp,132
     242:	009f 0000 0000      	0x9f
     248:	0000                	unimp
     24a:	6600                	flw	fs0,8(a2)
     24c:	006a                	c.slli	zero,0x1a
     24e:	6e01                	0x6e01
     250:	006a                	c.slli	zero,0x1a
     252:	0401                	addi	s0,s0,0
     254:	4d00                	lw	s0,24(a0)
     256:	243e                	fld	fs0,456(sp)
     258:	009f 0000 0000      	0x9f
     25e:	0000                	unimp
     260:	6600                	flw	fs0,8(a2)
     262:	006a                	c.slli	zero,0x1a
     264:	6e01                	0x6e01
     266:	006a                	c.slli	zero,0x1a
     268:	0601                	addi	a2,a2,0
     26a:	0c00                	addi	s0,sp,528
     26c:	4150                	lw	a2,4(a0)
     26e:	009f0007          	0x9f0007
     272:	0000                	unimp
     274:	0000                	unimp
     276:	0000                	unimp
     278:	6e00                	flw	fs0,24(a2)
     27a:	006a                	c.slli	zero,0x1a
     27c:	7201                	lui	tp,0xfffe0
     27e:	006a                	c.slli	zero,0x1a
     280:	0401                	addi	s0,s0,0
     282:	0a00                	addi	s0,sp,272
     284:	014c                	addi	a1,sp,132
     286:	009f 0000 0000      	0x9f
     28c:	0000                	unimp
     28e:	6e00                	flw	fs0,24(a2)
     290:	006a                	c.slli	zero,0x1a
     292:	7201                	lui	tp,0xfffe0
     294:	006a                	c.slli	zero,0x1a
     296:	0401                	addi	s0,s0,0
     298:	4d00                	lw	s0,24(a0)
     29a:	243e                	fld	fs0,456(sp)
     29c:	009f 0000 0000      	0x9f
     2a2:	0000                	unimp
     2a4:	6e00                	flw	fs0,24(a2)
     2a6:	006a                	c.slli	zero,0x1a
     2a8:	7201                	lui	tp,0xfffe0
     2aa:	006a                	c.slli	zero,0x1a
     2ac:	0601                	addi	a2,a2,0
     2ae:	0c00                	addi	s0,sp,528
     2b0:	414c                	lw	a1,4(a0)
     2b2:	009f0007          	0x9f0007
     2b6:	0000                	unimp
     2b8:	0000                	unimp
     2ba:	0000                	unimp
     2bc:	7200                	flw	fs0,32(a2)
     2be:	006a                	c.slli	zero,0x1a
     2c0:	7601                	lui	a2,0xfffe0
     2c2:	006a                	c.slli	zero,0x1a
     2c4:	0401                	addi	s0,s0,0
     2c6:	0a00                	addi	s0,sp,272
     2c8:	0150                	addi	a2,sp,132
     2ca:	009f 0000 0000      	0x9f
     2d0:	0000                	unimp
     2d2:	7200                	flw	fs0,32(a2)
     2d4:	006a                	c.slli	zero,0x1a
     2d6:	7601                	lui	a2,0xfffe0
     2d8:	006a                	c.slli	zero,0x1a
     2da:	0401                	addi	s0,s0,0
     2dc:	4d00                	lw	s0,24(a0)
     2de:	243e                	fld	fs0,456(sp)
     2e0:	009f 0000 0000      	0x9f
     2e6:	0000                	unimp
     2e8:	7200                	flw	fs0,32(a2)
     2ea:	006a                	c.slli	zero,0x1a
     2ec:	7601                	lui	a2,0xfffe0
     2ee:	006a                	c.slli	zero,0x1a
     2f0:	0601                	addi	a2,a2,0
     2f2:	0c00                	addi	s0,sp,528
     2f4:	4150                	lw	a2,4(a0)
     2f6:	009f0007          	0x9f0007
     2fa:	0000                	unimp
     2fc:	0000                	unimp
     2fe:	0000                	unimp
     300:	e400                	fsw	fs0,8(s0)
     302:	0069                	c.nop	26
     304:	f501                	bnez	a0,20c <__udivdi3-0x8001a0>
     306:	0069                	c.nop	26
     308:	0101                	addi	sp,sp,0
     30a:	5a00                	lw	s0,48(a2)
     30c:	69f5                	lui	s3,0x1d
     30e:	0100                	addi	s0,sp,128
     310:	6a10                	flw	fa2,16(a2)
     312:	0100                	addi	s0,sp,128
     314:	0001                	nop
     316:	1058                	addi	a4,sp,36
     318:	006a                	c.slli	zero,0x1a
     31a:	1801                	addi	a6,a6,-32
     31c:	006a                	c.slli	zero,0x1a
     31e:	0401                	addi	s0,s0,0
     320:	f300                	fsw	fs0,32(a4)
     322:	5a01                	li	s4,-32
     324:	189f 006a 3c01      	0x3c01006a189f
     32a:	006a                	c.slli	zero,0x1a
     32c:	0101                	addi	sp,sp,0
     32e:	5800                	lw	s0,48(s0)
     330:	6a3c                	flw	fa5,80(a2)
     332:	0100                	addi	s0,sp,128
     334:	6a46                	flw	fs4,80(sp)
     336:	0100                	addi	s0,sp,128
     338:	0004                	0x4
     33a:	9f5a01f3          	0x9f5a01f3
	...
     346:	69f6                	flw	fs3,92(sp)
     348:	0100                	addi	s0,sp,128
     34a:	6a02                	flw	fs4,0(sp)
     34c:	0100                	addi	s0,sp,128
     34e:	0001                	nop
     350:	025a                	slli	tp,tp,0x16
     352:	006a                	c.slli	zero,0x1a
     354:	0c01                	addi	s8,s8,0
     356:	006a                	c.slli	zero,0x1a
     358:	0101                	addi	sp,sp,0
     35a:	5900                	lw	s0,48(a0)
     35c:	6a18                	flw	fa4,16(a2)
     35e:	0100                	addi	s0,sp,128
     360:	6a40                	flw	fs0,20(a2)
     362:	0100                	addi	s0,sp,128
     364:	0001                	nop
     366:	4059                	c.li	zero,22
     368:	006a                	c.slli	zero,0x1a
     36a:	4601                	li	a2,0
     36c:	006a                	c.slli	zero,0x1a
     36e:	0101                	addi	sp,sp,0
     370:	5a00                	lw	s0,48(a2)
	...
     37a:	6a0a                	flw	fs4,128(sp)
     37c:	0100                	addi	s0,sp,128
     37e:	6a0c                	flw	fa1,16(a2)
     380:	0100                	addi	s0,sp,128
     382:	0001                	nop
     384:	185a                	slli	a6,a6,0x36
     386:	006a                	c.slli	zero,0x1a
     388:	1a01                	addi	s4,s4,-32
     38a:	006a                	c.slli	zero,0x1a
     38c:	0101                	addi	sp,sp,0
     38e:	5a00                	lw	s0,48(a2)
	...
     398:	69f8                	flw	fa4,84(a1)
     39a:	0100                	addi	s0,sp,128
     39c:	6a0a                	flw	fs4,128(sp)
     39e:	0100                	addi	s0,sp,128
     3a0:	0002                	c.slli64	zero
     3a2:	9f38                	0x9f38
	...
     3ac:	69f8                	flw	fa4,84(a1)
     3ae:	0100                	addi	s0,sp,128
     3b0:	6a00                	flw	fs0,16(a2)
     3b2:	0100                	addi	s0,sp,128
     3b4:	68910003          	lb	zero,1673(sp)
     3b8:	009f 006a 0901      	0x901006a009f
     3be:	006a                	c.slli	zero,0x1a
     3c0:	0101                	addi	sp,sp,0
     3c2:	5c00                	lw	s0,56(s0)
     3c4:	6a09                	lui	s4,0x2
     3c6:	0100                	addi	s0,sp,128
     3c8:	6a0a                	flw	fs4,128(sp)
     3ca:	0100                	addi	s0,sp,128
     3cc:	68910003          	lb	zero,1673(sp)
     3d0:	009f 0000 0000      	0x9f
     3d6:	0000                	unimp
     3d8:	f800                	fsw	fs0,48(s0)
     3da:	0069                	c.nop	26
     3dc:	0201                	addi	tp,tp,0
     3de:	006a                	c.slli	zero,0x1a
     3e0:	0101                	addi	sp,sp,0
     3e2:	5a00                	lw	s0,48(a2)
     3e4:	6a02                	flw	fs4,0(sp)
     3e6:	0100                	addi	s0,sp,128
     3e8:	6a0a                	flw	fs4,128(sp)
     3ea:	0100                	addi	s0,sp,128
     3ec:	0001                	nop
     3ee:	0059                	c.nop	22
     3f0:	0000                	unimp
     3f2:	0000                	unimp
     3f4:	0000                	unimp
     3f6:	f800                	fsw	fs0,48(s0)
     3f8:	0069                	c.nop	26
     3fa:	0a01                	addi	s4,s4,0
     3fc:	006a                	c.slli	zero,0x1a
     3fe:	0101                	addi	sp,sp,0
     400:	5800                	lw	s0,48(s0)
	...
     40a:	6a18                	flw	fa4,16(a2)
     40c:	0100                	addi	s0,sp,128
     40e:	6a38                	flw	fa4,80(a2)
     410:	0100                	addi	s0,sp,128
     412:	0004                	0x4
     414:	f40a                	fsw	ft2,40(sp)
     416:	9f3c                	0x9f3c
	...
     420:	6a18                	flw	fa4,16(a2)
     422:	0100                	addi	s0,sp,128
     424:	6a38                	flw	fa4,80(a2)
     426:	0100                	addi	s0,sp,128
     428:	68910003          	lb	zero,1673(sp)
     42c:	009f 0000 0000      	0x9f
     432:	0000                	unimp
     434:	6c00                	flw	fs0,24(s0)
     436:	0069                	c.nop	26
     438:	7201                	lui	tp,0xfffe0
     43a:	0069                	c.nop	26
     43c:	0101                	addi	sp,sp,0
     43e:	5a00                	lw	s0,48(a2)
     440:	6972                	flw	fs2,28(sp)
     442:	0100                	addi	s0,sp,128
     444:	69b6                	flw	fs3,76(sp)
     446:	0100                	addi	s0,sp,128
     448:	0001                	nop
     44a:	c462                	sw	s8,8(sp)
     44c:	0069                	c.nop	26
     44e:	d201                	beqz	a2,34e <__udivdi3-0x80005e>
     450:	0069                	c.nop	26
     452:	0101                	addi	sp,sp,0
     454:	6200                	flw	fs0,0(a2)
     456:	69d2                	flw	fs3,20(sp)
     458:	0100                	addi	s0,sp,128
     45a:	69d6                	flw	fs3,84(sp)
     45c:	0100                	addi	s0,sp,128
     45e:	0001                	nop
     460:	d65a                	sw	s6,44(sp)
     462:	0069                	c.nop	26
     464:	e401                	bnez	s0,46c <__udivdi3-0x7fff40>
     466:	0069                	c.nop	26
     468:	0101                	addi	sp,sp,0
     46a:	6200                	flw	fs0,0(a2)
	...
     474:	697c                	flw	fa5,84(a0)
     476:	0100                	addi	s0,sp,128
     478:	69b6                	flw	fs3,76(sp)
     47a:	0100                	addi	s0,sp,128
     47c:	0001                	nop
     47e:	c458                	sw	a4,12(s0)
     480:	0069                	c.nop	26
     482:	d201                	beqz	a2,382 <__udivdi3-0x80002a>
     484:	0069                	c.nop	26
     486:	0101                	addi	sp,sp,0
     488:	5800                	lw	s0,48(s0)
     48a:	69d6                	flw	fs3,84(sp)
     48c:	0100                	addi	s0,sp,128
     48e:	69e4                	flw	fs1,84(a1)
     490:	0100                	addi	s0,sp,128
     492:	0001                	nop
     494:	0058                	addi	a4,sp,4
     496:	0000                	unimp
     498:	0000                	unimp
     49a:	0000                	unimp
     49c:	a000                	fsd	fs0,0(s0)
     49e:	0069                	c.nop	26
     4a0:	b601                	j	ffffffa0 <_end+0xfeff94a4>
     4a2:	0069                	c.nop	26
     4a4:	0101                	addi	sp,sp,0
     4a6:	5900                	lw	s0,48(a0)
     4a8:	69c4                	flw	fs1,20(a1)
     4aa:	0100                	addi	s0,sp,128
     4ac:	69d2                	flw	fs3,20(sp)
     4ae:	0100                	addi	s0,sp,128
     4b0:	0001                	nop
     4b2:	0059                	c.nop	22
     4b4:	0000                	unimp
     4b6:	0000                	unimp
     4b8:	0000                	unimp
     4ba:	3600                	fld	fs0,40(a2)
     4bc:	0069                	c.nop	26
     4be:	4401                	li	s0,0
     4c0:	0069                	c.nop	26
     4c2:	0401                	addi	s0,s0,0
     4c4:	9100                	0x9100
     4c6:	7f98                	flw	fa4,56(a5)
     4c8:	449f 0069 4b01      	0x4b010069449f
     4ce:	0069                	c.nop	26
     4d0:	0101                	addi	sp,sp,0
     4d2:	5a00                	lw	s0,48(a2)
     4d4:	0100694b          	fnmsub.s	fs2,ft0,fa6,ft0,unknown
     4d8:	695e                	flw	fs2,212(sp)
     4da:	0100                	addi	s0,sp,128
     4dc:	0004                	0x4
     4de:	9891                	andi	s1,s1,-28
     4e0:	9f7f                	0x9f7f
	...
     4ea:	693e                	flw	fs2,204(sp)
     4ec:	0100                	addi	s0,sp,128
     4ee:	6944                	flw	fs1,20(a0)
     4f0:	0100                	addi	s0,sp,128
     4f2:	0004                	0x4
     4f4:	9891                	andi	s1,s1,-28
     4f6:	9f7f                	0x9f7f
     4f8:	6944                	flw	fs1,20(a0)
     4fa:	0100                	addi	s0,sp,128
     4fc:	0100694b          	fnmsub.s	fs2,ft0,fa6,ft0,unknown
     500:	0001                	nop
     502:	4b5a                	lw	s6,148(sp)
     504:	0069                	c.nop	26
     506:	5e01                	li	t3,-32
     508:	0069                	c.nop	26
     50a:	0401                	addi	s0,s0,0
     50c:	9100                	0x9100
     50e:	7f98                	flw	fa4,56(a5)
     510:	009f 0000 0000      	0x9f
     516:	0000                	unimp
     518:	4c00                	lw	s0,24(s0)
     51a:	0069                	c.nop	26
     51c:	5201                	li	tp,-32
     51e:	0069                	c.nop	26
     520:	0401                	addi	s0,s0,0
     522:	0a00                	addi	s0,sp,272
     524:	0228                	addi	a0,sp,264
     526:	009f 0000 0000      	0x9f
     52c:	0000                	unimp
     52e:	4c00                	lw	s0,24(s0)
     530:	0069                	c.nop	26
     532:	5201                	li	tp,-32
     534:	0069                	c.nop	26
     536:	0401                	addi	s0,s0,0
     538:	0a00                	addi	s0,sp,272
     53a:	1000                	addi	s0,sp,32
     53c:	009f 0000 0000      	0x9f
     542:	0000                	unimp
     544:	4c00                	lw	s0,24(s0)
     546:	0069                	c.nop	26
     548:	5201                	li	tp,-32
     54a:	0069                	c.nop	26
     54c:	0401                	addi	s0,s0,0
     54e:	0a00                	addi	s0,sp,272
     550:	1228                	addi	a0,sp,296
     552:	009f 0000 0000      	0x9f
     558:	0000                	unimp
     55a:	5400                	lw	s0,40(s0)
     55c:	0069                	c.nop	26
     55e:	5801                	li	a6,-32
     560:	0069                	c.nop	26
     562:	0401                	addi	s0,s0,0
     564:	0a00                	addi	s0,sp,272
     566:	022c                	addi	a1,sp,264
     568:	009f 0000 0000      	0x9f
     56e:	0000                	unimp
     570:	5400                	lw	s0,40(s0)
     572:	0069                	c.nop	26
     574:	5801                	li	a6,-32
     576:	0069                	c.nop	26
     578:	0401                	addi	s0,s0,0
     57a:	0a00                	addi	s0,sp,272
     57c:	1000                	addi	s0,sp,32
     57e:	009f 0000 0000      	0x9f
     584:	0000                	unimp
     586:	5400                	lw	s0,40(s0)
     588:	0069                	c.nop	26
     58a:	5801                	li	a6,-32
     58c:	0069                	c.nop	26
     58e:	0401                	addi	s0,s0,0
     590:	0a00                	addi	s0,sp,272
     592:	122c                	addi	a1,sp,296
     594:	009f 0000 0000      	0x9f
     59a:	0000                	unimp
     59c:	5e00                	lw	s0,56(a2)
     59e:	0069                	c.nop	26
     5a0:	6401                	0x6401
     5a2:	0069                	c.nop	26
     5a4:	0401                	addi	s0,s0,0
     5a6:	9100                	0x9100
     5a8:	7f98                	flw	fa4,56(a5)
     5aa:	649f 0069 6b01      	0x6b010069649f
     5b0:	0069                	c.nop	26
     5b2:	0101                	addi	sp,sp,0
     5b4:	5b00                	lw	s0,48(a4)
     5b6:	0100696b          	0x100696b
     5ba:	696c                	flw	fa1,84(a0)
     5bc:	0100                	addi	s0,sp,128
     5be:	0004                	0x4
     5c0:	9891                	andi	s1,s1,-28
     5c2:	9f7f                	0x9f7f
	...
     5cc:	695e                	flw	fs2,212(sp)
     5ce:	0100                	addi	s0,sp,128
     5d0:	696c                	flw	fa1,84(a0)
     5d2:	0100                	addi	s0,sp,128
     5d4:	0004                	0x4
     5d6:	3d40                	fld	fs0,184(a0)
     5d8:	9f24                	0x9f24
	...
     5e2:	6970                	flw	fa2,84(a0)
     5e4:	0100                	addi	s0,sp,128
     5e6:	697c                	flw	fa5,84(a0)
     5e8:	0100                	addi	s0,sp,128
     5ea:	0002                	c.slli64	zero
     5ec:	9f30                	0x9f30
	...
     5f6:	69a2                	flw	fs3,8(sp)
     5f8:	0100                	addi	s0,sp,128
     5fa:	69ac                	flw	fa1,80(a1)
     5fc:	0100                	addi	s0,sp,128
     5fe:	0001                	nop
     600:	0058                	addi	a4,sp,4
     602:	0000                	unimp
     604:	0000                	unimp
     606:	0000                	unimp
     608:	ac00                	fsd	fs0,24(s0)
     60a:	0069                	c.nop	26
     60c:	b601                	j	10c <__udivdi3-0x8002a0>
     60e:	0069                	c.nop	26
     610:	0101                	addi	sp,sp,0
     612:	6200                	flw	fs0,0(a2)
	...
     61c:	69c4                	flw	fs1,20(a1)
     61e:	0100                	addi	s0,sp,128
     620:	69d0                	flw	fa2,20(a1)
     622:	0100                	addi	s0,sp,128
     624:	0001                	nop
     626:	0058                	addi	a4,sp,4
     628:	0000                	unimp
     62a:	0000                	unimp
     62c:	0000                	unimp
     62e:	d600                	sw	s0,40(a2)
     630:	0069                	c.nop	26
     632:	e001                	bnez	s0,632 <__udivdi3-0x7ffd7a>
     634:	0069                	c.nop	26
     636:	0101                	addi	sp,sp,0
     638:	6200                	flw	fs0,0(a2)
	...
     642:	68e2                	flw	fa7,24(sp)
     644:	0100                	addi	s0,sp,128
     646:	68ee                	flw	fa7,216(sp)
     648:	0100                	addi	s0,sp,128
     64a:	0001                	nop
     64c:	ee5a                	fsw	fs6,28(sp)
     64e:	0068                	addi	a0,sp,12
     650:	f501                	bnez	a0,558 <__udivdi3-0x7ffe54>
     652:	0068                	addi	a0,sp,12
     654:	0201                	addi	tp,tp,0
     656:	9100                	0x9100
     658:	006c                	addi	a1,sp,12
     65a:	0000                	unimp
     65c:	0000                	unimp
     65e:	0000                	unimp
     660:	f600                	fsw	fs0,40(a2)
     662:	0068                	addi	a0,sp,12
     664:	0701                	addi	a4,a4,0
     666:	0069                	c.nop	26
     668:	0101                	addi	sp,sp,0
     66a:	5a00                	lw	s0,48(a2)
     66c:	01006907          	0x1006907
     670:	6916                	flw	fs2,68(sp)
     672:	0100                	addi	s0,sp,128
     674:	0001                	nop
     676:	2259                	jal	7fc <__udivdi3-0x7ffbb0>
     678:	0069                	c.nop	26
     67a:	3001                	jal	fffffe7a <_end+0xfeff937e>
     67c:	0069                	c.nop	26
     67e:	0101                	addi	sp,sp,0
     680:	5900                	lw	s0,48(a0)
     682:	6930                	flw	fa2,80(a0)
     684:	0100                	addi	s0,sp,128
     686:	6934                	flw	fa3,80(a0)
     688:	0100                	addi	s0,sp,128
     68a:	0001                	nop
     68c:	005a                	c.slli	zero,0x16
     68e:	0000                	unimp
     690:	0000                	unimp
     692:	0000                	unimp
     694:	0a00                	addi	s0,sp,272
     696:	0069                	c.nop	26
     698:	1601                	addi	a2,a2,-32
     69a:	0069                	c.nop	26
     69c:	0101                	addi	sp,sp,0
     69e:	5800                	lw	s0,48(s0)
     6a0:	6922                	flw	fs2,8(sp)
     6a2:	0100                	addi	s0,sp,128
     6a4:	6930                	flw	fa2,80(a0)
     6a6:	0100                	addi	s0,sp,128
     6a8:	0001                	nop
     6aa:	0058                	addi	a4,sp,4
     6ac:	0000                	unimp
     6ae:	0000                	unimp
     6b0:	0000                	unimp
     6b2:	e200                	fsw	fs0,0(a2)
     6b4:	0068                	addi	a0,sp,12
     6b6:	f601                	bnez	a2,5be <__udivdi3-0x7ffdee>
     6b8:	0068                	addi	a0,sp,12
     6ba:	0401                	addi	s0,s0,0
     6bc:	4000                	lw	s0,0(s0)
     6be:	243c                	fld	fa5,72(s0)
     6c0:	009f 0000 0000      	0x9f
     6c6:	0000                	unimp
     6c8:	fa00                	fsw	fs0,48(a2)
     6ca:	0068                	addi	a0,sp,12
     6cc:	0a01                	addi	s4,s4,0
     6ce:	0069                	c.nop	26
     6d0:	0201                	addi	tp,tp,0
     6d2:	3400                	fld	fs0,40(s0)
     6d4:	009f 0000 0000      	0x9f
     6da:	0000                	unimp
     6dc:	fa00                	fsw	fs0,48(a2)
     6de:	0068                	addi	a0,sp,12
     6e0:	fe01                	bnez	a2,5f8 <__udivdi3-0x7ffdb4>
     6e2:	0068                	addi	a0,sp,12
     6e4:	0301                	addi	t1,t1,0
     6e6:	9100                	0x9100
     6e8:	9f6c                	0x9f6c
     6ea:	68fe                	flw	fa7,220(sp)
     6ec:	0100                	addi	s0,sp,128
     6ee:	01006907          	0x1006907
     6f2:	0001                	nop
     6f4:	075c                	addi	a5,sp,900
     6f6:	0069                	c.nop	26
     6f8:	0a01                	addi	s4,s4,0
     6fa:	0069                	c.nop	26
     6fc:	0301                	addi	t1,t1,0
     6fe:	9100                	0x9100
     700:	9f6c                	0x9f6c
	...
     70a:	68fa                	flw	fa7,156(sp)
     70c:	0100                	addi	s0,sp,128
     70e:	690a                	flw	fs2,128(sp)
     710:	0100                	addi	s0,sp,128
     712:	0002                	c.slli64	zero
     714:	9f30                	0x9f30
	...
     71e:	68fa                	flw	fa7,156(sp)
     720:	0100                	addi	s0,sp,128
     722:	01006907          	0x1006907
     726:	0001                	nop
     728:	075a                	slli	a4,a4,0x16
     72a:	0069                	c.nop	26
     72c:	0a01                	addi	s4,s4,0
     72e:	0069                	c.nop	26
     730:	0101                	addi	sp,sp,0
     732:	5900                	lw	s0,48(a0)
	...
     73c:	690c                	flw	fa1,16(a0)
     73e:	0100                	addi	s0,sp,128
     740:	6916                	flw	fs2,68(sp)
     742:	0100                	addi	s0,sp,128
     744:	0001                	nop
     746:	0059                	c.nop	22
     748:	0000                	unimp
     74a:	0000                	unimp
     74c:	0000                	unimp
     74e:	2200                	fld	fs0,0(a2)
     750:	0069                	c.nop	26
     752:	2e01                	jal	a62 <__udivdi3-0x7ff94a>
     754:	0069                	c.nop	26
     756:	0101                	addi	sp,sp,0
     758:	5900                	lw	s0,48(a0)
	...
     762:	68a0                	flw	fs0,80(s1)
     764:	0100                	addi	s0,sp,128
     766:	68a6                	flw	fa7,72(sp)
     768:	0100                	addi	s0,sp,128
     76a:	0001                	nop
     76c:	a65a                	fsd	fs6,264(sp)
     76e:	0068                	addi	a0,sp,12
     770:	b501                	j	570 <__udivdi3-0x7ffe3c>
     772:	0068                	addi	a0,sp,12
     774:	0101                	addi	sp,sp,0
     776:	5f00                	lw	s0,56(a4)
     778:	68b5                	lui	a7,0xd
     77a:	0100                	addi	s0,sp,128
     77c:	68dc                	flw	fa5,20(s1)
     77e:	0100                	addi	s0,sp,128
     780:	0002                	c.slli64	zero
     782:	6c91                	lui	s9,0x4
     784:	68dc                	flw	fa5,20(s1)
     786:	0100                	addi	s0,sp,128
     788:	68de                	flw	fa7,212(sp)
     78a:	0100                	addi	s0,sp,128
     78c:	0002                	c.slli64	zero
     78e:	6c72                	flw	fs8,28(sp)
     790:	68de                	flw	fa7,212(sp)
     792:	0100                	addi	s0,sp,128
     794:	68e2                	flw	fa7,24(sp)
     796:	0100                	addi	s0,sp,128
     798:	0002                	c.slli64	zero
     79a:	6c91                	lui	s9,0x4
	...
     7a4:	68a0                	flw	fs0,80(s1)
     7a6:	0100                	addi	s0,sp,128
     7a8:	68b5                	lui	a7,0xd
     7aa:	0100                	addi	s0,sp,128
     7ac:	0001                	nop
     7ae:	0068b55b          	0x68b55b
     7b2:	dc01                	beqz	s0,6ca <__udivdi3-0x7ffce2>
     7b4:	0068                	addi	a0,sp,12
     7b6:	0201                	addi	tp,tp,0
     7b8:	9100                	0x9100
     7ba:	dc68                	sw	a0,124(s0)
     7bc:	0068                	addi	a0,sp,12
     7be:	de01                	beqz	a2,6d6 <__udivdi3-0x7ffcd6>
     7c0:	0068                	addi	a0,sp,12
     7c2:	0201                	addi	tp,tp,0
     7c4:	7200                	flw	fs0,32(a2)
     7c6:	de68                	sw	a0,124(a2)
     7c8:	0068                	addi	a0,sp,12
     7ca:	e201                	bnez	a2,7ca <__udivdi3-0x7ffbe2>
     7cc:	0068                	addi	a0,sp,12
     7ce:	0201                	addi	tp,tp,0
     7d0:	9100                	0x9100
     7d2:	0068                	addi	a0,sp,12
     7d4:	0000                	unimp
     7d6:	0000                	unimp
     7d8:	0000                	unimp
     7da:	ac00                	fsd	fs0,24(s0)
     7dc:	0068                	addi	a0,sp,12
     7de:	ae01                	j	aee <__udivdi3-0x7ff8be>
     7e0:	0068                	addi	a0,sp,12
     7e2:	0501                	addi	a0,a0,0
     7e4:	5f00                	lw	s0,56(a4)
     7e6:	04930493          	addi	s1,t1,73 # 19049 <__udivdi3-0x7e7363>
     7ea:	68ae                	flw	fa7,200(sp)
     7ec:	0100                	addi	s0,sp,128
     7ee:	68b5                	lui	a7,0xd
     7f0:	0100                	addi	s0,sp,128
     7f2:	0006                	c.slli	zero,0x1
     7f4:	935f 5b04 0493      	0x4935b04935f
     7fa:	68b5                	lui	a7,0xd
     7fc:	0100                	addi	s0,sp,128
     7fe:	68dc                	flw	fa5,20(s1)
     800:	0100                	addi	s0,sp,128
     802:	0008                	0x8
     804:	6c91                	lui	s9,0x4
     806:	68910493          	addi	s1,sp,1673
     80a:	68dc0493          	addi	s1,s8,1677 # 1a68d <__udivdi3-0x7e5d1f>
     80e:	0100                	addi	s0,sp,128
     810:	68de                	flw	fa7,212(sp)
     812:	0100                	addi	s0,sp,128
     814:	0008                	0x8
     816:	6c72                	flw	fs8,28(sp)
     818:	68720493          	addi	s1,tp,1671 # fffe0687 <_end+0xfefd9b8b>
     81c:	68de0493          	addi	s1,t3,1677 # fffe068d <_end+0xfefd9b91>
     820:	0100                	addi	s0,sp,128
     822:	68e2                	flw	fa7,24(sp)
     824:	0100                	addi	s0,sp,128
     826:	0008                	0x8
     828:	6c91                	lui	s9,0x4
     82a:	68910493          	addi	s1,sp,1673
     82e:	00000493          	li	s1,0
     832:	0000                	unimp
     834:	0000                	unimp
     836:	0000                	unimp
     838:	68ae                	flw	fa7,200(sp)
     83a:	0100                	addi	s0,sp,128
     83c:	68d4                	flw	fa3,20(s1)
     83e:	0100                	addi	s0,sp,128
     840:	0002                	c.slli64	zero
     842:	9f31                	0x9f31
     844:	68de                	flw	fa7,212(sp)
     846:	0100                	addi	s0,sp,128
     848:	68e0                	flw	fs0,84(s1)
     84a:	0100                	addi	s0,sp,128
     84c:	0002                	c.slli64	zero
     84e:	9f31                	0x9f31
	...
     858:	68ae                	flw	fa7,200(sp)
     85a:	0100                	addi	s0,sp,128
     85c:	68d4                	flw	fa3,20(s1)
     85e:	0100                	addi	s0,sp,128
     860:	0006                	c.slli	zero,0x1
     862:	24f2                	fld	fs1,280(sp)
     864:	0022                	c.slli	zero,0x8
     866:	0000                	unimp
     868:	68de                	flw	fa7,212(sp)
     86a:	0100                	addi	s0,sp,128
     86c:	68e0                	flw	fs0,84(s1)
     86e:	0100                	addi	s0,sp,128
     870:	0006                	c.slli	zero,0x1
     872:	24f2                	fld	fs1,280(sp)
     874:	0022                	c.slli	zero,0x8
	...
     87e:	0000                	unimp
     880:	68b6                	flw	fa7,76(sp)
     882:	0100                	addi	s0,sp,128
     884:	68c5                	lui	a7,0x11
     886:	0100                	addi	s0,sp,128
     888:	0001                	nop
     88a:	c55a                	sw	s6,136(sp)
     88c:	0068                	addi	a0,sp,12
     88e:	cc01                	beqz	s0,8a6 <__udivdi3-0x7ffb06>
     890:	0068                	addi	a0,sp,12
     892:	0101                	addi	sp,sp,0
     894:	5800                	lw	s0,48(s0)
     896:	68cc                	flw	fa1,20(s1)
     898:	0100                	addi	s0,sp,128
     89a:	010068d3          	fadd.s	fa7,ft0,fa6,unknown
     89e:	0001                	nop
     8a0:	de5a                	sw	s6,60(sp)
     8a2:	0068                	addi	a0,sp,12
     8a4:	e001                	bnez	s0,8a4 <__udivdi3-0x7ffb08>
     8a6:	0068                	addi	a0,sp,12
     8a8:	0101                	addi	sp,sp,0
     8aa:	5a00                	lw	s0,48(a2)
	...
     8b4:	68be                	flw	fa7,204(sp)
     8b6:	0100                	addi	s0,sp,128
     8b8:	68cc                	flw	fa1,20(s1)
     8ba:	0100                	addi	s0,sp,128
     8bc:	0002                	c.slli64	zero
     8be:	9f30                	0x9f30
     8c0:	68cc                	flw	fa1,20(s1)
     8c2:	0100                	addi	s0,sp,128
     8c4:	68d4                	flw	fa3,20(s1)
     8c6:	0100                	addi	s0,sp,128
     8c8:	0001                	nop
     8ca:	0058                	addi	a4,sp,4
     8cc:	0000                	unimp
     8ce:	0000                	unimp
     8d0:	0000                	unimp
     8d2:	be00                	fsd	fs0,56(a2)
     8d4:	0068                	addi	a0,sp,12
     8d6:	d401                	beqz	s0,7de <__udivdi3-0x7ffbce>
     8d8:	0068                	addi	a0,sp,12
     8da:	0201                	addi	tp,tp,0
     8dc:	3000                	fld	fs0,32(s0)
     8de:	009f 0000 0000      	0x9f
     8e4:	0000                	unimp
     8e6:	c800                	sw	s0,16(s0)
     8e8:	e0010067          	jr	-512(sp)
     8ec:	01010067          	jr	16(sp)
     8f0:	5a00                	lw	s0,48(a2)
     8f2:	67e0                	flw	fs0,76(a5)
     8f4:	0100                	addi	s0,sp,128
     8f6:	67f2                	flw	fa5,28(sp)
     8f8:	0100                	addi	s0,sp,128
     8fa:	0001                	nop
     8fc:	0067f263          	bgeu	a5,t1,900 <__udivdi3-0x7ffaac>
     900:	3601                	jal	400 <__udivdi3-0x7fffac>
     902:	0068                	addi	a0,sp,12
     904:	0401                	addi	s0,s0,0
     906:	f300                	fsw	fs0,32(a4)
     908:	5a01                	li	s4,-32
     90a:	369f 0068 3a01      	0x3a010068369f
     910:	0068                	addi	a0,sp,12
     912:	0101                	addi	sp,sp,0
     914:	6300                	flw	fs0,0(a4)
	...
     91e:	67c8                	flw	fa0,12(a5)
     920:	0100                	addi	s0,sp,128
     922:	67de                	flw	fa5,212(sp)
     924:	0100                	addi	s0,sp,128
     926:	0001                	nop
     928:	0067de5b          	0x67de5b
     92c:	f201                	bnez	a2,82c <__udivdi3-0x7ffb80>
     92e:	01010067          	jr	16(sp)
     932:	5800                	lw	s0,48(s0)
     934:	67f2                	flw	fa5,28(sp)
     936:	0100                	addi	s0,sp,128
     938:	6836                	flw	fa6,76(sp)
     93a:	0100                	addi	s0,sp,128
     93c:	0004                	0x4
     93e:	9f5b01f3          	0x9f5b01f3
     942:	6836                	flw	fa6,76(sp)
     944:	0100                	addi	s0,sp,128
     946:	683a                	flw	fa6,140(sp)
     948:	0100                	addi	s0,sp,128
     94a:	0001                	nop
     94c:	0058                	addi	a4,sp,4
     94e:	0000                	unimp
     950:	0000                	unimp
     952:	0000                	unimp
     954:	da00                	sw	s0,48(a2)
     956:	dc010067          	jr	-576(sp)
     95a:	05010067          	jr	80(sp)
     95e:	5a00                	lw	s0,48(a2)
     960:	04930493          	addi	s1,t1,73
     964:	67dc                	flw	fa5,12(a5)
     966:	0100                	addi	s0,sp,128
     968:	67de                	flw	fa5,212(sp)
     96a:	0100                	addi	s0,sp,128
     96c:	0006                	c.slli	zero,0x1
     96e:	935a                	add	t1,t1,s6
     970:	5b04                	lw	s1,48(a4)
     972:	67de0493          	addi	s1,t3,1661
     976:	0100                	addi	s0,sp,128
     978:	67e0                	flw	fs0,76(a5)
     97a:	0100                	addi	s0,sp,128
     97c:	0006                	c.slli	zero,0x1
     97e:	935a                	add	t1,t1,s6
     980:	5804                	lw	s1,48(s0)
     982:	67e00493          	li	s1,1662
     986:	0100                	addi	s0,sp,128
     988:	67f2                	flw	fa5,28(sp)
     98a:	0100                	addi	s0,sp,128
     98c:	0006                	c.slli	zero,0x1
     98e:	58049363          	bnez	s1,f14 <__udivdi3-0x7ff498>
     992:	67f20493          	addi	s1,tp,1663 # 67f <__udivdi3-0x7ffd2d>
     996:	0100                	addi	s0,sp,128
     998:	6836                	flw	fa6,76(sp)
     99a:	0100                	addi	s0,sp,128
     99c:	000c                	0xc
     99e:	9f5a01f3          	0x9f5a01f3
     9a2:	01f30493          	addi	s1,t1,31
     9a6:	04939f5b          	0x4939f5b
     9aa:	6836                	flw	fa6,76(sp)
     9ac:	0100                	addi	s0,sp,128
     9ae:	683a                	flw	fa6,140(sp)
     9b0:	0100                	addi	s0,sp,128
     9b2:	0006                	c.slli	zero,0x1
     9b4:	58049363          	bnez	s1,f3a <__udivdi3-0x7ff472>
     9b8:	00000493          	li	s1,0
     9bc:	0000                	unimp
     9be:	0000                	unimp
     9c0:	0000                	unimp
     9c2:	67dc                	flw	fa5,12(a5)
     9c4:	0100                	addi	s0,sp,128
     9c6:	6822                	flw	fa6,8(sp)
     9c8:	0100                	addi	s0,sp,128
     9ca:	0002                	c.slli64	zero
     9cc:	9f31                	0x9f31
     9ce:	6836                	flw	fa6,76(sp)
     9d0:	0100                	addi	s0,sp,128
     9d2:	6838                	flw	fa4,80(s0)
     9d4:	0100                	addi	s0,sp,128
     9d6:	0002                	c.slli64	zero
     9d8:	9f31                	0x9f31
	...
     9e2:	67dc                	flw	fa5,12(a5)
     9e4:	0100                	addi	s0,sp,128
     9e6:	6822                	flw	fa6,8(sp)
     9e8:	0100                	addi	s0,sp,128
     9ea:	0006                	c.slli	zero,0x1
     9ec:	5af2                	lw	s5,60(sp)
     9ee:	00000023          	sb	zero,0(zero) # 0 <__udivdi3-0x8003ac>
     9f2:	6836                	flw	fa6,76(sp)
     9f4:	0100                	addi	s0,sp,128
     9f6:	6838                	flw	fa4,80(s0)
     9f8:	0100                	addi	s0,sp,128
     9fa:	0006                	c.slli	zero,0x1
     9fc:	5af2                	lw	s5,60(sp)
     9fe:	00000023          	sb	zero,0(zero) # 0 <__udivdi3-0x8003ac>
	...
     a0a:	67e8                	flw	fa0,76(a5)
     a0c:	0100                	addi	s0,sp,128
     a0e:	67f2                	flw	fa5,28(sp)
     a10:	0100                	addi	s0,sp,128
     a12:	0001                	nop
     a14:	f25a                	fsw	fs6,36(sp)
     a16:	22010067          	jr	544(sp)
     a1a:	0068                	addi	a0,sp,12
     a1c:	0101                	addi	sp,sp,0
     a1e:	6400                	flw	fs0,8(s0)
     a20:	6836                	flw	fa6,76(sp)
     a22:	0100                	addi	s0,sp,128
     a24:	683a                	flw	fa6,140(sp)
     a26:	0100                	addi	s0,sp,128
     a28:	0001                	nop
     a2a:	005a                	c.slli	zero,0x16
     a2c:	0000                	unimp
     a2e:	0000                	unimp
     a30:	0000                	unimp
     a32:	ec00                	fsw	fs0,24(s0)
     a34:	18010067          	jr	384(sp)
     a38:	0068                	addi	a0,sp,12
     a3a:	0201                	addi	tp,tp,0
     a3c:	3000                	fld	fs0,32(s0)
     a3e:	189f 0068 2201      	0x22010068189f
     a44:	0068                	addi	a0,sp,12
     a46:	0101                	addi	sp,sp,0
     a48:	6200                	flw	fs0,0(a2)
	...
     a52:	67dc                	flw	fa5,12(a5)
     a54:	0100                	addi	s0,sp,128
     a56:	67e8                	flw	fa0,76(a5)
     a58:	0100                	addi	s0,sp,128
     a5a:	0002                	c.slli64	zero
     a5c:	9f30                	0x9f30
	...
     a66:	67dc                	flw	fa5,12(a5)
     a68:	0100                	addi	s0,sp,128
     a6a:	67e8                	flw	fa0,76(a5)
     a6c:	0100                	addi	s0,sp,128
     a6e:	0002                	c.slli64	zero
     a70:	9f31                	0x9f31
	...
     a7a:	67ec                	flw	fa1,76(a5)
     a7c:	0100                	addi	s0,sp,128
     a7e:	6818                	flw	fa4,16(s0)
     a80:	0100                	addi	s0,sp,128
     a82:	0002                	c.slli64	zero
     a84:	9f30                	0x9f30
	...
     a8e:	67ec                	flw	fa1,76(a5)
     a90:	0100                	addi	s0,sp,128
     a92:	6810                	flw	fa2,16(s0)
     a94:	0100                	addi	s0,sp,128
     a96:	0001                	nop
     a98:	1458                	addi	a4,sp,548
     a9a:	0068                	addi	a0,sp,12
     a9c:	1801                	addi	a6,a6,-32
     a9e:	0068                	addi	a0,sp,12
     aa0:	0101                	addi	sp,sp,0
     aa2:	5800                	lw	s0,48(s0)
	...
     aac:	67ec                	flw	fa1,76(a5)
     aae:	0100                	addi	s0,sp,128
     ab0:	6818                	flw	fa4,16(s0)
     ab2:	0100                	addi	s0,sp,128
     ab4:	0001                	nop
     ab6:	00000063          	beqz	zero,ab6 <__udivdi3-0x7ff8f6>
     aba:	0000                	unimp
     abc:	0000                	unimp
     abe:	ec00                	fsw	fs0,24(s0)
     ac0:	f2010067          	jr	-224(sp)
     ac4:	01010067          	jr	16(sp)
     ac8:	5a00                	lw	s0,48(a2)
     aca:	67f2                	flw	fa5,28(sp)
     acc:	0100                	addi	s0,sp,128
     ace:	6818                	flw	fa4,16(s0)
     ad0:	0100                	addi	s0,sp,128
     ad2:	0001                	nop
     ad4:	0064                	addi	s1,sp,12
     ad6:	0000                	unimp
     ad8:	0000                	unimp
     ada:	0000                	unimp
     adc:	fc00                	fsw	fs0,56(s0)
     ade:	16010067          	jr	352(sp)
     ae2:	0068                	addi	a0,sp,12
     ae4:	0101                	addi	sp,sp,0
     ae6:	5900                	lw	s0,48(a0)
	...
     af0:	680e                	flw	fa6,192(sp)
     af2:	0100                	addi	s0,sp,128
     af4:	6816                	flw	fa6,68(sp)
     af6:	0100                	addi	s0,sp,128
     af8:	0001                	nop
     afa:	005a                	c.slli	zero,0x16
     afc:	0000                	unimp
     afe:	0000                	unimp
     b00:	0000                	unimp
     b02:	fc00                	fsw	fs0,56(s0)
     b04:	0e010067          	jr	224(sp)
     b08:	0068                	addi	a0,sp,12
     b0a:	0101                	addi	sp,sp,0
     b0c:	5900                	lw	s0,48(a0)
	...
     b16:	67fc                	flw	fa5,76(a5)
     b18:	0100                	addi	s0,sp,128
     b1a:	680e                	flw	fa6,192(sp)
     b1c:	0100                	addi	s0,sp,128
     b1e:	0001                	nop
     b20:	00000063          	beqz	zero,b20 <__udivdi3-0x7ff88c>
     b24:	0000                	unimp
     b26:	0000                	unimp
     b28:	fc00                	fsw	fs0,56(s0)
     b2a:	0e010067          	jr	224(sp)
     b2e:	0068                	addi	a0,sp,12
     b30:	0201                	addi	tp,tp,0
     b32:	3100                	fld	fs0,32(a0)
     b34:	009f 0000 0000      	0x9f
     b3a:	0000                	unimp
     b3c:	fc00                	fsw	fs0,56(s0)
     b3e:	0e010067          	jr	224(sp)
     b42:	0068                	addi	a0,sp,12
     b44:	0101                	addi	sp,sp,0
     b46:	6400                	flw	fs0,8(s0)
	...
     b50:	6818                	flw	fa4,16(s0)
     b52:	0100                	addi	s0,sp,128
     b54:	6822                	flw	fa6,8(sp)
     b56:	0100                	addi	s0,sp,128
     b58:	0001                	nop
     b5a:	0064                	addi	s1,sp,12
     b5c:	0000                	unimp
     b5e:	0000                	unimp
     b60:	0000                	unimp
     b62:	ce00                	sw	s0,24(a2)
     b64:	0066                	c.slli	zero,0x19
     b66:	e101                	bnez	a0,b66 <__udivdi3-0x7ff846>
     b68:	0066                	c.slli	zero,0x19
     b6a:	0101                	addi	sp,sp,0
     b6c:	5a00                	lw	s0,48(a2)
     b6e:	66e1                	lui	a3,0x18
     b70:	0100                	addi	s0,sp,128
     b72:	6722                	flw	fa4,8(sp)
     b74:	0100                	addi	s0,sp,128
     b76:	0001                	nop
     b78:	2258                	fld	fa4,128(a2)
     b7a:	2c010067          	jr	704(sp)
     b7e:	04010067          	jr	64(sp)
     b82:	f300                	fsw	fs0,32(a4)
     b84:	5a01                	li	s4,-32
     b86:	2c9f 0067 3001      	0x300100672c9f
     b8c:	01010067          	jr	16(sp)
     b90:	5800                	lw	s0,48(s0)
	...
     b9a:	66e2                	flw	fa3,24(sp)
     b9c:	0100                	addi	s0,sp,128
     b9e:	66ed                	lui	a3,0x1b
     ba0:	0100                	addi	s0,sp,128
     ba2:	0001                	nop
     ba4:	ed5a                	fsw	fs6,152(sp)
     ba6:	0066                	c.slli	zero,0x19
     ba8:	1e01                	addi	t3,t3,-32
     baa:	01010067          	jr	16(sp)
     bae:	5900                	lw	s0,48(a0)
     bb0:	672c                	flw	fa1,72(a4)
     bb2:	0100                	addi	s0,sp,128
     bb4:	6730                	flw	fa2,72(a4)
     bb6:	0100                	addi	s0,sp,128
     bb8:	0001                	nop
     bba:	005a                	c.slli	zero,0x16
     bbc:	0000                	unimp
     bbe:	0000                	unimp
     bc0:	0000                	unimp
     bc2:	f000                	fsw	fs0,32(s0)
     bc4:	0066                	c.slli	zero,0x19
     bc6:	f201                	bnez	a2,ac6 <__udivdi3-0x7ff8e6>
     bc8:	0066                	c.slli	zero,0x19
     bca:	0101                	addi	sp,sp,0
     bcc:	5a00                	lw	s0,48(a2)
     bce:	66f2                	flw	fa3,28(sp)
     bd0:	0100                	addi	s0,sp,128
     bd2:	671e                	flw	fa4,196(sp)
     bd4:	0100                	addi	s0,sp,128
     bd6:	0001                	nop
     bd8:	0062                	c.slli	zero,0x18
     bda:	0000                	unimp
     bdc:	0000                	unimp
     bde:	0000                	unimp
     be0:	e600                	fsw	fs0,8(a2)
     be2:	0066                	c.slli	zero,0x19
     be4:	ed01                	bnez	a0,bfc <__udivdi3-0x7ff7b0>
     be6:	0066                	c.slli	zero,0x19
     be8:	0101                	addi	sp,sp,0
     bea:	5a00                	lw	s0,48(a2)
     bec:	66ed                	lui	a3,0x1b
     bee:	0100                	addi	s0,sp,128
     bf0:	66f0                	flw	fa2,76(a3)
     bf2:	0100                	addi	s0,sp,128
     bf4:	0001                	nop
     bf6:	0059                	c.nop	22
     bf8:	0000                	unimp
     bfa:	0000                	unimp
     bfc:	0000                	unimp
     bfe:	f000                	fsw	fs0,32(s0)
     c00:	0066                	c.slli	zero,0x19
     c02:	fa01                	bnez	a2,b12 <__udivdi3-0x7ff89a>
     c04:	0066                	c.slli	zero,0x19
     c06:	0101                	addi	sp,sp,0
     c08:	5900                	lw	s0,48(a0)
	...
     c12:	6700                	flw	fs0,8(a4)
     c14:	0100                	addi	s0,sp,128
     c16:	6706                	flw	fa4,64(sp)
     c18:	0100                	addi	s0,sp,128
     c1a:	0004                	0x4
     c1c:	300a                	fld	ft0,160(sp)
     c1e:	9f05                	0x9f05
     c20:	6714                	flw	fa3,8(a4)
     c22:	0100                	addi	s0,sp,128
     c24:	671a                	flw	fa4,132(sp)
     c26:	0100                	addi	s0,sp,128
     c28:	0004                	0x4
     c2a:	300a                	fld	ft0,160(sp)
     c2c:	9f05                	0x9f05
	...
     c36:	6700                	flw	fs0,8(a4)
     c38:	0100                	addi	s0,sp,128
     c3a:	6706                	flw	fa4,64(sp)
     c3c:	0100                	addi	s0,sp,128
     c3e:	0004                	0x4
     c40:	000a                	c.slli	zero,0x2
     c42:	9f10                	0x9f10
     c44:	6714                	flw	fa3,8(a4)
     c46:	0100                	addi	s0,sp,128
     c48:	671a                	flw	fa4,132(sp)
     c4a:	0100                	addi	s0,sp,128
     c4c:	0004                	0x4
     c4e:	000a                	c.slli	zero,0x2
     c50:	9f10                	0x9f10
	...
     c5a:	6700                	flw	fs0,8(a4)
     c5c:	0100                	addi	s0,sp,128
     c5e:	6706                	flw	fa4,64(sp)
     c60:	0100                	addi	s0,sp,128
     c62:	0004                	0x4
     c64:	300a                	fld	ft0,160(sp)
     c66:	9f15                	0x9f15
     c68:	6714                	flw	fa3,8(a4)
     c6a:	0100                	addi	s0,sp,128
     c6c:	671a                	flw	fa4,132(sp)
     c6e:	0100                	addi	s0,sp,128
     c70:	0004                	0x4
     c72:	300a                	fld	ft0,160(sp)
     c74:	9f15                	0x9f15
	...
     c7e:	670a                	flw	fa4,128(sp)
     c80:	0100                	addi	s0,sp,128
     c82:	6714                	flw	fa3,8(a4)
     c84:	0100                	addi	s0,sp,128
     c86:	0004                	0x4
     c88:	000a                	c.slli	zero,0x2
     c8a:	9f10                	0x9f10
	...
     c94:	667a                	flw	fa2,156(sp)
     c96:	0100                	addi	s0,sp,128
     c98:	6695                	lui	a3,0x5
     c9a:	0100                	addi	s0,sp,128
     c9c:	0001                	nop
     c9e:	955a                	add	a0,a0,s6
     ca0:	0066                	c.slli	zero,0x19
     ca2:	be01                	j	7b2 <__udivdi3-0x7ffbfa>
     ca4:	0066                	c.slli	zero,0x19
     ca6:	0101                	addi	sp,sp,0
     ca8:	5800                	lw	s0,48(s0)
     caa:	66ca                	flw	fa3,144(sp)
     cac:	0100                	addi	s0,sp,128
     cae:	66ce                	flw	fa3,208(sp)
     cb0:	0100                	addi	s0,sp,128
     cb2:	0001                	nop
     cb4:	005a                	c.slli	zero,0x16
     cb6:	0000                	unimp
     cb8:	0000                	unimp
     cba:	0000                	unimp
     cbc:	b400                	fsd	fs0,40(s0)
     cbe:	0066                	c.slli	zero,0x19
     cc0:	be01                	j	7d0 <__udivdi3-0x7ffbdc>
     cc2:	0066                	c.slli	zero,0x19
     cc4:	0101                	addi	sp,sp,0
     cc6:	5900                	lw	s0,48(a0)
	...
     cd0:	667e                	flw	fa2,220(sp)
     cd2:	0100                	addi	s0,sp,128
     cd4:	6696                	flw	fa3,68(sp)
     cd6:	0100                	addi	s0,sp,128
     cd8:	0006                	c.slli	zero,0x1
     cda:	220c                	fld	fa1,0(a2)
     cdc:	9f20d8c7          	fmsub.q	fa7,ft1,fs2,fs3,unknown
	...
     ce8:	667e                	flw	fa2,220(sp)
     cea:	0100                	addi	s0,sp,128
     cec:	6696                	flw	fa3,68(sp)
     cee:	0100                	addi	s0,sp,128
     cf0:	0006                	c.slli	zero,0x1
     cf2:	570c                	lw	a1,40(a4)
     cf4:	66ca                	flw	fa3,144(sp)
     cf6:	9f44                	0x9f44
	...
     d00:	667e                	flw	fa2,220(sp)
     d02:	0100                	addi	s0,sp,128
     d04:	6695                	lui	a3,0x5
     d06:	0100                	addi	s0,sp,128
     d08:	0001                	nop
     d0a:	955a                	add	a0,a0,s6
     d0c:	0066                	c.slli	zero,0x19
     d0e:	9601                	srai	a2,a2,0x20
     d10:	0066                	c.slli	zero,0x19
     d12:	0101                	addi	sp,sp,0
     d14:	5800                	lw	s0,48(s0)
	...
     d1e:	6696                	flw	fa3,68(sp)
     d20:	0100                	addi	s0,sp,128
     d22:	66a8                	flw	fa0,72(a3)
     d24:	0100                	addi	s0,sp,128
     d26:	0006                	c.slli	zero,0x1
     d28:	049e                	slli	s1,s1,0x7
     d2a:	ef12                	fsw	ft4,156(sp)
     d2c:	abcd                	j	131e <__udivdi3-0x7ff08e>
	...
     d36:	6696                	flw	fa3,68(sp)
     d38:	0100                	addi	s0,sp,128
     d3a:	66a8                	flw	fa0,72(a3)
     d3c:	0100                	addi	s0,sp,128
     d3e:	0001                	nop
     d40:	0058                	addi	a4,sp,4
     d42:	0000                	unimp
     d44:	0000                	unimp
     d46:	0000                	unimp
     d48:	a800                	fsd	fs0,16(s0)
     d4a:	0066                	c.slli	zero,0x19
     d4c:	b401                	j	74c <__udivdi3-0x7ffc60>
     d4e:	0066                	c.slli	zero,0x19
     d50:	0101                	addi	sp,sp,0
     d52:	5800                	lw	s0,48(s0)
	...
     d5c:	66b4                	flw	fa3,72(a3)
     d5e:	0100                	addi	s0,sp,128
     d60:	66be                	flw	fa3,204(sp)
     d62:	0100                	addi	s0,sp,128
     d64:	0001                	nop
     d66:	0058                	addi	a4,sp,4
     d68:	0000                	unimp
     d6a:	0000                	unimp
     d6c:	0000                	unimp
     d6e:	f800                	fsw	fs0,48(s0)
     d70:	0065                	c.nop	25
     d72:	0001                	nop
     d74:	0066                	c.slli	zero,0x19
     d76:	0201                	addi	tp,tp,0
     d78:	3000                	fld	fs0,32(s0)
     d7a:	009f 0000 0000      	0x9f
     d80:	0000                	unimp
     d82:	0000                	unimp
     d84:	0066                	c.slli	zero,0x19
     d86:	0601                	addi	a2,a2,0
     d88:	0066                	c.slli	zero,0x19
     d8a:	0901                	addi	s2,s2,0
     d8c:	7e00                	flw	fs0,56(a2)
     d8e:	7c00                	flw	fs0,56(s0)
     d90:	1c00                	addi	s0,sp,560
     d92:	9f0ba423          	sw	a6,-1560(s7)
	...
     d9e:	6600                	flw	fs0,8(a2)
     da0:	0100                	addi	s0,sp,128
     da2:	6606                	flw	fa2,64(sp)
     da4:	0100                	addi	s0,sp,128
     da6:	0004                	0x4
     da8:	000a                	c.slli	zero,0x2
     daa:	9f10                	0x9f10
	...
     db4:	6600                	flw	fs0,8(a2)
     db6:	0100                	addi	s0,sp,128
     db8:	6606                	flw	fa2,64(sp)
     dba:	0100                	addi	s0,sp,128
     dbc:	0009                	c.nop	2
     dbe:	007e                	c.slli	zero,0x1f
     dc0:	007c                	addi	a5,sp,12
     dc2:	231c                	fld	fa5,0(a4)
     dc4:	2ba4                	fld	fs1,80(a5)
     dc6:	009f 0000 0000      	0x9f
     dcc:	0000                	unimp
     dce:	4a00                	lw	s0,16(a2)
     dd0:	0066                	c.slli	zero,0x19
     dd2:	5201                	li	tp,-32
     dd4:	0066                	c.slli	zero,0x19
     dd6:	0101                	addi	sp,sp,0
     dd8:	5b00                	lw	s0,48(a4)
	...
     de2:	664a                	flw	fa2,144(sp)
     de4:	0100                	addi	s0,sp,128
     de6:	6650                	flw	fa2,12(a2)
     de8:	0100                	addi	s0,sp,128
     dea:	0009                	c.nop	2
     dec:	007f                	0x7f
     dee:	007c                	addi	a5,sp,12
     df0:	231c                	fld	fa5,0(a4)
     df2:	0ba4                	addi	s1,sp,472
     df4:	509f 0066 5201      	0x52010066509f
     dfa:	0066                	c.slli	zero,0x19
     dfc:	0901                	addi	s2,s2,0
     dfe:	7f00                	flw	fs0,56(a4)
     e00:	7c00                	flw	fs0,56(s0)
     e02:	1c00                	addi	s0,sp,560
     e04:	9f0ba023          	sw	a6,-1568(s7)
	...
     e10:	664a                	flw	fa2,144(sp)
     e12:	0100                	addi	s0,sp,128
     e14:	6652                	flw	fa2,20(sp)
     e16:	0100                	addi	s0,sp,128
     e18:	0004                	0x4
     e1a:	000a                	c.slli	zero,0x2
     e1c:	9f10                	0x9f10
	...
     e26:	664a                	flw	fa2,144(sp)
     e28:	0100                	addi	s0,sp,128
     e2a:	6650                	flw	fa2,12(a2)
     e2c:	0100                	addi	s0,sp,128
     e2e:	0009                	c.nop	2
     e30:	007f                	0x7f
     e32:	007c                	addi	a5,sp,12
     e34:	231c                	fld	fa5,0(a4)
     e36:	2ba4                	fld	fs1,80(a5)
     e38:	509f 0066 5201      	0x52010066509f
     e3e:	0066                	c.slli	zero,0x19
     e40:	0901                	addi	s2,s2,0
     e42:	7f00                	flw	fs0,56(a4)
     e44:	7c00                	flw	fs0,56(s0)
     e46:	1c00                	addi	s0,sp,560
     e48:	9f2ba023          	sw	s2,-1568(s7)
	...
     e54:	65ce                	flw	fa1,208(sp)
     e56:	0100                	addi	s0,sp,128
     e58:	65dc                	flw	fa5,12(a1)
     e5a:	0100                	addi	s0,sp,128
     e5c:	0004                	0x4
     e5e:	140a                	slli	s0,s0,0x22
     e60:	00009f03          	lh	t5,0(ra)
     e64:	0000                	unimp
     e66:	0000                	unimp
     e68:	0000                	unimp
     e6a:	65ce                	flw	fa1,208(sp)
     e6c:	0100                	addi	s0,sp,128
     e6e:	65dc                	flw	fa5,12(a1)
     e70:	0100                	addi	s0,sp,128
     e72:	0005                	c.nop	1
     e74:	e408                	fsw	fa0,8(s0)
     e76:	009f243b          	0x9f243b
     e7a:	0000                	unimp
     e7c:	0000                	unimp
     e7e:	0000                	unimp
     e80:	ce00                	sw	s0,24(a2)
     e82:	0065                	c.nop	25
     e84:	dc01                	beqz	s0,d9c <__udivdi3-0x7ff610>
     e86:	0065                	c.nop	25
     e88:	0601                	addi	a2,a2,0
     e8a:	0c00                	addi	s0,sp,528
     e8c:	2314                	fld	fa3,0(a4)
     e8e:	009f0007          	0x9f0007
     e92:	0000                	unimp
     e94:	0000                	unimp
     e96:	0000                	unimp
     e98:	e800                	fsw	fs0,16(s0)
     e9a:	0065                	c.nop	25
     e9c:	ec01                	bnez	s0,eb4 <__udivdi3-0x7ff4f8>
     e9e:	0065                	c.nop	25
     ea0:	0401                	addi	s0,s0,0
     ea2:	0a00                	addi	s0,sp,272
     ea4:	0114                	addi	a3,sp,128
     ea6:	009f 0000 0000      	0x9f
     eac:	0000                	unimp
     eae:	e800                	fsw	fs0,16(s0)
     eb0:	0065                	c.nop	25
     eb2:	ec01                	bnez	s0,eca <__udivdi3-0x7ff4e2>
     eb4:	0065                	c.nop	25
     eb6:	0401                	addi	s0,s0,0
     eb8:	0a00                	addi	s0,sp,272
     eba:	1000                	addi	s0,sp,32
     ebc:	009f 0000 0000      	0x9f
     ec2:	0000                	unimp
     ec4:	e800                	fsw	fs0,16(s0)
     ec6:	0065                	c.nop	25
     ec8:	ec01                	bnez	s0,ee0 <__udivdi3-0x7ff4cc>
     eca:	0065                	c.nop	25
     ecc:	0401                	addi	s0,s0,0
     ece:	0a00                	addi	s0,sp,272
     ed0:	1114                	addi	a3,sp,160
     ed2:	009f 0000 0000      	0x9f
     ed8:	0000                	unimp
     eda:	dc00                	sw	s0,56(s0)
     edc:	0065                	c.nop	25
     ede:	e401                	bnez	s0,ee6 <__udivdi3-0x7ff4c6>
     ee0:	0065                	c.nop	25
     ee2:	0401                	addi	s0,s0,0
     ee4:	0a00                	addi	s0,sp,272
     ee6:	0318                	addi	a4,sp,384
     ee8:	009f 0000 0000      	0x9f
     eee:	0000                	unimp
     ef0:	dc00                	sw	s0,56(s0)
     ef2:	0065                	c.nop	25
     ef4:	e401                	bnez	s0,efc <__udivdi3-0x7ff4b0>
     ef6:	0065                	c.nop	25
     ef8:	0501                	addi	a0,a0,0
     efa:	0800                	addi	s0,sp,16
     efc:	3be4                	fld	fs1,240(a5)
     efe:	9f24                	0x9f24
	...
     f08:	65dc                	flw	fa5,12(a1)
     f0a:	0100                	addi	s0,sp,128
     f0c:	65e4                	flw	fs1,76(a1)
     f0e:	0100                	addi	s0,sp,128
     f10:	0006                	c.slli	zero,0x1
     f12:	180c                	addi	a1,sp,48
     f14:	9f000723          	sb	a6,-1554(zero) # fffff9ee <_end+0xfeff8ef2>
	...
     f20:	65e4                	flw	fs1,76(a1)
     f22:	0100                	addi	s0,sp,128
     f24:	65e8                	flw	fa0,76(a1)
     f26:	0100                	addi	s0,sp,128
     f28:	0004                	0x4
     f2a:	200a                	fld	ft0,128(sp)
     f2c:	00009f03          	lh	t5,0(ra)
     f30:	0000                	unimp
     f32:	0000                	unimp
     f34:	0000                	unimp
     f36:	65e4                	flw	fs1,76(a1)
     f38:	0100                	addi	s0,sp,128
     f3a:	65e8                	flw	fa0,76(a1)
     f3c:	0100                	addi	s0,sp,128
     f3e:	0005                	c.nop	1
     f40:	e408                	fsw	fa0,8(s0)
     f42:	009f243b          	0x9f243b
     f46:	0000                	unimp
     f48:	0000                	unimp
     f4a:	0000                	unimp
     f4c:	e400                	fsw	fs0,8(s0)
     f4e:	0065                	c.nop	25
     f50:	e801                	bnez	s0,f60 <__udivdi3-0x7ff44c>
     f52:	0065                	c.nop	25
     f54:	0601                	addi	a2,a2,0
     f56:	0c00                	addi	s0,sp,528
     f58:	2320                	fld	fs0,64(a4)
     f5a:	009f0007          	0x9f0007
     f5e:	0000                	unimp
     f60:	0000                	unimp
     f62:	0000                	unimp
     f64:	ec00                	fsw	fs0,24(s0)
     f66:	0065                	c.nop	25
     f68:	f001                	bnez	s0,e68 <__udivdi3-0x7ff544>
     f6a:	0065                	c.nop	25
     f6c:	0401                	addi	s0,s0,0
     f6e:	0a00                	addi	s0,sp,272
     f70:	0428                	addi	a0,sp,520
     f72:	009f 0000 0000      	0x9f
     f78:	0000                	unimp
     f7a:	ec00                	fsw	fs0,24(s0)
     f7c:	0065                	c.nop	25
     f7e:	f001                	bnez	s0,e7e <__udivdi3-0x7ff52e>
     f80:	0065                	c.nop	25
     f82:	0401                	addi	s0,s0,0
     f84:	0a00                	addi	s0,sp,272
     f86:	1000                	addi	s0,sp,32
     f88:	009f 0000 0000      	0x9f
     f8e:	0000                	unimp
     f90:	ec00                	fsw	fs0,24(s0)
     f92:	0065                	c.nop	25
     f94:	f001                	bnez	s0,e94 <__udivdi3-0x7ff518>
     f96:	0065                	c.nop	25
     f98:	0401                	addi	s0,s0,0
     f9a:	0a00                	addi	s0,sp,272
     f9c:	1428                	addi	a0,sp,552
     f9e:	009f 0000 0000      	0x9f
     fa4:	0000                	unimp
     fa6:	f000                	fsw	fs0,32(s0)
     fa8:	0065                	c.nop	25
     faa:	f401                	bnez	s0,eb2 <__udivdi3-0x7ff4fa>
     fac:	0065                	c.nop	25
     fae:	0401                	addi	s0,s0,0
     fb0:	0a00                	addi	s0,sp,272
     fb2:	042c                	addi	a1,sp,520
     fb4:	009f 0000 0000      	0x9f
     fba:	0000                	unimp
     fbc:	f000                	fsw	fs0,32(s0)
     fbe:	0065                	c.nop	25
     fc0:	f401                	bnez	s0,ec8 <__udivdi3-0x7ff4e4>
     fc2:	0065                	c.nop	25
     fc4:	0401                	addi	s0,s0,0
     fc6:	0a00                	addi	s0,sp,272
     fc8:	1000                	addi	s0,sp,32
     fca:	009f 0000 0000      	0x9f
     fd0:	0000                	unimp
     fd2:	f000                	fsw	fs0,32(s0)
     fd4:	0065                	c.nop	25
     fd6:	f401                	bnez	s0,ede <__udivdi3-0x7ff4ce>
     fd8:	0065                	c.nop	25
     fda:	0401                	addi	s0,s0,0
     fdc:	0a00                	addi	s0,sp,272
     fde:	142c                	addi	a1,sp,552
     fe0:	009f 0000 0000      	0x9f
     fe6:	0000                	unimp
     fe8:	f400                	fsw	fs0,40(s0)
     fea:	0065                	c.nop	25
     fec:	f801                	bnez	s0,efc <__udivdi3-0x7ff4b0>
     fee:	0065                	c.nop	25
     ff0:	0401                	addi	s0,s0,0
     ff2:	0a00                	addi	s0,sp,272
     ff4:	0530                	addi	a2,sp,648
     ff6:	009f 0000 0000      	0x9f
     ffc:	0000                	unimp
     ffe:	f400                	fsw	fs0,40(s0)
    1000:	0065                	c.nop	25
    1002:	f801                	bnez	s0,f12 <__udivdi3-0x7ff49a>
    1004:	0065                	c.nop	25
    1006:	0401                	addi	s0,s0,0
    1008:	0a00                	addi	s0,sp,272
    100a:	1000                	addi	s0,sp,32
    100c:	009f 0000 0000      	0x9f
    1012:	0000                	unimp
    1014:	f400                	fsw	fs0,40(s0)
    1016:	0065                	c.nop	25
    1018:	f801                	bnez	s0,f28 <__udivdi3-0x7ff484>
    101a:	0065                	c.nop	25
    101c:	0401                	addi	s0,s0,0
    101e:	0a00                	addi	s0,sp,272
    1020:	1530                	addi	a2,sp,680
    1022:	009f 0000 0000      	0x9f
    1028:	0000                	unimp
    102a:	1000                	addi	s0,sp,32
    102c:	0066                	c.slli	zero,0x19
    102e:	1601                	addi	a2,a2,-32
    1030:	0066                	c.slli	zero,0x19
    1032:	0201                	addi	tp,tp,0
    1034:	3100                	fld	fs0,32(a0)
    1036:	009f 0000 0000      	0x9f
    103c:	0000                	unimp
    103e:	1000                	addi	s0,sp,32
    1040:	0066                	c.slli	zero,0x19
    1042:	1601                	addi	a2,a2,-32
    1044:	0066                	c.slli	zero,0x19
    1046:	0401                	addi	s0,s0,0
    1048:	0a00                	addi	s0,sp,272
    104a:	013c                	addi	a5,sp,136
    104c:	009f 0000 0000      	0x9f
    1052:	0000                	unimp
    1054:	1000                	addi	s0,sp,32
    1056:	0066                	c.slli	zero,0x19
    1058:	1601                	addi	a2,a2,-32
    105a:	0066                	c.slli	zero,0x19
    105c:	0401                	addi	s0,s0,0
    105e:	0a00                	addi	s0,sp,272
    1060:	1000                	addi	s0,sp,32
    1062:	009f 0000 0000      	0x9f
    1068:	0000                	unimp
    106a:	1000                	addi	s0,sp,32
    106c:	0066                	c.slli	zero,0x19
    106e:	1601                	addi	a2,a2,-32
    1070:	0066                	c.slli	zero,0x19
    1072:	0401                	addi	s0,s0,0
    1074:	0a00                	addi	s0,sp,272
    1076:	113c                	addi	a5,sp,168
    1078:	009f 0000 0000      	0x9f
    107e:	0000                	unimp
    1080:	1600                	addi	s0,sp,800
    1082:	0066                	c.slli	zero,0x19
    1084:	1a01                	addi	s4,s4,-32
    1086:	0066                	c.slli	zero,0x19
    1088:	0401                	addi	s0,s0,0
    108a:	0a00                	addi	s0,sp,272
    108c:	0140                	addi	s0,sp,132
    108e:	249f 0066 2801      	0x28010066249f
    1094:	0066                	c.slli	zero,0x19
    1096:	0401                	addi	s0,s0,0
    1098:	0a00                	addi	s0,sp,272
    109a:	0140                	addi	s0,sp,132
    109c:	009f 0000 0000      	0x9f
    10a2:	0000                	unimp
    10a4:	1600                	addi	s0,sp,800
    10a6:	0066                	c.slli	zero,0x19
    10a8:	1a01                	addi	s4,s4,-32
    10aa:	0066                	c.slli	zero,0x19
    10ac:	0401                	addi	s0,s0,0
    10ae:	0a00                	addi	s0,sp,272
    10b0:	1000                	addi	s0,sp,32
    10b2:	249f 0066 2801      	0x28010066249f
    10b8:	0066                	c.slli	zero,0x19
    10ba:	0401                	addi	s0,s0,0
    10bc:	0a00                	addi	s0,sp,272
    10be:	1000                	addi	s0,sp,32
    10c0:	009f 0000 0000      	0x9f
    10c6:	0000                	unimp
    10c8:	1600                	addi	s0,sp,800
    10ca:	0066                	c.slli	zero,0x19
    10cc:	1a01                	addi	s4,s4,-32
    10ce:	0066                	c.slli	zero,0x19
    10d0:	0401                	addi	s0,s0,0
    10d2:	0a00                	addi	s0,sp,272
    10d4:	1140                	addi	s0,sp,164
    10d6:	249f 0066 2801      	0x28010066249f
    10dc:	0066                	c.slli	zero,0x19
    10de:	0401                	addi	s0,s0,0
    10e0:	0a00                	addi	s0,sp,272
    10e2:	1140                	addi	s0,sp,164
    10e4:	009f 0000 0000      	0x9f
    10ea:	0000                	unimp
    10ec:	2c00                	fld	fs0,24(s0)
    10ee:	0066                	c.slli	zero,0x19
    10f0:	3201                	jal	9f0 <__udivdi3-0x7ff9bc>
    10f2:	0066                	c.slli	zero,0x19
    10f4:	0201                	addi	tp,tp,0
    10f6:	3000                	fld	fs0,32(s0)
    10f8:	009f 0000 0000      	0x9f
    10fe:	0000                	unimp
    1100:	2c00                	fld	fs0,24(s0)
    1102:	0066                	c.slli	zero,0x19
    1104:	3201                	jal	a04 <__udivdi3-0x7ff9a8>
    1106:	0066                	c.slli	zero,0x19
    1108:	0401                	addi	s0,s0,0
    110a:	0a00                	addi	s0,sp,272
    110c:	013c                	addi	a5,sp,136
    110e:	009f 0000 0000      	0x9f
    1114:	0000                	unimp
    1116:	2c00                	fld	fs0,24(s0)
    1118:	0066                	c.slli	zero,0x19
    111a:	3201                	jal	a1a <__udivdi3-0x7ff992>
    111c:	0066                	c.slli	zero,0x19
    111e:	0401                	addi	s0,s0,0
    1120:	0a00                	addi	s0,sp,272
    1122:	1000                	addi	s0,sp,32
    1124:	009f 0000 0000      	0x9f
    112a:	0000                	unimp
    112c:	2c00                	fld	fs0,24(s0)
    112e:	0066                	c.slli	zero,0x19
    1130:	3201                	jal	a30 <__udivdi3-0x7ff97c>
    1132:	0066                	c.slli	zero,0x19
    1134:	0401                	addi	s0,s0,0
    1136:	0a00                	addi	s0,sp,272
    1138:	113c                	addi	a5,sp,168
    113a:	009f 0000 0000      	0x9f
    1140:	0000                	unimp
    1142:	3200                	fld	fs0,32(a2)
    1144:	0066                	c.slli	zero,0x19
    1146:	3801                	jal	956 <__udivdi3-0x7ffa56>
    1148:	0066                	c.slli	zero,0x19
    114a:	0201                	addi	tp,tp,0
    114c:	3100                	fld	fs0,32(a0)
    114e:	009f 0000 0000      	0x9f
    1154:	0000                	unimp
    1156:	3200                	fld	fs0,32(a2)
    1158:	0066                	c.slli	zero,0x19
    115a:	3801                	jal	96a <__udivdi3-0x7ffa42>
    115c:	0066                	c.slli	zero,0x19
    115e:	0401                	addi	s0,s0,0
    1160:	0a00                	addi	s0,sp,272
    1162:	0140                	addi	s0,sp,132
    1164:	009f 0000 0000      	0x9f
    116a:	0000                	unimp
    116c:	3200                	fld	fs0,32(a2)
    116e:	0066                	c.slli	zero,0x19
    1170:	3801                	jal	980 <__udivdi3-0x7ffa2c>
    1172:	0066                	c.slli	zero,0x19
    1174:	0401                	addi	s0,s0,0
    1176:	0a00                	addi	s0,sp,272
    1178:	1000                	addi	s0,sp,32
    117a:	009f 0000 0000      	0x9f
    1180:	0000                	unimp
    1182:	3200                	fld	fs0,32(a2)
    1184:	0066                	c.slli	zero,0x19
    1186:	3801                	jal	996 <__udivdi3-0x7ffa16>
    1188:	0066                	c.slli	zero,0x19
    118a:	0401                	addi	s0,s0,0
    118c:	0a00                	addi	s0,sp,272
    118e:	1140                	addi	s0,sp,164
    1190:	009f 0000 0000      	0x9f
    1196:	0000                	unimp
    1198:	3800                	fld	fs0,48(s0)
    119a:	0066                	c.slli	zero,0x19
    119c:	3c01                	jal	bac <__udivdi3-0x7ff800>
    119e:	0066                	c.slli	zero,0x19
    11a0:	0101                	addi	sp,sp,0
    11a2:	6f00                	flw	fs0,24(a4)
	...
    11ac:	6638                	flw	fa4,72(a2)
    11ae:	0100                	addi	s0,sp,128
    11b0:	663c                	flw	fa5,72(a2)
    11b2:	0100                	addi	s0,sp,128
    11b4:	0004                	0x4
    11b6:	140a                	slli	s0,s0,0x22
    11b8:	9f01                	0x9f01
	...
    11c2:	6638                	flw	fa4,72(a2)
    11c4:	0100                	addi	s0,sp,128
    11c6:	663c                	flw	fa5,72(a2)
    11c8:	0100                	addi	s0,sp,128
    11ca:	0004                	0x4
    11cc:	000a                	c.slli	zero,0x2
    11ce:	9f10                	0x9f10
	...
    11d8:	6638                	flw	fa4,72(a2)
    11da:	0100                	addi	s0,sp,128
    11dc:	663c                	flw	fa5,72(a2)
    11de:	0100                	addi	s0,sp,128
    11e0:	0004                	0x4
    11e2:	140a                	slli	s0,s0,0x22
    11e4:	9f11                	0x9f11
	...
    11ee:	663c                	flw	fa5,72(a2)
    11f0:	0100                	addi	s0,sp,128
    11f2:	6640                	flw	fs0,12(a2)
    11f4:	0100                	addi	s0,sp,128
    11f6:	0001                	nop
    11f8:	006e                	c.slli	zero,0x1b
    11fa:	0000                	unimp
    11fc:	0000                	unimp
    11fe:	0000                	unimp
    1200:	3c00                	fld	fs0,56(s0)
    1202:	0066                	c.slli	zero,0x19
    1204:	4001                	c.li	zero,0
    1206:	0066                	c.slli	zero,0x19
    1208:	0401                	addi	s0,s0,0
    120a:	0a00                	addi	s0,sp,272
    120c:	0428                	addi	a0,sp,520
    120e:	009f 0000 0000      	0x9f
    1214:	0000                	unimp
    1216:	3c00                	fld	fs0,56(s0)
    1218:	0066                	c.slli	zero,0x19
    121a:	4001                	c.li	zero,0
    121c:	0066                	c.slli	zero,0x19
    121e:	0401                	addi	s0,s0,0
    1220:	0a00                	addi	s0,sp,272
    1222:	1000                	addi	s0,sp,32
    1224:	009f 0000 0000      	0x9f
    122a:	0000                	unimp
    122c:	3c00                	fld	fs0,56(s0)
    122e:	0066                	c.slli	zero,0x19
    1230:	4001                	c.li	zero,0
    1232:	0066                	c.slli	zero,0x19
    1234:	0401                	addi	s0,s0,0
    1236:	0a00                	addi	s0,sp,272
    1238:	1428                	addi	a0,sp,552
    123a:	009f 0000 0000      	0x9f
    1240:	0000                	unimp
    1242:	4000                	lw	s0,0(s0)
    1244:	0066                	c.slli	zero,0x19
    1246:	4401                	li	s0,0
    1248:	0066                	c.slli	zero,0x19
    124a:	0101                	addi	sp,sp,0
    124c:	6d00                	flw	fs0,24(a0)
	...
    1256:	6640                	flw	fs0,12(a2)
    1258:	0100                	addi	s0,sp,128
    125a:	6644                	flw	fs1,12(a2)
    125c:	0100                	addi	s0,sp,128
    125e:	0004                	0x4
    1260:	2c0a                	fld	fs8,128(sp)
    1262:	9f04                	0x9f04
	...
    126c:	6640                	flw	fs0,12(a2)
    126e:	0100                	addi	s0,sp,128
    1270:	6644                	flw	fs1,12(a2)
    1272:	0100                	addi	s0,sp,128
    1274:	0004                	0x4
    1276:	000a                	c.slli	zero,0x2
    1278:	9f10                	0x9f10
	...
    1282:	6640                	flw	fs0,12(a2)
    1284:	0100                	addi	s0,sp,128
    1286:	6644                	flw	fs1,12(a2)
    1288:	0100                	addi	s0,sp,128
    128a:	0004                	0x4
    128c:	2c0a                	fld	fs8,128(sp)
    128e:	9f14                	0x9f14
	...
    1298:	6644                	flw	fs1,12(a2)
    129a:	0100                	addi	s0,sp,128
    129c:	6648                	flw	fa0,12(a2)
    129e:	0100                	addi	s0,sp,128
    12a0:	0001                	nop
    12a2:	006c                	addi	a1,sp,12
    12a4:	0000                	unimp
    12a6:	0000                	unimp
    12a8:	0000                	unimp
    12aa:	4400                	lw	s0,8(s0)
    12ac:	0066                	c.slli	zero,0x19
    12ae:	4801                	li	a6,0
    12b0:	0066                	c.slli	zero,0x19
    12b2:	0401                	addi	s0,s0,0
    12b4:	0a00                	addi	s0,sp,272
    12b6:	0530                	addi	a2,sp,648
    12b8:	009f 0000 0000      	0x9f
    12be:	0000                	unimp
    12c0:	4400                	lw	s0,8(s0)
    12c2:	0066                	c.slli	zero,0x19
    12c4:	4801                	li	a6,0
    12c6:	0066                	c.slli	zero,0x19
    12c8:	0401                	addi	s0,s0,0
    12ca:	0a00                	addi	s0,sp,272
    12cc:	1000                	addi	s0,sp,32
    12ce:	009f 0000 0000      	0x9f
    12d4:	0000                	unimp
    12d6:	4400                	lw	s0,8(s0)
    12d8:	0066                	c.slli	zero,0x19
    12da:	4801                	li	a6,0
    12dc:	0066                	c.slli	zero,0x19
    12de:	0401                	addi	s0,s0,0
    12e0:	0a00                	addi	s0,sp,272
    12e2:	1530                	addi	a2,sp,680
    12e4:	009f 0000 0000      	0x9f
    12ea:	0000                	unimp
    12ec:	5600                	lw	s0,40(a2)
    12ee:	0066                	c.slli	zero,0x19
    12f0:	5e01                	li	t3,-32
    12f2:	0066                	c.slli	zero,0x19
    12f4:	0101                	addi	sp,sp,0
    12f6:	5600                	lw	s0,40(a2)
	...
    1300:	6656                	flw	fa2,84(sp)
    1302:	0100                	addi	s0,sp,128
    1304:	665e                	flw	fa2,212(sp)
    1306:	0100                	addi	s0,sp,128
    1308:	0004                	0x4
    130a:	140a                	slli	s0,s0,0x22
    130c:	00009f03          	lh	t5,0(ra)
    1310:	0000                	unimp
    1312:	0000                	unimp
    1314:	0000                	unimp
    1316:	6656                	flw	fa2,84(sp)
    1318:	0100                	addi	s0,sp,128
    131a:	665e                	flw	fa2,212(sp)
    131c:	0100                	addi	s0,sp,128
    131e:	0005                	c.nop	1
    1320:	e408                	fsw	fa0,8(s0)
    1322:	009f243b          	0x9f243b
    1326:	0000                	unimp
    1328:	0000                	unimp
    132a:	0000                	unimp
    132c:	5600                	lw	s0,40(a2)
    132e:	0066                	c.slli	zero,0x19
    1330:	5e01                	li	t3,-32
    1332:	0066                	c.slli	zero,0x19
    1334:	0601                	addi	a2,a2,0
    1336:	0c00                	addi	s0,sp,528
    1338:	2314                	fld	fa3,0(a4)
    133a:	009f0007          	0x9f0007
    133e:	0000                	unimp
    1340:	0000                	unimp
    1342:	0000                	unimp
    1344:	5e00                	lw	s0,56(a2)
    1346:	0066                	c.slli	zero,0x19
    1348:	6201                	0x6201
    134a:	0066                	c.slli	zero,0x19
    134c:	0101                	addi	sp,sp,0
    134e:	6100                	flw	fs0,0(a0)
	...
    1358:	665e                	flw	fa2,212(sp)
    135a:	0100                	addi	s0,sp,128
    135c:	6662                	flw	fa2,24(sp)
    135e:	0100                	addi	s0,sp,128
    1360:	0004                	0x4
    1362:	180a                	slli	a6,a6,0x22
    1364:	00009f03          	lh	t5,0(ra)
    1368:	0000                	unimp
    136a:	0000                	unimp
    136c:	0000                	unimp
    136e:	665e                	flw	fa2,212(sp)
    1370:	0100                	addi	s0,sp,128
    1372:	6662                	flw	fa2,24(sp)
    1374:	0100                	addi	s0,sp,128
    1376:	0005                	c.nop	1
    1378:	e408                	fsw	fa0,8(s0)
    137a:	009f243b          	0x9f243b
    137e:	0000                	unimp
    1380:	0000                	unimp
    1382:	0000                	unimp
    1384:	5e00                	lw	s0,56(a2)
    1386:	0066                	c.slli	zero,0x19
    1388:	6201                	0x6201
    138a:	0066                	c.slli	zero,0x19
    138c:	0601                	addi	a2,a2,0
    138e:	0c00                	addi	s0,sp,528
    1390:	2318                	fld	fa4,0(a4)
    1392:	009f0007          	0x9f0007
    1396:	0000                	unimp
    1398:	0000                	unimp
    139a:	0000                	unimp
    139c:	6200                	flw	fs0,0(a2)
    139e:	0066                	c.slli	zero,0x19
    13a0:	6601                	0x6601
    13a2:	0066                	c.slli	zero,0x19
    13a4:	0101                	addi	sp,sp,0
    13a6:	6000                	flw	fs0,0(s0)
	...
    13b0:	6662                	flw	fa2,24(sp)
    13b2:	0100                	addi	s0,sp,128
    13b4:	6666                	flw	fa2,88(sp)
    13b6:	0100                	addi	s0,sp,128
    13b8:	0004                	0x4
    13ba:	200a                	fld	ft0,128(sp)
    13bc:	00009f03          	lh	t5,0(ra)
    13c0:	0000                	unimp
    13c2:	0000                	unimp
    13c4:	0000                	unimp
    13c6:	6662                	flw	fa2,24(sp)
    13c8:	0100                	addi	s0,sp,128
    13ca:	6666                	flw	fa2,88(sp)
    13cc:	0100                	addi	s0,sp,128
    13ce:	0005                	c.nop	1
    13d0:	e408                	fsw	fa0,8(s0)
    13d2:	009f243b          	0x9f243b
    13d6:	0000                	unimp
    13d8:	0000                	unimp
    13da:	0000                	unimp
    13dc:	6200                	flw	fs0,0(a2)
    13de:	0066                	c.slli	zero,0x19
    13e0:	6601                	0x6601
    13e2:	0066                	c.slli	zero,0x19
    13e4:	0601                	addi	a2,a2,0
    13e6:	0c00                	addi	s0,sp,528
    13e8:	2320                	fld	fs0,64(a4)
    13ea:	009f0007          	0x9f0007
    13ee:	0000                	unimp
    13f0:	0000                	unimp
    13f2:	0000                	unimp
    13f4:	3000                	fld	fs0,32(s0)
    13f6:	4e010067          	jr	1248(sp)
    13fa:	01010067          	jr	16(sp)
    13fe:	5a00                	lw	s0,48(a2)
    1400:	674e                	flw	fa4,208(sp)
    1402:	0100                	addi	s0,sp,128
    1404:	6764                	flw	fs1,76(a4)
    1406:	0100                	addi	s0,sp,128
    1408:	0001                	nop
    140a:	6466                	flw	fs0,88(sp)
    140c:	c4010067          	jr	-960(sp)
    1410:	04010067          	jr	64(sp)
    1414:	f300                	fsw	fs0,32(a4)
    1416:	5a01                	li	s4,-32
    1418:	c49f 0067 c801      	0xc8010067c49f
    141e:	01010067          	jr	16(sp)
    1422:	6600                	flw	fs0,8(a2)
	...
    142c:	6730                	flw	fa2,72(a4)
    142e:	0100                	addi	s0,sp,128
    1430:	674c                	flw	fa1,12(a4)
    1432:	0100                	addi	s0,sp,128
    1434:	0001                	nop
    1436:	00674c5b          	0x674c5b
    143a:	b001                	j	c3a <__udivdi3-0x7ff772>
    143c:	01010067          	jr	16(sp)
    1440:	6800                	flw	fs0,16(s0)
    1442:	67b0                	flw	fa2,72(a5)
    1444:	0100                	addi	s0,sp,128
    1446:	67b8                	flw	fa4,72(a5)
    1448:	0100                	addi	s0,sp,128
    144a:	0004                	0x4
    144c:	9f5b01f3          	0x9f5b01f3
    1450:	67b8                	flw	fa4,72(a5)
    1452:	0100                	addi	s0,sp,128
    1454:	67c8                	flw	fa0,12(a5)
    1456:	0100                	addi	s0,sp,128
    1458:	0001                	nop
    145a:	0068                	addi	a0,sp,12
    145c:	0000                	unimp
    145e:	0000                	unimp
    1460:	0000                	unimp
    1462:	5600                	lw	s0,40(a2)
    1464:	64010067          	jr	1600(sp)
    1468:	01010067          	jr	16(sp)
    146c:	5a00                	lw	s0,48(a2)
    146e:	6764                	flw	fs1,76(a4)
    1470:	0100                	addi	s0,sp,128
    1472:	679e                	flw	fa5,196(sp)
    1474:	0100                	addi	s0,sp,128
    1476:	0001                	nop
    1478:	b864                	fsd	fs1,240(s0)
    147a:	c4010067          	jr	-960(sp)
    147e:	01010067          	jr	16(sp)
    1482:	6400                	flw	fs0,8(s0)
    1484:	67c4                	flw	fs1,12(a5)
    1486:	0100                	addi	s0,sp,128
    1488:	67c8                	flw	fa0,12(a5)
    148a:	0100                	addi	s0,sp,128
    148c:	0001                	nop
    148e:	005a                	c.slli	zero,0x16
    1490:	0000                	unimp
    1492:	0000                	unimp
    1494:	0000                	unimp
    1496:	5a00                	lw	s0,48(a2)
    1498:	94010067          	jr	-1728(sp)
    149c:	02010067          	jr	32(sp)
    14a0:	3000                	fld	fs0,32(s0)
    14a2:	949f 0067 9e01      	0x9e010067949f
    14a8:	01010067          	jr	16(sp)
    14ac:	6200                	flw	fs0,0(a2)
    14ae:	67b8                	flw	fa4,72(a5)
    14b0:	0100                	addi	s0,sp,128
    14b2:	67c4                	flw	fs1,12(a5)
    14b4:	0100                	addi	s0,sp,128
    14b6:	0002                	c.slli64	zero
    14b8:	9f30                	0x9f30
	...
    14c2:	6730                	flw	fa2,72(a4)
    14c4:	0100                	addi	s0,sp,128
    14c6:	6756                	flw	fa4,84(sp)
    14c8:	0100                	addi	s0,sp,128
    14ca:	0002                	c.slli64	zero
    14cc:	9f30                	0x9f30
	...
    14d6:	6730                	flw	fa2,72(a4)
    14d8:	0100                	addi	s0,sp,128
    14da:	6756                	flw	fa4,84(sp)
    14dc:	0100                	addi	s0,sp,128
    14de:	0002                	c.slli64	zero
    14e0:	9f31                	0x9f31
	...
    14ea:	675a                	flw	fa4,148(sp)
    14ec:	0100                	addi	s0,sp,128
    14ee:	6764                	flw	fs1,76(a4)
    14f0:	0100                	addi	s0,sp,128
    14f2:	0002                	c.slli64	zero
    14f4:	9f30                	0x9f30
    14f6:	6764                	flw	fs1,76(a4)
    14f8:	0100                	addi	s0,sp,128
    14fa:	6794                	flw	fa3,8(a5)
    14fc:	0100                	addi	s0,sp,128
    14fe:	0001                	nop
    1500:	0067b867          	0x67b867
    1504:	c001                	beqz	s0,1504 <__udivdi3-0x7feea8>
    1506:	01010067          	jr	16(sp)
    150a:	6700                	flw	fs0,8(a4)
	...
    1514:	676c                	flw	fa1,76(a4)
    1516:	0100                	addi	s0,sp,128
    1518:	6770                	flw	fa2,76(a4)
    151a:	0100                	addi	s0,sp,128
    151c:	0001                	nop
    151e:	7258                	flw	fa4,36(a2)
    1520:	92010067          	jr	-1760(sp)
    1524:	01010067          	jr	16(sp)
    1528:	5800                	lw	s0,48(s0)
	...
    1532:	676c                	flw	fa1,76(a4)
    1534:	0100                	addi	s0,sp,128
    1536:	6794                	flw	fa3,8(a5)
    1538:	0100                	addi	s0,sp,128
    153a:	0001                	nop
    153c:	00000063          	beqz	zero,153c <__udivdi3-0x7fee70>
    1540:	0000                	unimp
    1542:	0000                	unimp
    1544:	6800                	flw	fs0,16(s0)
    1546:	94010067          	jr	-1728(sp)
    154a:	01010067          	jr	16(sp)
    154e:	6400                	flw	fs0,8(s0)
	...
    1558:	6770                	flw	fa2,76(a4)
    155a:	0100                	addi	s0,sp,128
    155c:	6774                	flw	fa3,76(a4)
    155e:	0100                	addi	s0,sp,128
    1560:	0001                	nop
    1562:	7e59                	lui	t3,0xffff6
    1564:	94010067          	jr	-1728(sp)
    1568:	01010067          	jr	16(sp)
    156c:	5900                	lw	s0,48(a0)
	...
    1576:	6770                	flw	fa2,76(a4)
    1578:	0100                	addi	s0,sp,128
    157a:	6774                	flw	fa3,76(a4)
    157c:	0100                	addi	s0,sp,128
    157e:	0001                	nop
    1580:	905a                	c.add	zero,s6
    1582:	94010067          	jr	-1728(sp)
    1586:	01010067          	jr	16(sp)
    158a:	5a00                	lw	s0,48(a2)
	...
    1594:	677e                	flw	fa4,220(sp)
    1596:	0100                	addi	s0,sp,128
    1598:	6790                	flw	fa2,8(a5)
    159a:	0100                	addi	s0,sp,128
    159c:	0001                	nop
    159e:	0059                	c.nop	22
    15a0:	0000                	unimp
    15a2:	0000                	unimp
    15a4:	0000                	unimp
    15a6:	7e00                	flw	fs0,56(a2)
    15a8:	90010067          	jr	-1792(sp)
    15ac:	01010067          	jr	16(sp)
    15b0:	6300                	flw	fs0,0(a4)
	...
    15ba:	677e                	flw	fa4,220(sp)
    15bc:	0100                	addi	s0,sp,128
    15be:	6790                	flw	fa2,8(a5)
    15c0:	0100                	addi	s0,sp,128
    15c2:	0002                	c.slli64	zero
    15c4:	9f31                	0x9f31
	...
    15ce:	677e                	flw	fa4,220(sp)
    15d0:	0100                	addi	s0,sp,128
    15d2:	6790                	flw	fa2,8(a5)
    15d4:	0100                	addi	s0,sp,128
    15d6:	0001                	nop
    15d8:	0064                	addi	s1,sp,12
    15da:	0000                	unimp
    15dc:	0000                	unimp
    15de:	0000                	unimp
    15e0:	9400                	0x9400
    15e2:	9e010067          	jr	-1568(sp)
    15e6:	01010067          	jr	16(sp)
    15ea:	6400                	flw	fs0,8(s0)
	...
    15f4:	683a                	flw	fa6,140(sp)
    15f6:	0100                	addi	s0,sp,128
    15f8:	6842                	flw	fa6,16(sp)
    15fa:	0100                	addi	s0,sp,128
    15fc:	0001                	nop
    15fe:	425a                	lw	tp,148(sp)
    1600:	0068                	addi	a0,sp,12
    1602:	6201                	0x6201
    1604:	0068                	addi	a0,sp,12
    1606:	0101                	addi	sp,sp,0
    1608:	5800                	lw	s0,48(s0)
    160a:	6862                	flw	fa6,24(sp)
    160c:	0100                	addi	s0,sp,128
    160e:	689c                	flw	fa5,16(s1)
    1610:	0100                	addi	s0,sp,128
    1612:	0004                	0x4
    1614:	9f5a01f3          	0x9f5a01f3
    1618:	689c                	flw	fa5,16(s1)
    161a:	0100                	addi	s0,sp,128
    161c:	68a0                	flw	fs0,80(s1)
    161e:	0100                	addi	s0,sp,128
    1620:	0001                	nop
    1622:	0058                	addi	a4,sp,4
    1624:	0000                	unimp
    1626:	0000                	unimp
    1628:	0000                	unimp
    162a:	3a00                	fld	fs0,48(a2)
    162c:	0068                	addi	a0,sp,12
    162e:	5501                	li	a0,-32
    1630:	0068                	addi	a0,sp,12
    1632:	0101                	addi	sp,sp,0
    1634:	5b00                	lw	s0,48(a4)
    1636:	6855                	lui	a6,0x15
    1638:	0100                	addi	s0,sp,128
    163a:	6890                	flw	fa2,16(s1)
    163c:	0100                	addi	s0,sp,128
    163e:	0001                	nop
    1640:	9064                	0x9064
    1642:	0068                	addi	a0,sp,12
    1644:	9801                	andi	s0,s0,-32
    1646:	0068                	addi	a0,sp,12
    1648:	0401                	addi	s0,s0,0
    164a:	f300                	fsw	fs0,32(a4)
    164c:	5b01                	li	s6,-32
    164e:	989f 0068 a001      	0xa0010068989f
    1654:	0068                	addi	a0,sp,12
    1656:	0101                	addi	sp,sp,0
    1658:	6400                	flw	fs0,8(s0)
	...
    1662:	6856                	flw	fa6,84(sp)
    1664:	0100                	addi	s0,sp,128
    1666:	6862                	flw	fa6,24(sp)
    1668:	0100                	addi	s0,sp,128
    166a:	0001                	nop
    166c:	625a                	flw	ft4,148(sp)
    166e:	0068                	addi	a0,sp,12
    1670:	8601                	c.srai64	a2
    1672:	0068                	addi	a0,sp,12
    1674:	0101                	addi	sp,sp,0
    1676:	6300                	flw	fs0,0(a4)
    1678:	6898                	flw	fa4,16(s1)
    167a:	0100                	addi	s0,sp,128
    167c:	689c                	flw	fa5,16(s1)
    167e:	0100                	addi	s0,sp,128
    1680:	0001                	nop
    1682:	00689c63          	bne	a7,t1,169a <__udivdi3-0x7fed12>
    1686:	a001                	j	1686 <__udivdi3-0x7fed26>
    1688:	0068                	addi	a0,sp,12
    168a:	0101                	addi	sp,sp,0
    168c:	5a00                	lw	s0,48(a2)
	...
    1696:	685a                	flw	fa6,148(sp)
    1698:	0100                	addi	s0,sp,128
    169a:	6862                	flw	fa6,24(sp)
    169c:	0100                	addi	s0,sp,128
    169e:	0002                	c.slli64	zero
    16a0:	9f30                	0x9f30
    16a2:	6862                	flw	fa6,24(sp)
    16a4:	0100                	addi	s0,sp,128
    16a6:	6868                	flw	fa0,84(s0)
    16a8:	0100                	addi	s0,sp,128
    16aa:	0001                	nop
    16ac:	6859                	lui	a6,0x16
    16ae:	0068                	addi	a0,sp,12
    16b0:	7a01                	lui	s4,0xfffe0
    16b2:	0068                	addi	a0,sp,12
    16b4:	0201                	addi	tp,tp,0
    16b6:	3000                	fld	fs0,32(s0)
    16b8:	7a9f 0068 8601      	0x860100687a9f
    16be:	0068                	addi	a0,sp,12
    16c0:	0101                	addi	sp,sp,0
    16c2:	5900                	lw	s0,48(a0)
	...
    16cc:	685a                	flw	fa6,148(sp)
    16ce:	0100                	addi	s0,sp,128
    16d0:	6862                	flw	fa6,24(sp)
    16d2:	0100                	addi	s0,sp,128
    16d4:	0002                	c.slli64	zero
    16d6:	9f30                	0x9f30
    16d8:	6862                	flw	fa6,24(sp)
    16da:	0100                	addi	s0,sp,128
    16dc:	6870                	flw	fa2,84(s0)
    16de:	0100                	addi	s0,sp,128
    16e0:	0001                	nop
    16e2:	7062                	flw	ft0,56(sp)
    16e4:	0068                	addi	a0,sp,12
    16e6:	7801                	lui	a6,0xfffe0
    16e8:	0068                	addi	a0,sp,12
    16ea:	0301                	addi	t1,t1,0
    16ec:	8200                	0x8200
    16ee:	9f7f                	0x9f7f
    16f0:	6878                	flw	fa4,84(s0)
    16f2:	0100                	addi	s0,sp,128
    16f4:	687c                	flw	fa5,84(s0)
    16f6:	0100                	addi	s0,sp,128
    16f8:	0001                	nop
    16fa:	0062                	c.slli	zero,0x18
    16fc:	0000                	unimp
    16fe:	0000                	unimp
    1700:	0000                	unimp
    1702:	4600                	lw	s0,8(a2)
    1704:	006a                	c.slli	zero,0x1a
    1706:	4e01                	li	t3,0
    1708:	006a                	c.slli	zero,0x1a
    170a:	0401                	addi	s0,s0,0
    170c:	0a00                	addi	s0,sp,272
    170e:	0150                	addi	a2,sp,132
    1710:	009f 0000 0000      	0x9f
    1716:	0000                	unimp
    1718:	4600                	lw	s0,8(a2)
    171a:	006a                	c.slli	zero,0x1a
    171c:	4e01                	li	t3,0
    171e:	006a                	c.slli	zero,0x1a
    1720:	0401                	addi	s0,s0,0
    1722:	4d00                	lw	s0,24(a0)
    1724:	243e                	fld	fs0,456(sp)
    1726:	009f 0000 0000      	0x9f
    172c:	0000                	unimp
    172e:	4600                	lw	s0,8(a2)
    1730:	006a                	c.slli	zero,0x1a
    1732:	4e01                	li	t3,0
    1734:	006a                	c.slli	zero,0x1a
    1736:	0601                	addi	a2,a2,0
    1738:	0c00                	addi	s0,sp,528
    173a:	4150                	lw	a2,4(a0)
    173c:	009f0007          	0x9f0007
    1740:	0000                	unimp
    1742:	0000                	unimp
    1744:	0000                	unimp
    1746:	4e00                	lw	s0,24(a2)
    1748:	006a                	c.slli	zero,0x1a
    174a:	5201                	li	tp,-32
    174c:	006a                	c.slli	zero,0x1a
    174e:	0401                	addi	s0,s0,0
    1750:	0a00                	addi	s0,sp,272
    1752:	014c                	addi	a1,sp,132
    1754:	009f 0000 0000      	0x9f
    175a:	0000                	unimp
    175c:	4e00                	lw	s0,24(a2)
    175e:	006a                	c.slli	zero,0x1a
    1760:	5201                	li	tp,-32
    1762:	006a                	c.slli	zero,0x1a
    1764:	0401                	addi	s0,s0,0
    1766:	4d00                	lw	s0,24(a0)
    1768:	243e                	fld	fs0,456(sp)
    176a:	009f 0000 0000      	0x9f
    1770:	0000                	unimp
    1772:	4e00                	lw	s0,24(a2)
    1774:	006a                	c.slli	zero,0x1a
    1776:	5201                	li	tp,-32
    1778:	006a                	c.slli	zero,0x1a
    177a:	0601                	addi	a2,a2,0
    177c:	0c00                	addi	s0,sp,528
    177e:	414c                	lw	a1,4(a0)
    1780:	009f0007          	0x9f0007
    1784:	0000                	unimp
    1786:	0000                	unimp
    1788:	0000                	unimp
    178a:	5200                	lw	s0,32(a2)
    178c:	006a                	c.slli	zero,0x1a
    178e:	5601                	li	a2,-32
    1790:	006a                	c.slli	zero,0x1a
    1792:	0401                	addi	s0,s0,0
    1794:	0a00                	addi	s0,sp,272
    1796:	0150                	addi	a2,sp,132
    1798:	009f 0000 0000      	0x9f
    179e:	0000                	unimp
    17a0:	5200                	lw	s0,32(a2)
    17a2:	006a                	c.slli	zero,0x1a
    17a4:	5601                	li	a2,-32
    17a6:	006a                	c.slli	zero,0x1a
    17a8:	0401                	addi	s0,s0,0
    17aa:	4d00                	lw	s0,24(a0)
    17ac:	243e                	fld	fs0,456(sp)
    17ae:	009f 0000 0000      	0x9f
    17b4:	0000                	unimp
    17b6:	5200                	lw	s0,32(a2)
    17b8:	006a                	c.slli	zero,0x1a
    17ba:	5601                	li	a2,-32
    17bc:	006a                	c.slli	zero,0x1a
    17be:	0601                	addi	a2,a2,0
    17c0:	0c00                	addi	s0,sp,528
    17c2:	4150                	lw	a2,4(a0)
    17c4:	009f0007          	0x9f0007
    17c8:	0000                	unimp
    17ca:	0000                	unimp
    17cc:	0000                	unimp
    17ce:	c800                	sw	s0,16(s0)
    17d0:	006a                	c.slli	zero,0x1a
    17d2:	db01                	beqz	a4,16e2 <__udivdi3-0x7fecca>
    17d4:	006a                	c.slli	zero,0x1a
    17d6:	0101                	addi	sp,sp,0
    17d8:	5a00                	lw	s0,48(a2)
    17da:	01006adb          	0x1006adb
    17de:	6af2                	flw	fs5,28(sp)
    17e0:	0100                	addi	s0,sp,128
    17e2:	0001                	nop
    17e4:	f258                	fsw	fa4,36(a2)
    17e6:	006a                	c.slli	zero,0x1a
    17e8:	f601                	bnez	a2,16f0 <__udivdi3-0x7fecbc>
    17ea:	006a                	c.slli	zero,0x1a
    17ec:	0401                	addi	s0,s0,0
    17ee:	f300                	fsw	fs0,32(a4)
    17f0:	5a01                	li	s4,-32
    17f2:	009f 0000 0000      	0x9f
    17f8:	0000                	unimp
    17fa:	dc00                	sw	s0,56(s0)
    17fc:	006a                	c.slli	zero,0x1a
    17fe:	e201                	bnez	a2,17fe <__udivdi3-0x7febae>
    1800:	006a                	c.slli	zero,0x1a
    1802:	0401                	addi	s0,s0,0
    1804:	0a00                	addi	s0,sp,272
    1806:	0228                	addi	a0,sp,264
    1808:	009f 0000 0000      	0x9f
    180e:	0000                	unimp
    1810:	dc00                	sw	s0,56(s0)
    1812:	006a                	c.slli	zero,0x1a
    1814:	e201                	bnez	a2,1814 <__udivdi3-0x7feb98>
    1816:	006a                	c.slli	zero,0x1a
    1818:	0401                	addi	s0,s0,0
    181a:	0a00                	addi	s0,sp,272
    181c:	1000                	addi	s0,sp,32
    181e:	009f 0000 0000      	0x9f
    1824:	0000                	unimp
    1826:	dc00                	sw	s0,56(s0)
    1828:	006a                	c.slli	zero,0x1a
    182a:	e201                	bnez	a2,182a <__udivdi3-0x7feb82>
    182c:	006a                	c.slli	zero,0x1a
    182e:	0401                	addi	s0,s0,0
    1830:	0a00                	addi	s0,sp,272
    1832:	1228                	addi	a0,sp,296
    1834:	009f 0000 0000      	0x9f
    183a:	0000                	unimp
    183c:	e600                	fsw	fs0,8(a2)
    183e:	006a                	c.slli	zero,0x1a
    1840:	ea01                	bnez	a2,1850 <__udivdi3-0x7feb5c>
    1842:	006a                	c.slli	zero,0x1a
    1844:	0401                	addi	s0,s0,0
    1846:	0a00                	addi	s0,sp,272
    1848:	022c                	addi	a1,sp,264
    184a:	009f 0000 0000      	0x9f
    1850:	0000                	unimp
    1852:	e600                	fsw	fs0,8(a2)
    1854:	006a                	c.slli	zero,0x1a
    1856:	ea01                	bnez	a2,1866 <__udivdi3-0x7feb46>
    1858:	006a                	c.slli	zero,0x1a
    185a:	0401                	addi	s0,s0,0
    185c:	0a00                	addi	s0,sp,272
    185e:	1000                	addi	s0,sp,32
    1860:	009f 0000 0000      	0x9f
    1866:	0000                	unimp
    1868:	e600                	fsw	fs0,8(a2)
    186a:	006a                	c.slli	zero,0x1a
    186c:	ea01                	bnez	a2,187c <__udivdi3-0x7feb30>
    186e:	006a                	c.slli	zero,0x1a
    1870:	0401                	addi	s0,s0,0
    1872:	0a00                	addi	s0,sp,272
    1874:	122c                	addi	a1,sp,296
    1876:	009f 0000 0000      	0x9f
    187c:	0000                	unimp
	...

Disassembly of section .debug_ranges:

00000000 <.debug_ranges>:
   0:	65bc                	flw	fa5,72(a1)
   2:	0100                	addi	s0,sp,128
   4:	65be                	flw	fa1,204(sp)
   6:	0100                	addi	s0,sp,128
   8:	65c0                	flw	fs0,12(a1)
   a:	0100                	addi	s0,sp,128
   c:	65c4                	flw	fs1,12(a1)
   e:	0100                	addi	s0,sp,128
	...
  18:	6564                	flw	fs1,76(a0)
  1a:	0100                	addi	s0,sp,128
  1c:	65ce                	flw	fa1,208(sp)
  1e:	0100                	addi	s0,sp,128
	...
  28:	65ce                	flw	fa1,208(sp)
  2a:	0100                	addi	s0,sp,128
  2c:	65ce                	flw	fa1,208(sp)
  2e:	0100                	addi	s0,sp,128
  30:	65d0                	flw	fa2,12(a1)
  32:	0100                	addi	s0,sp,128
  34:	65d4                	flw	fa3,12(a1)
  36:	0100                	addi	s0,sp,128
  38:	65d8                	flw	fa4,12(a1)
  3a:	0100                	addi	s0,sp,128
  3c:	65dc                	flw	fa5,12(a1)
  3e:	0100                	addi	s0,sp,128
	...
  48:	65ce                	flw	fa1,208(sp)
  4a:	0100                	addi	s0,sp,128
  4c:	65d0                	flw	fa2,12(a1)
  4e:	0100                	addi	s0,sp,128
  50:	65e8                	flw	fa0,76(a1)
  52:	0100                	addi	s0,sp,128
  54:	65ec                	flw	fa1,76(a1)
  56:	0100                	addi	s0,sp,128
	...
  60:	65f4                	flw	fa3,76(a1)
  62:	0100                	addi	s0,sp,128
  64:	65f8                	flw	fa4,76(a1)
  66:	0100                	addi	s0,sp,128
  68:	65fc                	flw	fa5,76(a1)
  6a:	0100                	addi	s0,sp,128
  6c:	6600                	flw	fs0,8(a2)
  6e:	0100                	addi	s0,sp,128
	...
  78:	65f8                	flw	fa4,76(a1)
  7a:	0100                	addi	s0,sp,128
  7c:	65fc                	flw	fa5,76(a1)
  7e:	0100                	addi	s0,sp,128
  80:	6600                	flw	fs0,8(a2)
  82:	0100                	addi	s0,sp,128
  84:	6600                	flw	fs0,8(a2)
  86:	0100                	addi	s0,sp,128
  88:	6600                	flw	fs0,8(a2)
  8a:	0100                	addi	s0,sp,128
  8c:	6610                	flw	fa2,8(a2)
  8e:	0100                	addi	s0,sp,128
	...
  98:	6616                	flw	fa2,68(sp)
  9a:	0100                	addi	s0,sp,128
  9c:	661a                	flw	fa2,132(sp)
  9e:	0100                	addi	s0,sp,128
  a0:	661e                	flw	fa2,196(sp)
  a2:	0100                	addi	s0,sp,128
  a4:	6620                	flw	fs0,72(a2)
  a6:	0100                	addi	s0,sp,128
  a8:	6624                	flw	fs1,72(a2)
  aa:	0100                	addi	s0,sp,128
  ac:	6628                	flw	fa0,72(a2)
  ae:	0100                	addi	s0,sp,128
	...
  b8:	6648                	flw	fa0,12(a2)
  ba:	0100                	addi	s0,sp,128
  bc:	664a                	flw	fa2,144(sp)
  be:	0100                	addi	s0,sp,128
  c0:	664a                	flw	fa2,144(sp)
  c2:	0100                	addi	s0,sp,128
  c4:	6656                	flw	fa2,84(sp)
  c6:	0100                	addi	s0,sp,128
	...
  d0:	664a                	flw	fa2,144(sp)
  d2:	0100                	addi	s0,sp,128
  d4:	664e                	flw	fa2,208(sp)
  d6:	0100                	addi	s0,sp,128
  d8:	6650                	flw	fa2,12(a2)
  da:	0100                	addi	s0,sp,128
  dc:	6652                	flw	fa2,20(sp)
  de:	0100                	addi	s0,sp,128
	...
  e8:	666a                	flw	fa2,152(sp)
  ea:	0100                	addi	s0,sp,128
  ec:	666a                	flw	fa2,152(sp)
  ee:	0100                	addi	s0,sp,128
  f0:	6672                	flw	fa2,28(sp)
  f2:	0100                	addi	s0,sp,128
  f4:	667a                	flw	fa2,156(sp)
  f6:	0100                	addi	s0,sp,128
	...
 100:	66ce                	flw	fa3,208(sp)
 102:	0100                	addi	s0,sp,128
 104:	66ce                	flw	fa3,208(sp)
 106:	0100                	addi	s0,sp,128
 108:	66da                	flw	fa3,148(sp)
 10a:	0100                	addi	s0,sp,128
 10c:	66e2                	flw	fa3,24(sp)
 10e:	0100                	addi	s0,sp,128
	...
 118:	6700                	flw	fs0,8(a4)
 11a:	0100                	addi	s0,sp,128
 11c:	6706                	flw	fa4,64(sp)
 11e:	0100                	addi	s0,sp,128
 120:	6714                	flw	fa3,8(a4)
 122:	0100                	addi	s0,sp,128
 124:	671a                	flw	fa4,132(sp)
 126:	0100                	addi	s0,sp,128
	...
 130:	6730                	flw	fa2,72(a4)
 132:	0100                	addi	s0,sp,128
 134:	6730                	flw	fa2,72(a4)
 136:	0100                	addi	s0,sp,128
 138:	674a                	flw	fa4,144(sp)
 13a:	0100                	addi	s0,sp,128
 13c:	6756                	flw	fa4,84(sp)
 13e:	0100                	addi	s0,sp,128
	...
 148:	675a                	flw	fa4,148(sp)
 14a:	0100                	addi	s0,sp,128
 14c:	6794                	flw	fa3,8(a5)
 14e:	0100                	addi	s0,sp,128
 150:	67b8                	flw	fa4,72(a5)
 152:	0100                	addi	s0,sp,128
 154:	67c4                	flw	fs1,12(a5)
 156:	0100                	addi	s0,sp,128
	...
 160:	675c                	flw	fa5,12(a4)
 162:	0100                	addi	s0,sp,128
 164:	6760                	flw	fs0,76(a4)
 166:	0100                	addi	s0,sp,128
 168:	676c                	flw	fa1,76(a4)
 16a:	0100                	addi	s0,sp,128
 16c:	6794                	flw	fa3,8(a5)
 16e:	0100                	addi	s0,sp,128
	...
 178:	675c                	flw	fa5,12(a4)
 17a:	0100                	addi	s0,sp,128
 17c:	6760                	flw	fs0,76(a4)
 17e:	0100                	addi	s0,sp,128
 180:	6770                	flw	fa2,76(a4)
 182:	0100                	addi	s0,sp,128
 184:	6772                	flw	fa4,28(sp)
 186:	0100                	addi	s0,sp,128
 188:	6774                	flw	fa3,76(a4)
 18a:	0100                	addi	s0,sp,128
 18c:	6794                	flw	fa3,8(a5)
 18e:	0100                	addi	s0,sp,128
	...
 198:	677e                	flw	fa4,220(sp)
 19a:	0100                	addi	s0,sp,128
 19c:	678e                	flw	fa5,192(sp)
 19e:	0100                	addi	s0,sp,128
 1a0:	678e                	flw	fa5,192(sp)
 1a2:	0100                	addi	s0,sp,128
 1a4:	6790                	flw	fa2,8(a5)
 1a6:	0100                	addi	s0,sp,128
	...
 1b0:	67dc                	flw	fa5,12(a5)
 1b2:	0100                	addi	s0,sp,128
 1b4:	67e8                	flw	fa0,76(a5)
 1b6:	0100                	addi	s0,sp,128
 1b8:	67e8                	flw	fa0,76(a5)
 1ba:	0100                	addi	s0,sp,128
 1bc:	6816                	flw	fa6,68(sp)
 1be:	0100                	addi	s0,sp,128
 1c0:	6818                	flw	fa4,16(s0)
 1c2:	0100                	addi	s0,sp,128
 1c4:	6822                	flw	fa6,8(sp)
 1c6:	0100                	addi	s0,sp,128
 1c8:	6836                	flw	fa6,76(sp)
 1ca:	0100                	addi	s0,sp,128
 1cc:	6838                	flw	fa4,80(s0)
 1ce:	0100                	addi	s0,sp,128
	...
 1d8:	67ec                	flw	fa1,76(a5)
 1da:	0100                	addi	s0,sp,128
 1dc:	67f0                	flw	fa2,76(a5)
 1de:	0100                	addi	s0,sp,128
 1e0:	67f2                	flw	fa5,28(sp)
 1e2:	0100                	addi	s0,sp,128
 1e4:	6814                	flw	fa3,16(s0)
 1e6:	0100                	addi	s0,sp,128
	...
 1f0:	67fc                	flw	fa5,76(a5)
 1f2:	0100                	addi	s0,sp,128
 1f4:	680c                	flw	fa1,16(s0)
 1f6:	0100                	addi	s0,sp,128
 1f8:	680c                	flw	fa1,16(s0)
 1fa:	0100                	addi	s0,sp,128
 1fc:	680e                	flw	fa6,192(sp)
 1fe:	0100                	addi	s0,sp,128
	...
 208:	685a                	flw	fa6,148(sp)
 20a:	0100                	addi	s0,sp,128
 20c:	687c                	flw	fa5,84(s0)
 20e:	0100                	addi	s0,sp,128
 210:	6898                	flw	fa4,16(s1)
 212:	0100                	addi	s0,sp,128
 214:	689c                	flw	fa5,16(s1)
 216:	0100                	addi	s0,sp,128
	...
 220:	68a4                	flw	fs1,80(s1)
 222:	0100                	addi	s0,sp,128
 224:	68a6                	flw	fa7,72(sp)
 226:	0100                	addi	s0,sp,128
 228:	68ae                	flw	fa7,200(sp)
 22a:	0100                	addi	s0,sp,128
 22c:	68b6                	flw	fa7,76(sp)
 22e:	0100                	addi	s0,sp,128
 230:	68b6                	flw	fa7,76(sp)
 232:	0100                	addi	s0,sp,128
 234:	68d4                	flw	fa3,20(s1)
 236:	0100                	addi	s0,sp,128
 238:	68de                	flw	fa7,212(sp)
 23a:	0100                	addi	s0,sp,128
 23c:	68e0                	flw	fs0,84(s1)
 23e:	0100                	addi	s0,sp,128
	...
 248:	68b8                	flw	fa4,80(s1)
 24a:	0100                	addi	s0,sp,128
 24c:	68c8                	flw	fa0,20(s1)
 24e:	0100                	addi	s0,sp,128
 250:	68ca                	flw	fa7,144(sp)
 252:	0100                	addi	s0,sp,128
 254:	68cc                	flw	fa1,20(s1)
 256:	0100                	addi	s0,sp,128
	...
 260:	68e2                	flw	fa7,24(sp)
 262:	0100                	addi	s0,sp,128
 264:	68e2                	flw	fa7,24(sp)
 266:	0100                	addi	s0,sp,128
 268:	68ec                	flw	fa1,84(s1)
 26a:	0100                	addi	s0,sp,128
 26c:	68f6                	flw	fa7,92(sp)
 26e:	0100                	addi	s0,sp,128
	...
 278:	6936                	flw	fs2,76(sp)
 27a:	0100                	addi	s0,sp,128
 27c:	6936                	flw	fs2,76(sp)
 27e:	0100                	addi	s0,sp,128
 280:	693e                	flw	fs2,204(sp)
 282:	0100                	addi	s0,sp,128
 284:	694c                	flw	fa1,20(a0)
 286:	0100                	addi	s0,sp,128
 288:	694c                	flw	fa1,20(a0)
 28a:	0100                	addi	s0,sp,128
 28c:	6954                	flw	fa3,20(a0)
 28e:	0100                	addi	s0,sp,128
 290:	6954                	flw	fa3,20(a0)
 292:	0100                	addi	s0,sp,128
 294:	695e                	flw	fs2,212(sp)
 296:	0100                	addi	s0,sp,128
	...
 2a0:	693e                	flw	fs2,204(sp)
 2a2:	0100                	addi	s0,sp,128
 2a4:	694c                	flw	fa1,20(a0)
 2a6:	0100                	addi	s0,sp,128
 2a8:	694c                	flw	fa1,20(a0)
 2aa:	0100                	addi	s0,sp,128
 2ac:	6954                	flw	fa3,20(a0)
 2ae:	0100                	addi	s0,sp,128
 2b0:	6954                	flw	fa3,20(a0)
 2b2:	0100                	addi	s0,sp,128
 2b4:	695e                	flw	fs2,212(sp)
 2b6:	0100                	addi	s0,sp,128
	...
 2c0:	6a62                	flw	fs4,24(sp)
 2c2:	0100                	addi	s0,sp,128
 2c4:	6a62                	flw	fs4,24(sp)
 2c6:	0100                	addi	s0,sp,128
 2c8:	6a66                	flw	fs4,88(sp)
 2ca:	0100                	addi	s0,sp,128
 2cc:	6a66                	flw	fs4,88(sp)
 2ce:	0100                	addi	s0,sp,128
 2d0:	6a66                	flw	fs4,88(sp)
 2d2:	0100                	addi	s0,sp,128
 2d4:	6a6e                	flw	fs4,216(sp)
 2d6:	0100                	addi	s0,sp,128
 2d8:	6a6e                	flw	fs4,216(sp)
 2da:	0100                	addi	s0,sp,128
 2dc:	6a72                	flw	fs4,28(sp)
 2de:	0100                	addi	s0,sp,128
 2e0:	6a72                	flw	fs4,28(sp)
 2e2:	0100                	addi	s0,sp,128
 2e4:	6a7e                	flw	fs4,220(sp)
 2e6:	0100                	addi	s0,sp,128
 2e8:	6aaa                	flw	fs5,136(sp)
 2ea:	0100                	addi	s0,sp,128
 2ec:	6aae                	flw	fs5,200(sp)
 2ee:	0100                	addi	s0,sp,128
	...
 2f8:	6a66                	flw	fs4,88(sp)
 2fa:	0100                	addi	s0,sp,128
 2fc:	6a66                	flw	fs4,88(sp)
 2fe:	0100                	addi	s0,sp,128
 300:	6a66                	flw	fs4,88(sp)
 302:	0100                	addi	s0,sp,128
 304:	6a6e                	flw	fs4,216(sp)
 306:	0100                	addi	s0,sp,128
 308:	6a6e                	flw	fs4,216(sp)
 30a:	0100                	addi	s0,sp,128
 30c:	6a72                	flw	fs4,28(sp)
 30e:	0100                	addi	s0,sp,128
 310:	6a72                	flw	fs4,28(sp)
 312:	0100                	addi	s0,sp,128
 314:	6a7e                	flw	fs4,220(sp)
 316:	0100                	addi	s0,sp,128
 318:	6aaa                	flw	fs5,136(sp)
 31a:	0100                	addi	s0,sp,128
 31c:	6aae                	flw	fs5,200(sp)
 31e:	0100                	addi	s0,sp,128
	...
 328:	6a7e                	flw	fs4,220(sp)
 32a:	0100                	addi	s0,sp,128
 32c:	6a7e                	flw	fs4,220(sp)
 32e:	0100                	addi	s0,sp,128
 330:	6a82                	flw	fs5,0(sp)
 332:	0100                	addi	s0,sp,128
 334:	6a86                	flw	fs5,64(sp)
 336:	0100                	addi	s0,sp,128
	...
 340:	6a7e                	flw	fs4,220(sp)
 342:	0100                	addi	s0,sp,128
 344:	6a7e                	flw	fs4,220(sp)
 346:	0100                	addi	s0,sp,128
 348:	6a82                	flw	fs5,0(sp)
 34a:	0100                	addi	s0,sp,128
 34c:	6a86                	flw	fs5,64(sp)
 34e:	0100                	addi	s0,sp,128
	...
 358:	6ab6                	flw	fs5,76(sp)
 35a:	0100                	addi	s0,sp,128
 35c:	6aba                	flw	fs5,140(sp)
 35e:	0100                	addi	s0,sp,128
 360:	6abc                	flw	fa5,80(a3)
 362:	0100                	addi	s0,sp,128
 364:	6ac0                	flw	fs0,20(a3)
 366:	0100                	addi	s0,sp,128
	...
 370:	65ce                	flw	fa1,208(sp)
 372:	0100                	addi	s0,sp,128
 374:	666a                	flw	fa2,152(sp)
 376:	0100                	addi	s0,sp,128
 378:	666a                	flw	fa2,152(sp)
 37a:	0100                	addi	s0,sp,128
 37c:	66ce                	flw	fa3,208(sp)
 37e:	0100                	addi	s0,sp,128
 380:	66ce                	flw	fa3,208(sp)
 382:	0100                	addi	s0,sp,128
 384:	6730                	flw	fa2,72(a4)
 386:	0100                	addi	s0,sp,128
 388:	6730                	flw	fa2,72(a4)
 38a:	0100                	addi	s0,sp,128
 38c:	67c8                	flw	fa0,12(a5)
 38e:	0100                	addi	s0,sp,128
 390:	67c8                	flw	fa0,12(a5)
 392:	0100                	addi	s0,sp,128
 394:	683a                	flw	fa6,140(sp)
 396:	0100                	addi	s0,sp,128
 398:	683a                	flw	fa6,140(sp)
 39a:	0100                	addi	s0,sp,128
 39c:	68a0                	flw	fs0,80(s1)
 39e:	0100                	addi	s0,sp,128
 3a0:	68a0                	flw	fs0,80(s1)
 3a2:	0100                	addi	s0,sp,128
 3a4:	68e2                	flw	fa7,24(sp)
 3a6:	0100                	addi	s0,sp,128
 3a8:	68e2                	flw	fa7,24(sp)
 3aa:	0100                	addi	s0,sp,128
 3ac:	6934                	flw	fa3,80(a0)
 3ae:	0100                	addi	s0,sp,128
 3b0:	6934                	flw	fa3,80(a0)
 3b2:	0100                	addi	s0,sp,128
 3b4:	69e4                	flw	fs1,84(a1)
 3b6:	0100                	addi	s0,sp,128
 3b8:	69e4                	flw	fs1,84(a1)
 3ba:	0100                	addi	s0,sp,128
 3bc:	6a46                	flw	fs4,80(sp)
 3be:	0100                	addi	s0,sp,128
 3c0:	6a46                	flw	fs4,80(sp)
 3c2:	0100                	addi	s0,sp,128
 3c4:	6a62                	flw	fs4,24(sp)
 3c6:	0100                	addi	s0,sp,128
 3c8:	6a62                	flw	fs4,24(sp)
 3ca:	0100                	addi	s0,sp,128
 3cc:	6aae                	flw	fs5,200(sp)
 3ce:	0100                	addi	s0,sp,128
 3d0:	6aae                	flw	fs5,200(sp)
 3d2:	0100                	addi	s0,sp,128
 3d4:	6ac8                	flw	fa0,20(a3)
 3d6:	0100                	addi	s0,sp,128
 3d8:	6ac8                	flw	fa0,20(a3)
 3da:	0100                	addi	s0,sp,128
 3dc:	6af6                	flw	fs5,92(sp)
 3de:	0100                	addi	s0,sp,128
	...

Disassembly of section .comment:

00000000 <.comment>:
   0:	3a434347          	fmsub.d	ft6,ft6,ft4,ft7,rmm
   4:	2820                	fld	fs0,80(s0)
   6:	74726d63          	bltu	tp,t2,760 <__udivdi3-0x7ffc4c>
   a:	3220                	fld	fs0,96(a2)
   c:	3230                	fld	fa2,96(a2)
   e:	2d31                	jal	62a <__udivdi3-0x7ffd82>
  10:	3630                	fld	fa2,104(a2)
  12:	312d                	jal	fffffc3c <_end+0xfeff9140>
  14:	62672d37          	lui	s10,0x62672
  18:	6639                	lui	a2,0xe
  1a:	3132                	fld	ft2,296(sp)
  1c:	3765                	jal	ffffffc4 <_end+0xfeff94c8>
  1e:	2930                	fld	fa2,80(a0)
  20:	3120                	fld	fs0,96(a0)
  22:	2e30                	fld	fa2,88(a2)
  24:	2e32                	fld	ft8,264(sp)
  26:	0030                	addi	a2,sp,8

Disassembly of section .riscv.attributes:

00000000 <.riscv.attributes>:
   0:	2541                	jal	680 <__udivdi3-0x7ffd2c>
   2:	0000                	unimp
   4:	7200                	flw	fs0,32(a2)
   6:	7369                	lui	t1,0xffffa
   8:	01007663          	bgeu	zero,a6,14 <__udivdi3-0x800398>
   c:	0000001b          	0x1b
  10:	1004                	addi	s1,sp,32
  12:	7205                	lui	tp,0xfffe1
  14:	3376                	fld	ft6,376(sp)
  16:	6932                	flw	fs2,12(sp)
  18:	7032                	flw	ft0,44(sp)
  1a:	5f30                	lw	a2,120(a4)
  1c:	326d                	jal	fffff9c6 <_end+0xfeff8eca>
  1e:	3070                	fld	fa2,224(s0)
  20:	635f 7032 0030      	0x307032635f
