
/home/jongja.cho/Git/legacy/rebel_cds_collab_hw/bootloader/cp/tf-a/build/rebel_h/debug/bl2/bl2.elf:     file format elf64-littleaarch64
/home/jongja.cho/Git/legacy/rebel_cds_collab_hw/bootloader/cp/tf-a/build/rebel_h/debug/bl2/bl2.elf
architecture: aarch64, flags 0x00000112:
EXEC_P, HAS_SYMS, D_PAGED
start address 0x0000001e00030000

Program Header:
    LOAD off    0x0000000000001000 vaddr 0x0000001e00030000 paddr 0x0000001e00030000 align 2**12
         filesz 0x000000000000f000 memsz 0x000000000000f000 flags r-x
    LOAD off    0x0000000000010000 vaddr 0x0000001e0003f000 paddr 0x0000001e0003f000 align 2**12
         filesz 0x000000000000142a memsz 0x000000000000e000 flags rw-
   STACK off    0x0000000000000000 vaddr 0x0000000000000000 paddr 0x0000000000000000 align 2**4
         filesz 0x0000000000000000 memsz 0x0000000000000000 flags rw-
private flags = 0x0:

Sections:
Idx Name          Size      VMA               LMA               File off  Algn
  0 .ro           0000f000  0000001e00030000  0000001e00030000  00001000  2**11
                  CONTENTS, ALLOC, LOAD, READONLY, CODE
  1 .data         0000142a  0000001e0003f000  0000001e0003f000  00010000  2**3
                  CONTENTS, ALLOC, LOAD, DATA
  2 .stacks       00004000  0000001e00040440  0000001e00040440  0001142a  2**6
                  ALLOC
  3 .bss          00001750  0000001e00044440  0000001e00044440  0001142a  2**4
                  ALLOC
  4 .xlat_table   00007000  0000001e00046000  0000001e00046000  0001142a  2**12
                  ALLOC
  5 .coherent_ram 00000000  0000001e0004d000  0000001e0004d000  00012000  2**12
                  CONTENTS
  6 .debug_info   0010d456  0000000000000000  0000000000000000  00012000  2**0
                  CONTENTS, READONLY, DEBUGGING, OCTETS
  7 .debug_abbrev 0000658d  0000000000000000  0000000000000000  0011f456  2**0
                  CONTENTS, READONLY, DEBUGGING, OCTETS
  8 .debug_loc    00024d5a  0000000000000000  0000000000000000  001259e3  2**0
                  CONTENTS, READONLY, DEBUGGING, OCTETS
  9 .debug_aranges 00001df0  0000000000000000  0000000000000000  0014a740  2**4
                  CONTENTS, READONLY, DEBUGGING, OCTETS
 10 .debug_ranges 00004ee0  0000000000000000  0000000000000000  0014c530  2**4
                  CONTENTS, READONLY, DEBUGGING, OCTETS
 11 .debug_line   0001195c  0000000000000000  0000000000000000  00151410  2**0
                  CONTENTS, READONLY, DEBUGGING, OCTETS
 12 .debug_str    0003c87c  0000000000000000  0000000000000000  00162d6c  2**0
                  CONTENTS, READONLY, DEBUGGING, OCTETS
 13 .comment      00000044  0000000000000000  0000000000000000  0019f5e8  2**0
                  CONTENTS, READONLY
 14 .debug_frame  00003c70  0000000000000000  0000000000000000  0019f630  2**3
                  CONTENTS, READONLY, DEBUGGING, OCTETS
SYMBOL TABLE:
0000001e00030000 l    d  .ro	0000000000000000 .ro
0000001e0003f000 l    d  .data	0000000000000000 .data
0000001e00040440 l    d  .stacks	0000000000000000 .stacks
0000001e00044440 l    d  .bss	0000000000000000 .bss
0000001e00046000 l    d  .xlat_table	0000000000000000 .xlat_table
0000001e0004d000 l    d  .coherent_ram	0000000000000000 .coherent_ram
0000000000000000 l    d  .debug_info	0000000000000000 .debug_info
0000000000000000 l    d  .debug_abbrev	0000000000000000 .debug_abbrev
0000000000000000 l    d  .debug_loc	0000000000000000 .debug_loc
0000000000000000 l    d  .debug_aranges	0000000000000000 .debug_aranges
0000000000000000 l    d  .debug_ranges	0000000000000000 .debug_ranges
0000000000000000 l    d  .debug_line	0000000000000000 .debug_line
0000000000000000 l    d  .debug_str	0000000000000000 .debug_str
0000000000000000 l    d  .comment	0000000000000000 .comment
0000000000000000 l    d  .debug_frame	0000000000000000 .debug_frame
0000000000000000 l    df *ABS*	0000000000000000 bl2_entrypoint.o
0000000000000000 l    df *ABS*	0000000000000000 hbm3.c
0000001e00044840 l     O .bss	0000000000000440 hbm3_cfg
0000000000000000 l    df *ABS*	0000000000000000 icon.c
0000000000000000 l    df *ABS*	0000000000000000 tmrs.c
0000000000000000 l    df *ABS*	0000000000000000 bakery_lock.c
0000000000000000 l    df *ABS*	0000000000000000 bl2_arch_setup.c
0000000000000000 l    df *ABS*	0000000000000000 bl2_image_load_v2.c
0000000000000000 l    df *ABS*	0000000000000000 bl2_main.c
0000001e0003d938 l     O .ro	000000000000002e build_version_string
0000001e0003d966 l     O .ro	000000000000001e build_message
0000000000000000 l    df *ABS*	0000000000000000 backtrace.c
0000001e00031790 l     F .ro	0000000000000040 is_address_readable
0000001e000317d0 l     F .ro	000000000000005c is_valid_object.constprop.0
0000000000000000 l    df *ABS*	0000000000000000 bl_common.c
0000001e0003194c l     F .ro	0000000000000160 load_image
0000000000000000 l    df *ABS*	0000000000000000 desc_image_load.c
0000001e00044c80 l     O .bss	0000000000000010 next_bl_params
0000001e00044c90 l     O .bss	0000000000000010 bl_load_info
0000000000000000 l    df *ABS*	0000000000000000 tf_crc32.c
0000000000000000 l    df *ABS*	0000000000000000 tf_log.c
0000001e0003f3a8 l     O .data	0000000000000004 max_log_level
0000000000000000 l    df *ABS*	0000000000000000 pl330.c
0000001e00031e68 l     F .ro	0000000000000038 dma_pl330_gen_mov
0000001e00044ca0 l     O .bss	0000000000000090 pl330_data
0000001e0003d984 l     O .ro	000000000000000f __func__.0
0000000000000000 l    df *ABS*	0000000000000000 cmu.c
0000001e000324d8 l     F .ro	0000000000000034 cmu_find_pll_lvl
0000001e0003250c l     F .ro	00000000000001ac cmu_blk_cp_init
0000001e000326b8 l     F .ro	00000000000000f4 cmu_blk_pcie_init
0000001e000327ac l     F .ro	00000000000000d8 cmu_blk_rot_init
0000001e00032884 l     F .ro	0000000000000088 cmu_blk_peri_init
0000001e0003290c l     F .ro	0000000000000524 cmu_top_bus
0000001e0003c698 l     O .ro	00000000000000c8 pll_table_f0434
0000001e00032e30 l     F .ro	00000000000002b8 cmu_blk_dcl_init
0000001e0003c634 l     O .ro	0000000000000064 pll_table_f0435
0000000000000000 l    df *ABS*	0000000000000000 multi_console.c
0000001e0003f3ac l     O .data	0000000000000004 console_state
0000000000000000 l    df *ABS*	0000000000000000 delay_timer.c
0000001e00044d38 l     O .bss	0000000000000008 timer_ops
0000000000000000 l    df *ABS*	0000000000000000 generic_delay_timer.c
0000001e000339c0 l     F .ro	0000000000000024 generic_delay_timeout_init_us
0000001e000339e4 l     F .ro	0000000000000010 generic_delay_timeout_elapsed
0000001e000339f4 l     F .ro	000000000000000c generic_delay_get_timer_value
0000001e00044d40 l     O .bss	0000000000000020 ops
0000000000000000 l    df *ABS*	0000000000000000 hbm3_chipid.c
0000001e0003c400 l     O .ro	0000000000000018 old_lotid
0000000000000000 l    df *ABS*	0000000000000000 hbm3_init.c
0000001e00033bd0 l     F .ro	000000000000005c phy_post_training
0000001e00033c2c l     F .ro	0000000000000590 phy_find_read_training_fail_bit
0000001e000341bc l     F .ro	0000000000000598 phy_find_write_training_fail_bit
0000001e00034754 l     F .ro	0000000000000028 phy_acquire_vwm_buf
0000001e0003c7f4 l     O .ro	000000000000000a CSWTCH.192
0000001e00034b34 l     F .ro	0000000000000204 phy_pre_training
0000000000000000 l    df *ABS*	0000000000000000 io_storage.c
0000001e000389bc l     F .ro	0000000000000038 is_valid_dev
0000001e000389f4 l     F .ro	0000000000000030 is_valid_entity
0000001e00038a24 l     F .ro	0000000000000050 free_entity.isra.0
0000001e00044d60 l     O .bss	0000000000000020 entity_map
0000001e000455d0 l     O .bss	0000000000000004 entity_count
0000001e00044d80 l     O .bss	0000000000000040 entity_pool
0000000000000000 l    df *ABS*	0000000000000000 mailbox.c
0000001e0003c418 l     O .ro	00000000000000f0 mailbox_data
0000000000000000 l    df *ABS*	0000000000000000 gpt.c
0000000000000000 l    df *ABS*	0000000000000000 partition_simple.c
0000001e000455d4 l     O .bss	000000000000001c image_header
0000000000000000 l    df *ABS*	0000000000000000 smmu.c
0000001e000392d0 l     F .ro	0000000000000544 smmu_gen_pagetable
0000001e00045608 l     O .bss	0000000000000018 smmu_l1_pt_index
0000001e000455f4 l     O .bss	0000000000000014 smmu_l2_pt_index
0000001e000455f0 l     O .bss	0000000000000004 smmu_l3_pt_index
0000001e000451c0 l     O .bss	0000000000000030 smmu_l1_pt_base
0000001e00045198 l     O .bss	0000000000000028 smmu_l2_pt_base
0000001e00045190 l     O .bss	0000000000000008 smmu_l3_pt_base
0000001e0003f0e8 l     O .data	0000000000000028 region_info
0000001e0003f000 l     O .data	0000000000000028 region_info_cl3
0000001e0003f0c8 l     O .data	0000000000000020 pt_1g_region_info_cl3
0000001e0003f048 l     O .data	0000000000000080 pt_2m_region_info_cl3
0000001e0003f028 l     O .data	0000000000000020 pt_4k_region_info_cl3
0000001e0003f1b0 l     O .data	0000000000000020 pt_1g_region_info
0000001e0003f130 l     O .data	0000000000000080 pt_2m_region_info
0000001e0003f110 l     O .data	0000000000000020 pt_4k_region_info
0000000000000000 l    df *ABS*	0000000000000000 sic.c
0000001e00039bc8 l     F .ro	000000000000002c poll_reg_same_val.constprop.0.isra.0
0000000000000000 l    df *ABS*	0000000000000000 xlat_tables_arch.c
0000001e0003c774 l     O .ro	0000000000000020 pa_range_bits_arr
0000000000000000 l    df *ABS*	0000000000000000 xlat_tables_context.c
0000001e0003f1d0 l     O .data	0000000000000060 tf_xlat_ctx
0000001e000451f0 l     O .bss	0000000000000398 tf_mmap
0000001e00046000 l     O .xlat_table	0000000000007000 tf_xlat_tables
0000001e00045b80 l     O .bss	0000000000000010 tf_base_xlat_table
0000000000000000 l    df *ABS*	0000000000000000 xlat_tables_core.c
0000001e0003a130 l     F .ro	000000000000020c xlat_tables_map_region
0000001e0003d993 l     O .ro	0000000000000015 __func__.0
0000000000000000 l    df *ABS*	0000000000000000 xlat_tables_utils.c
0000000000000000 l    df *ABS*	0000000000000000 plat_common.c
0000001e0003c508 l     O .ro	0000000000000020 CSWTCH.3
0000000000000000 l    df *ABS*	0000000000000000 plat_bl_common.c
0000000000000000 l    df *ABS*	0000000000000000 plat_log_common.c
0000001e0003c528 l     O .ro	0000000000000028 plat_prefix_str
0000000000000000 l    df *ABS*	0000000000000000 rebel_h_bl2_setup.c
0000001e000455a8 l     O .bss	0000000000000028 rebel_console
0000001e0003f238 l     O .data	0000000000000170 bl2_mem_params_descs
0000000000000000 l    df *ABS*	0000000000000000 rebel_h_image_load.c
0000000000000000 l    df *ABS*	0000000000000000 rebel_h_plat.c
0000000000000000 l    df *ABS*	0000000000000000 rebel_h_pmu.c
0000000000000000 l    df *ABS*	0000000000000000 rebel_h_topology.c
0000000000000000 l    df *ABS*	0000000000000000 debug.o
0000001e0003d9a8 l       .ro	0000000000000000 panic_msg
0000001e0003b1f0 l       .ro	0000000000000000 panic_common
0000001e0003b218 l       .ro	0000000000000000 _panic_handler
0000000000000000 l    df *ABS*	0000000000000000 16550_console.o
0000001e0003b288 l       .ro	0000000000000000 init_fail
0000001e0003b2d8 l       .ro	0000000000000000 register_fail
0000001e0003b2ac l       .ro	0000000000000000 register_16550
0000000000000000 l    df *ABS*	0000000000000000 cache_helpers.o
0000001e0003b3bc l       .ro	0000000000000000 exit_loop_civac
0000001e0003b3a8 l       .ro	0000000000000000 loop_civac
0000001e0003b3f4 l       .ro	0000000000000000 exit_loop_ivac
0000001e0003b3e0 l       .ro	0000000000000000 loop_ivac
0000000000000000 l    df *ABS*	0000000000000000 misc_helpers.o
0000001e0003b404 l     F .ro	0000000000000114 zeromem_dczva
0000000000000000 l    df *ABS*	0000000000000000 enable_mmu.o
0000000000000000 l    df *ABS*	0000000000000000 platform_helpers.o
0000000000000000 l    df *ABS*	0000000000000000 platform_mp_stack.o
0000001e00040440 l       .stacks	0000000000000000 platform_normal_stacks
0000000000000006 l       *ABS*	0000000000000000 TZ_COUNT
0000000000000000 l    df *ABS*	0000000000000000 plat_helper.o
0000000000000000 l    df *ABS*	0000000000000000 assert.c
0000000000000000 l    df *ABS*	0000000000000000 memcpy.c
0000000000000000 l    df *ABS*	0000000000000000 memmove.c
0000000000000000 l    df *ABS*	0000000000000000 printf.c
0000001e0003b670 l     F .ro	00000000000000f4 unsigned_num_print.part.0
0000000000000000 l    df *ABS*	0000000000000000 snprintf.c
0000001e0003bc60 l     F .ro	0000000000000130 unsigned_num_print
0000000000000000 l    df *ABS*	0000000000000000 strlen.c
0000000000000000 l    df *ABS*	0000000000000000 strncmp.c
0000000000000000 l    df *ABS*	0000000000000000 memset.c
0000000000000000 l    df *ABS*	0000000000000000 early_exceptions.o
0000001e0003e000 l     F .ro	0000000000000000 SynchronousExceptionSP0
0000001e0003e080 l     F .ro	0000000000000000 IrqSP0
0000001e0003e100 l     F .ro	0000000000000000 FiqSP0
0000001e0003e180 l     F .ro	0000000000000000 SErrorSP0
0000001e0003e200 l     F .ro	0000000000000000 SynchronousExceptionSPx
0000001e0003e280 l     F .ro	0000000000000000 IrqSPx
0000001e0003e300 l     F .ro	0000000000000000 FiqSPx
0000001e0003e380 l     F .ro	0000000000000000 SErrorSPx
0000001e0003e400 l     F .ro	0000000000000000 SynchronousExceptionA64
0000001e0003e480 l     F .ro	0000000000000000 IrqA64
0000001e0003e500 l     F .ro	0000000000000000 FiqA64
0000001e0003e580 l     F .ro	0000000000000000 SErrorA64
0000001e0003e600 l     F .ro	0000000000000000 SynchronousExceptionA32
0000001e0003e680 l     F .ro	0000000000000000 IrqA32
0000001e0003e700 l     F .ro	0000000000000000 FiqA32
0000001e0003e780 l     F .ro	0000000000000000 SErrorA32
0000001e00033858 g     F .ro	0000000000000028 putchar
0000001e000314fc g     F .ro	0000000000000040 tmrs_gen_inst
0000001e00033788 g     F .ro	0000000000000028 console_set_scope
0000001e00033964 g     F .ro	0000000000000028 mdelay
0000001e00045b80 g       .bss	0000000000000000 __PMF_TIMESTAMP_START__
0000001e00039268 g     F .ro	0000000000000010 gpt_get_length_by_entry
0000001e00033724 g     F .ro	0000000000000064 console_register
0000001e00038f24 g     F .ro	00000000000000b0 load_partition_gpt
0000001e0004d000 g       .coherent_ram	0000000000000000 __COHERENT_RAM_END__
0000001e0003b36c g     F .ro	000000000000001c console_16550_flush
0000001e0003b3fc g     F .ro	0000000000000008 zeromem
0000001e0003b1e8 g     F .ro	0000000000000008 asm_print_newline
0000001e0003918c g     F .ro	0000000000000070 load_partition_table
0000001e0003bc0c g     F .ro	0000000000000054 printf
0000001e00045588 g     O .bss	0000000000000018 mmu_cfg_params
0000001e0003a6d8 g     F .ro	0000000000000004 xlat_tables_print
0000001e0003b15c g     F .ro	000000000000003c plat_core_pos_by_mpidr
0000001e0003f000 g       .ro	0000000000000000 __RW_START__
0000001e0003b2dc g     F .ro	000000000000004c console_16550_core_putc
0000001e00039fc8 g     F .ro	0000000000000048 enable_mmu_el1
0000001e0003f3b4 g     O .data	0000000000000700 rx_lane
0000001e0003b3f8 g     F .ro	0000000000000004 smc
0000001e00030868 g     F .ro	0000000000000124 icon_rx_lane_search
0000001e0003032c g     F .ro	0000000000000074 phy_dq_offset_control
0000001e0003a6dc g     F .ro	0000000000000024 get_el_str
0000001e00046000 g       .xlat_table	0000000000000000 __XLAT_TABLE_START__
0000001e0003b518 g     F .ro	0000000000000070 enable_mmu_direct_el1
0000001e0003a74c g     F .ro	0000000000000130 bl2_plat_arch_setup
0000001e0003b328 g     F .ro	000000000000001c console_16550_putc
0000001e0003b198 g     F .ro	0000000000000008 asm_assert
0000001e0003923c g     F .ro	000000000000002c gpt_get_address_by_entry
0000001e0003b63c g     F .ro	0000000000000034 memmove
0000001e00039e60 g     F .ro	00000000000000e0 setup_mmu_cfg
0000001e0003c2e4 g     F .ro	0000000000000050 snprintf
0000001e00044e18 g     O .bss	0000000000000378 list
0000001e00033328 g     F .ro	0000000000000240 cmu_blk_dram_init_evt1
0000001e0003a71c  w    F .ro	0000000000000030 plat_log_get_prefix
0000001e0003b588  w    F .ro	0000000000000004 plat_report_exception
0000001e0003778c g     F .ro	000000000000026c phy_dcm_init
0000001e00030618 g     F .ro	000000000000009c icon_test_instruction_req
0000001e0003b000 g     F .ro	0000000000000030 plat_set_cpu_rvbar
0000001e000350d8 g     F .ro	00000000000001f4 phy_find_min_result
0000001e000307cc g     F .ro	000000000000009c icon_lane_repair
0000001e00039f74 g     F .ro	0000000000000054 init_xlat_tables
0000001e000349e4 g     F .ro	0000000000000070 get_write_latency
0000001e0003f000 g       .data	0000000000000000 __DATA_START__
0000001e00045958 g     O .bss	0000000000000200 mbr_sector
0000001e000302e0 g     F .ro	0000000000000040 phy_set_read_vref
0000001e00034a54 g     F .ro	00000000000000e0 icon_mrs
0000001e00034d38 g     F .ro	00000000000001a0 tmrs_default_set
0000001e00035c40 g     F .ro	0000000000000024 phy_vwm_sum_margin
0000001e00039db0 g     F .ro	000000000000002c xlat_arch_regime_get_xn_desc
0000001e00030c74 g     F .ro	0000000000000154 icon_tx_lane_search
0000001e0003afe4 g     F .ro	0000000000000004 bl2_platform_setup
0000001e00038544 g     F .ro	0000000000000478 hbm3_init
0000001e0003b61c g     F .ro	0000000000000020 memcpy
0000001e00031f68 g     F .ro	0000000000000448 dma_start
0000001e00031b7c g     F .ro	000000000000001c flush_bl_params_desc
0000001e0003b404 g     F .ro	0000000000000114 zero_normalmem
0000001e0003bd90 g     F .ro	0000000000000554 vsnprintf
0000001e00044440 g     O .bss	0000000000000400 mcode
0000001e0003afe8 g     F .ro	000000000000000c plat_get_syscnt_freq2
0000001e00044dc8 g     O .bss	0000000000000050 binary_size
0000001e0003b58c  w    F .ro	0000000000000008 plat_panic_handler
0000001e0003aff4 g     F .ro	0000000000000004 plat_flush_next_bl_params
0000001e0003da28 g       .ro	0000000000000000 __RT_SVC_DESCS_START__
0000001e00044440 g       .stacks	0000000000000000 __STACKS_END__
0000001e00034ed8 g     F .ro	0000000000000070 set_tmrs
0000001e00038d48 g     F .ro	000000000000004c ipm_samsung_send
0000001e0003f230 g     O .data	0000000000000008 bl_mem_params_desc_ptr
0000001e00038ba8 g     F .ro	000000000000005c io_size
0000001e00030700 g     F .ro	00000000000000cc icon_hbm_reset
0000001e000357f0 g     F .ro	0000000000000104 phy_read_training_LFSR_seed
0000001e0003b5b0  w    F .ro	0000000000000010 plat_set_my_stack
0000001e0003da28 g       .ro	0000000000000000 __RT_SVC_DESCS_END__
0000001e00031b98 g     F .ro	0000000000000064 get_bl_params_node_index
0000001e00033a94 g     F .ro	000000000000013c get_lotid_for_hbm
0000001e0003b030 g     F .ro	0000000000000038 plat_pmu_cl_on
0000001e0003b1b8 g     F .ro	0000000000000030 asm_print_hex
0000001e0003636c g     F .ro	0000000000000164 phy_prbs_write_training
0000000000001750 g       *ABS*	0000000000000000 __BSS_SIZE__
0000001e0003b1a0 g     F .ro	0000000000000018 asm_print_str
0000001e00045818 g     O .bss	00000000000000a0 max_vwm_buf
0000001e0003489c g     F .ro	00000000000000c8 hbm3_dfi_init
0000001e0003e000 g       .ro	0000000000000000 early_exceptions
0000001e00037f34 g     F .ro	0000000000000114 set_errata_tmrs
0000001e0003b344 g     F .ro	0000000000000028 console_16550_core_flush
0000001e000335c8 g     F .ro	0000000000000120 cmu_init_bl2
0000001e0003b5f4 g     F .ro	000000000000000c plat_crash_console_flush
0000001e000364d0 g     F .ro	00000000000000b4 phy_wdqs2ck_training
0000001e0003b0d0 g     F .ro	000000000000008c pmu_reset_blk_dram
0000001e0003a700  w    F .ro	0000000000000008 plat_error_handler
0000001e00030dc8 g     F .ro	000000000000035c icon_tx_extest
0000001e0003a714  w    F .ro	0000000000000008 bl2_plat_handle_post_image_load
0000001e0003e800 g       .ro	0000000000000000 __RO_END_UNALIGNED__
0000001e00030000 g       .ro	0000000000000000 RAM_REGION_START
0000001e00038fd4 g     F .ro	00000000000000a8 load_gpt_header
0000001e000337b0 g     F .ro	00000000000000a8 console_putc
0000001e00035010 g     F .ro	00000000000000c8 phy_write_training_fail_check
0000001e00036584 g     F .ro	00000000000000a4 phy_prbs_training
0000001e0003b5c8 g     F .ro	0000000000000020 plat_crash_console_init
0000001e0003b388 g     F .ro	0000000000000038 flush_dcache_range
0000001e00038438 g     F .ro	000000000000010c hbm3_run_phy_training
0000001e00036628 g     F .ro	00000000000007f8 phy_recv_offset_calibration
0000001e00037c7c g     F .ro	0000000000000170 hbm3_phy_training_evt0
0000001e000401fa g     O .data	0000000000000038 dbi_lane
0000001e0003398c g     F .ro	0000000000000034 timer_init
0000001e00031c60 g     F .ro	000000000000011c get_next_bl_params_from_mem_params_desc
0000001e00036208 g     F .ro	0000000000000164 phy_prbs_read_training
0000001e0003da28 g       .ro	0000000000000000 __PMF_SVC_DESCS_END__
0000001e0003182c g     F .ro	0000000000000120 backtrace
0000001e00039d98 g     F .ro	0000000000000018 xlat_get_min_virt_addr_space_size
0000001e00038048 g     F .ro	00000000000003ac hbm3_ctrl_phy_init
0000001e0004d000 g       .xlat_table	0000000000000000 RAM_REGION_END
0000001e0003a87c g     F .ro	0000000000000090 tzpc_init_sysreg_bl2
0000001e00038efc g     F .ro	0000000000000028 load_gpt_entry
0000001e0003b764 g     F .ro	00000000000004a8 vprintf
0000001e00035b00 g     F .ro	0000000000000140 phy_write_training_LFSR
0000001e00037600 g     F .ro	000000000000018c phy_dca_training
0000001e00031438 g     F .ro	000000000000007c icon_rd_feedback
0000001e00037c2c g     F .ro	0000000000000050 hbm3_phy_training_step1
0000001e0003aff8 g     F .ro	0000000000000004 plat_get_bl_image_load_info
0000001e00037588 g     F .ro	0000000000000078 phy_rx_io_setting
0000001e00031590 g     F .ro	0000000000000034 rebel_bakery_lock_init
0000001e000312e8 g     F .ro	0000000000000104 icon_extest
0000001e00031aac g     F .ro	0000000000000090 load_auth_image
0000001e0004024e g     O .data	000000000000001c ecc_lane
0000001e0004d000 g       .xlat_table	0000000000000000 __BL2_END__
0000001e00034f48 g     F .ro	00000000000000c8 phy_read_training_fail_check
0000001e00039ddc g     F .ro	000000000000001c xlat_arch_current_el
0000001e0003098c g     F .ro	00000000000002e8 icon_rx_extest
0000001e000379f8 g     F .ro	00000000000000a0 phy_training_all
0000001e00033568 g     F .ro	0000000000000030 cmu_blk_dram_init_evt0_by_freq
0000001e00039cec g     F .ro	0000000000000014 xlat_arch_get_pas
0000001e000301f4 g     F .ro	00000000000000ec mrw_phy_direct_cmd
0000001e00030548 g     F .ro	0000000000000068 hbm3_config_init
0000001e00045b80 g       .bss	0000000000000000 __PMF_PERCPU_TIMESTAMP_END__
0000001e0003171c g     F .ro	0000000000000074 bl2_main
0000001e0003c350 g     F .ro	0000000000000038 strncmp
0000001e0004042a g       .data	0000000000000000 __DATA_END__
0000001e0003b1bc g       .ro	0000000000000000 asm_print_hex_bits
0000001e00045b80 g       .bss	0000000000000000 __BASE_XLAT_TABLE_START__
0000001e0003da28 g       .ro	0000000000000000 __CPU_OPS_START__
0000001e000338d4 g     F .ro	0000000000000090 udelay
0000001e000313ec g     F .ro	000000000000004c icon_mrs_ch
0000001e00039d00 g     F .ro	0000000000000064 tcr_physical_addr_size_bits
0000001e0003b3c0 g     F .ro	0000000000000038 inv_dcache_range
0000001e00030000 g     F .ro	0000000000000098 bl2_entrypoint
0000001e000305b0 g     F .ro	0000000000000034 wait_for_test_instruction_req_done
0000001e000303f4 g     F .ro	0000000000000054 phy_sev_offset_control
0000001e000314b4 g     F .ro	0000000000000048 tmrs_write
0000001e00033a38 g     F .ro	000000000000005c generic_delay_timer_init
0000001e0003153c g     F .ro	0000000000000054 tmrs_bypass
0000001e00033a00 g     F .ro	0000000000000038 generic_delay_timer_init_args
0000001e000300c8 g     F .ro	0000000000000064 phy_do_training
0000001e0003a010 g     F .ro	0000000000000120 xlat_desc
0000001e00030448 g     F .ro	0000000000000094 phy_dbi_offset_control
0000001e00045b80 g       .bss	0000000000000000 __BSS_END__
0000001e0003da28 g       .ro	0000000000000000 __CPU_OPS_END__
0000001e0004026a g     O .data	00000000000001c0 dq_lane
0000001e00038c78 g     F .ro	0000000000000058 io_close
0000001e000306b4 g     F .ro	000000000000004c icon_sw_instruction_req
0000001e00035638 g     F .ro	00000000000000c8 phy_read_training
0000001e0004d000 g       .coherent_ram	0000000000000000 __COHERENT_RAM_START__
0000001e00038ebc g     F .ro	0000000000000018 gpt_get_image_header
0000001e0003da28 g       .ro	0000000000000000 __GOT_END__
0000001e0003c388 g     F .ro	0000000000000074 memset
0000001e0003b290 g     F .ro	000000000000004c console_16550_register
0000001e0003da28 g       .ro	0000000000000000 __PARSER_LIB_DESCS_END__
0000001e000358f4 g     F .ro	00000000000000c4 phy_read_training_LFSR
0000000000000000 g       *ABS*	0000000000000000 __COHERENT_RAM_UNALIGNED_SIZE__
0000001e0003f3b0 g     O .data	0000000000000004 bl_mem_params_desc_num
0000001e000323b0 g     F .ro	0000000000000038 dma_init
0000001e00033598 g     F .ro	0000000000000030 cmu_blk_dram_init_evt1_by_freq
0000001e00038e98 g     F .ro	0000000000000024 gpt_32bit_memcpy
0000001e0003a708  w    F .ro	0000000000000004 bl2_plat_preload_setup
0000001e00039d64 g     F .ro	0000000000000034 xlat_arch_get_max_supported_pa
0000001e00035400 g     F .ro	0000000000000138 phy_update_ca_ra_deskew
0000001e000315d0 g     F .ro	000000000000014c bl2_load_images
0000001e000383f4 g     F .ro	0000000000000044 hbm_ecc_scrub_init
0000001e000315c4 g     F .ro	000000000000000c bl2_arch_setup
0000001e0003da28 g       .ro	0000000000000000 __GOT_START__
0000001e00034964 g     F .ro	0000000000000080 get_read_latency
0000000000000000 g       *ABS*	0000000000000000 __PERCPU_TIMESTAMP_SIZE__
0000001e000300b4 g     F .ro	0000000000000014 get_phy_lock_value
0000001e0003da28 g       .ro	0000000000000000 __FCONF_POPULATOR_END__
0000001e00031b3c g     F .ro	0000000000000040 flush_bl_params_desc_args
0000001e0003a90c g     F .ro	00000000000006d8 bl2_early_platform_setup2
0000001e000352cc g     F .ro	0000000000000134 phy_get_training_result
0000001e000305e4 g     F .ro	0000000000000034 wait_for_test_instruction_req_done_clear
0000001e00037dec g     F .ro	0000000000000148 hbm3_phy_training_evt1
0000001e00045b90 g       .bss	0000000000000000 __BASE_XLAT_TABLE_END__
0000001e0003b0a8 g     F .ro	0000000000000018 plat_set_secondary_chiplet_cnt
0000001e00039bf4 g     F .ro	00000000000000f8 request_to_cmrt
0000001e00038ed4 g     F .ro	0000000000000028 gpt_set_gpt_image_addr
0000001e0003b0c0 g     F .ro	0000000000000010 pmu_get_bootmode
0000001e00031ea0 g     F .ro	00000000000000c8 dma_configure
0000001e00033880 g     F .ro	0000000000000054 console_flush
0000001e0003f000 g       .ro	0000000000000000 __RO_END__
0000001e000390bc g     F .ro	00000000000000d0 load_mbr_header
0000001e00038c04 g     F .ro	0000000000000074 io_read
0000001e00035c88 g     F .ro	00000000000001e0 phy_write_vref_training
0000001e000323e8 g     F .ro	00000000000000f0 dma_load_image
0000001e000330e8 g     F .ro	0000000000000240 cmu_blk_dram_init_evt0
0000001e000391fc g     F .ro	0000000000000040 gpt_load_binary_length
0000001e00044440 g       .bss	0000000000000000 __BSS_START__
0000001e00035e68 g     F .ro	00000000000003a0 phy_read_vref_training_LFSR_vertical
0000001e000456d0 g     O .bss	0000000000000148 max_offset_buf
0000001e00030000 g       .ro	0000000000000000 __RO_START__
0000001e0003a33c g     F .ro	000000000000023c mmap_add_region_ctx
0000001e0003da28 g       .ro	0000000000000000 __PMF_SVC_DESCS_START__
0000001e0003b068 g     F .ro	0000000000000040 plat_pmu_cpu_on
0000001e0003b5e8 g     F .ro	000000000000000c plat_crash_console_putc
0000001e000359b8 g     F .ro	0000000000000148 phy_write_training_LFSR_seed
0000001e00038ac4 g     F .ro	00000000000000e4 io_open
0000001e0003907c g     F .ro	0000000000000040 load_primary_gpt
0000001e000336e8 g     F .ro	000000000000003c console_is_registered
0000001e00030320 g     F .ro	000000000000000c phy_set_write_vref
0000001e00039df8 g     F .ro	0000000000000068 is_mmu_enabled_ctx
0000001e0003b5c8 g     F .ro	0000000000000000 plat_get_image_source
0000001e000301a8 g     F .ro	000000000000004c phy_update_dll_code
0000001e00031db4 g     F .ro	00000000000000b4 tf_log
0000001e00036e20 g     F .ro	0000000000000768 phy_command_training
0000001e0003da28 g       .ro	0000000000000000 __FCONF_POPULATOR_START__
0000000000020000 g       *ABS*	0000000000000000 RAM_REGION_LENGTH
0000001e0004d000 g       .xlat_table	0000000000000000 __RW_END__
0000001e0004d000 g       .coherent_ram	0000000000000000 __COHERENT_RAM_END_UNALIGNED__
0000001e00035700 g     F .ro	00000000000000f0 phy_write_training
0000001e00031bfc g     F .ro	0000000000000064 get_bl_load_info_from_mem_params_desc
0000001e00040440 g       .stacks	0000000000000000 __STACKS_START__
0000001e00031d7c g     F .ro	0000000000000038 tf_crc32
0000001e00045b80 g       .bss	0000000000000000 __PMF_TIMESTAMP_END__
0000001e00038d94 g     F .ro	0000000000000104 parse_gpt_entry
0000001e0003a578 g     F .ro	000000000000015c init_xlat_tables_ctx
0000001e00035538 g     F .ro	0000000000000100 phy_search_ca_ra_deskew
0000001e0004d000 g       .xlat_table	0000000000000000 __XLAT_TABLE_END__
0000001e000458b8 g     O .bss	00000000000000a0 vwm_buf
0000001e0003b5c0 g     F .ro	0000000000000008 plat_my_core_pos
0000001e0003a70c  w    F .ro	0000000000000008 bl2_plat_handle_pre_image_load
0000001e0003c334 g     F .ro	000000000000001c strlen
0000001e00031124 g     F .ro	00000000000001c4 hbm3_lane_repair
0000001e0003012c g     F .ro	000000000000007c phy_gen_pattern
0000001e00039278 g     F .ro	0000000000000058 gpt_partition_init
0000001e00038a74 g     F .ro	0000000000000050 io_dev_close
0000001e0003b600 g     F .ro	000000000000001c __assert
0000001e0003b1f0 g     F .ro	0000000000000030 el3_panic
0000001e00044dc0 g     O .bss	0000000000000008 gpt_image_addr
0000001e0003a6d4 g     F .ro	0000000000000004 xlat_mmap_print
0000001e0003477c g     F .ro	0000000000000120 enable_hashing
0000001e0003b220 g     F .ro	0000000000000070 console_16550_core_init
0000001e00040232 g     O .data	000000000000001c sev_lane
0000001e00037a98 g     F .ro	0000000000000194 hbm3_phy_training_step2
0000001e000304dc g     F .ro	0000000000000034 phy_rdqs_offset_control
0000001e00044d30 g     O .bss	0000000000000008 console_list
0000001e0003affc g     F .ro	0000000000000004 plat_get_next_bl_params
0000001e00030098 g     F .ro	000000000000001c get_hbm_cfg
0000001e0003fab4 g     O .data	0000000000000746 tx_lane
0000001e000303a0 g     F .ro	0000000000000054 phy_ecc_offset_control
0000001e0003b594  w    F .ro	000000000000001c plat_get_my_stack
0000001e00038cd0 g     F .ro	0000000000000078 ipm_samsung_write
0000001e00039f40 g     F .ro	0000000000000034 mmap_add_region
0000001e000455a0 g     O .bss	0000000000000008 plat_try_img_ops
0000001e00039814 g     F .ro	00000000000003b4 smmu_early_init
0000001e0003da28 g       .ro	0000000000000000 __PARSER_LIB_DESCS_START__
0000001e000456c0 g     O .bss	0000000000000010 rep_status
0000001e00030510 g     F .ro	0000000000000038 phy_offset_update
0000001e00045620 g     O .bss	00000000000000a0 ch_rep_lane
0000001e00035c64 g     F .ro	0000000000000024 phy_vwm_shitf_window



Disassembly of section .ro:

0000001e00030000 <bl2_entrypoint>:
  1e00030000:	aa0003f4 	mov	x20, x0
  1e00030004:	aa0103f5 	mov	x21, x1
  1e00030008:	aa0203f6 	mov	x22, x2
  1e0003000c:	aa0303f7 	mov	x23, x3
  1e00030010:	1006ff80 	adr	x0, 1e0003e000 <SynchronousExceptionSP0>
  1e00030014:	d518c000 	msr	vbar_el1, x0
  1e00030018:	d5033fdf 	isb
  1e0003001c:	d50344ff 	msr	daifclr, #0x4
  1e00030020:	d2820141 	mov	x1, #0x100a                	// #4106
  1e00030024:	d5381000 	mrs	x0, sctlr_el1
  1e00030028:	aa010000 	orr	x0, x0, x1
  1e0003002c:	9253f800 	and	x0, x0, #0xffffefffffffffff
  1e00030030:	d5181000 	msr	sctlr_el1, x0
  1e00030034:	d5033fdf 	isb
  1e00030038:	10077e40 	adr	x0, 1e0003f000 <__RO_END__>
  1e0003003c:	100e7e21 	adr	x1, 1e0004d000 <RAM_REGION_END>
  1e00030040:	cb000021 	sub	x1, x1, x0
  1e00030044:	94002cdf 	bl	1e0003b3c0 <inv_dcache_range>
  1e00030048:	900000a0 	adrp	x0, 1e00044000 <__STACKS_START__+0x3bc0>
  1e0003004c:	91110000 	add	x0, x0, #0x440
  1e00030050:	b00000a1 	adrp	x1, 1e00045000 <list+0x1e8>
  1e00030054:	912e0021 	add	x1, x1, #0xb80
  1e00030058:	cb000021 	sub	x1, x1, x0
  1e0003005c:	94002ce8 	bl	1e0003b3fc <zeromem>
  1e00030060:	b00000e0 	adrp	x0, 1e0004d000 <RAM_REGION_END>
  1e00030064:	91000000 	add	x0, x0, #0x0
  1e00030068:	b00000e1 	adrp	x1, 1e0004d000 <RAM_REGION_END>
  1e0003006c:	91000021 	add	x1, x1, #0x0
  1e00030070:	cb000021 	sub	x1, x1, x0
  1e00030074:	94002ce2 	bl	1e0003b3fc <zeromem>
  1e00030078:	94002d4e 	bl	1e0003b5b0 <plat_set_my_stack>
  1e0003007c:	aa1403e0 	mov	x0, x20
  1e00030080:	aa1503e1 	mov	x1, x21
  1e00030084:	aa1603e2 	mov	x2, x22
  1e00030088:	aa1703e3 	mov	x3, x23
  1e0003008c:	940005a4 	bl	1e0003171c <bl2_main>
  1e00030090:	94002d3f 	bl	1e0003b58c <plat_panic_handler>
  1e00030094:	d503201f 	nop

0000001e00030098 <get_hbm_cfg>:
  1e00030098:	900000a2 	adrp	x2, 1e00044000 <__STACKS_START__+0x3bc0>
  1e0003009c:	91210042 	add	x2, x2, #0x840
  1e000300a0:	52802201 	mov	w1, #0x110                 	// #272
  1e000300a4:	7100101f 	cmp	w0, #0x4
  1e000300a8:	9ba10801 	umaddl	x1, w0, w1, x2
  1e000300ac:	9a9f3020 	csel	x0, x1, xzr, cc	// cc = lo, ul, last
  1e000300b0:	d65f03c0 	ret

0000001e000300b4 <get_phy_lock_value>:
  1e000300b4:	92401c21 	and	x1, x1, #0xff
  1e000300b8:	f8617800 	ldr	x0, [x0, x1, lsl #3]
  1e000300bc:	b940b000 	ldr	w0, [x0, #176]
  1e000300c0:	92402400 	and	x0, x0, #0x3ff
  1e000300c4:	d65f03c0 	ret

0000001e000300c8 <phy_do_training>:
  1e000300c8:	a9bd7bfd 	stp	x29, x30, [sp, #-48]!
  1e000300cc:	910003fd 	mov	x29, sp
  1e000300d0:	a90153f3 	stp	x19, x20, [sp, #16]
  1e000300d4:	d37d1c34 	ubfiz	x20, x1, #3, #8
  1e000300d8:	aa0003f3 	mov	x19, x0
  1e000300dc:	a9025bf5 	stp	x21, x22, [sp, #32]
  1e000300e0:	8b140016 	add	x22, x0, x20
  1e000300e4:	f8746801 	ldr	x1, [x0, x20]
  1e000300e8:	b9401420 	ldr	w0, [x1, #20]
  1e000300ec:	32000000 	orr	w0, w0, #0x1
  1e000300f0:	b9001420 	str	w0, [x1, #20]
  1e000300f4:	f94002c0 	ldr	x0, [x22]
  1e000300f8:	b9401415 	ldr	w21, [x0, #20]
  1e000300fc:	52800020 	mov	w0, #0x1                   	// #1
  1e00030100:	d3471eb5 	ubfx	x21, x21, #7, #1
  1e00030104:	94000df4 	bl	1e000338d4 <udelay>
  1e00030108:	34ffff75 	cbz	w21, 1e000300f4 <phy_do_training+0x2c>
  1e0003010c:	f8746a61 	ldr	x1, [x19, x20]
  1e00030110:	b9401420 	ldr	w0, [x1, #20]
  1e00030114:	121f7800 	and	w0, w0, #0xfffffffe
  1e00030118:	b9001420 	str	w0, [x1, #20]
  1e0003011c:	a94153f3 	ldp	x19, x20, [sp, #16]
  1e00030120:	a9425bf5 	ldp	x21, x22, [sp, #32]
  1e00030124:	a8c37bfd 	ldp	x29, x30, [sp], #48
  1e00030128:	d65f03c0 	ret

0000001e0003012c <phy_gen_pattern>:
  1e0003012c:	a9be7bfd 	stp	x29, x30, [sp, #-32]!
  1e00030130:	910003fd 	mov	x29, sp
  1e00030134:	a90153f3 	stp	x19, x20, [sp, #16]
  1e00030138:	d37d1c34 	ubfiz	x20, x1, #3, #8
  1e0003013c:	aa0003f3 	mov	x19, x0
  1e00030140:	f8746801 	ldr	x1, [x0, x20]
  1e00030144:	b9442020 	ldr	w0, [x1, #1056]
  1e00030148:	320d0000 	orr	w0, w0, #0x80000
  1e0003014c:	b9042020 	str	w0, [x1, #1056]
  1e00030150:	52800140 	mov	w0, #0xa                   	// #10
  1e00030154:	94000de0 	bl	1e000338d4 <udelay>
  1e00030158:	f8746a61 	ldr	x1, [x19, x20]
  1e0003015c:	b9442020 	ldr	w0, [x1, #1056]
  1e00030160:	120c7800 	and	w0, w0, #0xfff7ffff
  1e00030164:	b9042020 	str	w0, [x1, #1056]
  1e00030168:	52800140 	mov	w0, #0xa                   	// #10
  1e0003016c:	94000dda 	bl	1e000338d4 <udelay>
  1e00030170:	f8746a61 	ldr	x1, [x19, x20]
  1e00030174:	b9442020 	ldr	w0, [x1, #1056]
  1e00030178:	320d0000 	orr	w0, w0, #0x80000
  1e0003017c:	b9042020 	str	w0, [x1, #1056]
  1e00030180:	52800140 	mov	w0, #0xa                   	// #10
  1e00030184:	94000dd4 	bl	1e000338d4 <udelay>
  1e00030188:	f8746a61 	ldr	x1, [x19, x20]
  1e0003018c:	b9442020 	ldr	w0, [x1, #1056]
  1e00030190:	120c7800 	and	w0, w0, #0xfff7ffff
  1e00030194:	b9042020 	str	w0, [x1, #1056]
  1e00030198:	52800140 	mov	w0, #0xa                   	// #10
  1e0003019c:	a94153f3 	ldp	x19, x20, [sp, #16]
  1e000301a0:	a8c27bfd 	ldp	x29, x30, [sp], #32
  1e000301a4:	14000dcc 	b	1e000338d4 <udelay>

0000001e000301a8 <phy_update_dll_code>:
  1e000301a8:	a9be7bfd 	stp	x29, x30, [sp, #-32]!
  1e000301ac:	910003fd 	mov	x29, sp
  1e000301b0:	a90153f3 	stp	x19, x20, [sp, #16]
  1e000301b4:	92401c34 	and	x20, x1, #0xff
  1e000301b8:	aa0003f3 	mov	x19, x0
  1e000301bc:	f8747801 	ldr	x1, [x0, x20, lsl #3]
  1e000301c0:	b9403020 	ldr	w0, [x1, #48]
  1e000301c4:	32170000 	orr	w0, w0, #0x200
  1e000301c8:	b9003020 	str	w0, [x1, #48]
  1e000301cc:	52800020 	mov	w0, #0x1                   	// #1
  1e000301d0:	94000dc1 	bl	1e000338d4 <udelay>
  1e000301d4:	f8747a61 	ldr	x1, [x19, x20, lsl #3]
  1e000301d8:	b9403020 	ldr	w0, [x1, #48]
  1e000301dc:	12167800 	and	w0, w0, #0xfffffdff
  1e000301e0:	b9003020 	str	w0, [x1, #48]
  1e000301e4:	52800020 	mov	w0, #0x1                   	// #1
  1e000301e8:	a94153f3 	ldp	x19, x20, [sp, #16]
  1e000301ec:	a8c27bfd 	ldp	x29, x30, [sp], #32
  1e000301f0:	14000db9 	b	1e000338d4 <udelay>

0000001e000301f4 <mrw_phy_direct_cmd>:
  1e000301f4:	a9bd7bfd 	stp	x29, x30, [sp, #-48]!
  1e000301f8:	12001c63 	and	w3, w3, #0xff
  1e000301fc:	12001042 	and	w2, w2, #0x1f
  1e00030200:	910003fd 	mov	x29, sp
  1e00030204:	a90153f3 	stp	x19, x20, [sp, #16]
  1e00030208:	d37d1c34 	ubfiz	x20, x1, #3, #8
  1e0003020c:	aa0003f3 	mov	x19, x0
  1e00030210:	f8746801 	ldr	x1, [x0, x20]
  1e00030214:	f90013f5 	str	x21, [sp, #32]
  1e00030218:	8b140015 	add	x21, x0, x20
  1e0003021c:	b9441c20 	ldr	w0, [x1, #1052]
  1e00030220:	321b0000 	orr	w0, w0, #0x20
  1e00030224:	b9041c20 	str	w0, [x1, #1052]
  1e00030228:	f8746a61 	ldr	x1, [x19, x20]
  1e0003022c:	b9441c20 	ldr	w0, [x1, #1052]
  1e00030230:	32000000 	orr	w0, w0, #0x1
  1e00030234:	b9041c20 	str	w0, [x1, #1052]
  1e00030238:	d2820280 	mov	x0, #0x1014                	// #4116
  1e0003023c:	f2a004a0 	movk	x0, #0x25, lsl #16
  1e00030240:	f2c003c0 	movk	x0, #0x1e, lsl #32
  1e00030244:	b9400000 	ldr	w0, [x0]
  1e00030248:	72080c1f 	tst	w0, #0xf000000
  1e0003024c:	f8746a60 	ldr	x0, [x19, x20]
  1e00030250:	b9444001 	ldr	w1, [x0, #1088]
  1e00030254:	54000421 	b.ne	1e000302d8 <mrw_phy_direct_cmd+0xe4>  // b.any
  1e00030258:	330f1041 	bfi	w1, w2, #17, #5
  1e0003025c:	b9044001 	str	w1, [x0, #1088]
  1e00030260:	f8746a60 	ldr	x0, [x19, x20]
  1e00030264:	b9444801 	ldr	w1, [x0, #1096]
  1e00030268:	33081c61 	bfi	w1, w3, #24, #8
  1e0003026c:	b9044801 	str	w1, [x0, #1096]
  1e00030270:	f8746a61 	ldr	x1, [x19, x20]
  1e00030274:	b9442020 	ldr	w0, [x1, #1056]
  1e00030278:	32100000 	orr	w0, w0, #0x10000
  1e0003027c:	b9042020 	str	w0, [x1, #1056]
  1e00030280:	52800020 	mov	w0, #0x1                   	// #1
  1e00030284:	94000d94 	bl	1e000338d4 <udelay>
  1e00030288:	f8746a61 	ldr	x1, [x19, x20]
  1e0003028c:	b9442020 	ldr	w0, [x1, #1056]
  1e00030290:	120f7800 	and	w0, w0, #0xfffeffff
  1e00030294:	b9042020 	str	w0, [x1, #1056]
  1e00030298:	f8746a61 	ldr	x1, [x19, x20]
  1e0003029c:	b9441c20 	ldr	w0, [x1, #1052]
  1e000302a0:	321b0000 	orr	w0, w0, #0x20
  1e000302a4:	b9041c20 	str	w0, [x1, #1052]
  1e000302a8:	f94002a0 	ldr	x0, [x21]
  1e000302ac:	b9444c00 	ldr	w0, [x0, #1100]
  1e000302b0:	3627ffc0 	tbz	w0, #4, 1e000302a8 <mrw_phy_direct_cmd+0xb4>
  1e000302b4:	f8746a61 	ldr	x1, [x19, x20]
  1e000302b8:	b9441c20 	ldr	w0, [x1, #1052]
  1e000302bc:	121f7800 	and	w0, w0, #0xfffffffe
  1e000302c0:	b9041c20 	str	w0, [x1, #1052]
  1e000302c4:	52800140 	mov	w0, #0xa                   	// #10
  1e000302c8:	a94153f3 	ldp	x19, x20, [sp, #16]
  1e000302cc:	f94013f5 	ldr	x21, [sp, #32]
  1e000302d0:	a8c37bfd 	ldp	x29, x30, [sp], #48
  1e000302d4:	14000d80 	b	1e000338d4 <udelay>
  1e000302d8:	330d1041 	bfi	w1, w2, #19, #5
  1e000302dc:	17ffffe0 	b	1e0003025c <mrw_phy_direct_cmd+0x68>

0000001e000302e0 <phy_set_read_vref>:
  1e000302e0:	92401c21 	and	x1, x1, #0xff
  1e000302e4:	531a1444 	ubfiz	w4, w2, #6, #6
  1e000302e8:	12001442 	and	w2, w2, #0x3f
  1e000302ec:	2a020084 	orr	w4, w4, w2
  1e000302f0:	f8617805 	ldr	x5, [x0, x1, lsl #3]
  1e000302f4:	b94884a2 	ldr	w2, [x5, #2180]
  1e000302f8:	330e2c82 	bfi	w2, w4, #18, #12
  1e000302fc:	b90884a2 	str	w2, [x5, #2180]
  1e00030300:	f8617801 	ldr	x1, [x0, x1, lsl #3]
  1e00030304:	531a1460 	ubfiz	w0, w3, #6, #6
  1e00030308:	12001463 	and	w3, w3, #0x3f
  1e0003030c:	2a030000 	orr	w0, w0, w3
  1e00030310:	b9488822 	ldr	w2, [x1, #2184]
  1e00030314:	330e2c02 	bfi	w2, w0, #18, #12
  1e00030318:	b9088822 	str	w2, [x1, #2184]
  1e0003031c:	d65f03c0 	ret

0000001e00030320 <phy_set_write_vref>:
  1e00030320:	531f1843 	ubfiz	w3, w2, #1, #7
  1e00030324:	528001e2 	mov	w2, #0xf                   	// #15
  1e00030328:	17ffffb3 	b	1e000301f4 <mrw_phy_direct_cmd>

0000001e0003032c <phy_dq_offset_control>:
  1e0003032c:	12000842 	and	w2, w2, #0x7
  1e00030330:	531d0863 	ubfiz	w3, w3, #3, #3
  1e00030334:	2a020063 	orr	w3, w3, w2
  1e00030338:	d37d1c21 	ubfiz	x1, x1, #3, #8
  1e0003033c:	d2800002 	mov	x2, #0x0                   	// #0
  1e00030340:	531f7866 	lsl	w6, w3, #1
  1e00030344:	530f3863 	lsl	w3, w3, #17
  1e00030348:	f8616804 	ldr	x4, [x0, x1]
  1e0003034c:	911f5084 	add	x4, x4, #0x7d4
  1e00030350:	b8626884 	ldr	w4, [x4, x2]
  1e00030354:	f8616805 	ldr	x5, [x0, x1]
  1e00030358:	12196084 	and	w4, w4, #0xffffff80
  1e0003035c:	2a060084 	orr	w4, w4, w6
  1e00030360:	911f50a5 	add	x5, x5, #0x7d4
  1e00030364:	32000084 	orr	w4, w4, #0x1
  1e00030368:	b82268a4 	str	w4, [x5, x2]
  1e0003036c:	f8616804 	ldr	x4, [x0, x1]
  1e00030370:	911f5084 	add	x4, x4, #0x7d4
  1e00030374:	b8626884 	ldr	w4, [x4, x2]
  1e00030378:	f8616805 	ldr	x5, [x0, x1]
  1e0003037c:	12096084 	and	w4, w4, #0xff80ffff
  1e00030380:	2a030084 	orr	w4, w4, w3
  1e00030384:	911f50a5 	add	x5, x5, #0x7d4
  1e00030388:	32100084 	orr	w4, w4, #0x10000
  1e0003038c:	b82268a4 	str	w4, [x5, x2]
  1e00030390:	91001042 	add	x2, x2, #0x4
  1e00030394:	f101005f 	cmp	x2, #0x40
  1e00030398:	54fffd81 	b.ne	1e00030348 <phy_dq_offset_control+0x1c>  // b.any
  1e0003039c:	d65f03c0 	ret

0000001e000303a0 <phy_ecc_offset_control>:
  1e000303a0:	d37d1c21 	ubfiz	x1, x1, #3, #8
  1e000303a4:	12000842 	and	w2, w2, #0x7
  1e000303a8:	531d0863 	ubfiz	w3, w3, #3, #3
  1e000303ac:	2a020063 	orr	w3, w3, w2
  1e000303b0:	f8616804 	ldr	x4, [x0, x1]
  1e000303b4:	b9481484 	ldr	w4, [x4, #2068]
  1e000303b8:	f8616802 	ldr	x2, [x0, x1]
  1e000303bc:	12000084 	and	w4, w4, #0x1
  1e000303c0:	2a030484 	orr	w4, w4, w3, lsl #1
  1e000303c4:	b9481445 	ldr	w5, [x2, #2068]
  1e000303c8:	33001885 	bfxil	w5, w4, #0, #7
  1e000303cc:	b9081445 	str	w5, [x2, #2068]
  1e000303d0:	f8616802 	ldr	x2, [x0, x1]
  1e000303d4:	b9481442 	ldr	w2, [x2, #2068]
  1e000303d8:	f8616800 	ldr	x0, [x0, x1]
  1e000303dc:	d3504042 	ubfx	x2, x2, #16, #1
  1e000303e0:	2a030443 	orr	w3, w2, w3, lsl #1
  1e000303e4:	b9481401 	ldr	w1, [x0, #2068]
  1e000303e8:	33101861 	bfi	w1, w3, #16, #7
  1e000303ec:	b9081401 	str	w1, [x0, #2068]
  1e000303f0:	d65f03c0 	ret

0000001e000303f4 <phy_sev_offset_control>:
  1e000303f4:	d37d1c21 	ubfiz	x1, x1, #3, #8
  1e000303f8:	12000842 	and	w2, w2, #0x7
  1e000303fc:	531d0863 	ubfiz	w3, w3, #3, #3
  1e00030400:	2a020063 	orr	w3, w3, w2
  1e00030404:	f8616804 	ldr	x4, [x0, x1]
  1e00030408:	b9481884 	ldr	w4, [x4, #2072]
  1e0003040c:	f8616802 	ldr	x2, [x0, x1]
  1e00030410:	12000084 	and	w4, w4, #0x1
  1e00030414:	2a030484 	orr	w4, w4, w3, lsl #1
  1e00030418:	b9481845 	ldr	w5, [x2, #2072]
  1e0003041c:	33001885 	bfxil	w5, w4, #0, #7
  1e00030420:	b9081845 	str	w5, [x2, #2072]
  1e00030424:	f8616802 	ldr	x2, [x0, x1]
  1e00030428:	b9481842 	ldr	w2, [x2, #2072]
  1e0003042c:	f8616800 	ldr	x0, [x0, x1]
  1e00030430:	d3504042 	ubfx	x2, x2, #16, #1
  1e00030434:	2a030443 	orr	w3, w2, w3, lsl #1
  1e00030438:	b9481801 	ldr	w1, [x0, #2072]
  1e0003043c:	33101861 	bfi	w1, w3, #16, #7
  1e00030440:	b9081801 	str	w1, [x0, #2072]
  1e00030444:	d65f03c0 	ret

0000001e00030448 <phy_dbi_offset_control>:
  1e00030448:	d37d1c21 	ubfiz	x1, x1, #3, #8
  1e0003044c:	12000842 	and	w2, w2, #0x7
  1e00030450:	531d0863 	ubfiz	w3, w3, #3, #3
  1e00030454:	2a020063 	orr	w3, w3, w2
  1e00030458:	f8616804 	ldr	x4, [x0, x1]
  1e0003045c:	b9481c84 	ldr	w4, [x4, #2076]
  1e00030460:	f8616802 	ldr	x2, [x0, x1]
  1e00030464:	12000084 	and	w4, w4, #0x1
  1e00030468:	2a030484 	orr	w4, w4, w3, lsl #1
  1e0003046c:	b9481c45 	ldr	w5, [x2, #2076]
  1e00030470:	33001885 	bfxil	w5, w4, #0, #7
  1e00030474:	b9081c45 	str	w5, [x2, #2076]
  1e00030478:	f8616802 	ldr	x2, [x0, x1]
  1e0003047c:	b9481c42 	ldr	w2, [x2, #2076]
  1e00030480:	f8616804 	ldr	x4, [x0, x1]
  1e00030484:	d3504042 	ubfx	x2, x2, #16, #1
  1e00030488:	2a030442 	orr	w2, w2, w3, lsl #1
  1e0003048c:	b9481c85 	ldr	w5, [x4, #2076]
  1e00030490:	33101845 	bfi	w5, w2, #16, #7
  1e00030494:	b9081c85 	str	w5, [x4, #2076]
  1e00030498:	f8616802 	ldr	x2, [x0, x1]
  1e0003049c:	b9482042 	ldr	w2, [x2, #2080]
  1e000304a0:	f8616804 	ldr	x4, [x0, x1]
  1e000304a4:	12000042 	and	w2, w2, #0x1
  1e000304a8:	2a030442 	orr	w2, w2, w3, lsl #1
  1e000304ac:	b9482085 	ldr	w5, [x4, #2080]
  1e000304b0:	33001845 	bfxil	w5, w2, #0, #7
  1e000304b4:	b9082085 	str	w5, [x4, #2080]
  1e000304b8:	f8616802 	ldr	x2, [x0, x1]
  1e000304bc:	b9482042 	ldr	w2, [x2, #2080]
  1e000304c0:	f8616800 	ldr	x0, [x0, x1]
  1e000304c4:	d3504042 	ubfx	x2, x2, #16, #1
  1e000304c8:	2a030443 	orr	w3, w2, w3, lsl #1
  1e000304cc:	b9482001 	ldr	w1, [x0, #2080]
  1e000304d0:	33101861 	bfi	w1, w3, #16, #7
  1e000304d4:	b9082001 	str	w1, [x0, #2080]
  1e000304d8:	d65f03c0 	ret

0000001e000304dc <phy_rdqs_offset_control>:
  1e000304dc:	92401c21 	and	x1, x1, #0xff
  1e000304e0:	12000842 	and	w2, w2, #0x7
  1e000304e4:	531d0863 	ubfiz	w3, w3, #3, #3
  1e000304e8:	2a020063 	orr	w3, w3, w2
  1e000304ec:	f8617804 	ldr	x4, [x0, x1, lsl #3]
  1e000304f0:	b9482c84 	ldr	w4, [x4, #2092]
  1e000304f4:	f8617800 	ldr	x0, [x0, x1, lsl #3]
  1e000304f8:	12000084 	and	w4, w4, #0x1
  1e000304fc:	2a030483 	orr	w3, w4, w3, lsl #1
  1e00030500:	b9482c01 	ldr	w1, [x0, #2092]
  1e00030504:	33001861 	bfxil	w1, w3, #0, #7
  1e00030508:	b9082c01 	str	w1, [x0, #2092]
  1e0003050c:	d65f03c0 	ret

0000001e00030510 <phy_offset_update>:
  1e00030510:	d37d1c21 	ubfiz	x1, x1, #3, #8
  1e00030514:	8b010004 	add	x4, x0, x1
  1e00030518:	f8616803 	ldr	x3, [x0, x1]
  1e0003051c:	b947d062 	ldr	w2, [x3, #2000]
  1e00030520:	32000042 	orr	w2, w2, #0x1
  1e00030524:	b907d062 	str	w2, [x3, #2000]
  1e00030528:	f9400082 	ldr	x2, [x4]
  1e0003052c:	b947d042 	ldr	w2, [x2, #2000]
  1e00030530:	37ffffc2 	tbnz	w2, #31, 1e00030528 <phy_offset_update+0x18>
  1e00030534:	f8616801 	ldr	x1, [x0, x1]
  1e00030538:	b947d020 	ldr	w0, [x1, #2000]
  1e0003053c:	121f7800 	and	w0, w0, #0xfffffffe
  1e00030540:	b907d020 	str	w0, [x1, #2000]
  1e00030544:	d65f03c0 	ret

0000001e00030548 <hbm3_config_init>:
  1e00030548:	900000a1 	adrp	x1, 1e00044000 <__STACKS_START__+0x3bc0>
  1e0003054c:	d2bef000 	mov	x0, #0xf7800000            	// #4152360960
  1e00030550:	d2bef005 	mov	x5, #0xf7800000            	// #4152360960
  1e00030554:	91210021 	add	x1, x1, #0x840
  1e00030558:	f2c003e0 	movk	x0, #0x1f, lsl #32
  1e0003055c:	d2c00406 	mov	x6, #0x2000000000          	// #137438953472
  1e00030560:	f2c013e5 	movk	x5, #0x9f, lsl #32
  1e00030564:	9147c002 	add	x2, x0, #0x1f0, lsl #12
  1e00030568:	f9008022 	str	x2, [x1, #256]
  1e0003056c:	d15fc002 	sub	x2, x0, #0x7f0, lsl #12
  1e00030570:	aa0003e3 	mov	x3, x0
  1e00030574:	aa0103e4 	mov	x4, x1
  1e00030578:	f9008422 	str	x2, [x1, #264]
  1e0003057c:	d1500002 	sub	x2, x0, #0x400, lsl #12
  1e00030580:	f9004082 	str	x2, [x4, #128]
  1e00030584:	91410042 	add	x2, x2, #0x40, lsl #12
  1e00030588:	f8008483 	str	x3, [x4], #8
  1e0003058c:	91404063 	add	x3, x3, #0x10, lsl #12
  1e00030590:	eb00005f 	cmp	x2, x0
  1e00030594:	54ffff61 	b.ne	1e00030580 <hbm3_config_init+0x38>  // b.any
  1e00030598:	8b060040 	add	x0, x2, x6
  1e0003059c:	91044021 	add	x1, x1, #0x110
  1e000305a0:	eb05001f 	cmp	x0, x5
  1e000305a4:	54fffe01 	b.ne	1e00030564 <hbm3_config_init+0x1c>  // b.any
  1e000305a8:	52800000 	mov	w0, #0x0                   	// #0
  1e000305ac:	d65f03c0 	ret

0000001e000305b0 <wait_for_test_instruction_req_done>:
  1e000305b0:	a9be7bfd 	stp	x29, x30, [sp, #-32]!
  1e000305b4:	910003fd 	mov	x29, sp
  1e000305b8:	a90153f3 	stp	x19, x20, [sp, #16]
  1e000305bc:	aa0003f4 	mov	x20, x0
  1e000305c0:	f9408280 	ldr	x0, [x20, #256]
  1e000305c4:	b9400c13 	ldr	w19, [x0, #12]
  1e000305c8:	52800020 	mov	w0, #0x1                   	// #1
  1e000305cc:	d3451673 	ubfx	x19, x19, #5, #1
  1e000305d0:	94000cc1 	bl	1e000338d4 <udelay>
  1e000305d4:	34ffff73 	cbz	w19, 1e000305c0 <wait_for_test_instruction_req_done+0x10>
  1e000305d8:	a94153f3 	ldp	x19, x20, [sp, #16]
  1e000305dc:	a8c27bfd 	ldp	x29, x30, [sp], #32
  1e000305e0:	d65f03c0 	ret

0000001e000305e4 <wait_for_test_instruction_req_done_clear>:
  1e000305e4:	a9be7bfd 	stp	x29, x30, [sp, #-32]!
  1e000305e8:	910003fd 	mov	x29, sp
  1e000305ec:	a90153f3 	stp	x19, x20, [sp, #16]
  1e000305f0:	aa0003f4 	mov	x20, x0
  1e000305f4:	f9408280 	ldr	x0, [x20, #256]
  1e000305f8:	b9400c13 	ldr	w19, [x0, #12]
  1e000305fc:	52800020 	mov	w0, #0x1                   	// #1
  1e00030600:	d3451673 	ubfx	x19, x19, #5, #1
  1e00030604:	94000cb4 	bl	1e000338d4 <udelay>
  1e00030608:	35ffff73 	cbnz	w19, 1e000305f4 <wait_for_test_instruction_req_done_clear+0x10>
  1e0003060c:	a94153f3 	ldp	x19, x20, [sp, #16]
  1e00030610:	a8c27bfd 	ldp	x29, x30, [sp], #32
  1e00030614:	d65f03c0 	ret

0000001e00030618 <icon_test_instruction_req>:
  1e00030618:	a9bd7bfd 	stp	x29, x30, [sp, #-48]!
  1e0003061c:	910003fd 	mov	x29, sp
  1e00030620:	a90153f3 	stp	x19, x20, [sp, #16]
  1e00030624:	2a0203f3 	mov	w19, w2
  1e00030628:	aa0003f4 	mov	x20, x0
  1e0003062c:	f9408002 	ldr	x2, [x0, #256]
  1e00030630:	f90013f5 	str	x21, [sp, #32]
  1e00030634:	12001c35 	and	w21, w1, #0xff
  1e00030638:	b9400040 	ldr	w0, [x2]
  1e0003063c:	32000000 	orr	w0, w0, #0x1
  1e00030640:	b9000040 	str	w0, [x2]
  1e00030644:	52800020 	mov	w0, #0x1                   	// #1
  1e00030648:	94000ca3 	bl	1e000338d4 <udelay>
  1e0003064c:	f9408280 	ldr	x0, [x20, #256]
  1e00030650:	b9400c02 	ldr	w2, [x0, #12]
  1e00030654:	330012a2 	bfxil	w2, w21, #0, #5
  1e00030658:	b9000c02 	str	w2, [x0, #12]
  1e0003065c:	52800035 	mov	w21, #0x1                   	// #1
  1e00030660:	b9400801 	ldr	w1, [x0, #8]
  1e00030664:	1ad322b3 	lsl	w19, w21, w19
  1e00030668:	2a010261 	orr	w1, w19, w1
  1e0003066c:	b9000801 	str	w1, [x0, #8]
  1e00030670:	2a1503e0 	mov	w0, w21
  1e00030674:	94000c98 	bl	1e000338d4 <udelay>
  1e00030678:	aa1403e0 	mov	x0, x20
  1e0003067c:	97ffffcd 	bl	1e000305b0 <wait_for_test_instruction_req_done>
  1e00030680:	f9408280 	ldr	x0, [x20, #256]
  1e00030684:	b9400801 	ldr	w1, [x0, #8]
  1e00030688:	0a330033 	bic	w19, w1, w19
  1e0003068c:	b9000813 	str	w19, [x0, #8]
  1e00030690:	2a1503e0 	mov	w0, w21
  1e00030694:	94000c90 	bl	1e000338d4 <udelay>
  1e00030698:	aa1403e0 	mov	x0, x20
  1e0003069c:	97ffffd2 	bl	1e000305e4 <wait_for_test_instruction_req_done_clear>
  1e000306a0:	a94153f3 	ldp	x19, x20, [sp, #16]
  1e000306a4:	52800000 	mov	w0, #0x0                   	// #0
  1e000306a8:	f94013f5 	ldr	x21, [sp, #32]
  1e000306ac:	a8c37bfd 	ldp	x29, x30, [sp], #48
  1e000306b0:	d65f03c0 	ret

0000001e000306b4 <icon_sw_instruction_req>:
  1e000306b4:	a9be7bfd 	stp	x29, x30, [sp, #-32]!
  1e000306b8:	910003fd 	mov	x29, sp
  1e000306bc:	f9408002 	ldr	x2, [x0, #256]
  1e000306c0:	f9000bf3 	str	x19, [sp, #16]
  1e000306c4:	aa0003f3 	mov	x19, x0
  1e000306c8:	b9400041 	ldr	w1, [x2]
  1e000306cc:	32030021 	orr	w1, w1, #0x20000000
  1e000306d0:	b9000041 	str	w1, [x2]
  1e000306d4:	97ffffb7 	bl	1e000305b0 <wait_for_test_instruction_req_done>
  1e000306d8:	f9408261 	ldr	x1, [x19, #256]
  1e000306dc:	b9400020 	ldr	w0, [x1]
  1e000306e0:	12027800 	and	w0, w0, #0xdfffffff
  1e000306e4:	b9000020 	str	w0, [x1]
  1e000306e8:	aa1303e0 	mov	x0, x19
  1e000306ec:	97ffffbe 	bl	1e000305e4 <wait_for_test_instruction_req_done_clear>
  1e000306f0:	f9400bf3 	ldr	x19, [sp, #16]
  1e000306f4:	52800000 	mov	w0, #0x0                   	// #0
  1e000306f8:	a8c27bfd 	ldp	x29, x30, [sp], #32
  1e000306fc:	d65f03c0 	ret

0000001e00030700 <icon_hbm_reset>:
  1e00030700:	a9be7bfd 	stp	x29, x30, [sp, #-32]!
  1e00030704:	52800021 	mov	w1, #0x1                   	// #1
  1e00030708:	910003fd 	mov	x29, sp
  1e0003070c:	a90153f3 	stp	x19, x20, [sp, #16]
  1e00030710:	aa0003f3 	mov	x19, x0
  1e00030714:	f9408000 	ldr	x0, [x0, #256]
  1e00030718:	b9005801 	str	w1, [x0, #88]
  1e0003071c:	b9400801 	ldr	w1, [x0, #8]
  1e00030720:	321d0021 	orr	w1, w1, #0x8
  1e00030724:	b9000801 	str	w1, [x0, #8]
  1e00030728:	f9408260 	ldr	x0, [x19, #256]
  1e0003072c:	b9400c14 	ldr	w20, [x0, #12]
  1e00030730:	52800020 	mov	w0, #0x1                   	// #1
  1e00030734:	d3451694 	ubfx	x20, x20, #5, #1
  1e00030738:	94000c67 	bl	1e000338d4 <udelay>
  1e0003073c:	34ffff74 	cbz	w20, 1e00030728 <icon_hbm_reset+0x28>
  1e00030740:	f9408261 	ldr	x1, [x19, #256]
  1e00030744:	b9400820 	ldr	w0, [x1, #8]
  1e00030748:	121c7800 	and	w0, w0, #0xfffffff7
  1e0003074c:	b9000820 	str	w0, [x1, #8]
  1e00030750:	f9408260 	ldr	x0, [x19, #256]
  1e00030754:	b9400c14 	ldr	w20, [x0, #12]
  1e00030758:	52800020 	mov	w0, #0x1                   	// #1
  1e0003075c:	d3451694 	ubfx	x20, x20, #5, #1
  1e00030760:	94000c5d 	bl	1e000338d4 <udelay>
  1e00030764:	35ffff74 	cbnz	w20, 1e00030750 <icon_hbm_reset+0x50>
  1e00030768:	f9408260 	ldr	x0, [x19, #256]
  1e0003076c:	b900581f 	str	wzr, [x0, #88]
  1e00030770:	b9400801 	ldr	w1, [x0, #8]
  1e00030774:	321d0021 	orr	w1, w1, #0x8
  1e00030778:	b9000801 	str	w1, [x0, #8]
  1e0003077c:	f9408260 	ldr	x0, [x19, #256]
  1e00030780:	b9400c14 	ldr	w20, [x0, #12]
  1e00030784:	52800020 	mov	w0, #0x1                   	// #1
  1e00030788:	d3451694 	ubfx	x20, x20, #5, #1
  1e0003078c:	94000c52 	bl	1e000338d4 <udelay>
  1e00030790:	34ffff74 	cbz	w20, 1e0003077c <icon_hbm_reset+0x7c>
  1e00030794:	f9408261 	ldr	x1, [x19, #256]
  1e00030798:	b9400820 	ldr	w0, [x1, #8]
  1e0003079c:	121c7800 	and	w0, w0, #0xfffffff7
  1e000307a0:	b9000820 	str	w0, [x1, #8]
  1e000307a4:	f9408260 	ldr	x0, [x19, #256]
  1e000307a8:	b9400c14 	ldr	w20, [x0, #12]
  1e000307ac:	52800020 	mov	w0, #0x1                   	// #1
  1e000307b0:	d3451694 	ubfx	x20, x20, #5, #1
  1e000307b4:	94000c48 	bl	1e000338d4 <udelay>
  1e000307b8:	35ffff74 	cbnz	w20, 1e000307a4 <icon_hbm_reset+0xa4>
  1e000307bc:	a94153f3 	ldp	x19, x20, [sp, #16]
  1e000307c0:	52800000 	mov	w0, #0x0                   	// #0
  1e000307c4:	a8c27bfd 	ldp	x29, x30, [sp], #32
  1e000307c8:	d65f03c0 	ret

0000001e000307cc <icon_lane_repair>:
  1e000307cc:	a9bf7bfd 	stp	x29, x30, [sp, #-16]!
  1e000307d0:	12001c42 	and	w2, w2, #0xff
  1e000307d4:	7100045f 	cmp	w2, #0x1
  1e000307d8:	910003fd 	mov	x29, sp
  1e000307dc:	f9408005 	ldr	x5, [x0, #256]
  1e000307e0:	12001c63 	and	w3, w3, #0xff
  1e000307e4:	12001c27 	and	w7, w1, #0xff
  1e000307e8:	52800282 	mov	w2, #0x14                  	// #20
  1e000307ec:	b94000a6 	ldr	w6, [x5]
  1e000307f0:	320000c6 	orr	w6, w6, #0x1
  1e000307f4:	b90000a6 	str	w6, [x5]
  1e000307f8:	b94520a6 	ldr	w6, [x5, #1312]
  1e000307fc:	321d00c6 	orr	w6, w6, #0x8
  1e00030800:	b90520a6 	str	w6, [x5, #1312]
  1e00030804:	b9400ca6 	ldr	w6, [x5, #12]
  1e00030808:	33001026 	bfxil	w6, w1, #0, #5
  1e0003080c:	b9000ca6 	str	w6, [x5, #12]
  1e00030810:	528002c1 	mov	w1, #0x16                  	// #22
  1e00030814:	1a811042 	csel	w2, w2, w1, ne	// ne = any
  1e00030818:	71001c7f 	cmp	w3, #0x7
  1e0003081c:	54000208 	b.hi	1e0003085c <icon_lane_repair+0x90>  // b.pmore
  1e00030820:	531e7463 	lsl	w3, w3, #2
  1e00030824:	52801fe1 	mov	w1, #0xff                  	// #255
  1e00030828:	0a010084 	and	w4, w4, w1
  1e0003082c:	1ac32026 	lsl	w6, w1, w3
  1e00030830:	1ac32084 	lsl	w4, w4, w3
  1e00030834:	2a260083 	orn	w3, w4, w6
  1e00030838:	b90058a3 	str	w3, [x5, #88]
  1e0003083c:	b90054a1 	str	w1, [x5, #84]
  1e00030840:	2a0703e1 	mov	w1, w7
  1e00030844:	97ffff75 	bl	1e00030618 <icon_test_instruction_req>
  1e00030848:	52800140 	mov	w0, #0xa                   	// #10
  1e0003084c:	94000c22 	bl	1e000338d4 <udelay>
  1e00030850:	52800000 	mov	w0, #0x0                   	// #0
  1e00030854:	a8c17bfd 	ldp	x29, x30, [sp], #16
  1e00030858:	d65f03c0 	ret
  1e0003085c:	12001c81 	and	w1, w4, #0xff
  1e00030860:	12800003 	mov	w3, #0xffffffff            	// #-1
  1e00030864:	17fffff5 	b	1e00030838 <icon_lane_repair+0x6c>

0000001e00030868 <icon_rx_lane_search>:
  1e00030868:	a9bb7bfd 	stp	x29, x30, [sp, #-80]!
  1e0003086c:	f0000060 	adrp	x0, 1e0003f000 <__RO_END__>
  1e00030870:	910ed000 	add	x0, x0, #0x3b4
  1e00030874:	910003fd 	mov	x29, sp
  1e00030878:	a90363f7 	stp	x23, x24, [sp, #48]
  1e0003087c:	12001c38 	and	w24, w1, #0xff
  1e00030880:	52803801 	mov	w1, #0x1c0                 	// #448
  1e00030884:	a90153f3 	stp	x19, x20, [sp, #16]
  1e00030888:	2a0303f7 	mov	w23, w3
  1e0003088c:	9ba10053 	umaddl	x19, w2, w1, x0
  1e00030890:	a9025bf5 	stp	x21, x22, [sp, #32]
  1e00030894:	aa0403f6 	mov	x22, x4
  1e00030898:	52800015 	mov	w21, #0x0                   	// #0
  1e0003089c:	a9046bf9 	stp	x25, x26, [sp, #64]
  1e000308a0:	9000007a 	adrp	x26, 1e0003c000 <vsnprintf+0x270>
  1e000308a4:	531b0859 	ubfiz	w25, w2, #5, #3
  1e000308a8:	911ffb5a 	add	x26, x26, #0x7fe
  1e000308ac:	52800014 	mov	w20, #0x0                   	// #0
  1e000308b0:	1ad526e0 	lsr	w0, w23, w21
  1e000308b4:	360003c0 	tbz	w0, #0, 1e0003092c <icon_rx_lane_search+0xc4>
  1e000308b8:	79400261 	ldrh	w1, [x19]
  1e000308bc:	0b150320 	add	w0, w25, w21
  1e000308c0:	12001c02 	and	w2, w0, #0xff
  1e000308c4:	6b20003f 	cmp	w1, w0, uxtb
  1e000308c8:	54000321 	b.ne	1e0003092c <icon_rx_lane_search+0xc4>  // b.any
  1e000308cc:	39403265 	ldrb	w5, [x19, #12]
  1e000308d0:	2a1803e1 	mov	w1, w24
  1e000308d4:	79401664 	ldrh	w4, [x19, #10]
  1e000308d8:	91000a63 	add	x3, x19, #0x2
  1e000308dc:	aa1a03e0 	mov	x0, x26
  1e000308e0:	94002ccb 	bl	1e0003bc0c <printf>
  1e000308e4:	39403261 	ldrb	w1, [x19, #12]
  1e000308e8:	71002c3f 	cmp	w1, #0xb
  1e000308ec:	54000161 	b.ne	1e00030918 <icon_rx_lane_search+0xb0>  // b.any
  1e000308f0:	90000060 	adrp	x0, 1e0003c000 <vsnprintf+0x270>
  1e000308f4:	9120ec00 	add	x0, x0, #0x83b
  1e000308f8:	94002cc5 	bl	1e0003bc0c <printf>
  1e000308fc:	12800020 	mov	w0, #0xfffffffe            	// #-2
  1e00030900:	a94153f3 	ldp	x19, x20, [sp, #16]
  1e00030904:	a9425bf5 	ldp	x21, x22, [sp, #32]
  1e00030908:	a94363f7 	ldp	x23, x24, [sp, #48]
  1e0003090c:	a9446bf9 	ldp	x25, x26, [sp, #64]
  1e00030910:	a8c57bfd 	ldp	x29, x30, [sp], #80
  1e00030914:	d65f03c0 	ret
  1e00030918:	7100303f 	cmp	w1, #0xc
  1e0003091c:	54000141 	b.ne	1e00030944 <icon_rx_lane_search+0xdc>  // b.any
  1e00030920:	90000060 	adrp	x0, 1e0003c000 <vsnprintf+0x270>
  1e00030924:	91215000 	add	x0, x0, #0x854
  1e00030928:	94002cb9 	bl	1e0003bc0c <printf>
  1e0003092c:	110006b5 	add	w21, w21, #0x1
  1e00030930:	91003a73 	add	x19, x19, #0xe
  1e00030934:	710082bf 	cmp	w21, #0x20
  1e00030938:	54fffbc1 	b.ne	1e000308b0 <icon_rx_lane_search+0x48>  // b.any
  1e0003093c:	2a1403e0 	mov	w0, w20
  1e00030940:	17fffff0 	b	1e00030900 <icon_rx_lane_search+0x98>
  1e00030944:	7100283f 	cmp	w1, #0xa
  1e00030948:	54000081 	b.ne	1e00030958 <icon_rx_lane_search+0xf0>  // b.any
  1e0003094c:	90000060 	adrp	x0, 1e0003c000 <vsnprintf+0x270>
  1e00030950:	91219000 	add	x0, x0, #0x864
  1e00030954:	17fffff5 	b	1e00030928 <icon_rx_lane_search+0xc0>
  1e00030958:	38616ac2 	ldrb	w2, [x22, x1]
  1e0003095c:	79401660 	ldrh	w0, [x19, #10]
  1e00030960:	71003c5f 	cmp	w2, #0xf
  1e00030964:	540000c0 	b.eq	1e0003097c <icon_rx_lane_search+0x114>  // b.none
  1e00030968:	6b00005f 	cmp	w2, w0
  1e0003096c:	54000080 	b.eq	1e0003097c <icon_rx_lane_search+0x114>  // b.none
  1e00030970:	90000060 	adrp	x0, 1e0003c000 <vsnprintf+0x270>
  1e00030974:	9121ec00 	add	x0, x0, #0x87b
  1e00030978:	17ffffe0 	b	1e000308f8 <icon_rx_lane_search+0x90>
  1e0003097c:	12000c00 	and	w0, w0, #0xf
  1e00030980:	11000694 	add	w20, w20, #0x1
  1e00030984:	38216ac0 	strb	w0, [x22, x1]
  1e00030988:	17ffffe9 	b	1e0003092c <icon_rx_lane_search+0xc4>

0000001e0003098c <icon_rx_extest>:
  1e0003098c:	a9b27bfd 	stp	x29, x30, [sp, #-224]!
  1e00030990:	910003fd 	mov	x29, sp
  1e00030994:	f90037e3 	str	x3, [sp, #104]
  1e00030998:	910243e3 	add	x3, sp, #0x90
  1e0003099c:	a90153f3 	stp	x19, x20, [sp, #16]
  1e000309a0:	aa0003f4 	mov	x20, x0
  1e000309a4:	f9408013 	ldr	x19, [x0, #256]
  1e000309a8:	aa0303e0 	mov	x0, x3
  1e000309ac:	a9025bf5 	stp	x21, x22, [sp, #32]
  1e000309b0:	12001c35 	and	w21, w1, #0xff
  1e000309b4:	12001c56 	and	w22, w2, #0xff
  1e000309b8:	90000061 	adrp	x1, 1e0003c000 <vsnprintf+0x270>
  1e000309bc:	d2800982 	mov	x2, #0x4c                  	// #76
  1e000309c0:	91154021 	add	x1, x1, #0x550
  1e000309c4:	a90363f7 	stp	x23, x24, [sp, #48]
  1e000309c8:	d37d1eb7 	ubfiz	x23, x21, #3, #8
  1e000309cc:	a9046bf9 	stp	x25, x26, [sp, #64]
  1e000309d0:	a90573fb 	stp	x27, x28, [sp, #80]
  1e000309d4:	94002b12 	bl	1e0003b61c <memcpy>
  1e000309d8:	aa0003e3 	mov	x3, x0
  1e000309dc:	d2a80080 	mov	x0, #0x40040000            	// #1074003968
  1e000309e0:	f9003be0 	str	x0, [sp, #112]
  1e000309e4:	d2800080 	mov	x0, #0x4                   	// #4
  1e000309e8:	f2a08000 	movk	x0, #0x400, lsl #16
  1e000309ec:	f2c00800 	movk	x0, #0x40, lsl #32
  1e000309f0:	f9003fe0 	str	x0, [sp, #120]
  1e000309f4:	92a80080 	mov	x0, #0xffffffffbffbffff    	// #-1074003969
  1e000309f8:	f90043e0 	str	x0, [sp, #128]
  1e000309fc:	d29fff60 	mov	x0, #0xfffb                	// #65531
  1e00030a00:	f2bf7fe0 	movk	x0, #0xfbff, lsl #16
  1e00030a04:	f2dff7e0 	movk	x0, #0xffbf, lsl #32
  1e00030a08:	f2e01fe0 	movk	x0, #0xff, lsl #48
  1e00030a0c:	f90047e0 	str	x0, [sp, #136]
  1e00030a10:	b9400260 	ldr	w0, [x19]
  1e00030a14:	32020000 	orr	w0, w0, #0x40000000
  1e00030a18:	b9000260 	str	w0, [x19]
  1e00030a1c:	f8776a80 	ldr	x0, [x20, x23]
  1e00030a20:	b946c401 	ldr	w1, [x0, #1732]
  1e00030a24:	321f0021 	orr	w1, w1, #0x2
  1e00030a28:	b906c401 	str	w1, [x0, #1732]
  1e00030a2c:	b946c401 	ldr	w1, [x0, #1732]
  1e00030a30:	321d0021 	orr	w1, w1, #0x8
  1e00030a34:	b906c401 	str	w1, [x0, #1732]
  1e00030a38:	aa1303e0 	mov	x0, x19
  1e00030a3c:	b9400261 	ldr	w1, [x19]
  1e00030a40:	32000021 	orr	w1, w1, #0x1
  1e00030a44:	b8058401 	str	w1, [x0], #88
  1e00030a48:	d2800001 	mov	x1, #0x0                   	// #0
  1e00030a4c:	71000adf 	cmp	w22, #0x2
  1e00030a50:	54000ce1 	b.ne	1e00030bec <icon_rx_extest+0x260>  // b.any
  1e00030a54:	b900001f 	str	wzr, [x0]
  1e00030a58:	91000421 	add	x1, x1, #0x1
  1e00030a5c:	d1001000 	sub	x0, x0, #0x4
  1e00030a60:	f1004c3f 	cmp	x1, #0x13
  1e00030a64:	54ffff41 	b.ne	1e00030a4c <icon_rx_extest+0xc0>  // b.any
  1e00030a68:	b9400260 	ldr	w0, [x19]
  1e00030a6c:	52800041 	mov	w1, #0x2                   	// #2
  1e00030a70:	910203fb 	add	x27, sp, #0x80
  1e00030a74:	9101c3fc 	add	x28, sp, #0x70
  1e00030a78:	321f0000 	orr	w0, w0, #0x2
  1e00030a7c:	b9000260 	str	w0, [x19]
  1e00030a80:	d280001a 	mov	x26, #0x0                   	// #0
  1e00030a84:	52800019 	mov	w25, #0x0                   	// #0
  1e00030a88:	b9400660 	ldr	w0, [x19, #4]
  1e00030a8c:	33000c20 	bfxil	w0, w1, #0, #4
  1e00030a90:	b9000660 	str	w0, [x19, #4]
  1e00030a94:	52804921 	mov	w1, #0x249                 	// #585
  1e00030a98:	b9400260 	ldr	w0, [x19]
  1e00030a9c:	330e2820 	bfi	w0, w1, #18, #11
  1e00030aa0:	b9000260 	str	w0, [x19]
  1e00030aa4:	52800021 	mov	w1, #0x1                   	// #1
  1e00030aa8:	b9400260 	ldr	w0, [x19]
  1e00030aac:	331e0820 	bfi	w0, w1, #2, #3
  1e00030ab0:	b9000260 	str	w0, [x19]
  1e00030ab4:	528000a1 	mov	w1, #0x5                   	// #5
  1e00030ab8:	b9400260 	ldr	w0, [x19]
  1e00030abc:	331b3020 	bfi	w0, w1, #5, #13
  1e00030ac0:	b9000260 	str	w0, [x19]
  1e00030ac4:	b9400260 	ldr	w0, [x19]
  1e00030ac8:	32030000 	orr	w0, w0, #0x20000000
  1e00030acc:	b9000260 	str	w0, [x19]
  1e00030ad0:	aa1403e0 	mov	x0, x20
  1e00030ad4:	97fffeb7 	bl	1e000305b0 <wait_for_test_instruction_req_done>
  1e00030ad8:	f8776a81 	ldr	x1, [x20, x23]
  1e00030adc:	b946c420 	ldr	w0, [x1, #1732]
  1e00030ae0:	32000000 	orr	w0, w0, #0x1
  1e00030ae4:	b906c420 	str	w0, [x1, #1732]
  1e00030ae8:	f9408280 	ldr	x0, [x20, #256]
  1e00030aec:	b9400001 	ldr	w1, [x0]
  1e00030af0:	121e7821 	and	w1, w1, #0xfffffffd
  1e00030af4:	b9000001 	str	w1, [x0]
  1e00030af8:	b9400001 	ldr	w1, [x0]
  1e00030afc:	12027821 	and	w1, w1, #0xdfffffff
  1e00030b00:	b9000001 	str	w1, [x0]
  1e00030b04:	aa1403e0 	mov	x0, x20
  1e00030b08:	97fffeb7 	bl	1e000305e4 <wait_for_test_instruction_req_done_clear>
  1e00030b0c:	f9408280 	ldr	x0, [x20, #256]
  1e00030b10:	52800182 	mov	w2, #0xc                   	// #12
  1e00030b14:	b9400001 	ldr	w1, [x0]
  1e00030b18:	12017821 	and	w1, w1, #0xbfffffff
  1e00030b1c:	b9000001 	str	w1, [x0]
  1e00030b20:	b9400401 	ldr	w1, [x0, #4]
  1e00030b24:	33000c41 	bfxil	w1, w2, #0, #4
  1e00030b28:	b9000401 	str	w1, [x0, #4]
  1e00030b2c:	b9400801 	ldr	w1, [x0, #8]
  1e00030b30:	321f0021 	orr	w1, w1, #0x2
  1e00030b34:	b9000801 	str	w1, [x0, #8]
  1e00030b38:	52800140 	mov	w0, #0xa                   	// #10
  1e00030b3c:	94000b66 	bl	1e000338d4 <udelay>
  1e00030b40:	aa1403e0 	mov	x0, x20
  1e00030b44:	97fffe9b 	bl	1e000305b0 <wait_for_test_instruction_req_done>
  1e00030b48:	f9408281 	ldr	x1, [x20, #256]
  1e00030b4c:	b9400820 	ldr	w0, [x1, #8]
  1e00030b50:	121e7800 	and	w0, w0, #0xfffffffd
  1e00030b54:	b9000820 	str	w0, [x1, #8]
  1e00030b58:	52800140 	mov	w0, #0xa                   	// #10
  1e00030b5c:	94000b5e 	bl	1e000338d4 <udelay>
  1e00030b60:	aa1403e0 	mov	x0, x20
  1e00030b64:	97fffea0 	bl	1e000305e4 <wait_for_test_instruction_req_done_clear>
  1e00030b68:	52800980 	mov	w0, #0x4c                  	// #76
  1e00030b6c:	1b007ea0 	mul	w0, w21, w0
  1e00030b70:	11029000 	add	w0, w0, #0xa4
  1e00030b74:	8b204273 	add	x19, x19, w0, uxtw
  1e00030b78:	b9400278 	ldr	w24, [x19]
  1e00030b7c:	52800140 	mov	w0, #0xa                   	// #10
  1e00030b80:	94000b55 	bl	1e000338d4 <udelay>
  1e00030b84:	71000adf 	cmp	w22, #0x2
  1e00030b88:	54000381 	b.ne	1e00030bf8 <icon_rx_extest+0x26c>  // b.any
  1e00030b8c:	b87a7b80 	ldr	w0, [x28, x26, lsl #2]
  1e00030b90:	4a000303 	eor	w3, w24, w0
  1e00030b94:	34000383 	cbz	w3, 1e00030c04 <icon_rx_extest+0x278>
  1e00030b98:	f94037e4 	ldr	x4, [sp, #104]
  1e00030b9c:	2a1a03e2 	mov	w2, w26
  1e00030ba0:	2a1503e1 	mov	w1, w21
  1e00030ba4:	aa1403e0 	mov	x0, x20
  1e00030ba8:	97ffff30 	bl	1e00030868 <icon_rx_lane_search>
  1e00030bac:	2a0003f8 	mov	w24, w0
  1e00030bb0:	3100081f 	cmn	w0, #0x2
  1e00030bb4:	54000261 	b.ne	1e00030c00 <icon_rx_extest+0x274>  // b.any
  1e00030bb8:	2a1803f9 	mov	w25, w24
  1e00030bbc:	2a1503e1 	mov	w1, w21
  1e00030bc0:	90000060 	adrp	x0, 1e0003c000 <vsnprintf+0x270>
  1e00030bc4:	91229c00 	add	x0, x0, #0x8a7
  1e00030bc8:	94002c11 	bl	1e0003bc0c <printf>
  1e00030bcc:	a94153f3 	ldp	x19, x20, [sp, #16]
  1e00030bd0:	2a1903e0 	mov	w0, w25
  1e00030bd4:	a9425bf5 	ldp	x21, x22, [sp, #32]
  1e00030bd8:	a94363f7 	ldp	x23, x24, [sp, #48]
  1e00030bdc:	a9446bf9 	ldp	x25, x26, [sp, #64]
  1e00030be0:	a94573fb 	ldp	x27, x28, [sp, #80]
  1e00030be4:	a8ce7bfd 	ldp	x29, x30, [sp], #224
  1e00030be8:	d65f03c0 	ret
  1e00030bec:	b8617862 	ldr	w2, [x3, x1, lsl #2]
  1e00030bf0:	b9000002 	str	w2, [x0]
  1e00030bf4:	17ffff99 	b	1e00030a58 <icon_rx_extest+0xcc>
  1e00030bf8:	b87a7b60 	ldr	w0, [x27, x26, lsl #2]
  1e00030bfc:	17ffffe5 	b	1e00030b90 <icon_rx_extest+0x204>
  1e00030c00:	0b000339 	add	w25, w25, w0
  1e00030c04:	9100075a 	add	x26, x26, #0x1
  1e00030c08:	d1001273 	sub	x19, x19, #0x4
  1e00030c0c:	f100135f 	cmp	x26, #0x4
  1e00030c10:	54fffb41 	b.ne	1e00030b78 <icon_rx_extest+0x1ec>  // b.any
  1e00030c14:	f8776a80 	ldr	x0, [x20, x23]
  1e00030c18:	b946c401 	ldr	w1, [x0, #1732]
  1e00030c1c:	121c7821 	and	w1, w1, #0xfffffff7
  1e00030c20:	b906c401 	str	w1, [x0, #1732]
  1e00030c24:	b946c401 	ldr	w1, [x0, #1732]
  1e00030c28:	121e7821 	and	w1, w1, #0xfffffffd
  1e00030c2c:	b906c401 	str	w1, [x0, #1732]
  1e00030c30:	f9408281 	ldr	x1, [x20, #256]
  1e00030c34:	b9400022 	ldr	w2, [x1]
  1e00030c38:	12017842 	and	w2, w2, #0xbfffffff
  1e00030c3c:	b9000022 	str	w2, [x1]
  1e00030c40:	b946c402 	ldr	w2, [x0, #1732]
  1e00030c44:	121f7842 	and	w2, w2, #0xfffffffe
  1e00030c48:	b906c402 	str	w2, [x0, #1732]
  1e00030c4c:	b9400020 	ldr	w0, [x1]
  1e00030c50:	121e7800 	and	w0, w0, #0xfffffffd
  1e00030c54:	b9000020 	str	w0, [x1]
  1e00030c58:	34fffbb9 	cbz	w25, 1e00030bcc <icon_rx_extest+0x240>
  1e00030c5c:	2a1903e2 	mov	w2, w25
  1e00030c60:	51000ac1 	sub	w1, w22, #0x2
  1e00030c64:	90000060 	adrp	x0, 1e0003c000 <vsnprintf+0x270>
  1e00030c68:	91232000 	add	x0, x0, #0x8c8
  1e00030c6c:	94002be8 	bl	1e0003bc0c <printf>
  1e00030c70:	17ffffd7 	b	1e00030bcc <icon_rx_extest+0x240>

0000001e00030c74 <icon_tx_lane_search>:
  1e00030c74:	a9b97bfd 	stp	x29, x30, [sp, #-112]!
  1e00030c78:	12001c20 	and	w0, w1, #0xff
  1e00030c7c:	52800c41 	mov	w1, #0x62                  	// #98
  1e00030c80:	910003fd 	mov	x29, sp
  1e00030c84:	b90067e0 	str	w0, [sp, #100]
  1e00030c88:	f0000060 	adrp	x0, 1e0003f000 <__RO_END__>
  1e00030c8c:	912ad000 	add	x0, x0, #0xab4
  1e00030c90:	a9025bf5 	stp	x21, x22, [sp, #32]
  1e00030c94:	aa0403f6 	mov	x22, x4
  1e00030c98:	a90363f7 	stp	x23, x24, [sp, #48]
  1e00030c9c:	2a0303f8 	mov	w24, w3
  1e00030ca0:	a9046bf9 	stp	x25, x26, [sp, #64]
  1e00030ca4:	9000007a 	adrp	x26, 1e0003c000 <vsnprintf+0x270>
  1e00030ca8:	9123eb5a 	add	x26, x26, #0x8fa
  1e00030cac:	a90573fb 	stp	x27, x28, [sp, #80]
  1e00030cb0:	531b085b 	ubfiz	w27, w2, #5, #3
  1e00030cb4:	90000079 	adrp	x25, 1e0003c000 <vsnprintf+0x270>
  1e00030cb8:	5280001c 	mov	w28, #0x0                   	// #0
  1e00030cbc:	a90153f3 	stp	x19, x20, [sp, #16]
  1e00030cc0:	9ba10054 	umaddl	x20, w2, w1, x0
  1e00030cc4:	52800013 	mov	w19, #0x0                   	// #0
  1e00030cc8:	911ffb20 	add	x0, x25, #0x7fe
  1e00030ccc:	f90037e0 	str	x0, [sp, #104]
  1e00030cd0:	1adc2700 	lsr	w0, w24, w28
  1e00030cd4:	360004e0 	tbz	w0, #0, 1e00030d70 <icon_tx_lane_search+0xfc>
  1e00030cd8:	0b1c0377 	add	w23, w27, w28
  1e00030cdc:	aa1403f9 	mov	x25, x20
  1e00030ce0:	12001ef7 	and	w23, w23, #0xff
  1e00030ce4:	52800015 	mov	w21, #0x0                   	// #0
  1e00030ce8:	79400320 	ldrh	w0, [x25]
  1e00030cec:	6b0002ff 	cmp	w23, w0
  1e00030cf0:	54000361 	b.ne	1e00030d5c <icon_tx_lane_search+0xe8>  // b.any
  1e00030cf4:	f94037e0 	ldr	x0, [sp, #104]
  1e00030cf8:	91000b23 	add	x3, x25, #0x2
  1e00030cfc:	39403325 	ldrb	w5, [x25, #12]
  1e00030d00:	2a1703e2 	mov	w2, w23
  1e00030d04:	79401724 	ldrh	w4, [x25, #10]
  1e00030d08:	b94067e1 	ldr	w1, [sp, #100]
  1e00030d0c:	94002bc0 	bl	1e0003bc0c <printf>
  1e00030d10:	39403320 	ldrb	w0, [x25, #12]
  1e00030d14:	71002c1f 	cmp	w0, #0xb
  1e00030d18:	54000181 	b.ne	1e00030d48 <icon_tx_lane_search+0xd4>  // b.any
  1e00030d1c:	90000060 	adrp	x0, 1e0003c000 <vsnprintf+0x270>
  1e00030d20:	91238400 	add	x0, x0, #0x8e1
  1e00030d24:	94002bba 	bl	1e0003bc0c <printf>
  1e00030d28:	12800020 	mov	w0, #0xfffffffe            	// #-2
  1e00030d2c:	a94153f3 	ldp	x19, x20, [sp, #16]
  1e00030d30:	a9425bf5 	ldp	x21, x22, [sp, #32]
  1e00030d34:	a94363f7 	ldp	x23, x24, [sp, #48]
  1e00030d38:	a9446bf9 	ldp	x25, x26, [sp, #64]
  1e00030d3c:	a94573fb 	ldp	x27, x28, [sp, #80]
  1e00030d40:	a8c77bfd 	ldp	x29, x30, [sp], #112
  1e00030d44:	d65f03c0 	ret
  1e00030d48:	7100301f 	cmp	w0, #0xc
  1e00030d4c:	540001c1 	b.ne	1e00030d84 <icon_tx_lane_search+0x110>  // b.any
  1e00030d50:	90000060 	adrp	x0, 1e0003c000 <vsnprintf+0x270>
  1e00030d54:	91215000 	add	x0, x0, #0x854
  1e00030d58:	94002bad 	bl	1e0003bc0c <printf>
  1e00030d5c:	110006b5 	add	w21, w21, #0x1
  1e00030d60:	91003b39 	add	x25, x25, #0xe
  1e00030d64:	12001eb5 	and	w21, w21, #0xff
  1e00030d68:	71001ebf 	cmp	w21, #0x7
  1e00030d6c:	54fffbe1 	b.ne	1e00030ce8 <icon_tx_lane_search+0x74>  // b.any
  1e00030d70:	1100079c 	add	w28, w28, #0x1
  1e00030d74:	7100839f 	cmp	w28, #0x20
  1e00030d78:	54fffac1 	b.ne	1e00030cd0 <icon_tx_lane_search+0x5c>  // b.any
  1e00030d7c:	2a1303e0 	mov	w0, w19
  1e00030d80:	17ffffeb 	b	1e00030d2c <icon_tx_lane_search+0xb8>
  1e00030d84:	7100281f 	cmp	w0, #0xa
  1e00030d88:	54000061 	b.ne	1e00030d94 <icon_tx_lane_search+0x120>  // b.any
  1e00030d8c:	aa1a03e0 	mov	x0, x26
  1e00030d90:	17fffff2 	b	1e00030d58 <icon_tx_lane_search+0xe4>
  1e00030d94:	38606ac2 	ldrb	w2, [x22, x0]
  1e00030d98:	79401721 	ldrh	w1, [x25, #10]
  1e00030d9c:	71003c5f 	cmp	w2, #0xf
  1e00030da0:	540000c0 	b.eq	1e00030db8 <icon_tx_lane_search+0x144>  // b.none
  1e00030da4:	6b01005f 	cmp	w2, w1
  1e00030da8:	54000080 	b.eq	1e00030db8 <icon_tx_lane_search+0x144>  // b.none
  1e00030dac:	90000060 	adrp	x0, 1e0003c000 <vsnprintf+0x270>
  1e00030db0:	9121ec00 	add	x0, x0, #0x87b
  1e00030db4:	17ffffdc 	b	1e00030d24 <icon_tx_lane_search+0xb0>
  1e00030db8:	12000c21 	and	w1, w1, #0xf
  1e00030dbc:	11000673 	add	w19, w19, #0x1
  1e00030dc0:	38206ac1 	strb	w1, [x22, x0]
  1e00030dc4:	17ffffe6 	b	1e00030d5c <icon_tx_lane_search+0xe8>

0000001e00030dc8 <icon_tx_extest>:
  1e00030dc8:	a9b07bfd 	stp	x29, x30, [sp, #-256]!
  1e00030dcc:	910003fd 	mov	x29, sp
  1e00030dd0:	a90153f3 	stp	x19, x20, [sp, #16]
  1e00030dd4:	aa0003f3 	mov	x19, x0
  1e00030dd8:	a90363f7 	stp	x23, x24, [sp, #48]
  1e00030ddc:	90000077 	adrp	x23, 1e0003c000 <vsnprintf+0x270>
  1e00030de0:	911542f7 	add	x23, x23, #0x550
  1e00030de4:	f9408274 	ldr	x20, [x19, #256]
  1e00030de8:	a9046bf9 	stp	x25, x26, [sp, #64]
  1e00030dec:	910183fa 	add	x26, sp, #0x60
  1e00030df0:	aa0303f8 	mov	x24, x3
  1e00030df4:	aa1a03e0 	mov	x0, x26
  1e00030df8:	9102c3f9 	add	x25, sp, #0xb0
  1e00030dfc:	a9025bf5 	stp	x21, x22, [sp, #32]
  1e00030e00:	12001c35 	and	w21, w1, #0xff
  1e00030e04:	12001c56 	and	w22, w2, #0xff
  1e00030e08:	d2800982 	mov	x2, #0x4c                  	// #76
  1e00030e0c:	8b0202e1 	add	x1, x23, x2
  1e00030e10:	a90573fb 	stp	x27, x28, [sp, #80]
  1e00030e14:	94002a02 	bl	1e0003b61c <memcpy>
  1e00030e18:	910262e1 	add	x1, x23, #0x98
  1e00030e1c:	aa1903e0 	mov	x0, x25
  1e00030e20:	d2800982 	mov	x2, #0x4c                  	// #76
  1e00030e24:	940029fe 	bl	1e0003b61c <memcpy>
  1e00030e28:	b9400280 	ldr	w0, [x20]
  1e00030e2c:	d37d1eb7 	ubfiz	x23, x21, #3, #8
  1e00030e30:	32020000 	orr	w0, w0, #0x40000000
  1e00030e34:	b9000280 	str	w0, [x20]
  1e00030e38:	f8776a60 	ldr	x0, [x19, x23]
  1e00030e3c:	b946c401 	ldr	w1, [x0, #1732]
  1e00030e40:	321f0021 	orr	w1, w1, #0x2
  1e00030e44:	b906c401 	str	w1, [x0, #1732]
  1e00030e48:	b946c401 	ldr	w1, [x0, #1732]
  1e00030e4c:	321d0021 	orr	w1, w1, #0x8
  1e00030e50:	b906c401 	str	w1, [x0, #1732]
  1e00030e54:	aa1403e1 	mov	x1, x20
  1e00030e58:	b9400280 	ldr	w0, [x20]
  1e00030e5c:	32000000 	orr	w0, w0, #0x1
  1e00030e60:	b8058420 	str	w0, [x1], #88
  1e00030e64:	d2800000 	mov	x0, #0x0                   	// #0
  1e00030e68:	b8607b42 	ldr	w2, [x26, x0, lsl #2]
  1e00030e6c:	91000400 	add	x0, x0, #0x1
  1e00030e70:	b81fc422 	str	w2, [x1], #-4
  1e00030e74:	f1004c1f 	cmp	x0, #0x13
  1e00030e78:	54ffff81 	b.ne	1e00030e68 <icon_tx_extest+0xa0>  // b.any
  1e00030e7c:	b9400280 	ldr	w0, [x20]
  1e00030e80:	52800041 	mov	w1, #0x2                   	// #2
  1e00030e84:	321f0000 	orr	w0, w0, #0x2
  1e00030e88:	b9000280 	str	w0, [x20]
  1e00030e8c:	b9400680 	ldr	w0, [x20, #4]
  1e00030e90:	33000c20 	bfxil	w0, w1, #0, #4
  1e00030e94:	b9000680 	str	w0, [x20, #4]
  1e00030e98:	52804921 	mov	w1, #0x249                 	// #585
  1e00030e9c:	b9400280 	ldr	w0, [x20]
  1e00030ea0:	330e2820 	bfi	w0, w1, #18, #11
  1e00030ea4:	b9000280 	str	w0, [x20]
  1e00030ea8:	52800021 	mov	w1, #0x1                   	// #1
  1e00030eac:	b9400280 	ldr	w0, [x20]
  1e00030eb0:	331e0820 	bfi	w0, w1, #2, #3
  1e00030eb4:	b9000280 	str	w0, [x20]
  1e00030eb8:	528000a1 	mov	w1, #0x5                   	// #5
  1e00030ebc:	b9400280 	ldr	w0, [x20]
  1e00030ec0:	331b3020 	bfi	w0, w1, #5, #13
  1e00030ec4:	b9000280 	str	w0, [x20]
  1e00030ec8:	b9400280 	ldr	w0, [x20]
  1e00030ecc:	32030000 	orr	w0, w0, #0x20000000
  1e00030ed0:	b9000280 	str	w0, [x20]
  1e00030ed4:	aa1303e0 	mov	x0, x19
  1e00030ed8:	97fffdb6 	bl	1e000305b0 <wait_for_test_instruction_req_done>
  1e00030edc:	f8776a61 	ldr	x1, [x19, x23]
  1e00030ee0:	b946c420 	ldr	w0, [x1, #1732]
  1e00030ee4:	32000000 	orr	w0, w0, #0x1
  1e00030ee8:	b906c420 	str	w0, [x1, #1732]
  1e00030eec:	f9408260 	ldr	x0, [x19, #256]
  1e00030ef0:	b9400001 	ldr	w1, [x0]
  1e00030ef4:	121e7821 	and	w1, w1, #0xfffffffd
  1e00030ef8:	b9000001 	str	w1, [x0]
  1e00030efc:	b9400001 	ldr	w1, [x0]
  1e00030f00:	12027821 	and	w1, w1, #0xdfffffff
  1e00030f04:	b9000001 	str	w1, [x0]
  1e00030f08:	aa1303e0 	mov	x0, x19
  1e00030f0c:	97fffdb6 	bl	1e000305e4 <wait_for_test_instruction_req_done_clear>
  1e00030f10:	f9408260 	ldr	x0, [x19, #256]
  1e00030f14:	52800182 	mov	w2, #0xc                   	// #12
  1e00030f18:	b9400001 	ldr	w1, [x0]
  1e00030f1c:	12017821 	and	w1, w1, #0xbfffffff
  1e00030f20:	b9000001 	str	w1, [x0]
  1e00030f24:	b9400401 	ldr	w1, [x0, #4]
  1e00030f28:	33000c41 	bfxil	w1, w2, #0, #4
  1e00030f2c:	b9000401 	str	w1, [x0, #4]
  1e00030f30:	35000a56 	cbnz	w22, 1e00031078 <icon_tx_extest+0x2b0>
  1e00030f34:	52a80081 	mov	w1, #0x40040000            	// #1074003968
  1e00030f38:	b9005801 	str	w1, [x0, #88]
  1e00030f3c:	52800081 	mov	w1, #0x4                   	// #4
  1e00030f40:	b900541f 	str	wzr, [x0, #84]
  1e00030f44:	72a08001 	movk	w1, #0x400, lsl #16
  1e00030f48:	b9005001 	str	w1, [x0, #80]
  1e00030f4c:	52800801 	mov	w1, #0x40                  	// #64
  1e00030f50:	b9004c01 	str	w1, [x0, #76]
  1e00030f54:	d280001b 	mov	x27, #0x0                   	// #0
  1e00030f58:	5280001a 	mov	w26, #0x0                   	// #0
  1e00030f5c:	b9400801 	ldr	w1, [x0, #8]
  1e00030f60:	321e0021 	orr	w1, w1, #0x4
  1e00030f64:	b9000801 	str	w1, [x0, #8]
  1e00030f68:	52800140 	mov	w0, #0xa                   	// #10
  1e00030f6c:	94000a5a 	bl	1e000338d4 <udelay>
  1e00030f70:	aa1303e0 	mov	x0, x19
  1e00030f74:	97fffd8f 	bl	1e000305b0 <wait_for_test_instruction_req_done>
  1e00030f78:	f9408261 	ldr	x1, [x19, #256]
  1e00030f7c:	b9400820 	ldr	w0, [x1, #8]
  1e00030f80:	121d7800 	and	w0, w0, #0xfffffffb
  1e00030f84:	b9000820 	str	w0, [x1, #8]
  1e00030f88:	52800140 	mov	w0, #0xa                   	// #10
  1e00030f8c:	94000a52 	bl	1e000338d4 <udelay>
  1e00030f90:	aa1303e0 	mov	x0, x19
  1e00030f94:	97fffd94 	bl	1e000305e4 <wait_for_test_instruction_req_done_clear>
  1e00030f98:	f9408260 	ldr	x0, [x19, #256]
  1e00030f9c:	52800042 	mov	w2, #0x2                   	// #2
  1e00030fa0:	b9400001 	ldr	w1, [x0]
  1e00030fa4:	32020021 	orr	w1, w1, #0x40000000
  1e00030fa8:	b9000001 	str	w1, [x0]
  1e00030fac:	b9400401 	ldr	w1, [x0, #4]
  1e00030fb0:	33000c41 	bfxil	w1, w2, #0, #4
  1e00030fb4:	b9000401 	str	w1, [x0, #4]
  1e00030fb8:	b9400001 	ldr	w1, [x0]
  1e00030fbc:	2a020021 	orr	w1, w1, w2
  1e00030fc0:	b9000001 	str	w1, [x0]
  1e00030fc4:	52800082 	mov	w2, #0x4                   	// #4
  1e00030fc8:	b9400001 	ldr	w1, [x0]
  1e00030fcc:	331e0841 	bfi	w1, w2, #2, #3
  1e00030fd0:	b9000001 	str	w1, [x0]
  1e00030fd4:	52800140 	mov	w0, #0xa                   	// #10
  1e00030fd8:	94000a3f 	bl	1e000338d4 <udelay>
  1e00030fdc:	aa1303e0 	mov	x0, x19
  1e00030fe0:	97fffdb5 	bl	1e000306b4 <icon_sw_instruction_req>
  1e00030fe4:	f9408261 	ldr	x1, [x19, #256]
  1e00030fe8:	b9400020 	ldr	w0, [x1]
  1e00030fec:	121e7800 	and	w0, w0, #0xfffffffd
  1e00030ff0:	b9000020 	str	w0, [x1]
  1e00030ff4:	52800980 	mov	w0, #0x4c                  	// #76
  1e00030ff8:	1b007ea0 	mul	w0, w21, w0
  1e00030ffc:	11029000 	add	w0, w0, #0xa4
  1e00031000:	8b204294 	add	x20, x20, w0, uxtw
  1e00031004:	b940029c 	ldr	w28, [x20]
  1e00031008:	52800140 	mov	w0, #0xa                   	// #10
  1e0003100c:	94000a32 	bl	1e000338d4 <udelay>
  1e00031010:	34000076 	cbz	w22, 1e0003101c <icon_tx_extest+0x254>
  1e00031014:	b87b7b20 	ldr	w0, [x25, x27, lsl #2]
  1e00031018:	4a00039c 	eor	w28, w28, w0
  1e0003101c:	3400045c 	cbz	w28, 1e000310a4 <icon_tx_extest+0x2dc>
  1e00031020:	2a1c03e3 	mov	w3, w28
  1e00031024:	aa1803e4 	mov	x4, x24
  1e00031028:	2a1b03e2 	mov	w2, w27
  1e0003102c:	2a1503e1 	mov	w1, w21
  1e00031030:	aa1303e0 	mov	x0, x19
  1e00031034:	97ffff10 	bl	1e00030c74 <icon_tx_lane_search>
  1e00031038:	2a0003fc 	mov	w28, w0
  1e0003103c:	3100081f 	cmn	w0, #0x2
  1e00031040:	54000301 	b.ne	1e000310a0 <icon_tx_extest+0x2d8>  // b.any
  1e00031044:	2a1c03fa 	mov	w26, w28
  1e00031048:	2a1503e1 	mov	w1, w21
  1e0003104c:	f0000040 	adrp	x0, 1e0003c000 <vsnprintf+0x270>
  1e00031050:	91229c00 	add	x0, x0, #0x8a7
  1e00031054:	94002aee 	bl	1e0003bc0c <printf>
  1e00031058:	a94153f3 	ldp	x19, x20, [sp, #16]
  1e0003105c:	2a1a03e0 	mov	w0, w26
  1e00031060:	a9425bf5 	ldp	x21, x22, [sp, #32]
  1e00031064:	a94363f7 	ldp	x23, x24, [sp, #48]
  1e00031068:	a9446bf9 	ldp	x25, x26, [sp, #64]
  1e0003106c:	a94573fb 	ldp	x27, x28, [sp, #80]
  1e00031070:	a8d07bfd 	ldp	x29, x30, [sp], #256
  1e00031074:	d65f03c0 	ret
  1e00031078:	12a80081 	mov	w1, #0xbffbffff            	// #-1074003969
  1e0003107c:	b9005801 	str	w1, [x0, #88]
  1e00031080:	12800001 	mov	w1, #0xffffffff            	// #-1
  1e00031084:	b9005401 	str	w1, [x0, #84]
  1e00031088:	529fff61 	mov	w1, #0xfffb                	// #65531
  1e0003108c:	72bf7fe1 	movk	w1, #0xfbff, lsl #16
  1e00031090:	b9005001 	str	w1, [x0, #80]
  1e00031094:	529ff7e1 	mov	w1, #0xffbf                	// #65471
  1e00031098:	72a07fe1 	movk	w1, #0x3ff, lsl #16
  1e0003109c:	17ffffad 	b	1e00030f50 <icon_tx_extest+0x188>
  1e000310a0:	0b00035a 	add	w26, w26, w0
  1e000310a4:	9100077b 	add	x27, x27, #0x1
  1e000310a8:	d1001294 	sub	x20, x20, #0x4
  1e000310ac:	f1004f7f 	cmp	x27, #0x13
  1e000310b0:	54fffaa1 	b.ne	1e00031004 <icon_tx_extest+0x23c>  // b.any
  1e000310b4:	f9408260 	ldr	x0, [x19, #256]
  1e000310b8:	52800182 	mov	w2, #0xc                   	// #12
  1e000310bc:	b9400401 	ldr	w1, [x0, #4]
  1e000310c0:	33000c41 	bfxil	w1, w2, #0, #4
  1e000310c4:	b9000401 	str	w1, [x0, #4]
  1e000310c8:	f8776a61 	ldr	x1, [x19, x23]
  1e000310cc:	b946c422 	ldr	w2, [x1, #1732]
  1e000310d0:	121c7842 	and	w2, w2, #0xfffffff7
  1e000310d4:	b906c422 	str	w2, [x1, #1732]
  1e000310d8:	b946c422 	ldr	w2, [x1, #1732]
  1e000310dc:	121e7842 	and	w2, w2, #0xfffffffd
  1e000310e0:	b906c422 	str	w2, [x1, #1732]
  1e000310e4:	b9400002 	ldr	w2, [x0]
  1e000310e8:	12017842 	and	w2, w2, #0xbfffffff
  1e000310ec:	b9000002 	str	w2, [x0]
  1e000310f0:	b946c422 	ldr	w2, [x1, #1732]
  1e000310f4:	121f7842 	and	w2, w2, #0xfffffffe
  1e000310f8:	b906c422 	str	w2, [x1, #1732]
  1e000310fc:	b9400001 	ldr	w1, [x0]
  1e00031100:	121e7821 	and	w1, w1, #0xfffffffd
  1e00031104:	b9000001 	str	w1, [x0]
  1e00031108:	34fffa9a 	cbz	w26, 1e00031058 <icon_tx_extest+0x290>
  1e0003110c:	2a1a03e2 	mov	w2, w26
  1e00031110:	2a1603e1 	mov	w1, w22
  1e00031114:	f0000040 	adrp	x0, 1e0003c000 <vsnprintf+0x270>
  1e00031118:	91245800 	add	x0, x0, #0x916
  1e0003111c:	94002abc 	bl	1e0003bc0c <printf>
  1e00031120:	17ffffce 	b	1e00031058 <icon_tx_extest+0x290>

0000001e00031124 <hbm3_lane_repair>:
  1e00031124:	a9bb7bfd 	stp	x29, x30, [sp, #-80]!
  1e00031128:	910003fd 	mov	x29, sp
  1e0003112c:	a90153f3 	stp	x19, x20, [sp, #16]
  1e00031130:	aa0203f3 	mov	x19, x2
  1e00031134:	d2800014 	mov	x20, #0x0                   	// #0
  1e00031138:	a9025bf5 	stp	x21, x22, [sp, #32]
  1e0003113c:	aa0003f6 	mov	x22, x0
  1e00031140:	12001c35 	and	w21, w1, #0xff
  1e00031144:	a90363f7 	stp	x23, x24, [sp, #48]
  1e00031148:	f0000057 	adrp	x23, 1e0003c000 <vsnprintf+0x270>
  1e0003114c:	f0000058 	adrp	x24, 1e0003c000 <vsnprintf+0x270>
  1e00031150:	912512f7 	add	x23, x23, #0x944
  1e00031154:	9125db18 	add	x24, x24, #0x976
  1e00031158:	a9046bf9 	stp	x25, x26, [sp, #64]
  1e0003115c:	91000459 	add	x25, x2, #0x1
  1e00031160:	38746a63 	ldrb	w3, [x19, x20]
  1e00031164:	38746b26 	ldrb	w6, [x25, x20]
  1e00031168:	12001e9a 	and	w26, w20, #0xff
  1e0003116c:	71003c7f 	cmp	w3, #0xf
  1e00031170:	540001c0 	b.eq	1e000311a8 <hbm3_lane_repair+0x84>  // b.none
  1e00031174:	71003cdf 	cmp	w6, #0xf
  1e00031178:	540001c0 	b.eq	1e000311b0 <hbm3_lane_repair+0x8c>  // b.none
  1e0003117c:	2a1503e1 	mov	w1, w21
  1e00031180:	f0000040 	adrp	x0, 1e0003c000 <vsnprintf+0x270>
  1e00031184:	9124bc00 	add	x0, x0, #0x92f
  1e00031188:	94002aa1 	bl	1e0003bc0c <printf>
  1e0003118c:	12800020 	mov	w0, #0xfffffffe            	// #-2
  1e00031190:	a94153f3 	ldp	x19, x20, [sp, #16]
  1e00031194:	a9425bf5 	ldp	x21, x22, [sp, #32]
  1e00031198:	a94363f7 	ldp	x23, x24, [sp, #48]
  1e0003119c:	a9446bf9 	ldp	x25, x26, [sp, #64]
  1e000311a0:	a8c57bfd 	ldp	x29, x30, [sp], #80
  1e000311a4:	d65f03c0 	ret
  1e000311a8:	71003cdf 	cmp	w6, #0xf
  1e000311ac:	54000280 	b.eq	1e000311fc <hbm3_lane_repair+0xd8>  // b.none
  1e000311b0:	2a1503e4 	mov	w4, w21
  1e000311b4:	2a1403e2 	mov	w2, w20
  1e000311b8:	11000685 	add	w5, w20, #0x1
  1e000311bc:	2a1503e1 	mov	w1, w21
  1e000311c0:	aa1703e0 	mov	x0, x23
  1e000311c4:	94002a92 	bl	1e0003bc0c <printf>
  1e000311c8:	2a1503e1 	mov	w1, w21
  1e000311cc:	aa1803e0 	mov	x0, x24
  1e000311d0:	94002a8f 	bl	1e0003bc0c <printf>
  1e000311d4:	38746b24 	ldrb	w4, [x25, x20]
  1e000311d8:	2a1a03e3 	mov	w3, w26
  1e000311dc:	38746a60 	ldrb	w0, [x19, x20]
  1e000311e0:	2a1503e1 	mov	w1, w21
  1e000311e4:	52800002 	mov	w2, #0x0                   	// #0
  1e000311e8:	12000c00 	and	w0, w0, #0xf
  1e000311ec:	531c0c84 	ubfiz	w4, w4, #4, #4
  1e000311f0:	2a000084 	orr	w4, w4, w0
  1e000311f4:	aa1603e0 	mov	x0, x22
  1e000311f8:	97fffd75 	bl	1e000307cc <icon_lane_repair>
  1e000311fc:	91000a94 	add	x20, x20, #0x2
  1e00031200:	f1002a9f 	cmp	x20, #0xa
  1e00031204:	54fffae1 	b.ne	1e00031160 <hbm3_lane_repair+0x3c>  // b.any
  1e00031208:	d37d1eb5 	ubfiz	x21, x21, #3, #8
  1e0003120c:	39400261 	ldrb	w1, [x19]
  1e00031210:	f8756ac3 	ldr	x3, [x22, x21]
  1e00031214:	b940d860 	ldr	w0, [x3, #216]
  1e00031218:	33000c20 	bfxil	w0, w1, #0, #4
  1e0003121c:	b900d860 	str	w0, [x3, #216]
  1e00031220:	b940d860 	ldr	w0, [x3, #216]
  1e00031224:	39400661 	ldrb	w1, [x19, #1]
  1e00031228:	331c0c20 	bfi	w0, w1, #4, #4
  1e0003122c:	b900d860 	str	w0, [x3, #216]
  1e00031230:	b940d860 	ldr	w0, [x3, #216]
  1e00031234:	39400a61 	ldrb	w1, [x19, #2]
  1e00031238:	33180c20 	bfi	w0, w1, #8, #4
  1e0003123c:	b900d860 	str	w0, [x3, #216]
  1e00031240:	b940d860 	ldr	w0, [x3, #216]
  1e00031244:	39400e61 	ldrb	w1, [x19, #3]
  1e00031248:	33140c20 	bfi	w0, w1, #12, #4
  1e0003124c:	b900d860 	str	w0, [x3, #216]
  1e00031250:	b940d460 	ldr	w0, [x3, #212]
  1e00031254:	39401261 	ldrb	w1, [x19, #4]
  1e00031258:	33000c20 	bfxil	w0, w1, #0, #4
  1e0003125c:	b900d460 	str	w0, [x3, #212]
  1e00031260:	b940d460 	ldr	w0, [x3, #212]
  1e00031264:	39401661 	ldrb	w1, [x19, #5]
  1e00031268:	331c0c20 	bfi	w0, w1, #4, #4
  1e0003126c:	b900d460 	str	w0, [x3, #212]
  1e00031270:	b940d860 	ldr	w0, [x3, #216]
  1e00031274:	39401a61 	ldrb	w1, [x19, #6]
  1e00031278:	33100c20 	bfi	w0, w1, #16, #4
  1e0003127c:	b900d860 	str	w0, [x3, #216]
  1e00031280:	b940d860 	ldr	w0, [x3, #216]
  1e00031284:	39401e61 	ldrb	w1, [x19, #7]
  1e00031288:	330c0c20 	bfi	w0, w1, #20, #4
  1e0003128c:	b900d860 	str	w0, [x3, #216]
  1e00031290:	b940d860 	ldr	w0, [x3, #216]
  1e00031294:	39402261 	ldrb	w1, [x19, #8]
  1e00031298:	33080c20 	bfi	w0, w1, #24, #4
  1e0003129c:	b900d860 	str	w0, [x3, #216]
  1e000312a0:	39402661 	ldrb	w1, [x19, #9]
  1e000312a4:	b940d860 	ldr	w0, [x3, #216]
  1e000312a8:	33040c20 	bfi	w0, w1, #28, #4
  1e000312ac:	b900d860 	str	w0, [x3, #216]
  1e000312b0:	52800020 	mov	w0, #0x1                   	// #1
  1e000312b4:	940009ac 	bl	1e00033964 <mdelay>
  1e000312b8:	f8756ac1 	ldr	x1, [x22, x21]
  1e000312bc:	b9403020 	ldr	w0, [x1, #48]
  1e000312c0:	32170000 	orr	w0, w0, #0x200
  1e000312c4:	b9003020 	str	w0, [x1, #48]
  1e000312c8:	52800020 	mov	w0, #0x1                   	// #1
  1e000312cc:	94000982 	bl	1e000338d4 <udelay>
  1e000312d0:	f8756ac1 	ldr	x1, [x22, x21]
  1e000312d4:	b9403020 	ldr	w0, [x1, #48]
  1e000312d8:	12167800 	and	w0, w0, #0xfffffdff
  1e000312dc:	b9003020 	str	w0, [x1, #48]
  1e000312e0:	52800000 	mov	w0, #0x0                   	// #0
  1e000312e4:	17ffffab 	b	1e00031190 <hbm3_lane_repair+0x6c>

0000001e000312e8 <icon_extest>:
  1e000312e8:	a9bc7bfd 	stp	x29, x30, [sp, #-64]!
  1e000312ec:	aa0203e3 	mov	x3, x2
  1e000312f0:	910003fd 	mov	x29, sp
  1e000312f4:	f9001bf7 	str	x23, [sp, #48]
  1e000312f8:	12001c37 	and	w23, w1, #0xff
  1e000312fc:	2a1703e1 	mov	w1, w23
  1e00031300:	a90153f3 	stp	x19, x20, [sp, #16]
  1e00031304:	a9025bf5 	stp	x21, x22, [sp, #32]
  1e00031308:	aa0003f5 	mov	x21, x0
  1e0003130c:	aa0203f6 	mov	x22, x2
  1e00031310:	52800002 	mov	w2, #0x0                   	// #0
  1e00031314:	97fffead 	bl	1e00030dc8 <icon_tx_extest>
  1e00031318:	2a0003f3 	mov	w19, w0
  1e0003131c:	13001c00 	sxtb	w0, w0
  1e00031320:	3100081f 	cmn	w0, #0x2
  1e00031324:	540000e1 	b.ne	1e00031340 <icon_extest+0x58>  // b.any
  1e00031328:	12800020 	mov	w0, #0xfffffffe            	// #-2
  1e0003132c:	a94153f3 	ldp	x19, x20, [sp, #16]
  1e00031330:	a9425bf5 	ldp	x21, x22, [sp, #32]
  1e00031334:	f9401bf7 	ldr	x23, [sp, #48]
  1e00031338:	a8c47bfd 	ldp	x29, x30, [sp], #64
  1e0003133c:	d65f03c0 	ret
  1e00031340:	aa1503e0 	mov	x0, x21
  1e00031344:	97fffcef 	bl	1e00030700 <icon_hbm_reset>
  1e00031348:	52800140 	mov	w0, #0xa                   	// #10
  1e0003134c:	94000962 	bl	1e000338d4 <udelay>
  1e00031350:	2a1703e1 	mov	w1, w23
  1e00031354:	aa1603e3 	mov	x3, x22
  1e00031358:	aa1503e0 	mov	x0, x21
  1e0003135c:	52800022 	mov	w2, #0x1                   	// #1
  1e00031360:	97fffe9a 	bl	1e00030dc8 <icon_tx_extest>
  1e00031364:	13001c01 	sxtb	w1, w0
  1e00031368:	3100083f 	cmn	w1, #0x2
  1e0003136c:	54fffde0 	b.eq	1e00031328 <icon_extest+0x40>  // b.none
  1e00031370:	0b000260 	add	w0, w19, w0
  1e00031374:	12001c14 	and	w20, w0, #0xff
  1e00031378:	aa1503e0 	mov	x0, x21
  1e0003137c:	97fffce1 	bl	1e00030700 <icon_hbm_reset>
  1e00031380:	52800140 	mov	w0, #0xa                   	// #10
  1e00031384:	94000954 	bl	1e000338d4 <udelay>
  1e00031388:	2a1703e1 	mov	w1, w23
  1e0003138c:	aa1603e3 	mov	x3, x22
  1e00031390:	aa1503e0 	mov	x0, x21
  1e00031394:	52800042 	mov	w2, #0x2                   	// #2
  1e00031398:	97fffd7d 	bl	1e0003098c <icon_rx_extest>
  1e0003139c:	13001c01 	sxtb	w1, w0
  1e000313a0:	3100083f 	cmn	w1, #0x2
  1e000313a4:	54fffc20 	b.eq	1e00031328 <icon_extest+0x40>  // b.none
  1e000313a8:	12001c13 	and	w19, w0, #0xff
  1e000313ac:	aa1503e0 	mov	x0, x21
  1e000313b0:	97fffcd4 	bl	1e00030700 <icon_hbm_reset>
  1e000313b4:	52800140 	mov	w0, #0xa                   	// #10
  1e000313b8:	94000947 	bl	1e000338d4 <udelay>
  1e000313bc:	2a1703e1 	mov	w1, w23
  1e000313c0:	aa1603e3 	mov	x3, x22
  1e000313c4:	aa1503e0 	mov	x0, x21
  1e000313c8:	52800062 	mov	w2, #0x3                   	// #3
  1e000313cc:	97fffd70 	bl	1e0003098c <icon_rx_extest>
  1e000313d0:	13001c01 	sxtb	w1, w0
  1e000313d4:	3100083f 	cmn	w1, #0x2
  1e000313d8:	54fffa80 	b.eq	1e00031328 <icon_extest+0x40>  // b.none
  1e000313dc:	0b000260 	add	w0, w19, w0
  1e000313e0:	0b000280 	add	w0, w20, w0
  1e000313e4:	13001c00 	sxtb	w0, w0
  1e000313e8:	17ffffd1 	b	1e0003132c <icon_extest+0x44>

0000001e000313ec <icon_mrs_ch>:
  1e000313ec:	a9bf7bfd 	stp	x29, x30, [sp, #-16]!
  1e000313f0:	910003fd 	mov	x29, sp
  1e000313f4:	f9408003 	ldr	x3, [x0, #256]
  1e000313f8:	b9400064 	ldr	w4, [x3]
  1e000313fc:	32000084 	orr	w4, w4, #0x1
  1e00031400:	b9000064 	str	w4, [x3]
  1e00031404:	b9400044 	ldr	w4, [x2]
  1e00031408:	b9005864 	str	w4, [x3, #88]
  1e0003140c:	b9400444 	ldr	w4, [x2, #4]
  1e00031410:	b9005464 	str	w4, [x3, #84]
  1e00031414:	b9400844 	ldr	w4, [x2, #8]
  1e00031418:	b9005064 	str	w4, [x3, #80]
  1e0003141c:	b9400c42 	ldr	w2, [x2, #12]
  1e00031420:	b9004c62 	str	w2, [x3, #76]
  1e00031424:	52800222 	mov	w2, #0x11                  	// #17
  1e00031428:	97fffc7c 	bl	1e00030618 <icon_test_instruction_req>
  1e0003142c:	52800000 	mov	w0, #0x0                   	// #0
  1e00031430:	a8c17bfd 	ldp	x29, x30, [sp], #16
  1e00031434:	d65f03c0 	ret

0000001e00031438 <icon_rd_feedback>:
  1e00031438:	a9bd7bfd 	stp	x29, x30, [sp, #-48]!
  1e0003143c:	910003fd 	mov	x29, sp
  1e00031440:	a90153f3 	stp	x19, x20, [sp, #16]
  1e00031444:	12001c33 	and	w19, w1, #0xff
  1e00031448:	aa0003f4 	mov	x20, x0
  1e0003144c:	2a1303e1 	mov	w1, w19
  1e00031450:	a9025bf5 	stp	x21, x22, [sp, #32]
  1e00031454:	aa0303f5 	mov	x21, x3
  1e00031458:	aa0203f6 	mov	x22, x2
  1e0003145c:	52800142 	mov	w2, #0xa                   	// #10
  1e00031460:	97fffc6e 	bl	1e00030618 <icon_test_instruction_req>
  1e00031464:	2a1303e1 	mov	w1, w19
  1e00031468:	aa1403e0 	mov	x0, x20
  1e0003146c:	52800162 	mov	w2, #0xb                   	// #11
  1e00031470:	97fffc6a 	bl	1e00030618 <icon_test_instruction_req>
  1e00031474:	52800980 	mov	w0, #0x4c                  	// #76
  1e00031478:	f9408281 	ldr	x1, [x20, #256]
  1e0003147c:	1b007e73 	mul	w19, w19, w0
  1e00031480:	11029260 	add	w0, w19, #0xa4
  1e00031484:	11028273 	add	w19, w19, #0xa0
  1e00031488:	93407c00 	sxtw	x0, w0
  1e0003148c:	93407e73 	sxtw	x19, w19
  1e00031490:	b8616800 	ldr	w0, [x0, x1]
  1e00031494:	b90002c0 	str	w0, [x22]
  1e00031498:	b8616a60 	ldr	w0, [x19, x1]
  1e0003149c:	a94153f3 	ldp	x19, x20, [sp, #16]
  1e000314a0:	b90002a0 	str	w0, [x21]
  1e000314a4:	a9425bf5 	ldp	x21, x22, [sp, #32]
  1e000314a8:	52800000 	mov	w0, #0x0                   	// #0
  1e000314ac:	a8c37bfd 	ldp	x29, x30, [sp], #48
  1e000314b0:	d65f03c0 	ret

0000001e000314b4 <tmrs_write>:
  1e000314b4:	a9bf7bfd 	stp	x29, x30, [sp, #-16]!
  1e000314b8:	52800063 	mov	w3, #0x3                   	// #3
  1e000314bc:	910003fd 	mov	x29, sp
  1e000314c0:	f9408002 	ldr	x2, [x0, #256]
  1e000314c4:	b9005841 	str	w1, [x2, #88]
  1e000314c8:	b9400041 	ldr	w1, [x2]
  1e000314cc:	331e0861 	bfi	w1, w3, #2, #3
  1e000314d0:	b9000041 	str	w1, [x2]
  1e000314d4:	528003c3 	mov	w3, #0x1e                  	// #30
  1e000314d8:	b9400041 	ldr	w1, [x2]
  1e000314dc:	330e2861 	bfi	w1, w3, #18, #11
  1e000314e0:	b9000041 	str	w1, [x2]
  1e000314e4:	97fffc74 	bl	1e000306b4 <icon_sw_instruction_req>
  1e000314e8:	52800140 	mov	w0, #0xa                   	// #10
  1e000314ec:	940008fa 	bl	1e000338d4 <udelay>
  1e000314f0:	52800000 	mov	w0, #0x0                   	// #0
  1e000314f4:	a8c17bfd 	ldp	x29, x30, [sp], #16
  1e000314f8:	d65f03c0 	ret

0000001e000314fc <tmrs_gen_inst>:
  1e000314fc:	a9bf7bfd 	stp	x29, x30, [sp, #-16]!
  1e00031500:	5283f603 	mov	w3, #0x1fb0                	// #8112
  1e00031504:	910003fd 	mov	x29, sp
  1e00031508:	f9408001 	ldr	x1, [x0, #256]
  1e0003150c:	b9400022 	ldr	w2, [x1]
  1e00031510:	121b7042 	and	w2, w2, #0xffffffe3
  1e00031514:	b9000022 	str	w2, [x1]
  1e00031518:	b9400022 	ldr	w2, [x1]
  1e0003151c:	331b3062 	bfi	w2, w3, #5, #13
  1e00031520:	b9000022 	str	w2, [x1]
  1e00031524:	97fffc64 	bl	1e000306b4 <icon_sw_instruction_req>
  1e00031528:	52800140 	mov	w0, #0xa                   	// #10
  1e0003152c:	940008ea 	bl	1e000338d4 <udelay>
  1e00031530:	52800000 	mov	w0, #0x0                   	// #0
  1e00031534:	a8c17bfd 	ldp	x29, x30, [sp], #16
  1e00031538:	d65f03c0 	ret

0000001e0003153c <tmrs_bypass>:
  1e0003153c:	a9bf7bfd 	stp	x29, x30, [sp, #-16]!
  1e00031540:	52800022 	mov	w2, #0x1                   	// #1
  1e00031544:	910003fd 	mov	x29, sp
  1e00031548:	f9408001 	ldr	x1, [x0, #256]
  1e0003154c:	b9005822 	str	w2, [x1, #88]
  1e00031550:	b9400023 	ldr	w3, [x1]
  1e00031554:	331e0843 	bfi	w3, w2, #2, #3
  1e00031558:	b9000023 	str	w3, [x1]
  1e0003155c:	b9400023 	ldr	w3, [x1]
  1e00031560:	330e2843 	bfi	w3, w2, #18, #11
  1e00031564:	b9000023 	str	w3, [x1]
  1e00031568:	5283e003 	mov	w3, #0x1f00                	// #7936
  1e0003156c:	b9400022 	ldr	w2, [x1]
  1e00031570:	331b3062 	bfi	w2, w3, #5, #13
  1e00031574:	b9000022 	str	w2, [x1]
  1e00031578:	97fffc4f 	bl	1e000306b4 <icon_sw_instruction_req>
  1e0003157c:	52800140 	mov	w0, #0xa                   	// #10
  1e00031580:	940008d5 	bl	1e000338d4 <udelay>
  1e00031584:	52800000 	mov	w0, #0x0                   	// #0
  1e00031588:	a8c17bfd 	ldp	x29, x30, [sp], #16
  1e0003158c:	d65f03c0 	ret

0000001e00031590 <rebel_bakery_lock_init>:
  1e00031590:	d2810201 	mov	x1, #0x810                 	// #2064
  1e00031594:	f2a00461 	movk	x1, #0x23, lsl #16
  1e00031598:	f2c003c1 	movk	x1, #0x1e, lsl #32
  1e0003159c:	aa0103e0 	mov	x0, x1
  1e000315a0:	b804041f 	str	wzr, [x0], #64
  1e000315a4:	b900403f 	str	wzr, [x1, #64]
  1e000315a8:	b81c401f 	stur	wzr, [x0, #-60]
  1e000315ac:	b900041f 	str	wzr, [x0, #4]
  1e000315b0:	b81c801f 	stur	wzr, [x0, #-56]
  1e000315b4:	b900081f 	str	wzr, [x0, #8]
  1e000315b8:	b81cc01f 	stur	wzr, [x0, #-52]
  1e000315bc:	b9000c1f 	str	wzr, [x0, #12]
  1e000315c0:	d65f03c0 	ret

0000001e000315c4 <bl2_arch_setup>:
  1e000315c4:	d2a00600 	mov	x0, #0x300000              	// #3145728
  1e000315c8:	d5181040 	msr	cpacr_el1, x0
  1e000315cc:	d65f03c0 	ret

0000001e000315d0 <bl2_load_images>:
  1e000315d0:	a9bd7bfd 	stp	x29, x30, [sp, #-48]!
  1e000315d4:	910003fd 	mov	x29, sp
  1e000315d8:	a90153f3 	stp	x19, x20, [sp, #16]
  1e000315dc:	a9025bf5 	stp	x21, x22, [sp, #32]
  1e000315e0:	94002686 	bl	1e0003aff8 <plat_get_bl_image_load_info>
  1e000315e4:	b5000040 	cbnz	x0, 1e000315ec <bl2_load_images+0x1c>
  1e000315e8:	94002806 	bl	1e0003b600 <__assert>
  1e000315ec:	f9400413 	ldr	x19, [x0, #8]
  1e000315f0:	b4ffffd3 	cbz	x19, 1e000315e8 <bl2_load_images+0x18>
  1e000315f4:	39400001 	ldrb	w1, [x0]
  1e000315f8:	7100103f 	cmp	w1, #0x4
  1e000315fc:	54ffff61 	b.ne	1e000315e8 <bl2_load_images+0x18>  // b.any
  1e00031600:	39400400 	ldrb	w0, [x0, #1]
  1e00031604:	7100041f 	cmp	w0, #0x1
  1e00031608:	54ffff09 	b.ls	1e000315e8 <bl2_load_images+0x18>  // b.plast
  1e0003160c:	f0000055 	adrp	x21, 1e0003c000 <vsnprintf+0x270>
  1e00031610:	912626b5 	add	x21, x21, #0x989
  1e00031614:	52800016 	mov	w22, #0x0                   	// #0
  1e00031618:	f9400660 	ldr	x0, [x19, #8]
  1e0003161c:	b9400400 	ldr	w0, [x0, #4]
  1e00031620:	361000a0 	tbz	w0, #2, 1e00031634 <bl2_load_images+0x64>
  1e00031624:	340001b6 	cbz	w22, 1e00031658 <bl2_load_images+0x88>
  1e00031628:	aa1503e0 	mov	x0, x21
  1e0003162c:	940001e2 	bl	1e00031db4 <tf_log>
  1e00031630:	52800036 	mov	w22, #0x1                   	// #1
  1e00031634:	b9400260 	ldr	w0, [x19]
  1e00031638:	94002435 	bl	1e0003a70c <bl2_plat_handle_pre_image_load>
  1e0003163c:	2a0003f4 	mov	w20, w0
  1e00031640:	34000100 	cbz	w0, 1e00031660 <bl2_load_images+0x90>
  1e00031644:	2a0003e1 	mov	w1, w0
  1e00031648:	f0000040 	adrp	x0, 1e0003c000 <vsnprintf+0x270>
  1e0003164c:	9126b800 	add	x0, x0, #0x9ae
  1e00031650:	940001d9 	bl	1e00031db4 <tf_log>
  1e00031654:	1400000f 	b	1e00031690 <bl2_load_images+0xc0>
  1e00031658:	94002663 	bl	1e0003afe4 <bl2_platform_setup>
  1e0003165c:	17fffff5 	b	1e00031630 <bl2_load_images+0x60>
  1e00031660:	f9400661 	ldr	x1, [x19, #8]
  1e00031664:	b9400260 	ldr	w0, [x19]
  1e00031668:	b9400422 	ldr	w2, [x1, #4]
  1e0003166c:	37080162 	tbnz	w2, #1, 1e00031698 <bl2_load_images+0xc8>
  1e00031670:	9400010f 	bl	1e00031aac <load_auth_image>
  1e00031674:	2a0003f4 	mov	w20, w0
  1e00031678:	34000100 	cbz	w0, 1e00031698 <bl2_load_images+0xc8>
  1e0003167c:	b9400261 	ldr	w1, [x19]
  1e00031680:	2a0003e2 	mov	w2, w0
  1e00031684:	f0000040 	adrp	x0, 1e0003c000 <vsnprintf+0x270>
  1e00031688:	91277400 	add	x0, x0, #0x9dd
  1e0003168c:	940001ca 	bl	1e00031db4 <tf_log>
  1e00031690:	2a1403e0 	mov	w0, w20
  1e00031694:	9400241b 	bl	1e0003a700 <plat_error_handler>
  1e00031698:	b9400260 	ldr	w0, [x19]
  1e0003169c:	9400241e 	bl	1e0003a714 <bl2_plat_handle_post_image_load>
  1e000316a0:	2a0003f4 	mov	w20, w0
  1e000316a4:	340000a0 	cbz	w0, 1e000316b8 <bl2_load_images+0xe8>
  1e000316a8:	2a0003e1 	mov	w1, w0
  1e000316ac:	f0000040 	adrp	x0, 1e0003c000 <vsnprintf+0x270>
  1e000316b0:	91281000 	add	x0, x0, #0xa04
  1e000316b4:	17ffffe7 	b	1e00031650 <bl2_load_images+0x80>
  1e000316b8:	f9400a73 	ldr	x19, [x19, #16]
  1e000316bc:	b5fffaf3 	cbnz	x19, 1e00031618 <bl2_load_images+0x48>
  1e000316c0:	9400264f 	bl	1e0003affc <plat_get_next_bl_params>
  1e000316c4:	aa0003f3 	mov	x19, x0
  1e000316c8:	b4fff900 	cbz	x0, 1e000315e8 <bl2_load_images+0x18>
  1e000316cc:	f9400400 	ldr	x0, [x0, #8]
  1e000316d0:	b4fff8c0 	cbz	x0, 1e000315e8 <bl2_load_images+0x18>
  1e000316d4:	39400261 	ldrb	w1, [x19]
  1e000316d8:	7100143f 	cmp	w1, #0x5
  1e000316dc:	54fff861 	b.ne	1e000315e8 <bl2_load_images+0x18>  // b.any
  1e000316e0:	39400661 	ldrb	w1, [x19, #1]
  1e000316e4:	7100043f 	cmp	w1, #0x1
  1e000316e8:	54fff809 	b.ls	1e000315e8 <bl2_load_images+0x18>  // b.plast
  1e000316ec:	f9400800 	ldr	x0, [x0, #16]
  1e000316f0:	b4fff7c0 	cbz	x0, 1e000315e8 <bl2_load_images+0x18>
  1e000316f4:	f9400c01 	ldr	x1, [x0, #24]
  1e000316f8:	b5000041 	cbnz	x1, 1e00031700 <bl2_load_images+0x130>
  1e000316fc:	f9000c13 	str	x19, [x0, #24]
  1e00031700:	9400263d 	bl	1e0003aff4 <plat_flush_next_bl_params>
  1e00031704:	f9400660 	ldr	x0, [x19, #8]
  1e00031708:	a94153f3 	ldp	x19, x20, [sp, #16]
  1e0003170c:	f9400800 	ldr	x0, [x0, #16]
  1e00031710:	a9425bf5 	ldp	x21, x22, [sp, #32]
  1e00031714:	a8c37bfd 	ldp	x29, x30, [sp], #48
  1e00031718:	d65f03c0 	ret

0000001e0003171c <bl2_main>:
  1e0003171c:	a9be7bfd 	stp	x29, x30, [sp, #-32]!
  1e00031720:	910003fd 	mov	x29, sp
  1e00031724:	f9000bf3 	str	x19, [sp, #16]
  1e00031728:	94002479 	bl	1e0003a90c <bl2_early_platform_setup2>
  1e0003172c:	f0000053 	adrp	x19, 1e0003c000 <vsnprintf+0x270>
  1e00031730:	94002407 	bl	1e0003a74c <bl2_plat_arch_setup>
  1e00031734:	9128d273 	add	x19, x19, #0xa34
  1e00031738:	90000061 	adrp	x1, 1e0003d000 <CSWTCH.192+0x80c>
  1e0003173c:	aa1303e0 	mov	x0, x19
  1e00031740:	9124e021 	add	x1, x1, #0x938
  1e00031744:	9400019c 	bl	1e00031db4 <tf_log>
  1e00031748:	aa1303e0 	mov	x0, x19
  1e0003174c:	90000061 	adrp	x1, 1e0003d000 <CSWTCH.192+0x80c>
  1e00031750:	91259821 	add	x1, x1, #0x966
  1e00031754:	94000198 	bl	1e00031db4 <tf_log>
  1e00031758:	97ffff9b 	bl	1e000315c4 <bl2_arch_setup>
  1e0003175c:	940023eb 	bl	1e0003a708 <bl2_plat_preload_setup>
  1e00031760:	97ffff9c 	bl	1e000315d0 <bl2_load_images>
  1e00031764:	aa0003f3 	mov	x19, x0
  1e00031768:	94000846 	bl	1e00033880 <console_flush>
  1e0003176c:	aa1303e1 	mov	x1, x19
  1e00031770:	d2800007 	mov	x7, #0x0                   	// #0
  1e00031774:	d2800006 	mov	x6, #0x0                   	// #0
  1e00031778:	d2800005 	mov	x5, #0x0                   	// #0
  1e0003177c:	d2800004 	mov	x4, #0x0                   	// #0
  1e00031780:	d2800003 	mov	x3, #0x0                   	// #0
  1e00031784:	d2800002 	mov	x2, #0x0                   	// #0
  1e00031788:	d2800080 	mov	x0, #0x4                   	// #4
  1e0003178c:	9400271b 	bl	1e0003b3f8 <smc>

0000001e00031790 <is_address_readable>:
  1e00031790:	d5384241 	mrs	x1, currentel
  1e00031794:	53020c21 	ubfx	w1, w1, #2, #2
  1e00031798:	71000c3f 	cmp	w1, #0x3
  1e0003179c:	540000e1 	b.ne	1e000317b8 <is_address_readable+0x28>  // b.any
  1e000317a0:	d50e7800 	at	s1e3r, x0
  1e000317a4:	d5033fdf 	isb
  1e000317a8:	d5387400 	mrs	x0, par_el1
  1e000317ac:	aa2003e0 	mvn	x0, x0
  1e000317b0:	12000000 	and	w0, w0, #0x1
  1e000317b4:	d65f03c0 	ret
  1e000317b8:	7100083f 	cmp	w1, #0x2
  1e000317bc:	54000061 	b.ne	1e000317c8 <is_address_readable+0x38>  // b.any
  1e000317c0:	d50c7800 	at	s1e2r, x0
  1e000317c4:	17fffff8 	b	1e000317a4 <is_address_readable+0x14>
  1e000317c8:	d5087800 	at	s1e1r, x0
  1e000317cc:	17fffff6 	b	1e000317a4 <is_address_readable+0x14>

0000001e000317d0 <is_valid_object.constprop.0>:
  1e000317d0:	aa0003e2 	mov	x2, x0
  1e000317d4:	d1000400 	sub	x0, x0, #0x1
  1e000317d8:	b100481f 	cmn	x0, #0x12
  1e000317dc:	54000228 	b.hi	1e00031820 <is_valid_object.constprop.0+0x50>  // b.pmore
  1e000317e0:	f2400843 	ands	x3, x2, #0x7
  1e000317e4:	540001e1 	b.ne	1e00031820 <is_valid_object.constprop.0+0x50>  // b.any
  1e000317e8:	a9bf7bfd 	stp	x29, x30, [sp, #-16]!
  1e000317ec:	910003fd 	mov	x29, sp
  1e000317f0:	8b030040 	add	x0, x2, x3
  1e000317f4:	97ffffe7 	bl	1e00031790 <is_address_readable>
  1e000317f8:	12001c01 	and	w1, w0, #0xff
  1e000317fc:	360000e0 	tbz	w0, #0, 1e00031818 <is_valid_object.constprop.0+0x48>
  1e00031800:	91000463 	add	x3, x3, #0x1
  1e00031804:	f100407f 	cmp	x3, #0x10
  1e00031808:	54ffff41 	b.ne	1e000317f0 <is_valid_object.constprop.0+0x20>  // b.any
  1e0003180c:	2a0103e0 	mov	w0, w1
  1e00031810:	a8c17bfd 	ldp	x29, x30, [sp], #16
  1e00031814:	d65f03c0 	ret
  1e00031818:	52800001 	mov	w1, #0x0                   	// #0
  1e0003181c:	17fffffc 	b	1e0003180c <is_valid_object.constprop.0+0x3c>
  1e00031820:	52800001 	mov	w1, #0x0                   	// #0
  1e00031824:	2a0103e0 	mov	w0, w1
  1e00031828:	d65f03c0 	ret

0000001e0003182c <backtrace>:
  1e0003182c:	a9bc7bfd 	stp	x29, x30, [sp, #-64]!
  1e00031830:	d50320ff 	xpaclri
  1e00031834:	910003fd 	mov	x29, sp
  1e00031838:	a90153f3 	stp	x19, x20, [sp, #16]
  1e0003183c:	aa0003f3 	mov	x19, x0
  1e00031840:	aa1e03f4 	mov	x20, x30
  1e00031844:	a9025bf5 	stp	x21, x22, [sp, #32]
  1e00031848:	f9001bf7 	str	x23, [sp, #48]
  1e0003184c:	9400080d 	bl	1e00033880 <console_flush>
  1e00031850:	aa1303e1 	mov	x1, x19
  1e00031854:	f0000040 	adrp	x0, 1e0003c000 <vsnprintf+0x270>
  1e00031858:	9128f800 	add	x0, x0, #0xa3e
  1e0003185c:	940028ec 	bl	1e0003bc0c <printf>
  1e00031860:	d5384240 	mrs	x0, currentel
  1e00031864:	53020c00 	ubfx	w0, w0, #2, #2
  1e00031868:	9400239d 	bl	1e0003a6dc <get_el_str>
  1e0003186c:	aa0003f7 	mov	x23, x0
  1e00031870:	aa1d03e0 	mov	x0, x29
  1e00031874:	97ffffd7 	bl	1e000317d0 <is_valid_object.constprop.0>
  1e00031878:	370001a0 	tbnz	w0, #0, 1e000318ac <backtrace+0x80>
  1e0003187c:	f0000040 	adrp	x0, 1e0003c000 <vsnprintf+0x270>
  1e00031880:	aa1d03e1 	mov	x1, x29
  1e00031884:	91295000 	add	x0, x0, #0xa54
  1e00031888:	940028e1 	bl	1e0003bc0c <printf>
  1e0003188c:	a9425bf5 	ldp	x21, x22, [sp, #32]
  1e00031890:	aa1303e1 	mov	x1, x19
  1e00031894:	a94153f3 	ldp	x19, x20, [sp, #16]
  1e00031898:	f0000040 	adrp	x0, 1e0003c000 <vsnprintf+0x270>
  1e0003189c:	f9401bf7 	ldr	x23, [sp, #48]
  1e000318a0:	912bdc00 	add	x0, x0, #0xaf7
  1e000318a4:	a8c47bfd 	ldp	x29, x30, [sp], #64
  1e000318a8:	140028d9 	b	1e0003bc0c <printf>
  1e000318ac:	f94007a0 	ldr	x0, [x29, #8]
  1e000318b0:	eb00029f 	cmp	x20, x0
  1e000318b4:	540000a0 	b.eq	1e000318c8 <backtrace+0x9c>  // b.none
  1e000318b8:	f0000040 	adrp	x0, 1e0003c000 <vsnprintf+0x270>
  1e000318bc:	aa1d03e1 	mov	x1, x29
  1e000318c0:	912a4000 	add	x0, x0, #0xa90
  1e000318c4:	17fffff1 	b	1e00031888 <backtrace+0x5c>
  1e000318c8:	aa1d03f5 	mov	x21, x29
  1e000318cc:	52800034 	mov	w20, #0x1                   	// #1
  1e000318d0:	f0000056 	adrp	x22, 1e0003c000 <vsnprintf+0x270>
  1e000318d4:	912b12d6 	add	x22, x22, #0xac4
  1e000318d8:	aa1703e2 	mov	x2, x23
  1e000318dc:	aa1603e0 	mov	x0, x22
  1e000318e0:	90000003 	adrp	x3, 1e00031000 <icon_tx_extest+0x238>
  1e000318e4:	52800001 	mov	w1, #0x0                   	// #0
  1e000318e8:	9120b063 	add	x3, x3, #0x82c
  1e000318ec:	940028c8 	bl	1e0003bc0c <printf>
  1e000318f0:	aa1503e0 	mov	x0, x21
  1e000318f4:	97ffffb7 	bl	1e000317d0 <is_valid_object.constprop.0>
  1e000318f8:	3607fca0 	tbz	w0, #0, 1e0003188c <backtrace+0x60>
  1e000318fc:	f94006a3 	ldr	x3, [x21, #8]
  1e00031900:	f1001063 	subs	x3, x3, #0x4
  1e00031904:	54fffc40 	b.eq	1e0003188c <backtrace+0x60>  // b.none
  1e00031908:	f240047f 	tst	x3, #0x3
  1e0003190c:	54fffc01 	b.ne	1e0003188c <backtrace+0x60>  // b.any
  1e00031910:	aa0303e0 	mov	x0, x3
  1e00031914:	97ffff9f 	bl	1e00031790 <is_address_readable>
  1e00031918:	3607fba0 	tbz	w0, #0, 1e0003188c <backtrace+0x60>
  1e0003191c:	2a1403e1 	mov	w1, w20
  1e00031920:	aa1703e2 	mov	x2, x23
  1e00031924:	aa1603e0 	mov	x0, x22
  1e00031928:	11000694 	add	w20, w20, #0x1
  1e0003192c:	940028b8 	bl	1e0003bc0c <printf>
  1e00031930:	f94002b5 	ldr	x21, [x21]
  1e00031934:	7100529f 	cmp	w20, #0x14
  1e00031938:	54fffdc1 	b.ne	1e000318f0 <backtrace+0xc4>  // b.any
  1e0003193c:	f0000040 	adrp	x0, 1e0003c000 <vsnprintf+0x270>
  1e00031940:	912b4c00 	add	x0, x0, #0xad3
  1e00031944:	940028b2 	bl	1e0003bc0c <printf>
  1e00031948:	17ffffd1 	b	1e0003188c <backtrace+0x60>

0000001e0003194c <load_image>:
  1e0003194c:	a9ba7bfd 	stp	x29, x30, [sp, #-96]!
  1e00031950:	910003fd 	mov	x29, sp
  1e00031954:	a90153f3 	stp	x19, x20, [sp, #16]
  1e00031958:	a9025bf5 	stp	x21, x22, [sp, #32]
  1e0003195c:	a903ffff 	stp	xzr, xzr, [sp, #56]
  1e00031960:	a904ffff 	stp	xzr, xzr, [sp, #72]
  1e00031964:	f9002fff 	str	xzr, [sp, #88]
  1e00031968:	b5000041 	cbnz	x1, 1e00031970 <load_image+0x24>
  1e0003196c:	94002725 	bl	1e0003b600 <__assert>
  1e00031970:	aa0103f5 	mov	x21, x1
  1e00031974:	39400421 	ldrb	w1, [x1, #1]
  1e00031978:	7100043f 	cmp	w1, #0x1
  1e0003197c:	54ffff89 	b.ls	1e0003196c <load_image+0x20>  // b.plast
  1e00031980:	f94006b6 	ldr	x22, [x21, #8]
  1e00031984:	2a0003f4 	mov	w20, w0
  1e00031988:	910123e2 	add	x2, sp, #0x48
  1e0003198c:	9100e3e1 	add	x1, sp, #0x38
  1e00031990:	9400270e 	bl	1e0003b5c8 <plat_crash_console_init>
  1e00031994:	2a0003f3 	mov	w19, w0
  1e00031998:	34000160 	cbz	w0, 1e000319c4 <load_image+0x78>
  1e0003199c:	2a0003e2 	mov	w2, w0
  1e000319a0:	2a1403e1 	mov	w1, w20
  1e000319a4:	f0000040 	adrp	x0, 1e0003c000 <vsnprintf+0x270>
  1e000319a8:	912c2c00 	add	x0, x0, #0xb0b
  1e000319ac:	94000102 	bl	1e00031db4 <tf_log>
  1e000319b0:	a9425bf5 	ldp	x21, x22, [sp, #32]
  1e000319b4:	2a1303e0 	mov	w0, w19
  1e000319b8:	a94153f3 	ldp	x19, x20, [sp, #16]
  1e000319bc:	a8c67bfd 	ldp	x29, x30, [sp], #96
  1e000319c0:	d65f03c0 	ret
  1e000319c4:	f9401fe0 	ldr	x0, [sp, #56]
  1e000319c8:	910103e2 	add	x2, sp, #0x40
  1e000319cc:	f94027e1 	ldr	x1, [sp, #72]
  1e000319d0:	94001c3d 	bl	1e00038ac4 <io_open>
  1e000319d4:	2a0003f3 	mov	w19, w0
  1e000319d8:	340000c0 	cbz	w0, 1e000319f0 <load_image+0xa4>
  1e000319dc:	2a0003e2 	mov	w2, w0
  1e000319e0:	2a1403e1 	mov	w1, w20
  1e000319e4:	f0000040 	adrp	x0, 1e0003c000 <vsnprintf+0x270>
  1e000319e8:	912cf000 	add	x0, x0, #0xb3c
  1e000319ec:	17fffff0 	b	1e000319ac <load_image+0x60>
  1e000319f0:	f94023e0 	ldr	x0, [sp, #64]
  1e000319f4:	910143e1 	add	x1, sp, #0x50
  1e000319f8:	94001c6c 	bl	1e00038ba8 <io_size>
  1e000319fc:	2a0003f3 	mov	w19, w0
  1e00031a00:	340000e0 	cbz	w0, 1e00031a1c <load_image+0xd0>
  1e00031a04:	2a0003e2 	mov	w2, w0
  1e00031a08:	2a1403e1 	mov	w1, w20
  1e00031a0c:	f0000040 	adrp	x0, 1e0003c000 <vsnprintf+0x270>
  1e00031a10:	912d8000 	add	x0, x0, #0xb60
  1e00031a14:	940000e8 	bl	1e00031db4 <tf_log>
  1e00031a18:	14000008 	b	1e00031a38 <load_image+0xec>
  1e00031a1c:	f9402be2 	ldr	x2, [sp, #80]
  1e00031a20:	b5000162 	cbnz	x2, 1e00031a4c <load_image+0x100>
  1e00031a24:	12800093 	mov	w19, #0xfffffffb            	// #-5
  1e00031a28:	2a1403e1 	mov	w1, w20
  1e00031a2c:	f0000040 	adrp	x0, 1e0003c000 <vsnprintf+0x270>
  1e00031a30:	912e5c00 	add	x0, x0, #0xb97
  1e00031a34:	940000e0 	bl	1e00031db4 <tf_log>
  1e00031a38:	f94023e0 	ldr	x0, [sp, #64]
  1e00031a3c:	94001c8f 	bl	1e00038c78 <io_close>
  1e00031a40:	f9401fe0 	ldr	x0, [sp, #56]
  1e00031a44:	94001c0c 	bl	1e00038a74 <io_dev_close>
  1e00031a48:	17ffffda 	b	1e000319b0 <load_image+0x64>
  1e00031a4c:	b94016a0 	ldr	w0, [x21, #20]
  1e00031a50:	eb00005f 	cmp	x2, x0
  1e00031a54:	540000e9 	b.ls	1e00031a70 <load_image+0x124>  // b.plast
  1e00031a58:	2a1403e1 	mov	w1, w20
  1e00031a5c:	f0000040 	adrp	x0, 1e0003c000 <vsnprintf+0x270>
  1e00031a60:	12800353 	mov	w19, #0xffffffe5            	// #-27
  1e00031a64:	912ec800 	add	x0, x0, #0xbb2
  1e00031a68:	940000d3 	bl	1e00031db4 <tf_log>
  1e00031a6c:	17fffff3 	b	1e00031a38 <load_image+0xec>
  1e00031a70:	f94023e0 	ldr	x0, [sp, #64]
  1e00031a74:	b90012a2 	str	w2, [x21, #16]
  1e00031a78:	910163e3 	add	x3, sp, #0x58
  1e00031a7c:	aa1603e1 	mov	x1, x22
  1e00031a80:	94001c61 	bl	1e00038c04 <io_read>
  1e00031a84:	2a0003f3 	mov	w19, w0
  1e00031a88:	35000080 	cbnz	w0, 1e00031a98 <load_image+0x14c>
  1e00031a8c:	a94507e0 	ldp	x0, x1, [sp, #80]
  1e00031a90:	eb00003f 	cmp	x1, x0
  1e00031a94:	54fffd22 	b.cs	1e00031a38 <load_image+0xec>  // b.hs, b.nlast
  1e00031a98:	f0000040 	adrp	x0, 1e0003c000 <vsnprintf+0x270>
  1e00031a9c:	2a1303e2 	mov	w2, w19
  1e00031aa0:	2a1403e1 	mov	w1, w20
  1e00031aa4:	912f4c00 	add	x0, x0, #0xbd3
  1e00031aa8:	17ffffdb 	b	1e00031a14 <load_image+0xc8>

0000001e00031aac <load_auth_image>:
  1e00031aac:	a9bd7bfd 	stp	x29, x30, [sp, #-48]!
  1e00031ab0:	910003fd 	mov	x29, sp
  1e00031ab4:	a9025bf5 	stp	x21, x22, [sp, #32]
  1e00031ab8:	900000b6 	adrp	x22, 1e00045000 <list+0x1e8>
  1e00031abc:	2a0003f5 	mov	w21, w0
  1e00031ac0:	f942d2c0 	ldr	x0, [x22, #1440]
  1e00031ac4:	a90153f3 	stp	x19, x20, [sp, #16]
  1e00031ac8:	aa0103f4 	mov	x20, x1
  1e00031acc:	b4000060 	cbz	x0, 1e00031ad8 <load_auth_image+0x2c>
  1e00031ad0:	f9400000 	ldr	x0, [x0]
  1e00031ad4:	b5000160 	cbnz	x0, 1e00031b00 <load_auth_image+0x54>
  1e00031ad8:	aa1403e1 	mov	x1, x20
  1e00031adc:	2a1503e0 	mov	w0, w21
  1e00031ae0:	97ffff9b 	bl	1e0003194c <load_image>
  1e00031ae4:	2a0003f3 	mov	w19, w0
  1e00031ae8:	35000200 	cbnz	w0, 1e00031b28 <load_auth_image+0x7c>
  1e00031aec:	f9400680 	ldr	x0, [x20, #8]
  1e00031af0:	52800013 	mov	w19, #0x0                   	// #0
  1e00031af4:	b9401281 	ldr	w1, [x20, #16]
  1e00031af8:	94002624 	bl	1e0003b388 <flush_dcache_range>
  1e00031afc:	1400000b 	b	1e00031b28 <load_auth_image+0x7c>
  1e00031b00:	aa1403e1 	mov	x1, x20
  1e00031b04:	2a1503e0 	mov	w0, w21
  1e00031b08:	97ffff91 	bl	1e0003194c <load_image>
  1e00031b0c:	2a0003f3 	mov	w19, w0
  1e00031b10:	34fffee0 	cbz	w0, 1e00031aec <load_auth_image+0x40>
  1e00031b14:	f942d2c0 	ldr	x0, [x22, #1440]
  1e00031b18:	f9400001 	ldr	x1, [x0]
  1e00031b1c:	2a1503e0 	mov	w0, w21
  1e00031b20:	d63f0020 	blr	x1
  1e00031b24:	34fffee0 	cbz	w0, 1e00031b00 <load_auth_image+0x54>
  1e00031b28:	a9425bf5 	ldp	x21, x22, [sp, #32]
  1e00031b2c:	2a1303e0 	mov	w0, w19
  1e00031b30:	a94153f3 	ldp	x19, x20, [sp, #16]
  1e00031b34:	a8c37bfd 	ldp	x29, x30, [sp], #48
  1e00031b38:	d65f03c0 	ret

0000001e00031b3c <flush_bl_params_desc_args>:
  1e00031b3c:	a9be7bfd 	stp	x29, x30, [sp, #-32]!
  1e00031b40:	910003fd 	mov	x29, sp
  1e00031b44:	f9000bf3 	str	x19, [sp, #16]
  1e00031b48:	b5000040 	cbnz	x0, 1e00031b50 <flush_bl_params_desc_args+0x14>
  1e00031b4c:	940026ad 	bl	1e0003b600 <__assert>
  1e00031b50:	34ffffe1 	cbz	w1, 1e00031b4c <flush_bl_params_desc_args+0x10>
  1e00031b54:	aa0203f3 	mov	x19, x2
  1e00031b58:	b4ffffa2 	cbz	x2, 1e00031b4c <flush_bl_params_desc_args+0x10>
  1e00031b5c:	52801702 	mov	w2, #0xb8                  	// #184
  1e00031b60:	9ba27c21 	umull	x1, w1, w2
  1e00031b64:	94002609 	bl	1e0003b388 <flush_dcache_range>
  1e00031b68:	aa1303e0 	mov	x0, x19
  1e00031b6c:	d2800201 	mov	x1, #0x10                  	// #16
  1e00031b70:	f9400bf3 	ldr	x19, [sp, #16]
  1e00031b74:	a8c27bfd 	ldp	x29, x30, [sp], #32
  1e00031b78:	14002604 	b	1e0003b388 <flush_dcache_range>

0000001e00031b7c <flush_bl_params_desc>:
  1e00031b7c:	d0000060 	adrp	x0, 1e0003f000 <__RO_END__>
  1e00031b80:	f0000082 	adrp	x2, 1e00044000 <__STACKS_START__+0x3bc0>
  1e00031b84:	91320042 	add	x2, x2, #0xc80
  1e00031b88:	b943b001 	ldr	w1, [x0, #944]
  1e00031b8c:	d0000060 	adrp	x0, 1e0003f000 <__RO_END__>
  1e00031b90:	f9411800 	ldr	x0, [x0, #560]
  1e00031b94:	17ffffea 	b	1e00031b3c <flush_bl_params_desc_args>

0000001e00031b98 <get_bl_params_node_index>:
  1e00031b98:	3100041f 	cmn	w0, #0x1
  1e00031b9c:	54000180 	b.eq	1e00031bcc <get_bl_params_node_index+0x34>  // b.none
  1e00031ba0:	d0000061 	adrp	x1, 1e0003f000 <__RO_END__>
  1e00031ba4:	d2801703 	mov	x3, #0xb8                  	// #184
  1e00031ba8:	b943b024 	ldr	w4, [x1, #944]
  1e00031bac:	d0000061 	adrp	x1, 1e0003f000 <__RO_END__>
  1e00031bb0:	f9411822 	ldr	x2, [x1, #560]
  1e00031bb4:	d2800001 	mov	x1, #0x0                   	// #0
  1e00031bb8:	d102e042 	sub	x2, x2, #0xb8
  1e00031bbc:	6b01009f 	cmp	w4, w1
  1e00031bc0:	540000c8 	b.hi	1e00031bd8 <get_bl_params_node_index+0x40>  // b.pmore
  1e00031bc4:	12800000 	mov	w0, #0xffffffff            	// #-1
  1e00031bc8:	d65f03c0 	ret
  1e00031bcc:	a9bf7bfd 	stp	x29, x30, [sp, #-16]!
  1e00031bd0:	910003fd 	mov	x29, sp
  1e00031bd4:	9400268b 	bl	1e0003b600 <__assert>
  1e00031bd8:	9b030c26 	madd	x6, x1, x3, x3
  1e00031bdc:	91000425 	add	x5, x1, #0x1
  1e00031be0:	b8666846 	ldr	w6, [x2, x6]
  1e00031be4:	6b06001f 	cmp	w0, w6
  1e00031be8:	54000061 	b.ne	1e00031bf4 <get_bl_params_node_index+0x5c>  // b.any
  1e00031bec:	2a0103e0 	mov	w0, w1
  1e00031bf0:	d65f03c0 	ret
  1e00031bf4:	aa0503e1 	mov	x1, x5
  1e00031bf8:	17fffff1 	b	1e00031bbc <get_bl_params_node_index+0x24>

0000001e00031bfc <get_bl_load_info_from_mem_params_desc>:
  1e00031bfc:	d0000060 	adrp	x0, 1e0003f000 <__RO_END__>
  1e00031c00:	b943b004 	ldr	w4, [x0, #944]
  1e00031c04:	340002a4 	cbz	w4, 1e00031c58 <get_bl_load_info_from_mem_params_desc+0x5c>
  1e00031c08:	d0000060 	adrp	x0, 1e0003f000 <__RO_END__>
  1e00031c0c:	f0000082 	adrp	x2, 1e00044000 <__STACKS_START__+0x3bc0>
  1e00031c10:	d2804083 	mov	x3, #0x204                 	// #516
  1e00031c14:	f9411801 	ldr	x1, [x0, #560]
  1e00031c18:	91324040 	add	x0, x2, #0xc90
  1e00031c1c:	f2a00203 	movk	x3, #0x10, lsl #16
  1e00031c20:	f9064843 	str	x3, [x2, #3216]
  1e00031c24:	91020021 	add	x1, x1, #0x80
  1e00031c28:	52800002 	mov	w2, #0x0                   	// #0
  1e00031c2c:	f9000401 	str	x1, [x0, #8]
  1e00031c30:	aa0103e3 	mov	x3, x1
  1e00031c34:	b8580025 	ldur	w5, [x1, #-128]
  1e00031c38:	11000442 	add	w2, w2, #0x1
  1e00031c3c:	b8188465 	str	w5, [x3], #-120
  1e00031c40:	f9000423 	str	x3, [x1, #8]
  1e00031c44:	6b02009f 	cmp	w4, w2
  1e00031c48:	540000a0 	b.eq	1e00031c5c <get_bl_load_info_from_mem_params_desc+0x60>  // b.none
  1e00031c4c:	9102e021 	add	x1, x1, #0xb8
  1e00031c50:	f8158021 	stur	x1, [x1, #-168]
  1e00031c54:	17fffff7 	b	1e00031c30 <get_bl_load_info_from_mem_params_desc+0x34>
  1e00031c58:	d2800000 	mov	x0, #0x0                   	// #0
  1e00031c5c:	d65f03c0 	ret

0000001e00031c60 <get_next_bl_params_from_mem_params_desc>:
  1e00031c60:	a9bc7bfd 	stp	x29, x30, [sp, #-64]!
  1e00031c64:	d0000060 	adrp	x0, 1e0003f000 <__RO_END__>
  1e00031c68:	910003fd 	mov	x29, sp
  1e00031c6c:	a90153f3 	stp	x19, x20, [sp, #16]
  1e00031c70:	b943b014 	ldr	w20, [x0, #944]
  1e00031c74:	a9025bf5 	stp	x21, x22, [sp, #32]
  1e00031c78:	a90363f7 	stp	x23, x24, [sp, #48]
  1e00031c7c:	34000714 	cbz	w20, 1e00031d5c <get_next_bl_params_from_mem_params_desc+0xfc>
  1e00031c80:	d0000060 	adrp	x0, 1e0003f000 <__RO_END__>
  1e00031c84:	d2c00303 	mov	x3, #0x1800000000          	// #103079215104
  1e00031c88:	f9411817 	ldr	x23, [x0, #560]
  1e00031c8c:	52800000 	mov	w0, #0x0                   	// #0
  1e00031c90:	aa1703e1 	mov	x1, x23
  1e00031c94:	f9401022 	ldr	x2, [x1, #32]
  1e00031c98:	925d0442 	and	x2, x2, #0x1800000000
  1e00031c9c:	eb03005f 	cmp	x2, x3
  1e00031ca0:	540004c1 	b.ne	1e00031d38 <get_next_bl_params_from_mem_params_desc+0xd8>  // b.any
  1e00031ca4:	f0000082 	adrp	x2, 1e00044000 <__STACKS_START__+0x3bc0>
  1e00031ca8:	91026021 	add	x1, x1, #0x98
  1e00031cac:	f9064441 	str	x1, [x2, #3208]
  1e00031cb0:	f0000093 	adrp	x19, 1e00044000 <__STACKS_START__+0x3bc0>
  1e00031cb4:	d28040a1 	mov	x1, #0x205                 	// #517
  1e00031cb8:	f2a00201 	movk	x1, #0x10, lsl #16
  1e00031cbc:	d2800002 	mov	x2, #0x0                   	// #0
  1e00031cc0:	f9064261 	str	x1, [x19, #3200]
  1e00031cc4:	52800016 	mov	w22, #0x0                   	// #0
  1e00031cc8:	52801718 	mov	w24, #0xb8                  	// #184
  1e00031ccc:	9bb87c00 	umull	x0, w0, w24
  1e00031cd0:	8b0002e1 	add	x1, x23, x0
  1e00031cd4:	b9402423 	ldr	w3, [x1, #36]
  1e00031cd8:	36180403 	tbz	w3, #3, 1e00031d58 <get_next_bl_params_from_mem_params_desc+0xf8>
  1e00031cdc:	91026035 	add	x21, x1, #0x98
  1e00031ce0:	b8606ae0 	ldr	w0, [x23, x0]
  1e00031ce4:	b9009820 	str	w0, [x1, #152]
  1e00031ce8:	91002020 	add	x0, x1, #0x8
  1e00031cec:	f90006a0 	str	x0, [x21, #8]
  1e00031cf0:	91008020 	add	x0, x1, #0x20
  1e00031cf4:	f9000aa0 	str	x0, [x21, #16]
  1e00031cf8:	b4000082 	cbz	x2, 1e00031d08 <get_next_bl_params_from_mem_params_desc+0xa8>
  1e00031cfc:	f9400c40 	ldr	x0, [x2, #24]
  1e00031d00:	b50002c0 	cbnz	x0, 1e00031d58 <get_next_bl_params_from_mem_params_desc+0xf8>
  1e00031d04:	f9000c55 	str	x21, [x2, #24]
  1e00031d08:	b9407820 	ldr	w0, [x1, #120]
  1e00031d0c:	3100041f 	cmn	w0, #0x1
  1e00031d10:	54000320 	b.eq	1e00031d74 <get_next_bl_params_from_mem_params_desc+0x114>  // b.none
  1e00031d14:	97ffffa1 	bl	1e00031b98 <get_bl_params_node_index>
  1e00031d18:	34000200 	cbz	w0, 1e00031d58 <get_next_bl_params_from_mem_params_desc+0xf8>
  1e00031d1c:	6b00029f 	cmp	w20, w0
  1e00031d20:	540001c9 	b.ls	1e00031d58 <get_next_bl_params_from_mem_params_desc+0xf8>  // b.plast
  1e00031d24:	110006d6 	add	w22, w22, #0x1
  1e00031d28:	6b16029f 	cmp	w20, w22
  1e00031d2c:	54000160 	b.eq	1e00031d58 <get_next_bl_params_from_mem_params_desc+0xf8>  // b.none
  1e00031d30:	aa1503e2 	mov	x2, x21
  1e00031d34:	17ffffe6 	b	1e00031ccc <get_next_bl_params_from_mem_params_desc+0x6c>
  1e00031d38:	11000400 	add	w0, w0, #0x1
  1e00031d3c:	9102e021 	add	x1, x1, #0xb8
  1e00031d40:	6b00029f 	cmp	w20, w0
  1e00031d44:	54fffa81 	b.ne	1e00031c94 <get_next_bl_params_from_mem_params_desc+0x34>  // b.any
  1e00031d48:	f0000080 	adrp	x0, 1e00044000 <__STACKS_START__+0x3bc0>
  1e00031d4c:	f9464401 	ldr	x1, [x0, #3208]
  1e00031d50:	52800000 	mov	w0, #0x0                   	// #0
  1e00031d54:	b5fffae1 	cbnz	x1, 1e00031cb0 <get_next_bl_params_from_mem_params_desc+0x50>
  1e00031d58:	9400262a 	bl	1e0003b600 <__assert>
  1e00031d5c:	d2800000 	mov	x0, #0x0                   	// #0
  1e00031d60:	a94153f3 	ldp	x19, x20, [sp, #16]
  1e00031d64:	a9425bf5 	ldp	x21, x22, [sp, #32]
  1e00031d68:	a94363f7 	ldp	x23, x24, [sp, #48]
  1e00031d6c:	a8c47bfd 	ldp	x29, x30, [sp], #64
  1e00031d70:	d65f03c0 	ret
  1e00031d74:	91320260 	add	x0, x19, #0xc80
  1e00031d78:	17fffffa 	b	1e00031d60 <get_next_bl_params_from_mem_params_desc+0x100>

0000001e00031d7c <tf_crc32>:
  1e00031d7c:	b5000081 	cbnz	x1, 1e00031d8c <tf_crc32+0x10>
  1e00031d80:	a9bf7bfd 	stp	x29, x30, [sp, #-16]!
  1e00031d84:	910003fd 	mov	x29, sp
  1e00031d88:	9400261e 	bl	1e0003b600 <__assert>
  1e00031d8c:	2a2003e0 	mvn	w0, w0
  1e00031d90:	d2800003 	mov	x3, #0x0                   	// #0
  1e00031d94:	eb03005f 	cmp	x2, x3
  1e00031d98:	54000061 	b.ne	1e00031da4 <tf_crc32+0x28>  // b.any
  1e00031d9c:	2a2003e0 	mvn	w0, w0
  1e00031da0:	d65f03c0 	ret
  1e00031da4:	38636824 	ldrb	w4, [x1, x3]
  1e00031da8:	91000463 	add	x3, x3, #0x1
  1e00031dac:	1ac44000 	crc32b	w0, w0, w4
  1e00031db0:	17fffff9 	b	1e00031d94 <tf_crc32+0x18>

0000001e00031db4 <tf_log>:
  1e00031db4:	a9b67bfd 	stp	x29, x30, [sp, #-160]!
  1e00031db8:	910003fd 	mov	x29, sp
  1e00031dbc:	a90153f3 	stp	x19, x20, [sp, #16]
  1e00031dc0:	aa0003f4 	mov	x20, x0
  1e00031dc4:	a9068be1 	stp	x1, x2, [sp, #104]
  1e00031dc8:	a90793e3 	stp	x3, x4, [sp, #120]
  1e00031dcc:	a9089be5 	stp	x5, x6, [sp, #136]
  1e00031dd0:	f9004fe7 	str	x7, [sp, #152]
  1e00031dd4:	39400000 	ldrb	w0, [x0]
  1e00031dd8:	51000401 	sub	w1, w0, #0x1
  1e00031ddc:	7100c43f 	cmp	w1, #0x31
  1e00031de0:	54000049 	b.ls	1e00031de8 <tf_log+0x34>  // b.plast
  1e00031de4:	94002607 	bl	1e0003b600 <__assert>
  1e00031de8:	52800142 	mov	w2, #0xa                   	// #10
  1e00031dec:	1ac20801 	udiv	w1, w0, w2
  1e00031df0:	1b028021 	msub	w1, w1, w2, w0
  1e00031df4:	35ffff81 	cbnz	w1, 1e00031de4 <tf_log+0x30>
  1e00031df8:	d0000061 	adrp	x1, 1e0003f000 <__RO_END__>
  1e00031dfc:	b943a821 	ldr	w1, [x1, #936]
  1e00031e00:	6b00003f 	cmp	w1, w0
  1e00031e04:	54000263 	b.cc	1e00031e50 <tf_log+0x9c>  // b.lo, b.ul, b.last
  1e00031e08:	94002245 	bl	1e0003a71c <plat_log_get_prefix>
  1e00031e0c:	aa0003f3 	mov	x19, x0
  1e00031e10:	39400260 	ldrb	w0, [x19]
  1e00031e14:	35000240 	cbnz	w0, 1e00031e5c <tf_log+0xa8>
  1e00031e18:	910283e0 	add	x0, sp, #0xa0
  1e00031e1c:	a90403e0 	stp	x0, x0, [sp, #64]
  1e00031e20:	910183e0 	add	x0, sp, #0x60
  1e00031e24:	f9002be0 	str	x0, [sp, #80]
  1e00031e28:	128006e0 	mov	w0, #0xffffffc8            	// #-56
  1e00031e2c:	b9005be0 	str	w0, [sp, #88]
  1e00031e30:	b9005fff 	str	wzr, [sp, #92]
  1e00031e34:	a94407e0 	ldp	x0, x1, [sp, #64]
  1e00031e38:	a90207e0 	stp	x0, x1, [sp, #32]
  1e00031e3c:	a94507e0 	ldp	x0, x1, [sp, #80]
  1e00031e40:	a90307e0 	stp	x0, x1, [sp, #48]
  1e00031e44:	910083e1 	add	x1, sp, #0x20
  1e00031e48:	91000680 	add	x0, x20, #0x1
  1e00031e4c:	94002646 	bl	1e0003b764 <vprintf>
  1e00031e50:	a94153f3 	ldp	x19, x20, [sp, #16]
  1e00031e54:	a8ca7bfd 	ldp	x29, x30, [sp], #160
  1e00031e58:	d65f03c0 	ret
  1e00031e5c:	91000673 	add	x19, x19, #0x1
  1e00031e60:	9400067e 	bl	1e00033858 <putchar>
  1e00031e64:	17ffffeb 	b	1e00031e10 <tf_log+0x5c>

0000001e00031e68 <dma_pl330_gen_mov>:
  1e00031e68:	12800863 	mov	w3, #0xffffffbc            	// #-68
  1e00031e6c:	39000003 	strb	w3, [x0]
  1e00031e70:	12001c21 	and	w1, w1, #0xff
  1e00031e74:	39000401 	strb	w1, [x0, #1]
  1e00031e78:	12001c41 	and	w1, w2, #0xff
  1e00031e7c:	39000801 	strb	w1, [x0, #2]
  1e00031e80:	d3483c41 	ubfx	x1, x2, #8, #8
  1e00031e84:	39000c01 	strb	w1, [x0, #3]
  1e00031e88:	d3505c41 	ubfx	x1, x2, #16, #8
  1e00031e8c:	39001001 	strb	w1, [x0, #4]
  1e00031e90:	53187c42 	lsr	w2, w2, #24
  1e00031e94:	39001402 	strb	w2, [x0, #5]
  1e00031e98:	528000c0 	mov	w0, #0x6                   	// #6
  1e00031e9c:	d65f03c0 	ret

0000001e00031ea0 <dma_configure>:
  1e00031ea0:	35000600 	cbnz	w0, 1e00031f60 <dma_configure+0xc0>
  1e00031ea4:	a9bd7bfd 	stp	x29, x30, [sp, #-48]!
  1e00031ea8:	52800020 	mov	w0, #0x1                   	// #1
  1e00031eac:	910003fd 	mov	x29, sp
  1e00031eb0:	a90153f3 	stp	x19, x20, [sp, #16]
  1e00031eb4:	aa0103f4 	mov	x20, x1
  1e00031eb8:	f90013f5 	str	x21, [sp, #32]
  1e00031ebc:	f0000095 	adrp	x21, 1e00044000 <__STACKS_START__+0x3bc0>
  1e00031ec0:	913282b3 	add	x19, x21, #0xca0
  1e00031ec4:	b9004260 	str	w0, [x19, #64]
  1e00031ec8:	f9400020 	ldr	x0, [x1]
  1e00031ecc:	f278081f 	tst	x0, #0x700
  1e00031ed0:	540000c0 	b.eq	1e00031ee8 <dma_configure+0x48>  // b.none
  1e00031ed4:	12800580 	mov	w0, #0xffffffd3            	// #-45
  1e00031ed8:	a94153f3 	ldp	x19, x20, [sp, #16]
  1e00031edc:	f94013f5 	ldr	x21, [sp, #32]
  1e00031ee0:	a8c37bfd 	ldp	x29, x30, [sp], #48
  1e00031ee4:	d65f03c0 	ret
  1e00031ee8:	52800001 	mov	w1, #0x0                   	// #0
  1e00031eec:	d2800902 	mov	x2, #0x48                  	// #72
  1e00031ef0:	f0000080 	adrp	x0, 1e00044000 <__STACKS_START__+0x3bc0>
  1e00031ef4:	9133a000 	add	x0, x0, #0xce8
  1e00031ef8:	94002924 	bl	1e0003c388 <memset>
  1e00031efc:	f9400280 	ldr	x0, [x20]
  1e00031f00:	53082800 	ubfx	w0, w0, #8, #3
  1e00031f04:	b9001e60 	str	w0, [x19, #28]
  1e00031f08:	f9400a80 	ldr	x0, [x20, #16]
  1e00031f0c:	f9401401 	ldr	x1, [x0, #40]
  1e00031f10:	53041421 	ubfx	w1, w1, #4, #2
  1e00031f14:	b9001a61 	str	w1, [x19, #24]
  1e00031f18:	f9400001 	ldr	x1, [x0]
  1e00031f1c:	f90652a1 	str	x1, [x21, #3232]
  1e00031f20:	f9400401 	ldr	x1, [x0, #8]
  1e00031f24:	f9000a61 	str	x1, [x19, #16]
  1e00031f28:	b9401c01 	ldr	w1, [x0, #28]
  1e00031f2c:	b9002261 	str	w1, [x19, #32]
  1e00031f30:	f9401281 	ldr	x1, [x20, #32]
  1e00031f34:	f9001a61 	str	x1, [x19, #48]
  1e00031f38:	f9400e81 	ldr	x1, [x20, #24]
  1e00031f3c:	f9001661 	str	x1, [x19, #40]
  1e00031f40:	79405001 	ldrh	w1, [x0, #40]
  1e00031f44:	f9401400 	ldr	x0, [x0, #40]
  1e00031f48:	3717fc61 	tbnz	w1, #2, 1e00031ed4 <dma_configure+0x34>
  1e00031f4c:	53020c00 	ubfx	w0, w0, #2, #2
  1e00031f50:	b9000a60 	str	w0, [x19, #8]
  1e00031f54:	3727fc01 	tbnz	w1, #4, 1e00031ed4 <dma_configure+0x34>
  1e00031f58:	52800000 	mov	w0, #0x0                   	// #0
  1e00031f5c:	17ffffdf 	b	1e00031ed8 <dma_configure+0x38>
  1e00031f60:	128002a0 	mov	w0, #0xffffffea            	// #-22
  1e00031f64:	d65f03c0 	ret

0000001e00031f68 <dma_start>:
  1e00031f68:	35002160 	cbnz	w0, 1e00032394 <dma_start+0x42c>
  1e00031f6c:	d2be0580 	mov	x0, #0xf02c0000            	// #4029415424
  1e00031f70:	a9be7bfd 	stp	x29, x30, [sp, #-32]!
  1e00031f74:	f2c003e0 	movk	x0, #0x1f, lsl #32
  1e00031f78:	910003fd 	mov	x29, sp
  1e00031f7c:	b9402001 	ldr	w1, [x0, #32]
  1e00031f80:	52800027 	mov	w7, #0x1                   	// #1
  1e00031f84:	f9000bf3 	str	x19, [sp, #16]
  1e00031f88:	32000021 	orr	w1, w1, #0x1
  1e00031f8c:	b9002001 	str	w1, [x0, #32]
  1e00031f90:	f0000081 	adrp	x1, 1e00044000 <__STACKS_START__+0x3bc0>
  1e00031f94:	91328033 	add	x19, x1, #0xca0
  1e00031f98:	d1427c00 	sub	x0, x0, #0x9f, lsl #12
  1e00031f9c:	f9465022 	ldr	x2, [x1, #3232]
  1e00031fa0:	d1339000 	sub	x0, x0, #0xce4
  1e00031fa4:	f9400a65 	ldr	x5, [x19, #16]
  1e00031fa8:	d3609c41 	ubfx	x1, x2, #32, #8
  1e00031fac:	b9402263 	ldr	w3, [x19, #32]
  1e00031fb0:	d350fca4 	lsr	x4, x5, #16
  1e00031fb4:	12101c84 	and	w4, w4, #0xff0000
  1e00031fb8:	2a040021 	orr	w1, w1, w4
  1e00031fbc:	b9000001 	str	w1, [x0]
  1e00031fc0:	320083e1 	mov	w1, #0x10001               	// #65537
  1e00031fc4:	b9007001 	str	w1, [x0, #112]
  1e00031fc8:	b81ec01f 	stur	wzr, [x0, #-20]
  1e00031fcc:	52802024 	mov	w4, #0x101                 	// #257
  1e00031fd0:	b9006c01 	str	w1, [x0, #108]
  1e00031fd4:	b9001004 	str	w4, [x0, #16]
  1e00031fd8:	52800084 	mov	w4, #0x4                   	// #4
  1e00031fdc:	b9008001 	str	w1, [x0, #128]
  1e00031fe0:	aa0200a1 	orr	x1, x5, x2
  1e00031fe4:	2a0303e0 	mov	w0, w3
  1e00031fe8:	aa000021 	orr	x1, x1, x0
  1e00031fec:	1ac420e6 	lsl	w6, w7, w4
  1e00031ff0:	510004c0 	sub	w0, w6, #0x1
  1e00031ff4:	93407c00 	sxtw	x0, w0
  1e00031ff8:	ea00003f 	tst	x1, x0
  1e00031ffc:	540018a1 	b.ne	1e00032310 <dma_start+0x3a8>  // b.any
  1e00032000:	52800200 	mov	w0, #0x10                  	// #16
  1e00032004:	528001e1 	mov	w1, #0xf                   	// #15
  1e00032008:	1ac62000 	lsl	w0, w0, w6
  1e0003200c:	51000400 	sub	w0, w0, #0x1
  1e00032010:	6a03001f 	tst	w0, w3
  1e00032014:	54000100 	b.eq	1e00032034 <dma_start+0xcc>  // b.none
  1e00032018:	2a0103e0 	mov	w0, w1
  1e0003201c:	71000421 	subs	w1, w1, #0x1
  1e00032020:	540000a0 	b.eq	1e00032034 <dma_start+0xcc>  // b.none
  1e00032024:	1ac62000 	lsl	w0, w0, w6
  1e00032028:	1ac00867 	udiv	w7, w3, w0
  1e0003202c:	1b008ce0 	msub	w0, w7, w0, w3
  1e00032030:	35ffff40 	cbnz	w0, 1e00032018 <dma_start+0xb0>
  1e00032034:	52a00020 	mov	w0, #0x10000               	// #65536
  1e00032038:	290b0664 	stp	w4, w1, [x19, #88]
  1e0003203c:	1ac42000 	lsl	w0, w0, w4
  1e00032040:	290c0664 	stp	w4, w1, [x19, #96]
  1e00032044:	a9049662 	stp	x2, x5, [x19, #72]
  1e00032048:	1b000020 	madd	w0, w1, w0, w0
  1e0003204c:	b9400a61 	ldr	w1, [x19, #8]
  1e00032050:	6b03001f 	cmp	w0, w3
  1e00032054:	1a839000 	csel	w0, w0, w3, ls	// ls = plast
  1e00032058:	b9006a60 	str	w0, [x19, #104]
  1e0003205c:	52800020 	mov	w0, #0x1                   	// #1
  1e00032060:	b9008e60 	str	w0, [x19, #140]
  1e00032064:	35000041 	cbnz	w1, 1e0003206c <dma_start+0x104>
  1e00032068:	b9008a60 	str	w0, [x19, #136]
  1e0003206c:	b9401a60 	ldr	w0, [x19, #24]
  1e00032070:	35000060 	cbnz	w0, 1e0003207c <dma_start+0x114>
  1e00032074:	52800020 	mov	w0, #0x1                   	// #1
  1e00032078:	b9008660 	str	w0, [x19, #132]
  1e0003207c:	f9401e64 	ldr	x4, [x19, #56]
  1e00032080:	52800001 	mov	w1, #0x0                   	// #0
  1e00032084:	aa0403e0 	mov	x0, x4
  1e00032088:	97ffff78 	bl	1e00031e68 <dma_pl330_gen_mov>
  1e0003208c:	b9405262 	ldr	w2, [x19, #80]
  1e00032090:	2a0003e5 	mov	w5, w0
  1e00032094:	52800041 	mov	w1, #0x2                   	// #2
  1e00032098:	8b204080 	add	x0, x4, w0, uxtw
  1e0003209c:	97ffff73 	bl	1e00031e68 <dma_pl330_gen_mov>
  1e000320a0:	b9408e67 	ldr	w7, [x19, #140]
  1e000320a4:	29508e62 	ldp	w2, w3, [x19, #132]
  1e000320a8:	710000ff 	cmp	w7, #0x0
  1e000320ac:	b9406661 	ldr	w1, [x19, #100]
  1e000320b0:	0b0000a6 	add	w6, w5, w0
  1e000320b4:	0b0000a0 	add	w0, w5, w0
  1e000320b8:	53124442 	lsl	w2, w2, #14
  1e000320bc:	8b040000 	add	x0, x0, x4
  1e000320c0:	0b014841 	add	w1, w2, w1, lsl #18
  1e000320c4:	b9405e62 	ldr	w2, [x19, #92]
  1e000320c8:	0b021062 	add	w2, w3, w2, lsl #4
  1e000320cc:	0b020021 	add	w1, w1, w2
  1e000320d0:	294f8a63 	ldp	w3, w2, [x19, #124]
  1e000320d4:	53070842 	ubfiz	w2, w2, #25, #3
  1e000320d8:	53150863 	ubfiz	w3, w3, #11, #3
  1e000320dc:	0b075c42 	add	w2, w2, w7, lsl #23
  1e000320e0:	0b020021 	add	w1, w1, w2
  1e000320e4:	b9406262 	ldr	w2, [x19, #96]
  1e000320e8:	0b023c62 	add	w2, w3, w2, lsl #15
  1e000320ec:	b9405a63 	ldr	w3, [x19, #88]
  1e000320f0:	0b020021 	add	w1, w1, w2
  1e000320f4:	1a9f07e2 	cset	w2, ne	// ne = any
  1e000320f8:	531f7863 	lsl	w3, w3, #1
  1e000320fc:	0b022462 	add	w2, w3, w2, lsl #9
  1e00032100:	0b020022 	add	w2, w1, w2
  1e00032104:	52800021 	mov	w1, #0x1                   	// #1
  1e00032108:	97ffff58 	bl	1e00031e68 <dma_pl330_gen_mov>
  1e0003210c:	0b0000c5 	add	w5, w6, w0
  1e00032110:	294b1a60 	ldp	w0, w6, [x19, #88]
  1e00032114:	b9406a61 	ldr	w1, [x19, #104]
  1e00032118:	110004c6 	add	w6, w6, #0x1
  1e0003211c:	1ac020c6 	lsl	w6, w6, w0
  1e00032120:	1ac60820 	udiv	w0, w1, w6
  1e00032124:	1b068406 	msub	w6, w0, w6, w1
  1e00032128:	7103fc1f 	cmp	w0, #0xff
  1e0003212c:	540004c9 	b.ls	1e000321c4 <dma_start+0x25c>  // b.plast
  1e00032130:	2a0503e1 	mov	w1, w5
  1e00032134:	8b254082 	add	x2, x4, w5, uxtw
  1e00032138:	52800443 	mov	w3, #0x22                  	// #34
  1e0003213c:	52800088 	mov	w8, #0x4                   	// #4
  1e00032140:	38246823 	strb	w3, [x1, x4]
  1e00032144:	53087c01 	lsr	w1, w0, #8
  1e00032148:	51000421 	sub	w1, w1, #0x1
  1e0003214c:	52800403 	mov	w3, #0x20                  	// #32
  1e00032150:	12001c21 	and	w1, w1, #0xff
  1e00032154:	39000441 	strb	w1, [x2, #1]
  1e00032158:	110008a1 	add	w1, w5, #0x2
  1e0003215c:	8b040022 	add	x2, x1, x4
  1e00032160:	38246823 	strb	w3, [x1, x4]
  1e00032164:	12800001 	mov	w1, #0xffffffff            	// #-1
  1e00032168:	39000441 	strb	w1, [x2, #1]
  1e0003216c:	110010a2 	add	w2, w5, #0x4
  1e00032170:	8b040047 	add	x7, x2, x4
  1e00032174:	38246848 	strb	w8, [x2, x4]
  1e00032178:	52800102 	mov	w2, #0x8                   	// #8
  1e0003217c:	390004e2 	strb	w2, [x7, #1]
  1e00032180:	110018a2 	add	w2, w5, #0x6
  1e00032184:	8b040047 	add	x7, x2, x4
  1e00032188:	52800708 	mov	w8, #0x38                  	// #56
  1e0003218c:	38246848 	strb	w8, [x2, x4]
  1e00032190:	52800042 	mov	w2, #0x2                   	// #2
  1e00032194:	390004e2 	strb	w2, [x7, #1]
  1e00032198:	110020a2 	add	w2, w5, #0x8
  1e0003219c:	8b040047 	add	x7, x2, x4
  1e000321a0:	38246843 	strb	w3, [x2, x4]
  1e000321a4:	52800783 	mov	w3, #0x3c                  	// #60
  1e000321a8:	390004e1 	strb	w1, [x7, #1]
  1e000321ac:	110028a1 	add	w1, w5, #0xa
  1e000321b0:	8b040022 	add	x2, x1, x4
  1e000321b4:	110030a5 	add	w5, w5, #0xc
  1e000321b8:	38246823 	strb	w3, [x1, x4]
  1e000321bc:	528000c1 	mov	w1, #0x6                   	// #6
  1e000321c0:	39000441 	strb	w1, [x2, #1]
  1e000321c4:	72001c1f 	tst	w0, #0xff
  1e000321c8:	540002a0 	b.eq	1e0003221c <dma_start+0x2b4>  // b.none
  1e000321cc:	2a0503e2 	mov	w2, w5
  1e000321d0:	8b254081 	add	x1, x4, w5, uxtw
  1e000321d4:	51000400 	sub	w0, w0, #0x1
  1e000321d8:	52800403 	mov	w3, #0x20                  	// #32
  1e000321dc:	12001c00 	and	w0, w0, #0xff
  1e000321e0:	38246843 	strb	w3, [x2, x4]
  1e000321e4:	52800082 	mov	w2, #0x4                   	// #4
  1e000321e8:	39000420 	strb	w0, [x1, #1]
  1e000321ec:	110008a0 	add	w0, w5, #0x2
  1e000321f0:	8b040001 	add	x1, x0, x4
  1e000321f4:	38246802 	strb	w2, [x0, x4]
  1e000321f8:	52800100 	mov	w0, #0x8                   	// #8
  1e000321fc:	39000420 	strb	w0, [x1, #1]
  1e00032200:	110010a0 	add	w0, w5, #0x4
  1e00032204:	8b040001 	add	x1, x0, x4
  1e00032208:	52800702 	mov	w2, #0x38                  	// #56
  1e0003220c:	110018a5 	add	w5, w5, #0x6
  1e00032210:	38246802 	strb	w2, [x0, x4]
  1e00032214:	52800040 	mov	w0, #0x2                   	// #2
  1e00032218:	39000420 	strb	w0, [x1, #1]
  1e0003221c:	34000406 	cbz	w6, 1e0003229c <dma_start+0x334>
  1e00032220:	b9408660 	ldr	w0, [x19, #132]
  1e00032224:	52800021 	mov	w1, #0x1                   	// #1
  1e00032228:	b9408e62 	ldr	w2, [x19, #140]
  1e0003222c:	510004c6 	sub	w6, w6, #0x1
  1e00032230:	12001cc6 	and	w6, w6, #0xff
  1e00032234:	53124400 	lsl	w0, w0, #14
  1e00032238:	0b025c02 	add	w2, w0, w2, lsl #23
  1e0003223c:	b9408a60 	ldr	w0, [x19, #136]
  1e00032240:	11080000 	add	w0, w0, #0x200
  1e00032244:	0b000042 	add	w2, w2, w0
  1e00032248:	8b254080 	add	x0, x4, w5, uxtw
  1e0003224c:	97ffff07 	bl	1e00031e68 <dma_pl330_gen_mov>
  1e00032250:	0b0000a1 	add	w1, w5, w0
  1e00032254:	0b0000a0 	add	w0, w5, w0
  1e00032258:	52800403 	mov	w3, #0x20                  	// #32
  1e0003225c:	8b040002 	add	x2, x0, x4
  1e00032260:	11001825 	add	w5, w1, #0x6
  1e00032264:	38246803 	strb	w3, [x0, x4]
  1e00032268:	11000820 	add	w0, w1, #0x2
  1e0003226c:	39000446 	strb	w6, [x2, #1]
  1e00032270:	8b040002 	add	x2, x0, x4
  1e00032274:	52800083 	mov	w3, #0x4                   	// #4
  1e00032278:	38246803 	strb	w3, [x0, x4]
  1e0003227c:	52800100 	mov	w0, #0x8                   	// #8
  1e00032280:	39000440 	strb	w0, [x2, #1]
  1e00032284:	11001020 	add	w0, w1, #0x4
  1e00032288:	8b040002 	add	x2, x0, x4
  1e0003228c:	52800703 	mov	w3, #0x38                  	// #56
  1e00032290:	38246803 	strb	w3, [x0, x4]
  1e00032294:	52800040 	mov	w0, #0x2                   	// #2
  1e00032298:	39000440 	strb	w0, [x2, #1]
  1e0003229c:	f9401a60 	ldr	x0, [x19, #48]
  1e000322a0:	b40000e0 	cbz	x0, 1e000322bc <dma_start+0x354>
  1e000322a4:	2a0503e1 	mov	w1, w5
  1e000322a8:	8b254080 	add	x0, x4, w5, uxtw
  1e000322ac:	52800682 	mov	w2, #0x34                  	// #52
  1e000322b0:	110008a5 	add	w5, w5, #0x2
  1e000322b4:	38246822 	strb	w2, [x1, x4]
  1e000322b8:	3900041f 	strb	wzr, [x0, #1]
  1e000322bc:	2a0503e0 	mov	w0, w5
  1e000322c0:	8b254085 	add	x5, x4, w5, uxtw
  1e000322c4:	529c2022 	mov	w2, #0xe101                	// #57601
  1e000322c8:	d2be0581 	mov	x1, #0xf02c0000            	// #4029415424
  1e000322cc:	72a0bea2 	movk	w2, #0x5f5, lsl #16
  1e000322d0:	f2c003e1 	movk	x1, #0x1f, lsl #32
  1e000322d4:	3824681f 	strb	wzr, [x0, x4]
  1e000322d8:	390004bf 	strb	wzr, [x5, #1]
  1e000322dc:	390008bf 	strb	wzr, [x5, #2]
  1e000322e0:	39000cbf 	strb	wzr, [x5, #3]
  1e000322e4:	b9408e60 	ldr	w0, [x19, #140]
  1e000322e8:	b94d0023 	ldr	w3, [x1, #3328]
  1e000322ec:	71000442 	subs	w2, w2, #0x1
  1e000322f0:	54000141 	b.ne	1e00032318 <dma_start+0x3b0>  // b.any
  1e000322f4:	f0000041 	adrp	x1, 1e0003d000 <CSWTCH.192+0x80c>
  1e000322f8:	d0000040 	adrp	x0, 1e0003c000 <vsnprintf+0x270>
  1e000322fc:	91261021 	add	x1, x1, #0x984
  1e00032300:	912fd400 	add	x0, x0, #0xbf5
  1e00032304:	97fffeac 	bl	1e00031db4 <tf_log>
  1e00032308:	12800760 	mov	w0, #0xffffffc4            	// #-60
  1e0003230c:	1400001e 	b	1e00032384 <dma_start+0x41c>
  1e00032310:	51000484 	sub	w4, w4, #0x1
  1e00032314:	17ffff36 	b	1e00031fec <dma_start+0x84>
  1e00032318:	f2400c7f 	tst	x3, #0xf
  1e0003231c:	54fffe61 	b.ne	1e000322e8 <dma_start+0x380>  // b.any
  1e00032320:	530f3800 	lsl	w0, w0, #17
  1e00032324:	d2be0582 	mov	x2, #0xf02c0000            	// #4029415424
  1e00032328:	11680000 	add	w0, w0, #0xa00, lsl #12
  1e0003232c:	b90d0820 	str	w0, [x1, #3336]
  1e00032330:	f2c003e2 	movk	x2, #0x1f, lsl #32
  1e00032334:	f9401e60 	ldr	x0, [x19, #56]
  1e00032338:	b90d0c20 	str	w0, [x1, #3340]
  1e0003233c:	529c2020 	mov	w0, #0xe101                	// #57601
  1e00032340:	b90d043f 	str	wzr, [x1, #3332]
  1e00032344:	72a0bea0 	movk	w0, #0x5f5, lsl #16
  1e00032348:	b94d0441 	ldr	w1, [x2, #3332]
  1e0003234c:	71000400 	subs	w0, w0, #0x1
  1e00032350:	54fffd20 	b.eq	1e000322f4 <dma_start+0x38c>  // b.none
  1e00032354:	f2400c3f 	tst	x1, #0xf
  1e00032358:	54ffff81 	b.ne	1e00032348 <dma_start+0x3e0>  // b.any
  1e0003235c:	529c2020 	mov	w0, #0xe101                	// #57601
  1e00032360:	d2be0582 	mov	x2, #0xf02c0000            	// #4029415424
  1e00032364:	72a0bea0 	movk	w0, #0x5f5, lsl #16
  1e00032368:	f2c003e2 	movk	x2, #0x1f, lsl #32
  1e0003236c:	71000400 	subs	w0, w0, #0x1
  1e00032370:	54000160 	b.eq	1e0003239c <dma_start+0x434>  // b.none
  1e00032374:	b9410041 	ldr	w1, [x2, #256]
  1e00032378:	f2400c3f 	tst	x1, #0xf
  1e0003237c:	54ffff81 	b.ne	1e0003236c <dma_start+0x404>  // b.any
  1e00032380:	52800000 	mov	w0, #0x0                   	// #0
  1e00032384:	b900427f 	str	wzr, [x19, #64]
  1e00032388:	f9400bf3 	ldr	x19, [sp, #16]
  1e0003238c:	a8c27bfd 	ldp	x29, x30, [sp], #32
  1e00032390:	d65f03c0 	ret
  1e00032394:	128002a0 	mov	w0, #0xffffffea            	// #-22
  1e00032398:	d65f03c0 	ret
  1e0003239c:	f0000041 	adrp	x1, 1e0003d000 <CSWTCH.192+0x80c>
  1e000323a0:	d0000040 	adrp	x0, 1e0003c000 <vsnprintf+0x270>
  1e000323a4:	91261021 	add	x1, x1, #0x984
  1e000323a8:	91305c00 	add	x0, x0, #0xc17
  1e000323ac:	17ffffd6 	b	1e00032304 <dma_start+0x39c>

0000001e000323b0 <dma_init>:
  1e000323b0:	d0000081 	adrp	x1, 1e00044000 <__STACKS_START__+0x3bc0>
  1e000323b4:	91110021 	add	x1, x1, #0x440
  1e000323b8:	925f1803 	and	x3, x0, #0xfe00000000
  1e000323bc:	92407c21 	and	x1, x1, #0xffffffff
  1e000323c0:	92601c00 	and	x0, x0, #0xff00000000
  1e000323c4:	b2642021 	orr	x1, x1, #0x1ff0000000
  1e000323c8:	d2c003c2 	mov	x2, #0x1e00000000          	// #128849018880
  1e000323cc:	b2630400 	orr	x0, x0, #0x60000000
  1e000323d0:	eb02007f 	cmp	x3, x2
  1e000323d4:	9a811000 	csel	x0, x0, x1, ne	// ne = any
  1e000323d8:	d0000081 	adrp	x1, 1e00044000 <__STACKS_START__+0x3bc0>
  1e000323dc:	f9066c20 	str	x0, [x1, #3288]
  1e000323e0:	52800000 	mov	w0, #0x0                   	// #0
  1e000323e4:	d65f03c0 	ret

0000001e000323e8 <dma_load_image>:
  1e000323e8:	a9b57bfd 	stp	x29, x30, [sp, #-176]!
  1e000323ec:	910003fd 	mov	x29, sp
  1e000323f0:	a90153f3 	stp	x19, x20, [sp, #16]
  1e000323f4:	aa0103f3 	mov	x19, x1
  1e000323f8:	a9025bf5 	stp	x21, x22, [sp, #32]
  1e000323fc:	aa0003f5 	mov	x21, x0
  1e00032400:	2a0203f6 	mov	w22, w2
  1e00032404:	a90363f7 	stp	x23, x24, [sp, #48]
  1e00032408:	f90023f9 	str	x25, [sp, #64]
  1e0003240c:	a9087fff 	stp	xzr, xzr, [sp, #128]
  1e00032410:	a9097fff 	stp	xzr, xzr, [sp, #144]
  1e00032414:	a90a7fff 	stp	xzr, xzr, [sp, #160]
  1e00032418:	d53be020 	mrs	x0, cntpct_el0
  1e0003241c:	aa0103e0 	mov	x0, x1
  1e00032420:	97ffffe4 	bl	1e000323b0 <dma_init>
  1e00032424:	320d83e0 	mov	w0, #0x80008               	// #524296
  1e00032428:	aa1303f4 	mov	x20, x19
  1e0003242c:	2a1603e5 	mov	w5, w22
  1e00032430:	cb1302b8 	sub	x24, x21, x19
  1e00032434:	f9002fff 	str	xzr, [sp, #88]
  1e00032438:	12bfff99 	mov	w25, #0x3ffff               	// #262143
  1e0003243c:	b9005fe0 	str	w0, [sp, #92]
  1e00032440:	910203e0 	add	x0, sp, #0x80
  1e00032444:	f90033ff 	str	xzr, [sp, #96]
  1e00032448:	f90037e0 	str	x0, [sp, #104]
  1e0003244c:	a9077fff 	stp	xzr, xzr, [sp, #112]
  1e00032450:	8b140300 	add	x0, x24, x20
  1e00032454:	35000105 	cbnz	w5, 1e00032474 <dma_load_image+0x8c>
  1e00032458:	d53be020 	mrs	x0, cntpct_el0
  1e0003245c:	a94153f3 	ldp	x19, x20, [sp, #16]
  1e00032460:	a9425bf5 	ldp	x21, x22, [sp, #32]
  1e00032464:	a94363f7 	ldp	x23, x24, [sp, #48]
  1e00032468:	f94023f9 	ldr	x25, [sp, #64]
  1e0003246c:	a8cb7bfd 	ldp	x29, x30, [sp], #176
  1e00032470:	d65f03c0 	ret
  1e00032474:	6b1900bf 	cmp	w5, w25
  1e00032478:	54000269 	b.ls	1e000324c4 <dma_load_image+0xdc>  // b.plast
  1e0003247c:	514100b7 	sub	w23, w5, #0x40, lsl #12
  1e00032480:	52a00085 	mov	w5, #0x40000               	// #262144
  1e00032484:	910163e1 	add	x1, sp, #0x58
  1e00032488:	a90803f4 	stp	x20, x0, [sp, #128]
  1e0003248c:	52800000 	mov	w0, #0x0                   	// #0
  1e00032490:	b9009fe5 	str	w5, [sp, #156]
  1e00032494:	97fffe83 	bl	1e00031ea0 <dma_configure>
  1e00032498:	52800000 	mov	w0, #0x0                   	// #0
  1e0003249c:	97fffeb3 	bl	1e00031f68 <dma_start>
  1e000324a0:	2a0003e1 	mov	w1, w0
  1e000324a4:	34000140 	cbz	w0, 1e000324cc <dma_load_image+0xe4>
  1e000324a8:	2a1603e4 	mov	w4, w22
  1e000324ac:	aa1503e3 	mov	x3, x21
  1e000324b0:	aa1303e2 	mov	x2, x19
  1e000324b4:	d0000040 	adrp	x0, 1e0003c000 <vsnprintf+0x270>
  1e000324b8:	9130e000 	add	x0, x0, #0xc38
  1e000324bc:	97fffe3e 	bl	1e00031db4 <tf_log>
  1e000324c0:	94002450 	bl	1e0003b600 <__assert>
  1e000324c4:	52800017 	mov	w23, #0x0                   	// #0
  1e000324c8:	17ffffef 	b	1e00032484 <dma_load_image+0x9c>
  1e000324cc:	91410294 	add	x20, x20, #0x40, lsl #12
  1e000324d0:	2a1703e5 	mov	w5, w23
  1e000324d4:	17ffffdf 	b	1e00032450 <dma_load_image+0x68>

0000001e000324d8 <cmu_find_pll_lvl>:
  1e000324d8:	d2800002 	mov	x2, #0x0                   	// #0
  1e000324dc:	d2800283 	mov	x3, #0x14                  	// #20
  1e000324e0:	9b037c44 	mul	x4, x2, x3
  1e000324e4:	b8646804 	ldr	w4, [x0, x4]
  1e000324e8:	6b01009f 	cmp	w4, w1
  1e000324ec:	540000c0 	b.eq	1e00032504 <cmu_find_pll_lvl+0x2c>  // b.none
  1e000324f0:	91000442 	add	x2, x2, #0x1
  1e000324f4:	f100285f 	cmp	x2, #0xa
  1e000324f8:	54ffff41 	b.ne	1e000324e0 <cmu_find_pll_lvl+0x8>  // b.any
  1e000324fc:	12800580 	mov	w0, #0xffffffd3            	// #-45
  1e00032500:	d65f03c0 	ret
  1e00032504:	2a0203e0 	mov	w0, w2
  1e00032508:	17fffffe 	b	1e00032500 <cmu_find_pll_lvl+0x28>

0000001e0003250c <cmu_blk_cp_init>:
  1e0003250c:	b9400001 	ldr	w1, [x0]
  1e00032510:	52803e82 	mov	w2, #0x1f4                 	// #500
  1e00032514:	52800c83 	mov	w3, #0x64                  	// #100
  1e00032518:	33004c41 	bfxil	w1, w2, #0, #20
  1e0003251c:	b9000001 	str	w1, [x0]
  1e00032520:	52800022 	mov	w2, #0x1                   	// #1
  1e00032524:	b9410c01 	ldr	w1, [x0, #268]
  1e00032528:	12103c21 	and	w1, w1, #0xffff0000
  1e0003252c:	b9010c01 	str	w1, [x0, #268]
  1e00032530:	b9410001 	ldr	w1, [x0, #256]
  1e00032534:	33181441 	bfi	w1, w2, #8, #6
  1e00032538:	b9010001 	str	w1, [x0, #256]
  1e0003253c:	b9410001 	ldr	w1, [x0, #256]
  1e00032540:	33102461 	bfi	w1, w3, #16, #10
  1e00032544:	b9010001 	str	w1, [x0, #256]
  1e00032548:	b9410001 	ldr	w1, [x0, #256]
  1e0003254c:	33000841 	bfxil	w1, w2, #0, #3
  1e00032550:	b9010001 	str	w1, [x0, #256]
  1e00032554:	b9410001 	ldr	w1, [x0, #256]
  1e00032558:	32010021 	orr	w1, w1, #0x80000000
  1e0003255c:	b9010001 	str	w1, [x0, #256]
  1e00032560:	b9410001 	ldr	w1, [x0, #256]
  1e00032564:	36efffe1 	tbz	w1, #29, 1e00032560 <cmu_blk_cp_init+0x54>
  1e00032568:	b9400401 	ldr	w1, [x0, #4]
  1e0003256c:	52807d02 	mov	w2, #0x3e8                 	// #1000
  1e00032570:	33004c41 	bfxil	w1, w2, #0, #20
  1e00032574:	b9000401 	str	w1, [x0, #4]
  1e00032578:	52800042 	mov	w2, #0x2                   	// #2
  1e0003257c:	b9412001 	ldr	w1, [x0, #288]
  1e00032580:	12103c21 	and	w1, w1, #0xffff0000
  1e00032584:	b9012001 	str	w1, [x0, #288]
  1e00032588:	b9411401 	ldr	w1, [x0, #276]
  1e0003258c:	33181441 	bfi	w1, w2, #8, #6
  1e00032590:	b9011401 	str	w1, [x0, #276]
  1e00032594:	52800e62 	mov	w2, #0x73                  	// #115
  1e00032598:	b9411401 	ldr	w1, [x0, #276]
  1e0003259c:	33102441 	bfi	w1, w2, #16, #10
  1e000325a0:	b9011401 	str	w1, [x0, #276]
  1e000325a4:	b9411401 	ldr	w1, [x0, #276]
  1e000325a8:	121d7021 	and	w1, w1, #0xfffffff8
  1e000325ac:	b9011401 	str	w1, [x0, #276]
  1e000325b0:	b9411401 	ldr	w1, [x0, #276]
  1e000325b4:	32010021 	orr	w1, w1, #0x80000000
  1e000325b8:	b9011401 	str	w1, [x0, #276]
  1e000325bc:	b9411401 	ldr	w1, [x0, #276]
  1e000325c0:	36efffe1 	tbz	w1, #29, 1e000325bc <cmu_blk_cp_init+0xb0>
  1e000325c4:	b9580001 	ldr	w1, [x0, #6144]
  1e000325c8:	52800022 	mov	w2, #0x1                   	// #1
  1e000325cc:	33000c41 	bfxil	w1, w2, #0, #4
  1e000325d0:	b9180001 	str	w1, [x0, #6144]
  1e000325d4:	52800061 	mov	w1, #0x3                   	// #3
  1e000325d8:	b9570003 	ldr	w3, [x0, #5888]
  1e000325dc:	33000c23 	bfxil	w3, w1, #0, #4
  1e000325e0:	b9170003 	str	w3, [x0, #5888]
  1e000325e4:	b9580403 	ldr	w3, [x0, #6148]
  1e000325e8:	121c6c63 	and	w3, w3, #0xfffffff0
  1e000325ec:	b9180403 	str	w3, [x0, #6148]
  1e000325f0:	b9570403 	ldr	w3, [x0, #5892]
  1e000325f4:	33000c43 	bfxil	w3, w2, #0, #4
  1e000325f8:	b9170403 	str	w3, [x0, #5892]
  1e000325fc:	b9580803 	ldr	w3, [x0, #6152]
  1e00032600:	33000c43 	bfxil	w3, w2, #0, #4
  1e00032604:	b9180803 	str	w3, [x0, #6152]
  1e00032608:	b9570802 	ldr	w2, [x0, #5896]
  1e0003260c:	33000c22 	bfxil	w2, w1, #0, #4
  1e00032610:	b9170802 	str	w2, [x0, #5896]
  1e00032614:	b9581402 	ldr	w2, [x0, #6164]
  1e00032618:	33000c22 	bfxil	w2, w1, #0, #4
  1e0003261c:	b9181402 	str	w2, [x0, #6164]
  1e00032620:	528000e2 	mov	w2, #0x7                   	// #7
  1e00032624:	b9571003 	ldr	w3, [x0, #5904]
  1e00032628:	33000c43 	bfxil	w3, w2, #0, #4
  1e0003262c:	b9171003 	str	w3, [x0, #5904]
  1e00032630:	b9580c03 	ldr	w3, [x0, #6156]
  1e00032634:	33000c23 	bfxil	w3, w1, #0, #4
  1e00032638:	b9180c03 	str	w3, [x0, #6156]
  1e0003263c:	b9570c01 	ldr	w1, [x0, #5900]
  1e00032640:	33000c41 	bfxil	w1, w2, #0, #4
  1e00032644:	b9170c01 	str	w1, [x0, #5900]
  1e00032648:	52800082 	mov	w2, #0x4                   	// #4
  1e0003264c:	b9581801 	ldr	w1, [x0, #6168]
  1e00032650:	121a6421 	and	w1, w1, #0xffffffc0
  1e00032654:	b9181801 	str	w1, [x0, #6168]
  1e00032658:	b9581001 	ldr	w1, [x0, #6160]
  1e0003265c:	33000c41 	bfxil	w1, w2, #0, #4
  1e00032660:	b9181001 	str	w1, [x0, #6160]
  1e00032664:	b9500001 	ldr	w1, [x0, #4096]
  1e00032668:	121f7821 	and	w1, w1, #0xfffffffe
  1e0003266c:	b9100001 	str	w1, [x0, #4096]
  1e00032670:	b9500001 	ldr	w1, [x0, #4096]
  1e00032674:	3787ffe1 	tbnz	w1, #16, 1e00032670 <cmu_blk_cp_init+0x164>
  1e00032678:	b9500401 	ldr	w1, [x0, #4100]
  1e0003267c:	121f7821 	and	w1, w1, #0xfffffffe
  1e00032680:	b9100401 	str	w1, [x0, #4100]
  1e00032684:	b9500401 	ldr	w1, [x0, #4100]
  1e00032688:	3787ffe1 	tbnz	w1, #16, 1e00032684 <cmu_blk_cp_init+0x178>
  1e0003268c:	b9410001 	ldr	w1, [x0, #256]
  1e00032690:	321c0021 	orr	w1, w1, #0x10
  1e00032694:	b9010001 	str	w1, [x0, #256]
  1e00032698:	b9410001 	ldr	w1, [x0, #256]
  1e0003269c:	373fffe1 	tbnz	w1, #7, 1e00032698 <cmu_blk_cp_init+0x18c>
  1e000326a0:	b9411401 	ldr	w1, [x0, #276]
  1e000326a4:	321c0021 	orr	w1, w1, #0x10
  1e000326a8:	b9011401 	str	w1, [x0, #276]
  1e000326ac:	b9411401 	ldr	w1, [x0, #276]
  1e000326b0:	373fffe1 	tbnz	w1, #7, 1e000326ac <cmu_blk_cp_init+0x1a0>
  1e000326b4:	d65f03c0 	ret

0000001e000326b8 <cmu_blk_pcie_init>:
  1e000326b8:	b9400001 	ldr	w1, [x0]
  1e000326bc:	52803e82 	mov	w2, #0x1f4                 	// #500
  1e000326c0:	52800c83 	mov	w3, #0x64                  	// #100
  1e000326c4:	33004c41 	bfxil	w1, w2, #0, #20
  1e000326c8:	b9000001 	str	w1, [x0]
  1e000326cc:	52800022 	mov	w2, #0x1                   	// #1
  1e000326d0:	b9410c01 	ldr	w1, [x0, #268]
  1e000326d4:	12103c21 	and	w1, w1, #0xffff0000
  1e000326d8:	b9010c01 	str	w1, [x0, #268]
  1e000326dc:	b9410001 	ldr	w1, [x0, #256]
  1e000326e0:	33181441 	bfi	w1, w2, #8, #6
  1e000326e4:	b9010001 	str	w1, [x0, #256]
  1e000326e8:	b9410001 	ldr	w1, [x0, #256]
  1e000326ec:	33102461 	bfi	w1, w3, #16, #10
  1e000326f0:	b9010001 	str	w1, [x0, #256]
  1e000326f4:	b9410001 	ldr	w1, [x0, #256]
  1e000326f8:	33000841 	bfxil	w1, w2, #0, #3
  1e000326fc:	b9010001 	str	w1, [x0, #256]
  1e00032700:	b9410001 	ldr	w1, [x0, #256]
  1e00032704:	32010021 	orr	w1, w1, #0x80000000
  1e00032708:	b9010001 	str	w1, [x0, #256]
  1e0003270c:	b9410001 	ldr	w1, [x0, #256]
  1e00032710:	36efffe1 	tbz	w1, #29, 1e0003270c <cmu_blk_pcie_init+0x54>
  1e00032714:	b9580401 	ldr	w1, [x0, #6148]
  1e00032718:	52800262 	mov	w2, #0x13                  	// #19
  1e0003271c:	33001041 	bfxil	w1, w2, #0, #5
  1e00032720:	b9180401 	str	w1, [x0, #6148]
  1e00032724:	52800022 	mov	w2, #0x1                   	// #1
  1e00032728:	b9580001 	ldr	w1, [x0, #6144]
  1e0003272c:	33000c41 	bfxil	w1, w2, #0, #4
  1e00032730:	b9180001 	str	w1, [x0, #6144]
  1e00032734:	52800062 	mov	w2, #0x3                   	// #3
  1e00032738:	b9580801 	ldr	w1, [x0, #6152]
  1e0003273c:	33000c41 	bfxil	w1, w2, #0, #4
  1e00032740:	b9180801 	str	w1, [x0, #6152]
  1e00032744:	52800122 	mov	w2, #0x9                   	// #9
  1e00032748:	b9583801 	ldr	w1, [x0, #6200]
  1e0003274c:	121a6421 	and	w1, w1, #0xffffffc0
  1e00032750:	b9183801 	str	w1, [x0, #6200]
  1e00032754:	b9581001 	ldr	w1, [x0, #6160]
  1e00032758:	32000c21 	orr	w1, w1, #0xf
  1e0003275c:	b9181001 	str	w1, [x0, #6160]
  1e00032760:	b9581401 	ldr	w1, [x0, #6164]
  1e00032764:	33000c41 	bfxil	w1, w2, #0, #4
  1e00032768:	b9181401 	str	w1, [x0, #6164]
  1e0003276c:	b9500401 	ldr	w1, [x0, #4100]
  1e00032770:	121f7821 	and	w1, w1, #0xfffffffe
  1e00032774:	b9100401 	str	w1, [x0, #4100]
  1e00032778:	b9500401 	ldr	w1, [x0, #4100]
  1e0003277c:	3787ffe1 	tbnz	w1, #16, 1e00032778 <cmu_blk_pcie_init+0xc0>
  1e00032780:	b9500001 	ldr	w1, [x0, #4096]
  1e00032784:	32000021 	orr	w1, w1, #0x1
  1e00032788:	b9100001 	str	w1, [x0, #4096]
  1e0003278c:	b9500001 	ldr	w1, [x0, #4096]
  1e00032790:	3787ffe1 	tbnz	w1, #16, 1e0003278c <cmu_blk_pcie_init+0xd4>
  1e00032794:	b9410001 	ldr	w1, [x0, #256]
  1e00032798:	321c0021 	orr	w1, w1, #0x10
  1e0003279c:	b9010001 	str	w1, [x0, #256]
  1e000327a0:	b9410001 	ldr	w1, [x0, #256]
  1e000327a4:	373fffe1 	tbnz	w1, #7, 1e000327a0 <cmu_blk_pcie_init+0xe8>
  1e000327a8:	d65f03c0 	ret

0000001e000327ac <cmu_blk_rot_init>:
  1e000327ac:	b9400001 	ldr	w1, [x0]
  1e000327b0:	52803e82 	mov	w2, #0x1f4                 	// #500
  1e000327b4:	52800963 	mov	w3, #0x4b                  	// #75
  1e000327b8:	33004c41 	bfxil	w1, w2, #0, #20
  1e000327bc:	b9000001 	str	w1, [x0]
  1e000327c0:	52800022 	mov	w2, #0x1                   	// #1
  1e000327c4:	b9410c01 	ldr	w1, [x0, #268]
  1e000327c8:	12103c21 	and	w1, w1, #0xffff0000
  1e000327cc:	b9010c01 	str	w1, [x0, #268]
  1e000327d0:	b9410001 	ldr	w1, [x0, #256]
  1e000327d4:	33181441 	bfi	w1, w2, #8, #6
  1e000327d8:	b9010001 	str	w1, [x0, #256]
  1e000327dc:	b9410001 	ldr	w1, [x0, #256]
  1e000327e0:	33102461 	bfi	w1, w3, #16, #10
  1e000327e4:	b9010001 	str	w1, [x0, #256]
  1e000327e8:	b9410001 	ldr	w1, [x0, #256]
  1e000327ec:	33000841 	bfxil	w1, w2, #0, #3
  1e000327f0:	b9010001 	str	w1, [x0, #256]
  1e000327f4:	b9410001 	ldr	w1, [x0, #256]
  1e000327f8:	32010021 	orr	w1, w1, #0x80000000
  1e000327fc:	b9010001 	str	w1, [x0, #256]
  1e00032800:	b9410001 	ldr	w1, [x0, #256]
  1e00032804:	36efffe1 	tbz	w1, #29, 1e00032800 <cmu_blk_rot_init+0x54>
  1e00032808:	b9580c01 	ldr	w1, [x0, #6156]
  1e0003280c:	52800062 	mov	w2, #0x3                   	// #3
  1e00032810:	33000c41 	bfxil	w1, w2, #0, #4
  1e00032814:	b9180c01 	str	w1, [x0, #6156]
  1e00032818:	52800022 	mov	w2, #0x1                   	// #1
  1e0003281c:	b9580001 	ldr	w1, [x0, #6144]
  1e00032820:	33000c41 	bfxil	w1, w2, #0, #4
  1e00032824:	b9180001 	str	w1, [x0, #6144]
  1e00032828:	528000c2 	mov	w2, #0x6                   	// #6
  1e0003282c:	b9580801 	ldr	w1, [x0, #6152]
  1e00032830:	33000c41 	bfxil	w1, w2, #0, #4
  1e00032834:	b9180801 	str	w1, [x0, #6152]
  1e00032838:	52800041 	mov	w1, #0x2                   	// #2
  1e0003283c:	b9580402 	ldr	w2, [x0, #6148]
  1e00032840:	33000c22 	bfxil	w2, w1, #0, #4
  1e00032844:	b9180402 	str	w2, [x0, #6148]
  1e00032848:	b9581002 	ldr	w2, [x0, #6160]
  1e0003284c:	121a6442 	and	w2, w2, #0xffffffc0
  1e00032850:	b9181002 	str	w2, [x0, #6160]
  1e00032854:	b9581402 	ldr	w2, [x0, #6164]
  1e00032858:	33000c22 	bfxil	w2, w1, #0, #4
  1e0003285c:	b9181402 	str	w2, [x0, #6164]
  1e00032860:	b9581802 	ldr	w2, [x0, #6168]
  1e00032864:	33000c22 	bfxil	w2, w1, #0, #4
  1e00032868:	b9181802 	str	w2, [x0, #6168]
  1e0003286c:	b9410001 	ldr	w1, [x0, #256]
  1e00032870:	321c0021 	orr	w1, w1, #0x10
  1e00032874:	b9010001 	str	w1, [x0, #256]
  1e00032878:	b9410001 	ldr	w1, [x0, #256]
  1e0003287c:	373fffe1 	tbnz	w1, #7, 1e00032878 <cmu_blk_rot_init+0xcc>
  1e00032880:	d65f03c0 	ret

0000001e00032884 <cmu_blk_peri_init>:
  1e00032884:	b9400001 	ldr	w1, [x0]
  1e00032888:	52803e82 	mov	w2, #0x1f4                 	// #500
  1e0003288c:	33004c41 	bfxil	w1, w2, #0, #20
  1e00032890:	b9000001 	str	w1, [x0]
  1e00032894:	52800022 	mov	w2, #0x1                   	// #1
  1e00032898:	b9410c01 	ldr	w1, [x0, #268]
  1e0003289c:	12103c21 	and	w1, w1, #0xffff0000
  1e000328a0:	b9010c01 	str	w1, [x0, #268]
  1e000328a4:	b9410001 	ldr	w1, [x0, #256]
  1e000328a8:	33181441 	bfi	w1, w2, #8, #6
  1e000328ac:	b9010001 	str	w1, [x0, #256]
  1e000328b0:	52800c82 	mov	w2, #0x64                  	// #100
  1e000328b4:	b9410001 	ldr	w1, [x0, #256]
  1e000328b8:	33102441 	bfi	w1, w2, #16, #10
  1e000328bc:	b9010001 	str	w1, [x0, #256]
  1e000328c0:	52800042 	mov	w2, #0x2                   	// #2
  1e000328c4:	b9410001 	ldr	w1, [x0, #256]
  1e000328c8:	33000841 	bfxil	w1, w2, #0, #3
  1e000328cc:	b9010001 	str	w1, [x0, #256]
  1e000328d0:	b9410001 	ldr	w1, [x0, #256]
  1e000328d4:	32010021 	orr	w1, w1, #0x80000000
  1e000328d8:	b9010001 	str	w1, [x0, #256]
  1e000328dc:	b9410001 	ldr	w1, [x0, #256]
  1e000328e0:	36efffe1 	tbz	w1, #29, 1e000328dc <cmu_blk_peri_init+0x58>
  1e000328e4:	b9580001 	ldr	w1, [x0, #6144]
  1e000328e8:	52800062 	mov	w2, #0x3                   	// #3
  1e000328ec:	33000c41 	bfxil	w1, w2, #0, #4
  1e000328f0:	b9180001 	str	w1, [x0, #6144]
  1e000328f4:	b9410001 	ldr	w1, [x0, #256]
  1e000328f8:	321c0021 	orr	w1, w1, #0x10
  1e000328fc:	b9010001 	str	w1, [x0, #256]
  1e00032900:	b9410001 	ldr	w1, [x0, #256]
  1e00032904:	373fffe1 	tbnz	w1, #7, 1e00032900 <cmu_blk_peri_init+0x7c>
  1e00032908:	d65f03c0 	ret

0000001e0003290c <cmu_top_bus>:
  1e0003290c:	d2be9403 	mov	x3, #0xf4a00000            	// #4104126464
  1e00032910:	52807d05 	mov	w5, #0x3e8                 	// #1000
  1e00032914:	f2c003e3 	movk	x3, #0x1f, lsl #32
  1e00032918:	8b030002 	add	x2, x0, x3
  1e0003291c:	b8636804 	ldr	w4, [x0, x3]
  1e00032920:	33004ca4 	bfxil	w4, w5, #0, #20
  1e00032924:	b8236804 	str	w4, [x0, x3]
  1e00032928:	52800044 	mov	w4, #0x2                   	// #2
  1e0003292c:	b9411843 	ldr	w3, [x2, #280]
  1e00032930:	12103c63 	and	w3, w3, #0xffff0000
  1e00032934:	b9011843 	str	w3, [x2, #280]
  1e00032938:	b9410c43 	ldr	w3, [x2, #268]
  1e0003293c:	33181483 	bfi	w3, w4, #8, #6
  1e00032940:	b9010c43 	str	w3, [x2, #268]
  1e00032944:	52800f04 	mov	w4, #0x78                  	// #120
  1e00032948:	b9410c43 	ldr	w3, [x2, #268]
  1e0003294c:	33102483 	bfi	w3, w4, #16, #10
  1e00032950:	b9010c43 	str	w3, [x2, #268]
  1e00032954:	52800024 	mov	w4, #0x1                   	// #1
  1e00032958:	b9410c43 	ldr	w3, [x2, #268]
  1e0003295c:	33000883 	bfxil	w3, w4, #0, #3
  1e00032960:	b9010c43 	str	w3, [x2, #268]
  1e00032964:	b9410c43 	ldr	w3, [x2, #268]
  1e00032968:	32010063 	orr	w3, w3, #0x80000000
  1e0003296c:	b9010c43 	str	w3, [x2, #268]
  1e00032970:	b9410c43 	ldr	w3, [x2, #268]
  1e00032974:	36efffe3 	tbz	w3, #29, 1e00032970 <cmu_top_bus+0x64>
  1e00032978:	b9580043 	ldr	w3, [x2, #6144]
  1e0003297c:	52800044 	mov	w4, #0x2                   	// #2
  1e00032980:	121c6c63 	and	w3, w3, #0xfffffff0
  1e00032984:	b9180043 	str	w3, [x2, #6144]
  1e00032988:	b9580443 	ldr	w3, [x2, #6148]
  1e0003298c:	33000c83 	bfxil	w3, w4, #0, #4
  1e00032990:	b9180443 	str	w3, [x2, #6148]
  1e00032994:	b9580c43 	ldr	w3, [x2, #6156]
  1e00032998:	121c6c63 	and	w3, w3, #0xfffffff0
  1e0003299c:	b9180c43 	str	w3, [x2, #6156]
  1e000329a0:	b9410043 	ldr	w3, [x2, #256]
  1e000329a4:	321c0063 	orr	w3, w3, #0x10
  1e000329a8:	b9010043 	str	w3, [x2, #256]
  1e000329ac:	b9410043 	ldr	w3, [x2, #256]
  1e000329b0:	373fffe3 	tbnz	w3, #7, 1e000329ac <cmu_top_bus+0xa0>
  1e000329b4:	b9410c43 	ldr	w3, [x2, #268]
  1e000329b8:	321c0063 	orr	w3, w3, #0x10
  1e000329bc:	b9010c43 	str	w3, [x2, #268]
  1e000329c0:	b9410c43 	ldr	w3, [x2, #268]
  1e000329c4:	373fffe3 	tbnz	w3, #7, 1e000329c0 <cmu_top_bus+0xb4>
  1e000329c8:	d2be9802 	mov	x2, #0xf4c00000            	// #4106223616
  1e000329cc:	52800044 	mov	w4, #0x2                   	// #2
  1e000329d0:	f2c003e2 	movk	x2, #0x1f, lsl #32
  1e000329d4:	8b020002 	add	x2, x0, x2
  1e000329d8:	b9580043 	ldr	w3, [x2, #6144]
  1e000329dc:	121c6c63 	and	w3, w3, #0xfffffff0
  1e000329e0:	b9180043 	str	w3, [x2, #6144]
  1e000329e4:	b9580443 	ldr	w3, [x2, #6148]
  1e000329e8:	33000c83 	bfxil	w3, w4, #0, #4
  1e000329ec:	b9180443 	str	w3, [x2, #6148]
  1e000329f0:	b9410043 	ldr	w3, [x2, #256]
  1e000329f4:	321c0063 	orr	w3, w3, #0x10
  1e000329f8:	b9010043 	str	w3, [x2, #256]
  1e000329fc:	b9410043 	ldr	w3, [x2, #256]
  1e00032a00:	373fffe3 	tbnz	w3, #7, 1e000329fc <cmu_top_bus+0xf0>
  1e00032a04:	2a0103e1 	mov	w1, w1
  1e00032a08:	d0000043 	adrp	x3, 1e0003c000 <vsnprintf+0x270>
  1e00032a0c:	911a6063 	add	x3, x3, #0x698
  1e00032a10:	d2800284 	mov	x4, #0x14                  	// #20
  1e00032a14:	d2be9005 	mov	x5, #0xf4800000            	// #4102029312
  1e00032a18:	f2c003e5 	movk	x5, #0x1f, lsl #32
  1e00032a1c:	8b050002 	add	x2, x0, x5
  1e00032a20:	9b040c21 	madd	x1, x1, x4, x3
  1e00032a24:	52803e83 	mov	w3, #0x1f4                 	// #500
  1e00032a28:	b8656806 	ldr	w6, [x0, x5]
  1e00032a2c:	b9400424 	ldr	w4, [x1, #4]
  1e00032a30:	79402027 	ldrh	w7, [x1, #16]
  1e00032a34:	1b037c83 	mul	w3, w4, w3
  1e00032a38:	12001484 	and	w4, w4, #0x3f
  1e00032a3c:	121e4463 	and	w3, w3, #0xffffc
  1e00032a40:	33004c66 	bfxil	w6, w3, #0, #20
  1e00032a44:	b8256806 	str	w6, [x0, x5]
  1e00032a48:	b9400826 	ldr	w6, [x1, #8]
  1e00032a4c:	b9410c45 	ldr	w5, [x2, #268]
  1e00032a50:	120024c6 	and	w6, w6, #0x3ff
  1e00032a54:	33003ce5 	bfxil	w5, w7, #0, #16
  1e00032a58:	b9010c45 	str	w5, [x2, #268]
  1e00032a5c:	b9410045 	ldr	w5, [x2, #256]
  1e00032a60:	33181485 	bfi	w5, w4, #8, #6
  1e00032a64:	b9010045 	str	w5, [x2, #256]
  1e00032a68:	b9410045 	ldr	w5, [x2, #256]
  1e00032a6c:	331024c5 	bfi	w5, w6, #16, #10
  1e00032a70:	b9010045 	str	w5, [x2, #256]
  1e00032a74:	b9400c25 	ldr	w5, [x1, #12]
  1e00032a78:	b9410041 	ldr	w1, [x2, #256]
  1e00032a7c:	120008a5 	and	w5, w5, #0x7
  1e00032a80:	330008a1 	bfxil	w1, w5, #0, #3
  1e00032a84:	b9010041 	str	w1, [x2, #256]
  1e00032a88:	b9410041 	ldr	w1, [x2, #256]
  1e00032a8c:	32010021 	orr	w1, w1, #0x80000000
  1e00032a90:	b9010041 	str	w1, [x2, #256]
  1e00032a94:	b9410041 	ldr	w1, [x2, #256]
  1e00032a98:	36efffe1 	tbz	w1, #29, 1e00032a94 <cmu_top_bus+0x188>
  1e00032a9c:	b9580441 	ldr	w1, [x2, #6148]
  1e00032aa0:	52800048 	mov	w8, #0x2                   	// #2
  1e00032aa4:	121c6c21 	and	w1, w1, #0xfffffff0
  1e00032aa8:	b9180441 	str	w1, [x2, #6148]
  1e00032aac:	b9581041 	ldr	w1, [x2, #6160]
  1e00032ab0:	33000d01 	bfxil	w1, w8, #0, #4
  1e00032ab4:	b9181041 	str	w1, [x2, #6160]
  1e00032ab8:	528000e8 	mov	w8, #0x7                   	// #7
  1e00032abc:	b9580041 	ldr	w1, [x2, #6144]
  1e00032ac0:	33000d01 	bfxil	w1, w8, #0, #4
  1e00032ac4:	b9180041 	str	w1, [x2, #6144]
  1e00032ac8:	b9580841 	ldr	w1, [x2, #6152]
  1e00032acc:	33000d01 	bfxil	w1, w8, #0, #4
  1e00032ad0:	b9180841 	str	w1, [x2, #6152]
  1e00032ad4:	b9581441 	ldr	w1, [x2, #6164]
  1e00032ad8:	121c6c21 	and	w1, w1, #0xfffffff0
  1e00032adc:	b9181441 	str	w1, [x2, #6164]
  1e00032ae0:	b9411441 	ldr	w1, [x2, #276]
  1e00032ae4:	321c0021 	orr	w1, w1, #0x10
  1e00032ae8:	b9011441 	str	w1, [x2, #276]
  1e00032aec:	b9411441 	ldr	w1, [x2, #276]
  1e00032af0:	373fffe1 	tbnz	w1, #7, 1e00032aec <cmu_top_bus+0x1e0>
  1e00032af4:	b9410041 	ldr	w1, [x2, #256]
  1e00032af8:	321c0021 	orr	w1, w1, #0x10
  1e00032afc:	b9010041 	str	w1, [x2, #256]
  1e00032b00:	b9410041 	ldr	w1, [x2, #256]
  1e00032b04:	373fffe1 	tbnz	w1, #7, 1e00032b00 <cmu_top_bus+0x1f4>
  1e00032b08:	d2be6602 	mov	x2, #0xf3300000            	// #4080009216
  1e00032b0c:	f2c003e2 	movk	x2, #0x1f, lsl #32
  1e00032b10:	8b020001 	add	x1, x0, x2
  1e00032b14:	b8626808 	ldr	w8, [x0, x2]
  1e00032b18:	33004c68 	bfxil	w8, w3, #0, #20
  1e00032b1c:	b8226808 	str	w8, [x0, x2]
  1e00032b20:	b9410c22 	ldr	w2, [x1, #268]
  1e00032b24:	33003ce2 	bfxil	w2, w7, #0, #16
  1e00032b28:	b9010c22 	str	w2, [x1, #268]
  1e00032b2c:	b9410022 	ldr	w2, [x1, #256]
  1e00032b30:	33181482 	bfi	w2, w4, #8, #6
  1e00032b34:	b9010022 	str	w2, [x1, #256]
  1e00032b38:	b9410022 	ldr	w2, [x1, #256]
  1e00032b3c:	331024c2 	bfi	w2, w6, #16, #10
  1e00032b40:	b9010022 	str	w2, [x1, #256]
  1e00032b44:	b9410022 	ldr	w2, [x1, #256]
  1e00032b48:	330008a2 	bfxil	w2, w5, #0, #3
  1e00032b4c:	b9010022 	str	w2, [x1, #256]
  1e00032b50:	b9410022 	ldr	w2, [x1, #256]
  1e00032b54:	32010042 	orr	w2, w2, #0x80000000
  1e00032b58:	b9010022 	str	w2, [x1, #256]
  1e00032b5c:	b9410022 	ldr	w2, [x1, #256]
  1e00032b60:	36efffe2 	tbz	w2, #29, 1e00032b5c <cmu_top_bus+0x250>
  1e00032b64:	b9580022 	ldr	w2, [x1, #6144]
  1e00032b68:	52800048 	mov	w8, #0x2                   	// #2
  1e00032b6c:	121c6c42 	and	w2, w2, #0xfffffff0
  1e00032b70:	b9180022 	str	w2, [x1, #6144]
  1e00032b74:	b9580422 	ldr	w2, [x1, #6148]
  1e00032b78:	33000d02 	bfxil	w2, w8, #0, #4
  1e00032b7c:	b9180422 	str	w2, [x1, #6148]
  1e00032b80:	528000e8 	mov	w8, #0x7                   	// #7
  1e00032b84:	b9581022 	ldr	w2, [x1, #6160]
  1e00032b88:	33000d02 	bfxil	w2, w8, #0, #4
  1e00032b8c:	b9181022 	str	w2, [x1, #6160]
  1e00032b90:	b9581422 	ldr	w2, [x1, #6164]
  1e00032b94:	33000d02 	bfxil	w2, w8, #0, #4
  1e00032b98:	b9181422 	str	w2, [x1, #6164]
  1e00032b9c:	b9410022 	ldr	w2, [x1, #256]
  1e00032ba0:	321c0042 	orr	w2, w2, #0x10
  1e00032ba4:	b9010022 	str	w2, [x1, #256]
  1e00032ba8:	b9410022 	ldr	w2, [x1, #256]
  1e00032bac:	373fffe2 	tbnz	w2, #7, 1e00032ba8 <cmu_top_bus+0x29c>
  1e00032bb0:	d2be6a01 	mov	x1, #0xf3500000            	// #4082106368
  1e00032bb4:	52800048 	mov	w8, #0x2                   	// #2
  1e00032bb8:	f2c003e1 	movk	x1, #0x1f, lsl #32
  1e00032bbc:	8b010001 	add	x1, x0, x1
  1e00032bc0:	b9580022 	ldr	w2, [x1, #6144]
  1e00032bc4:	121c6c42 	and	w2, w2, #0xfffffff0
  1e00032bc8:	b9180022 	str	w2, [x1, #6144]
  1e00032bcc:	b9580422 	ldr	w2, [x1, #6148]
  1e00032bd0:	33000d02 	bfxil	w2, w8, #0, #4
  1e00032bd4:	b9180422 	str	w2, [x1, #6148]
  1e00032bd8:	52800028 	mov	w8, #0x1                   	// #1
  1e00032bdc:	b9580822 	ldr	w2, [x1, #6152]
  1e00032be0:	33000d02 	bfxil	w2, w8, #0, #4
  1e00032be4:	b9180822 	str	w2, [x1, #6152]
  1e00032be8:	b9410022 	ldr	w2, [x1, #256]
  1e00032bec:	321c0042 	orr	w2, w2, #0x10
  1e00032bf0:	b9010022 	str	w2, [x1, #256]
  1e00032bf4:	b9410022 	ldr	w2, [x1, #256]
  1e00032bf8:	373fffe2 	tbnz	w2, #7, 1e00032bf4 <cmu_top_bus+0x2e8>
  1e00032bfc:	d2be6001 	mov	x1, #0xf3000000            	// #4076863488
  1e00032c00:	52800048 	mov	w8, #0x2                   	// #2
  1e00032c04:	f2c003e1 	movk	x1, #0x1f, lsl #32
  1e00032c08:	8b010001 	add	x1, x0, x1
  1e00032c0c:	b9580022 	ldr	w2, [x1, #6144]
  1e00032c10:	121c6c42 	and	w2, w2, #0xfffffff0
  1e00032c14:	b9180022 	str	w2, [x1, #6144]
  1e00032c18:	b9580c22 	ldr	w2, [x1, #6156]
  1e00032c1c:	33000d02 	bfxil	w2, w8, #0, #4
  1e00032c20:	b9180c22 	str	w2, [x1, #6156]
  1e00032c24:	b9580422 	ldr	w2, [x1, #6148]
  1e00032c28:	121a6442 	and	w2, w2, #0xffffffc0
  1e00032c2c:	b9180422 	str	w2, [x1, #6148]
  1e00032c30:	b9410022 	ldr	w2, [x1, #256]
  1e00032c34:	321c0042 	orr	w2, w2, #0x10
  1e00032c38:	b9010022 	str	w2, [x1, #256]
  1e00032c3c:	b9410022 	ldr	w2, [x1, #256]
  1e00032c40:	373fffe2 	tbnz	w2, #7, 1e00032c3c <cmu_top_bus+0x330>
  1e00032c44:	d2be7801 	mov	x1, #0xf3c00000            	// #4089446400
  1e00032c48:	52800048 	mov	w8, #0x2                   	// #2
  1e00032c4c:	f2c003e1 	movk	x1, #0x1f, lsl #32
  1e00032c50:	8b010001 	add	x1, x0, x1
  1e00032c54:	b9580022 	ldr	w2, [x1, #6144]
  1e00032c58:	121c6c42 	and	w2, w2, #0xfffffff0
  1e00032c5c:	b9180022 	str	w2, [x1, #6144]
  1e00032c60:	b9580422 	ldr	w2, [x1, #6148]
  1e00032c64:	33000d02 	bfxil	w2, w8, #0, #4
  1e00032c68:	b9180422 	str	w2, [x1, #6148]
  1e00032c6c:	b9410022 	ldr	w2, [x1, #256]
  1e00032c70:	321c0042 	orr	w2, w2, #0x10
  1e00032c74:	b9010022 	str	w2, [x1, #256]
  1e00032c78:	b9410022 	ldr	w2, [x1, #256]
  1e00032c7c:	373fffe2 	tbnz	w2, #7, 1e00032c78 <cmu_top_bus+0x36c>
  1e00032c80:	d2be7c01 	mov	x1, #0xf3e00000            	// #4091543552
  1e00032c84:	52800048 	mov	w8, #0x2                   	// #2
  1e00032c88:	f2c003e1 	movk	x1, #0x1f, lsl #32
  1e00032c8c:	8b010001 	add	x1, x0, x1
  1e00032c90:	b9580022 	ldr	w2, [x1, #6144]
  1e00032c94:	121c6c42 	and	w2, w2, #0xfffffff0
  1e00032c98:	b9180022 	str	w2, [x1, #6144]
  1e00032c9c:	b9580422 	ldr	w2, [x1, #6148]
  1e00032ca0:	33000d02 	bfxil	w2, w8, #0, #4
  1e00032ca4:	b9180422 	str	w2, [x1, #6148]
  1e00032ca8:	b9410022 	ldr	w2, [x1, #256]
  1e00032cac:	321c0042 	orr	w2, w2, #0x10
  1e00032cb0:	b9010022 	str	w2, [x1, #256]
  1e00032cb4:	b9410022 	ldr	w2, [x1, #256]
  1e00032cb8:	373fffe2 	tbnz	w2, #7, 1e00032cb4 <cmu_top_bus+0x3a8>
  1e00032cbc:	d2be7402 	mov	x2, #0xf3a00000            	// #4087349248
  1e00032cc0:	f2c003e2 	movk	x2, #0x1f, lsl #32
  1e00032cc4:	8b020001 	add	x1, x0, x2
  1e00032cc8:	b8626808 	ldr	w8, [x0, x2]
  1e00032ccc:	33004c68 	bfxil	w8, w3, #0, #20
  1e00032cd0:	b8226808 	str	w8, [x0, x2]
  1e00032cd4:	b9410c22 	ldr	w2, [x1, #268]
  1e00032cd8:	33003ce2 	bfxil	w2, w7, #0, #16
  1e00032cdc:	b9010c22 	str	w2, [x1, #268]
  1e00032ce0:	b9410022 	ldr	w2, [x1, #256]
  1e00032ce4:	33181482 	bfi	w2, w4, #8, #6
  1e00032ce8:	b9010022 	str	w2, [x1, #256]
  1e00032cec:	b9410022 	ldr	w2, [x1, #256]
  1e00032cf0:	331024c2 	bfi	w2, w6, #16, #10
  1e00032cf4:	b9010022 	str	w2, [x1, #256]
  1e00032cf8:	b9410022 	ldr	w2, [x1, #256]
  1e00032cfc:	330008a2 	bfxil	w2, w5, #0, #3
  1e00032d00:	b9010022 	str	w2, [x1, #256]
  1e00032d04:	b9410022 	ldr	w2, [x1, #256]
  1e00032d08:	32010042 	orr	w2, w2, #0x80000000
  1e00032d0c:	b9010022 	str	w2, [x1, #256]
  1e00032d10:	b9410022 	ldr	w2, [x1, #256]
  1e00032d14:	36efffe2 	tbz	w2, #29, 1e00032d10 <cmu_top_bus+0x404>
  1e00032d18:	b9580022 	ldr	w2, [x1, #6144]
  1e00032d1c:	52800048 	mov	w8, #0x2                   	// #2
  1e00032d20:	121c6c42 	and	w2, w2, #0xfffffff0
  1e00032d24:	b9180022 	str	w2, [x1, #6144]
  1e00032d28:	b9580422 	ldr	w2, [x1, #6148]
  1e00032d2c:	33000d02 	bfxil	w2, w8, #0, #4
  1e00032d30:	b9180422 	str	w2, [x1, #6148]
  1e00032d34:	528000e8 	mov	w8, #0x7                   	// #7
  1e00032d38:	b9580822 	ldr	w2, [x1, #6152]
  1e00032d3c:	33000d02 	bfxil	w2, w8, #0, #4
  1e00032d40:	b9180822 	str	w2, [x1, #6152]
  1e00032d44:	b9580c22 	ldr	w2, [x1, #6156]
  1e00032d48:	33000d02 	bfxil	w2, w8, #0, #4
  1e00032d4c:	b9180c22 	str	w2, [x1, #6156]
  1e00032d50:	b9410022 	ldr	w2, [x1, #256]
  1e00032d54:	321c0042 	orr	w2, w2, #0x10
  1e00032d58:	b9010022 	str	w2, [x1, #256]
  1e00032d5c:	b9410022 	ldr	w2, [x1, #256]
  1e00032d60:	373fffe2 	tbnz	w2, #7, 1e00032d5c <cmu_top_bus+0x450>
  1e00032d64:	d2be8c01 	mov	x1, #0xf4600000            	// #4099932160
  1e00032d68:	52800048 	mov	w8, #0x2                   	// #2
  1e00032d6c:	f2c003e1 	movk	x1, #0x1f, lsl #32
  1e00032d70:	8b010001 	add	x1, x0, x1
  1e00032d74:	b9580022 	ldr	w2, [x1, #6144]
  1e00032d78:	121c6c42 	and	w2, w2, #0xfffffff0
  1e00032d7c:	b9180022 	str	w2, [x1, #6144]
  1e00032d80:	b9580422 	ldr	w2, [x1, #6148]
  1e00032d84:	33000d02 	bfxil	w2, w8, #0, #4
  1e00032d88:	b9180422 	str	w2, [x1, #6148]
  1e00032d8c:	b9410022 	ldr	w2, [x1, #256]
  1e00032d90:	321c0042 	orr	w2, w2, #0x10
  1e00032d94:	b9010022 	str	w2, [x1, #256]
  1e00032d98:	b9410022 	ldr	w2, [x1, #256]
  1e00032d9c:	373fffe2 	tbnz	w2, #7, 1e00032d98 <cmu_top_bus+0x48c>
  1e00032da0:	d2be8002 	mov	x2, #0xf4000000            	// #4093640704
  1e00032da4:	f2c003e2 	movk	x2, #0x1f, lsl #32
  1e00032da8:	8b020001 	add	x1, x0, x2
  1e00032dac:	b8626808 	ldr	w8, [x0, x2]
  1e00032db0:	33004c68 	bfxil	w8, w3, #0, #20
  1e00032db4:	b8226808 	str	w8, [x0, x2]
  1e00032db8:	b9410c20 	ldr	w0, [x1, #268]
  1e00032dbc:	33003ce0 	bfxil	w0, w7, #0, #16
  1e00032dc0:	b9010c20 	str	w0, [x1, #268]
  1e00032dc4:	b9410020 	ldr	w0, [x1, #256]
  1e00032dc8:	33181480 	bfi	w0, w4, #8, #6
  1e00032dcc:	b9010020 	str	w0, [x1, #256]
  1e00032dd0:	b9410020 	ldr	w0, [x1, #256]
  1e00032dd4:	331024c0 	bfi	w0, w6, #16, #10
  1e00032dd8:	b9010020 	str	w0, [x1, #256]
  1e00032ddc:	b9410020 	ldr	w0, [x1, #256]
  1e00032de0:	330008a0 	bfxil	w0, w5, #0, #3
  1e00032de4:	b9010020 	str	w0, [x1, #256]
  1e00032de8:	b9410020 	ldr	w0, [x1, #256]
  1e00032dec:	32010000 	orr	w0, w0, #0x80000000
  1e00032df0:	b9010020 	str	w0, [x1, #256]
  1e00032df4:	b9410020 	ldr	w0, [x1, #256]
  1e00032df8:	36efffe0 	tbz	w0, #29, 1e00032df4 <cmu_top_bus+0x4e8>
  1e00032dfc:	b9580020 	ldr	w0, [x1, #6144]
  1e00032e00:	52800042 	mov	w2, #0x2                   	// #2
  1e00032e04:	121c6c00 	and	w0, w0, #0xfffffff0
  1e00032e08:	b9180020 	str	w0, [x1, #6144]
  1e00032e0c:	b9580420 	ldr	w0, [x1, #6148]
  1e00032e10:	33000c40 	bfxil	w0, w2, #0, #4
  1e00032e14:	b9180420 	str	w0, [x1, #6148]
  1e00032e18:	b9410020 	ldr	w0, [x1, #256]
  1e00032e1c:	321c0000 	orr	w0, w0, #0x10
  1e00032e20:	b9010020 	str	w0, [x1, #256]
  1e00032e24:	b9410020 	ldr	w0, [x1, #256]
  1e00032e28:	373fffe0 	tbnz	w0, #7, 1e00032e24 <cmu_top_bus+0x518>
  1e00032e2c:	d65f03c0 	ret

0000001e00032e30 <cmu_blk_dcl_init>:
  1e00032e30:	a9bf7bfd 	stp	x29, x30, [sp, #-16]!
  1e00032e34:	d0000046 	adrp	x6, 1e0003c000 <vsnprintf+0x270>
  1e00032e38:	911a60c6 	add	x6, x6, #0x698
  1e00032e3c:	910003fd 	mov	x29, sp
  1e00032e40:	aa0003e5 	mov	x5, x0
  1e00032e44:	52800021 	mov	w1, #0x1                   	// #1
  1e00032e48:	aa0603e0 	mov	x0, x6
  1e00032e4c:	97fffda3 	bl	1e000324d8 <cmu_find_pll_lvl>
  1e00032e50:	36f80040 	tbz	w0, #31, 1e00032e58 <cmu_blk_dcl_init+0x28>
  1e00032e54:	940021eb 	bl	1e0003b600 <__assert>
  1e00032e58:	93407c00 	sxtw	x0, w0
  1e00032e5c:	d2800281 	mov	x1, #0x14                  	// #20
  1e00032e60:	b94000a3 	ldr	w3, [x5]
  1e00032e64:	9b011800 	madd	x0, x0, x1, x6
  1e00032e68:	52803e81 	mov	w1, #0x1f4                 	// #500
  1e00032e6c:	b9400402 	ldr	w2, [x0, #4]
  1e00032e70:	79402006 	ldrh	w6, [x0, #16]
  1e00032e74:	1b017c41 	mul	w1, w2, w1
  1e00032e78:	12001442 	and	w2, w2, #0x3f
  1e00032e7c:	121e4421 	and	w1, w1, #0xffffc
  1e00032e80:	33004c23 	bfxil	w3, w1, #0, #20
  1e00032e84:	b90000a3 	str	w3, [x5]
  1e00032e88:	b9410ca3 	ldr	w3, [x5, #268]
  1e00032e8c:	33003cc3 	bfxil	w3, w6, #0, #16
  1e00032e90:	b9010ca3 	str	w3, [x5, #268]
  1e00032e94:	b94100a3 	ldr	w3, [x5, #256]
  1e00032e98:	33181443 	bfi	w3, w2, #8, #6
  1e00032e9c:	b90100a3 	str	w3, [x5, #256]
  1e00032ea0:	29410003 	ldp	w3, w0, [x0, #8]
  1e00032ea4:	b94100a4 	ldr	w4, [x5, #256]
  1e00032ea8:	12002463 	and	w3, w3, #0x3ff
  1e00032eac:	12000800 	and	w0, w0, #0x7
  1e00032eb0:	33102464 	bfi	w4, w3, #16, #10
  1e00032eb4:	b90100a4 	str	w4, [x5, #256]
  1e00032eb8:	b94100a4 	ldr	w4, [x5, #256]
  1e00032ebc:	33000804 	bfxil	w4, w0, #0, #3
  1e00032ec0:	b90100a4 	str	w4, [x5, #256]
  1e00032ec4:	b94100a4 	ldr	w4, [x5, #256]
  1e00032ec8:	32010084 	orr	w4, w4, #0x80000000
  1e00032ecc:	b90100a4 	str	w4, [x5, #256]
  1e00032ed0:	b94100a4 	ldr	w4, [x5, #256]
  1e00032ed4:	36efffe4 	tbz	w4, #29, 1e00032ed0 <cmu_blk_dcl_init+0xa0>
  1e00032ed8:	b94004a4 	ldr	w4, [x5, #4]
  1e00032edc:	33004c24 	bfxil	w4, w1, #0, #20
  1e00032ee0:	b90004a4 	str	w4, [x5, #4]
  1e00032ee4:	b94120a1 	ldr	w1, [x5, #288]
  1e00032ee8:	33003cc1 	bfxil	w1, w6, #0, #16
  1e00032eec:	b90120a1 	str	w1, [x5, #288]
  1e00032ef0:	b94114a1 	ldr	w1, [x5, #276]
  1e00032ef4:	33181441 	bfi	w1, w2, #8, #6
  1e00032ef8:	b90114a1 	str	w1, [x5, #276]
  1e00032efc:	b94114a1 	ldr	w1, [x5, #276]
  1e00032f00:	33102461 	bfi	w1, w3, #16, #10
  1e00032f04:	b90114a1 	str	w1, [x5, #276]
  1e00032f08:	b94114a1 	ldr	w1, [x5, #276]
  1e00032f0c:	33000801 	bfxil	w1, w0, #0, #3
  1e00032f10:	b90114a1 	str	w1, [x5, #276]
  1e00032f14:	b94114a0 	ldr	w0, [x5, #276]
  1e00032f18:	32010000 	orr	w0, w0, #0x80000000
  1e00032f1c:	b90114a0 	str	w0, [x5, #276]
  1e00032f20:	b94114a0 	ldr	w0, [x5, #276]
  1e00032f24:	36efffe0 	tbz	w0, #29, 1e00032f20 <cmu_blk_dcl_init+0xf0>
  1e00032f28:	b9581ca1 	ldr	w1, [x5, #6172]
  1e00032f2c:	52800020 	mov	w0, #0x1                   	// #1
  1e00032f30:	528000e3 	mov	w3, #0x7                   	// #7
  1e00032f34:	33000c01 	bfxil	w1, w0, #0, #4
  1e00032f38:	b9181ca1 	str	w1, [x5, #6172]
  1e00032f3c:	52800061 	mov	w1, #0x3                   	// #3
  1e00032f40:	b95700a2 	ldr	w2, [x5, #5888]
  1e00032f44:	33000c22 	bfxil	w2, w1, #0, #4
  1e00032f48:	b91700a2 	str	w2, [x5, #5888]
  1e00032f4c:	b95800a2 	ldr	w2, [x5, #6144]
  1e00032f50:	121c6c42 	and	w2, w2, #0xfffffff0
  1e00032f54:	b91800a2 	str	w2, [x5, #6144]
  1e00032f58:	b95704a2 	ldr	w2, [x5, #5892]
  1e00032f5c:	33000c02 	bfxil	w2, w0, #0, #4
  1e00032f60:	b91704a2 	str	w2, [x5, #5892]
  1e00032f64:	b95808a2 	ldr	w2, [x5, #6152]
  1e00032f68:	121c6c42 	and	w2, w2, #0xfffffff0
  1e00032f6c:	b91808a2 	str	w2, [x5, #6152]
  1e00032f70:	b95708a2 	ldr	w2, [x5, #5896]
  1e00032f74:	33000c02 	bfxil	w2, w0, #0, #4
  1e00032f78:	b91708a2 	str	w2, [x5, #5896]
  1e00032f7c:	b9580ca2 	ldr	w2, [x5, #6156]
  1e00032f80:	121c6c42 	and	w2, w2, #0xfffffff0
  1e00032f84:	b9180ca2 	str	w2, [x5, #6156]
  1e00032f88:	b9570ca2 	ldr	w2, [x5, #5900]
  1e00032f8c:	33000c02 	bfxil	w2, w0, #0, #4
  1e00032f90:	b9170ca2 	str	w2, [x5, #5900]
  1e00032f94:	b95810a2 	ldr	w2, [x5, #6160]
  1e00032f98:	121c6c42 	and	w2, w2, #0xfffffff0
  1e00032f9c:	b91810a2 	str	w2, [x5, #6160]
  1e00032fa0:	b95710a2 	ldr	w2, [x5, #5904]
  1e00032fa4:	33000c02 	bfxil	w2, w0, #0, #4
  1e00032fa8:	b91710a2 	str	w2, [x5, #5904]
  1e00032fac:	b95814a2 	ldr	w2, [x5, #6164]
  1e00032fb0:	121c6c42 	and	w2, w2, #0xfffffff0
  1e00032fb4:	b91814a2 	str	w2, [x5, #6164]
  1e00032fb8:	b95714a2 	ldr	w2, [x5, #5908]
  1e00032fbc:	33000c02 	bfxil	w2, w0, #0, #4
  1e00032fc0:	b91714a2 	str	w2, [x5, #5908]
  1e00032fc4:	b95818a2 	ldr	w2, [x5, #6168]
  1e00032fc8:	121c6c42 	and	w2, w2, #0xfffffff0
  1e00032fcc:	b91818a2 	str	w2, [x5, #6168]
  1e00032fd0:	b95718a2 	ldr	w2, [x5, #5912]
  1e00032fd4:	33000c02 	bfxil	w2, w0, #0, #4
  1e00032fd8:	b91718a2 	str	w2, [x5, #5912]
  1e00032fdc:	b9582ca2 	ldr	w2, [x5, #6188]
  1e00032fe0:	121c6c42 	and	w2, w2, #0xfffffff0
  1e00032fe4:	b9182ca2 	str	w2, [x5, #6188]
  1e00032fe8:	b95724a2 	ldr	w2, [x5, #5924]
  1e00032fec:	33000c02 	bfxil	w2, w0, #0, #4
  1e00032ff0:	b91724a2 	str	w2, [x5, #5924]
  1e00032ff4:	b95830a2 	ldr	w2, [x5, #6192]
  1e00032ff8:	121c6c42 	and	w2, w2, #0xfffffff0
  1e00032ffc:	b91830a2 	str	w2, [x5, #6192]
  1e00033000:	b95728a2 	ldr	w2, [x5, #5928]
  1e00033004:	33000c02 	bfxil	w2, w0, #0, #4
  1e00033008:	b91728a2 	str	w2, [x5, #5928]
  1e0003300c:	b95834a2 	ldr	w2, [x5, #6196]
  1e00033010:	121c6c42 	and	w2, w2, #0xfffffff0
  1e00033014:	b91834a2 	str	w2, [x5, #6196]
  1e00033018:	b9572ca2 	ldr	w2, [x5, #5932]
  1e0003301c:	33000c02 	bfxil	w2, w0, #0, #4
  1e00033020:	b9172ca2 	str	w2, [x5, #5932]
  1e00033024:	b95838a2 	ldr	w2, [x5, #6200]
  1e00033028:	121c6c42 	and	w2, w2, #0xfffffff0
  1e0003302c:	b91838a2 	str	w2, [x5, #6200]
  1e00033030:	b95730a2 	ldr	w2, [x5, #5936]
  1e00033034:	33000c02 	bfxil	w2, w0, #0, #4
  1e00033038:	b91730a2 	str	w2, [x5, #5936]
  1e0003303c:	b9583ca2 	ldr	w2, [x5, #6204]
  1e00033040:	121c6c42 	and	w2, w2, #0xfffffff0
  1e00033044:	b9183ca2 	str	w2, [x5, #6204]
  1e00033048:	b95734a2 	ldr	w2, [x5, #5940]
  1e0003304c:	33000c02 	bfxil	w2, w0, #0, #4
  1e00033050:	b91734a2 	str	w2, [x5, #5940]
  1e00033054:	b95804a2 	ldr	w2, [x5, #6148]
  1e00033058:	33000c22 	bfxil	w2, w1, #0, #4
  1e0003305c:	b91804a2 	str	w2, [x5, #6148]
  1e00033060:	b9571ca2 	ldr	w2, [x5, #5916]
  1e00033064:	33000c62 	bfxil	w2, w3, #0, #4
  1e00033068:	b9171ca2 	str	w2, [x5, #5916]
  1e0003306c:	b95824a2 	ldr	w2, [x5, #6180]
  1e00033070:	33000c02 	bfxil	w2, w0, #0, #4
  1e00033074:	b91824a2 	str	w2, [x5, #6180]
  1e00033078:	b95720a0 	ldr	w0, [x5, #5920]
  1e0003307c:	33000c20 	bfxil	w0, w1, #0, #4
  1e00033080:	b91720a0 	str	w0, [x5, #5920]
  1e00033084:	52800101 	mov	w1, #0x8                   	// #8
  1e00033088:	b95828a0 	ldr	w0, [x5, #6184]
  1e0003308c:	33001020 	bfxil	w0, w1, #0, #5
  1e00033090:	b91828a0 	str	w0, [x5, #6184]
  1e00033094:	52800081 	mov	w1, #0x4                   	// #4
  1e00033098:	b95820a0 	ldr	w0, [x5, #6176]
  1e0003309c:	33000c20 	bfxil	w0, w1, #0, #4
  1e000330a0:	b91820a0 	str	w0, [x5, #6176]
  1e000330a4:	b95000a0 	ldr	w0, [x5, #4096]
  1e000330a8:	121f7800 	and	w0, w0, #0xfffffffe
  1e000330ac:	b91000a0 	str	w0, [x5, #4096]
  1e000330b0:	b95000a0 	ldr	w0, [x5, #4096]
  1e000330b4:	3787ffe0 	tbnz	w0, #16, 1e000330b0 <cmu_blk_dcl_init+0x280>
  1e000330b8:	b94100a0 	ldr	w0, [x5, #256]
  1e000330bc:	321c0000 	orr	w0, w0, #0x10
  1e000330c0:	b90100a0 	str	w0, [x5, #256]
  1e000330c4:	b94100a0 	ldr	w0, [x5, #256]
  1e000330c8:	373fffe0 	tbnz	w0, #7, 1e000330c4 <cmu_blk_dcl_init+0x294>
  1e000330cc:	b94114a0 	ldr	w0, [x5, #276]
  1e000330d0:	321c0000 	orr	w0, w0, #0x10
  1e000330d4:	b90114a0 	str	w0, [x5, #276]
  1e000330d8:	b94114a0 	ldr	w0, [x5, #276]
  1e000330dc:	373fffe0 	tbnz	w0, #7, 1e000330d8 <cmu_blk_dcl_init+0x2a8>
  1e000330e0:	a8c17bfd 	ldp	x29, x30, [sp], #16
  1e000330e4:	d65f03c0 	ret

0000001e000330e8 <cmu_blk_dram_init_evt0>:
  1e000330e8:	2a0103e1 	mov	w1, w1
  1e000330ec:	b0000042 	adrp	x2, 1e0003c000 <vsnprintf+0x270>
  1e000330f0:	9118d042 	add	x2, x2, #0x634
  1e000330f4:	d2800283 	mov	x3, #0x14                  	// #20
  1e000330f8:	b9400004 	ldr	w4, [x0]
  1e000330fc:	9b030821 	madd	x1, x1, x3, x2
  1e00033100:	52803e82 	mov	w2, #0x1f4                 	// #500
  1e00033104:	b9400423 	ldr	w3, [x1, #4]
  1e00033108:	79402026 	ldrh	w6, [x1, #16]
  1e0003310c:	1b027c62 	mul	w2, w3, w2
  1e00033110:	12001463 	and	w3, w3, #0x3f
  1e00033114:	121e4442 	and	w2, w2, #0xffffc
  1e00033118:	33004c44 	bfxil	w4, w2, #0, #20
  1e0003311c:	b9000004 	str	w4, [x0]
  1e00033120:	b9410c04 	ldr	w4, [x0, #268]
  1e00033124:	33003cc4 	bfxil	w4, w6, #0, #16
  1e00033128:	b9010c04 	str	w4, [x0, #268]
  1e0003312c:	b9410004 	ldr	w4, [x0, #256]
  1e00033130:	33181464 	bfi	w4, w3, #8, #6
  1e00033134:	b9010004 	str	w4, [x0, #256]
  1e00033138:	29410424 	ldp	w4, w1, [x1, #8]
  1e0003313c:	b9410005 	ldr	w5, [x0, #256]
  1e00033140:	12002484 	and	w4, w4, #0x3ff
  1e00033144:	12000821 	and	w1, w1, #0x7
  1e00033148:	33102485 	bfi	w5, w4, #16, #10
  1e0003314c:	b9010005 	str	w5, [x0, #256]
  1e00033150:	b9410005 	ldr	w5, [x0, #256]
  1e00033154:	33000825 	bfxil	w5, w1, #0, #3
  1e00033158:	b9010005 	str	w5, [x0, #256]
  1e0003315c:	b9410005 	ldr	w5, [x0, #256]
  1e00033160:	320100a5 	orr	w5, w5, #0x80000000
  1e00033164:	b9010005 	str	w5, [x0, #256]
  1e00033168:	b9410005 	ldr	w5, [x0, #256]
  1e0003316c:	36efffe5 	tbz	w5, #29, 1e00033168 <cmu_blk_dram_init_evt0+0x80>
  1e00033170:	b9400405 	ldr	w5, [x0, #4]
  1e00033174:	33004c45 	bfxil	w5, w2, #0, #20
  1e00033178:	b9000405 	str	w5, [x0, #4]
  1e0003317c:	b9412005 	ldr	w5, [x0, #288]
  1e00033180:	33003cc5 	bfxil	w5, w6, #0, #16
  1e00033184:	b9012005 	str	w5, [x0, #288]
  1e00033188:	b9411405 	ldr	w5, [x0, #276]
  1e0003318c:	33181465 	bfi	w5, w3, #8, #6
  1e00033190:	b9011405 	str	w5, [x0, #276]
  1e00033194:	b9411405 	ldr	w5, [x0, #276]
  1e00033198:	33102485 	bfi	w5, w4, #16, #10
  1e0003319c:	b9011405 	str	w5, [x0, #276]
  1e000331a0:	b9411405 	ldr	w5, [x0, #276]
  1e000331a4:	33000825 	bfxil	w5, w1, #0, #3
  1e000331a8:	b9011405 	str	w5, [x0, #276]
  1e000331ac:	b9411405 	ldr	w5, [x0, #276]
  1e000331b0:	320100a5 	orr	w5, w5, #0x80000000
  1e000331b4:	b9011405 	str	w5, [x0, #276]
  1e000331b8:	b9411405 	ldr	w5, [x0, #276]
  1e000331bc:	36efffe5 	tbz	w5, #29, 1e000331b8 <cmu_blk_dram_init_evt0+0xd0>
  1e000331c0:	b9400805 	ldr	w5, [x0, #8]
  1e000331c4:	33004c45 	bfxil	w5, w2, #0, #20
  1e000331c8:	b9000805 	str	w5, [x0, #8]
  1e000331cc:	b9413405 	ldr	w5, [x0, #308]
  1e000331d0:	33003cc5 	bfxil	w5, w6, #0, #16
  1e000331d4:	b9013405 	str	w5, [x0, #308]
  1e000331d8:	b9412805 	ldr	w5, [x0, #296]
  1e000331dc:	33181465 	bfi	w5, w3, #8, #6
  1e000331e0:	b9012805 	str	w5, [x0, #296]
  1e000331e4:	b9412805 	ldr	w5, [x0, #296]
  1e000331e8:	33102485 	bfi	w5, w4, #16, #10
  1e000331ec:	b9012805 	str	w5, [x0, #296]
  1e000331f0:	b9412805 	ldr	w5, [x0, #296]
  1e000331f4:	33000825 	bfxil	w5, w1, #0, #3
  1e000331f8:	b9012805 	str	w5, [x0, #296]
  1e000331fc:	b9412805 	ldr	w5, [x0, #296]
  1e00033200:	320100a5 	orr	w5, w5, #0x80000000
  1e00033204:	b9012805 	str	w5, [x0, #296]
  1e00033208:	b9412805 	ldr	w5, [x0, #296]
  1e0003320c:	36efffe5 	tbz	w5, #29, 1e00033208 <cmu_blk_dram_init_evt0+0x120>
  1e00033210:	b9400c05 	ldr	w5, [x0, #12]
  1e00033214:	33004c45 	bfxil	w5, w2, #0, #20
  1e00033218:	b9000c05 	str	w5, [x0, #12]
  1e0003321c:	b9414802 	ldr	w2, [x0, #328]
  1e00033220:	33003cc2 	bfxil	w2, w6, #0, #16
  1e00033224:	b9014802 	str	w2, [x0, #328]
  1e00033228:	b9413c02 	ldr	w2, [x0, #316]
  1e0003322c:	33181462 	bfi	w2, w3, #8, #6
  1e00033230:	b9013c02 	str	w2, [x0, #316]
  1e00033234:	b9413c02 	ldr	w2, [x0, #316]
  1e00033238:	33102482 	bfi	w2, w4, #16, #10
  1e0003323c:	b9013c02 	str	w2, [x0, #316]
  1e00033240:	b9413c02 	ldr	w2, [x0, #316]
  1e00033244:	33000822 	bfxil	w2, w1, #0, #3
  1e00033248:	b9013c02 	str	w2, [x0, #316]
  1e0003324c:	b9413c01 	ldr	w1, [x0, #316]
  1e00033250:	32010021 	orr	w1, w1, #0x80000000
  1e00033254:	b9013c01 	str	w1, [x0, #316]
  1e00033258:	b9413c01 	ldr	w1, [x0, #316]
  1e0003325c:	36efffe1 	tbz	w1, #29, 1e00033258 <cmu_blk_dram_init_evt0+0x170>
  1e00033260:	b9580002 	ldr	w2, [x0, #6144]
  1e00033264:	52800021 	mov	w1, #0x1                   	// #1
  1e00033268:	33000c22 	bfxil	w2, w1, #0, #4
  1e0003326c:	b9180002 	str	w2, [x0, #6144]
  1e00033270:	b9580802 	ldr	w2, [x0, #6152]
  1e00033274:	33000c22 	bfxil	w2, w1, #0, #4
  1e00033278:	b9180802 	str	w2, [x0, #6152]
  1e0003327c:	b9581002 	ldr	w2, [x0, #6160]
  1e00033280:	33000c22 	bfxil	w2, w1, #0, #4
  1e00033284:	b9181002 	str	w2, [x0, #6160]
  1e00033288:	b9581802 	ldr	w2, [x0, #6168]
  1e0003328c:	33000c22 	bfxil	w2, w1, #0, #4
  1e00033290:	b9181802 	str	w2, [x0, #6168]
  1e00033294:	528000e2 	mov	w2, #0x7                   	// #7
  1e00033298:	b9580403 	ldr	w3, [x0, #6148]
  1e0003329c:	33000c43 	bfxil	w3, w2, #0, #4
  1e000332a0:	b9180403 	str	w3, [x0, #6148]
  1e000332a4:	b9580c03 	ldr	w3, [x0, #6156]
  1e000332a8:	33000c43 	bfxil	w3, w2, #0, #4
  1e000332ac:	b9180c03 	str	w3, [x0, #6156]
  1e000332b0:	b9581403 	ldr	w3, [x0, #6164]
  1e000332b4:	33000c43 	bfxil	w3, w2, #0, #4
  1e000332b8:	b9181403 	str	w3, [x0, #6164]
  1e000332bc:	b9581c03 	ldr	w3, [x0, #6172]
  1e000332c0:	33000c43 	bfxil	w3, w2, #0, #4
  1e000332c4:	b9181c03 	str	w3, [x0, #6172]
  1e000332c8:	b9586002 	ldr	w2, [x0, #6240]
  1e000332cc:	33000c22 	bfxil	w2, w1, #0, #4
  1e000332d0:	b9186002 	str	w2, [x0, #6240]
  1e000332d4:	b9410001 	ldr	w1, [x0, #256]
  1e000332d8:	321c0021 	orr	w1, w1, #0x10
  1e000332dc:	b9010001 	str	w1, [x0, #256]
  1e000332e0:	b9410001 	ldr	w1, [x0, #256]
  1e000332e4:	373fffe1 	tbnz	w1, #7, 1e000332e0 <cmu_blk_dram_init_evt0+0x1f8>
  1e000332e8:	b9411401 	ldr	w1, [x0, #276]
  1e000332ec:	321c0021 	orr	w1, w1, #0x10
  1e000332f0:	b9011401 	str	w1, [x0, #276]
  1e000332f4:	b9411401 	ldr	w1, [x0, #276]
  1e000332f8:	373fffe1 	tbnz	w1, #7, 1e000332f4 <cmu_blk_dram_init_evt0+0x20c>
  1e000332fc:	b9412801 	ldr	w1, [x0, #296]
  1e00033300:	321c0021 	orr	w1, w1, #0x10
  1e00033304:	b9012801 	str	w1, [x0, #296]
  1e00033308:	b9412801 	ldr	w1, [x0, #296]
  1e0003330c:	373fffe1 	tbnz	w1, #7, 1e00033308 <cmu_blk_dram_init_evt0+0x220>
  1e00033310:	b9413c01 	ldr	w1, [x0, #316]
  1e00033314:	321c0021 	orr	w1, w1, #0x10
  1e00033318:	b9013c01 	str	w1, [x0, #316]
  1e0003331c:	b9413c01 	ldr	w1, [x0, #316]
  1e00033320:	373fffe1 	tbnz	w1, #7, 1e0003331c <cmu_blk_dram_init_evt0+0x234>
  1e00033324:	d65f03c0 	ret

0000001e00033328 <cmu_blk_dram_init_evt1>:
  1e00033328:	2a0103e1 	mov	w1, w1
  1e0003332c:	b0000042 	adrp	x2, 1e0003c000 <vsnprintf+0x270>
  1e00033330:	9118d042 	add	x2, x2, #0x634
  1e00033334:	d2800283 	mov	x3, #0x14                  	// #20
  1e00033338:	b9400004 	ldr	w4, [x0]
  1e0003333c:	9b030821 	madd	x1, x1, x3, x2
  1e00033340:	52803e82 	mov	w2, #0x1f4                 	// #500
  1e00033344:	b9400423 	ldr	w3, [x1, #4]
  1e00033348:	79402026 	ldrh	w6, [x1, #16]
  1e0003334c:	1b027c62 	mul	w2, w3, w2
  1e00033350:	12001463 	and	w3, w3, #0x3f
  1e00033354:	121e4442 	and	w2, w2, #0xffffc
  1e00033358:	33004c44 	bfxil	w4, w2, #0, #20
  1e0003335c:	b9000004 	str	w4, [x0]
  1e00033360:	b9410c04 	ldr	w4, [x0, #268]
  1e00033364:	33003cc4 	bfxil	w4, w6, #0, #16
  1e00033368:	b9010c04 	str	w4, [x0, #268]
  1e0003336c:	b9410004 	ldr	w4, [x0, #256]
  1e00033370:	33181464 	bfi	w4, w3, #8, #6
  1e00033374:	b9010004 	str	w4, [x0, #256]
  1e00033378:	29410424 	ldp	w4, w1, [x1, #8]
  1e0003337c:	b9410005 	ldr	w5, [x0, #256]
  1e00033380:	12002484 	and	w4, w4, #0x3ff
  1e00033384:	12000821 	and	w1, w1, #0x7
  1e00033388:	33102485 	bfi	w5, w4, #16, #10
  1e0003338c:	b9010005 	str	w5, [x0, #256]
  1e00033390:	b9410005 	ldr	w5, [x0, #256]
  1e00033394:	33000825 	bfxil	w5, w1, #0, #3
  1e00033398:	b9010005 	str	w5, [x0, #256]
  1e0003339c:	b9410005 	ldr	w5, [x0, #256]
  1e000333a0:	320100a5 	orr	w5, w5, #0x80000000
  1e000333a4:	b9010005 	str	w5, [x0, #256]
  1e000333a8:	b9410005 	ldr	w5, [x0, #256]
  1e000333ac:	36efffe5 	tbz	w5, #29, 1e000333a8 <cmu_blk_dram_init_evt1+0x80>
  1e000333b0:	b9400405 	ldr	w5, [x0, #4]
  1e000333b4:	33004c45 	bfxil	w5, w2, #0, #20
  1e000333b8:	b9000405 	str	w5, [x0, #4]
  1e000333bc:	b9412005 	ldr	w5, [x0, #288]
  1e000333c0:	33003cc5 	bfxil	w5, w6, #0, #16
  1e000333c4:	b9012005 	str	w5, [x0, #288]
  1e000333c8:	b9411405 	ldr	w5, [x0, #276]
  1e000333cc:	33181465 	bfi	w5, w3, #8, #6
  1e000333d0:	b9011405 	str	w5, [x0, #276]
  1e000333d4:	b9411405 	ldr	w5, [x0, #276]
  1e000333d8:	33102485 	bfi	w5, w4, #16, #10
  1e000333dc:	b9011405 	str	w5, [x0, #276]
  1e000333e0:	b9411405 	ldr	w5, [x0, #276]
  1e000333e4:	33000825 	bfxil	w5, w1, #0, #3
  1e000333e8:	b9011405 	str	w5, [x0, #276]
  1e000333ec:	b9411405 	ldr	w5, [x0, #276]
  1e000333f0:	320100a5 	orr	w5, w5, #0x80000000
  1e000333f4:	b9011405 	str	w5, [x0, #276]
  1e000333f8:	b9411405 	ldr	w5, [x0, #276]
  1e000333fc:	36efffe5 	tbz	w5, #29, 1e000333f8 <cmu_blk_dram_init_evt1+0xd0>
  1e00033400:	b9400805 	ldr	w5, [x0, #8]
  1e00033404:	33004c45 	bfxil	w5, w2, #0, #20
  1e00033408:	b9000805 	str	w5, [x0, #8]
  1e0003340c:	b9413405 	ldr	w5, [x0, #308]
  1e00033410:	33003cc5 	bfxil	w5, w6, #0, #16
  1e00033414:	b9013405 	str	w5, [x0, #308]
  1e00033418:	b9412805 	ldr	w5, [x0, #296]
  1e0003341c:	33181465 	bfi	w5, w3, #8, #6
  1e00033420:	b9012805 	str	w5, [x0, #296]
  1e00033424:	b9412805 	ldr	w5, [x0, #296]
  1e00033428:	33102485 	bfi	w5, w4, #16, #10
  1e0003342c:	b9012805 	str	w5, [x0, #296]
  1e00033430:	b9412805 	ldr	w5, [x0, #296]
  1e00033434:	33000825 	bfxil	w5, w1, #0, #3
  1e00033438:	b9012805 	str	w5, [x0, #296]
  1e0003343c:	b9412805 	ldr	w5, [x0, #296]
  1e00033440:	320100a5 	orr	w5, w5, #0x80000000
  1e00033444:	b9012805 	str	w5, [x0, #296]
  1e00033448:	b9412805 	ldr	w5, [x0, #296]
  1e0003344c:	36efffe5 	tbz	w5, #29, 1e00033448 <cmu_blk_dram_init_evt1+0x120>
  1e00033450:	b9400c05 	ldr	w5, [x0, #12]
  1e00033454:	33004c45 	bfxil	w5, w2, #0, #20
  1e00033458:	b9000c05 	str	w5, [x0, #12]
  1e0003345c:	b9414802 	ldr	w2, [x0, #328]
  1e00033460:	33003cc2 	bfxil	w2, w6, #0, #16
  1e00033464:	b9014802 	str	w2, [x0, #328]
  1e00033468:	b9413c02 	ldr	w2, [x0, #316]
  1e0003346c:	33181462 	bfi	w2, w3, #8, #6
  1e00033470:	b9013c02 	str	w2, [x0, #316]
  1e00033474:	b9413c02 	ldr	w2, [x0, #316]
  1e00033478:	33102482 	bfi	w2, w4, #16, #10
  1e0003347c:	b9013c02 	str	w2, [x0, #316]
  1e00033480:	b9413c02 	ldr	w2, [x0, #316]
  1e00033484:	33000822 	bfxil	w2, w1, #0, #3
  1e00033488:	b9013c02 	str	w2, [x0, #316]
  1e0003348c:	b9413c01 	ldr	w1, [x0, #316]
  1e00033490:	32010021 	orr	w1, w1, #0x80000000
  1e00033494:	b9013c01 	str	w1, [x0, #316]
  1e00033498:	b9413c01 	ldr	w1, [x0, #316]
  1e0003349c:	36efffe1 	tbz	w1, #29, 1e00033498 <cmu_blk_dram_init_evt1+0x170>
  1e000334a0:	b9580001 	ldr	w1, [x0, #6144]
  1e000334a4:	121c6c21 	and	w1, w1, #0xfffffff0
  1e000334a8:	b9180001 	str	w1, [x0, #6144]
  1e000334ac:	b9580801 	ldr	w1, [x0, #6152]
  1e000334b0:	121c6c21 	and	w1, w1, #0xfffffff0
  1e000334b4:	b9180801 	str	w1, [x0, #6152]
  1e000334b8:	b9581001 	ldr	w1, [x0, #6160]
  1e000334bc:	121c6c21 	and	w1, w1, #0xfffffff0
  1e000334c0:	b9181001 	str	w1, [x0, #6160]
  1e000334c4:	b9581801 	ldr	w1, [x0, #6168]
  1e000334c8:	121c6c21 	and	w1, w1, #0xfffffff0
  1e000334cc:	b9181801 	str	w1, [x0, #6168]
  1e000334d0:	52800061 	mov	w1, #0x3                   	// #3
  1e000334d4:	b9580402 	ldr	w2, [x0, #6148]
  1e000334d8:	33000c22 	bfxil	w2, w1, #0, #4
  1e000334dc:	b9180402 	str	w2, [x0, #6148]
  1e000334e0:	b9580c02 	ldr	w2, [x0, #6156]
  1e000334e4:	33000c22 	bfxil	w2, w1, #0, #4
  1e000334e8:	b9180c02 	str	w2, [x0, #6156]
  1e000334ec:	b9581402 	ldr	w2, [x0, #6164]
  1e000334f0:	33000c22 	bfxil	w2, w1, #0, #4
  1e000334f4:	b9181402 	str	w2, [x0, #6164]
  1e000334f8:	b9581c02 	ldr	w2, [x0, #6172]
  1e000334fc:	33000c22 	bfxil	w2, w1, #0, #4
  1e00033500:	b9181c02 	str	w2, [x0, #6172]
  1e00033504:	52800022 	mov	w2, #0x1                   	// #1
  1e00033508:	b9586001 	ldr	w1, [x0, #6240]
  1e0003350c:	33000c41 	bfxil	w1, w2, #0, #4
  1e00033510:	b9186001 	str	w1, [x0, #6240]
  1e00033514:	b9410001 	ldr	w1, [x0, #256]
  1e00033518:	321c0021 	orr	w1, w1, #0x10
  1e0003351c:	b9010001 	str	w1, [x0, #256]
  1e00033520:	b9410001 	ldr	w1, [x0, #256]
  1e00033524:	373fffe1 	tbnz	w1, #7, 1e00033520 <cmu_blk_dram_init_evt1+0x1f8>
  1e00033528:	b9411401 	ldr	w1, [x0, #276]
  1e0003352c:	321c0021 	orr	w1, w1, #0x10
  1e00033530:	b9011401 	str	w1, [x0, #276]
  1e00033534:	b9411401 	ldr	w1, [x0, #276]
  1e00033538:	373fffe1 	tbnz	w1, #7, 1e00033534 <cmu_blk_dram_init_evt1+0x20c>
  1e0003353c:	b9412801 	ldr	w1, [x0, #296]
  1e00033540:	321c0021 	orr	w1, w1, #0x10
  1e00033544:	b9012801 	str	w1, [x0, #296]
  1e00033548:	b9412801 	ldr	w1, [x0, #296]
  1e0003354c:	373fffe1 	tbnz	w1, #7, 1e00033548 <cmu_blk_dram_init_evt1+0x220>
  1e00033550:	b9413c01 	ldr	w1, [x0, #316]
  1e00033554:	321c0021 	orr	w1, w1, #0x10
  1e00033558:	b9013c01 	str	w1, [x0, #316]
  1e0003355c:	b9413c01 	ldr	w1, [x0, #316]
  1e00033560:	373fffe1 	tbnz	w1, #7, 1e0003355c <cmu_blk_dram_init_evt1+0x234>
  1e00033564:	d65f03c0 	ret

0000001e00033568 <cmu_blk_dram_init_evt0_by_freq>:
  1e00033568:	a9bf7bfd 	stp	x29, x30, [sp, #-16]!
  1e0003356c:	aa0003e5 	mov	x5, x0
  1e00033570:	b0000040 	adrp	x0, 1e0003c000 <vsnprintf+0x270>
  1e00033574:	910003fd 	mov	x29, sp
  1e00033578:	9118d000 	add	x0, x0, #0x634
  1e0003357c:	97fffbd7 	bl	1e000324d8 <cmu_find_pll_lvl>
  1e00033580:	36f80040 	tbz	w0, #31, 1e00033588 <cmu_blk_dram_init_evt0_by_freq+0x20>
  1e00033584:	9400201f 	bl	1e0003b600 <__assert>
  1e00033588:	a8c17bfd 	ldp	x29, x30, [sp], #16
  1e0003358c:	2a0003e1 	mov	w1, w0
  1e00033590:	aa0503e0 	mov	x0, x5
  1e00033594:	17fffed5 	b	1e000330e8 <cmu_blk_dram_init_evt0>

0000001e00033598 <cmu_blk_dram_init_evt1_by_freq>:
  1e00033598:	a9bf7bfd 	stp	x29, x30, [sp, #-16]!
  1e0003359c:	aa0003e5 	mov	x5, x0
  1e000335a0:	b0000040 	adrp	x0, 1e0003c000 <vsnprintf+0x270>
  1e000335a4:	910003fd 	mov	x29, sp
  1e000335a8:	9118d000 	add	x0, x0, #0x634
  1e000335ac:	97fffbcb 	bl	1e000324d8 <cmu_find_pll_lvl>
  1e000335b0:	36f80040 	tbz	w0, #31, 1e000335b8 <cmu_blk_dram_init_evt1_by_freq+0x20>
  1e000335b4:	94002013 	bl	1e0003b600 <__assert>
  1e000335b8:	a8c17bfd 	ldp	x29, x30, [sp], #16
  1e000335bc:	2a0003e1 	mov	w1, w0
  1e000335c0:	aa0503e0 	mov	x0, x5
  1e000335c4:	17ffff59 	b	1e00033328 <cmu_blk_dram_init_evt1>

0000001e000335c8 <cmu_init_bl2>:
  1e000335c8:	a9be7bfd 	stp	x29, x30, [sp, #-32]!
  1e000335cc:	d2820289 	mov	x9, #0x1014                	// #4116
  1e000335d0:	f2a004a9 	movk	x9, #0x25, lsl #16
  1e000335d4:	910003fd 	mov	x29, sp
  1e000335d8:	a90153f3 	stp	x19, x20, [sp, #16]
  1e000335dc:	f2c003c9 	movk	x9, #0x1e, lsl #32
  1e000335e0:	aa0003f3 	mov	x19, x0
  1e000335e4:	b4000400 	cbz	x0, 1e00033664 <cmu_init_bl2+0x9c>
  1e000335e8:	d2be2004 	mov	x4, #0xf1000000            	// #4043309056
  1e000335ec:	f2c003e4 	movk	x4, #0x1f, lsl #32
  1e000335f0:	8b040000 	add	x0, x0, x4
  1e000335f4:	97fffbc6 	bl	1e0003250c <cmu_blk_cp_init>
  1e000335f8:	d1780080 	sub	x0, x4, #0xe00, lsl #12
  1e000335fc:	8b000260 	add	x0, x19, x0
  1e00033600:	97fffc6b 	bl	1e000327ac <cmu_blk_rot_init>
  1e00033604:	d2bf2000 	mov	x0, #0xf9000000            	// #4177526784
  1e00033608:	f2c003e0 	movk	x0, #0x1f, lsl #32
  1e0003360c:	8b000260 	add	x0, x19, x0
  1e00033610:	97fffc9d 	bl	1e00032884 <cmu_blk_peri_init>
  1e00033614:	b0000040 	adrp	x0, 1e0003c000 <vsnprintf+0x270>
  1e00033618:	52800021 	mov	w1, #0x1                   	// #1
  1e0003361c:	911a6000 	add	x0, x0, #0x698
  1e00033620:	97fffbae 	bl	1e000324d8 <cmu_find_pll_lvl>
  1e00033624:	2a0003e1 	mov	w1, w0
  1e00033628:	36f80040 	tbz	w0, #31, 1e00033630 <cmu_init_bl2+0x68>
  1e0003362c:	94001ff5 	bl	1e0003b600 <__assert>
  1e00033630:	aa1303e0 	mov	x0, x19
  1e00033634:	97fffcb6 	bl	1e0003290c <cmu_top_bus>
  1e00033638:	b9400120 	ldr	w0, [x9]
  1e0003363c:	52a02001 	mov	w1, #0x1000000             	// #16777216
  1e00033640:	12080c00 	and	w0, w0, #0xf000000
  1e00033644:	6b01001f 	cmp	w0, w1
  1e00033648:	540000e1 	b.ne	1e00033664 <cmu_init_bl2+0x9c>  // b.any
  1e0003364c:	d2c00c00 	mov	x0, #0x6000000000          	// #412316860416
  1e00033650:	eb00027f 	cmp	x19, x0
  1e00033654:	54000081 	b.ne	1e00033664 <cmu_init_bl2+0x9c>  // b.any
  1e00033658:	d2bf0200 	mov	x0, #0xf8100000            	// #4161798144
  1e0003365c:	f2c00fe0 	movk	x0, #0x7f, lsl #32
  1e00033660:	97fffc16 	bl	1e000326b8 <cmu_blk_pcie_init>
  1e00033664:	52800021 	mov	w1, #0x1                   	// #1
  1e00033668:	b0000040 	adrp	x0, 1e0003c000 <vsnprintf+0x270>
  1e0003366c:	9118d000 	add	x0, x0, #0x634
  1e00033670:	97fffb9a 	bl	1e000324d8 <cmu_find_pll_lvl>
  1e00033674:	2a0003e4 	mov	w4, w0
  1e00033678:	37fffda0 	tbnz	w0, #31, 1e0003362c <cmu_init_bl2+0x64>
  1e0003367c:	d2be3000 	mov	x0, #0xf1800000            	// #4051697664
  1e00033680:	f2c003e0 	movk	x0, #0x1f, lsl #32
  1e00033684:	8b000260 	add	x0, x19, x0
  1e00033688:	97fffba1 	bl	1e0003250c <cmu_blk_cp_init>
  1e0003368c:	d2bf3000 	mov	x0, #0xf9800000            	// #4185915392
  1e00033690:	f2c003e0 	movk	x0, #0x1f, lsl #32
  1e00033694:	8b000260 	add	x0, x19, x0
  1e00033698:	97fffc7b 	bl	1e00032884 <cmu_blk_peri_init>
  1e0003369c:	d2bee000 	mov	x0, #0xf7000000            	// #4143972352
  1e000336a0:	b9400121 	ldr	w1, [x9]
  1e000336a4:	f2c003e0 	movk	x0, #0x1f, lsl #32
  1e000336a8:	8b000260 	add	x0, x19, x0
  1e000336ac:	72080c3f 	tst	w1, #0xf000000
  1e000336b0:	2a0403e1 	mov	w1, w4
  1e000336b4:	54000161 	b.ne	1e000336e0 <cmu_init_bl2+0x118>  // b.any
  1e000336b8:	97fffe8c 	bl	1e000330e8 <cmu_blk_dram_init_evt0>
  1e000336bc:	d2be4214 	mov	x20, #0xf2100000            	// #4061134848
  1e000336c0:	f2c003f4 	movk	x20, #0x1f, lsl #32
  1e000336c4:	8b140260 	add	x0, x19, x20
  1e000336c8:	97fffdda 	bl	1e00032e30 <cmu_blk_dcl_init>
  1e000336cc:	91600280 	add	x0, x20, #0x800, lsl #12
  1e000336d0:	8b000260 	add	x0, x19, x0
  1e000336d4:	a94153f3 	ldp	x19, x20, [sp, #16]
  1e000336d8:	a8c27bfd 	ldp	x29, x30, [sp], #32
  1e000336dc:	17fffdd5 	b	1e00032e30 <cmu_blk_dcl_init>
  1e000336e0:	97ffff12 	bl	1e00033328 <cmu_blk_dram_init_evt1>
  1e000336e4:	17fffff6 	b	1e000336bc <cmu_init_bl2+0xf4>

0000001e000336e8 <console_is_registered>:
  1e000336e8:	b5000080 	cbnz	x0, 1e000336f8 <console_is_registered+0x10>
  1e000336ec:	a9bf7bfd 	stp	x29, x30, [sp, #-16]!
  1e000336f0:	910003fd 	mov	x29, sp
  1e000336f4:	94001fc3 	bl	1e0003b600 <__assert>
  1e000336f8:	b0000081 	adrp	x1, 1e00044000 <__STACKS_START__+0x3bc0>
  1e000336fc:	f9469821 	ldr	x1, [x1, #3376]
  1e00033700:	b5000061 	cbnz	x1, 1e0003370c <console_is_registered+0x24>
  1e00033704:	52800000 	mov	w0, #0x0                   	// #0
  1e00033708:	d65f03c0 	ret
  1e0003370c:	eb00003f 	cmp	x1, x0
  1e00033710:	54000060 	b.eq	1e0003371c <console_is_registered+0x34>  // b.none
  1e00033714:	f9400021 	ldr	x1, [x1]
  1e00033718:	17fffffa 	b	1e00033700 <console_is_registered+0x18>
  1e0003371c:	52800020 	mov	w0, #0x1                   	// #1
  1e00033720:	d65f03c0 	ret

0000001e00033724 <console_register>:
  1e00033724:	a9be7bfd 	stp	x29, x30, [sp, #-32]!
  1e00033728:	910003fd 	mov	x29, sp
  1e0003372c:	f9000bf3 	str	x19, [sp, #16]
  1e00033730:	aa0003f3 	mov	x19, x0
  1e00033734:	b0000060 	adrp	x0, 1e00040000 <tx_lane+0x54c>
  1e00033738:	91110000 	add	x0, x0, #0x440
  1e0003373c:	eb00027f 	cmp	x19, x0
  1e00033740:	540000c3 	b.cc	1e00033758 <console_register+0x34>  // b.lo, b.ul, b.last
  1e00033744:	b0000080 	adrp	x0, 1e00044000 <__STACKS_START__+0x3bc0>
  1e00033748:	91110000 	add	x0, x0, #0x440
  1e0003374c:	eb00027f 	cmp	x19, x0
  1e00033750:	54000042 	b.cs	1e00033758 <console_register+0x34>  // b.hs, b.nlast
  1e00033754:	94001fab 	bl	1e0003b600 <__assert>
  1e00033758:	aa1303e0 	mov	x0, x19
  1e0003375c:	97ffffe3 	bl	1e000336e8 <console_is_registered>
  1e00033760:	7100041f 	cmp	w0, #0x1
  1e00033764:	540000a0 	b.eq	1e00033778 <console_register+0x54>  // b.none
  1e00033768:	b0000080 	adrp	x0, 1e00044000 <__STACKS_START__+0x3bc0>
  1e0003376c:	f9469801 	ldr	x1, [x0, #3376]
  1e00033770:	f9000261 	str	x1, [x19]
  1e00033774:	f9069813 	str	x19, [x0, #3376]
  1e00033778:	f9400bf3 	ldr	x19, [sp, #16]
  1e0003377c:	52800020 	mov	w0, #0x1                   	// #1
  1e00033780:	a8c27bfd 	ldp	x29, x30, [sp], #32
  1e00033784:	d65f03c0 	ret

0000001e00033788 <console_set_scope>:
  1e00033788:	b5000080 	cbnz	x0, 1e00033798 <console_set_scope+0x10>
  1e0003378c:	a9bf7bfd 	stp	x29, x30, [sp, #-16]!
  1e00033790:	910003fd 	mov	x29, sp
  1e00033794:	94001f9b 	bl	1e0003b600 <__assert>
  1e00033798:	f9400402 	ldr	x2, [x0, #8]
  1e0003379c:	2a0103e1 	mov	w1, w1
  1e000337a0:	9278dc42 	and	x2, x2, #0xffffffffffffff00
  1e000337a4:	aa010041 	orr	x1, x2, x1
  1e000337a8:	f9000401 	str	x1, [x0, #8]
  1e000337ac:	d65f03c0 	ret

0000001e000337b0 <console_putc>:
  1e000337b0:	a9bd7bfd 	stp	x29, x30, [sp, #-48]!
  1e000337b4:	910003fd 	mov	x29, sp
  1e000337b8:	a9025bf5 	stp	x21, x22, [sp, #32]
  1e000337bc:	2a0003f5 	mov	w21, w0
  1e000337c0:	b0000080 	adrp	x0, 1e00044000 <__STACKS_START__+0x3bc0>
  1e000337c4:	a90153f3 	stp	x19, x20, [sp, #16]
  1e000337c8:	90000076 	adrp	x22, 1e0003f000 <__RO_END__>
  1e000337cc:	910eb2d6 	add	x22, x22, #0x3ac
  1e000337d0:	f9469813 	ldr	x19, [x0, #3376]
  1e000337d4:	12800ff4 	mov	w20, #0xffffff80            	// #-128
  1e000337d8:	b50000d3 	cbnz	x19, 1e000337f0 <console_putc+0x40>
  1e000337dc:	a9425bf5 	ldp	x21, x22, [sp, #32]
  1e000337e0:	2a1403e0 	mov	w0, w20
  1e000337e4:	a94153f3 	ldp	x19, x20, [sp, #16]
  1e000337e8:	a8c37bfd 	ldp	x29, x30, [sp], #48
  1e000337ec:	d65f03c0 	ret
  1e000337f0:	f9400660 	ldr	x0, [x19, #8]
  1e000337f4:	b94002c1 	ldr	w1, [x22]
  1e000337f8:	ea00003f 	tst	x1, x0
  1e000337fc:	54000060 	b.eq	1e00033808 <console_putc+0x58>  // b.none
  1e00033800:	f9400a62 	ldr	x2, [x19, #16]
  1e00033804:	b50000a2 	cbnz	x2, 1e00033818 <console_putc+0x68>
  1e00033808:	2a1403e0 	mov	w0, w20
  1e0003380c:	f9400273 	ldr	x19, [x19]
  1e00033810:	2a0003f4 	mov	w20, w0
  1e00033814:	17fffff1 	b	1e000337d8 <console_putc+0x28>
  1e00033818:	71002abf 	cmp	w21, #0xa
  1e0003381c:	54000120 	b.eq	1e00033840 <console_putc+0x90>  // b.none
  1e00033820:	f9400a62 	ldr	x2, [x19, #16]
  1e00033824:	aa1303e1 	mov	x1, x19
  1e00033828:	2a1503e0 	mov	w0, w21
  1e0003382c:	d63f0040 	blr	x2
  1e00033830:	3102029f 	cmn	w20, #0x80
  1e00033834:	7a401280 	ccmp	w20, w0, #0x0, ne	// ne = any
  1e00033838:	54fffe8d 	b.le	1e00033808 <console_putc+0x58>
  1e0003383c:	17fffff4 	b	1e0003380c <console_putc+0x5c>
  1e00033840:	3647ff00 	tbz	w0, #8, 1e00033820 <console_putc+0x70>
  1e00033844:	aa1303e1 	mov	x1, x19
  1e00033848:	528001a0 	mov	w0, #0xd                   	// #13
  1e0003384c:	d63f0040 	blr	x2
  1e00033850:	36fffe80 	tbz	w0, #31, 1e00033820 <console_putc+0x70>
  1e00033854:	17fffff7 	b	1e00033830 <console_putc+0x80>

0000001e00033858 <putchar>:
  1e00033858:	a9be7bfd 	stp	x29, x30, [sp, #-32]!
  1e0003385c:	910003fd 	mov	x29, sp
  1e00033860:	f9000bf3 	str	x19, [sp, #16]
  1e00033864:	2a0003f3 	mov	w19, w0
  1e00033868:	97ffffd2 	bl	1e000337b0 <console_putc>
  1e0003386c:	7100001f 	cmp	w0, #0x0
  1e00033870:	5a9f0260 	csinv	w0, w19, wzr, eq	// eq = none
  1e00033874:	f9400bf3 	ldr	x19, [sp, #16]
  1e00033878:	a8c27bfd 	ldp	x29, x30, [sp], #32
  1e0003387c:	d65f03c0 	ret

0000001e00033880 <console_flush>:
  1e00033880:	a9be7bfd 	stp	x29, x30, [sp, #-32]!
  1e00033884:	b0000080 	adrp	x0, 1e00044000 <__STACKS_START__+0x3bc0>
  1e00033888:	910003fd 	mov	x29, sp
  1e0003388c:	a90153f3 	stp	x19, x20, [sp, #16]
  1e00033890:	90000074 	adrp	x20, 1e0003f000 <__RO_END__>
  1e00033894:	910eb294 	add	x20, x20, #0x3ac
  1e00033898:	f9469813 	ldr	x19, [x0, #3376]
  1e0003389c:	b5000093 	cbnz	x19, 1e000338ac <console_flush+0x2c>
  1e000338a0:	a94153f3 	ldp	x19, x20, [sp, #16]
  1e000338a4:	a8c27bfd 	ldp	x29, x30, [sp], #32
  1e000338a8:	d65f03c0 	ret
  1e000338ac:	f9400660 	ldr	x0, [x19, #8]
  1e000338b0:	b9400281 	ldr	w1, [x20]
  1e000338b4:	ea00003f 	tst	x1, x0
  1e000338b8:	540000a0 	b.eq	1e000338cc <console_flush+0x4c>  // b.none
  1e000338bc:	f9400e61 	ldr	x1, [x19, #24]
  1e000338c0:	b4000061 	cbz	x1, 1e000338cc <console_flush+0x4c>
  1e000338c4:	aa1303e0 	mov	x0, x19
  1e000338c8:	d63f0020 	blr	x1
  1e000338cc:	f9400273 	ldr	x19, [x19]
  1e000338d0:	17fffff3 	b	1e0003389c <console_flush+0x1c>

0000001e000338d4 <udelay>:
  1e000338d4:	a9bd7bfd 	stp	x29, x30, [sp, #-48]!
  1e000338d8:	910003fd 	mov	x29, sp
  1e000338dc:	f90013f5 	str	x21, [sp, #32]
  1e000338e0:	b0000095 	adrp	x21, 1e00044000 <__STACKS_START__+0x3bc0>
  1e000338e4:	a90153f3 	stp	x19, x20, [sp, #16]
  1e000338e8:	2a0003f3 	mov	w19, w0
  1e000338ec:	f9469ea0 	ldr	x0, [x21, #3384]
  1e000338f0:	b40000e0 	cbz	x0, 1e0003390c <udelay+0x38>
  1e000338f4:	b9400801 	ldr	w1, [x0, #8]
  1e000338f8:	340000a1 	cbz	w1, 1e0003390c <udelay+0x38>
  1e000338fc:	b9400c01 	ldr	w1, [x0, #12]
  1e00033900:	34000061 	cbz	w1, 1e0003390c <udelay+0x38>
  1e00033904:	f9400000 	ldr	x0, [x0]
  1e00033908:	b5000040 	cbnz	x0, 1e00033910 <udelay+0x3c>
  1e0003390c:	94001f3d 	bl	1e0003b600 <__assert>
  1e00033910:	d63f0000 	blr	x0
  1e00033914:	2a0003f4 	mov	w20, w0
  1e00033918:	f9469ea1 	ldr	x1, [x21, #3384]
  1e0003391c:	29410420 	ldp	w0, w1, [x1, #8]
  1e00033920:	d1000402 	sub	x2, x0, #0x1
  1e00033924:	9ba10a73 	umaddl	x19, w19, w1, x2
  1e00033928:	9ac00a73 	udiv	x19, x19, x0
  1e0003392c:	12807d20 	mov	w0, #0xfffffc16            	// #-1002
  1e00033930:	91000673 	add	x19, x19, #0x1
  1e00033934:	eb00027f 	cmp	x19, x0
  1e00033938:	54fffea8 	b.hi	1e0003390c <udelay+0x38>  // b.pmore
  1e0003393c:	f9469ea0 	ldr	x0, [x21, #3384]
  1e00033940:	f9400000 	ldr	x0, [x0]
  1e00033944:	d63f0000 	blr	x0
  1e00033948:	4b000281 	sub	w1, w20, w0
  1e0003394c:	eb13003f 	cmp	x1, x19
  1e00033950:	54ffff63 	b.cc	1e0003393c <udelay+0x68>  // b.lo, b.ul, b.last
  1e00033954:	a94153f3 	ldp	x19, x20, [sp, #16]
  1e00033958:	f94013f5 	ldr	x21, [sp, #32]
  1e0003395c:	a8c37bfd 	ldp	x29, x30, [sp], #48
  1e00033960:	d65f03c0 	ret

0000001e00033964 <mdelay>:
  1e00033964:	52807d01 	mov	w1, #0x3e8                 	// #1000
  1e00033968:	b27f7be2 	mov	x2, #0xfffffffe            	// #4294967294
  1e0003396c:	9ba17c03 	umull	x3, w0, w1
  1e00033970:	eb02007f 	cmp	x3, x2
  1e00033974:	54000089 	b.ls	1e00033984 <mdelay+0x20>  // b.plast
  1e00033978:	a9bf7bfd 	stp	x29, x30, [sp, #-16]!
  1e0003397c:	910003fd 	mov	x29, sp
  1e00033980:	94001f20 	bl	1e0003b600 <__assert>
  1e00033984:	1b017c00 	mul	w0, w0, w1
  1e00033988:	17ffffd3 	b	1e000338d4 <udelay>

0000001e0003398c <timer_init>:
  1e0003398c:	b40000e0 	cbz	x0, 1e000339a8 <timer_init+0x1c>
  1e00033990:	b9400801 	ldr	w1, [x0, #8]
  1e00033994:	340000a1 	cbz	w1, 1e000339a8 <timer_init+0x1c>
  1e00033998:	b9400c01 	ldr	w1, [x0, #12]
  1e0003399c:	34000061 	cbz	w1, 1e000339a8 <timer_init+0x1c>
  1e000339a0:	f9400001 	ldr	x1, [x0]
  1e000339a4:	b5000081 	cbnz	x1, 1e000339b4 <timer_init+0x28>
  1e000339a8:	a9bf7bfd 	stp	x29, x30, [sp, #-16]!
  1e000339ac:	910003fd 	mov	x29, sp
  1e000339b0:	94001f14 	bl	1e0003b600 <__assert>
  1e000339b4:	b0000081 	adrp	x1, 1e00044000 <__STACKS_START__+0x3bc0>
  1e000339b8:	f9069c20 	str	x0, [x1, #3384]
  1e000339bc:	d65f03c0 	ret

0000001e000339c0 <generic_delay_timeout_init_us>:
  1e000339c0:	d53be002 	mrs	x2, cntfrq_el0
  1e000339c4:	d53be021 	mrs	x1, cntpct_el0
  1e000339c8:	2a0003e0 	mov	w0, w0
  1e000339cc:	9b027c00 	mul	x0, x0, x2
  1e000339d0:	d2884802 	mov	x2, #0x4240                	// #16960
  1e000339d4:	f2a001e2 	movk	x2, #0xf, lsl #16
  1e000339d8:	9ac20800 	udiv	x0, x0, x2
  1e000339dc:	8b010000 	add	x0, x0, x1
  1e000339e0:	d65f03c0 	ret

0000001e000339e4 <generic_delay_timeout_elapsed>:
  1e000339e4:	d53be021 	mrs	x1, cntpct_el0
  1e000339e8:	eb01001f 	cmp	x0, x1
  1e000339ec:	1a9f27e0 	cset	w0, cc	// cc = lo, ul, last
  1e000339f0:	d65f03c0 	ret

0000001e000339f4 <generic_delay_get_timer_value>:
  1e000339f4:	d53be020 	mrs	x0, cntpct_el0
  1e000339f8:	2a2003e0 	mvn	w0, w0
  1e000339fc:	d65f03c0 	ret

0000001e00033a00 <generic_delay_timer_init_args>:
  1e00033a00:	2a0003e4 	mov	w4, w0
  1e00033a04:	b0000083 	adrp	x3, 1e00044000 <__STACKS_START__+0x3bc0>
  1e00033a08:	91350060 	add	x0, x3, #0xd40
  1e00033a0c:	90000002 	adrp	x2, 1e00033000 <cmu_blk_dcl_init+0x1d0>
  1e00033a10:	9127d042 	add	x2, x2, #0x9f4
  1e00033a14:	f906a062 	str	x2, [x3, #3392]
  1e00033a18:	29010404 	stp	w4, w1, [x0, #8]
  1e00033a1c:	90000001 	adrp	x1, 1e00033000 <cmu_blk_dcl_init+0x1d0>
  1e00033a20:	91270021 	add	x1, x1, #0x9c0
  1e00033a24:	f9000801 	str	x1, [x0, #16]
  1e00033a28:	90000001 	adrp	x1, 1e00033000 <cmu_blk_dcl_init+0x1d0>
  1e00033a2c:	91279021 	add	x1, x1, #0x9e4
  1e00033a30:	f9000c01 	str	x1, [x0, #24]
  1e00033a34:	17ffffd6 	b	1e0003398c <timer_init>

0000001e00033a38 <generic_delay_timer_init>:
  1e00033a38:	a9bf7bfd 	stp	x29, x30, [sp, #-16]!
  1e00033a3c:	910003fd 	mov	x29, sp
  1e00033a40:	94001d6a 	bl	1e0003afe8 <plat_get_syscnt_freq2>
  1e00033a44:	2a0003e1 	mov	w1, w0
  1e00033a48:	52800142 	mov	w2, #0xa                   	// #10
  1e00033a4c:	1ac20800 	udiv	w0, w0, w2
  1e00033a50:	1b028400 	msub	w0, w0, w2, w1
  1e00033a54:	350001a0 	cbnz	w0, 1e00033a88 <generic_delay_timer_init+0x50>
  1e00033a58:	52884800 	mov	w0, #0x4240                	// #16960
  1e00033a5c:	72a001e0 	movk	w0, #0xf, lsl #16
  1e00033a60:	1ac20800 	udiv	w0, w0, w2
  1e00033a64:	1ac20821 	udiv	w1, w1, w2
  1e00033a68:	1ac20803 	udiv	w3, w0, w2
  1e00033a6c:	1ac20824 	udiv	w4, w1, w2
  1e00033a70:	1b028063 	msub	w3, w3, w2, w0
  1e00033a74:	1b028484 	msub	w4, w4, w2, w1
  1e00033a78:	2a040063 	orr	w3, w3, w4
  1e00033a7c:	34ffff23 	cbz	w3, 1e00033a60 <generic_delay_timer_init+0x28>
  1e00033a80:	a8c17bfd 	ldp	x29, x30, [sp], #16
  1e00033a84:	17ffffdf 	b	1e00033a00 <generic_delay_timer_init_args>
  1e00033a88:	52884800 	mov	w0, #0x4240                	// #16960
  1e00033a8c:	72a001e0 	movk	w0, #0xf, lsl #16
  1e00033a90:	17fffffc 	b	1e00033a80 <generic_delay_timer_init+0x48>

0000001e00033a94 <get_lotid_for_hbm>:
  1e00033a94:	a9bc7bfd 	stp	x29, x30, [sp, #-64]!
  1e00033a98:	d2820180 	mov	x0, #0x100c                	// #4108
  1e00033a9c:	f2a004a0 	movk	x0, #0x25, lsl #16
  1e00033aa0:	910003fd 	mov	x29, sp
  1e00033aa4:	f2c003c0 	movk	x0, #0x1e, lsl #32
  1e00033aa8:	b9003bff 	str	wzr, [sp, #56]
  1e00033aac:	79007bff 	strh	wzr, [sp, #60]
  1e00033ab0:	52800001 	mov	w1, #0x0                   	// #0
  1e00033ab4:	52800286 	mov	w6, #0x14                  	// #20
  1e00033ab8:	a90153f3 	stp	x19, x20, [sp, #16]
  1e00033abc:	297f8c04 	ldp	w4, w3, [x0, #-4]
  1e00033ac0:	52800000 	mov	w0, #0x0                   	// #0
  1e00033ac4:	f90013f5 	str	x21, [sp, #32]
  1e00033ac8:	12005084 	and	w4, w4, #0x1fffff
  1e00033acc:	4b0000c5 	sub	w5, w6, w0
  1e00033ad0:	1ac02482 	lsr	w2, w4, w0
  1e00033ad4:	12000042 	and	w2, w2, #0x1
  1e00033ad8:	11000400 	add	w0, w0, #0x1
  1e00033adc:	1ac52042 	lsl	w2, w2, w5
  1e00033ae0:	0b020021 	add	w1, w1, w2
  1e00033ae4:	7100541f 	cmp	w0, #0x15
  1e00033ae8:	54ffff21 	b.ne	1e00033acc <get_lotid_for_hbm+0x38>  // b.any
  1e00033aec:	d2800004 	mov	x4, #0x0                   	// #0
  1e00033af0:	2a0103e2 	mov	w2, w1
  1e00033af4:	52800001 	mov	w1, #0x0                   	// #0
  1e00033af8:	14000003 	b	1e00033b04 <get_lotid_for_hbm+0x70>
  1e00033afc:	51009042 	sub	w2, w2, #0x24
  1e00033b00:	11000421 	add	w1, w1, #0x1
  1e00033b04:	71008c5f 	cmp	w2, #0x23
  1e00033b08:	54ffffa8 	b.hi	1e00033afc <get_lotid_for_hbm+0x68>  // b.pmore
  1e00033b0c:	12001c40 	and	w0, w2, #0xff
  1e00033b10:	7100245f 	cmp	w2, #0x9
  1e00033b14:	9100e3e2 	add	x2, sp, #0x38
  1e00033b18:	1100c005 	add	w5, w0, #0x30
  1e00033b1c:	8b020082 	add	x2, x4, x2
  1e00033b20:	1100dc00 	add	w0, w0, #0x37
  1e00033b24:	12001ca5 	and	w5, w5, #0xff
  1e00033b28:	12001c00 	and	w0, w0, #0xff
  1e00033b2c:	1a858000 	csel	w0, w0, w5, hi	// hi = pmore
  1e00033b30:	d1000484 	sub	x4, x4, #0x1
  1e00033b34:	39001040 	strb	w0, [x2, #4]
  1e00033b38:	b100109f 	cmn	x4, #0x4
  1e00033b3c:	54fffda1 	b.ne	1e00033af0 <get_lotid_for_hbm+0x5c>  // b.any
  1e00033b40:	12160460 	and	w0, w3, #0xc00
  1e00033b44:	3900f7ff 	strb	wzr, [sp, #61]
  1e00033b48:	7120001f 	cmp	w0, #0x800
  1e00033b4c:	540003a0 	b.eq	1e00033bc0 <get_lotid_for_hbm+0x12c>  // b.none
  1e00033b50:	7130001f 	cmp	w0, #0xc00
  1e00033b54:	528008c1 	mov	w1, #0x46                  	// #70
  1e00033b58:	52800400 	mov	w0, #0x20                  	// #32
  1e00033b5c:	1a811000 	csel	w0, w0, w1, ne	// ne = any
  1e00033b60:	b0000054 	adrp	x20, 1e0003c000 <vsnprintf+0x270>
  1e00033b64:	91100294 	add	x20, x20, #0x400
  1e00033b68:	d2800013 	mov	x19, #0x0                   	// #0
  1e00033b6c:	9100e3e1 	add	x1, sp, #0x38
  1e00033b70:	3900e3e0 	strb	w0, [sp, #56]
  1e00033b74:	b0000040 	adrp	x0, 1e0003c000 <vsnprintf+0x270>
  1e00033b78:	9131f400 	add	x0, x0, #0xc7d
  1e00033b7c:	94002024 	bl	1e0003bc0c <printf>
  1e00033b80:	f8737a95 	ldr	x21, [x20, x19, lsl #3]
  1e00033b84:	aa1503e0 	mov	x0, x21
  1e00033b88:	940021eb 	bl	1e0003c334 <strlen>
  1e00033b8c:	aa1503e1 	mov	x1, x21
  1e00033b90:	aa0003e2 	mov	x2, x0
  1e00033b94:	9100e3e0 	add	x0, sp, #0x38
  1e00033b98:	940021ee 	bl	1e0003c350 <strncmp>
  1e00033b9c:	34000160 	cbz	w0, 1e00033bc8 <get_lotid_for_hbm+0x134>
  1e00033ba0:	91000673 	add	x19, x19, #0x1
  1e00033ba4:	f1000e7f 	cmp	x19, #0x3
  1e00033ba8:	54fffec1 	b.ne	1e00033b80 <get_lotid_for_hbm+0xec>  // b.any
  1e00033bac:	52800000 	mov	w0, #0x0                   	// #0
  1e00033bb0:	a94153f3 	ldp	x19, x20, [sp, #16]
  1e00033bb4:	f94013f5 	ldr	x21, [sp, #32]
  1e00033bb8:	a8c47bfd 	ldp	x29, x30, [sp], #64
  1e00033bbc:	d65f03c0 	ret
  1e00033bc0:	52800820 	mov	w0, #0x41                  	// #65
  1e00033bc4:	17ffffe7 	b	1e00033b60 <get_lotid_for_hbm+0xcc>
  1e00033bc8:	52800020 	mov	w0, #0x1                   	// #1
  1e00033bcc:	17fffff9 	b	1e00033bb0 <get_lotid_for_hbm+0x11c>

0000001e00033bd0 <phy_post_training>:
  1e00033bd0:	d37d1c21 	ubfiz	x1, x1, #3, #8
  1e00033bd4:	8b010002 	add	x2, x0, x1
  1e00033bd8:	f8616800 	ldr	x0, [x0, x1]
  1e00033bdc:	b9439401 	ldr	w1, [x0, #916]
  1e00033be0:	320b0021 	orr	w1, w1, #0x200000
  1e00033be4:	b9039401 	str	w1, [x0, #916]
  1e00033be8:	b940ac01 	ldr	w1, [x0, #172]
  1e00033bec:	120d7821 	and	w1, w1, #0xfffbffff
  1e00033bf0:	b900ac01 	str	w1, [x0, #172]
  1e00033bf4:	b9400401 	ldr	w1, [x0, #4]
  1e00033bf8:	32160021 	orr	w1, w1, #0x400
  1e00033bfc:	b9000401 	str	w1, [x0, #4]
  1e00033c00:	f9404040 	ldr	x0, [x2, #128]
  1e00033c04:	91401000 	add	x0, x0, #0x4, lsl #12
  1e00033c08:	b9505801 	ldr	w1, [x0, #4184]
  1e00033c0c:	32000021 	orr	w1, w1, #0x1
  1e00033c10:	b9105801 	str	w1, [x0, #4184]
  1e00033c14:	b9440001 	ldr	w1, [x0, #1024]
  1e00033c18:	32000021 	orr	w1, w1, #0x1
  1e00033c1c:	b9040001 	str	w1, [x0, #1024]
  1e00033c20:	b9442c01 	ldr	w1, [x0, #1068]
  1e00033c24:	3607ffe1 	tbz	w1, #0, 1e00033c20 <phy_post_training+0x50>
  1e00033c28:	d65f03c0 	ret

0000001e00033c2c <phy_find_read_training_fail_bit>:
  1e00033c2c:	92401c46 	and	x6, x2, #0xff
  1e00033c30:	d37d1c42 	ubfiz	x2, x2, #3, #8
  1e00033c34:	a9bf7bfd 	stp	x29, x30, [sp, #-16]!
  1e00033c38:	aa0003e7 	mov	x7, x0
  1e00033c3c:	910003fd 	mov	x29, sp
  1e00033c40:	f8626800 	ldr	x0, [x0, x2]
  1e00033c44:	b9465004 	ldr	w4, [x0, #1616]
  1e00033c48:	340007a4 	cbz	w4, 1e00033d3c <phy_find_read_training_fail_bit+0x110>
  1e00033c4c:	93407cc9 	sxtw	x9, w6
  1e00033c50:	d0000085 	adrp	x5, 1e00045000 <list+0x1e8>
  1e00033c54:	911880a5 	add	x5, x5, #0x620
  1e00033c58:	d280014a 	mov	x10, #0xa                   	// #10
  1e00033c5c:	b0000068 	adrp	x8, 1e00040000 <tx_lane+0x54c>
  1e00033c60:	9109a908 	add	x8, x8, #0x26a
  1e00033c64:	52800003 	mov	w3, #0x0                   	// #0
  1e00033c68:	52800000 	mov	w0, #0x0                   	// #0
  1e00033c6c:	9b0a1529 	madd	x9, x9, x10, x5
  1e00033c70:	1ac32485 	lsr	w5, w4, w3
  1e00033c74:	36000245 	tbz	w5, #0, 1e00033cbc <phy_find_read_training_fail_bit+0x90>
  1e00033c78:	3940310a 	ldrb	w10, [x8, #12]
  1e00033c7c:	7940150b 	ldrh	w11, [x8, #10]
  1e00033c80:	386a6925 	ldrb	w5, [x9, x10]
  1e00033c84:	71003cbf 	cmp	w5, #0xf
  1e00033c88:	54000160 	b.eq	1e00033cb4 <phy_find_read_training_fail_bit+0x88>  // b.none
  1e00033c8c:	6b0b00bf 	cmp	w5, w11
  1e00033c90:	54000120 	b.eq	1e00033cb4 <phy_find_read_training_fail_bit+0x88>  // b.none
  1e00033c94:	3100049f 	cmn	w4, #0x1
  1e00033c98:	54001641 	b.ne	1e00033f60 <phy_find_read_training_fail_bit+0x334>  // b.any
  1e00033c9c:	b0000040 	adrp	x0, 1e0003c000 <vsnprintf+0x270>
  1e00033ca0:	2a0403e3 	mov	w3, w4
  1e00033ca4:	2a0603e2 	mov	w2, w6
  1e00033ca8:	91326c00 	add	x0, x0, #0xc9b
  1e00033cac:	97fff842 	bl	1e00031db4 <tf_log>
  1e00033cb0:	14000020 	b	1e00033d30 <phy_find_read_training_fail_bit+0x104>
  1e00033cb4:	11000400 	add	w0, w0, #0x1
  1e00033cb8:	382a692b 	strb	w11, [x9, x10]
  1e00033cbc:	11000463 	add	w3, w3, #0x1
  1e00033cc0:	91003908 	add	x8, x8, #0xe
  1e00033cc4:	7100807f 	cmp	w3, #0x20
  1e00033cc8:	54fffd41 	b.ne	1e00033c70 <phy_find_read_training_fail_bit+0x44>  // b.any
  1e00033ccc:	f86268e3 	ldr	x3, [x7, x2]
  1e00033cd0:	b9465864 	ldr	w4, [x3, #1624]
  1e00033cd4:	d3482c84 	ubfx	x4, x4, #8, #4
  1e00033cd8:	34000424 	cbz	w4, 1e00033d5c <phy_find_read_training_fail_bit+0x130>
  1e00033cdc:	93407cc9 	sxtw	x9, w6
  1e00033ce0:	d0000085 	adrp	x5, 1e00045000 <list+0x1e8>
  1e00033ce4:	911880a5 	add	x5, x5, #0x620
  1e00033ce8:	d280014a 	mov	x10, #0xa                   	// #10
  1e00033cec:	b0000068 	adrp	x8, 1e00040000 <tx_lane+0x54c>
  1e00033cf0:	9107e908 	add	x8, x8, #0x1fa
  1e00033cf4:	52800003 	mov	w3, #0x0                   	// #0
  1e00033cf8:	9b0a1529 	madd	x9, x9, x10, x5
  1e00033cfc:	1ac32485 	lsr	w5, w4, w3
  1e00033d00:	36000265 	tbz	w5, #0, 1e00033d4c <phy_find_read_training_fail_bit+0x120>
  1e00033d04:	3940310a 	ldrb	w10, [x8, #12]
  1e00033d08:	7940150b 	ldrh	w11, [x8, #10]
  1e00033d0c:	386a6925 	ldrb	w5, [x9, x10]
  1e00033d10:	71003cbf 	cmp	w5, #0xf
  1e00033d14:	54000180 	b.eq	1e00033d44 <phy_find_read_training_fail_bit+0x118>  // b.none
  1e00033d18:	6b0b00bf 	cmp	w5, w11
  1e00033d1c:	54000140 	b.eq	1e00033d44 <phy_find_read_training_fail_bit+0x118>  // b.none
  1e00033d20:	b0000040 	adrp	x0, 1e0003c000 <vsnprintf+0x270>
  1e00033d24:	2a0603e2 	mov	w2, w6
  1e00033d28:	91346800 	add	x0, x0, #0xd1a
  1e00033d2c:	97fff822 	bl	1e00031db4 <tf_log>
  1e00033d30:	12800020 	mov	w0, #0xfffffffe            	// #-2
  1e00033d34:	a8c17bfd 	ldp	x29, x30, [sp], #16
  1e00033d38:	d65f03c0 	ret
  1e00033d3c:	52800000 	mov	w0, #0x0                   	// #0
  1e00033d40:	17ffffe3 	b	1e00033ccc <phy_find_read_training_fail_bit+0xa0>
  1e00033d44:	11000400 	add	w0, w0, #0x1
  1e00033d48:	382a692b 	strb	w11, [x9, x10]
  1e00033d4c:	11000463 	add	w3, w3, #0x1
  1e00033d50:	91003908 	add	x8, x8, #0xe
  1e00033d54:	7100107f 	cmp	w3, #0x4
  1e00033d58:	54fffd21 	b.ne	1e00033cfc <phy_find_read_training_fail_bit+0xd0>  // b.any
  1e00033d5c:	f86268e3 	ldr	x3, [x7, x2]
  1e00033d60:	b9465864 	ldr	w4, [x3, #1624]
  1e00033d64:	d3441484 	ubfx	x4, x4, #4, #2
  1e00033d68:	340005e4 	cbz	w4, 1e00033e24 <phy_find_read_training_fail_bit+0x1f8>
  1e00033d6c:	36000224 	tbz	w4, #0, 1e00033db0 <phy_find_read_training_fail_bit+0x184>
  1e00033d70:	93407cc8 	sxtw	x8, w6
  1e00033d74:	b0000069 	adrp	x9, 1e00040000 <tx_lane+0x54c>
  1e00033d78:	d0000083 	adrp	x3, 1e00045000 <list+0x1e8>
  1e00033d7c:	91093929 	add	x9, x9, #0x24e
  1e00033d80:	91188063 	add	x3, x3, #0x620
  1e00033d84:	d2800145 	mov	x5, #0xa                   	// #10
  1e00033d88:	3940312a 	ldrb	w10, [x9, #12]
  1e00033d8c:	9b050d05 	madd	x5, x8, x5, x3
  1e00033d90:	79401529 	ldrh	w9, [x9, #10]
  1e00033d94:	386a68a5 	ldrb	w5, [x5, x10]
  1e00033d98:	71003cbf 	cmp	w5, #0xf
  1e00033d9c:	54000341 	b.ne	1e00033e04 <phy_find_read_training_fail_bit+0x1d8>  // b.any
  1e00033da0:	d2800145 	mov	x5, #0xa                   	// #10
  1e00033da4:	11000400 	add	w0, w0, #0x1
  1e00033da8:	9b050d08 	madd	x8, x8, x5, x3
  1e00033dac:	382a6909 	strb	w9, [x8, x10]
  1e00033db0:	6b4407ff 	cmp	wzr, w4, lsr #1
  1e00033db4:	54000380 	b.eq	1e00033e24 <phy_find_read_training_fail_bit+0x1f8>  // b.none
  1e00033db8:	93407cc3 	sxtw	x3, w6
  1e00033dbc:	b0000069 	adrp	x9, 1e00040000 <tx_lane+0x54c>
  1e00033dc0:	d0000088 	adrp	x8, 1e00045000 <list+0x1e8>
  1e00033dc4:	91093929 	add	x9, x9, #0x24e
  1e00033dc8:	91188108 	add	x8, x8, #0x620
  1e00033dcc:	d2800145 	mov	x5, #0xa                   	// #10
  1e00033dd0:	3940692a 	ldrb	w10, [x9, #26]
  1e00033dd4:	9b052065 	madd	x5, x3, x5, x8
  1e00033dd8:	79403129 	ldrh	w9, [x9, #24]
  1e00033ddc:	386a68a5 	ldrb	w5, [x5, x10]
  1e00033de0:	71003cbf 	cmp	w5, #0xf
  1e00033de4:	54000180 	b.eq	1e00033e14 <phy_find_read_training_fail_bit+0x1e8>  // b.none
  1e00033de8:	6b0900bf 	cmp	w5, w9
  1e00033dec:	54000140 	b.eq	1e00033e14 <phy_find_read_training_fail_bit+0x1e8>  // b.none
  1e00033df0:	52800023 	mov	w3, #0x1                   	// #1
  1e00033df4:	b0000040 	adrp	x0, 1e0003c000 <vsnprintf+0x270>
  1e00033df8:	2a0603e2 	mov	w2, w6
  1e00033dfc:	91358000 	add	x0, x0, #0xd60
  1e00033e00:	17ffffcb 	b	1e00033d2c <phy_find_read_training_fail_bit+0x100>
  1e00033e04:	6b05013f 	cmp	w9, w5
  1e00033e08:	54fffcc0 	b.eq	1e00033da0 <phy_find_read_training_fail_bit+0x174>  // b.none
  1e00033e0c:	52800003 	mov	w3, #0x0                   	// #0
  1e00033e10:	17fffff9 	b	1e00033df4 <phy_find_read_training_fail_bit+0x1c8>
  1e00033e14:	d2800144 	mov	x4, #0xa                   	// #10
  1e00033e18:	11000400 	add	w0, w0, #0x1
  1e00033e1c:	9b042063 	madd	x3, x3, x4, x8
  1e00033e20:	382a6869 	strb	w9, [x3, x10]
  1e00033e24:	f86268e3 	ldr	x3, [x7, x2]
  1e00033e28:	b9465864 	ldr	w4, [x3, #1624]
  1e00033e2c:	72000484 	ands	w4, w4, #0x3
  1e00033e30:	540005e0 	b.eq	1e00033eec <phy_find_read_training_fail_bit+0x2c0>  // b.none
  1e00033e34:	36000224 	tbz	w4, #0, 1e00033e78 <phy_find_read_training_fail_bit+0x24c>
  1e00033e38:	93407cc8 	sxtw	x8, w6
  1e00033e3c:	b0000069 	adrp	x9, 1e00040000 <tx_lane+0x54c>
  1e00033e40:	d0000083 	adrp	x3, 1e00045000 <list+0x1e8>
  1e00033e44:	9108c929 	add	x9, x9, #0x232
  1e00033e48:	91188063 	add	x3, x3, #0x620
  1e00033e4c:	d2800145 	mov	x5, #0xa                   	// #10
  1e00033e50:	3940312a 	ldrb	w10, [x9, #12]
  1e00033e54:	9b050d05 	madd	x5, x8, x5, x3
  1e00033e58:	79401529 	ldrh	w9, [x9, #10]
  1e00033e5c:	386a68a5 	ldrb	w5, [x5, x10]
  1e00033e60:	71003cbf 	cmp	w5, #0xf
  1e00033e64:	54000341 	b.ne	1e00033ecc <phy_find_read_training_fail_bit+0x2a0>  // b.any
  1e00033e68:	d2800145 	mov	x5, #0xa                   	// #10
  1e00033e6c:	11000400 	add	w0, w0, #0x1
  1e00033e70:	9b050d08 	madd	x8, x8, x5, x3
  1e00033e74:	382a6909 	strb	w9, [x8, x10]
  1e00033e78:	6b4407ff 	cmp	wzr, w4, lsr #1
  1e00033e7c:	54000380 	b.eq	1e00033eec <phy_find_read_training_fail_bit+0x2c0>  // b.none
  1e00033e80:	93407cc3 	sxtw	x3, w6
  1e00033e84:	b0000069 	adrp	x9, 1e00040000 <tx_lane+0x54c>
  1e00033e88:	d0000088 	adrp	x8, 1e00045000 <list+0x1e8>
  1e00033e8c:	9108c929 	add	x9, x9, #0x232
  1e00033e90:	91188108 	add	x8, x8, #0x620
  1e00033e94:	d2800145 	mov	x5, #0xa                   	// #10
  1e00033e98:	3940692a 	ldrb	w10, [x9, #26]
  1e00033e9c:	9b052065 	madd	x5, x3, x5, x8
  1e00033ea0:	79403129 	ldrh	w9, [x9, #24]
  1e00033ea4:	386a68a5 	ldrb	w5, [x5, x10]
  1e00033ea8:	71003cbf 	cmp	w5, #0xf
  1e00033eac:	54000180 	b.eq	1e00033edc <phy_find_read_training_fail_bit+0x2b0>  // b.none
  1e00033eb0:	6b0900bf 	cmp	w5, w9
  1e00033eb4:	54000140 	b.eq	1e00033edc <phy_find_read_training_fail_bit+0x2b0>  // b.none
  1e00033eb8:	52800023 	mov	w3, #0x1                   	// #1
  1e00033ebc:	b0000040 	adrp	x0, 1e0003c000 <vsnprintf+0x270>
  1e00033ec0:	2a0603e2 	mov	w2, w6
  1e00033ec4:	91369800 	add	x0, x0, #0xda6
  1e00033ec8:	17ffff99 	b	1e00033d2c <phy_find_read_training_fail_bit+0x100>
  1e00033ecc:	6b05013f 	cmp	w9, w5
  1e00033ed0:	54fffcc0 	b.eq	1e00033e68 <phy_find_read_training_fail_bit+0x23c>  // b.none
  1e00033ed4:	52800003 	mov	w3, #0x0                   	// #0
  1e00033ed8:	17fffff9 	b	1e00033ebc <phy_find_read_training_fail_bit+0x290>
  1e00033edc:	d2800144 	mov	x4, #0xa                   	// #10
  1e00033ee0:	11000400 	add	w0, w0, #0x1
  1e00033ee4:	9b042063 	madd	x3, x3, x4, x8
  1e00033ee8:	382a6869 	strb	w9, [x3, x10]
  1e00033eec:	f86268e3 	ldr	x3, [x7, x2]
  1e00033ef0:	b9465463 	ldr	w3, [x3, #1620]
  1e00033ef4:	340004a3 	cbz	w3, 1e00033f88 <phy_find_read_training_fail_bit+0x35c>
  1e00033ef8:	93407cc9 	sxtw	x9, w6
  1e00033efc:	d0000084 	adrp	x4, 1e00045000 <list+0x1e8>
  1e00033f00:	91188084 	add	x4, x4, #0x620
  1e00033f04:	d2800145 	mov	x5, #0xa                   	// #10
  1e00033f08:	b0000068 	adrp	x8, 1e00040000 <tx_lane+0x54c>
  1e00033f0c:	9109a908 	add	x8, x8, #0x26a
  1e00033f10:	5280000a 	mov	w10, #0x0                   	// #0
  1e00033f14:	9b051129 	madd	x9, x9, x5, x4
  1e00033f18:	1aca2464 	lsr	w4, w3, w10
  1e00033f1c:	360002e4 	tbz	w4, #0, 1e00033f78 <phy_find_read_training_fail_bit+0x34c>
  1e00033f20:	39403104 	ldrb	w4, [x8, #12]
  1e00033f24:	7940150b 	ldrh	w11, [x8, #10]
  1e00033f28:	91001884 	add	x4, x4, #0x6
  1e00033f2c:	38646925 	ldrb	w5, [x9, x4]
  1e00033f30:	71003cbf 	cmp	w5, #0xf
  1e00033f34:	540001e0 	b.eq	1e00033f70 <phy_find_read_training_fail_bit+0x344>  // b.none
  1e00033f38:	6b0b00bf 	cmp	w5, w11
  1e00033f3c:	540001a0 	b.eq	1e00033f70 <phy_find_read_training_fail_bit+0x344>  // b.none
  1e00033f40:	3100047f 	cmn	w3, #0x1
  1e00033f44:	540000a1 	b.ne	1e00033f58 <phy_find_read_training_fail_bit+0x32c>  // b.any
  1e00033f48:	b0000040 	adrp	x0, 1e0003c000 <vsnprintf+0x270>
  1e00033f4c:	2a0603e2 	mov	w2, w6
  1e00033f50:	9137b000 	add	x0, x0, #0xdec
  1e00033f54:	17ffff56 	b	1e00033cac <phy_find_read_training_fail_bit+0x80>
  1e00033f58:	2a0303e4 	mov	w4, w3
  1e00033f5c:	11008143 	add	w3, w10, #0x20
  1e00033f60:	b0000040 	adrp	x0, 1e0003c000 <vsnprintf+0x270>
  1e00033f64:	2a0603e2 	mov	w2, w6
  1e00033f68:	91335400 	add	x0, x0, #0xcd5
  1e00033f6c:	17ffff70 	b	1e00033d2c <phy_find_read_training_fail_bit+0x100>
  1e00033f70:	11000400 	add	w0, w0, #0x1
  1e00033f74:	3824692b 	strb	w11, [x9, x4]
  1e00033f78:	1100054a 	add	w10, w10, #0x1
  1e00033f7c:	91003908 	add	x8, x8, #0xe
  1e00033f80:	7100815f 	cmp	w10, #0x20
  1e00033f84:	54fffca1 	b.ne	1e00033f18 <phy_find_read_training_fail_bit+0x2ec>  // b.any
  1e00033f88:	f86268e3 	ldr	x3, [x7, x2]
  1e00033f8c:	b9465864 	ldr	w4, [x3, #1624]
  1e00033f90:	d34c3c84 	ubfx	x4, x4, #12, #4
  1e00033f94:	34000364 	cbz	w4, 1e00034000 <phy_find_read_training_fail_bit+0x3d4>
  1e00033f98:	93407cc8 	sxtw	x8, w6
  1e00033f9c:	d0000085 	adrp	x5, 1e00045000 <list+0x1e8>
  1e00033fa0:	911880a5 	add	x5, x5, #0x620
  1e00033fa4:	d280014a 	mov	x10, #0xa                   	// #10
  1e00033fa8:	b0000063 	adrp	x3, 1e00040000 <tx_lane+0x54c>
  1e00033fac:	9107e863 	add	x3, x3, #0x1fa
  1e00033fb0:	52800009 	mov	w9, #0x0                   	// #0
  1e00033fb4:	9b0a1508 	madd	x8, x8, x10, x5
  1e00033fb8:	1ac92485 	lsr	w5, w4, w9
  1e00033fbc:	360001a5 	tbz	w5, #0, 1e00033ff0 <phy_find_read_training_fail_bit+0x3c4>
  1e00033fc0:	3940306a 	ldrb	w10, [x3, #12]
  1e00033fc4:	7940146b 	ldrh	w11, [x3, #10]
  1e00033fc8:	9100194a 	add	x10, x10, #0x6
  1e00033fcc:	386a6905 	ldrb	w5, [x8, x10]
  1e00033fd0:	71003cbf 	cmp	w5, #0xf
  1e00033fd4:	540000a0 	b.eq	1e00033fe8 <phy_find_read_training_fail_bit+0x3bc>  // b.none
  1e00033fd8:	6b0b00bf 	cmp	w5, w11
  1e00033fdc:	54000060 	b.eq	1e00033fe8 <phy_find_read_training_fail_bit+0x3bc>  // b.none
  1e00033fe0:	52800083 	mov	w3, #0x4                   	// #4
  1e00033fe4:	17ffff4f 	b	1e00033d20 <phy_find_read_training_fail_bit+0xf4>
  1e00033fe8:	11000400 	add	w0, w0, #0x1
  1e00033fec:	382a690b 	strb	w11, [x8, x10]
  1e00033ff0:	11000529 	add	w9, w9, #0x1
  1e00033ff4:	91003863 	add	x3, x3, #0xe
  1e00033ff8:	7100113f 	cmp	w9, #0x4
  1e00033ffc:	54fffde1 	b.ne	1e00033fb8 <phy_find_read_training_fail_bit+0x38c>  // b.any
  1e00034000:	f86268e3 	ldr	x3, [x7, x2]
  1e00034004:	b9465864 	ldr	w4, [x3, #1624]
  1e00034008:	d3461c84 	ubfx	x4, x4, #6, #2
  1e0003400c:	340005e4 	cbz	w4, 1e000340c8 <phy_find_read_training_fail_bit+0x49c>
  1e00034010:	36000244 	tbz	w4, #0, 1e00034058 <phy_find_read_training_fail_bit+0x42c>
  1e00034014:	9000006a 	adrp	x10, 1e00040000 <tx_lane+0x54c>
  1e00034018:	9109394a 	add	x10, x10, #0x24e
  1e0003401c:	93407cc9 	sxtw	x9, w6
  1e00034020:	b0000083 	adrp	x3, 1e00045000 <list+0x1e8>
  1e00034024:	91188063 	add	x3, x3, #0x620
  1e00034028:	d2800145 	mov	x5, #0xa                   	// #10
  1e0003402c:	39403148 	ldrb	w8, [x10, #12]
  1e00034030:	7940154a 	ldrh	w10, [x10, #10]
  1e00034034:	9b050d25 	madd	x5, x9, x5, x3
  1e00034038:	91001908 	add	x8, x8, #0x6
  1e0003403c:	386868a5 	ldrb	w5, [x5, x8]
  1e00034040:	71003cbf 	cmp	w5, #0xf
  1e00034044:	54000321 	b.ne	1e000340a8 <phy_find_read_training_fail_bit+0x47c>  // b.any
  1e00034048:	d2800145 	mov	x5, #0xa                   	// #10
  1e0003404c:	11000400 	add	w0, w0, #0x1
  1e00034050:	9b050d29 	madd	x9, x9, x5, x3
  1e00034054:	3828692a 	strb	w10, [x9, x8]
  1e00034058:	6b4407ff 	cmp	wzr, w4, lsr #1
  1e0003405c:	54000360 	b.eq	1e000340c8 <phy_find_read_training_fail_bit+0x49c>  // b.none
  1e00034060:	9000006a 	adrp	x10, 1e00040000 <tx_lane+0x54c>
  1e00034064:	9109394a 	add	x10, x10, #0x24e
  1e00034068:	93407cc8 	sxtw	x8, w6
  1e0003406c:	b0000089 	adrp	x9, 1e00045000 <list+0x1e8>
  1e00034070:	91188129 	add	x9, x9, #0x620
  1e00034074:	d2800145 	mov	x5, #0xa                   	// #10
  1e00034078:	39406943 	ldrb	w3, [x10, #26]
  1e0003407c:	7940314a 	ldrh	w10, [x10, #24]
  1e00034080:	9b052505 	madd	x5, x8, x5, x9
  1e00034084:	91001863 	add	x3, x3, #0x6
  1e00034088:	386368a5 	ldrb	w5, [x5, x3]
  1e0003408c:	71003cbf 	cmp	w5, #0xf
  1e00034090:	54000140 	b.eq	1e000340b8 <phy_find_read_training_fail_bit+0x48c>  // b.none
  1e00034094:	6b0a00bf 	cmp	w5, w10
  1e00034098:	54000100 	b.eq	1e000340b8 <phy_find_read_training_fail_bit+0x48c>  // b.none
  1e0003409c:	52800023 	mov	w3, #0x1                   	// #1
  1e000340a0:	11000863 	add	w3, w3, #0x2
  1e000340a4:	17ffff54 	b	1e00033df4 <phy_find_read_training_fail_bit+0x1c8>
  1e000340a8:	6b05015f 	cmp	w10, w5
  1e000340ac:	54fffce0 	b.eq	1e00034048 <phy_find_read_training_fail_bit+0x41c>  // b.none
  1e000340b0:	52800003 	mov	w3, #0x0                   	// #0
  1e000340b4:	17fffffb 	b	1e000340a0 <phy_find_read_training_fail_bit+0x474>
  1e000340b8:	d2800144 	mov	x4, #0xa                   	// #10
  1e000340bc:	11000400 	add	w0, w0, #0x1
  1e000340c0:	9b042508 	madd	x8, x8, x4, x9
  1e000340c4:	3823690a 	strb	w10, [x8, x3]
  1e000340c8:	f86268e2 	ldr	x2, [x7, x2]
  1e000340cc:	b9465844 	ldr	w4, [x2, #1624]
  1e000340d0:	d3420c84 	ubfx	x4, x4, #2, #2
  1e000340d4:	34000644 	cbz	w4, 1e0003419c <phy_find_read_training_fail_bit+0x570>
  1e000340d8:	36000244 	tbz	w4, #0, 1e00034120 <phy_find_read_training_fail_bit+0x4f4>
  1e000340dc:	90000068 	adrp	x8, 1e00040000 <tx_lane+0x54c>
  1e000340e0:	9108c908 	add	x8, x8, #0x232
  1e000340e4:	93407cc7 	sxtw	x7, w6
  1e000340e8:	b0000082 	adrp	x2, 1e00045000 <list+0x1e8>
  1e000340ec:	91188042 	add	x2, x2, #0x620
  1e000340f0:	d2800145 	mov	x5, #0xa                   	// #10
  1e000340f4:	39403103 	ldrb	w3, [x8, #12]
  1e000340f8:	79401508 	ldrh	w8, [x8, #10]
  1e000340fc:	9b0508e5 	madd	x5, x7, x5, x2
  1e00034100:	91001863 	add	x3, x3, #0x6
  1e00034104:	386368a5 	ldrb	w5, [x5, x3]
  1e00034108:	71003cbf 	cmp	w5, #0xf
  1e0003410c:	54000381 	b.ne	1e0003417c <phy_find_read_training_fail_bit+0x550>  // b.any
  1e00034110:	d2800145 	mov	x5, #0xa                   	// #10
  1e00034114:	11000400 	add	w0, w0, #0x1
  1e00034118:	9b0508e7 	madd	x7, x7, x5, x2
  1e0003411c:	382368e8 	strb	w8, [x7, x3]
  1e00034120:	6b4407ff 	cmp	wzr, w4, lsr #1
  1e00034124:	540003c0 	b.eq	1e0003419c <phy_find_read_training_fail_bit+0x570>  // b.none
  1e00034128:	90000068 	adrp	x8, 1e00040000 <tx_lane+0x54c>
  1e0003412c:	9108c908 	add	x8, x8, #0x232
  1e00034130:	93407cc3 	sxtw	x3, w6
  1e00034134:	b0000087 	adrp	x7, 1e00045000 <list+0x1e8>
  1e00034138:	911880e7 	add	x7, x7, #0x620
  1e0003413c:	d2800145 	mov	x5, #0xa                   	// #10
  1e00034140:	39406902 	ldrb	w2, [x8, #26]
  1e00034144:	79403108 	ldrh	w8, [x8, #24]
  1e00034148:	9b051c65 	madd	x5, x3, x5, x7
  1e0003414c:	91001842 	add	x2, x2, #0x6
  1e00034150:	386268a5 	ldrb	w5, [x5, x2]
  1e00034154:	71003cbf 	cmp	w5, #0xf
  1e00034158:	540001a0 	b.eq	1e0003418c <phy_find_read_training_fail_bit+0x560>  // b.none
  1e0003415c:	6b0800bf 	cmp	w5, w8
  1e00034160:	54000160 	b.eq	1e0003418c <phy_find_read_training_fail_bit+0x560>  // b.none
  1e00034164:	52800023 	mov	w3, #0x1                   	// #1
  1e00034168:	90000040 	adrp	x0, 1e0003c000 <vsnprintf+0x270>
  1e0003416c:	11000863 	add	w3, w3, #0x2
  1e00034170:	2a0603e2 	mov	w2, w6
  1e00034174:	91389800 	add	x0, x0, #0xe26
  1e00034178:	17fffeed 	b	1e00033d2c <phy_find_read_training_fail_bit+0x100>
  1e0003417c:	6b05011f 	cmp	w8, w5
  1e00034180:	54fffc80 	b.eq	1e00034110 <phy_find_read_training_fail_bit+0x4e4>  // b.none
  1e00034184:	52800003 	mov	w3, #0x0                   	// #0
  1e00034188:	17fffff8 	b	1e00034168 <phy_find_read_training_fail_bit+0x53c>
  1e0003418c:	d2800141 	mov	x1, #0xa                   	// #10
  1e00034190:	11000400 	add	w0, w0, #0x1
  1e00034194:	9b011c63 	madd	x3, x3, x1, x7
  1e00034198:	38226868 	strb	w8, [x3, x2]
  1e0003419c:	34ffdcc0 	cbz	w0, 1e00033d34 <phy_find_read_training_fail_bit+0x108>
  1e000341a0:	b0000081 	adrp	x1, 1e00045000 <list+0x1e8>
  1e000341a4:	911b0021 	add	x1, x1, #0x6c0
  1e000341a8:	38666822 	ldrb	w2, [x1, x6]
  1e000341ac:	0b020002 	add	w2, w0, w2
  1e000341b0:	52800040 	mov	w0, #0x2                   	// #2
  1e000341b4:	38266822 	strb	w2, [x1, x6]
  1e000341b8:	17fffedf 	b	1e00033d34 <phy_find_read_training_fail_bit+0x108>

0000001e000341bc <phy_find_write_training_fail_bit>:
  1e000341bc:	d37d1c48 	ubfiz	x8, x2, #3, #8
  1e000341c0:	a9bf7bfd 	stp	x29, x30, [sp, #-16]!
  1e000341c4:	aa0003e7 	mov	x7, x0
  1e000341c8:	910003fd 	mov	x29, sp
  1e000341cc:	f8686800 	ldr	x0, [x0, x8]
  1e000341d0:	92401c46 	and	x6, x2, #0xff
  1e000341d4:	b9484c04 	ldr	w4, [x0, #2124]
  1e000341d8:	340007a4 	cbz	w4, 1e000342cc <phy_find_write_training_fail_bit+0x110>
  1e000341dc:	93407cc9 	sxtw	x9, w6
  1e000341e0:	b0000085 	adrp	x5, 1e00045000 <list+0x1e8>
  1e000341e4:	911880a5 	add	x5, x5, #0x620
  1e000341e8:	d280014a 	mov	x10, #0xa                   	// #10
  1e000341ec:	90000062 	adrp	x2, 1e00040000 <tx_lane+0x54c>
  1e000341f0:	9109a842 	add	x2, x2, #0x26a
  1e000341f4:	52800003 	mov	w3, #0x0                   	// #0
  1e000341f8:	52800000 	mov	w0, #0x0                   	// #0
  1e000341fc:	9b0a1529 	madd	x9, x9, x10, x5
  1e00034200:	1ac32485 	lsr	w5, w4, w3
  1e00034204:	36000245 	tbz	w5, #0, 1e0003424c <phy_find_write_training_fail_bit+0x90>
  1e00034208:	3940304a 	ldrb	w10, [x2, #12]
  1e0003420c:	7940144b 	ldrh	w11, [x2, #10]
  1e00034210:	386a6925 	ldrb	w5, [x9, x10]
  1e00034214:	71003cbf 	cmp	w5, #0xf
  1e00034218:	54000160 	b.eq	1e00034244 <phy_find_write_training_fail_bit+0x88>  // b.none
  1e0003421c:	6b0b00bf 	cmp	w5, w11
  1e00034220:	54000120 	b.eq	1e00034244 <phy_find_write_training_fail_bit+0x88>  // b.none
  1e00034224:	3100049f 	cmn	w4, #0x1
  1e00034228:	54001621 	b.ne	1e000344ec <phy_find_write_training_fail_bit+0x330>  // b.any
  1e0003422c:	90000040 	adrp	x0, 1e0003c000 <vsnprintf+0x270>
  1e00034230:	2a0403e3 	mov	w3, w4
  1e00034234:	2a0603e2 	mov	w2, w6
  1e00034238:	91326c00 	add	x0, x0, #0xc9b
  1e0003423c:	97fff6de 	bl	1e00031db4 <tf_log>
  1e00034240:	14000020 	b	1e000342c0 <phy_find_write_training_fail_bit+0x104>
  1e00034244:	11000400 	add	w0, w0, #0x1
  1e00034248:	382a692b 	strb	w11, [x9, x10]
  1e0003424c:	11000463 	add	w3, w3, #0x1
  1e00034250:	91003842 	add	x2, x2, #0xe
  1e00034254:	7100807f 	cmp	w3, #0x20
  1e00034258:	54fffd41 	b.ne	1e00034200 <phy_find_write_training_fail_bit+0x44>  // b.any
  1e0003425c:	f86868e2 	ldr	x2, [x7, x8]
  1e00034260:	b9485444 	ldr	w4, [x2, #2132]
  1e00034264:	d3482c84 	ubfx	x4, x4, #8, #4
  1e00034268:	34000424 	cbz	w4, 1e000342ec <phy_find_write_training_fail_bit+0x130>
  1e0003426c:	93407cc9 	sxtw	x9, w6
  1e00034270:	b0000085 	adrp	x5, 1e00045000 <list+0x1e8>
  1e00034274:	911880a5 	add	x5, x5, #0x620
  1e00034278:	d280014a 	mov	x10, #0xa                   	// #10
  1e0003427c:	90000062 	adrp	x2, 1e00040000 <tx_lane+0x54c>
  1e00034280:	9107e842 	add	x2, x2, #0x1fa
  1e00034284:	52800003 	mov	w3, #0x0                   	// #0
  1e00034288:	9b0a1529 	madd	x9, x9, x10, x5
  1e0003428c:	1ac32485 	lsr	w5, w4, w3
  1e00034290:	36000265 	tbz	w5, #0, 1e000342dc <phy_find_write_training_fail_bit+0x120>
  1e00034294:	3940304a 	ldrb	w10, [x2, #12]
  1e00034298:	7940144b 	ldrh	w11, [x2, #10]
  1e0003429c:	386a6925 	ldrb	w5, [x9, x10]
  1e000342a0:	71003cbf 	cmp	w5, #0xf
  1e000342a4:	54000180 	b.eq	1e000342d4 <phy_find_write_training_fail_bit+0x118>  // b.none
  1e000342a8:	6b0b00bf 	cmp	w5, w11
  1e000342ac:	54000140 	b.eq	1e000342d4 <phy_find_write_training_fail_bit+0x118>  // b.none
  1e000342b0:	90000040 	adrp	x0, 1e0003c000 <vsnprintf+0x270>
  1e000342b4:	2a0603e2 	mov	w2, w6
  1e000342b8:	91346800 	add	x0, x0, #0xd1a
  1e000342bc:	97fff6be 	bl	1e00031db4 <tf_log>
  1e000342c0:	12800020 	mov	w0, #0xfffffffe            	// #-2
  1e000342c4:	a8c17bfd 	ldp	x29, x30, [sp], #16
  1e000342c8:	d65f03c0 	ret
  1e000342cc:	52800000 	mov	w0, #0x0                   	// #0
  1e000342d0:	17ffffe3 	b	1e0003425c <phy_find_write_training_fail_bit+0xa0>
  1e000342d4:	11000400 	add	w0, w0, #0x1
  1e000342d8:	382a692b 	strb	w11, [x9, x10]
  1e000342dc:	11000463 	add	w3, w3, #0x1
  1e000342e0:	91003842 	add	x2, x2, #0xe
  1e000342e4:	7100107f 	cmp	w3, #0x4
  1e000342e8:	54fffd21 	b.ne	1e0003428c <phy_find_write_training_fail_bit+0xd0>  // b.any
  1e000342ec:	f86868e2 	ldr	x2, [x7, x8]
  1e000342f0:	b9485444 	ldr	w4, [x2, #2132]
  1e000342f4:	d3441484 	ubfx	x4, x4, #4, #2
  1e000342f8:	340005e4 	cbz	w4, 1e000343b4 <phy_find_write_training_fail_bit+0x1f8>
  1e000342fc:	36000224 	tbz	w4, #0, 1e00034340 <phy_find_write_training_fail_bit+0x184>
  1e00034300:	93407cc3 	sxtw	x3, w6
  1e00034304:	90000069 	adrp	x9, 1e00040000 <tx_lane+0x54c>
  1e00034308:	b0000082 	adrp	x2, 1e00045000 <list+0x1e8>
  1e0003430c:	91093929 	add	x9, x9, #0x24e
  1e00034310:	91188042 	add	x2, x2, #0x620
  1e00034314:	d2800145 	mov	x5, #0xa                   	// #10
  1e00034318:	3940312a 	ldrb	w10, [x9, #12]
  1e0003431c:	9b050865 	madd	x5, x3, x5, x2
  1e00034320:	79401529 	ldrh	w9, [x9, #10]
  1e00034324:	386a68a5 	ldrb	w5, [x5, x10]
  1e00034328:	71003cbf 	cmp	w5, #0xf
  1e0003432c:	54000341 	b.ne	1e00034394 <phy_find_write_training_fail_bit+0x1d8>  // b.any
  1e00034330:	d2800145 	mov	x5, #0xa                   	// #10
  1e00034334:	11000400 	add	w0, w0, #0x1
  1e00034338:	9b050863 	madd	x3, x3, x5, x2
  1e0003433c:	382a6869 	strb	w9, [x3, x10]
  1e00034340:	6b4407ff 	cmp	wzr, w4, lsr #1
  1e00034344:	54000380 	b.eq	1e000343b4 <phy_find_write_training_fail_bit+0x1f8>  // b.none
  1e00034348:	93407cc2 	sxtw	x2, w6
  1e0003434c:	90000069 	adrp	x9, 1e00040000 <tx_lane+0x54c>
  1e00034350:	b0000083 	adrp	x3, 1e00045000 <list+0x1e8>
  1e00034354:	91093929 	add	x9, x9, #0x24e
  1e00034358:	91188063 	add	x3, x3, #0x620
  1e0003435c:	d2800145 	mov	x5, #0xa                   	// #10
  1e00034360:	3940692a 	ldrb	w10, [x9, #26]
  1e00034364:	9b050c45 	madd	x5, x2, x5, x3
  1e00034368:	79403129 	ldrh	w9, [x9, #24]
  1e0003436c:	386a68a5 	ldrb	w5, [x5, x10]
  1e00034370:	71003cbf 	cmp	w5, #0xf
  1e00034374:	54000180 	b.eq	1e000343a4 <phy_find_write_training_fail_bit+0x1e8>  // b.none
  1e00034378:	6b0900bf 	cmp	w5, w9
  1e0003437c:	54000140 	b.eq	1e000343a4 <phy_find_write_training_fail_bit+0x1e8>  // b.none
  1e00034380:	52800023 	mov	w3, #0x1                   	// #1
  1e00034384:	90000040 	adrp	x0, 1e0003c000 <vsnprintf+0x270>
  1e00034388:	2a0603e2 	mov	w2, w6
  1e0003438c:	91358000 	add	x0, x0, #0xd60
  1e00034390:	17ffffcb 	b	1e000342bc <phy_find_write_training_fail_bit+0x100>
  1e00034394:	6b05013f 	cmp	w9, w5
  1e00034398:	54fffcc0 	b.eq	1e00034330 <phy_find_write_training_fail_bit+0x174>  // b.none
  1e0003439c:	52800003 	mov	w3, #0x0                   	// #0
  1e000343a0:	17fffff9 	b	1e00034384 <phy_find_write_training_fail_bit+0x1c8>
  1e000343a4:	d2800144 	mov	x4, #0xa                   	// #10
  1e000343a8:	11000400 	add	w0, w0, #0x1
  1e000343ac:	9b040c42 	madd	x2, x2, x4, x3
  1e000343b0:	382a6849 	strb	w9, [x2, x10]
  1e000343b4:	f86868e2 	ldr	x2, [x7, x8]
  1e000343b8:	b9485444 	ldr	w4, [x2, #2132]
  1e000343bc:	72000484 	ands	w4, w4, #0x3
  1e000343c0:	540005e0 	b.eq	1e0003447c <phy_find_write_training_fail_bit+0x2c0>  // b.none
  1e000343c4:	36000224 	tbz	w4, #0, 1e00034408 <phy_find_write_training_fail_bit+0x24c>
  1e000343c8:	93407cc3 	sxtw	x3, w6
  1e000343cc:	90000069 	adrp	x9, 1e00040000 <tx_lane+0x54c>
  1e000343d0:	b0000082 	adrp	x2, 1e00045000 <list+0x1e8>
  1e000343d4:	9108c929 	add	x9, x9, #0x232
  1e000343d8:	91188042 	add	x2, x2, #0x620
  1e000343dc:	d2800145 	mov	x5, #0xa                   	// #10
  1e000343e0:	3940312a 	ldrb	w10, [x9, #12]
  1e000343e4:	9b050865 	madd	x5, x3, x5, x2
  1e000343e8:	79401529 	ldrh	w9, [x9, #10]
  1e000343ec:	386a68a5 	ldrb	w5, [x5, x10]
  1e000343f0:	71003cbf 	cmp	w5, #0xf
  1e000343f4:	54000341 	b.ne	1e0003445c <phy_find_write_training_fail_bit+0x2a0>  // b.any
  1e000343f8:	d2800145 	mov	x5, #0xa                   	// #10
  1e000343fc:	11000400 	add	w0, w0, #0x1
  1e00034400:	9b050863 	madd	x3, x3, x5, x2
  1e00034404:	382a6869 	strb	w9, [x3, x10]
  1e00034408:	6b4407ff 	cmp	wzr, w4, lsr #1
  1e0003440c:	54000380 	b.eq	1e0003447c <phy_find_write_training_fail_bit+0x2c0>  // b.none
  1e00034410:	93407cc2 	sxtw	x2, w6
  1e00034414:	90000069 	adrp	x9, 1e00040000 <tx_lane+0x54c>
  1e00034418:	b0000083 	adrp	x3, 1e00045000 <list+0x1e8>
  1e0003441c:	9108c929 	add	x9, x9, #0x232
  1e00034420:	91188063 	add	x3, x3, #0x620
  1e00034424:	d2800145 	mov	x5, #0xa                   	// #10
  1e00034428:	3940692a 	ldrb	w10, [x9, #26]
  1e0003442c:	9b050c45 	madd	x5, x2, x5, x3
  1e00034430:	79403129 	ldrh	w9, [x9, #24]
  1e00034434:	386a68a5 	ldrb	w5, [x5, x10]
  1e00034438:	71003cbf 	cmp	w5, #0xf
  1e0003443c:	54000180 	b.eq	1e0003446c <phy_find_write_training_fail_bit+0x2b0>  // b.none
  1e00034440:	6b0900bf 	cmp	w5, w9
  1e00034444:	54000140 	b.eq	1e0003446c <phy_find_write_training_fail_bit+0x2b0>  // b.none
  1e00034448:	52800023 	mov	w3, #0x1                   	// #1
  1e0003444c:	90000040 	adrp	x0, 1e0003c000 <vsnprintf+0x270>
  1e00034450:	2a0603e2 	mov	w2, w6
  1e00034454:	91369800 	add	x0, x0, #0xda6
  1e00034458:	17ffff99 	b	1e000342bc <phy_find_write_training_fail_bit+0x100>
  1e0003445c:	6b05013f 	cmp	w9, w5
  1e00034460:	54fffcc0 	b.eq	1e000343f8 <phy_find_write_training_fail_bit+0x23c>  // b.none
  1e00034464:	52800003 	mov	w3, #0x0                   	// #0
  1e00034468:	17fffff9 	b	1e0003444c <phy_find_write_training_fail_bit+0x290>
  1e0003446c:	d2800144 	mov	x4, #0xa                   	// #10
  1e00034470:	11000400 	add	w0, w0, #0x1
  1e00034474:	9b040c42 	madd	x2, x2, x4, x3
  1e00034478:	382a6849 	strb	w9, [x2, x10]
  1e0003447c:	f86868e2 	ldr	x2, [x7, x8]
  1e00034480:	b9485043 	ldr	w3, [x2, #2128]
  1e00034484:	34000483 	cbz	w3, 1e00034514 <phy_find_write_training_fail_bit+0x358>
  1e00034488:	93407cca 	sxtw	x10, w6
  1e0003448c:	b0000084 	adrp	x4, 1e00045000 <list+0x1e8>
  1e00034490:	91188084 	add	x4, x4, #0x620
  1e00034494:	d2800145 	mov	x5, #0xa                   	// #10
  1e00034498:	90000069 	adrp	x9, 1e00040000 <tx_lane+0x54c>
  1e0003449c:	9109a929 	add	x9, x9, #0x26a
  1e000344a0:	52800002 	mov	w2, #0x0                   	// #0
  1e000344a4:	9b05114a 	madd	x10, x10, x5, x4
  1e000344a8:	1ac22464 	lsr	w4, w3, w2
  1e000344ac:	360002c4 	tbz	w4, #0, 1e00034504 <phy_find_write_training_fail_bit+0x348>
  1e000344b0:	39403124 	ldrb	w4, [x9, #12]
  1e000344b4:	7940152b 	ldrh	w11, [x9, #10]
  1e000344b8:	91001884 	add	x4, x4, #0x6
  1e000344bc:	38646945 	ldrb	w5, [x10, x4]
  1e000344c0:	71003cbf 	cmp	w5, #0xf
  1e000344c4:	540001c0 	b.eq	1e000344fc <phy_find_write_training_fail_bit+0x340>  // b.none
  1e000344c8:	6b0b00bf 	cmp	w5, w11
  1e000344cc:	54000180 	b.eq	1e000344fc <phy_find_write_training_fail_bit+0x340>  // b.none
  1e000344d0:	3100047f 	cmn	w3, #0x1
  1e000344d4:	54000081 	b.ne	1e000344e4 <phy_find_write_training_fail_bit+0x328>  // b.any
  1e000344d8:	90000040 	adrp	x0, 1e0003c000 <vsnprintf+0x270>
  1e000344dc:	9137b000 	add	x0, x0, #0xdec
  1e000344e0:	17ffff57 	b	1e0003423c <phy_find_write_training_fail_bit+0x80>
  1e000344e4:	2a0303e4 	mov	w4, w3
  1e000344e8:	11008043 	add	w3, w2, #0x20
  1e000344ec:	90000040 	adrp	x0, 1e0003c000 <vsnprintf+0x270>
  1e000344f0:	2a0603e2 	mov	w2, w6
  1e000344f4:	91335400 	add	x0, x0, #0xcd5
  1e000344f8:	17ffff71 	b	1e000342bc <phy_find_write_training_fail_bit+0x100>
  1e000344fc:	11000400 	add	w0, w0, #0x1
  1e00034500:	3824694b 	strb	w11, [x10, x4]
  1e00034504:	11000442 	add	w2, w2, #0x1
  1e00034508:	91003929 	add	x9, x9, #0xe
  1e0003450c:	7100805f 	cmp	w2, #0x20
  1e00034510:	54fffcc1 	b.ne	1e000344a8 <phy_find_write_training_fail_bit+0x2ec>  // b.any
  1e00034514:	f86868e2 	ldr	x2, [x7, x8]
  1e00034518:	b9485444 	ldr	w4, [x2, #2132]
  1e0003451c:	d34c3c84 	ubfx	x4, x4, #12, #4
  1e00034520:	340003c4 	cbz	w4, 1e00034598 <phy_find_write_training_fail_bit+0x3dc>
  1e00034524:	93407cc9 	sxtw	x9, w6
  1e00034528:	b0000085 	adrp	x5, 1e00045000 <list+0x1e8>
  1e0003452c:	911880a5 	add	x5, x5, #0x620
  1e00034530:	d280014a 	mov	x10, #0xa                   	// #10
  1e00034534:	90000062 	adrp	x2, 1e00040000 <tx_lane+0x54c>
  1e00034538:	9107e842 	add	x2, x2, #0x1fa
  1e0003453c:	52800003 	mov	w3, #0x0                   	// #0
  1e00034540:	9b0a1529 	madd	x9, x9, x10, x5
  1e00034544:	1ac32485 	lsr	w5, w4, w3
  1e00034548:	36000205 	tbz	w5, #0, 1e00034588 <phy_find_write_training_fail_bit+0x3cc>
  1e0003454c:	3940304a 	ldrb	w10, [x2, #12]
  1e00034550:	7940144b 	ldrh	w11, [x2, #10]
  1e00034554:	9100194a 	add	x10, x10, #0x6
  1e00034558:	386a6925 	ldrb	w5, [x9, x10]
  1e0003455c:	71003cbf 	cmp	w5, #0xf
  1e00034560:	54000100 	b.eq	1e00034580 <phy_find_write_training_fail_bit+0x3c4>  // b.none
  1e00034564:	6b0b00bf 	cmp	w5, w11
  1e00034568:	540000c0 	b.eq	1e00034580 <phy_find_write_training_fail_bit+0x3c4>  // b.none
  1e0003456c:	90000040 	adrp	x0, 1e0003c000 <vsnprintf+0x270>
  1e00034570:	11001063 	add	w3, w3, #0x4
  1e00034574:	2a0603e2 	mov	w2, w6
  1e00034578:	9139b000 	add	x0, x0, #0xe6c
  1e0003457c:	17ffff50 	b	1e000342bc <phy_find_write_training_fail_bit+0x100>
  1e00034580:	11000400 	add	w0, w0, #0x1
  1e00034584:	382a692b 	strb	w11, [x9, x10]
  1e00034588:	11000463 	add	w3, w3, #0x1
  1e0003458c:	91003842 	add	x2, x2, #0xe
  1e00034590:	7100107f 	cmp	w3, #0x4
  1e00034594:	54fffd81 	b.ne	1e00034544 <phy_find_write_training_fail_bit+0x388>  // b.any
  1e00034598:	f86868e2 	ldr	x2, [x7, x8]
  1e0003459c:	b9485444 	ldr	w4, [x2, #2132]
  1e000345a0:	d3461c84 	ubfx	x4, x4, #6, #2
  1e000345a4:	340005e4 	cbz	w4, 1e00034660 <phy_find_write_training_fail_bit+0x4a4>
  1e000345a8:	36000244 	tbz	w4, #0, 1e000345f0 <phy_find_write_training_fail_bit+0x434>
  1e000345ac:	9000006a 	adrp	x10, 1e00040000 <tx_lane+0x54c>
  1e000345b0:	9109394a 	add	x10, x10, #0x24e
  1e000345b4:	93407cc9 	sxtw	x9, w6
  1e000345b8:	b0000082 	adrp	x2, 1e00045000 <list+0x1e8>
  1e000345bc:	91188042 	add	x2, x2, #0x620
  1e000345c0:	d2800145 	mov	x5, #0xa                   	// #10
  1e000345c4:	39403143 	ldrb	w3, [x10, #12]
  1e000345c8:	7940154a 	ldrh	w10, [x10, #10]
  1e000345cc:	9b050925 	madd	x5, x9, x5, x2
  1e000345d0:	91001863 	add	x3, x3, #0x6
  1e000345d4:	386368a5 	ldrb	w5, [x5, x3]
  1e000345d8:	71003cbf 	cmp	w5, #0xf
  1e000345dc:	54000321 	b.ne	1e00034640 <phy_find_write_training_fail_bit+0x484>  // b.any
  1e000345e0:	d2800145 	mov	x5, #0xa                   	// #10
  1e000345e4:	11000400 	add	w0, w0, #0x1
  1e000345e8:	9b050929 	madd	x9, x9, x5, x2
  1e000345ec:	3823692a 	strb	w10, [x9, x3]
  1e000345f0:	6b4407ff 	cmp	wzr, w4, lsr #1
  1e000345f4:	54000360 	b.eq	1e00034660 <phy_find_write_training_fail_bit+0x4a4>  // b.none
  1e000345f8:	9000006a 	adrp	x10, 1e00040000 <tx_lane+0x54c>
  1e000345fc:	9109394a 	add	x10, x10, #0x24e
  1e00034600:	93407cc3 	sxtw	x3, w6
  1e00034604:	b0000089 	adrp	x9, 1e00045000 <list+0x1e8>
  1e00034608:	91188129 	add	x9, x9, #0x620
  1e0003460c:	d2800145 	mov	x5, #0xa                   	// #10
  1e00034610:	39406942 	ldrb	w2, [x10, #26]
  1e00034614:	7940314a 	ldrh	w10, [x10, #24]
  1e00034618:	9b052465 	madd	x5, x3, x5, x9
  1e0003461c:	91001842 	add	x2, x2, #0x6
  1e00034620:	386268a5 	ldrb	w5, [x5, x2]
  1e00034624:	71003cbf 	cmp	w5, #0xf
  1e00034628:	54000140 	b.eq	1e00034650 <phy_find_write_training_fail_bit+0x494>  // b.none
  1e0003462c:	6b0a00bf 	cmp	w5, w10
  1e00034630:	54000100 	b.eq	1e00034650 <phy_find_write_training_fail_bit+0x494>  // b.none
  1e00034634:	52800023 	mov	w3, #0x1                   	// #1
  1e00034638:	11000863 	add	w3, w3, #0x2
  1e0003463c:	17ffff52 	b	1e00034384 <phy_find_write_training_fail_bit+0x1c8>
  1e00034640:	6b05015f 	cmp	w10, w5
  1e00034644:	54fffce0 	b.eq	1e000345e0 <phy_find_write_training_fail_bit+0x424>  // b.none
  1e00034648:	52800003 	mov	w3, #0x0                   	// #0
  1e0003464c:	17fffffb 	b	1e00034638 <phy_find_write_training_fail_bit+0x47c>
  1e00034650:	d2800144 	mov	x4, #0xa                   	// #10
  1e00034654:	11000400 	add	w0, w0, #0x1
  1e00034658:	9b042463 	madd	x3, x3, x4, x9
  1e0003465c:	3822686a 	strb	w10, [x3, x2]
  1e00034660:	f86868e2 	ldr	x2, [x7, x8]
  1e00034664:	b9485444 	ldr	w4, [x2, #2132]
  1e00034668:	d3420c84 	ubfx	x4, x4, #2, #2
  1e0003466c:	34000644 	cbz	w4, 1e00034734 <phy_find_write_training_fail_bit+0x578>
  1e00034670:	36000244 	tbz	w4, #0, 1e000346b8 <phy_find_write_training_fail_bit+0x4fc>
  1e00034674:	90000068 	adrp	x8, 1e00040000 <tx_lane+0x54c>
  1e00034678:	9108c908 	add	x8, x8, #0x232
  1e0003467c:	93407cc7 	sxtw	x7, w6
  1e00034680:	b0000082 	adrp	x2, 1e00045000 <list+0x1e8>
  1e00034684:	91188042 	add	x2, x2, #0x620
  1e00034688:	d2800145 	mov	x5, #0xa                   	// #10
  1e0003468c:	39403103 	ldrb	w3, [x8, #12]
  1e00034690:	79401508 	ldrh	w8, [x8, #10]
  1e00034694:	9b0508e5 	madd	x5, x7, x5, x2
  1e00034698:	91001863 	add	x3, x3, #0x6
  1e0003469c:	386368a5 	ldrb	w5, [x5, x3]
  1e000346a0:	71003cbf 	cmp	w5, #0xf
  1e000346a4:	54000381 	b.ne	1e00034714 <phy_find_write_training_fail_bit+0x558>  // b.any
  1e000346a8:	d2800145 	mov	x5, #0xa                   	// #10
  1e000346ac:	11000400 	add	w0, w0, #0x1
  1e000346b0:	9b0508e7 	madd	x7, x7, x5, x2
  1e000346b4:	382368e8 	strb	w8, [x7, x3]
  1e000346b8:	6b4407ff 	cmp	wzr, w4, lsr #1
  1e000346bc:	540003c0 	b.eq	1e00034734 <phy_find_write_training_fail_bit+0x578>  // b.none
  1e000346c0:	90000068 	adrp	x8, 1e00040000 <tx_lane+0x54c>
  1e000346c4:	9108c908 	add	x8, x8, #0x232
  1e000346c8:	93407cc3 	sxtw	x3, w6
  1e000346cc:	b0000087 	adrp	x7, 1e00045000 <list+0x1e8>
  1e000346d0:	911880e7 	add	x7, x7, #0x620
  1e000346d4:	d2800145 	mov	x5, #0xa                   	// #10
  1e000346d8:	39406902 	ldrb	w2, [x8, #26]
  1e000346dc:	79403108 	ldrh	w8, [x8, #24]
  1e000346e0:	9b051c65 	madd	x5, x3, x5, x7
  1e000346e4:	91001842 	add	x2, x2, #0x6
  1e000346e8:	386268a5 	ldrb	w5, [x5, x2]
  1e000346ec:	71003cbf 	cmp	w5, #0xf
  1e000346f0:	540001a0 	b.eq	1e00034724 <phy_find_write_training_fail_bit+0x568>  // b.none
  1e000346f4:	6b0800bf 	cmp	w5, w8
  1e000346f8:	54000160 	b.eq	1e00034724 <phy_find_write_training_fail_bit+0x568>  // b.none
  1e000346fc:	52800023 	mov	w3, #0x1                   	// #1
  1e00034700:	90000040 	adrp	x0, 1e0003c000 <vsnprintf+0x270>
  1e00034704:	11000863 	add	w3, w3, #0x2
  1e00034708:	2a0603e2 	mov	w2, w6
  1e0003470c:	91389800 	add	x0, x0, #0xe26
  1e00034710:	17fffeeb 	b	1e000342bc <phy_find_write_training_fail_bit+0x100>
  1e00034714:	6b05011f 	cmp	w8, w5
  1e00034718:	54fffc80 	b.eq	1e000346a8 <phy_find_write_training_fail_bit+0x4ec>  // b.none
  1e0003471c:	52800003 	mov	w3, #0x0                   	// #0
  1e00034720:	17fffff8 	b	1e00034700 <phy_find_write_training_fail_bit+0x544>
  1e00034724:	d2800141 	mov	x1, #0xa                   	// #10
  1e00034728:	11000400 	add	w0, w0, #0x1
  1e0003472c:	9b011c63 	madd	x3, x3, x1, x7
  1e00034730:	38226868 	strb	w8, [x3, x2]
  1e00034734:	34ffdc80 	cbz	w0, 1e000342c4 <phy_find_write_training_fail_bit+0x108>
  1e00034738:	b0000081 	adrp	x1, 1e00045000 <list+0x1e8>
  1e0003473c:	911b0021 	add	x1, x1, #0x6c0
  1e00034740:	38666822 	ldrb	w2, [x1, x6]
  1e00034744:	0b020002 	add	w2, w0, w2
  1e00034748:	52800040 	mov	w0, #0x2                   	// #2
  1e0003474c:	38266822 	strb	w2, [x1, x6]
  1e00034750:	17fffedd 	b	1e000342c4 <phy_find_write_training_fail_bit+0x108>

0000001e00034754 <phy_acquire_vwm_buf>:
  1e00034754:	b0000083 	adrp	x3, 1e00045000 <list+0x1e8>
  1e00034758:	9122e063 	add	x3, x3, #0x8b8
  1e0003475c:	a9bf7bfd 	stp	x29, x30, [sp, #-16]!
  1e00034760:	aa0303e0 	mov	x0, x3
  1e00034764:	d2801402 	mov	x2, #0xa0                  	// #160
  1e00034768:	910003fd 	mov	x29, sp
  1e0003476c:	52800001 	mov	w1, #0x0                   	// #0
  1e00034770:	94001f06 	bl	1e0003c388 <memset>
  1e00034774:	a8c17bfd 	ldp	x29, x30, [sp], #16
  1e00034778:	d65f03c0 	ret

0000001e0003477c <enable_hashing>:
  1e0003477c:	36000481 	tbz	w1, #0, 1e0003480c <enable_hashing+0x90>
  1e00034780:	d2820281 	mov	x1, #0x1014                	// #4116
  1e00034784:	f2a004a1 	movk	x1, #0x25, lsl #16
  1e00034788:	f2c003c1 	movk	x1, #0x1e, lsl #32
  1e0003478c:	b9400021 	ldr	w1, [x1]
  1e00034790:	72080c21 	ands	w1, w1, #0xf000000
  1e00034794:	54000401 	b.ne	1e00034814 <enable_hashing+0x98>  // b.any
  1e00034798:	f9408400 	ldr	x0, [x0, #264]
  1e0003479c:	52908422 	mov	w2, #0x8421                	// #33825
  1e000347a0:	72a00202 	movk	w2, #0x10, lsl #16
  1e000347a4:	b9429801 	ldr	w1, [x0, #664]
  1e000347a8:	33005441 	bfxil	w1, w2, #0, #22
  1e000347ac:	b9029801 	str	w1, [x0, #664]
  1e000347b0:	52810842 	mov	w2, #0x842                 	// #2114
  1e000347b4:	b9429c01 	ldr	w1, [x0, #668]
  1e000347b8:	72a00422 	movk	w2, #0x21, lsl #16
  1e000347bc:	33005441 	bfxil	w1, w2, #0, #22
  1e000347c0:	b9029c01 	str	w1, [x0, #668]
  1e000347c4:	52821082 	mov	w2, #0x1084                	// #4228
  1e000347c8:	b942a001 	ldr	w1, [x0, #672]
  1e000347cc:	72a00042 	movk	w2, #0x2, lsl #16
  1e000347d0:	33005441 	bfxil	w1, w2, #0, #22
  1e000347d4:	b902a001 	str	w1, [x0, #672]
  1e000347d8:	52842102 	mov	w2, #0x2108                	// #8456
  1e000347dc:	b942a401 	ldr	w1, [x0, #676]
  1e000347e0:	72a00082 	movk	w2, #0x4, lsl #16
  1e000347e4:	33005441 	bfxil	w1, w2, #0, #22
  1e000347e8:	b902a401 	str	w1, [x0, #676]
  1e000347ec:	52884202 	mov	w2, #0x4210                	// #16912
  1e000347f0:	b942a801 	ldr	w1, [x0, #680]
  1e000347f4:	72a00102 	movk	w2, #0x8, lsl #16
  1e000347f8:	33005441 	bfxil	w1, w2, #0, #22
  1e000347fc:	b902a801 	str	w1, [x0, #680]
  1e00034800:	394a5001 	ldrb	w1, [x0, #660]
  1e00034804:	32000021 	orr	w1, w1, #0x1
  1e00034808:	390a5001 	strb	w1, [x0, #660]
  1e0003480c:	52800140 	mov	w0, #0xa                   	// #10
  1e00034810:	17fffc31 	b	1e000338d4 <udelay>
  1e00034814:	52a02002 	mov	w2, #0x1000000             	// #16777216
  1e00034818:	6b02003f 	cmp	w1, w2
  1e0003481c:	54ffff81 	b.ne	1e0003480c <enable_hashing+0x90>  // b.any
  1e00034820:	f9408400 	ldr	x0, [x0, #264]
  1e00034824:	52908422 	mov	w2, #0x8421                	// #33825
  1e00034828:	72a00202 	movk	w2, #0x10, lsl #16
  1e0003482c:	b9429801 	ldr	w1, [x0, #664]
  1e00034830:	33005441 	bfxil	w1, w2, #0, #22
  1e00034834:	b9029801 	str	w1, [x0, #664]
  1e00034838:	52810842 	mov	w2, #0x842                 	// #2114
  1e0003483c:	b9429c01 	ldr	w1, [x0, #668]
  1e00034840:	72a00422 	movk	w2, #0x21, lsl #16
  1e00034844:	33005441 	bfxil	w1, w2, #0, #22
  1e00034848:	b9029c01 	str	w1, [x0, #668]
  1e0003484c:	52821082 	mov	w2, #0x1084                	// #4228
  1e00034850:	b942a001 	ldr	w1, [x0, #672]
  1e00034854:	72a00042 	movk	w2, #0x2, lsl #16
  1e00034858:	33005441 	bfxil	w1, w2, #0, #22
  1e0003485c:	b902a001 	str	w1, [x0, #672]
  1e00034860:	52842102 	mov	w2, #0x2108                	// #8456
  1e00034864:	b942a401 	ldr	w1, [x0, #676]
  1e00034868:	72a00082 	movk	w2, #0x4, lsl #16
  1e0003486c:	33005441 	bfxil	w1, w2, #0, #22
  1e00034870:	b902a401 	str	w1, [x0, #676]
  1e00034874:	52884202 	mov	w2, #0x4210                	// #16912
  1e00034878:	b942a801 	ldr	w1, [x0, #680]
  1e0003487c:	72a00102 	movk	w2, #0x8, lsl #16
  1e00034880:	33005441 	bfxil	w1, w2, #0, #22
  1e00034884:	b902a801 	str	w1, [x0, #680]
  1e00034888:	52a00081 	mov	w1, #0x40000               	// #262144
  1e0003488c:	b9000c01 	str	w1, [x0, #12]
  1e00034890:	52a00101 	mov	w1, #0x80000               	// #524288
  1e00034894:	b9001001 	str	w1, [x0, #16]
  1e00034898:	17ffffda 	b	1e00034800 <enable_hashing+0x84>

0000001e0003489c <hbm3_dfi_init>:
  1e0003489c:	a9bc7bfd 	stp	x29, x30, [sp, #-64]!
  1e000348a0:	910003fd 	mov	x29, sp
  1e000348a4:	a9025bf5 	stp	x21, x22, [sp, #32]
  1e000348a8:	2a0103f5 	mov	w21, w1
  1e000348ac:	d37d7eb6 	ubfiz	x22, x21, #3, #32
  1e000348b0:	f9001bf7 	str	x23, [sp, #48]
  1e000348b4:	8b160017 	add	x23, x0, x22
  1e000348b8:	a90153f3 	stp	x19, x20, [sp, #16]
  1e000348bc:	aa0003f3 	mov	x19, x0
  1e000348c0:	aa0203f4 	mov	x20, x2
  1e000348c4:	f94042e0 	ldr	x0, [x23, #128]
  1e000348c8:	91401000 	add	x0, x0, #0x4, lsl #12
  1e000348cc:	b9505001 	ldr	w1, [x0, #4176]
  1e000348d0:	32000021 	orr	w1, w1, #0x1
  1e000348d4:	b9105001 	str	w1, [x0, #4176]
  1e000348d8:	528000a0 	mov	w0, #0x5                   	// #5
  1e000348dc:	97fffbfe 	bl	1e000338d4 <udelay>
  1e000348e0:	f94042e0 	ldr	x0, [x23, #128]
  1e000348e4:	91401000 	add	x0, x0, #0x4, lsl #12
  1e000348e8:	b9400282 	ldr	w2, [x20]
  1e000348ec:	b9503401 	ldr	w1, [x0, #4148]
  1e000348f0:	710fa05f 	cmp	w2, #0x3e8
  1e000348f4:	54000129 	b.ls	1e00034918 <hbm3_dfi_init+0x7c>  // b.plast
  1e000348f8:	a94153f3 	ldp	x19, x20, [sp, #16]
  1e000348fc:	2a1503e1 	mov	w1, w21
  1e00034900:	a9425bf5 	ldp	x21, x22, [sp, #32]
  1e00034904:	90000040 	adrp	x0, 1e0003c000 <vsnprintf+0x270>
  1e00034908:	f9401bf7 	ldr	x23, [sp, #48]
  1e0003490c:	913acc00 	add	x0, x0, #0xeb3
  1e00034910:	a8c47bfd 	ldp	x29, x30, [sp], #64
  1e00034914:	17fff528 	b	1e00031db4 <tf_log>
  1e00034918:	11000442 	add	w2, w2, #0x1
  1e0003491c:	b9000282 	str	w2, [x20]
  1e00034920:	3607fe41 	tbz	w1, #0, 1e000348e8 <hbm3_dfi_init+0x4c>
  1e00034924:	b9505001 	ldr	w1, [x0, #4176]
  1e00034928:	121f7821 	and	w1, w1, #0xfffffffe
  1e0003492c:	b9105001 	str	w1, [x0, #4176]
  1e00034930:	f9408661 	ldr	x1, [x19, #264]
  1e00034934:	39491020 	ldrb	w0, [x1, #580]
  1e00034938:	32000000 	orr	w0, w0, #0x1
  1e0003493c:	39091020 	strb	w0, [x1, #580]
  1e00034940:	f8766a61 	ldr	x1, [x19, x22]
  1e00034944:	b9400020 	ldr	w0, [x1]
  1e00034948:	12117800 	and	w0, w0, #0xffffbfff
  1e0003494c:	b9000020 	str	w0, [x1]
  1e00034950:	a94153f3 	ldp	x19, x20, [sp, #16]
  1e00034954:	a9425bf5 	ldp	x21, x22, [sp, #32]
  1e00034958:	f9401bf7 	ldr	x23, [sp, #48]
  1e0003495c:	a8c47bfd 	ldp	x29, x30, [sp], #64
  1e00034960:	d65f03c0 	ret

0000001e00034964 <get_read_latency>:
  1e00034964:	92401c00 	and	x0, x0, #0xff
  1e00034968:	7100101f 	cmp	w0, #0x4
  1e0003496c:	540000a8 	b.hi	1e00034980 <get_read_latency+0x1c>  // b.pmore
  1e00034970:	90000041 	adrp	x1, 1e0003c000 <vsnprintf+0x270>
  1e00034974:	911fd021 	add	x1, x1, #0x7f4
  1e00034978:	78607820 	ldrh	w0, [x1, x0, lsl #1]
  1e0003497c:	35000120 	cbnz	w0, 1e000349a0 <get_read_latency+0x3c>
  1e00034980:	a9bf7bfd 	stp	x29, x30, [sp, #-16]!
  1e00034984:	90000040 	adrp	x0, 1e0003c000 <vsnprintf+0x270>
  1e00034988:	913b3000 	add	x0, x0, #0xecc
  1e0003498c:	910003fd 	mov	x29, sp
  1e00034990:	97fff509 	bl	1e00031db4 <tf_log>
  1e00034994:	52800000 	mov	w0, #0x0                   	// #0
  1e00034998:	a8c17bfd 	ldp	x29, x30, [sp], #16
  1e0003499c:	d65f03c0 	ret
  1e000349a0:	7112c01f 	cmp	w0, #0x4b0
  1e000349a4:	54000149 	b.ls	1e000349cc <get_read_latency+0x68>  // b.plast
  1e000349a8:	7119001f 	cmp	w0, #0x640
  1e000349ac:	54000149 	b.ls	1e000349d4 <get_read_latency+0x70>  // b.plast
  1e000349b0:	711f401f 	cmp	w0, #0x7d0
  1e000349b4:	54000149 	b.ls	1e000349dc <get_read_latency+0x78>  // b.plast
  1e000349b8:	7123f01f 	cmp	w0, #0x8fc
  1e000349bc:	528008c1 	mov	w1, #0x46                  	// #70
  1e000349c0:	52800920 	mov	w0, #0x49                  	// #73
  1e000349c4:	1a818000 	csel	w0, w0, w1, hi	// hi = pmore
  1e000349c8:	d65f03c0 	ret
  1e000349cc:	52800520 	mov	w0, #0x29                  	// #41
  1e000349d0:	d65f03c0 	ret
  1e000349d4:	52800660 	mov	w0, #0x33                  	// #51
  1e000349d8:	d65f03c0 	ret
  1e000349dc:	528007c0 	mov	w0, #0x3e                  	// #62
  1e000349e0:	d65f03c0 	ret

0000001e000349e4 <get_write_latency>:
  1e000349e4:	92401c00 	and	x0, x0, #0xff
  1e000349e8:	7100101f 	cmp	w0, #0x4
  1e000349ec:	540000a8 	b.hi	1e00034a00 <get_write_latency+0x1c>  // b.pmore
  1e000349f0:	90000041 	adrp	x1, 1e0003c000 <vsnprintf+0x270>
  1e000349f4:	911fd021 	add	x1, x1, #0x7f4
  1e000349f8:	78607820 	ldrh	w0, [x1, x0, lsl #1]
  1e000349fc:	35000120 	cbnz	w0, 1e00034a20 <get_write_latency+0x3c>
  1e00034a00:	a9bf7bfd 	stp	x29, x30, [sp, #-16]!
  1e00034a04:	90000040 	adrp	x0, 1e0003c000 <vsnprintf+0x270>
  1e00034a08:	913b3000 	add	x0, x0, #0xecc
  1e00034a0c:	910003fd 	mov	x29, sp
  1e00034a10:	97fff4e9 	bl	1e00031db4 <tf_log>
  1e00034a14:	52800000 	mov	w0, #0x0                   	// #0
  1e00034a18:	a8c17bfd 	ldp	x29, x30, [sp], #16
  1e00034a1c:	d65f03c0 	ret
  1e00034a20:	7112c01f 	cmp	w0, #0x4b0
  1e00034a24:	54000109 	b.ls	1e00034a44 <get_write_latency+0x60>  // b.plast
  1e00034a28:	7119001f 	cmp	w0, #0x640
  1e00034a2c:	54000109 	b.ls	1e00034a4c <get_write_latency+0x68>  // b.plast
  1e00034a30:	711f401f 	cmp	w0, #0x7d0
  1e00034a34:	528001e1 	mov	w1, #0xf                   	// #15
  1e00034a38:	52800220 	mov	w0, #0x11                  	// #17
  1e00034a3c:	1a818000 	csel	w0, w0, w1, hi	// hi = pmore
  1e00034a40:	d65f03c0 	ret
  1e00034a44:	52800120 	mov	w0, #0x9                   	// #9
  1e00034a48:	d65f03c0 	ret
  1e00034a4c:	52800180 	mov	w0, #0xc                   	// #12
  1e00034a50:	d65f03c0 	ret

0000001e00034a54 <icon_mrs>:
  1e00034a54:	a9bd7bfd 	stp	x29, x30, [sp, #-48]!
  1e00034a58:	910003fd 	mov	x29, sp
  1e00034a5c:	a90153f3 	stp	x19, x20, [sp, #16]
  1e00034a60:	aa0003f3 	mov	x19, x0
  1e00034a64:	52800000 	mov	w0, #0x0                   	// #0
  1e00034a68:	97ffffbf 	bl	1e00034964 <get_read_latency>
  1e00034a6c:	2a0003f4 	mov	w20, w0
  1e00034a70:	52800000 	mov	w0, #0x0                   	// #0
  1e00034a74:	97ffffdc 	bl	1e000349e4 <get_write_latency>
  1e00034a78:	f9404261 	ldr	x1, [x19, #128]
  1e00034a7c:	91402021 	add	x1, x1, #0x8, lsl #12
  1e00034a80:	b9555422 	ldr	w2, [x1, #5460]
  1e00034a84:	53181002 	ubfiz	w2, w0, #8, #5
  1e00034a88:	794043e0 	ldrh	w0, [sp, #32]
  1e00034a8c:	32000842 	orr	w2, w2, #0x7
  1e00034a90:	b9555824 	ldr	w4, [x1, #5464]
  1e00034a94:	12134800 	and	w0, w0, #0xffffe000
  1e00034a98:	b9555823 	ldr	w3, [x1, #5464]
  1e00034a9c:	2a000042 	orr	w2, w2, w0
  1e00034aa0:	790043e2 	strh	w2, [sp, #32]
  1e00034aa4:	39008bf4 	strb	w20, [sp, #34]
  1e00034aa8:	d3411884 	ubfx	x4, x4, #1, #6
  1e00034aac:	d3493863 	ubfx	x3, x3, #9, #6
  1e00034ab0:	b9544420 	ldr	w0, [x1, #5188]
  1e00034ab4:	39008fe0 	strb	w0, [sp, #35]
  1e00034ab8:	b9541c20 	ldr	w0, [x1, #5148]
  1e00034abc:	d3401800 	ubfx	x0, x0, #0, #7
  1e00034ac0:	390093e0 	strb	w0, [sp, #36]
  1e00034ac4:	b9544020 	ldr	w0, [x1, #5184]
  1e00034ac8:	12000c00 	and	w0, w0, #0xf
  1e00034acc:	390097e0 	strb	w0, [sp, #37]
  1e00034ad0:	39409be0 	ldrb	w0, [sp, #38]
  1e00034ad4:	b9551022 	ldr	w2, [x1, #5392]
  1e00034ad8:	33000840 	bfxil	w0, w2, #0, #3
  1e00034adc:	39009be0 	strb	w0, [sp, #38]
  1e00034ae0:	394087e0 	ldrb	w0, [sp, #33]
  1e00034ae4:	910083e2 	add	x2, sp, #0x20
  1e00034ae8:	b9551021 	ldr	w1, [x1, #5392]
  1e00034aec:	12001000 	and	w0, w0, #0x1f
  1e00034af0:	390087e0 	strb	w0, [sp, #33]
  1e00034af4:	79404fe0 	ldrh	w0, [sp, #38]
  1e00034af8:	121d0821 	and	w1, w1, #0x38
  1e00034afc:	12000800 	and	w0, w0, #0x7
  1e00034b00:	2a000021 	orr	w1, w1, w0
  1e00034b04:	d2806020 	mov	x0, #0x301                 	// #769
  1e00034b08:	aa04c404 	orr	x4, x0, x4, lsl #49
  1e00034b0c:	aa1303e0 	mov	x0, x19
  1e00034b10:	aa03e483 	orr	x3, x4, x3, lsl #57
  1e00034b14:	79004fe1 	strh	w1, [sp, #38]
  1e00034b18:	528003e1 	mov	w1, #0x1f                  	// #31
  1e00034b1c:	f90017e3 	str	x3, [sp, #40]
  1e00034b20:	97fff233 	bl	1e000313ec <icon_mrs_ch>
  1e00034b24:	a94153f3 	ldp	x19, x20, [sp, #16]
  1e00034b28:	52800000 	mov	w0, #0x0                   	// #0
  1e00034b2c:	a8c37bfd 	ldp	x29, x30, [sp], #48
  1e00034b30:	d65f03c0 	ret

0000001e00034b34 <phy_pre_training>:
  1e00034b34:	a9bb7bfd 	stp	x29, x30, [sp, #-80]!
  1e00034b38:	910003fd 	mov	x29, sp
  1e00034b3c:	a9025bf5 	stp	x21, x22, [sp, #32]
  1e00034b40:	12001c35 	and	w21, w1, #0xff
  1e00034b44:	aa0003f6 	mov	x22, x0
  1e00034b48:	d37d1eb5 	ubfiz	x21, x21, #3, #8
  1e00034b4c:	a90363f7 	stp	x23, x24, [sp, #48]
  1e00034b50:	8b1502d8 	add	x24, x22, x21
  1e00034b54:	52800000 	mov	w0, #0x0                   	// #0
  1e00034b58:	a90153f3 	stp	x19, x20, [sp, #16]
  1e00034b5c:	f90023f9 	str	x25, [sp, #64]
  1e00034b60:	97ffff81 	bl	1e00034964 <get_read_latency>
  1e00034b64:	12001c14 	and	w20, w0, #0xff
  1e00034b68:	52800000 	mov	w0, #0x0                   	// #0
  1e00034b6c:	97ffff9e 	bl	1e000349e4 <get_write_latency>
  1e00034b70:	12001c04 	and	w4, w0, #0xff
  1e00034b74:	f9404300 	ldr	x0, [x24, #128]
  1e00034b78:	d2820299 	mov	x25, #0x1014                	// #4116
  1e00034b7c:	f2a004b9 	movk	x25, #0x25, lsl #16
  1e00034b80:	2a1403f7 	mov	w23, w20
  1e00034b84:	91402000 	add	x0, x0, #0x8, lsl #12
  1e00034b88:	f2c003d9 	movk	x25, #0x1e, lsl #32
  1e00034b8c:	2a0403f3 	mov	w19, w4
  1e00034b90:	52800343 	mov	w3, #0x1a                  	// #26
  1e00034b94:	b9555401 	ldr	w1, [x0, #5460]
  1e00034b98:	b9400321 	ldr	w1, [x25]
  1e00034b9c:	72080c3f 	tst	w1, #0xf000000
  1e00034ba0:	f8756ac1 	ldr	x1, [x22, x21]
  1e00034ba4:	b9444022 	ldr	w2, [x1, #1088]
  1e00034ba8:	54000b61 	b.ne	1e00034d14 <phy_pre_training+0x1e0>  // b.any
  1e00034bac:	330a1c62 	bfi	w2, w3, #22, #8
  1e00034bb0:	b9044022 	str	w2, [x1, #1088]
  1e00034bb4:	12001673 	and	w19, w19, #0x3f
  1e00034bb8:	f8756ac2 	ldr	x2, [x22, x21]
  1e00034bbc:	b9540c03 	ldr	w3, [x0, #5132]
  1e00034bc0:	12001063 	and	w3, w3, #0x1f
  1e00034bc4:	b9443840 	ldr	w0, [x2, #1080]
  1e00034bc8:	11000863 	add	w3, w3, #0x2
  1e00034bcc:	0b030084 	add	w4, w4, w3
  1e00034bd0:	53017e83 	lsr	w3, w20, #1
  1e00034bd4:	51001863 	sub	w3, w3, #0x6
  1e00034bd8:	33121480 	bfi	w0, w4, #14, #6
  1e00034bdc:	b9043840 	str	w0, [x2, #1080]
  1e00034be0:	b9400040 	ldr	w0, [x2]
  1e00034be4:	33001ae0 	bfxil	w0, w23, #0, #7
  1e00034be8:	b9000040 	str	w0, [x2]
  1e00034bec:	b9443440 	ldr	w0, [x2, #1076]
  1e00034bf0:	33001660 	bfxil	w0, w19, #0, #6
  1e00034bf4:	b9043440 	str	w0, [x2, #1076]
  1e00034bf8:	b9400c40 	ldr	w0, [x2, #12]
  1e00034bfc:	71003c7f 	cmp	w3, #0xf
  1e00034c00:	540008e9 	b.ls	1e00034d1c <phy_pre_training+0x1e8>  // b.plast
  1e00034c04:	321e0c00 	orr	w0, w0, #0x3c
  1e00034c08:	b9000c40 	str	w0, [x2, #12]
  1e00034c0c:	52800041 	mov	w1, #0x2                   	// #2
  1e00034c10:	b940b440 	ldr	w0, [x2, #180]
  1e00034c14:	33000420 	bfxil	w0, w1, #0, #2
  1e00034c18:	b900b440 	str	w0, [x2, #180]
  1e00034c1c:	b9401c40 	ldr	w0, [x2, #28]
  1e00034c20:	321d0000 	orr	w0, w0, #0x8
  1e00034c24:	b9001c40 	str	w0, [x2, #28]
  1e00034c28:	b9400840 	ldr	w0, [x2, #8]
  1e00034c2c:	12167800 	and	w0, w0, #0xfffffdff
  1e00034c30:	b9000840 	str	w0, [x2, #8]
  1e00034c34:	b9403c40 	ldr	w0, [x2, #60]
  1e00034c38:	12197800 	and	w0, w0, #0xffffffbf
  1e00034c3c:	b9003c40 	str	w0, [x2, #60]
  1e00034c40:	b9439440 	ldr	w0, [x2, #916]
  1e00034c44:	120d7800 	and	w0, w0, #0xfffbffff
  1e00034c48:	b9039440 	str	w0, [x2, #916]
  1e00034c4c:	52800020 	mov	w0, #0x1                   	// #1
  1e00034c50:	97fffb21 	bl	1e000338d4 <udelay>
  1e00034c54:	f8756ac1 	ldr	x1, [x22, x21]
  1e00034c58:	b9403020 	ldr	w0, [x1, #48]
  1e00034c5c:	12157800 	and	w0, w0, #0xfffffbff
  1e00034c60:	b9003020 	str	w0, [x1, #48]
  1e00034c64:	b940ac20 	ldr	w0, [x1, #172]
  1e00034c68:	320e0000 	orr	w0, w0, #0x40000
  1e00034c6c:	b900ac20 	str	w0, [x1, #172]
  1e00034c70:	b9443420 	ldr	w0, [x1, #1076]
  1e00034c74:	33001660 	bfxil	w0, w19, #0, #6
  1e00034c78:	b9043420 	str	w0, [x1, #1076]
  1e00034c7c:	b9400320 	ldr	w0, [x25]
  1e00034c80:	72080c1f 	tst	w0, #0xf000000
  1e00034c84:	f9404300 	ldr	x0, [x24, #128]
  1e00034c88:	91402000 	add	x0, x0, #0x8, lsl #12
  1e00034c8c:	b9543800 	ldr	w0, [x0, #5176]
  1e00034c90:	b9444022 	ldr	w2, [x1, #1088]
  1e00034c94:	11000400 	add	w0, w0, #0x1
  1e00034c98:	54000461 	b.ne	1e00034d24 <phy_pre_training+0x1f0>  // b.any
  1e00034c9c:	33192402 	bfi	w2, w0, #7, #10
  1e00034ca0:	b9044022 	str	w2, [x1, #1088]
  1e00034ca4:	f9404300 	ldr	x0, [x24, #128]
  1e00034ca8:	91402000 	add	x0, x0, #0x8, lsl #12
  1e00034cac:	b9545002 	ldr	w2, [x0, #5200]
  1e00034cb0:	12002842 	and	w2, w2, #0x7ff
  1e00034cb4:	7107fc5f 	cmp	w2, #0x1ff
  1e00034cb8:	540003a9 	b.ls	1e00034d2c <phy_pre_training+0x1f8>  // b.plast
  1e00034cbc:	b9443c20 	ldr	w0, [x1, #1084]
  1e00034cc0:	52803fe2 	mov	w2, #0x1ff                 	// #511
  1e00034cc4:	33152440 	bfi	w0, w2, #11, #10
  1e00034cc8:	b9043c20 	str	w0, [x1, #1084]
  1e00034ccc:	b9439420 	ldr	w0, [x1, #916]
  1e00034cd0:	320d0000 	orr	w0, w0, #0x80000
  1e00034cd4:	b9039420 	str	w0, [x1, #916]
  1e00034cd8:	b9400820 	ldr	w0, [x1, #8]
  1e00034cdc:	32190000 	orr	w0, w0, #0x80
  1e00034ce0:	b9000820 	str	w0, [x1, #8]
  1e00034ce4:	b9400820 	ldr	w0, [x1, #8]
  1e00034ce8:	32180000 	orr	w0, w0, #0x100
  1e00034cec:	b9000820 	str	w0, [x1, #8]
  1e00034cf0:	b9439420 	ldr	w0, [x1, #916]
  1e00034cf4:	320c0000 	orr	w0, w0, #0x100000
  1e00034cf8:	b9039420 	str	w0, [x1, #916]
  1e00034cfc:	a94153f3 	ldp	x19, x20, [sp, #16]
  1e00034d00:	a9425bf5 	ldp	x21, x22, [sp, #32]
  1e00034d04:	a94363f7 	ldp	x23, x24, [sp, #48]
  1e00034d08:	f94023f9 	ldr	x25, [sp, #64]
  1e00034d0c:	a8c57bfd 	ldp	x29, x30, [sp], #80
  1e00034d10:	d65f03c0 	ret
  1e00034d14:	33081c62 	bfi	w2, w3, #24, #8
  1e00034d18:	17ffffa6 	b	1e00034bb0 <phy_pre_training+0x7c>
  1e00034d1c:	331e0c60 	bfi	w0, w3, #2, #4
  1e00034d20:	17ffffba 	b	1e00034c08 <phy_pre_training+0xd4>
  1e00034d24:	33182802 	bfi	w2, w0, #8, #11
  1e00034d28:	17ffffde 	b	1e00034ca0 <phy_pre_training+0x16c>
  1e00034d2c:	b9545002 	ldr	w2, [x0, #5200]
  1e00034d30:	b9443c20 	ldr	w0, [x1, #1084]
  1e00034d34:	17ffffe4 	b	1e00034cc4 <phy_pre_training+0x190>

0000001e00034d38 <tmrs_default_set>:
  1e00034d38:	a9bd7bfd 	stp	x29, x30, [sp, #-48]!
  1e00034d3c:	910003fd 	mov	x29, sp
  1e00034d40:	f9408002 	ldr	x2, [x0, #256]
  1e00034d44:	a90153f3 	stp	x19, x20, [sp, #16]
  1e00034d48:	aa0003f3 	mov	x19, x0
  1e00034d4c:	f90013f5 	str	x21, [sp, #32]
  1e00034d50:	52816a15 	mov	w21, #0xb50                 	// #2896
  1e00034d54:	72a40015 	movk	w21, #0x2000, lsl #16
  1e00034d58:	52816874 	mov	w20, #0xb43                 	// #2883
  1e00034d5c:	b9400041 	ldr	w1, [x2]
  1e00034d60:	72a3c014 	movk	w20, #0x1e00, lsl #16
  1e00034d64:	321f0021 	orr	w1, w1, #0x2
  1e00034d68:	b9000041 	str	w1, [x2]
  1e00034d6c:	97fff1e4 	bl	1e000314fc <tmrs_gen_inst>
  1e00034d70:	52820001 	mov	w1, #0x1000                	// #4096
  1e00034d74:	aa1303e0 	mov	x0, x19
  1e00034d78:	72a7c001 	movk	w1, #0x3e00, lsl #16
  1e00034d7c:	97fff1ce 	bl	1e000314b4 <tmrs_write>
  1e00034d80:	2a1503e1 	mov	w1, w21
  1e00034d84:	aa1303e0 	mov	x0, x19
  1e00034d88:	97fff1cb 	bl	1e000314b4 <tmrs_write>
  1e00034d8c:	5118a2b5 	sub	w21, w21, #0x628
  1e00034d90:	2a1403e1 	mov	w1, w20
  1e00034d94:	aa1303e0 	mov	x0, x19
  1e00034d98:	97fff1c7 	bl	1e000314b4 <tmrs_write>
  1e00034d9c:	510b4e94 	sub	w20, w20, #0x2d3
  1e00034da0:	2a1503e1 	mov	w1, w21
  1e00034da4:	aa1303e0 	mov	x0, x19
  1e00034da8:	97fff1c3 	bl	1e000314b4 <tmrs_write>
  1e00034dac:	2a1403e1 	mov	w1, w20
  1e00034db0:	aa1303e0 	mov	x0, x19
  1e00034db4:	97fff1c0 	bl	1e000314b4 <tmrs_write>
  1e00034db8:	11080281 	add	w1, w20, #0x200
  1e00034dbc:	aa1303e0 	mov	x0, x19
  1e00034dc0:	97fff1bd 	bl	1e000314b4 <tmrs_write>
  1e00034dc4:	510e62a1 	sub	w1, w21, #0x398
  1e00034dc8:	aa1303e0 	mov	x0, x19
  1e00034dcc:	97fff1ba 	bl	1e000314b4 <tmrs_write>
  1e00034dd0:	510c1a81 	sub	w1, w20, #0x306
  1e00034dd4:	aa1303e0 	mov	x0, x19
  1e00034dd8:	97fff1b7 	bl	1e000314b4 <tmrs_write>
  1e00034ddc:	510a9681 	sub	w1, w20, #0x2a5
  1e00034de0:	aa1303e0 	mov	x0, x19
  1e00034de4:	97fff1b4 	bl	1e000314b4 <tmrs_write>
  1e00034de8:	51081a81 	sub	w1, w20, #0x206
  1e00034dec:	aa1303e0 	mov	x0, x19
  1e00034df0:	97fff1b1 	bl	1e000314b4 <tmrs_write>
  1e00034df4:	51069681 	sub	w1, w20, #0x1a5
  1e00034df8:	aa1303e0 	mov	x0, x19
  1e00034dfc:	97fff1ae 	bl	1e000314b4 <tmrs_write>
  1e00034e00:	51186a81 	sub	w1, w20, #0x61a
  1e00034e04:	aa1303e0 	mov	x0, x19
  1e00034e08:	97fff1ab 	bl	1e000314b4 <tmrs_write>
  1e00034e0c:	51106a81 	sub	w1, w20, #0x41a
  1e00034e10:	aa1303e0 	mov	x0, x19
  1e00034e14:	97fff1a8 	bl	1e000314b4 <tmrs_write>
  1e00034e18:	51056681 	sub	w1, w20, #0x159
  1e00034e1c:	aa1303e0 	mov	x0, x19
  1e00034e20:	97fff1a5 	bl	1e000314b4 <tmrs_write>
  1e00034e24:	51115a81 	sub	w1, w20, #0x456
  1e00034e28:	aa1303e0 	mov	x0, x19
  1e00034e2c:	97fff1a2 	bl	1e000314b4 <tmrs_write>
  1e00034e30:	51095a81 	sub	w1, w20, #0x256
  1e00034e34:	aa1303e0 	mov	x0, x19
  1e00034e38:	97fff19f 	bl	1e000314b4 <tmrs_write>
  1e00034e3c:	51115e81 	sub	w1, w20, #0x457
  1e00034e40:	aa1303e0 	mov	x0, x19
  1e00034e44:	97fff19c 	bl	1e000314b4 <tmrs_write>
  1e00034e48:	5280a0c1 	mov	w1, #0x506                 	// #1286
  1e00034e4c:	aa1303e0 	mov	x0, x19
  1e00034e50:	72a10001 	movk	w1, #0x800, lsl #16
  1e00034e54:	97fff198 	bl	1e000314b4 <tmrs_write>
  1e00034e58:	51082a81 	sub	w1, w20, #0x20a
  1e00034e5c:	aa1303e0 	mov	x0, x19
  1e00034e60:	97fff195 	bl	1e000314b4 <tmrs_write>
  1e00034e64:	51042a81 	sub	w1, w20, #0x10a
  1e00034e68:	aa1303e0 	mov	x0, x19
  1e00034e6c:	97fff192 	bl	1e000314b4 <tmrs_write>
  1e00034e70:	1107da81 	add	w1, w20, #0x1f6
  1e00034e74:	aa1303e0 	mov	x0, x19
  1e00034e78:	97fff18f 	bl	1e000314b4 <tmrs_write>
  1e00034e7c:	110bda81 	add	w1, w20, #0x2f6
  1e00034e80:	aa1303e0 	mov	x0, x19
  1e00034e84:	97fff18c 	bl	1e000314b4 <tmrs_write>
  1e00034e88:	110f6a81 	add	w1, w20, #0x3da
  1e00034e8c:	aa1303e0 	mov	x0, x19
  1e00034e90:	97fff189 	bl	1e000314b4 <tmrs_write>
  1e00034e94:	110faa81 	add	w1, w20, #0x3ea
  1e00034e98:	aa1303e0 	mov	x0, x19
  1e00034e9c:	97fff186 	bl	1e000314b4 <tmrs_write>
  1e00034ea0:	aa1303e0 	mov	x0, x19
  1e00034ea4:	97fff1a6 	bl	1e0003153c <tmrs_bypass>
  1e00034ea8:	aa1303e0 	mov	x0, x19
  1e00034eac:	528003e1 	mov	w1, #0x1f                  	// #31
  1e00034eb0:	97fffee9 	bl	1e00034a54 <icon_mrs>
  1e00034eb4:	f9408261 	ldr	x1, [x19, #256]
  1e00034eb8:	b9400020 	ldr	w0, [x1]
  1e00034ebc:	121e7800 	and	w0, w0, #0xfffffffd
  1e00034ec0:	b9000020 	str	w0, [x1]
  1e00034ec4:	52800000 	mov	w0, #0x0                   	// #0
  1e00034ec8:	a94153f3 	ldp	x19, x20, [sp, #16]
  1e00034ecc:	f94013f5 	ldr	x21, [sp, #32]
  1e00034ed0:	a8c37bfd 	ldp	x29, x30, [sp], #48
  1e00034ed4:	d65f03c0 	ret

0000001e00034ed8 <set_tmrs>:
  1e00034ed8:	a9be7bfd 	stp	x29, x30, [sp, #-32]!
  1e00034edc:	910003fd 	mov	x29, sp
  1e00034ee0:	f9408001 	ldr	x1, [x0, #256]
  1e00034ee4:	f9000bf3 	str	x19, [sp, #16]
  1e00034ee8:	aa0003f3 	mov	x19, x0
  1e00034eec:	b9400020 	ldr	w0, [x1]
  1e00034ef0:	32000000 	orr	w0, w0, #0x1
  1e00034ef4:	b9000020 	str	w0, [x1]
  1e00034ef8:	52800140 	mov	w0, #0xa                   	// #10
  1e00034efc:	97fffa76 	bl	1e000338d4 <udelay>
  1e00034f00:	f9408661 	ldr	x1, [x19, #264]
  1e00034f04:	39491020 	ldrb	w0, [x1, #580]
  1e00034f08:	32000000 	orr	w0, w0, #0x1
  1e00034f0c:	39091020 	strb	w0, [x1, #580]
  1e00034f10:	52800140 	mov	w0, #0xa                   	// #10
  1e00034f14:	97fffa70 	bl	1e000338d4 <udelay>
  1e00034f18:	aa1303e0 	mov	x0, x19
  1e00034f1c:	97ffff87 	bl	1e00034d38 <tmrs_default_set>
  1e00034f20:	52800140 	mov	w0, #0xa                   	// #10
  1e00034f24:	97fffa6c 	bl	1e000338d4 <udelay>
  1e00034f28:	f9408261 	ldr	x1, [x19, #256]
  1e00034f2c:	b9400020 	ldr	w0, [x1]
  1e00034f30:	121f7800 	and	w0, w0, #0xfffffffe
  1e00034f34:	b9000020 	str	w0, [x1]
  1e00034f38:	52800000 	mov	w0, #0x0                   	// #0
  1e00034f3c:	f9400bf3 	ldr	x19, [sp, #16]
  1e00034f40:	a8c27bfd 	ldp	x29, x30, [sp], #32
  1e00034f44:	d65f03c0 	ret

0000001e00034f48 <phy_read_training_fail_check>:
  1e00034f48:	92401c21 	and	x1, x1, #0xff
  1e00034f4c:	f8617800 	ldr	x0, [x0, x1, lsl #3]
  1e00034f50:	b900005f 	str	wzr, [x2]
  1e00034f54:	b900007f 	str	wzr, [x3]
  1e00034f58:	b9465001 	ldr	w1, [x0, #1616]
  1e00034f5c:	7100003f 	cmp	w1, #0x0
  1e00034f60:	1a9f07e1 	cset	w1, ne	// ne = any
  1e00034f64:	b9000041 	str	w1, [x2]
  1e00034f68:	b9465804 	ldr	w4, [x0, #1624]
  1e00034f6c:	f2780c9f 	tst	x4, #0xf00
  1e00034f70:	54000060 	b.eq	1e00034f7c <phy_read_training_fail_check+0x34>  // b.none
  1e00034f74:	321f0021 	orr	w1, w1, #0x2
  1e00034f78:	b9000041 	str	w1, [x2]
  1e00034f7c:	b9465801 	ldr	w1, [x0, #1624]
  1e00034f80:	f27c043f 	tst	x1, #0x30
  1e00034f84:	54000080 	b.eq	1e00034f94 <phy_read_training_fail_check+0x4c>  // b.none
  1e00034f88:	b9400041 	ldr	w1, [x2]
  1e00034f8c:	321e0021 	orr	w1, w1, #0x4
  1e00034f90:	b9000041 	str	w1, [x2]
  1e00034f94:	b9465801 	ldr	w1, [x0, #1624]
  1e00034f98:	f240043f 	tst	x1, #0x3
  1e00034f9c:	54000080 	b.eq	1e00034fac <phy_read_training_fail_check+0x64>  // b.none
  1e00034fa0:	b9400041 	ldr	w1, [x2]
  1e00034fa4:	321d0021 	orr	w1, w1, #0x8
  1e00034fa8:	b9000041 	str	w1, [x2]
  1e00034fac:	b9465401 	ldr	w1, [x0, #1620]
  1e00034fb0:	34000081 	cbz	w1, 1e00034fc0 <phy_read_training_fail_check+0x78>
  1e00034fb4:	b9400061 	ldr	w1, [x3]
  1e00034fb8:	32000021 	orr	w1, w1, #0x1
  1e00034fbc:	b9000061 	str	w1, [x3]
  1e00034fc0:	b9465801 	ldr	w1, [x0, #1624]
  1e00034fc4:	f2740c3f 	tst	x1, #0xf000
  1e00034fc8:	54000080 	b.eq	1e00034fd8 <phy_read_training_fail_check+0x90>  // b.none
  1e00034fcc:	b9400061 	ldr	w1, [x3]
  1e00034fd0:	321f0021 	orr	w1, w1, #0x2
  1e00034fd4:	b9000061 	str	w1, [x3]
  1e00034fd8:	b9465801 	ldr	w1, [x0, #1624]
  1e00034fdc:	f27a043f 	tst	x1, #0xc0
  1e00034fe0:	54000080 	b.eq	1e00034ff0 <phy_read_training_fail_check+0xa8>  // b.none
  1e00034fe4:	b9400061 	ldr	w1, [x3]
  1e00034fe8:	321e0021 	orr	w1, w1, #0x4
  1e00034fec:	b9000061 	str	w1, [x3]
  1e00034ff0:	b9465800 	ldr	w0, [x0, #1624]
  1e00034ff4:	f27e041f 	tst	x0, #0xc
  1e00034ff8:	54000080 	b.eq	1e00035008 <phy_read_training_fail_check+0xc0>  // b.none
  1e00034ffc:	b9400060 	ldr	w0, [x3]
  1e00035000:	321d0000 	orr	w0, w0, #0x8
  1e00035004:	b9000060 	str	w0, [x3]
  1e00035008:	52800000 	mov	w0, #0x0                   	// #0
  1e0003500c:	d65f03c0 	ret

0000001e00035010 <phy_write_training_fail_check>:
  1e00035010:	92401c21 	and	x1, x1, #0xff
  1e00035014:	f8617800 	ldr	x0, [x0, x1, lsl #3]
  1e00035018:	b900005f 	str	wzr, [x2]
  1e0003501c:	b900007f 	str	wzr, [x3]
  1e00035020:	b9484c01 	ldr	w1, [x0, #2124]
  1e00035024:	7100003f 	cmp	w1, #0x0
  1e00035028:	1a9f07e1 	cset	w1, ne	// ne = any
  1e0003502c:	b9000041 	str	w1, [x2]
  1e00035030:	b9485404 	ldr	w4, [x0, #2132]
  1e00035034:	f2780c9f 	tst	x4, #0xf00
  1e00035038:	54000060 	b.eq	1e00035044 <phy_write_training_fail_check+0x34>  // b.none
  1e0003503c:	321f0021 	orr	w1, w1, #0x2
  1e00035040:	b9000041 	str	w1, [x2]
  1e00035044:	b9485401 	ldr	w1, [x0, #2132]
  1e00035048:	f27c043f 	tst	x1, #0x30
  1e0003504c:	54000080 	b.eq	1e0003505c <phy_write_training_fail_check+0x4c>  // b.none
  1e00035050:	b9400041 	ldr	w1, [x2]
  1e00035054:	321e0021 	orr	w1, w1, #0x4
  1e00035058:	b9000041 	str	w1, [x2]
  1e0003505c:	b9485401 	ldr	w1, [x0, #2132]
  1e00035060:	f240043f 	tst	x1, #0x3
  1e00035064:	54000080 	b.eq	1e00035074 <phy_write_training_fail_check+0x64>  // b.none
  1e00035068:	b9400041 	ldr	w1, [x2]
  1e0003506c:	321d0021 	orr	w1, w1, #0x8
  1e00035070:	b9000041 	str	w1, [x2]
  1e00035074:	b9485001 	ldr	w1, [x0, #2128]
  1e00035078:	34000081 	cbz	w1, 1e00035088 <phy_write_training_fail_check+0x78>
  1e0003507c:	b9400061 	ldr	w1, [x3]
  1e00035080:	32000021 	orr	w1, w1, #0x1
  1e00035084:	b9000061 	str	w1, [x3]
  1e00035088:	b9485401 	ldr	w1, [x0, #2132]
  1e0003508c:	f2740c3f 	tst	x1, #0xf000
  1e00035090:	54000080 	b.eq	1e000350a0 <phy_write_training_fail_check+0x90>  // b.none
  1e00035094:	b9400061 	ldr	w1, [x3]
  1e00035098:	321f0021 	orr	w1, w1, #0x2
  1e0003509c:	b9000061 	str	w1, [x3]
  1e000350a0:	b9485401 	ldr	w1, [x0, #2132]
  1e000350a4:	f27a043f 	tst	x1, #0xc0
  1e000350a8:	54000080 	b.eq	1e000350b8 <phy_write_training_fail_check+0xa8>  // b.none
  1e000350ac:	b9400061 	ldr	w1, [x3]
  1e000350b0:	321e0021 	orr	w1, w1, #0x4
  1e000350b4:	b9000061 	str	w1, [x3]
  1e000350b8:	b9485400 	ldr	w0, [x0, #2132]
  1e000350bc:	f27e041f 	tst	x0, #0xc
  1e000350c0:	54000080 	b.eq	1e000350d0 <phy_write_training_fail_check+0xc0>  // b.none
  1e000350c4:	b9400060 	ldr	w0, [x3]
  1e000350c8:	321d0000 	orr	w0, w0, #0x8
  1e000350cc:	b9000060 	str	w0, [x3]
  1e000350d0:	52800000 	mov	w0, #0x0                   	// #0
  1e000350d4:	d65f03c0 	ret

0000001e000350d8 <phy_find_min_result>:
  1e000350d8:	b4000863 	cbz	x3, 1e000351e4 <phy_find_min_result+0x10c>
  1e000350dc:	529fffe5 	mov	w5, #0xffff                	// #65535
  1e000350e0:	52800000 	mov	w0, #0x0                   	// #0
  1e000350e4:	d37f7c01 	ubfiz	x1, x0, #1, #32
  1e000350e8:	11000400 	add	w0, w0, #0x1
  1e000350ec:	8b010046 	add	x6, x2, x1
  1e000350f0:	38616847 	ldrb	w7, [x2, x1]
  1e000350f4:	394004c6 	ldrb	w6, [x6, #1]
  1e000350f8:	aa0620e1 	orr	x1, x7, x6, lsl #8
  1e000350fc:	2a0620e6 	orr	w6, w7, w6, lsl #8
  1e00035100:	6b0600bf 	cmp	w5, w6
  1e00035104:	1a8130a1 	csel	w1, w5, w1, cc	// cc = lo, ul, last
  1e00035108:	12003c25 	and	w5, w1, #0xffff
  1e0003510c:	7100801f 	cmp	w0, #0x20
  1e00035110:	54fffea1 	b.ne	1e000350e4 <phy_find_min_result+0xc>  // b.any
  1e00035114:	39420048 	ldrb	w8, [x2, #128]
  1e00035118:	39420849 	ldrb	w9, [x2, #130]
  1e0003511c:	39420446 	ldrb	w6, [x2, #129]
  1e00035120:	39420c47 	ldrb	w7, [x2, #131]
  1e00035124:	aa06210a 	orr	x10, x8, x6, lsl #8
  1e00035128:	2a062106 	orr	w6, w8, w6, lsl #8
  1e0003512c:	aa072120 	orr	x0, x9, x7, lsl #8
  1e00035130:	2a072127 	orr	w7, w9, w7, lsl #8
  1e00035134:	6b0600ff 	cmp	w7, w6
  1e00035138:	39422049 	ldrb	w9, [x2, #136]
  1e0003513c:	1a8a3000 	csel	w0, w0, w10, cc	// cc = lo, ul, last
  1e00035140:	39422447 	ldrb	w7, [x2, #137]
  1e00035144:	3942284a 	ldrb	w10, [x2, #138]
  1e00035148:	39422c48 	ldrb	w8, [x2, #139]
  1e0003514c:	aa07212b 	orr	x11, x9, x7, lsl #8
  1e00035150:	2a072127 	orr	w7, w9, w7, lsl #8
  1e00035154:	39424049 	ldrb	w9, [x2, #144]
  1e00035158:	aa082146 	orr	x6, x10, x8, lsl #8
  1e0003515c:	2a082148 	orr	w8, w10, w8, lsl #8
  1e00035160:	6b07011f 	cmp	w8, w7
  1e00035164:	3942484a 	ldrb	w10, [x2, #146]
  1e00035168:	1a8b30c6 	csel	w6, w6, w11, cc	// cc = lo, ul, last
  1e0003516c:	39424c48 	ldrb	w8, [x2, #147]
  1e00035170:	12003cc7 	and	w7, w6, #0xffff
  1e00035174:	6b2020ff 	cmp	w7, w0, uxth
  1e00035178:	39424447 	ldrb	w7, [x2, #145]
  1e0003517c:	1a862000 	csel	w0, w0, w6, cs	// cs = hs, nlast
  1e00035180:	aa082146 	orr	x6, x10, x8, lsl #8
  1e00035184:	2a082148 	orr	w8, w10, w8, lsl #8
  1e00035188:	3942504a 	ldrb	w10, [x2, #148]
  1e0003518c:	aa07212b 	orr	x11, x9, x7, lsl #8
  1e00035190:	2a072127 	orr	w7, w9, w7, lsl #8
  1e00035194:	6b07011f 	cmp	w8, w7
  1e00035198:	39425849 	ldrb	w9, [x2, #150]
  1e0003519c:	1a8b30c6 	csel	w6, w6, w11, cc	// cc = lo, ul, last
  1e000351a0:	39425448 	ldrb	w8, [x2, #149]
  1e000351a4:	12003cc7 	and	w7, w6, #0xffff
  1e000351a8:	6b2020ff 	cmp	w7, w0, uxth
  1e000351ac:	39425c47 	ldrb	w7, [x2, #151]
  1e000351b0:	1a862000 	csel	w0, w0, w6, cs	// cs = hs, nlast
  1e000351b4:	aa082146 	orr	x6, x10, x8, lsl #8
  1e000351b8:	2a082148 	orr	w8, w10, w8, lsl #8
  1e000351bc:	aa07212b 	orr	x11, x9, x7, lsl #8
  1e000351c0:	2a072127 	orr	w7, w9, w7, lsl #8
  1e000351c4:	6b07011f 	cmp	w8, w7
  1e000351c8:	1a8b30c6 	csel	w6, w6, w11, cc	// cc = lo, ul, last
  1e000351cc:	12003cc7 	and	w7, w6, #0xffff
  1e000351d0:	6b2020ff 	cmp	w7, w0, uxth
  1e000351d4:	1a862000 	csel	w0, w0, w6, cs	// cs = hs, nlast
  1e000351d8:	6b2020bf 	cmp	w5, w0, uxth
  1e000351dc:	1a812000 	csel	w0, w0, w1, cs	// cs = hs, nlast
  1e000351e0:	79000060 	strh	w0, [x3]
  1e000351e4:	b4000704 	cbz	x4, 1e000352c4 <phy_find_min_result+0x1ec>
  1e000351e8:	52800400 	mov	w0, #0x20                  	// #32
  1e000351ec:	529fffe3 	mov	w3, #0xffff                	// #65535
  1e000351f0:	d37f7c01 	ubfiz	x1, x0, #1, #32
  1e000351f4:	11000400 	add	w0, w0, #0x1
  1e000351f8:	8b010045 	add	x5, x2, x1
  1e000351fc:	38616846 	ldrb	w6, [x2, x1]
  1e00035200:	394004a5 	ldrb	w5, [x5, #1]
  1e00035204:	aa0520c1 	orr	x1, x6, x5, lsl #8
  1e00035208:	2a0520c5 	orr	w5, w6, w5, lsl #8
  1e0003520c:	6b05007f 	cmp	w3, w5
  1e00035210:	1a813061 	csel	w1, w3, w1, cc	// cc = lo, ul, last
  1e00035214:	12003c23 	and	w3, w1, #0xffff
  1e00035218:	7101001f 	cmp	w0, #0x40
  1e0003521c:	54fffea1 	b.ne	1e000351f0 <phy_find_min_result+0x118>  // b.any
  1e00035220:	39421047 	ldrb	w7, [x2, #132]
  1e00035224:	39421848 	ldrb	w8, [x2, #134]
  1e00035228:	39421445 	ldrb	w5, [x2, #133]
  1e0003522c:	39421c46 	ldrb	w6, [x2, #135]
  1e00035230:	aa0520e9 	orr	x9, x7, x5, lsl #8
  1e00035234:	2a0520e5 	orr	w5, w7, w5, lsl #8
  1e00035238:	aa062100 	orr	x0, x8, x6, lsl #8
  1e0003523c:	2a062106 	orr	w6, w8, w6, lsl #8
  1e00035240:	6b0500df 	cmp	w6, w5
  1e00035244:	39423048 	ldrb	w8, [x2, #140]
  1e00035248:	1a893000 	csel	w0, w0, w9, cc	// cc = lo, ul, last
  1e0003524c:	39423446 	ldrb	w6, [x2, #141]
  1e00035250:	39423849 	ldrb	w9, [x2, #142]
  1e00035254:	39423c47 	ldrb	w7, [x2, #143]
  1e00035258:	aa06210a 	orr	x10, x8, x6, lsl #8
  1e0003525c:	2a062106 	orr	w6, w8, w6, lsl #8
  1e00035260:	aa072125 	orr	x5, x9, x7, lsl #8
  1e00035264:	2a072127 	orr	w7, w9, w7, lsl #8
  1e00035268:	6b0600ff 	cmp	w7, w6
  1e0003526c:	1a8a30a5 	csel	w5, w5, w10, cc	// cc = lo, ul, last
  1e00035270:	12003ca6 	and	w6, w5, #0xffff
  1e00035274:	6b2020df 	cmp	w6, w0, uxth
  1e00035278:	1a852000 	csel	w0, w0, w5, cs	// cs = hs, nlast
  1e0003527c:	6b20207f 	cmp	w3, w0, uxth
  1e00035280:	52800083 	mov	w3, #0x4                   	// #4
  1e00035284:	1a812000 	csel	w0, w0, w1, cs	// cs = hs, nlast
  1e00035288:	12003c00 	and	w0, w0, #0xffff
  1e0003528c:	d37f7c61 	ubfiz	x1, x3, #1, #32
  1e00035290:	11000463 	add	w3, w3, #0x1
  1e00035294:	91024021 	add	x1, x1, #0x90
  1e00035298:	8b010045 	add	x5, x2, x1
  1e0003529c:	38616846 	ldrb	w6, [x2, x1]
  1e000352a0:	394004a5 	ldrb	w5, [x5, #1]
  1e000352a4:	aa0520c1 	orr	x1, x6, x5, lsl #8
  1e000352a8:	2a0520c5 	orr	w5, w6, w5, lsl #8
  1e000352ac:	6b05001f 	cmp	w0, w5
  1e000352b0:	1a813001 	csel	w1, w0, w1, cc	// cc = lo, ul, last
  1e000352b4:	12003c20 	and	w0, w1, #0xffff
  1e000352b8:	7100207f 	cmp	w3, #0x8
  1e000352bc:	54fffe81 	b.ne	1e0003528c <phy_find_min_result+0x1b4>  // b.any
  1e000352c0:	79000081 	strh	w1, [x4]
  1e000352c4:	52800000 	mov	w0, #0x0                   	// #0
  1e000352c8:	d65f03c0 	ret

0000001e000352cc <phy_get_training_result>:
  1e000352cc:	92401c21 	and	x1, x1, #0xff
  1e000352d0:	52800003 	mov	w3, #0x0                   	// #0
  1e000352d4:	f8617801 	ldr	x1, [x0, x1, lsl #3]
  1e000352d8:	91137026 	add	x6, x1, #0x4dc
  1e000352dc:	91139027 	add	x7, x1, #0x4e4
  1e000352e0:	9113f028 	add	x8, x1, #0x4fc
  1e000352e4:	b9437420 	ldr	w0, [x1, #884]
  1e000352e8:	91117025 	add	x5, x1, #0x45c
  1e000352ec:	531b6869 	lsl	w9, w3, #5
  1e000352f0:	33000460 	bfxil	w0, w3, #0, #2
  1e000352f4:	b9037420 	str	w0, [x1, #884]
  1e000352f8:	b84044a4 	ldr	w4, [x5], #4
  1e000352fc:	d3547480 	ubfx	x0, x4, #20, #10
  1e00035300:	d3402484 	ubfx	x4, x4, #0, #10
  1e00035304:	4b040000 	sub	w0, w0, w4
  1e00035308:	d37f7d24 	ubfiz	x4, x9, #1, #32
  1e0003530c:	8b04004a 	add	x10, x2, x4
  1e00035310:	11000529 	add	w9, w9, #0x1
  1e00035314:	38246840 	strb	w0, [x2, x4]
  1e00035318:	d3483c00 	ubfx	x0, x0, #8, #8
  1e0003531c:	39000540 	strb	w0, [x10, #1]
  1e00035320:	eb0600bf 	cmp	x5, x6
  1e00035324:	54fffea1 	b.ne	1e000352f8 <phy_get_training_result+0x2c>  // b.any
  1e00035328:	b94000c9 	ldr	w9, [x6]
  1e0003532c:	d37e0064 	ubfiz	x4, x3, #2, #1
  1e00035330:	8b040044 	add	x4, x2, x4
  1e00035334:	531f7860 	lsl	w0, w3, #1
  1e00035338:	11000400 	add	w0, w0, #0x1
  1e0003533c:	531e746a 	lsl	w10, w3, #2
  1e00035340:	d3547525 	ubfx	x5, x9, #20, #10
  1e00035344:	d3402529 	ubfx	x9, x9, #0, #10
  1e00035348:	4b0900a5 	sub	w5, w5, w9
  1e0003534c:	b944e029 	ldr	w9, [x1, #1248]
  1e00035350:	d37f0800 	ubfiz	x0, x0, #1, #3
  1e00035354:	39020085 	strb	w5, [x4, #128]
  1e00035358:	d3483ca5 	ubfx	x5, x5, #8, #8
  1e0003535c:	8b000040 	add	x0, x2, x0
  1e00035360:	39020485 	strb	w5, [x4, #129]
  1e00035364:	d3547525 	ubfx	x5, x9, #20, #10
  1e00035368:	d3402529 	ubfx	x9, x9, #0, #10
  1e0003536c:	4b0900a5 	sub	w5, w5, w9
  1e00035370:	b94000e9 	ldr	w9, [x7]
  1e00035374:	39020005 	strb	w5, [x0, #128]
  1e00035378:	d3483ca5 	ubfx	x5, x5, #8, #8
  1e0003537c:	39020405 	strb	w5, [x0, #129]
  1e00035380:	d3547525 	ubfx	x5, x9, #20, #10
  1e00035384:	d3402529 	ubfx	x9, x9, #0, #10
  1e00035388:	4b0900a5 	sub	w5, w5, w9
  1e0003538c:	39022085 	strb	w5, [x4, #136]
  1e00035390:	9113b029 	add	x9, x1, #0x4ec
  1e00035394:	d3483ca5 	ubfx	x5, x5, #8, #8
  1e00035398:	39022485 	strb	w5, [x4, #137]
  1e0003539c:	b944e825 	ldr	w5, [x1, #1256]
  1e000353a0:	d35474a4 	ubfx	x4, x5, #20, #10
  1e000353a4:	d34024a5 	ubfx	x5, x5, #0, #10
  1e000353a8:	4b050084 	sub	w4, w4, w5
  1e000353ac:	39022004 	strb	w4, [x0, #136]
  1e000353b0:	d3483c84 	ubfx	x4, x4, #8, #8
  1e000353b4:	39022404 	strb	w4, [x0, #137]
  1e000353b8:	b8404525 	ldr	w5, [x9], #4
  1e000353bc:	d37f7d44 	ubfiz	x4, x10, #1, #32
  1e000353c0:	91024084 	add	x4, x4, #0x90
  1e000353c4:	1100054a 	add	w10, w10, #0x1
  1e000353c8:	d35474a0 	ubfx	x0, x5, #20, #10
  1e000353cc:	d34024a5 	ubfx	x5, x5, #0, #10
  1e000353d0:	4b050000 	sub	w0, w0, w5
  1e000353d4:	8b040045 	add	x5, x2, x4
  1e000353d8:	38246840 	strb	w0, [x2, x4]
  1e000353dc:	d3483c00 	ubfx	x0, x0, #8, #8
  1e000353e0:	390004a0 	strb	w0, [x5, #1]
  1e000353e4:	eb08013f 	cmp	x9, x8
  1e000353e8:	54fffe81 	b.ne	1e000353b8 <phy_get_training_result+0xec>  // b.any
  1e000353ec:	34000063 	cbz	w3, 1e000353f8 <phy_get_training_result+0x12c>
  1e000353f0:	52800000 	mov	w0, #0x0                   	// #0
  1e000353f4:	d65f03c0 	ret
  1e000353f8:	52800023 	mov	w3, #0x1                   	// #1
  1e000353fc:	17ffffba 	b	1e000352e4 <phy_get_training_result+0x18>

0000001e00035400 <phy_update_ca_ra_deskew>:
  1e00035400:	92401c21 	and	x1, x1, #0xff
  1e00035404:	b9400045 	ldr	w5, [x2]
  1e00035408:	f8617800 	ldr	x0, [x0, x1, lsl #3]
  1e0003540c:	b9408001 	ldr	w1, [x0, #128]
  1e00035410:	330020a1 	bfxil	w1, w5, #0, #9
  1e00035414:	b9008001 	str	w1, [x0, #128]
  1e00035418:	b9408001 	ldr	w1, [x0, #128]
  1e0003541c:	b9400445 	ldr	w5, [x2, #4]
  1e00035420:	331020a1 	bfi	w1, w5, #16, #9
  1e00035424:	b9008001 	str	w1, [x0, #128]
  1e00035428:	b9408401 	ldr	w1, [x0, #132]
  1e0003542c:	b9400845 	ldr	w5, [x2, #8]
  1e00035430:	330020a1 	bfxil	w1, w5, #0, #9
  1e00035434:	b9008401 	str	w1, [x0, #132]
  1e00035438:	b9408401 	ldr	w1, [x0, #132]
  1e0003543c:	b9400c45 	ldr	w5, [x2, #12]
  1e00035440:	331020a1 	bfi	w1, w5, #16, #9
  1e00035444:	b9008401 	str	w1, [x0, #132]
  1e00035448:	b9408801 	ldr	w1, [x0, #136]
  1e0003544c:	b9401045 	ldr	w5, [x2, #16]
  1e00035450:	330020a1 	bfxil	w1, w5, #0, #9
  1e00035454:	b9008801 	str	w1, [x0, #136]
  1e00035458:	b9408801 	ldr	w1, [x0, #136]
  1e0003545c:	b9401445 	ldr	w5, [x2, #20]
  1e00035460:	331020a1 	bfi	w1, w5, #16, #9
  1e00035464:	b9008801 	str	w1, [x0, #136]
  1e00035468:	b9408c01 	ldr	w1, [x0, #140]
  1e0003546c:	b9401845 	ldr	w5, [x2, #24]
  1e00035470:	330020a1 	bfxil	w1, w5, #0, #9
  1e00035474:	b9008c01 	str	w1, [x0, #140]
  1e00035478:	b9408c01 	ldr	w1, [x0, #140]
  1e0003547c:	b9401c42 	ldr	w2, [x2, #28]
  1e00035480:	33102041 	bfi	w1, w2, #16, #9
  1e00035484:	b9008c01 	str	w1, [x0, #140]
  1e00035488:	b9409401 	ldr	w1, [x0, #148]
  1e0003548c:	b9400062 	ldr	w2, [x3]
  1e00035490:	33002041 	bfxil	w1, w2, #0, #9
  1e00035494:	b9009401 	str	w1, [x0, #148]
  1e00035498:	b9400462 	ldr	w2, [x3, #4]
  1e0003549c:	b9409401 	ldr	w1, [x0, #148]
  1e000354a0:	33102041 	bfi	w1, w2, #16, #9
  1e000354a4:	b9009401 	str	w1, [x0, #148]
  1e000354a8:	b9400862 	ldr	w2, [x3, #8]
  1e000354ac:	b9409801 	ldr	w1, [x0, #152]
  1e000354b0:	33002041 	bfxil	w1, w2, #0, #9
  1e000354b4:	b9009801 	str	w1, [x0, #152]
  1e000354b8:	b9409801 	ldr	w1, [x0, #152]
  1e000354bc:	b9400c62 	ldr	w2, [x3, #12]
  1e000354c0:	33102041 	bfi	w1, w2, #16, #9
  1e000354c4:	b9009801 	str	w1, [x0, #152]
  1e000354c8:	b9409c01 	ldr	w1, [x0, #156]
  1e000354cc:	b9401062 	ldr	w2, [x3, #16]
  1e000354d0:	33002041 	bfxil	w1, w2, #0, #9
  1e000354d4:	b9009c01 	str	w1, [x0, #156]
  1e000354d8:	b9409c01 	ldr	w1, [x0, #156]
  1e000354dc:	b9401462 	ldr	w2, [x3, #20]
  1e000354e0:	33102041 	bfi	w1, w2, #16, #9
  1e000354e4:	b9009c01 	str	w1, [x0, #156]
  1e000354e8:	b940a001 	ldr	w1, [x0, #160]
  1e000354ec:	b9401862 	ldr	w2, [x3, #24]
  1e000354f0:	33002041 	bfxil	w1, w2, #0, #9
  1e000354f4:	b900a001 	str	w1, [x0, #160]
  1e000354f8:	b940a001 	ldr	w1, [x0, #160]
  1e000354fc:	b9401c62 	ldr	w2, [x3, #28]
  1e00035500:	33102041 	bfi	w1, w2, #16, #9
  1e00035504:	b900a001 	str	w1, [x0, #160]
  1e00035508:	b940a401 	ldr	w1, [x0, #164]
  1e0003550c:	b9402062 	ldr	w2, [x3, #32]
  1e00035510:	33002041 	bfxil	w1, w2, #0, #9
  1e00035514:	b900a401 	str	w1, [x0, #164]
  1e00035518:	b940a401 	ldr	w1, [x0, #164]
  1e0003551c:	b9402462 	ldr	w2, [x3, #36]
  1e00035520:	33102041 	bfi	w1, w2, #16, #9
  1e00035524:	b900a401 	str	w1, [x0, #164]
  1e00035528:	b940a801 	ldr	w1, [x0, #168]
  1e0003552c:	33002081 	bfxil	w1, w4, #0, #9
  1e00035530:	b900a801 	str	w1, [x0, #168]
  1e00035534:	d65f03c0 	ret

0000001e00035538 <phy_search_ca_ra_deskew>:
  1e00035538:	92401c21 	and	x1, x1, #0xff
  1e0003553c:	12002042 	and	w2, w2, #0x1ff
  1e00035540:	f8617800 	ldr	x0, [x0, x1, lsl #3]
  1e00035544:	b9408001 	ldr	w1, [x0, #128]
  1e00035548:	33002041 	bfxil	w1, w2, #0, #9
  1e0003554c:	b9008001 	str	w1, [x0, #128]
  1e00035550:	b9408001 	ldr	w1, [x0, #128]
  1e00035554:	33102041 	bfi	w1, w2, #16, #9
  1e00035558:	b9008001 	str	w1, [x0, #128]
  1e0003555c:	b9408401 	ldr	w1, [x0, #132]
  1e00035560:	33002041 	bfxil	w1, w2, #0, #9
  1e00035564:	b9008401 	str	w1, [x0, #132]
  1e00035568:	b9408401 	ldr	w1, [x0, #132]
  1e0003556c:	33102041 	bfi	w1, w2, #16, #9
  1e00035570:	b9008401 	str	w1, [x0, #132]
  1e00035574:	b9408801 	ldr	w1, [x0, #136]
  1e00035578:	33002041 	bfxil	w1, w2, #0, #9
  1e0003557c:	b9008801 	str	w1, [x0, #136]
  1e00035580:	b9408801 	ldr	w1, [x0, #136]
  1e00035584:	33102041 	bfi	w1, w2, #16, #9
  1e00035588:	b9008801 	str	w1, [x0, #136]
  1e0003558c:	b9408c01 	ldr	w1, [x0, #140]
  1e00035590:	33002041 	bfxil	w1, w2, #0, #9
  1e00035594:	b9008c01 	str	w1, [x0, #140]
  1e00035598:	b9408c01 	ldr	w1, [x0, #140]
  1e0003559c:	33102041 	bfi	w1, w2, #16, #9
  1e000355a0:	b9008c01 	str	w1, [x0, #140]
  1e000355a4:	b9409401 	ldr	w1, [x0, #148]
  1e000355a8:	33002041 	bfxil	w1, w2, #0, #9
  1e000355ac:	b9009401 	str	w1, [x0, #148]
  1e000355b0:	b9409401 	ldr	w1, [x0, #148]
  1e000355b4:	33102041 	bfi	w1, w2, #16, #9
  1e000355b8:	b9009401 	str	w1, [x0, #148]
  1e000355bc:	b9409801 	ldr	w1, [x0, #152]
  1e000355c0:	33002041 	bfxil	w1, w2, #0, #9
  1e000355c4:	b9009801 	str	w1, [x0, #152]
  1e000355c8:	b9409801 	ldr	w1, [x0, #152]
  1e000355cc:	33102041 	bfi	w1, w2, #16, #9
  1e000355d0:	b9009801 	str	w1, [x0, #152]
  1e000355d4:	b9409c01 	ldr	w1, [x0, #156]
  1e000355d8:	33002041 	bfxil	w1, w2, #0, #9
  1e000355dc:	b9009c01 	str	w1, [x0, #156]
  1e000355e0:	b9409c01 	ldr	w1, [x0, #156]
  1e000355e4:	33102041 	bfi	w1, w2, #16, #9
  1e000355e8:	b9009c01 	str	w1, [x0, #156]
  1e000355ec:	b940a001 	ldr	w1, [x0, #160]
  1e000355f0:	33002041 	bfxil	w1, w2, #0, #9
  1e000355f4:	b900a001 	str	w1, [x0, #160]
  1e000355f8:	b940a001 	ldr	w1, [x0, #160]
  1e000355fc:	33102041 	bfi	w1, w2, #16, #9
  1e00035600:	b900a001 	str	w1, [x0, #160]
  1e00035604:	b940a401 	ldr	w1, [x0, #164]
  1e00035608:	33002041 	bfxil	w1, w2, #0, #9
  1e0003560c:	b900a401 	str	w1, [x0, #164]
  1e00035610:	b940a401 	ldr	w1, [x0, #164]
  1e00035614:	33102041 	bfi	w1, w2, #16, #9
  1e00035618:	b900a401 	str	w1, [x0, #164]
  1e0003561c:	b940a801 	ldr	w1, [x0, #168]
  1e00035620:	33102041 	bfi	w1, w2, #16, #9
  1e00035624:	b900a801 	str	w1, [x0, #168]
  1e00035628:	b940a801 	ldr	w1, [x0, #168]
  1e0003562c:	33002041 	bfxil	w1, w2, #0, #9
  1e00035630:	b900a801 	str	w1, [x0, #168]
  1e00035634:	d65f03c0 	ret

0000001e00035638 <phy_read_training>:
  1e00035638:	a9bc7bfd 	stp	x29, x30, [sp, #-64]!
  1e0003563c:	52800683 	mov	w3, #0x34                  	// #52
  1e00035640:	910003fd 	mov	x29, sp
  1e00035644:	f90013f5 	str	x21, [sp, #32]
  1e00035648:	92401c35 	and	x21, x1, #0xff
  1e0003564c:	a90153f3 	stp	x19, x20, [sp, #16]
  1e00035650:	12001c34 	and	w20, w1, #0xff
  1e00035654:	aa0003f3 	mov	x19, x0
  1e00035658:	f8757801 	ldr	x1, [x0, x21, lsl #3]
  1e0003565c:	b9401422 	ldr	w2, [x1, #20]
  1e00035660:	321e0042 	orr	w2, w2, #0x4
  1e00035664:	b9001422 	str	w2, [x1, #20]
  1e00035668:	b9402c22 	ldr	w2, [x1, #44]
  1e0003566c:	33001862 	bfxil	w2, w3, #0, #7
  1e00035670:	b9002c22 	str	w2, [x1, #44]
  1e00035674:	2a1403e1 	mov	w1, w20
  1e00035678:	97ffea94 	bl	1e000300c8 <phy_do_training>
  1e0003567c:	f8757a61 	ldr	x1, [x19, x21, lsl #3]
  1e00035680:	9100f3e3 	add	x3, sp, #0x3c
  1e00035684:	9100e3e2 	add	x2, sp, #0x38
  1e00035688:	b9401420 	ldr	w0, [x1, #20]
  1e0003568c:	121d7800 	and	w0, w0, #0xfffffffb
  1e00035690:	b9001420 	str	w0, [x1, #20]
  1e00035694:	2a1403e1 	mov	w1, w20
  1e00035698:	aa1303e0 	mov	x0, x19
  1e0003569c:	97fffe2b 	bl	1e00034f48 <phy_read_training_fail_check>
  1e000356a0:	294703e1 	ldp	w1, w0, [sp, #56]
  1e000356a4:	350000c1 	cbnz	w1, 1e000356bc <phy_read_training+0x84>
  1e000356a8:	35000200 	cbnz	w0, 1e000356e8 <phy_read_training+0xb0>
  1e000356ac:	a94153f3 	ldp	x19, x20, [sp, #16]
  1e000356b0:	f94013f5 	ldr	x21, [sp, #32]
  1e000356b4:	a8c47bfd 	ldp	x29, x30, [sp], #64
  1e000356b8:	d65f03c0 	ret
  1e000356bc:	f0000022 	adrp	x2, 1e0003c000 <vsnprintf+0x270>
  1e000356c0:	913b7c42 	add	x2, x2, #0xedf
  1e000356c4:	34000180 	cbz	w0, 1e000356f4 <phy_read_training+0xbc>
  1e000356c8:	f0000023 	adrp	x3, 1e0003c000 <vsnprintf+0x270>
  1e000356cc:	913b9c63 	add	x3, x3, #0xee7
  1e000356d0:	2a1403e1 	mov	w1, w20
  1e000356d4:	f0000020 	adrp	x0, 1e0003c000 <vsnprintf+0x270>
  1e000356d8:	913bbc00 	add	x0, x0, #0xeef
  1e000356dc:	97fff1b6 	bl	1e00031db4 <tf_log>
  1e000356e0:	12800040 	mov	w0, #0xfffffffd            	// #-3
  1e000356e4:	17fffff2 	b	1e000356ac <phy_read_training+0x74>
  1e000356e8:	f0000022 	adrp	x2, 1e0003c000 <vsnprintf+0x270>
  1e000356ec:	9126b442 	add	x2, x2, #0x9ad
  1e000356f0:	17fffff6 	b	1e000356c8 <phy_read_training+0x90>
  1e000356f4:	f0000023 	adrp	x3, 1e0003c000 <vsnprintf+0x270>
  1e000356f8:	9126b463 	add	x3, x3, #0x9ad
  1e000356fc:	17fffff5 	b	1e000356d0 <phy_read_training+0x98>

0000001e00035700 <phy_write_training>:
  1e00035700:	a9bc7bfd 	stp	x29, x30, [sp, #-64]!
  1e00035704:	52800023 	mov	w3, #0x1                   	// #1
  1e00035708:	910003fd 	mov	x29, sp
  1e0003570c:	f90013f5 	str	x21, [sp, #32]
  1e00035710:	92401c35 	and	x21, x1, #0xff
  1e00035714:	a90153f3 	stp	x19, x20, [sp, #16]
  1e00035718:	12001c33 	and	w19, w1, #0xff
  1e0003571c:	aa0003f4 	mov	x20, x0
  1e00035720:	f8757801 	ldr	x1, [x0, x21, lsl #3]
  1e00035724:	b9401022 	ldr	w2, [x1, #16]
  1e00035728:	12067842 	and	w2, w2, #0xfdffffff
  1e0003572c:	b9001022 	str	w2, [x1, #16]
  1e00035730:	b9401022 	ldr	w2, [x1, #16]
  1e00035734:	33171062 	bfi	w2, w3, #9, #5
  1e00035738:	b9001022 	str	w2, [x1, #16]
  1e0003573c:	528003e3 	mov	w3, #0x1f                  	// #31
  1e00035740:	b9401022 	ldr	w2, [x1, #16]
  1e00035744:	32120042 	orr	w2, w2, #0x4000
  1e00035748:	b9001022 	str	w2, [x1, #16]
  1e0003574c:	b9401022 	ldr	w2, [x1, #16]
  1e00035750:	33101c62 	bfi	w2, w3, #16, #8
  1e00035754:	b9001022 	str	w2, [x1, #16]
  1e00035758:	b9401422 	ldr	w2, [x1, #20]
  1e0003575c:	321d0042 	orr	w2, w2, #0x8
  1e00035760:	b9001422 	str	w2, [x1, #20]
  1e00035764:	2a1303e1 	mov	w1, w19
  1e00035768:	97ffea58 	bl	1e000300c8 <phy_do_training>
  1e0003576c:	f8757a81 	ldr	x1, [x20, x21, lsl #3]
  1e00035770:	9100f3e3 	add	x3, sp, #0x3c
  1e00035774:	9100e3e2 	add	x2, sp, #0x38
  1e00035778:	b9401420 	ldr	w0, [x1, #20]
  1e0003577c:	121c7800 	and	w0, w0, #0xfffffff7
  1e00035780:	b9001420 	str	w0, [x1, #20]
  1e00035784:	2a1303e1 	mov	w1, w19
  1e00035788:	aa1403e0 	mov	x0, x20
  1e0003578c:	97fffe21 	bl	1e00035010 <phy_write_training_fail_check>
  1e00035790:	294703e1 	ldp	w1, w0, [sp, #56]
  1e00035794:	350000c1 	cbnz	w1, 1e000357ac <phy_write_training+0xac>
  1e00035798:	35000200 	cbnz	w0, 1e000357d8 <phy_write_training+0xd8>
  1e0003579c:	a94153f3 	ldp	x19, x20, [sp, #16]
  1e000357a0:	f94013f5 	ldr	x21, [sp, #32]
  1e000357a4:	a8c47bfd 	ldp	x29, x30, [sp], #64
  1e000357a8:	d65f03c0 	ret
  1e000357ac:	f0000022 	adrp	x2, 1e0003c000 <vsnprintf+0x270>
  1e000357b0:	913b7c42 	add	x2, x2, #0xedf
  1e000357b4:	34000180 	cbz	w0, 1e000357e4 <phy_write_training+0xe4>
  1e000357b8:	f0000023 	adrp	x3, 1e0003c000 <vsnprintf+0x270>
  1e000357bc:	913b9c63 	add	x3, x3, #0xee7
  1e000357c0:	2a1303e1 	mov	w1, w19
  1e000357c4:	f0000020 	adrp	x0, 1e0003c000 <vsnprintf+0x270>
  1e000357c8:	913c4400 	add	x0, x0, #0xf11
  1e000357cc:	97fff17a 	bl	1e00031db4 <tf_log>
  1e000357d0:	12800060 	mov	w0, #0xfffffffc            	// #-4
  1e000357d4:	17fffff2 	b	1e0003579c <phy_write_training+0x9c>
  1e000357d8:	f0000022 	adrp	x2, 1e0003c000 <vsnprintf+0x270>
  1e000357dc:	9126b442 	add	x2, x2, #0x9ad
  1e000357e0:	17fffff6 	b	1e000357b8 <phy_write_training+0xb8>
  1e000357e4:	f0000023 	adrp	x3, 1e0003c000 <vsnprintf+0x270>
  1e000357e8:	9126b463 	add	x3, x3, #0x9ad
  1e000357ec:	17fffff5 	b	1e000357c0 <phy_write_training+0xc0>

0000001e000357f0 <phy_read_training_LFSR_seed>:
  1e000357f0:	a9bd7bfd 	stp	x29, x30, [sp, #-48]!
  1e000357f4:	910003fd 	mov	x29, sp
  1e000357f8:	f9408002 	ldr	x2, [x0, #256]
  1e000357fc:	a90153f3 	stp	x19, x20, [sp, #16]
  1e00035800:	3201f3f3 	mov	w19, #0xaaaaaaaa            	// #-1431655766
  1e00035804:	f90013f5 	str	x21, [sp, #32]
  1e00035808:	92401c35 	and	x21, x1, #0xff
  1e0003580c:	aa0003f4 	mov	x20, x0
  1e00035810:	b9400041 	ldr	w1, [x2]
  1e00035814:	32000021 	orr	w1, w1, #0x1
  1e00035818:	b9000041 	str	w1, [x2]
  1e0003581c:	b9005853 	str	w19, [x2, #88]
  1e00035820:	b9005453 	str	w19, [x2, #84]
  1e00035824:	b9005053 	str	w19, [x2, #80]
  1e00035828:	b9004c53 	str	w19, [x2, #76]
  1e0003582c:	b9004853 	str	w19, [x2, #72]
  1e00035830:	b9004453 	str	w19, [x2, #68]
  1e00035834:	b9004053 	str	w19, [x2, #64]
  1e00035838:	b9003c53 	str	w19, [x2, #60]
  1e0003583c:	b9003853 	str	w19, [x2, #56]
  1e00035840:	b9003453 	str	w19, [x2, #52]
  1e00035844:	b9400841 	ldr	w1, [x2, #8]
  1e00035848:	32190021 	orr	w1, w1, #0x80
  1e0003584c:	b9000841 	str	w1, [x2, #8]
  1e00035850:	97ffeb58 	bl	1e000305b0 <wait_for_test_instruction_req_done>
  1e00035854:	f9408281 	ldr	x1, [x20, #256]
  1e00035858:	b9400820 	ldr	w0, [x1, #8]
  1e0003585c:	12187800 	and	w0, w0, #0xffffff7f
  1e00035860:	b9000820 	str	w0, [x1, #8]
  1e00035864:	aa1403e0 	mov	x0, x20
  1e00035868:	97ffeb5f 	bl	1e000305e4 <wait_for_test_instruction_req_done_clear>
  1e0003586c:	f9408281 	ldr	x1, [x20, #256]
  1e00035870:	b9400820 	ldr	w0, [x1, #8]
  1e00035874:	32170000 	orr	w0, w0, #0x200
  1e00035878:	b9000820 	str	w0, [x1, #8]
  1e0003587c:	aa1403e0 	mov	x0, x20
  1e00035880:	97ffeb4c 	bl	1e000305b0 <wait_for_test_instruction_req_done>
  1e00035884:	f9408281 	ldr	x1, [x20, #256]
  1e00035888:	b9400820 	ldr	w0, [x1, #8]
  1e0003588c:	12167800 	and	w0, w0, #0xfffffdff
  1e00035890:	b9000820 	str	w0, [x1, #8]
  1e00035894:	aa1403e0 	mov	x0, x20
  1e00035898:	97ffeb53 	bl	1e000305e4 <wait_for_test_instruction_req_done_clear>
  1e0003589c:	f8757a81 	ldr	x1, [x20, x21, lsl #3]
  1e000358a0:	b90fa033 	str	w19, [x1, #4000]
  1e000358a4:	b90fa433 	str	w19, [x1, #4004]
  1e000358a8:	b90fa833 	str	w19, [x1, #4008]
  1e000358ac:	b90fac33 	str	w19, [x1, #4012]
  1e000358b0:	b90fb033 	str	w19, [x1, #4016]
  1e000358b4:	b90fb433 	str	w19, [x1, #4020]
  1e000358b8:	b90fb833 	str	w19, [x1, #4024]
  1e000358bc:	b90fbc33 	str	w19, [x1, #4028]
  1e000358c0:	b90fc033 	str	w19, [x1, #4032]
  1e000358c4:	b90fc433 	str	w19, [x1, #4036]
  1e000358c8:	b9400420 	ldr	w0, [x1, #4]
  1e000358cc:	320b0000 	orr	w0, w0, #0x200000
  1e000358d0:	b9000420 	str	w0, [x1, #4]
  1e000358d4:	f9408281 	ldr	x1, [x20, #256]
  1e000358d8:	b9400020 	ldr	w0, [x1]
  1e000358dc:	32000000 	orr	w0, w0, #0x1
  1e000358e0:	b9000020 	str	w0, [x1]
  1e000358e4:	a94153f3 	ldp	x19, x20, [sp, #16]
  1e000358e8:	f94013f5 	ldr	x21, [sp, #32]
  1e000358ec:	a8c37bfd 	ldp	x29, x30, [sp], #48
  1e000358f0:	d65f03c0 	ret

0000001e000358f4 <phy_read_training_LFSR>:
  1e000358f4:	a9bc7bfd 	stp	x29, x30, [sp, #-64]!
  1e000358f8:	910003fd 	mov	x29, sp
  1e000358fc:	a90153f3 	stp	x19, x20, [sp, #16]
  1e00035900:	aa0003f3 	mov	x19, x0
  1e00035904:	f90013f5 	str	x21, [sp, #32]
  1e00035908:	92401c35 	and	x21, x1, #0xff
  1e0003590c:	2a1503e1 	mov	w1, w21
  1e00035910:	97ffffb8 	bl	1e000357f0 <phy_read_training_LFSR_seed>
  1e00035914:	52800682 	mov	w2, #0x34                  	// #52
  1e00035918:	f8757a60 	ldr	x0, [x19, x21, lsl #3]
  1e0003591c:	b9401401 	ldr	w1, [x0, #20]
  1e00035920:	321e0021 	orr	w1, w1, #0x4
  1e00035924:	b9001401 	str	w1, [x0, #20]
  1e00035928:	b9402c01 	ldr	w1, [x0, #44]
  1e0003592c:	33001841 	bfxil	w1, w2, #0, #7
  1e00035930:	b9002c01 	str	w1, [x0, #44]
  1e00035934:	528000c2 	mov	w2, #0x6                   	// #6
  1e00035938:	b9401001 	ldr	w1, [x0, #16]
  1e0003593c:	33171041 	bfi	w1, w2, #9, #5
  1e00035940:	b9001001 	str	w1, [x0, #16]
  1e00035944:	2a1503e1 	mov	w1, w21
  1e00035948:	aa1303e0 	mov	x0, x19
  1e0003594c:	97ffe9df 	bl	1e000300c8 <phy_do_training>
  1e00035950:	f8757a65 	ldr	x5, [x19, x21, lsl #3]
  1e00035954:	9100f3e3 	add	x3, sp, #0x3c
  1e00035958:	9100e3e2 	add	x2, sp, #0x38
  1e0003595c:	2a1503e1 	mov	w1, w21
  1e00035960:	b94014a0 	ldr	w0, [x5, #20]
  1e00035964:	121d7800 	and	w0, w0, #0xfffffffb
  1e00035968:	b90014a0 	str	w0, [x5, #20]
  1e0003596c:	aa1303e0 	mov	x0, x19
  1e00035970:	97fffd76 	bl	1e00034f48 <phy_read_training_fail_check>
  1e00035974:	b94004a0 	ldr	w0, [x5, #4]
  1e00035978:	120a7800 	and	w0, w0, #0xffdfffff
  1e0003597c:	b90004a0 	str	w0, [x5, #4]
  1e00035980:	29470fe2 	ldp	w2, w3, [sp, #56]
  1e00035984:	2a030040 	orr	w0, w2, w3
  1e00035988:	34000140 	cbz	w0, 1e000359b0 <phy_read_training_LFSR+0xbc>
  1e0003598c:	2a1503e1 	mov	w1, w21
  1e00035990:	f0000020 	adrp	x0, 1e0003c000 <vsnprintf+0x270>
  1e00035994:	913cd000 	add	x0, x0, #0xf34
  1e00035998:	97fff107 	bl	1e00031db4 <tf_log>
  1e0003599c:	12800040 	mov	w0, #0xfffffffd            	// #-3
  1e000359a0:	a94153f3 	ldp	x19, x20, [sp, #16]
  1e000359a4:	f94013f5 	ldr	x21, [sp, #32]
  1e000359a8:	a8c47bfd 	ldp	x29, x30, [sp], #64
  1e000359ac:	d65f03c0 	ret
  1e000359b0:	52800000 	mov	w0, #0x0                   	// #0
  1e000359b4:	17fffffb 	b	1e000359a0 <phy_read_training_LFSR+0xac>

0000001e000359b8 <phy_write_training_LFSR_seed>:
  1e000359b8:	a9be7bfd 	stp	x29, x30, [sp, #-32]!
  1e000359bc:	3201f3e3 	mov	w3, #0xaaaaaaaa            	// #-1431655766
  1e000359c0:	910003fd 	mov	x29, sp
  1e000359c4:	f9408002 	ldr	x2, [x0, #256]
  1e000359c8:	a90153f3 	stp	x19, x20, [sp, #16]
  1e000359cc:	92401c34 	and	x20, x1, #0xff
  1e000359d0:	aa0003f3 	mov	x19, x0
  1e000359d4:	b9400041 	ldr	w1, [x2]
  1e000359d8:	32000021 	orr	w1, w1, #0x1
  1e000359dc:	b9000041 	str	w1, [x2]
  1e000359e0:	b9005843 	str	w3, [x2, #88]
  1e000359e4:	b9005443 	str	w3, [x2, #84]
  1e000359e8:	b9005043 	str	w3, [x2, #80]
  1e000359ec:	b9004c43 	str	w3, [x2, #76]
  1e000359f0:	b9004843 	str	w3, [x2, #72]
  1e000359f4:	b9004443 	str	w3, [x2, #68]
  1e000359f8:	b9004043 	str	w3, [x2, #64]
  1e000359fc:	b9003c43 	str	w3, [x2, #60]
  1e00035a00:	b9003843 	str	w3, [x2, #56]
  1e00035a04:	b9003443 	str	w3, [x2, #52]
  1e00035a08:	b9400841 	ldr	w1, [x2, #8]
  1e00035a0c:	32190021 	orr	w1, w1, #0x80
  1e00035a10:	b9000841 	str	w1, [x2, #8]
  1e00035a14:	97ffeae7 	bl	1e000305b0 <wait_for_test_instruction_req_done>
  1e00035a18:	f9408261 	ldr	x1, [x19, #256]
  1e00035a1c:	b9400820 	ldr	w0, [x1, #8]
  1e00035a20:	12187800 	and	w0, w0, #0xffffff7f
  1e00035a24:	b9000820 	str	w0, [x1, #8]
  1e00035a28:	aa1303e0 	mov	x0, x19
  1e00035a2c:	97ffeaee 	bl	1e000305e4 <wait_for_test_instruction_req_done_clear>
  1e00035a30:	f9408261 	ldr	x1, [x19, #256]
  1e00035a34:	b9400820 	ldr	w0, [x1, #8]
  1e00035a38:	32170000 	orr	w0, w0, #0x200
  1e00035a3c:	b9000820 	str	w0, [x1, #8]
  1e00035a40:	aa1303e0 	mov	x0, x19
  1e00035a44:	97ffeadb 	bl	1e000305b0 <wait_for_test_instruction_req_done>
  1e00035a48:	f9408261 	ldr	x1, [x19, #256]
  1e00035a4c:	b9400820 	ldr	w0, [x1, #8]
  1e00035a50:	12167800 	and	w0, w0, #0xfffffdff
  1e00035a54:	b9000820 	str	w0, [x1, #8]
  1e00035a58:	aa1303e0 	mov	x0, x19
  1e00035a5c:	97ffeae2 	bl	1e000305e4 <wait_for_test_instruction_req_done_clear>
  1e00035a60:	f8747a61 	ldr	x1, [x19, x20, lsl #3]
  1e00035a64:	12800000 	mov	w0, #0xffffffff            	// #-1
  1e00035a68:	3205c3e2 	mov	w2, #0x8080808             	// #134744072
  1e00035a6c:	3204c3e3 	mov	w3, #0x10101010            	// #269488144
  1e00035a70:	b903c820 	str	w0, [x1, #968]
  1e00035a74:	b903cc3f 	str	wzr, [x1, #972]
  1e00035a78:	b903d020 	str	w0, [x1, #976]
  1e00035a7c:	b903d43f 	str	wzr, [x1, #980]
  1e00035a80:	b903d83f 	str	wzr, [x1, #984]
  1e00035a84:	b903dc20 	str	w0, [x1, #988]
  1e00035a88:	b903e03f 	str	wzr, [x1, #992]
  1e00035a8c:	b903e420 	str	w0, [x1, #996]
  1e00035a90:	b903e820 	str	w0, [x1, #1000]
  1e00035a94:	b903ec22 	str	w2, [x1, #1004]
  1e00035a98:	b903f020 	str	w0, [x1, #1008]
  1e00035a9c:	b903f423 	str	w3, [x1, #1012]
  1e00035aa0:	b903f822 	str	w2, [x1, #1016]
  1e00035aa4:	b903fc20 	str	w0, [x1, #1020]
  1e00035aa8:	b9040022 	str	w2, [x1, #1024]
  1e00035aac:	b9040420 	str	w0, [x1, #1028]
  1e00035ab0:	52998660 	mov	w0, #0xcc33                	// #52275
  1e00035ab4:	72b98660 	movk	w0, #0xcc33, lsl #16
  1e00035ab8:	b9040820 	str	w0, [x1, #1032]
  1e00035abc:	b9040c20 	str	w0, [x1, #1036]
  1e00035ac0:	5281e1e0 	mov	w0, #0xf0f                 	// #3855
  1e00035ac4:	72be1e00 	movk	w0, #0xf0f0, lsl #16
  1e00035ac8:	b9041020 	str	w0, [x1, #1040]
  1e00035acc:	528001e0 	mov	w0, #0xf                   	// #15
  1e00035ad0:	72a01e00 	movk	w0, #0xf0, lsl #16
  1e00035ad4:	b9041420 	str	w0, [x1, #1044]
  1e00035ad8:	b9400420 	ldr	w0, [x1, #4]
  1e00035adc:	320a0000 	orr	w0, w0, #0x400000
  1e00035ae0:	b9000420 	str	w0, [x1, #4]
  1e00035ae4:	f9408261 	ldr	x1, [x19, #256]
  1e00035ae8:	b9400020 	ldr	w0, [x1]
  1e00035aec:	121f7800 	and	w0, w0, #0xfffffffe
  1e00035af0:	b9000020 	str	w0, [x1]
  1e00035af4:	a94153f3 	ldp	x19, x20, [sp, #16]
  1e00035af8:	a8c27bfd 	ldp	x29, x30, [sp], #32
  1e00035afc:	d65f03c0 	ret

0000001e00035b00 <phy_write_training_LFSR>:
  1e00035b00:	a9bc7bfd 	stp	x29, x30, [sp, #-64]!
  1e00035b04:	52800023 	mov	w3, #0x1                   	// #1
  1e00035b08:	910003fd 	mov	x29, sp
  1e00035b0c:	f90013f5 	str	x21, [sp, #32]
  1e00035b10:	d37d1c35 	ubfiz	x21, x1, #3, #8
  1e00035b14:	a90153f3 	stp	x19, x20, [sp, #16]
  1e00035b18:	12001c34 	and	w20, w1, #0xff
  1e00035b1c:	aa0003f3 	mov	x19, x0
  1e00035b20:	f8756801 	ldr	x1, [x0, x21]
  1e00035b24:	b9401022 	ldr	w2, [x1, #16]
  1e00035b28:	12067842 	and	w2, w2, #0xfdffffff
  1e00035b2c:	b9001022 	str	w2, [x1, #16]
  1e00035b30:	b9401022 	ldr	w2, [x1, #16]
  1e00035b34:	33171062 	bfi	w2, w3, #9, #5
  1e00035b38:	b9001022 	str	w2, [x1, #16]
  1e00035b3c:	528003e3 	mov	w3, #0x1f                  	// #31
  1e00035b40:	b9401022 	ldr	w2, [x1, #16]
  1e00035b44:	32120042 	orr	w2, w2, #0x4000
  1e00035b48:	b9001022 	str	w2, [x1, #16]
  1e00035b4c:	b9401022 	ldr	w2, [x1, #16]
  1e00035b50:	33101c62 	bfi	w2, w3, #16, #8
  1e00035b54:	b9001022 	str	w2, [x1, #16]
  1e00035b58:	2a1403e1 	mov	w1, w20
  1e00035b5c:	97ffff97 	bl	1e000359b8 <phy_write_training_LFSR_seed>
  1e00035b60:	f8756a61 	ldr	x1, [x19, x21]
  1e00035b64:	b9401420 	ldr	w0, [x1, #20]
  1e00035b68:	321d0000 	orr	w0, w0, #0x8
  1e00035b6c:	b9001420 	str	w0, [x1, #20]
  1e00035b70:	2a1403e1 	mov	w1, w20
  1e00035b74:	aa1303e0 	mov	x0, x19
  1e00035b78:	97ffe954 	bl	1e000300c8 <phy_do_training>
  1e00035b7c:	f8756a65 	ldr	x5, [x19, x21]
  1e00035b80:	9100f3e3 	add	x3, sp, #0x3c
  1e00035b84:	9100e3e2 	add	x2, sp, #0x38
  1e00035b88:	2a1403e1 	mov	w1, w20
  1e00035b8c:	b94014a0 	ldr	w0, [x5, #20]
  1e00035b90:	121c7800 	and	w0, w0, #0xfffffff7
  1e00035b94:	b90014a0 	str	w0, [x5, #20]
  1e00035b98:	b94004a0 	ldr	w0, [x5, #4]
  1e00035b9c:	12097800 	and	w0, w0, #0xffbfffff
  1e00035ba0:	b90004a0 	str	w0, [x5, #4]
  1e00035ba4:	aa1303e0 	mov	x0, x19
  1e00035ba8:	97fffd1a 	bl	1e00035010 <phy_write_training_fail_check>
  1e00035bac:	29470fe2 	ldp	w2, w3, [sp, #56]
  1e00035bb0:	2a030040 	orr	w0, w2, w3
  1e00035bb4:	34000140 	cbz	w0, 1e00035bdc <phy_write_training_LFSR+0xdc>
  1e00035bb8:	2a1403e1 	mov	w1, w20
  1e00035bbc:	f0000020 	adrp	x0, 1e0003c000 <vsnprintf+0x270>
  1e00035bc0:	913ddc00 	add	x0, x0, #0xf77
  1e00035bc4:	97fff07c 	bl	1e00031db4 <tf_log>
  1e00035bc8:	12800060 	mov	w0, #0xfffffffc            	// #-4
  1e00035bcc:	a94153f3 	ldp	x19, x20, [sp, #16]
  1e00035bd0:	f94013f5 	ldr	x21, [sp, #32]
  1e00035bd4:	a8c47bfd 	ldp	x29, x30, [sp], #64
  1e00035bd8:	d65f03c0 	ret
  1e00035bdc:	12800000 	mov	w0, #0xffffffff            	// #-1
  1e00035be0:	b903c8a0 	str	w0, [x5, #968]
  1e00035be4:	b903ccbf 	str	wzr, [x5, #972]
  1e00035be8:	b903d0a0 	str	w0, [x5, #976]
  1e00035bec:	b903d4bf 	str	wzr, [x5, #980]
  1e00035bf0:	b903d8a0 	str	w0, [x5, #984]
  1e00035bf4:	b903dcbf 	str	wzr, [x5, #988]
  1e00035bf8:	b903e0a0 	str	w0, [x5, #992]
  1e00035bfc:	b903e4bf 	str	wzr, [x5, #996]
  1e00035c00:	b903e8a0 	str	w0, [x5, #1000]
  1e00035c04:	b903ecbf 	str	wzr, [x5, #1004]
  1e00035c08:	b903f0a0 	str	w0, [x5, #1008]
  1e00035c0c:	b903f4bf 	str	wzr, [x5, #1012]
  1e00035c10:	b903f8a0 	str	w0, [x5, #1016]
  1e00035c14:	b903fcbf 	str	wzr, [x5, #1020]
  1e00035c18:	b90400a0 	str	w0, [x5, #1024]
  1e00035c1c:	3200e7e0 	mov	w0, #0x33333333            	// #858993459
  1e00035c20:	b90404bf 	str	wzr, [x5, #1028]
  1e00035c24:	b90408a0 	str	w0, [x5, #1032]
  1e00035c28:	b9040ca0 	str	w0, [x5, #1036]
  1e00035c2c:	3200cfe0 	mov	w0, #0xf0f0f0f             	// #252645135
  1e00035c30:	b90410a0 	str	w0, [x5, #1040]
  1e00035c34:	b90414a0 	str	w0, [x5, #1044]
  1e00035c38:	52800000 	mov	w0, #0x0                   	// #0
  1e00035c3c:	17ffffe4 	b	1e00035bcc <phy_write_training_LFSR+0xcc>

0000001e00035c40 <phy_vwm_sum_margin>:
  1e00035c40:	aa0003e2 	mov	x2, x0
  1e00035c44:	d2800001 	mov	x1, #0x0                   	// #0
  1e00035c48:	52800000 	mov	w0, #0x0                   	// #0
  1e00035c4c:	b8617843 	ldr	w3, [x2, x1, lsl #2]
  1e00035c50:	91000421 	add	x1, x1, #0x1
  1e00035c54:	0b030000 	add	w0, w0, w3
  1e00035c58:	f100143f 	cmp	x1, #0x5
  1e00035c5c:	54ffff81 	b.ne	1e00035c4c <phy_vwm_sum_margin+0xc>  // b.any
  1e00035c60:	d65f03c0 	ret

0000001e00035c64 <phy_vwm_shitf_window>:
  1e00035c64:	b9400401 	ldr	w1, [x0, #4]
  1e00035c68:	b9000001 	str	w1, [x0]
  1e00035c6c:	b9400801 	ldr	w1, [x0, #8]
  1e00035c70:	b9000401 	str	w1, [x0, #4]
  1e00035c74:	b9400c01 	ldr	w1, [x0, #12]
  1e00035c78:	b9000801 	str	w1, [x0, #8]
  1e00035c7c:	b9401001 	ldr	w1, [x0, #16]
  1e00035c80:	b9000c01 	str	w1, [x0, #12]
  1e00035c84:	d65f03c0 	ret

0000001e00035c88 <phy_write_vref_training>:
  1e00035c88:	a9b57bfd 	stp	x29, x30, [sp, #-176]!
  1e00035c8c:	910003fd 	mov	x29, sp
  1e00035c90:	a90153f3 	stp	x19, x20, [sp, #16]
  1e00035c94:	aa0003f3 	mov	x19, x0
  1e00035c98:	a90573fb 	stp	x27, x28, [sp, #80]
  1e00035c9c:	92401c3c 	and	x28, x1, #0xff
  1e00035ca0:	aa1c03f4 	mov	x20, x28
  1e00035ca4:	a9025bf5 	stp	x21, x22, [sp, #32]
  1e00035ca8:	910263fb 	add	x27, sp, #0x98
  1e00035cac:	52800016 	mov	w22, #0x0                   	// #0
  1e00035cb0:	a90363f7 	stp	x23, x24, [sp, #48]
  1e00035cb4:	52800015 	mov	w21, #0x0                   	// #0
  1e00035cb8:	52800018 	mov	w24, #0x0                   	// #0
  1e00035cbc:	a9046bf9 	stp	x25, x26, [sp, #64]
  1e00035cc0:	52800017 	mov	w23, #0x0                   	// #0
  1e00035cc4:	5280001a 	mov	w26, #0x0                   	// #0
  1e00035cc8:	7900ebff 	strh	wzr, [sp, #116]
  1e00035ccc:	52800019 	mov	w25, #0x0                   	// #0
  1e00035cd0:	7900efff 	strh	wzr, [sp, #118]
  1e00035cd4:	a9087fff 	stp	xzr, xzr, [sp, #128]
  1e00035cd8:	b90093ff 	str	wzr, [sp, #144]
  1e00035cdc:	a909ffff 	stp	xzr, xzr, [sp, #152]
  1e00035ce0:	b900abff 	str	wzr, [sp, #168]
  1e00035ce4:	97fffa9c 	bl	1e00034754 <phy_acquire_vwm_buf>
  1e00035ce8:	f87c7a61 	ldr	x1, [x19, x28, lsl #3]
  1e00035cec:	f90037e0 	str	x0, [sp, #104]
  1e00035cf0:	b9401420 	ldr	w0, [x1, #20]
  1e00035cf4:	321d0000 	orr	w0, w0, #0x8
  1e00035cf8:	b9001420 	str	w0, [x1, #20]
  1e00035cfc:	2a1703e2 	mov	w2, w23
  1e00035d00:	2a1403e1 	mov	w1, w20
  1e00035d04:	aa1303e0 	mov	x0, x19
  1e00035d08:	290f7fff 	stp	wzr, wzr, [sp, #120]
  1e00035d0c:	97ffe985 	bl	1e00030320 <phy_set_write_vref>
  1e00035d10:	528000a0 	mov	w0, #0x5                   	// #5
  1e00035d14:	97fff6f0 	bl	1e000338d4 <udelay>
  1e00035d18:	2a1403e1 	mov	w1, w20
  1e00035d1c:	aa1303e0 	mov	x0, x19
  1e00035d20:	97ffe8ea 	bl	1e000300c8 <phy_do_training>
  1e00035d24:	9101e3e2 	add	x2, sp, #0x78
  1e00035d28:	9101f3e3 	add	x3, sp, #0x7c
  1e00035d2c:	2a1403e1 	mov	w1, w20
  1e00035d30:	aa1303e0 	mov	x0, x19
  1e00035d34:	97fffcb7 	bl	1e00035010 <phy_write_training_fail_check>
  1e00035d38:	93407f0d 	sxtw	x13, w24
  1e00035d3c:	f94037e2 	ldr	x2, [sp, #104]
  1e00035d40:	2a1403e1 	mov	w1, w20
  1e00035d44:	aa1303e0 	mov	x0, x19
  1e00035d48:	910203ec 	add	x12, sp, #0x80
  1e00035d4c:	97fffd60 	bl	1e000352cc <phy_get_training_result>
  1e00035d50:	b9407bee 	ldr	w14, [sp, #120]
  1e00035d54:	3400006e 	cbz	w14, 1e00035d60 <phy_write_vref_training+0xd8>
  1e00035d58:	b9407fe0 	ldr	w0, [sp, #124]
  1e00035d5c:	35000540 	cbnz	w0, 1e00035e04 <phy_write_vref_training+0x17c>
  1e00035d60:	f94037e2 	ldr	x2, [sp, #104]
  1e00035d64:	9101dbe4 	add	x4, sp, #0x76
  1e00035d68:	9101d3e3 	add	x3, sp, #0x74
  1e00035d6c:	2a1403e1 	mov	w1, w20
  1e00035d70:	aa1303e0 	mov	x0, x19
  1e00035d74:	97fffcd9 	bl	1e000350d8 <phy_find_min_result>
  1e00035d78:	3500046e 	cbnz	w14, 1e00035e04 <phy_write_vref_training+0x17c>
  1e00035d7c:	7940ebe0 	ldrh	w0, [sp, #116]
  1e00035d80:	b82d7980 	str	w0, [x12, x13, lsl #2]
  1e00035d84:	b9407fe1 	ldr	w1, [sp, #124]
  1e00035d88:	7940efe0 	ldrh	w0, [sp, #118]
  1e00035d8c:	7100003f 	cmp	w1, #0x0
  1e00035d90:	1a9f0000 	csel	w0, w0, wzr, eq	// eq = none
  1e00035d94:	b82d7b60 	str	w0, [x27, x13, lsl #2]
  1e00035d98:	71000f1f 	cmp	w24, #0x3
  1e00035d9c:	54000388 	b.hi	1e00035e0c <phy_write_vref_training+0x184>  // b.pmore
  1e00035da0:	11000718 	add	w24, w24, #0x1
  1e00035da4:	12003f18 	and	w24, w24, #0xffff
  1e00035da8:	110006f7 	add	w23, w23, #0x1
  1e00035dac:	7100feff 	cmp	w23, #0x3f
  1e00035db0:	54fffa61 	b.ne	1e00035cfc <phy_write_vref_training+0x74>  // b.any
  1e00035db4:	f87c7a61 	ldr	x1, [x19, x28, lsl #3]
  1e00035db8:	51000aa2 	sub	w2, w21, #0x2
  1e00035dbc:	51000ad6 	sub	w22, w22, #0x2
  1e00035dc0:	12003ed6 	and	w22, w22, #0xffff
  1e00035dc4:	b9401420 	ldr	w0, [x1, #20]
  1e00035dc8:	0b2222c2 	add	w2, w22, w2, uxth
  1e00035dcc:	121c7800 	and	w0, w0, #0xfffffff7
  1e00035dd0:	b9001420 	str	w0, [x1, #20]
  1e00035dd4:	d3414042 	ubfx	x2, x2, #1, #16
  1e00035dd8:	2a1403e1 	mov	w1, w20
  1e00035ddc:	aa1303e0 	mov	x0, x19
  1e00035de0:	97ffe950 	bl	1e00030320 <phy_set_write_vref>
  1e00035de4:	a94153f3 	ldp	x19, x20, [sp, #16]
  1e00035de8:	52800000 	mov	w0, #0x0                   	// #0
  1e00035dec:	a9425bf5 	ldp	x21, x22, [sp, #32]
  1e00035df0:	a94363f7 	ldp	x23, x24, [sp, #48]
  1e00035df4:	a9446bf9 	ldp	x25, x26, [sp, #64]
  1e00035df8:	a94573fb 	ldp	x27, x28, [sp, #80]
  1e00035dfc:	a8cb7bfd 	ldp	x29, x30, [sp], #176
  1e00035e00:	d65f03c0 	ret
  1e00035e04:	b82d799f 	str	wzr, [x12, x13, lsl #2]
  1e00035e08:	17ffffdf 	b	1e00035d84 <phy_write_vref_training+0xfc>
  1e00035e0c:	aa0c03e0 	mov	x0, x12
  1e00035e10:	97ffff8c 	bl	1e00035c40 <phy_vwm_sum_margin>
  1e00035e14:	12003c04 	and	w4, w0, #0xffff
  1e00035e18:	aa1b03e0 	mov	x0, x27
  1e00035e1c:	97ffff89 	bl	1e00035c40 <phy_vwm_sum_margin>
  1e00035e20:	12003c02 	and	w2, w0, #0xffff
  1e00035e24:	6b19009f 	cmp	w4, w25
  1e00035e28:	54000188 	b.hi	1e00035e58 <phy_write_vref_training+0x1d0>  // b.pmore
  1e00035e2c:	2a1903e4 	mov	w4, w25
  1e00035e30:	6b1a005f 	cmp	w2, w26
  1e00035e34:	54000168 	b.hi	1e00035e60 <phy_write_vref_training+0x1d8>  // b.pmore
  1e00035e38:	2a1a03e2 	mov	w2, w26
  1e00035e3c:	aa0c03e0 	mov	x0, x12
  1e00035e40:	2a0203fa 	mov	w26, w2
  1e00035e44:	97ffff88 	bl	1e00035c64 <phy_vwm_shitf_window>
  1e00035e48:	2a0403f9 	mov	w25, w4
  1e00035e4c:	aa1b03e0 	mov	x0, x27
  1e00035e50:	97ffff85 	bl	1e00035c64 <phy_vwm_shitf_window>
  1e00035e54:	17ffffd5 	b	1e00035da8 <phy_write_vref_training+0x120>
  1e00035e58:	2a1703f5 	mov	w21, w23
  1e00035e5c:	17fffff5 	b	1e00035e30 <phy_write_vref_training+0x1a8>
  1e00035e60:	2a1703f6 	mov	w22, w23
  1e00035e64:	17fffff6 	b	1e00035e3c <phy_write_vref_training+0x1b4>

0000001e00035e68 <phy_read_vref_training_LFSR_vertical>:
  1e00035e68:	d10a03ff 	sub	sp, sp, #0x280
  1e00035e6c:	d2802002 	mov	x2, #0x100                 	// #256
  1e00035e70:	a9007bfd 	stp	x29, x30, [sp]
  1e00035e74:	910003fd 	mov	x29, sp
  1e00035e78:	a9046bf9 	stp	x25, x26, [sp, #64]
  1e00035e7c:	910203f9 	add	x25, sp, #0x80
  1e00035e80:	910603fa 	add	x26, sp, #0x180
  1e00035e84:	a90153f3 	stp	x19, x20, [sp, #16]
  1e00035e88:	12001c33 	and	w19, w1, #0xff
  1e00035e8c:	aa0003f4 	mov	x20, x0
  1e00035e90:	52800001 	mov	w1, #0x0                   	// #0
  1e00035e94:	aa1903e0 	mov	x0, x25
  1e00035e98:	a9025bf5 	stp	x21, x22, [sp, #32]
  1e00035e9c:	d37d1e76 	ubfiz	x22, x19, #3, #8
  1e00035ea0:	a90363f7 	stp	x23, x24, [sp, #48]
  1e00035ea4:	d2800017 	mov	x23, #0x0                   	// #0
  1e00035ea8:	a90573fb 	stp	x27, x28, [sp, #80]
  1e00035eac:	52801ffb 	mov	w27, #0xff                  	// #255
  1e00035eb0:	2a1b03fc 	mov	w28, w27
  1e00035eb4:	7900ebff 	strh	wzr, [sp, #116]
  1e00035eb8:	7900efff 	strh	wzr, [sp, #118]
  1e00035ebc:	94001933 	bl	1e0003c388 <memset>
  1e00035ec0:	d2802002 	mov	x2, #0x100                 	// #256
  1e00035ec4:	52800001 	mov	w1, #0x0                   	// #0
  1e00035ec8:	aa1a03e0 	mov	x0, x26
  1e00035ecc:	9400192f 	bl	1e0003c388 <memset>
  1e00035ed0:	97fffa21 	bl	1e00034754 <phy_acquire_vwm_buf>
  1e00035ed4:	aa0003f5 	mov	x21, x0
  1e00035ed8:	290cffff 	stp	wzr, wzr, [sp, #100]
  1e00035edc:	12003ef8 	and	w24, w23, #0xffff
  1e00035ee0:	2a1303e1 	mov	w1, w19
  1e00035ee4:	2a1803e3 	mov	w3, w24
  1e00035ee8:	2a1803e2 	mov	w2, w24
  1e00035eec:	aa1403e0 	mov	x0, x20
  1e00035ef0:	290f7fff 	stp	wzr, wzr, [sp, #120]
  1e00035ef4:	97ffe8fb 	bl	1e000302e0 <phy_set_read_vref>
  1e00035ef8:	528000a0 	mov	w0, #0x5                   	// #5
  1e00035efc:	97fff676 	bl	1e000338d4 <udelay>
  1e00035f00:	f8766a81 	ldr	x1, [x20, x22]
  1e00035f04:	b9401420 	ldr	w0, [x1, #20]
  1e00035f08:	321e0000 	orr	w0, w0, #0x4
  1e00035f0c:	b9001420 	str	w0, [x1, #20]
  1e00035f10:	2a1303e1 	mov	w1, w19
  1e00035f14:	aa1403e0 	mov	x0, x20
  1e00035f18:	97ffe86c 	bl	1e000300c8 <phy_do_training>
  1e00035f1c:	f8766a81 	ldr	x1, [x20, x22]
  1e00035f20:	b9401420 	ldr	w0, [x1, #20]
  1e00035f24:	121d7800 	and	w0, w0, #0xfffffffb
  1e00035f28:	b9001420 	str	w0, [x1, #20]
  1e00035f2c:	2a1303e1 	mov	w1, w19
  1e00035f30:	aa1403e0 	mov	x0, x20
  1e00035f34:	97fffe2f 	bl	1e000357f0 <phy_read_training_LFSR_seed>
  1e00035f38:	f8766a80 	ldr	x0, [x20, x22]
  1e00035f3c:	52800682 	mov	w2, #0x34                  	// #52
  1e00035f40:	b9401401 	ldr	w1, [x0, #20]
  1e00035f44:	321e0021 	orr	w1, w1, #0x4
  1e00035f48:	b9001401 	str	w1, [x0, #20]
  1e00035f4c:	b9402c01 	ldr	w1, [x0, #44]
  1e00035f50:	33001841 	bfxil	w1, w2, #0, #7
  1e00035f54:	b9002c01 	str	w1, [x0, #44]
  1e00035f58:	528000c2 	mov	w2, #0x6                   	// #6
  1e00035f5c:	b9401001 	ldr	w1, [x0, #16]
  1e00035f60:	33171041 	bfi	w1, w2, #9, #5
  1e00035f64:	b9001001 	str	w1, [x0, #16]
  1e00035f68:	2a1303e1 	mov	w1, w19
  1e00035f6c:	aa1403e0 	mov	x0, x20
  1e00035f70:	97ffe856 	bl	1e000300c8 <phy_do_training>
  1e00035f74:	f8766a80 	ldr	x0, [x20, x22]
  1e00035f78:	9101f3e3 	add	x3, sp, #0x7c
  1e00035f7c:	9101e3e2 	add	x2, sp, #0x78
  1e00035f80:	b9401401 	ldr	w1, [x0, #20]
  1e00035f84:	121d7821 	and	w1, w1, #0xfffffffb
  1e00035f88:	b9001401 	str	w1, [x0, #20]
  1e00035f8c:	b9400401 	ldr	w1, [x0, #4]
  1e00035f90:	120a7821 	and	w1, w1, #0xffdfffff
  1e00035f94:	b9000401 	str	w1, [x0, #4]
  1e00035f98:	2a1303e1 	mov	w1, w19
  1e00035f9c:	aa1403e0 	mov	x0, x20
  1e00035fa0:	97fffbea 	bl	1e00034f48 <phy_read_training_fail_check>
  1e00035fa4:	aa1503e2 	mov	x2, x21
  1e00035fa8:	2a1303e1 	mov	w1, w19
  1e00035fac:	aa1403e0 	mov	x0, x20
  1e00035fb0:	97fffcc7 	bl	1e000352cc <phy_get_training_result>
  1e00035fb4:	b9407bec 	ldr	w12, [sp, #120]
  1e00035fb8:	3400006c 	cbz	w12, 1e00035fc4 <phy_read_vref_training_LFSR_vertical+0x15c>
  1e00035fbc:	b9407fe0 	ldr	w0, [sp, #124]
  1e00035fc0:	350002c0 	cbnz	w0, 1e00036018 <phy_read_vref_training_LFSR_vertical+0x1b0>
  1e00035fc4:	9101dbe4 	add	x4, sp, #0x76
  1e00035fc8:	9101d3e3 	add	x3, sp, #0x74
  1e00035fcc:	aa1503e2 	mov	x2, x21
  1e00035fd0:	2a1303e1 	mov	w1, w19
  1e00035fd4:	aa1403e0 	mov	x0, x20
  1e00035fd8:	97fffc40 	bl	1e000350d8 <phy_find_min_result>
  1e00035fdc:	350000ec 	cbnz	w12, 1e00035ff8 <phy_read_vref_training_LFSR_vertical+0x190>
  1e00035fe0:	7940ebe0 	ldrh	w0, [sp, #116]
  1e00035fe4:	340000a0 	cbz	w0, 1e00035ff8 <phy_read_vref_training_LFSR_vertical+0x190>
  1e00035fe8:	7103ff9f 	cmp	w28, #0xff
  1e00035fec:	b8377b20 	str	w0, [x25, x23, lsl #2]
  1e00035ff0:	1a98139c 	csel	w28, w28, w24, ne	// ne = any
  1e00035ff4:	b90067f8 	str	w24, [sp, #100]
  1e00035ff8:	b9407fe0 	ldr	w0, [sp, #124]
  1e00035ffc:	350000e0 	cbnz	w0, 1e00036018 <phy_read_vref_training_LFSR_vertical+0x1b0>
  1e00036000:	7940efe0 	ldrh	w0, [sp, #118]
  1e00036004:	340000a0 	cbz	w0, 1e00036018 <phy_read_vref_training_LFSR_vertical+0x1b0>
  1e00036008:	7103ff7f 	cmp	w27, #0xff
  1e0003600c:	b8377b40 	str	w0, [x26, x23, lsl #2]
  1e00036010:	1a98137b 	csel	w27, w27, w24, ne	// ne = any
  1e00036014:	b9006bf8 	str	w24, [sp, #104]
  1e00036018:	910006f7 	add	x23, x23, #0x1
  1e0003601c:	f100feff 	cmp	x23, #0x3f
  1e00036020:	54fff5e1 	b.ne	1e00035edc <phy_read_vref_training_LFSR_vertical+0x74>  // b.any
  1e00036024:	7103ff9f 	cmp	w28, #0xff
  1e00036028:	54000060 	b.eq	1e00036034 <phy_read_vref_training_LFSR_vertical+0x1cc>  // b.none
  1e0003602c:	7103ff7f 	cmp	w27, #0xff
  1e00036030:	54000261 	b.ne	1e0003607c <phy_read_vref_training_LFSR_vertical+0x214>  // b.any
  1e00036034:	2a1303e1 	mov	w1, w19
  1e00036038:	d0000020 	adrp	x0, 1e0003c000 <vsnprintf+0x270>
  1e0003603c:	913eec00 	add	x0, x0, #0xfbb
  1e00036040:	940016f3 	bl	1e0003bc0c <printf>
  1e00036044:	aa1403e0 	mov	x0, x20
  1e00036048:	528003e3 	mov	w3, #0x1f                  	// #31
  1e0003604c:	2a1303e1 	mov	w1, w19
  1e00036050:	2a0303e2 	mov	w2, w3
  1e00036054:	97ffe8a3 	bl	1e000302e0 <phy_set_read_vref>
  1e00036058:	52800020 	mov	w0, #0x1                   	// #1
  1e0003605c:	a9407bfd 	ldp	x29, x30, [sp]
  1e00036060:	a94153f3 	ldp	x19, x20, [sp, #16]
  1e00036064:	a9425bf5 	ldp	x21, x22, [sp, #32]
  1e00036068:	a94363f7 	ldp	x23, x24, [sp, #48]
  1e0003606c:	a9446bf9 	ldp	x25, x26, [sp, #64]
  1e00036070:	a94573fb 	ldp	x27, x28, [sp, #80]
  1e00036074:	910a03ff 	add	sp, sp, #0x280
  1e00036078:	d65f03c0 	ret
  1e0003607c:	7100539f 	cmp	w28, #0x14
  1e00036080:	54000b48 	b.hi	1e000361e8 <phy_read_vref_training_LFSR_vertical+0x380>  // b.pmore
  1e00036084:	7100439f 	cmp	w28, #0x10
  1e00036088:	54000b48 	b.hi	1e000361f0 <phy_read_vref_training_LFSR_vertical+0x388>  // b.pmore
  1e0003608c:	71002b9f 	cmp	w28, #0xa
  1e00036090:	1a9f97f8 	cset	w24, hi	// hi = pmore
  1e00036094:	11000718 	add	w24, w24, #0x1
  1e00036098:	7100537f 	cmp	w27, #0x14
  1e0003609c:	54000ae8 	b.hi	1e000361f8 <phy_read_vref_training_LFSR_vertical+0x390>  // b.pmore
  1e000360a0:	7100437f 	cmp	w27, #0x10
  1e000360a4:	54000ae8 	b.hi	1e00036200 <phy_read_vref_training_LFSR_vertical+0x398>  // b.pmore
  1e000360a8:	71002b7f 	cmp	w27, #0xa
  1e000360ac:	1a9f97f7 	cset	w23, hi	// hi = pmore
  1e000360b0:	110006f7 	add	w23, w23, #0x1
  1e000360b4:	b94067e0 	ldr	w0, [sp, #100]
  1e000360b8:	0b000395 	add	w21, w28, w0
  1e000360bc:	b9406be0 	ldr	w0, [sp, #104]
  1e000360c0:	0b000376 	add	w22, w27, w0
  1e000360c4:	0b950715 	add	w21, w24, w21, asr #1
  1e000360c8:	12003eb5 	and	w21, w21, #0xffff
  1e000360cc:	0b9606f6 	add	w22, w23, w22, asr #1
  1e000360d0:	12003ed6 	and	w22, w22, #0xffff
  1e000360d4:	7100febf 	cmp	w21, #0x3f
  1e000360d8:	54000109 	b.ls	1e000360f8 <phy_read_vref_training_LFSR_vertical+0x290>  // b.plast
  1e000360dc:	2a1503e2 	mov	w2, w21
  1e000360e0:	528007f5 	mov	w21, #0x3f                  	// #63
  1e000360e4:	2a1303e1 	mov	w1, w19
  1e000360e8:	528007e3 	mov	w3, #0x3f                  	// #63
  1e000360ec:	d0000020 	adrp	x0, 1e0003c000 <vsnprintf+0x270>
  1e000360f0:	913fec00 	add	x0, x0, #0xffb
  1e000360f4:	940016c6 	bl	1e0003bc0c <printf>
  1e000360f8:	7100fedf 	cmp	w22, #0x3f
  1e000360fc:	54000109 	b.ls	1e0003611c <phy_read_vref_training_LFSR_vertical+0x2b4>  // b.plast
  1e00036100:	2a1603e2 	mov	w2, w22
  1e00036104:	528007f6 	mov	w22, #0x3f                  	// #63
  1e00036108:	2a1303e1 	mov	w1, w19
  1e0003610c:	528007e3 	mov	w3, #0x3f                  	// #63
  1e00036110:	f0000020 	adrp	x0, 1e0003d000 <CSWTCH.192+0x80c>
  1e00036114:	9100e000 	add	x0, x0, #0x38
  1e00036118:	940016bd 	bl	1e0003bc0c <printf>
  1e0003611c:	2a1303e1 	mov	w1, w19
  1e00036120:	aa1403e0 	mov	x0, x20
  1e00036124:	97ffe7e4 	bl	1e000300b4 <get_phy_lock_value>
  1e00036128:	12003c01 	and	w1, w0, #0xffff
  1e0003612c:	f0000020 	adrp	x0, 1e0003d000 <CSWTCH.192+0x80c>
  1e00036130:	9101d400 	add	x0, x0, #0x75
  1e00036134:	b9006fe1 	str	w1, [sp, #108]
  1e00036138:	940016b5 	bl	1e0003bc0c <printf>
  1e0003613c:	d37e3ea0 	ubfiz	x0, x21, #2, #16
  1e00036140:	d37e3ec2 	ubfiz	x2, x22, #2, #16
  1e00036144:	b9406fe1 	ldr	w1, [sp, #108]
  1e00036148:	2a1803e5 	mov	w5, w24
  1e0003614c:	b8606b39 	ldr	w25, [x25, x0]
  1e00036150:	52806400 	mov	w0, #0x320                 	// #800
  1e00036154:	b8626b5a 	ldr	w26, [x26, x2]
  1e00036158:	2a1c03e2 	mov	w2, w28
  1e0003615c:	1b007f39 	mul	w25, w25, w0
  1e00036160:	1b007f5a 	mul	w26, w26, w0
  1e00036164:	b94067e0 	ldr	w0, [sp, #100]
  1e00036168:	4b1c0004 	sub	w4, w0, w28
  1e0003616c:	aa0003e3 	mov	x3, x0
  1e00036170:	1ac10b39 	udiv	w25, w25, w1
  1e00036174:	f0000020 	adrp	x0, 1e0003d000 <CSWTCH.192+0x80c>
  1e00036178:	91021400 	add	x0, x0, #0x85
  1e0003617c:	1ac10b5a 	udiv	w26, w26, w1
  1e00036180:	2a1303e1 	mov	w1, w19
  1e00036184:	940016a2 	bl	1e0003bc0c <printf>
  1e00036188:	b9406be0 	ldr	w0, [sp, #104]
  1e0003618c:	2a1703e5 	mov	w5, w23
  1e00036190:	2a1b03e2 	mov	w2, w27
  1e00036194:	2a1303e1 	mov	w1, w19
  1e00036198:	4b1b0004 	sub	w4, w0, w27
  1e0003619c:	aa0003e3 	mov	x3, x0
  1e000361a0:	f0000020 	adrp	x0, 1e0003d000 <CSWTCH.192+0x80c>
  1e000361a4:	91030800 	add	x0, x0, #0xc2
  1e000361a8:	94001699 	bl	1e0003bc0c <printf>
  1e000361ac:	2a1a03e5 	mov	w5, w26
  1e000361b0:	2a1603e4 	mov	w4, w22
  1e000361b4:	2a1903e3 	mov	w3, w25
  1e000361b8:	2a1503e2 	mov	w2, w21
  1e000361bc:	2a1303e1 	mov	w1, w19
  1e000361c0:	f0000020 	adrp	x0, 1e0003d000 <CSWTCH.192+0x80c>
  1e000361c4:	9103fc00 	add	x0, x0, #0xff
  1e000361c8:	94001691 	bl	1e0003bc0c <printf>
  1e000361cc:	aa1403e0 	mov	x0, x20
  1e000361d0:	2a1603e3 	mov	w3, w22
  1e000361d4:	2a1503e2 	mov	w2, w21
  1e000361d8:	2a1303e1 	mov	w1, w19
  1e000361dc:	97ffe841 	bl	1e000302e0 <phy_set_read_vref>
  1e000361e0:	52800000 	mov	w0, #0x0                   	// #0
  1e000361e4:	17ffff9e 	b	1e0003605c <phy_read_vref_training_LFSR_vertical+0x1f4>
  1e000361e8:	52800098 	mov	w24, #0x4                   	// #4
  1e000361ec:	17ffffab 	b	1e00036098 <phy_read_vref_training_LFSR_vertical+0x230>
  1e000361f0:	52800078 	mov	w24, #0x3                   	// #3
  1e000361f4:	17ffffa9 	b	1e00036098 <phy_read_vref_training_LFSR_vertical+0x230>
  1e000361f8:	52800097 	mov	w23, #0x4                   	// #4
  1e000361fc:	17ffffae 	b	1e000360b4 <phy_read_vref_training_LFSR_vertical+0x24c>
  1e00036200:	52800077 	mov	w23, #0x3                   	// #3
  1e00036204:	17ffffac 	b	1e000360b4 <phy_read_vref_training_LFSR_vertical+0x24c>

0000001e00036208 <phy_prbs_read_training>:
  1e00036208:	a9bd7bfd 	stp	x29, x30, [sp, #-48]!
  1e0003620c:	910003fd 	mov	x29, sp
  1e00036210:	a90153f3 	stp	x19, x20, [sp, #16]
  1e00036214:	d37d1c34 	ubfiz	x20, x1, #3, #8
  1e00036218:	aa0003f3 	mov	x19, x0
  1e0003621c:	a9025bf5 	stp	x21, x22, [sp, #32]
  1e00036220:	8b140016 	add	x22, x0, x20
  1e00036224:	52800201 	mov	w1, #0x10                  	// #16
  1e00036228:	f8746802 	ldr	x2, [x0, x20]
  1e0003622c:	b9439440 	ldr	w0, [x2, #916]
  1e00036230:	320b0000 	orr	w0, w0, #0x200000
  1e00036234:	b9039440 	str	w0, [x2, #916]
  1e00036238:	b9439040 	ldr	w0, [x2, #912]
  1e0003623c:	331a3c20 	bfi	w0, w1, #6, #16
  1e00036240:	b9039040 	str	w0, [x2, #912]
  1e00036244:	b9401440 	ldr	w0, [x2, #20]
  1e00036248:	2a010000 	orr	w0, w0, w1
  1e0003624c:	b9001440 	str	w0, [x2, #20]
  1e00036250:	12800000 	mov	w0, #0xffffffff            	// #-1
  1e00036254:	b9073440 	str	w0, [x2, #1844]
  1e00036258:	b9073840 	str	w0, [x2, #1848]
  1e0003625c:	b9473040 	ldr	w0, [x2, #1840]
  1e00036260:	321d0c00 	orr	w0, w0, #0x78
  1e00036264:	b9073040 	str	w0, [x2, #1840]
  1e00036268:	b9473040 	ldr	w0, [x2, #1840]
  1e0003626c:	320d0c00 	orr	w0, w0, #0x780000
  1e00036270:	b9073040 	str	w0, [x2, #1840]
  1e00036274:	b9439440 	ldr	w0, [x2, #916]
  1e00036278:	320d0000 	orr	w0, w0, #0x80000
  1e0003627c:	b9039440 	str	w0, [x2, #916]
  1e00036280:	b9473040 	ldr	w0, [x2, #1840]
  1e00036284:	32000400 	orr	w0, w0, #0x3
  1e00036288:	b9073040 	str	w0, [x2, #1840]
  1e0003628c:	b9473040 	ldr	w0, [x2, #1840]
  1e00036290:	32100400 	orr	w0, w0, #0x30000
  1e00036294:	b9073040 	str	w0, [x2, #1840]
  1e00036298:	b9401440 	ldr	w0, [x2, #20]
  1e0003629c:	32000000 	orr	w0, w0, #0x1
  1e000362a0:	b9001440 	str	w0, [x2, #20]
  1e000362a4:	f94002c0 	ldr	x0, [x22]
  1e000362a8:	b9439015 	ldr	w21, [x0, #912]
  1e000362ac:	52800020 	mov	w0, #0x1                   	// #1
  1e000362b0:	d34516b5 	ubfx	x21, x21, #5, #1
  1e000362b4:	97fff588 	bl	1e000338d4 <udelay>
  1e000362b8:	34ffff75 	cbz	w21, 1e000362a4 <phy_prbs_read_training+0x9c>
  1e000362bc:	f94002c0 	ldr	x0, [x22]
  1e000362c0:	b9401415 	ldr	w21, [x0, #20]
  1e000362c4:	52800020 	mov	w0, #0x1                   	// #1
  1e000362c8:	d3471eb5 	ubfx	x21, x21, #7, #1
  1e000362cc:	97fff582 	bl	1e000338d4 <udelay>
  1e000362d0:	34ffff75 	cbz	w21, 1e000362bc <phy_prbs_read_training+0xb4>
  1e000362d4:	f8746a60 	ldr	x0, [x19, x20]
  1e000362d8:	b9401401 	ldr	w1, [x0, #20]
  1e000362dc:	121f7821 	and	w1, w1, #0xfffffffe
  1e000362e0:	b9001401 	str	w1, [x0, #20]
  1e000362e4:	b907341f 	str	wzr, [x0, #1844]
  1e000362e8:	b907381f 	str	wzr, [x0, #1848]
  1e000362ec:	b9473001 	ldr	w1, [x0, #1840]
  1e000362f0:	12196c21 	and	w1, w1, #0xffffff87
  1e000362f4:	b9073001 	str	w1, [x0, #1840]
  1e000362f8:	b9473001 	ldr	w1, [x0, #1840]
  1e000362fc:	12096c21 	and	w1, w1, #0xff87ffff
  1e00036300:	b9073001 	str	w1, [x0, #1840]
  1e00036304:	b9439401 	ldr	w1, [x0, #916]
  1e00036308:	120c7821 	and	w1, w1, #0xfff7ffff
  1e0003630c:	b9039401 	str	w1, [x0, #916]
  1e00036310:	b9473001 	ldr	w1, [x0, #1840]
  1e00036314:	121e7421 	and	w1, w1, #0xfffffffc
  1e00036318:	b9073001 	str	w1, [x0, #1840]
  1e0003631c:	b9473001 	ldr	w1, [x0, #1840]
  1e00036320:	120e7421 	and	w1, w1, #0xfffcffff
  1e00036324:	b9073001 	str	w1, [x0, #1840]
  1e00036328:	b9473001 	ldr	w1, [x0, #1840]
  1e0003632c:	121d7821 	and	w1, w1, #0xfffffffb
  1e00036330:	b9073001 	str	w1, [x0, #1840]
  1e00036334:	b9473001 	ldr	w1, [x0, #1840]
  1e00036338:	120d7821 	and	w1, w1, #0xfffbffff
  1e0003633c:	b9073001 	str	w1, [x0, #1840]
  1e00036340:	b9401401 	ldr	w1, [x0, #20]
  1e00036344:	121b7821 	and	w1, w1, #0xffffffef
  1e00036348:	b9001401 	str	w1, [x0, #20]
  1e0003634c:	b9439401 	ldr	w1, [x0, #916]
  1e00036350:	120a7821 	and	w1, w1, #0xffdfffff
  1e00036354:	b9039401 	str	w1, [x0, #916]
  1e00036358:	52800000 	mov	w0, #0x0                   	// #0
  1e0003635c:	a94153f3 	ldp	x19, x20, [sp, #16]
  1e00036360:	a9425bf5 	ldp	x21, x22, [sp, #32]
  1e00036364:	a8c37bfd 	ldp	x29, x30, [sp], #48
  1e00036368:	d65f03c0 	ret

0000001e0003636c <phy_prbs_write_training>:
  1e0003636c:	a9bd7bfd 	stp	x29, x30, [sp, #-48]!
  1e00036370:	910003fd 	mov	x29, sp
  1e00036374:	a90153f3 	stp	x19, x20, [sp, #16]
  1e00036378:	d37d1c34 	ubfiz	x20, x1, #3, #8
  1e0003637c:	aa0003f3 	mov	x19, x0
  1e00036380:	a9025bf5 	stp	x21, x22, [sp, #32]
  1e00036384:	8b140016 	add	x22, x0, x20
  1e00036388:	52800201 	mov	w1, #0x10                  	// #16
  1e0003638c:	f8746802 	ldr	x2, [x0, x20]
  1e00036390:	b9439440 	ldr	w0, [x2, #916]
  1e00036394:	320b0000 	orr	w0, w0, #0x200000
  1e00036398:	b9039440 	str	w0, [x2, #916]
  1e0003639c:	b9439040 	ldr	w0, [x2, #912]
  1e000363a0:	331a3c20 	bfi	w0, w1, #6, #16
  1e000363a4:	b9039040 	str	w0, [x2, #912]
  1e000363a8:	b9401440 	ldr	w0, [x2, #20]
  1e000363ac:	321b0000 	orr	w0, w0, #0x20
  1e000363b0:	b9001440 	str	w0, [x2, #20]
  1e000363b4:	12800000 	mov	w0, #0xffffffff            	// #-1
  1e000363b8:	b9073440 	str	w0, [x2, #1844]
  1e000363bc:	b9073840 	str	w0, [x2, #1848]
  1e000363c0:	b9473040 	ldr	w0, [x2, #1840]
  1e000363c4:	321d0c00 	orr	w0, w0, #0x78
  1e000363c8:	b9073040 	str	w0, [x2, #1840]
  1e000363cc:	b9473040 	ldr	w0, [x2, #1840]
  1e000363d0:	320d0c00 	orr	w0, w0, #0x780000
  1e000363d4:	b9073040 	str	w0, [x2, #1840]
  1e000363d8:	b9439440 	ldr	w0, [x2, #916]
  1e000363dc:	320d0000 	orr	w0, w0, #0x80000
  1e000363e0:	b9039440 	str	w0, [x2, #916]
  1e000363e4:	b9473040 	ldr	w0, [x2, #1840]
  1e000363e8:	32000400 	orr	w0, w0, #0x3
  1e000363ec:	b9073040 	str	w0, [x2, #1840]
  1e000363f0:	b9473040 	ldr	w0, [x2, #1840]
  1e000363f4:	32100400 	orr	w0, w0, #0x30000
  1e000363f8:	b9073040 	str	w0, [x2, #1840]
  1e000363fc:	b9401440 	ldr	w0, [x2, #20]
  1e00036400:	32000000 	orr	w0, w0, #0x1
  1e00036404:	b9001440 	str	w0, [x2, #20]
  1e00036408:	f94002c0 	ldr	x0, [x22]
  1e0003640c:	b9439015 	ldr	w21, [x0, #912]
  1e00036410:	52800020 	mov	w0, #0x1                   	// #1
  1e00036414:	d34412b5 	ubfx	x21, x21, #4, #1
  1e00036418:	97fff52f 	bl	1e000338d4 <udelay>
  1e0003641c:	34ffff75 	cbz	w21, 1e00036408 <phy_prbs_write_training+0x9c>
  1e00036420:	f94002c0 	ldr	x0, [x22]
  1e00036424:	b9401415 	ldr	w21, [x0, #20]
  1e00036428:	52800020 	mov	w0, #0x1                   	// #1
  1e0003642c:	d3471eb5 	ubfx	x21, x21, #7, #1
  1e00036430:	97fff529 	bl	1e000338d4 <udelay>
  1e00036434:	34ffff75 	cbz	w21, 1e00036420 <phy_prbs_write_training+0xb4>
  1e00036438:	f8746a60 	ldr	x0, [x19, x20]
  1e0003643c:	b9401401 	ldr	w1, [x0, #20]
  1e00036440:	121f7821 	and	w1, w1, #0xfffffffe
  1e00036444:	b9001401 	str	w1, [x0, #20]
  1e00036448:	b907341f 	str	wzr, [x0, #1844]
  1e0003644c:	b907381f 	str	wzr, [x0, #1848]
  1e00036450:	b9473001 	ldr	w1, [x0, #1840]
  1e00036454:	12196c21 	and	w1, w1, #0xffffff87
  1e00036458:	b9073001 	str	w1, [x0, #1840]
  1e0003645c:	b9473001 	ldr	w1, [x0, #1840]
  1e00036460:	12096c21 	and	w1, w1, #0xff87ffff
  1e00036464:	b9073001 	str	w1, [x0, #1840]
  1e00036468:	b9439401 	ldr	w1, [x0, #916]
  1e0003646c:	120c7821 	and	w1, w1, #0xfff7ffff
  1e00036470:	b9039401 	str	w1, [x0, #916]
  1e00036474:	b9473001 	ldr	w1, [x0, #1840]
  1e00036478:	121e7421 	and	w1, w1, #0xfffffffc
  1e0003647c:	b9073001 	str	w1, [x0, #1840]
  1e00036480:	b9473001 	ldr	w1, [x0, #1840]
  1e00036484:	120e7421 	and	w1, w1, #0xfffcffff
  1e00036488:	b9073001 	str	w1, [x0, #1840]
  1e0003648c:	b9473001 	ldr	w1, [x0, #1840]
  1e00036490:	121d7821 	and	w1, w1, #0xfffffffb
  1e00036494:	b9073001 	str	w1, [x0, #1840]
  1e00036498:	b9473001 	ldr	w1, [x0, #1840]
  1e0003649c:	120d7821 	and	w1, w1, #0xfffbffff
  1e000364a0:	b9073001 	str	w1, [x0, #1840]
  1e000364a4:	b9401401 	ldr	w1, [x0, #20]
  1e000364a8:	121a7821 	and	w1, w1, #0xffffffdf
  1e000364ac:	b9001401 	str	w1, [x0, #20]
  1e000364b0:	b9439401 	ldr	w1, [x0, #916]
  1e000364b4:	120a7821 	and	w1, w1, #0xffdfffff
  1e000364b8:	b9039401 	str	w1, [x0, #916]
  1e000364bc:	52800000 	mov	w0, #0x0                   	// #0
  1e000364c0:	a94153f3 	ldp	x19, x20, [sp, #16]
  1e000364c4:	a9425bf5 	ldp	x21, x22, [sp, #32]
  1e000364c8:	a8c37bfd 	ldp	x29, x30, [sp], #48
  1e000364cc:	d65f03c0 	ret

0000001e000364d0 <phy_wdqs2ck_training>:
  1e000364d0:	a9bd7bfd 	stp	x29, x30, [sp, #-48]!
  1e000364d4:	910003fd 	mov	x29, sp
  1e000364d8:	f90013f5 	str	x21, [sp, #32]
  1e000364dc:	d37d1c35 	ubfiz	x21, x1, #3, #8
  1e000364e0:	a90153f3 	stp	x19, x20, [sp, #16]
  1e000364e4:	aa0003f3 	mov	x19, x0
  1e000364e8:	f8756802 	ldr	x2, [x0, x21]
  1e000364ec:	b9401443 	ldr	w3, [x2, #20]
  1e000364f0:	321f0063 	orr	w3, w3, #0x2
  1e000364f4:	b9001443 	str	w3, [x2, #20]
  1e000364f8:	b9400443 	ldr	w3, [x2, #4]
  1e000364fc:	320f0063 	orr	w3, w3, #0x20000
  1e00036500:	b9000443 	str	w3, [x2, #4]
  1e00036504:	97ffe6f1 	bl	1e000300c8 <phy_do_training>
  1e00036508:	f8756a60 	ldr	x0, [x19, x21]
  1e0003650c:	b9401401 	ldr	w1, [x0, #20]
  1e00036510:	121e7821 	and	w1, w1, #0xfffffffd
  1e00036514:	b9001401 	str	w1, [x0, #20]
  1e00036518:	b9400401 	ldr	w1, [x0, #4]
  1e0003651c:	120e7821 	and	w1, w1, #0xfffdffff
  1e00036520:	b9000401 	str	w1, [x0, #4]
  1e00036524:	b9484400 	ldr	w0, [x0, #2116]
  1e00036528:	f240041f 	tst	x0, #0x3
  1e0003652c:	54000280 	b.eq	1e0003657c <phy_wdqs2ck_training+0xac>  // b.none
  1e00036530:	52800034 	mov	w20, #0x1                   	// #1
  1e00036534:	f0000020 	adrp	x0, 1e0003d000 <CSWTCH.192+0x80c>
  1e00036538:	91052800 	add	x0, x0, #0x14a
  1e0003653c:	97ffee1e 	bl	1e00031db4 <tf_log>
  1e00036540:	f8756a60 	ldr	x0, [x19, x21]
  1e00036544:	b9484800 	ldr	w0, [x0, #2120]
  1e00036548:	f240041f 	tst	x0, #0x3
  1e0003654c:	540000a0 	b.eq	1e00036560 <phy_wdqs2ck_training+0x90>  // b.none
  1e00036550:	52800034 	mov	w20, #0x1                   	// #1
  1e00036554:	f0000020 	adrp	x0, 1e0003d000 <CSWTCH.192+0x80c>
  1e00036558:	91058000 	add	x0, x0, #0x160
  1e0003655c:	97ffee16 	bl	1e00031db4 <tf_log>
  1e00036560:	52800140 	mov	w0, #0xa                   	// #10
  1e00036564:	97fff4dc 	bl	1e000338d4 <udelay>
  1e00036568:	f94013f5 	ldr	x21, [sp, #32]
  1e0003656c:	2a1403e0 	mov	w0, w20
  1e00036570:	a94153f3 	ldp	x19, x20, [sp, #16]
  1e00036574:	a8c37bfd 	ldp	x29, x30, [sp], #48
  1e00036578:	d65f03c0 	ret
  1e0003657c:	52800014 	mov	w20, #0x0                   	// #0
  1e00036580:	17fffff0 	b	1e00036540 <phy_wdqs2ck_training+0x70>

0000001e00036584 <phy_prbs_training>:
  1e00036584:	a9bd7bfd 	stp	x29, x30, [sp, #-48]!
  1e00036588:	910003fd 	mov	x29, sp
  1e0003658c:	a9025bf5 	stp	x21, x22, [sp, #32]
  1e00036590:	92401c36 	and	x22, x1, #0xff
  1e00036594:	aa0003f5 	mov	x21, x0
  1e00036598:	2a1603e1 	mov	w1, w22
  1e0003659c:	a90153f3 	stp	x19, x20, [sp, #16]
  1e000365a0:	97ffff1a 	bl	1e00036208 <phy_prbs_read_training>
  1e000365a4:	f8767aa0 	ldr	x0, [x21, x22, lsl #3]
  1e000365a8:	aa1603f4 	mov	x20, x22
  1e000365ac:	b9439c02 	ldr	w2, [x0, #924]
  1e000365b0:	b943a003 	ldr	w3, [x0, #928]
  1e000365b4:	b943a404 	ldr	w4, [x0, #932]
  1e000365b8:	2a030053 	orr	w19, w2, w3
  1e000365bc:	2a040273 	orr	w19, w19, w4
  1e000365c0:	340000d3 	cbz	w19, 1e000365d8 <phy_prbs_training+0x54>
  1e000365c4:	52800033 	mov	w19, #0x1                   	// #1
  1e000365c8:	2a1603e1 	mov	w1, w22
  1e000365cc:	f0000020 	adrp	x0, 1e0003d000 <CSWTCH.192+0x80c>
  1e000365d0:	9105e800 	add	x0, x0, #0x17a
  1e000365d4:	97ffedf8 	bl	1e00031db4 <tf_log>
  1e000365d8:	2a1403e1 	mov	w1, w20
  1e000365dc:	aa1503e0 	mov	x0, x21
  1e000365e0:	97ffff63 	bl	1e0003636c <phy_prbs_write_training>
  1e000365e4:	f8767aa0 	ldr	x0, [x21, x22, lsl #3]
  1e000365e8:	b943ac02 	ldr	w2, [x0, #940]
  1e000365ec:	b943b003 	ldr	w3, [x0, #944]
  1e000365f0:	b943a404 	ldr	w4, [x0, #932]
  1e000365f4:	2a030040 	orr	w0, w2, w3
  1e000365f8:	2a040000 	orr	w0, w0, w4
  1e000365fc:	340000c0 	cbz	w0, 1e00036614 <phy_prbs_training+0x90>
  1e00036600:	52800033 	mov	w19, #0x1                   	// #1
  1e00036604:	2a1403e1 	mov	w1, w20
  1e00036608:	f0000020 	adrp	x0, 1e0003d000 <CSWTCH.192+0x80c>
  1e0003660c:	91075800 	add	x0, x0, #0x1d6
  1e00036610:	97ffede9 	bl	1e00031db4 <tf_log>
  1e00036614:	a9425bf5 	ldp	x21, x22, [sp, #32]
  1e00036618:	2a1303e0 	mov	w0, w19
  1e0003661c:	a94153f3 	ldp	x19, x20, [sp, #16]
  1e00036620:	a8c37bfd 	ldp	x29, x30, [sp], #48
  1e00036624:	d65f03c0 	ret

0000001e00036628 <phy_recv_offset_calibration>:
  1e00036628:	a9b67bfd 	stp	x29, x30, [sp, #-160]!
  1e0003662c:	aa0303e5 	mov	x5, x3
  1e00036630:	910003fd 	mov	x29, sp
  1e00036634:	a9046bf9 	stp	x25, x26, [sp, #64]
  1e00036638:	d37d1c39 	ubfiz	x25, x1, #3, #8
  1e0003663c:	8b19001a 	add	x26, x0, x25
  1e00036640:	a90153f3 	stp	x19, x20, [sp, #16]
  1e00036644:	aa0003f4 	mov	x20, x0
  1e00036648:	aa0403f3 	mov	x19, x4
  1e0003664c:	f8796800 	ldr	x0, [x0, x25]
  1e00036650:	a9025bf5 	stp	x21, x22, [sp, #32]
  1e00036654:	12001c35 	and	w21, w1, #0xff
  1e00036658:	a90363f7 	stp	x23, x24, [sp, #48]
  1e0003665c:	aa0203f7 	mov	x23, x2
  1e00036660:	52800682 	mov	w2, #0x34                  	// #52
  1e00036664:	a90573fb 	stp	x27, x28, [sp, #80]
  1e00036668:	91209004 	add	x4, x0, #0x824
  1e0003666c:	b9401401 	ldr	w1, [x0, #20]
  1e00036670:	321e0021 	orr	w1, w1, #0x4
  1e00036674:	b9001401 	str	w1, [x0, #20]
  1e00036678:	b9402c01 	ldr	w1, [x0, #44]
  1e0003667c:	33001841 	bfxil	w1, w2, #0, #7
  1e00036680:	b9002c01 	str	w1, [x0, #44]
  1e00036684:	52800022 	mov	w2, #0x1                   	// #1
  1e00036688:	b947d001 	ldr	w1, [x0, #2000]
  1e0003668c:	331f0441 	bfi	w1, w2, #1, #2
  1e00036690:	b907d001 	str	w1, [x0, #2000]
  1e00036694:	911f5001 	add	x1, x0, #0x7d4
  1e00036698:	aa0103e2 	mov	x2, x1
  1e0003669c:	b9400043 	ldr	w3, [x2]
  1e000366a0:	12196063 	and	w3, w3, #0xffffff80
  1e000366a4:	32000063 	orr	w3, w3, #0x1
  1e000366a8:	b9000043 	str	w3, [x2]
  1e000366ac:	b9400043 	ldr	w3, [x2]
  1e000366b0:	12096063 	and	w3, w3, #0xff80ffff
  1e000366b4:	32100063 	orr	w3, w3, #0x10000
  1e000366b8:	b8004443 	str	w3, [x2], #4
  1e000366bc:	eb02009f 	cmp	x4, x2
  1e000366c0:	54fffee1 	b.ne	1e0003669c <phy_recv_offset_calibration+0x74>  // b.any
  1e000366c4:	b947d002 	ldr	w2, [x0, #2000]
  1e000366c8:	52800043 	mov	w3, #0x2                   	// #2
  1e000366cc:	331f0462 	bfi	w2, w3, #1, #2
  1e000366d0:	b907d002 	str	w2, [x0, #2000]
  1e000366d4:	b9400020 	ldr	w0, [x1]
  1e000366d8:	12196000 	and	w0, w0, #0xffffff80
  1e000366dc:	32000000 	orr	w0, w0, #0x1
  1e000366e0:	b9000020 	str	w0, [x1]
  1e000366e4:	b9400020 	ldr	w0, [x1]
  1e000366e8:	12096000 	and	w0, w0, #0xff80ffff
  1e000366ec:	32100000 	orr	w0, w0, #0x10000
  1e000366f0:	b8004420 	str	w0, [x1], #4
  1e000366f4:	eb01009f 	cmp	x4, x1
  1e000366f8:	54fffee1 	b.ne	1e000366d4 <phy_recv_offset_calibration+0xac>  // b.any
  1e000366fc:	52800018 	mov	w24, #0x0                   	// #0
  1e00036700:	5280011c 	mov	w28, #0x8                   	// #8
  1e00036704:	92401f06 	and	x6, x24, #0xff
  1e00036708:	d3483f07 	ubfx	x7, x24, #8, #8
  1e0003670c:	52800016 	mov	w22, #0x0                   	// #0
  1e00036710:	5280001b 	mov	w27, #0x0                   	// #0
  1e00036714:	14000002 	b	1e0003671c <phy_recv_offset_calibration+0xf4>
  1e00036718:	5280003b 	mov	w27, #0x1                   	// #1
  1e0003671c:	f9400341 	ldr	x1, [x26]
  1e00036720:	a9069be5 	stp	x5, x6, [sp, #104]
  1e00036724:	52800020 	mov	w0, #0x1                   	// #1
  1e00036728:	f9003fe7 	str	x7, [sp, #120]
  1e0003672c:	1adb2000 	lsl	w0, w0, w27
  1e00036730:	2a1603e3 	mov	w3, w22
  1e00036734:	b947d022 	ldr	w2, [x1, #2000]
  1e00036738:	331f0402 	bfi	w2, w0, #1, #2
  1e0003673c:	b907d022 	str	w2, [x1, #2000]
  1e00036740:	aa1403e0 	mov	x0, x20
  1e00036744:	2a1803e2 	mov	w2, w24
  1e00036748:	2a1503e1 	mov	w1, w21
  1e0003674c:	97ffe6f8 	bl	1e0003032c <phy_dq_offset_control>
  1e00036750:	2a1603e3 	mov	w3, w22
  1e00036754:	2a1803e2 	mov	w2, w24
  1e00036758:	2a1503e1 	mov	w1, w21
  1e0003675c:	aa1403e0 	mov	x0, x20
  1e00036760:	97ffe710 	bl	1e000303a0 <phy_ecc_offset_control>
  1e00036764:	2a1603e3 	mov	w3, w22
  1e00036768:	2a1803e2 	mov	w2, w24
  1e0003676c:	2a1503e1 	mov	w1, w21
  1e00036770:	aa1403e0 	mov	x0, x20
  1e00036774:	97ffe720 	bl	1e000303f4 <phy_sev_offset_control>
  1e00036778:	2a1603e3 	mov	w3, w22
  1e0003677c:	2a1803e2 	mov	w2, w24
  1e00036780:	2a1503e1 	mov	w1, w21
  1e00036784:	aa1403e0 	mov	x0, x20
  1e00036788:	97ffe730 	bl	1e00030448 <phy_dbi_offset_control>
  1e0003678c:	2a1503e1 	mov	w1, w21
  1e00036790:	aa1403e0 	mov	x0, x20
  1e00036794:	97ffe75f 	bl	1e00030510 <phy_offset_update>
  1e00036798:	a9469be5 	ldp	x5, x6, [sp, #104]
  1e0003679c:	f9403fe7 	ldr	x7, [sp, #120]
  1e000367a0:	34fffbdb 	cbz	w27, 1e00036718 <phy_recv_offset_calibration+0xf0>
  1e000367a4:	2a1503e1 	mov	w1, w21
  1e000367a8:	aa1403e0 	mov	x0, x20
  1e000367ac:	97ffe647 	bl	1e000300c8 <phy_do_training>
  1e000367b0:	aa1703e2 	mov	x2, x23
  1e000367b4:	2a1503e1 	mov	w1, w21
  1e000367b8:	aa1403e0 	mov	x0, x20
  1e000367bc:	97fffac4 	bl	1e000352cc <phy_get_training_result>
  1e000367c0:	a9469be5 	ldp	x5, x6, [sp, #104]
  1e000367c4:	92401ec9 	and	x9, x22, #0xff
  1e000367c8:	f9403fe7 	ldr	x7, [sp, #120]
  1e000367cc:	d3483eca 	ubfx	x10, x22, #8, #8
  1e000367d0:	52800002 	mov	w2, #0x0                   	// #0
  1e000367d4:	d37f7c40 	ubfiz	x0, x2, #1, #32
  1e000367d8:	8b0002e1 	add	x1, x23, x0
  1e000367dc:	8b0000a8 	add	x8, x5, x0
  1e000367e0:	38606ae3 	ldrb	w3, [x23, x0]
  1e000367e4:	39400421 	ldrb	w1, [x1, #1]
  1e000367e8:	386068ab 	ldrb	w11, [x5, x0]
  1e000367ec:	2a012061 	orr	w1, w3, w1, lsl #8
  1e000367f0:	39400503 	ldrb	w3, [x8, #1]
  1e000367f4:	2a032163 	orr	w3, w11, w3, lsl #8
  1e000367f8:	6b01007f 	cmp	w3, w1
  1e000367fc:	54000122 	b.cs	1e00036820 <phy_recv_offset_calibration+0x1f8>  // b.hs, b.nlast
  1e00036800:	382068a1 	strb	w1, [x5, x0]
  1e00036804:	53087c21 	lsr	w1, w1, #8
  1e00036808:	39000501 	strb	w1, [x8, #1]
  1e0003680c:	8b000261 	add	x1, x19, x0
  1e00036810:	38206a66 	strb	w6, [x19, x0]
  1e00036814:	39000427 	strb	w7, [x1, #1]
  1e00036818:	39020029 	strb	w9, [x1, #128]
  1e0003681c:	3902042a 	strb	w10, [x1, #129]
  1e00036820:	11000442 	add	w2, w2, #0x1
  1e00036824:	7101005f 	cmp	w2, #0x40
  1e00036828:	54fffd61 	b.ne	1e000367d4 <phy_recv_offset_calibration+0x1ac>  // b.any
  1e0003682c:	92401ec9 	and	x9, x22, #0xff
  1e00036830:	d3483eca 	ubfx	x10, x22, #8, #8
  1e00036834:	52800002 	mov	w2, #0x0                   	// #0
  1e00036838:	d37f7c40 	ubfiz	x0, x2, #1, #32
  1e0003683c:	91020001 	add	x1, x0, #0x80
  1e00036840:	8b0000a3 	add	x3, x5, x0
  1e00036844:	8b0102eb 	add	x11, x23, x1
  1e00036848:	38616ae8 	ldrb	w8, [x23, x1]
  1e0003684c:	39400561 	ldrb	w1, [x11, #1]
  1e00036850:	3942006b 	ldrb	w11, [x3, #128]
  1e00036854:	2a012101 	orr	w1, w8, w1, lsl #8
  1e00036858:	39420468 	ldrb	w8, [x3, #129]
  1e0003685c:	2a082168 	orr	w8, w11, w8, lsl #8
  1e00036860:	6b01011f 	cmp	w8, w1
  1e00036864:	54000122 	b.cs	1e00036888 <phy_recv_offset_calibration+0x260>  // b.hs, b.nlast
  1e00036868:	8b000260 	add	x0, x19, x0
  1e0003686c:	39020061 	strb	w1, [x3, #128]
  1e00036870:	53087c21 	lsr	w1, w1, #8
  1e00036874:	39020461 	strb	w1, [x3, #129]
  1e00036878:	39040006 	strb	w6, [x0, #256]
  1e0003687c:	39040407 	strb	w7, [x0, #257]
  1e00036880:	39042009 	strb	w9, [x0, #264]
  1e00036884:	3904240a 	strb	w10, [x0, #265]
  1e00036888:	11000442 	add	w2, w2, #0x1
  1e0003688c:	7100105f 	cmp	w2, #0x4
  1e00036890:	54fffd41 	b.ne	1e00036838 <phy_recv_offset_calibration+0x210>  // b.any
  1e00036894:	92401ec9 	and	x9, x22, #0xff
  1e00036898:	d3483eca 	ubfx	x10, x22, #8, #8
  1e0003689c:	52800002 	mov	w2, #0x0                   	// #0
  1e000368a0:	d37f7c40 	ubfiz	x0, x2, #1, #32
  1e000368a4:	91020001 	add	x1, x0, #0x80
  1e000368a8:	8b0000a3 	add	x3, x5, x0
  1e000368ac:	8b0102e1 	add	x1, x23, x1
  1e000368b0:	3942206b 	ldrb	w11, [x3, #136]
  1e000368b4:	39402028 	ldrb	w8, [x1, #8]
  1e000368b8:	39402421 	ldrb	w1, [x1, #9]
  1e000368bc:	2a012101 	orr	w1, w8, w1, lsl #8
  1e000368c0:	39422468 	ldrb	w8, [x3, #137]
  1e000368c4:	2a082168 	orr	w8, w11, w8, lsl #8
  1e000368c8:	6b01011f 	cmp	w8, w1
  1e000368cc:	54000122 	b.cs	1e000368f0 <phy_recv_offset_calibration+0x2c8>  // b.hs, b.nlast
  1e000368d0:	8b000260 	add	x0, x19, x0
  1e000368d4:	39022061 	strb	w1, [x3, #136]
  1e000368d8:	53087c21 	lsr	w1, w1, #8
  1e000368dc:	39022461 	strb	w1, [x3, #137]
  1e000368e0:	39044006 	strb	w6, [x0, #272]
  1e000368e4:	39044407 	strb	w7, [x0, #273]
  1e000368e8:	39046009 	strb	w9, [x0, #280]
  1e000368ec:	3904640a 	strb	w10, [x0, #281]
  1e000368f0:	11000442 	add	w2, w2, #0x1
  1e000368f4:	7100105f 	cmp	w2, #0x4
  1e000368f8:	54fffd41 	b.ne	1e000368a0 <phy_recv_offset_calibration+0x278>  // b.any
  1e000368fc:	92401ec9 	and	x9, x22, #0xff
  1e00036900:	d3483eca 	ubfx	x10, x22, #8, #8
  1e00036904:	52800002 	mov	w2, #0x0                   	// #0
  1e00036908:	d37f7c40 	ubfiz	x0, x2, #1, #32
  1e0003690c:	91024001 	add	x1, x0, #0x90
  1e00036910:	8b0000a3 	add	x3, x5, x0
  1e00036914:	8b0102eb 	add	x11, x23, x1
  1e00036918:	38616ae8 	ldrb	w8, [x23, x1]
  1e0003691c:	39400561 	ldrb	w1, [x11, #1]
  1e00036920:	3942406b 	ldrb	w11, [x3, #144]
  1e00036924:	2a012101 	orr	w1, w8, w1, lsl #8
  1e00036928:	39424468 	ldrb	w8, [x3, #145]
  1e0003692c:	2a082168 	orr	w8, w11, w8, lsl #8
  1e00036930:	6b01011f 	cmp	w8, w1
  1e00036934:	54000122 	b.cs	1e00036958 <phy_recv_offset_calibration+0x330>  // b.hs, b.nlast
  1e00036938:	8b000260 	add	x0, x19, x0
  1e0003693c:	39024061 	strb	w1, [x3, #144]
  1e00036940:	53087c21 	lsr	w1, w1, #8
  1e00036944:	39024461 	strb	w1, [x3, #145]
  1e00036948:	39048006 	strb	w6, [x0, #288]
  1e0003694c:	39048407 	strb	w7, [x0, #289]
  1e00036950:	3904c009 	strb	w9, [x0, #304]
  1e00036954:	3904c40a 	strb	w10, [x0, #305]
  1e00036958:	11000442 	add	w2, w2, #0x1
  1e0003695c:	7100205f 	cmp	w2, #0x8
  1e00036960:	54fffd41 	b.ne	1e00036908 <phy_recv_offset_calibration+0x2e0>  // b.any
  1e00036964:	110006c0 	add	w0, w22, #0x1
  1e00036968:	12003c16 	and	w22, w0, #0xffff
  1e0003696c:	6b20239f 	cmp	w28, w0, uxth
  1e00036970:	54ffed08 	b.hi	1e00036710 <phy_recv_offset_calibration+0xe8>  // b.pmore
  1e00036974:	11000718 	add	w24, w24, #0x1
  1e00036978:	5280003c 	mov	w28, #0x1                   	// #1
  1e0003697c:	12003f18 	and	w24, w24, #0xffff
  1e00036980:	7100231f 	cmp	w24, #0x8
  1e00036984:	54ffec01 	b.ne	1e00036704 <phy_recv_offset_calibration+0xdc>  // b.any
  1e00036988:	f8796a81 	ldr	x1, [x20, x25]
  1e0003698c:	2a1c03e4 	mov	w4, w28
  1e00036990:	52800003 	mov	w3, #0x0                   	// #0
  1e00036994:	52800002 	mov	w2, #0x0                   	// #0
  1e00036998:	911f5029 	add	x9, x1, #0x7d4
  1e0003699c:	91205028 	add	x8, x1, #0x814
  1e000369a0:	91206027 	add	x7, x1, #0x818
  1e000369a4:	91207026 	add	x6, x1, #0x81c
  1e000369a8:	91208025 	add	x5, x1, #0x820
  1e000369ac:	b947d02a 	ldr	w10, [x1, #2000]
  1e000369b0:	1ac22080 	lsl	w0, w4, w2
  1e000369b4:	531b684c 	lsl	w12, w2, #5
  1e000369b8:	5280000b 	mov	w11, #0x0                   	// #0
  1e000369bc:	331f040a 	bfi	w10, w0, #1, #2
  1e000369c0:	b907d02a 	str	w10, [x1, #2000]
  1e000369c4:	d37f7d8e 	ubfiz	x14, x12, #1, #32
  1e000369c8:	53017d6a 	lsr	w10, w11, #1
  1e000369cc:	8b0e0260 	add	x0, x19, x14
  1e000369d0:	1100096b 	add	w11, w11, #0x2
  1e000369d4:	531e754a 	lsl	w10, w10, #2
  1e000369d8:	386e6a6e 	ldrb	w14, [x19, x14]
  1e000369dc:	39420000 	ldrb	w0, [x0, #128]
  1e000369e0:	b86a692d 	ldr	w13, [x9, x10]
  1e000369e4:	120009ce 	and	w14, w14, #0x7
  1e000369e8:	531d0800 	ubfiz	w0, w0, #3, #3
  1e000369ec:	121961ad 	and	w13, w13, #0xffffff80
  1e000369f0:	2a0e0000 	orr	w0, w0, w14
  1e000369f4:	2a0005a0 	orr	w0, w13, w0, lsl #1
  1e000369f8:	32000000 	orr	w0, w0, #0x1
  1e000369fc:	b82a6920 	str	w0, [x9, x10]
  1e00036a00:	11000580 	add	w0, w12, #0x1
  1e00036a04:	1100098c 	add	w12, w12, #0x2
  1e00036a08:	b86a692d 	ldr	w13, [x9, x10]
  1e00036a0c:	d37ff80e 	lsl	x14, x0, #1
  1e00036a10:	8b000660 	add	x0, x19, x0, lsl #1
  1e00036a14:	120961ad 	and	w13, w13, #0xff80ffff
  1e00036a18:	39420000 	ldrb	w0, [x0, #128]
  1e00036a1c:	386e6a6e 	ldrb	w14, [x19, x14]
  1e00036a20:	531d0800 	ubfiz	w0, w0, #3, #3
  1e00036a24:	120009ce 	and	w14, w14, #0x7
  1e00036a28:	2a0e0000 	orr	w0, w0, w14
  1e00036a2c:	2a0045a0 	orr	w0, w13, w0, lsl #17
  1e00036a30:	32100000 	orr	w0, w0, #0x10000
  1e00036a34:	b82a6920 	str	w0, [x9, x10]
  1e00036a38:	7100817f 	cmp	w11, #0x20
  1e00036a3c:	54fffc41 	b.ne	1e000369c4 <phy_recv_offset_calibration+0x39c>  // b.any
  1e00036a40:	d37e784b 	ubfiz	x11, x2, #2, #31
  1e00036a44:	531f784a 	lsl	w10, w2, #1
  1e00036a48:	8b0b026b 	add	x11, x19, x11
  1e00036a4c:	b940010c 	ldr	w12, [x8]
  1e00036a50:	1100054a 	add	w10, w10, #0x1
  1e00036a54:	1219618c 	and	w12, w12, #0xffffff80
  1e00036a58:	39442160 	ldrb	w0, [x11, #264]
  1e00036a5c:	8b0a066a 	add	x10, x19, x10, lsl #1
  1e00036a60:	3944016d 	ldrb	w13, [x11, #256]
  1e00036a64:	531d0800 	ubfiz	w0, w0, #3, #3
  1e00036a68:	120009ad 	and	w13, w13, #0x7
  1e00036a6c:	2a0d0000 	orr	w0, w0, w13
  1e00036a70:	3944014d 	ldrb	w13, [x10, #256]
  1e00036a74:	2a000580 	orr	w0, w12, w0, lsl #1
  1e00036a78:	120009ad 	and	w13, w13, #0x7
  1e00036a7c:	32000000 	orr	w0, w0, #0x1
  1e00036a80:	b9000100 	str	w0, [x8]
  1e00036a84:	39442140 	ldrb	w0, [x10, #264]
  1e00036a88:	b940010c 	ldr	w12, [x8]
  1e00036a8c:	531d0800 	ubfiz	w0, w0, #3, #3
  1e00036a90:	1209618c 	and	w12, w12, #0xff80ffff
  1e00036a94:	2a0d0000 	orr	w0, w0, w13
  1e00036a98:	2a004580 	orr	w0, w12, w0, lsl #17
  1e00036a9c:	32100000 	orr	w0, w0, #0x10000
  1e00036aa0:	b9000100 	str	w0, [x8]
  1e00036aa4:	39446160 	ldrb	w0, [x11, #280]
  1e00036aa8:	3944416b 	ldrb	w11, [x11, #272]
  1e00036aac:	b94000ec 	ldr	w12, [x7]
  1e00036ab0:	1200096b 	and	w11, w11, #0x7
  1e00036ab4:	531d0800 	ubfiz	w0, w0, #3, #3
  1e00036ab8:	2a0b0000 	orr	w0, w0, w11
  1e00036abc:	1219618b 	and	w11, w12, #0xffffff80
  1e00036ac0:	2a000560 	orr	w0, w11, w0, lsl #1
  1e00036ac4:	32000000 	orr	w0, w0, #0x1
  1e00036ac8:	b90000e0 	str	w0, [x7]
  1e00036acc:	39446140 	ldrb	w0, [x10, #280]
  1e00036ad0:	3944414a 	ldrb	w10, [x10, #272]
  1e00036ad4:	b94000eb 	ldr	w11, [x7]
  1e00036ad8:	1200094a 	and	w10, w10, #0x7
  1e00036adc:	531d0800 	ubfiz	w0, w0, #3, #3
  1e00036ae0:	2a0a0000 	orr	w0, w0, w10
  1e00036ae4:	1209616a 	and	w10, w11, #0xff80ffff
  1e00036ae8:	8b23466b 	add	x11, x19, w3, uxtw #1
  1e00036aec:	2a004540 	orr	w0, w10, w0, lsl #17
  1e00036af0:	32100000 	orr	w0, w0, #0x10000
  1e00036af4:	b90000e0 	str	w0, [x7]
  1e00036af8:	3944c160 	ldrb	w0, [x11, #304]
  1e00036afc:	3944816b 	ldrb	w11, [x11, #288]
  1e00036b00:	b94000ca 	ldr	w10, [x6]
  1e00036b04:	1200096b 	and	w11, w11, #0x7
  1e00036b08:	531d0800 	ubfiz	w0, w0, #3, #3
  1e00036b0c:	2a0b0000 	orr	w0, w0, w11
  1e00036b10:	1219614a 	and	w10, w10, #0xffffff80
  1e00036b14:	2a000540 	orr	w0, w10, w0, lsl #1
  1e00036b18:	1100046a 	add	w10, w3, #0x1
  1e00036b1c:	32000000 	orr	w0, w0, #0x1
  1e00036b20:	b90000c0 	str	w0, [x6]
  1e00036b24:	8b0a066a 	add	x10, x19, x10, lsl #1
  1e00036b28:	b94000cb 	ldr	w11, [x6]
  1e00036b2c:	3944c140 	ldrb	w0, [x10, #304]
  1e00036b30:	3944814a 	ldrb	w10, [x10, #288]
  1e00036b34:	531d0800 	ubfiz	w0, w0, #3, #3
  1e00036b38:	1200094a 	and	w10, w10, #0x7
  1e00036b3c:	2a0a0000 	orr	w0, w0, w10
  1e00036b40:	1209616a 	and	w10, w11, #0xff80ffff
  1e00036b44:	2a004540 	orr	w0, w10, w0, lsl #17
  1e00036b48:	1100086a 	add	w10, w3, #0x2
  1e00036b4c:	32100000 	orr	w0, w0, #0x10000
  1e00036b50:	b90000c0 	str	w0, [x6]
  1e00036b54:	8b0a066a 	add	x10, x19, x10, lsl #1
  1e00036b58:	b94000ab 	ldr	w11, [x5]
  1e00036b5c:	3944c140 	ldrb	w0, [x10, #304]
  1e00036b60:	3944814a 	ldrb	w10, [x10, #288]
  1e00036b64:	531d0800 	ubfiz	w0, w0, #3, #3
  1e00036b68:	1200094a 	and	w10, w10, #0x7
  1e00036b6c:	2a0a0000 	orr	w0, w0, w10
  1e00036b70:	1219616a 	and	w10, w11, #0xffffff80
  1e00036b74:	2a000540 	orr	w0, w10, w0, lsl #1
  1e00036b78:	11000c6a 	add	w10, w3, #0x3
  1e00036b7c:	32000000 	orr	w0, w0, #0x1
  1e00036b80:	b90000a0 	str	w0, [x5]
  1e00036b84:	8b0a066a 	add	x10, x19, x10, lsl #1
  1e00036b88:	11001063 	add	w3, w3, #0x4
  1e00036b8c:	b94000ab 	ldr	w11, [x5]
  1e00036b90:	3944c140 	ldrb	w0, [x10, #304]
  1e00036b94:	3944814a 	ldrb	w10, [x10, #288]
  1e00036b98:	531d0800 	ubfiz	w0, w0, #3, #3
  1e00036b9c:	1200094a 	and	w10, w10, #0x7
  1e00036ba0:	2a0a0000 	orr	w0, w0, w10
  1e00036ba4:	1209616a 	and	w10, w11, #0xff80ffff
  1e00036ba8:	2a004540 	orr	w0, w10, w0, lsl #17
  1e00036bac:	32100000 	orr	w0, w0, #0x10000
  1e00036bb0:	b90000a0 	str	w0, [x5]
  1e00036bb4:	34001322 	cbz	w2, 1e00036e18 <phy_recv_offset_calibration+0x7f0>
  1e00036bb8:	2a1503e1 	mov	w1, w21
  1e00036bbc:	aa1403e0 	mov	x0, x20
  1e00036bc0:	97ffe654 	bl	1e00030510 <phy_offset_update>
  1e00036bc4:	5280003c 	mov	w28, #0x1                   	// #1
  1e00036bc8:	2a1503e1 	mov	w1, w21
  1e00036bcc:	aa1403e0 	mov	x0, x20
  1e00036bd0:	97ffe53e 	bl	1e000300c8 <phy_do_training>
  1e00036bd4:	5280005b 	mov	w27, #0x2                   	// #2
  1e00036bd8:	12800000 	mov	w0, #0xffffffff            	// #-1
  1e00036bdc:	b9009be0 	str	w0, [sp, #152]
  1e00036be0:	f8796a80 	ldr	x0, [x20, x25]
  1e00036be4:	52800005 	mov	w5, #0x0                   	// #0
  1e00036be8:	52800006 	mov	w6, #0x0                   	// #0
  1e00036bec:	52800016 	mov	w22, #0x0                   	// #0
  1e00036bf0:	52800109 	mov	w9, #0x8                   	// #8
  1e00036bf4:	b947d001 	ldr	w1, [x0, #2000]
  1e00036bf8:	331f0781 	bfi	w1, w28, #1, #2
  1e00036bfc:	b907d001 	str	w1, [x0, #2000]
  1e00036c00:	b9482c01 	ldr	w1, [x0, #2092]
  1e00036c04:	33001b81 	bfxil	w1, w28, #0, #7
  1e00036c08:	b9082c01 	str	w1, [x0, #2092]
  1e00036c0c:	b947d001 	ldr	w1, [x0, #2000]
  1e00036c10:	331f0761 	bfi	w1, w27, #1, #2
  1e00036c14:	b907d001 	str	w1, [x0, #2000]
  1e00036c18:	b9482c01 	ldr	w1, [x0, #2092]
  1e00036c1c:	33001b81 	bfxil	w1, w28, #0, #7
  1e00036c20:	b9082c01 	str	w1, [x0, #2092]
  1e00036c24:	710002df 	cmp	w22, #0x0
  1e00036c28:	92401ec7 	and	x7, x22, #0xff
  1e00036c2c:	1a89138a 	csel	w10, w28, w9, ne	// ne = any
  1e00036c30:	d3483ec8 	ubfx	x8, x22, #8, #8
  1e00036c34:	52800018 	mov	w24, #0x0                   	// #0
  1e00036c38:	f9400340 	ldr	x0, [x26]
  1e00036c3c:	b9006bea 	str	w10, [sp, #104]
  1e00036c40:	b90073e5 	str	w5, [sp, #112]
  1e00036c44:	2a1803e3 	mov	w3, w24
  1e00036c48:	b9007be6 	str	w6, [sp, #120]
  1e00036c4c:	2a1603e2 	mov	w2, w22
  1e00036c50:	a90823e7 	stp	x7, x8, [sp, #128]
  1e00036c54:	b947d001 	ldr	w1, [x0, #2000]
  1e00036c58:	331f0781 	bfi	w1, w28, #1, #2
  1e00036c5c:	b907d001 	str	w1, [x0, #2000]
  1e00036c60:	2a1503e1 	mov	w1, w21
  1e00036c64:	aa1403e0 	mov	x0, x20
  1e00036c68:	97ffe61d 	bl	1e000304dc <phy_rdqs_offset_control>
  1e00036c6c:	2a1503e1 	mov	w1, w21
  1e00036c70:	aa1403e0 	mov	x0, x20
  1e00036c74:	97ffe627 	bl	1e00030510 <phy_offset_update>
  1e00036c78:	f9400340 	ldr	x0, [x26]
  1e00036c7c:	2a1803e3 	mov	w3, w24
  1e00036c80:	2a1603e2 	mov	w2, w22
  1e00036c84:	b947d001 	ldr	w1, [x0, #2000]
  1e00036c88:	331f0761 	bfi	w1, w27, #1, #2
  1e00036c8c:	b907d001 	str	w1, [x0, #2000]
  1e00036c90:	2a1503e1 	mov	w1, w21
  1e00036c94:	aa1403e0 	mov	x0, x20
  1e00036c98:	97ffe611 	bl	1e000304dc <phy_rdqs_offset_control>
  1e00036c9c:	2a1503e1 	mov	w1, w21
  1e00036ca0:	aa1403e0 	mov	x0, x20
  1e00036ca4:	97ffe61b 	bl	1e00030510 <phy_offset_update>
  1e00036ca8:	2a1503e1 	mov	w1, w21
  1e00036cac:	aa1403e0 	mov	x0, x20
  1e00036cb0:	97ffe506 	bl	1e000300c8 <phy_do_training>
  1e00036cb4:	aa1703e2 	mov	x2, x23
  1e00036cb8:	2a1503e1 	mov	w1, w21
  1e00036cbc:	aa1403e0 	mov	x0, x20
  1e00036cc0:	97fff983 	bl	1e000352cc <phy_get_training_result>
  1e00036cc4:	91026be4 	add	x4, sp, #0x9a
  1e00036cc8:	910263e3 	add	x3, sp, #0x98
  1e00036ccc:	2a1503e1 	mov	w1, w21
  1e00036cd0:	aa1403e0 	mov	x0, x20
  1e00036cd4:	97fff901 	bl	1e000350d8 <phy_find_min_result>
  1e00036cd8:	794133e0 	ldrh	w0, [sp, #152]
  1e00036cdc:	52800109 	mov	w9, #0x8                   	// #8
  1e00036ce0:	b9407be6 	ldr	w6, [sp, #120]
  1e00036ce4:	a94823e7 	ldp	x7, x8, [sp, #128]
  1e00036ce8:	6b0000df 	cmp	w6, w0
  1e00036cec:	b9406bea 	ldr	w10, [sp, #104]
  1e00036cf0:	b94073e5 	ldr	w5, [sp, #112]
  1e00036cf4:	540000e2 	b.cs	1e00036d10 <phy_recv_offset_calibration+0x6e8>  // b.hs, b.nlast
  1e00036cf8:	2a0003e6 	mov	w6, w0
  1e00036cfc:	53087f01 	lsr	w1, w24, #8
  1e00036d00:	39050267 	strb	w7, [x19, #320]
  1e00036d04:	39050668 	strb	w8, [x19, #321]
  1e00036d08:	39051278 	strb	w24, [x19, #324]
  1e00036d0c:	39051661 	strb	w1, [x19, #325]
  1e00036d10:	794137e0 	ldrh	w0, [sp, #154]
  1e00036d14:	6b0000bf 	cmp	w5, w0
  1e00036d18:	540000e2 	b.cs	1e00036d34 <phy_recv_offset_calibration+0x70c>  // b.hs, b.nlast
  1e00036d1c:	2a0003e5 	mov	w5, w0
  1e00036d20:	53087f01 	lsr	w1, w24, #8
  1e00036d24:	39050a67 	strb	w7, [x19, #322]
  1e00036d28:	39050e68 	strb	w8, [x19, #323]
  1e00036d2c:	39051a78 	strb	w24, [x19, #326]
  1e00036d30:	39051e61 	strb	w1, [x19, #327]
  1e00036d34:	11000700 	add	w0, w24, #0x1
  1e00036d38:	12003c18 	and	w24, w0, #0xffff
  1e00036d3c:	6b20215f 	cmp	w10, w0, uxth
  1e00036d40:	54fff7c8 	b.hi	1e00036c38 <phy_recv_offset_calibration+0x610>  // b.pmore
  1e00036d44:	110006d6 	add	w22, w22, #0x1
  1e00036d48:	12003ed6 	and	w22, w22, #0xffff
  1e00036d4c:	710022df 	cmp	w22, #0x8
  1e00036d50:	54fff6a1 	b.ne	1e00036c24 <phy_recv_offset_calibration+0x5fc>  // b.any
  1e00036d54:	f8796a80 	ldr	x0, [x20, x25]
  1e00036d58:	52800022 	mov	w2, #0x1                   	// #1
  1e00036d5c:	b947d001 	ldr	w1, [x0, #2000]
  1e00036d60:	331f0441 	bfi	w1, w2, #1, #2
  1e00036d64:	b907d001 	str	w1, [x0, #2000]
  1e00036d68:	39451261 	ldrb	w1, [x19, #324]
  1e00036d6c:	39450260 	ldrb	w0, [x19, #320]
  1e00036d70:	39451663 	ldrb	w3, [x19, #325]
  1e00036d74:	39450662 	ldrb	w2, [x19, #321]
  1e00036d78:	aa032023 	orr	x3, x1, x3, lsl #8
  1e00036d7c:	2a1503e1 	mov	w1, w21
  1e00036d80:	aa022002 	orr	x2, x0, x2, lsl #8
  1e00036d84:	aa1403e0 	mov	x0, x20
  1e00036d88:	97ffe5d5 	bl	1e000304dc <phy_rdqs_offset_control>
  1e00036d8c:	2a1503e1 	mov	w1, w21
  1e00036d90:	aa1403e0 	mov	x0, x20
  1e00036d94:	97ffe5df 	bl	1e00030510 <phy_offset_update>
  1e00036d98:	f8796a80 	ldr	x0, [x20, x25]
  1e00036d9c:	52800042 	mov	w2, #0x2                   	// #2
  1e00036da0:	b947d001 	ldr	w1, [x0, #2000]
  1e00036da4:	331f0441 	bfi	w1, w2, #1, #2
  1e00036da8:	b907d001 	str	w1, [x0, #2000]
  1e00036dac:	39451a61 	ldrb	w1, [x19, #326]
  1e00036db0:	39450a60 	ldrb	w0, [x19, #322]
  1e00036db4:	39451e63 	ldrb	w3, [x19, #327]
  1e00036db8:	39450e62 	ldrb	w2, [x19, #323]
  1e00036dbc:	aa032023 	orr	x3, x1, x3, lsl #8
  1e00036dc0:	2a1503e1 	mov	w1, w21
  1e00036dc4:	aa022002 	orr	x2, x0, x2, lsl #8
  1e00036dc8:	aa1403e0 	mov	x0, x20
  1e00036dcc:	97ffe5c4 	bl	1e000304dc <phy_rdqs_offset_control>
  1e00036dd0:	2a1503e1 	mov	w1, w21
  1e00036dd4:	aa1403e0 	mov	x0, x20
  1e00036dd8:	97ffe5ce 	bl	1e00030510 <phy_offset_update>
  1e00036ddc:	2a1503e1 	mov	w1, w21
  1e00036de0:	aa1403e0 	mov	x0, x20
  1e00036de4:	97ffe4b9 	bl	1e000300c8 <phy_do_training>
  1e00036de8:	f8796a81 	ldr	x1, [x20, x25]
  1e00036dec:	b9401420 	ldr	w0, [x1, #20]
  1e00036df0:	121d7800 	and	w0, w0, #0xfffffffb
  1e00036df4:	b9001420 	str	w0, [x1, #20]
  1e00036df8:	52800000 	mov	w0, #0x0                   	// #0
  1e00036dfc:	a94153f3 	ldp	x19, x20, [sp, #16]
  1e00036e00:	a9425bf5 	ldp	x21, x22, [sp, #32]
  1e00036e04:	a94363f7 	ldp	x23, x24, [sp, #48]
  1e00036e08:	a9446bf9 	ldp	x25, x26, [sp, #64]
  1e00036e0c:	a94573fb 	ldp	x27, x28, [sp, #80]
  1e00036e10:	a8ca7bfd 	ldp	x29, x30, [sp], #160
  1e00036e14:	d65f03c0 	ret
  1e00036e18:	2a1b03e2 	mov	w2, w27
  1e00036e1c:	17fffee4 	b	1e000369ac <phy_recv_offset_calibration+0x384>

0000001e00036e20 <phy_command_training>:
  1e00036e20:	a9aa7bfd 	stp	x29, x30, [sp, #-352]!
  1e00036e24:	910003fd 	mov	x29, sp
  1e00036e28:	a9025bf5 	stp	x21, x22, [sp, #32]
  1e00036e2c:	12001c35 	and	w21, w1, #0xff
  1e00036e30:	a90153f3 	stp	x19, x20, [sp, #16]
  1e00036e34:	aa0003f3 	mov	x19, x0
  1e00036e38:	d37d1eb4 	ubfiz	x20, x21, #3, #8
  1e00036e3c:	a90363f7 	stp	x23, x24, [sp, #48]
  1e00036e40:	8b140277 	add	x23, x19, x20
  1e00036e44:	52800000 	mov	w0, #0x0                   	// #0
  1e00036e48:	a9046bf9 	stp	x25, x26, [sp, #64]
  1e00036e4c:	a90573fb 	stp	x27, x28, [sp, #80]
  1e00036e50:	29107fff 	stp	wzr, wzr, [sp, #128]
  1e00036e54:	a908ffff 	stp	xzr, xzr, [sp, #136]
  1e00036e58:	a909ffff 	stp	xzr, xzr, [sp, #152]
  1e00036e5c:	a90affff 	stp	xzr, xzr, [sp, #168]
  1e00036e60:	a90bffff 	stp	xzr, xzr, [sp, #184]
  1e00036e64:	a90cffff 	stp	xzr, xzr, [sp, #200]
  1e00036e68:	a90dffff 	stp	xzr, xzr, [sp, #216]
  1e00036e6c:	a90effff 	stp	xzr, xzr, [sp, #232]
  1e00036e70:	a90fffff 	stp	xzr, xzr, [sp, #248]
  1e00036e74:	f90087ff 	str	xzr, [sp, #264]
  1e00036e78:	a9117fff 	stp	xzr, xzr, [sp, #272]
  1e00036e7c:	a9127fff 	stp	xzr, xzr, [sp, #288]
  1e00036e80:	a9137fff 	stp	xzr, xzr, [sp, #304]
  1e00036e84:	a9147fff 	stp	xzr, xzr, [sp, #320]
  1e00036e88:	a9157fff 	stp	xzr, xzr, [sp, #336]
  1e00036e8c:	97fff6b6 	bl	1e00034964 <get_read_latency>
  1e00036e90:	12001c16 	and	w22, w0, #0xff
  1e00036e94:	52800000 	mov	w0, #0x0                   	// #0
  1e00036e98:	97fff6d3 	bl	1e000349e4 <get_write_latency>
  1e00036e9c:	f94042e1 	ldr	x1, [x23, #128]
  1e00036ea0:	12001c02 	and	w2, w0, #0xff
  1e00036ea4:	91401023 	add	x3, x1, #0x4, lsl #12
  1e00036ea8:	b9508c60 	ldr	w0, [x3, #4236]
  1e00036eac:	3607ffe0 	tbz	w0, #0, 1e00036ea8 <phy_command_training+0x88>
  1e00036eb0:	91402021 	add	x1, x1, #0x8, lsl #12
  1e00036eb4:	53185c42 	lsl	w2, w2, #8
  1e00036eb8:	2a164056 	orr	w22, w2, w22, lsl #16
  1e00036ebc:	528000bc 	mov	w28, #0x5                   	// #5
  1e00036ec0:	f9408262 	ldr	x2, [x19, #256]
  1e00036ec4:	5280001b 	mov	w27, #0x0                   	// #0
  1e00036ec8:	b9544420 	ldr	w0, [x1, #5188]
  1e00036ecc:	5280001a 	mov	w26, #0x0                   	// #0
  1e00036ed0:	52800018 	mov	w24, #0x0                   	// #0
  1e00036ed4:	52800019 	mov	w25, #0x0                   	// #0
  1e00036ed8:	53081c00 	lsl	w0, w0, #24
  1e00036edc:	32000400 	orr	w0, w0, #0x3
  1e00036ee0:	2a0002d6 	orr	w22, w22, w0
  1e00036ee4:	b9005856 	str	w22, [x2, #88]
  1e00036ee8:	52800016 	mov	w22, #0x0                   	// #0
  1e00036eec:	b9551020 	ldr	w0, [x1, #5392]
  1e00036ef0:	b9544023 	ldr	w3, [x1, #5184]
  1e00036ef4:	b9541c21 	ldr	w1, [x1, #5148]
  1e00036ef8:	53101400 	ubfiz	w0, w0, #16, #6
  1e00036efc:	53181063 	ubfiz	w3, w3, #8, #5
  1e00036f00:	12001821 	and	w1, w1, #0x7f
  1e00036f04:	2a030000 	orr	w0, w0, w3
  1e00036f08:	2a010000 	orr	w0, w0, w1
  1e00036f0c:	b9005440 	str	w0, [x2, #84]
  1e00036f10:	b9400c40 	ldr	w0, [x2, #12]
  1e00036f14:	330012a0 	bfxil	w0, w21, #0, #5
  1e00036f18:	b9000c40 	str	w0, [x2, #12]
  1e00036f1c:	b9400840 	ldr	w0, [x2, #8]
  1e00036f20:	320f0000 	orr	w0, w0, #0x20000
  1e00036f24:	b9000840 	str	w0, [x2, #8]
  1e00036f28:	52800020 	mov	w0, #0x1                   	// #1
  1e00036f2c:	97fff26a 	bl	1e000338d4 <udelay>
  1e00036f30:	aa1303e0 	mov	x0, x19
  1e00036f34:	97ffe59f 	bl	1e000305b0 <wait_for_test_instruction_req_done>
  1e00036f38:	f9408261 	ldr	x1, [x19, #256]
  1e00036f3c:	b9400820 	ldr	w0, [x1, #8]
  1e00036f40:	120e7800 	and	w0, w0, #0xfffdffff
  1e00036f44:	b9000820 	str	w0, [x1, #8]
  1e00036f48:	52800020 	mov	w0, #0x1                   	// #1
  1e00036f4c:	97fff262 	bl	1e000338d4 <udelay>
  1e00036f50:	aa1303e0 	mov	x0, x19
  1e00036f54:	97ffe5a4 	bl	1e000305e4 <wait_for_test_instruction_req_done_clear>
  1e00036f58:	f8746a61 	ldr	x1, [x19, x20]
  1e00036f5c:	b9403c20 	ldr	w0, [x1, #60]
  1e00036f60:	32000000 	orr	w0, w0, #0x1
  1e00036f64:	b9003c20 	str	w0, [x1, #60]
  1e00036f68:	f9408261 	ldr	x1, [x19, #256]
  1e00036f6c:	b9400020 	ldr	w0, [x1]
  1e00036f70:	32000000 	orr	w0, w0, #0x1
  1e00036f74:	b9000020 	str	w0, [x1]
  1e00036f78:	52800140 	mov	w0, #0xa                   	// #10
  1e00036f7c:	97fff256 	bl	1e000338d4 <udelay>
  1e00036f80:	f8746a60 	ldr	x0, [x19, x20]
  1e00036f84:	b9441c01 	ldr	w1, [x0, #1052]
  1e00036f88:	321b0021 	orr	w1, w1, #0x20
  1e00036f8c:	b9041c01 	str	w1, [x0, #1052]
  1e00036f90:	b9441c01 	ldr	w1, [x0, #1052]
  1e00036f94:	32000021 	orr	w1, w1, #0x1
  1e00036f98:	b9041c01 	str	w1, [x0, #1052]
  1e00036f9c:	b9442001 	ldr	w1, [x0, #1056]
  1e00036fa0:	32160021 	orr	w1, w1, #0x400
  1e00036fa4:	b9042001 	str	w1, [x0, #1056]
  1e00036fa8:	52800140 	mov	w0, #0xa                   	// #10
  1e00036fac:	97fff24a 	bl	1e000338d4 <udelay>
  1e00036fb0:	f8746a61 	ldr	x1, [x19, x20]
  1e00036fb4:	b9442020 	ldr	w0, [x1, #1056]
  1e00036fb8:	12157800 	and	w0, w0, #0xfffffbff
  1e00036fbc:	b9042020 	str	w0, [x1, #1056]
  1e00036fc0:	52800140 	mov	w0, #0xa                   	// #10
  1e00036fc4:	97fff244 	bl	1e000338d4 <udelay>
  1e00036fc8:	f8746a60 	ldr	x0, [x19, x20]
  1e00036fcc:	b9438801 	ldr	w1, [x0, #904]
  1e00036fd0:	321f0021 	orr	w1, w1, #0x2
  1e00036fd4:	b9038801 	str	w1, [x0, #904]
  1e00036fd8:	b9400401 	ldr	w1, [x0, #4]
  1e00036fdc:	321f0021 	orr	w1, w1, #0x2
  1e00036fe0:	b9000401 	str	w1, [x0, #4]
  1e00036fe4:	52800081 	mov	w1, #0x4                   	// #4
  1e00036fe8:	f9408260 	ldr	x0, [x19, #256]
  1e00036fec:	b9005801 	str	w1, [x0, #88]
  1e00036ff0:	b9400801 	ldr	w1, [x0, #8]
  1e00036ff4:	32130021 	orr	w1, w1, #0x2000
  1e00036ff8:	b9000801 	str	w1, [x0, #8]
  1e00036ffc:	52800020 	mov	w0, #0x1                   	// #1
  1e00037000:	97fff235 	bl	1e000338d4 <udelay>
  1e00037004:	aa1303e0 	mov	x0, x19
  1e00037008:	97ffe56a 	bl	1e000305b0 <wait_for_test_instruction_req_done>
  1e0003700c:	f9408261 	ldr	x1, [x19, #256]
  1e00037010:	b9400820 	ldr	w0, [x1, #8]
  1e00037014:	12127800 	and	w0, w0, #0xffffdfff
  1e00037018:	b9000820 	str	w0, [x1, #8]
  1e0003701c:	52800020 	mov	w0, #0x1                   	// #1
  1e00037020:	97fff22d 	bl	1e000338d4 <udelay>
  1e00037024:	aa1303e0 	mov	x0, x19
  1e00037028:	97ffe56f 	bl	1e000305e4 <wait_for_test_instruction_req_done_clear>
  1e0003702c:	f9408260 	ldr	x0, [x19, #256]
  1e00037030:	528000c1 	mov	w1, #0x6                   	// #6
  1e00037034:	b9005801 	str	w1, [x0, #88]
  1e00037038:	b9400801 	ldr	w1, [x0, #8]
  1e0003703c:	32130021 	orr	w1, w1, #0x2000
  1e00037040:	b9000801 	str	w1, [x0, #8]
  1e00037044:	52800020 	mov	w0, #0x1                   	// #1
  1e00037048:	97fff223 	bl	1e000338d4 <udelay>
  1e0003704c:	aa1303e0 	mov	x0, x19
  1e00037050:	97ffe558 	bl	1e000305b0 <wait_for_test_instruction_req_done>
  1e00037054:	f9408261 	ldr	x1, [x19, #256]
  1e00037058:	b9400820 	ldr	w0, [x1, #8]
  1e0003705c:	12127800 	and	w0, w0, #0xffffdfff
  1e00037060:	b9000820 	str	w0, [x1, #8]
  1e00037064:	52800020 	mov	w0, #0x1                   	// #1
  1e00037068:	97fff21b 	bl	1e000338d4 <udelay>
  1e0003706c:	aa1303e0 	mov	x0, x19
  1e00037070:	97ffe55d 	bl	1e000305e4 <wait_for_test_instruction_req_done_clear>
  1e00037074:	f8746a60 	ldr	x0, [x19, x20]
  1e00037078:	52800042 	mov	w2, #0x2                   	// #2
  1e0003707c:	b9438801 	ldr	w1, [x0, #904]
  1e00037080:	331e0441 	bfi	w1, w2, #2, #2
  1e00037084:	b9038801 	str	w1, [x0, #904]
  1e00037088:	2a1503e1 	mov	w1, w21
  1e0003708c:	aa1303e0 	mov	x0, x19
  1e00037090:	97ffe409 	bl	1e000300b4 <get_phy_lock_value>
  1e00037094:	12003c00 	and	w0, w0, #0xffff
  1e00037098:	f8746a61 	ldr	x1, [x19, x20]
  1e0003709c:	1adc0800 	udiv	w0, w0, w28
  1e000370a0:	b9409022 	ldr	w2, [x1, #144]
  1e000370a4:	33102002 	bfi	w2, w0, #16, #9
  1e000370a8:	b9009022 	str	w2, [x1, #144]
  1e000370ac:	b9438820 	ldr	w0, [x1, #904]
  1e000370b0:	32000000 	orr	w0, w0, #0x1
  1e000370b4:	b9038820 	str	w0, [x1, #904]
  1e000370b8:	2a1503e1 	mov	w1, w21
  1e000370bc:	aa1303e0 	mov	x0, x19
  1e000370c0:	97ffe43a 	bl	1e000301a8 <phy_update_dll_code>
  1e000370c4:	f8746a60 	ldr	x0, [x19, x20]
  1e000370c8:	529fff41 	mov	w1, #0xfffa                	// #65530
  1e000370cc:	72a000e1 	movk	w1, #0x7, lsl #16
  1e000370d0:	5280000a 	mov	w10, #0x0                   	// #0
  1e000370d4:	52800009 	mov	w9, #0x0                   	// #0
  1e000370d8:	52800008 	mov	w8, #0x0                   	// #0
  1e000370dc:	b904241c 	str	w28, [x0, #1060]
  1e000370e0:	52800007 	mov	w7, #0x0                   	// #0
  1e000370e4:	b9042801 	str	w1, [x0, #1064]
  1e000370e8:	52800006 	mov	w6, #0x0                   	// #0
  1e000370ec:	b9042c1c 	str	w28, [x0, #1068]
  1e000370f0:	52800005 	mov	w5, #0x0                   	// #0
  1e000370f4:	52800004 	mov	w4, #0x0                   	// #0
  1e000370f8:	b9043001 	str	w1, [x0, #1072]
  1e000370fc:	2a1603e2 	mov	w2, w22
  1e00037100:	2a1503e1 	mov	w1, w21
  1e00037104:	aa1303e0 	mov	x0, x19
  1e00037108:	290c97e4 	stp	w4, w5, [sp, #100]
  1e0003710c:	290d9fe6 	stp	w6, w7, [sp, #108]
  1e00037110:	290ea7e8 	stp	w8, w9, [sp, #116]
  1e00037114:	290fffea 	stp	w10, wzr, [sp, #124]
  1e00037118:	b90087ff 	str	wzr, [sp, #132]
  1e0003711c:	97fff907 	bl	1e00035538 <phy_search_ca_ra_deskew>
  1e00037120:	2a1503e1 	mov	w1, w21
  1e00037124:	aa1303e0 	mov	x0, x19
  1e00037128:	97ffe420 	bl	1e000301a8 <phy_update_dll_code>
  1e0003712c:	2a1503e1 	mov	w1, w21
  1e00037130:	aa1303e0 	mov	x0, x19
  1e00037134:	97ffe3fe 	bl	1e0003012c <phy_gen_pattern>
  1e00037138:	910213e3 	add	x3, sp, #0x84
  1e0003713c:	910203e2 	add	x2, sp, #0x80
  1e00037140:	2a1503e1 	mov	w1, w21
  1e00037144:	aa1303e0 	mov	x0, x19
  1e00037148:	97ffe8bc 	bl	1e00031438 <icon_rd_feedback>
  1e0003714c:	294f87ea 	ldp	w10, w1, [sp, #124]
  1e00037150:	5280000e 	mov	w14, #0x0                   	// #0
  1e00037154:	b94087e2 	ldr	w2, [sp, #132]
  1e00037158:	5280000f 	mov	w15, #0x0                   	// #0
  1e0003715c:	120c0420 	and	w0, w1, #0x300000
  1e00037160:	12003c2c 	and	w12, w1, #0xffff
  1e00037164:	53167c23 	lsr	w3, w1, #22
  1e00037168:	531a7c2d 	lsr	w13, w1, #26
  1e0003716c:	294c97e4 	ldp	w4, w5, [sp, #100]
  1e00037170:	53120463 	ubfiz	w3, w3, #14, #2
  1e00037174:	2a401060 	orr	w0, w3, w0, lsr #4
  1e00037178:	120e0423 	and	w3, w1, #0xc0000
  1e0003717c:	2a417863 	orr	w3, w3, w1, lsr #30
  1e00037180:	531605ad 	ubfiz	w13, w13, #10, #2
  1e00037184:	2a030000 	orr	w0, w0, w3
  1e00037188:	12080423 	and	w3, w1, #0x3000000
  1e0003718c:	294d9fe6 	ldp	w6, w7, [sp, #108]
  1e00037190:	2a4331a3 	orr	w3, w13, w3, lsr #12
  1e00037194:	53027c4d 	lsr	w13, w2, #2
  1e00037198:	2a030000 	orr	w0, w0, w3
  1e0003719c:	12040423 	and	w3, w1, #0x30000000
  1e000371a0:	52807f4b 	mov	w11, #0x3fa                 	// #1018
  1e000371a4:	531c05ad 	ubfiz	w13, w13, #4, #2
  1e000371a8:	2a4351a3 	orr	w3, w13, w3, lsr #20
  1e000371ac:	2a030000 	orr	w0, w0, w3
  1e000371b0:	121c0443 	and	w3, w2, #0x30
  1e000371b4:	531a0442 	ubfiz	w2, w2, #6, #2
  1e000371b8:	2a430842 	orr	w2, w2, w3, lsr #2
  1e000371bc:	52800003 	mov	w3, #0x0                   	// #0
  1e000371c0:	294ea7e8 	ldp	w8, w9, [sp, #116]
  1e000371c4:	2a020000 	orr	w0, w0, w2
  1e000371c8:	531f79e2 	lsl	w2, w15, #1
  1e000371cc:	1100044d 	add	w13, w2, #0x1
  1e000371d0:	1ac22582 	lsr	w2, w12, w2
  1e000371d4:	12000042 	and	w2, w2, #0x1
  1e000371d8:	1acd258d 	lsr	w13, w12, w13
  1e000371dc:	120001ad 	and	w13, w13, #0x1
  1e000371e0:	1acf2042 	lsl	w2, w2, w15
  1e000371e4:	2a020063 	orr	w3, w3, w2
  1e000371e8:	1acf21ad 	lsl	w13, w13, w15
  1e000371ec:	110005ef 	add	w15, w15, #0x1
  1e000371f0:	2a0d01ce 	orr	w14, w14, w13
  1e000371f4:	710021ff 	cmp	w15, #0x8
  1e000371f8:	54fffe81 	b.ne	1e000371c8 <phy_command_training+0x3a8>  // b.any
  1e000371fc:	5280000d 	mov	w13, #0x0                   	// #0
  1e00037200:	52800002 	mov	w2, #0x0                   	// #0
  1e00037204:	52800010 	mov	w16, #0x0                   	// #0
  1e00037208:	531f7a0c 	lsl	w12, w16, #1
  1e0003720c:	1100058f 	add	w15, w12, #0x1
  1e00037210:	1acc240c 	lsr	w12, w0, w12
  1e00037214:	1200018c 	and	w12, w12, #0x1
  1e00037218:	1acf240f 	lsr	w15, w0, w15
  1e0003721c:	120001ef 	and	w15, w15, #0x1
  1e00037220:	1ad0218c 	lsl	w12, w12, w16
  1e00037224:	2a0c01ad 	orr	w13, w13, w12
  1e00037228:	1ad021ef 	lsl	w15, w15, w16
  1e0003722c:	11000610 	add	w16, w16, #0x1
  1e00037230:	2a0f0042 	orr	w2, w2, w15
  1e00037234:	71002a1f 	cmp	w16, #0xa
  1e00037238:	54fffe81 	b.ne	1e00037208 <phy_command_training+0x3e8>  // b.any
  1e0003723c:	52001dcf 	eor	w15, w14, #0xff
  1e00037240:	d2800000 	mov	x0, #0x0                   	// #0
  1e00037244:	2a0301ef 	orr	w15, w15, w3
  1e00037248:	52001c63 	eor	w3, w3, #0xff
  1e0003724c:	2a0e0063 	orr	w3, w3, w14
  1e00037250:	1ac024ae 	lsr	w14, w5, w0
  1e00037254:	3700014e 	tbnz	w14, #0, 1e0003727c <phy_command_training+0x45c>
  1e00037258:	1ac024ce 	lsr	w14, w6, w0
  1e0003725c:	3700136e 	tbnz	w14, #0, 1e000374c8 <phy_command_training+0x6a8>
  1e00037260:	1ac0246e 	lsr	w14, w3, w0
  1e00037264:	370000ce 	tbnz	w14, #0, 1e0003727c <phy_command_training+0x45c>
  1e00037268:	910223ee 	add	x14, sp, #0x88
  1e0003726c:	b82079d6 	str	w22, [x14, x0, lsl #2]
  1e00037270:	5280002e 	mov	w14, #0x1                   	// #1
  1e00037274:	1ac021cc 	lsl	w12, w14, w0
  1e00037278:	2a0c00c6 	orr	w6, w6, w12
  1e0003727c:	91000400 	add	x0, x0, #0x1
  1e00037280:	f100201f 	cmp	x0, #0x8
  1e00037284:	54fffe61 	b.ne	1e00037250 <phy_command_training+0x430>  // b.any
  1e00037288:	4a0b004c 	eor	w12, w2, w11
  1e0003728c:	4a1c01a3 	eor	w3, w13, w28
  1e00037290:	4a1c0042 	eor	w2, w2, w28
  1e00037294:	4a0b01ad 	eor	w13, w13, w11
  1e00037298:	2a03018c 	orr	w12, w12, w3
  1e0003729c:	2a0d0042 	orr	w2, w2, w13
  1e000372a0:	d2800000 	mov	x0, #0x0                   	// #0
  1e000372a4:	1ac0250d 	lsr	w13, w8, w0
  1e000372a8:	3700014d 	tbnz	w13, #0, 1e000372d0 <phy_command_training+0x4b0>
  1e000372ac:	1ac0252d 	lsr	w13, w9, w0
  1e000372b0:	370012ed 	tbnz	w13, #0, 1e0003750c <phy_command_training+0x6ec>
  1e000372b4:	1ac0244d 	lsr	w13, w2, w0
  1e000372b8:	370000cd 	tbnz	w13, #0, 1e000372d0 <phy_command_training+0x4b0>
  1e000372bc:	9103a3ed 	add	x13, sp, #0xe8
  1e000372c0:	b82079b6 	str	w22, [x13, x0, lsl #2]
  1e000372c4:	5280002d 	mov	w13, #0x1                   	// #1
  1e000372c8:	1ac021a3 	lsl	w3, w13, w0
  1e000372cc:	2a030129 	orr	w9, w9, w3
  1e000372d0:	91000400 	add	x0, x0, #0x1
  1e000372d4:	f100281f 	cmp	x0, #0xa
  1e000372d8:	54fffe61 	b.ne	1e000372a4 <phy_command_training+0x484>  // b.any
  1e000372dc:	35000118 	cbnz	w24, 1e000372fc <phy_command_training+0x4dc>
  1e000372e0:	d3504020 	ubfx	x0, x1, #16, #1
  1e000372e4:	d3514438 	ubfx	x24, x1, #17, #1
  1e000372e8:	3500135a 	cbnz	w26, 1e00037550 <phy_command_training+0x730>
  1e000372ec:	350013b8 	cbnz	w24, 1e00037560 <phy_command_training+0x740>
  1e000372f0:	7100001f 	cmp	w0, #0x0
  1e000372f4:	2a0003fa 	mov	w26, w0
  1e000372f8:	1a960339 	csel	w25, w25, w22, eq	// eq = none
  1e000372fc:	7103fcbf 	cmp	w5, #0xff
  1e00037300:	52807fe0 	mov	w0, #0x3ff                 	// #1023
  1e00037304:	7a400100 	ccmp	w8, w0, #0x0, eq	// eq = none
  1e00037308:	54000061 	b.ne	1e00037314 <phy_command_training+0x4f4>  // b.any
  1e0003730c:	7100071f 	cmp	w24, #0x1
  1e00037310:	54000080 	b.eq	1e00037320 <phy_command_training+0x500>  // b.none
  1e00037314:	110006d6 	add	w22, w22, #0x1
  1e00037318:	7107c2df 	cmp	w22, #0x1f0
  1e0003731c:	54ffef01 	b.ne	1e000370fc <phy_command_training+0x2dc>  // b.any
  1e00037320:	910323e2 	add	x2, sp, #0xc8
  1e00037324:	910223e6 	add	x6, sp, #0x88
  1e00037328:	9102a3e5 	add	x5, sp, #0xa8
  1e0003732c:	d2800000 	mov	x0, #0x0                   	// #0
  1e00037330:	b8666801 	ldr	w1, [x0, x6]
  1e00037334:	b8656803 	ldr	w3, [x0, x5]
  1e00037338:	0b030021 	add	w1, w1, w3
  1e0003733c:	53017c21 	lsr	w1, w1, #1
  1e00037340:	b8226801 	str	w1, [x0, x2]
  1e00037344:	91001000 	add	x0, x0, #0x4
  1e00037348:	f100801f 	cmp	x0, #0x20
  1e0003734c:	54ffff21 	b.ne	1e00037330 <phy_command_training+0x510>  // b.any
  1e00037350:	9104e3e3 	add	x3, sp, #0x138
  1e00037354:	9103a3e7 	add	x7, sp, #0xe8
  1e00037358:	910443e6 	add	x6, sp, #0x110
  1e0003735c:	d2800000 	mov	x0, #0x0                   	// #0
  1e00037360:	b8676801 	ldr	w1, [x0, x7]
  1e00037364:	b8666805 	ldr	w5, [x0, x6]
  1e00037368:	0b050021 	add	w1, w1, w5
  1e0003736c:	53017c21 	lsr	w1, w1, #1
  1e00037370:	b8236801 	str	w1, [x0, x3]
  1e00037374:	91001000 	add	x0, x0, #0x4
  1e00037378:	f100a01f 	cmp	x0, #0x28
  1e0003737c:	54ffff21 	b.ne	1e00037360 <phy_command_training+0x540>  // b.any
  1e00037380:	0b040324 	add	w4, w25, w4
  1e00037384:	2a1503e1 	mov	w1, w21
  1e00037388:	aa1303e0 	mov	x0, x19
  1e0003738c:	53017c84 	lsr	w4, w4, #1
  1e00037390:	97fff81c 	bl	1e00035400 <phy_update_ca_ra_deskew>
  1e00037394:	2a1503e1 	mov	w1, w21
  1e00037398:	aa1303e0 	mov	x0, x19
  1e0003739c:	97ffe383 	bl	1e000301a8 <phy_update_dll_code>
  1e000373a0:	f8746a60 	ldr	x0, [x19, x20]
  1e000373a4:	b904241f 	str	wzr, [x0, #1060]
  1e000373a8:	b904281f 	str	wzr, [x0, #1064]
  1e000373ac:	b9042c1f 	str	wzr, [x0, #1068]
  1e000373b0:	b904301f 	str	wzr, [x0, #1072]
  1e000373b4:	b940a801 	ldr	w1, [x0, #168]
  1e000373b8:	12075821 	and	w1, w1, #0xfe00ffff
  1e000373bc:	b900a801 	str	w1, [x0, #168]
  1e000373c0:	2a1503e1 	mov	w1, w21
  1e000373c4:	aa1303e0 	mov	x0, x19
  1e000373c8:	97ffe378 	bl	1e000301a8 <phy_update_dll_code>
  1e000373cc:	f8746a61 	ldr	x1, [x19, x20]
  1e000373d0:	b9438820 	ldr	w0, [x1, #904]
  1e000373d4:	121f7800 	and	w0, w0, #0xfffffffe
  1e000373d8:	b9038820 	str	w0, [x1, #904]
  1e000373dc:	f9408260 	ldr	x0, [x19, #256]
  1e000373e0:	b900581f 	str	wzr, [x0, #88]
  1e000373e4:	b9400801 	ldr	w1, [x0, #8]
  1e000373e8:	32130021 	orr	w1, w1, #0x2000
  1e000373ec:	b9000801 	str	w1, [x0, #8]
  1e000373f0:	52800020 	mov	w0, #0x1                   	// #1
  1e000373f4:	97fff138 	bl	1e000338d4 <udelay>
  1e000373f8:	aa1303e0 	mov	x0, x19
  1e000373fc:	97ffe46d 	bl	1e000305b0 <wait_for_test_instruction_req_done>
  1e00037400:	f9408261 	ldr	x1, [x19, #256]
  1e00037404:	b9400820 	ldr	w0, [x1, #8]
  1e00037408:	12127800 	and	w0, w0, #0xffffdfff
  1e0003740c:	b9000820 	str	w0, [x1, #8]
  1e00037410:	52800020 	mov	w0, #0x1                   	// #1
  1e00037414:	97fff130 	bl	1e000338d4 <udelay>
  1e00037418:	aa1303e0 	mov	x0, x19
  1e0003741c:	97ffe472 	bl	1e000305e4 <wait_for_test_instruction_req_done_clear>
  1e00037420:	f9408261 	ldr	x1, [x19, #256]
  1e00037424:	b9400020 	ldr	w0, [x1]
  1e00037428:	121f7800 	and	w0, w0, #0xfffffffe
  1e0003742c:	b9000020 	str	w0, [x1]
  1e00037430:	f8746a60 	ldr	x0, [x19, x20]
  1e00037434:	b9438801 	ldr	w1, [x0, #904]
  1e00037438:	121e7821 	and	w1, w1, #0xfffffffd
  1e0003743c:	b9038801 	str	w1, [x0, #904]
  1e00037440:	b9441c01 	ldr	w1, [x0, #1052]
  1e00037444:	32000021 	orr	w1, w1, #0x1
  1e00037448:	b9041c01 	str	w1, [x0, #1052]
  1e0003744c:	b9442001 	ldr	w1, [x0, #1056]
  1e00037450:	32150021 	orr	w1, w1, #0x800
  1e00037454:	b9042001 	str	w1, [x0, #1056]
  1e00037458:	52800020 	mov	w0, #0x1                   	// #1
  1e0003745c:	97fff11e 	bl	1e000338d4 <udelay>
  1e00037460:	f8746a60 	ldr	x0, [x19, x20]
  1e00037464:	b9442001 	ldr	w1, [x0, #1056]
  1e00037468:	12147821 	and	w1, w1, #0xfffff7ff
  1e0003746c:	b9042001 	str	w1, [x0, #1056]
  1e00037470:	b9441c01 	ldr	w1, [x0, #1052]
  1e00037474:	121f7821 	and	w1, w1, #0xfffffffe
  1e00037478:	b9041c01 	str	w1, [x0, #1052]
  1e0003747c:	f94002e0 	ldr	x0, [x23]
  1e00037480:	b9444c13 	ldr	w19, [x0, #1100]
  1e00037484:	52800020 	mov	w0, #0x1                   	// #1
  1e00037488:	d3441273 	ubfx	x19, x19, #4, #1
  1e0003748c:	97fff112 	bl	1e000338d4 <udelay>
  1e00037490:	34ffff73 	cbz	w19, 1e0003747c <phy_command_training+0x65c>
  1e00037494:	f94042e0 	ldr	x0, [x23, #128]
  1e00037498:	91401000 	add	x0, x0, #0x4, lsl #12
  1e0003749c:	b9509401 	ldr	w1, [x0, #4244]
  1e000374a0:	32000021 	orr	w1, w1, #0x1
  1e000374a4:	b9109401 	str	w1, [x0, #4244]
  1e000374a8:	52800000 	mov	w0, #0x0                   	// #0
  1e000374ac:	a94153f3 	ldp	x19, x20, [sp, #16]
  1e000374b0:	a9425bf5 	ldp	x21, x22, [sp, #32]
  1e000374b4:	a94363f7 	ldp	x23, x24, [sp, #48]
  1e000374b8:	a9446bf9 	ldp	x25, x26, [sp, #64]
  1e000374bc:	a94573fb 	ldp	x27, x28, [sp, #80]
  1e000374c0:	a8d67bfd 	ldp	x29, x30, [sp], #352
  1e000374c4:	d65f03c0 	ret
  1e000374c8:	1ac024ee 	lsr	w14, w7, w0
  1e000374cc:	3700012e 	tbnz	w14, #0, 1e000374f0 <phy_command_training+0x6d0>
  1e000374d0:	1ac025ee 	lsr	w14, w15, w0
  1e000374d4:	3707ed4e 	tbnz	w14, #0, 1e0003727c <phy_command_training+0x45c>
  1e000374d8:	9102a3ee 	add	x14, sp, #0xa8
  1e000374dc:	b82079d6 	str	w22, [x14, x0, lsl #2]
  1e000374e0:	5280002e 	mov	w14, #0x1                   	// #1
  1e000374e4:	1ac021cc 	lsl	w12, w14, w0
  1e000374e8:	2a0c00e7 	orr	w7, w7, w12
  1e000374ec:	17ffff64 	b	1e0003727c <phy_command_training+0x45c>
  1e000374f0:	0a0700ce 	and	w14, w6, w7
  1e000374f4:	1ac025ce 	lsr	w14, w14, w0
  1e000374f8:	3607ec2e 	tbz	w14, #0, 1e0003727c <phy_command_training+0x45c>
  1e000374fc:	5280002e 	mov	w14, #0x1                   	// #1
  1e00037500:	1ac021cc 	lsl	w12, w14, w0
  1e00037504:	2a0c00a5 	orr	w5, w5, w12
  1e00037508:	17ffff5d 	b	1e0003727c <phy_command_training+0x45c>
  1e0003750c:	1ac0254d 	lsr	w13, w10, w0
  1e00037510:	3700012d 	tbnz	w13, #0, 1e00037534 <phy_command_training+0x714>
  1e00037514:	1ac0258d 	lsr	w13, w12, w0
  1e00037518:	3707edcd 	tbnz	w13, #0, 1e000372d0 <phy_command_training+0x4b0>
  1e0003751c:	910443ed 	add	x13, sp, #0x110
  1e00037520:	b82079b6 	str	w22, [x13, x0, lsl #2]
  1e00037524:	5280002d 	mov	w13, #0x1                   	// #1
  1e00037528:	1ac021a3 	lsl	w3, w13, w0
  1e0003752c:	2a03014a 	orr	w10, w10, w3
  1e00037530:	17ffff68 	b	1e000372d0 <phy_command_training+0x4b0>
  1e00037534:	0a0a012d 	and	w13, w9, w10
  1e00037538:	1ac025ad 	lsr	w13, w13, w0
  1e0003753c:	3607ecad 	tbz	w13, #0, 1e000372d0 <phy_command_training+0x4b0>
  1e00037540:	5280002d 	mov	w13, #0x1                   	// #1
  1e00037544:	1ac021a3 	lsl	w3, w13, w0
  1e00037548:	2a030108 	orr	w8, w8, w3
  1e0003754c:	17ffff61 	b	1e000372d0 <phy_command_training+0x4b0>
  1e00037550:	350000db 	cbnz	w27, 1e00037568 <phy_command_training+0x748>
  1e00037554:	34ffed58 	cbz	w24, 1e000372fc <phy_command_training+0x4dc>
  1e00037558:	340000e0 	cbz	w0, 1e00037574 <phy_command_training+0x754>
  1e0003755c:	2a0003fa 	mov	w26, w0
  1e00037560:	52800018 	mov	w24, #0x0                   	// #0
  1e00037564:	17ffff66 	b	1e000372fc <phy_command_training+0x4dc>
  1e00037568:	2a1b03fa 	mov	w26, w27
  1e0003756c:	2a1b03f8 	mov	w24, w27
  1e00037570:	17ffff63 	b	1e000372fc <phy_command_training+0x4dc>
  1e00037574:	2a1803fb 	mov	w27, w24
  1e00037578:	2a1803fa 	mov	w26, w24
  1e0003757c:	2a1603e4 	mov	w4, w22
  1e00037580:	52800018 	mov	w24, #0x0                   	// #0
  1e00037584:	17ffff5e 	b	1e000372fc <phy_command_training+0x4dc>

0000001e00037588 <phy_rx_io_setting>:
  1e00037588:	92401c21 	and	x1, x1, #0xff
  1e0003758c:	52860182 	mov	w2, #0x300c                	// #12300
  1e00037590:	f8617800 	ldr	x0, [x0, x1, lsl #3]
  1e00037594:	52800241 	mov	w1, #0x12                  	// #18
  1e00037598:	b9088c01 	str	w1, [x0, #2188]
  1e0003759c:	117ffc21 	add	w1, w1, #0xfff, lsl #12
  1e000375a0:	b9089002 	str	w2, [x0, #2192]
  1e000375a4:	d2820282 	mov	x2, #0x1014                	// #4116
  1e000375a8:	f2a004a2 	movk	x2, #0x25, lsl #16
  1e000375ac:	113fb821 	add	w1, w1, #0xfee
  1e000375b0:	f2c003c2 	movk	x2, #0x1e, lsl #32
  1e000375b4:	b9400042 	ldr	w2, [x2]
  1e000375b8:	12080c42 	and	w2, w2, #0xf000000
  1e000375bc:	6b01005f 	cmp	w2, w1
  1e000375c0:	540001c1 	b.ne	1e000375f8 <phy_rx_io_setting+0x70>  // b.any
  1e000375c4:	b9445001 	ldr	w1, [x0, #1104]
  1e000375c8:	52800142 	mov	w2, #0xa                   	// #10
  1e000375cc:	321c0021 	orr	w1, w1, #0x10
  1e000375d0:	b9045001 	str	w1, [x0, #1104]
  1e000375d4:	b9445001 	ldr	w1, [x0, #1104]
  1e000375d8:	32130421 	orr	w1, w1, #0x6000
  1e000375dc:	b9045001 	str	w1, [x0, #1104]
  1e000375e0:	b9445001 	ldr	w1, [x0, #1104]
  1e000375e4:	331b0c41 	bfi	w1, w2, #5, #4
  1e000375e8:	b9045001 	str	w1, [x0, #1104]
  1e000375ec:	b9445001 	ldr	w1, [x0, #1104]
  1e000375f0:	12136c21 	and	w1, w1, #0xffffe1ff
  1e000375f4:	b9045001 	str	w1, [x0, #1104]
  1e000375f8:	52800000 	mov	w0, #0x0                   	// #0
  1e000375fc:	d65f03c0 	ret

0000001e00037600 <phy_dca_training>:
  1e00037600:	a9b37bfd 	stp	x29, x30, [sp, #-208]!
  1e00037604:	910003fd 	mov	x29, sp
  1e00037608:	a90153f3 	stp	x19, x20, [sp, #16]
  1e0003760c:	aa0003f3 	mov	x19, x0
  1e00037610:	d28001f4 	mov	x20, #0xf                   	// #15
  1e00037614:	a90573fb 	stp	x27, x28, [sp, #80]
  1e00037618:	92401c3b 	and	x27, x1, #0xff
  1e0003761c:	a9025bf5 	stp	x21, x22, [sp, #32]
  1e00037620:	aa1b03f5 	mov	x21, x27
  1e00037624:	52800016 	mov	w22, #0x0                   	// #0
  1e00037628:	a90363f7 	stp	x23, x24, [sp, #48]
  1e0003762c:	91033bf8 	add	x24, sp, #0xce
  1e00037630:	9102bbf7 	add	x23, sp, #0xae
  1e00037634:	a9046bf9 	stp	x25, x26, [sp, #64]
  1e00037638:	d280001a 	mov	x26, #0x0                   	// #0
  1e0003763c:	d2800019 	mov	x25, #0x0                   	// #0
  1e00037640:	29117fff 	stp	wzr, wzr, [sp, #136]
  1e00037644:	a9097fff 	stp	xzr, xzr, [sp, #144]
  1e00037648:	a90a7fff 	stp	xzr, xzr, [sp, #160]
  1e0003764c:	a90b7fff 	stp	xzr, xzr, [sp, #176]
  1e00037650:	a90c7fff 	stp	xzr, xzr, [sp, #192]
  1e00037654:	97fff440 	bl	1e00034754 <phy_acquire_vwm_buf>
  1e00037658:	52800007 	mov	w7, #0x0                   	// #0
  1e0003765c:	f87b7a61 	ldr	x1, [x19, x27, lsl #3]
  1e00037660:	f90037e0 	str	x0, [sp, #104]
  1e00037664:	52800006 	mov	w6, #0x0                   	// #0
  1e00037668:	52800005 	mov	w5, #0x0                   	// #0
  1e0003766c:	b9401420 	ldr	w0, [x1, #20]
  1e00037670:	321e0000 	orr	w0, w0, #0x4
  1e00037674:	b9001420 	str	w0, [x1, #20]
  1e00037678:	13001e80 	sxtb	w0, w20
  1e0003767c:	7100201f 	cmp	w0, #0x8
  1e00037680:	540005e0 	b.eq	1e0003773c <phy_dca_training+0x13c>  // b.none
  1e00037684:	12000e80 	and	w0, w20, #0xf
  1e00037688:	52800162 	mov	w2, #0xb                   	// #11
  1e0003768c:	2a1503e1 	mov	w1, w21
  1e00037690:	290e9be5 	stp	w5, w6, [sp, #116]
  1e00037694:	33000c1c 	bfxil	w28, w0, #0, #4
  1e00037698:	b9007fe7 	str	w7, [sp, #124]
  1e0003769c:	331c0c1c 	bfi	w28, w0, #4, #4
  1e000376a0:	aa1303e0 	mov	x0, x19
  1e000376a4:	2a1c03e3 	mov	w3, w28
  1e000376a8:	97ffe2d3 	bl	1e000301f4 <mrw_phy_direct_cmd>
  1e000376ac:	2a1503e1 	mov	w1, w21
  1e000376b0:	aa1303e0 	mov	x0, x19
  1e000376b4:	97ffe285 	bl	1e000300c8 <phy_do_training>
  1e000376b8:	910223e2 	add	x2, sp, #0x88
  1e000376bc:	910233e3 	add	x3, sp, #0x8c
  1e000376c0:	2a1503e1 	mov	w1, w21
  1e000376c4:	aa1303e0 	mov	x0, x19
  1e000376c8:	97fff620 	bl	1e00034f48 <phy_read_training_fail_check>
  1e000376cc:	f94037e2 	ldr	x2, [sp, #104]
  1e000376d0:	2a1503e1 	mov	w1, w21
  1e000376d4:	aa1303e0 	mov	x0, x19
  1e000376d8:	97fff6fd 	bl	1e000352cc <phy_get_training_result>
  1e000376dc:	b9408be0 	ldr	w0, [sp, #136]
  1e000376e0:	2a1503e1 	mov	w1, w21
  1e000376e4:	7100001f 	cmp	w0, #0x0
  1e000376e8:	b9408fe0 	ldr	w0, [sp, #140]
  1e000376ec:	9a971339 	csel	x25, x25, x23, ne	// ne = any
  1e000376f0:	7100001f 	cmp	w0, #0x0
  1e000376f4:	aa1903e3 	mov	x3, x25
  1e000376f8:	9a98135a 	csel	x26, x26, x24, ne	// ne = any
  1e000376fc:	aa1303e0 	mov	x0, x19
  1e00037700:	aa1a03e4 	mov	x4, x26
  1e00037704:	97fff675 	bl	1e000350d8 <phy_find_min_result>
  1e00037708:	294e9be5 	ldp	w5, w6, [sp, #116]
  1e0003770c:	12001e80 	and	w0, w20, #0xff
  1e00037710:	794002e1 	ldrh	w1, [x23]
  1e00037714:	b9407fe7 	ldr	w7, [sp, #124]
  1e00037718:	6b06003f 	cmp	w1, w6
  1e0003771c:	54000063 	b.cc	1e00037728 <phy_dca_training+0x128>  // b.lo, b.ul, b.last
  1e00037720:	2a0103e6 	mov	w6, w1
  1e00037724:	2a0003e5 	mov	w5, w0
  1e00037728:	79400301 	ldrh	w1, [x24]
  1e0003772c:	6b07003f 	cmp	w1, w7
  1e00037730:	54000063 	b.cc	1e0003773c <phy_dca_training+0x13c>  // b.lo, b.ul, b.last
  1e00037734:	2a0103e7 	mov	w7, w1
  1e00037738:	2a0003f6 	mov	w22, w0
  1e0003773c:	d1000694 	sub	x20, x20, #0x1
  1e00037740:	d1000b18 	sub	x24, x24, #0x2
  1e00037744:	d1000af7 	sub	x23, x23, #0x2
  1e00037748:	b100069f 	cmn	x20, #0x1
  1e0003774c:	54fff961 	b.ne	1e00037678 <phy_dca_training+0x78>  // b.any
  1e00037750:	f87b7a61 	ldr	x1, [x19, x27, lsl #3]
  1e00037754:	2a1610b6 	orr	w22, w5, w22, lsl #4
  1e00037758:	b9401420 	ldr	w0, [x1, #20]
  1e0003775c:	121d7800 	and	w0, w0, #0xfffffffb
  1e00037760:	b9001420 	str	w0, [x1, #20]
  1e00037764:	52800140 	mov	w0, #0xa                   	// #10
  1e00037768:	97fff05b 	bl	1e000338d4 <udelay>
  1e0003776c:	a94153f3 	ldp	x19, x20, [sp, #16]
  1e00037770:	2a1603e0 	mov	w0, w22
  1e00037774:	a9425bf5 	ldp	x21, x22, [sp, #32]
  1e00037778:	a94363f7 	ldp	x23, x24, [sp, #48]
  1e0003777c:	a9446bf9 	ldp	x25, x26, [sp, #64]
  1e00037780:	a94573fb 	ldp	x27, x28, [sp, #80]
  1e00037784:	a8cd7bfd 	ldp	x29, x30, [sp], #208
  1e00037788:	d65f03c0 	ret

0000001e0003778c <phy_dcm_init>:
  1e0003778c:	a9b97bfd 	stp	x29, x30, [sp, #-112]!
  1e00037790:	910003fd 	mov	x29, sp
  1e00037794:	a9025bf5 	stp	x21, x22, [sp, #32]
  1e00037798:	aa0003f5 	mov	x21, x0
  1e0003779c:	d37d1c36 	ubfiz	x22, x1, #3, #8
  1e000377a0:	d0000020 	adrp	x0, 1e0003d000 <CSWTCH.192+0x80c>
  1e000377a4:	9108dc00 	add	x0, x0, #0x237
  1e000377a8:	a90573fb 	stp	x27, x28, [sp, #80]
  1e000377ac:	12001c3b 	and	w27, w1, #0xff
  1e000377b0:	d000003c 	adrp	x28, 1e0003d000 <CSWTCH.192+0x80c>
  1e000377b4:	a90153f3 	stp	x19, x20, [sp, #16]
  1e000377b8:	52800013 	mov	w19, #0x0                   	// #0
  1e000377bc:	52800014 	mov	w20, #0x0                   	// #0
  1e000377c0:	a90363f7 	stp	x23, x24, [sp, #48]
  1e000377c4:	52800017 	mov	w23, #0x0                   	// #0
  1e000377c8:	a9046bf9 	stp	x25, x26, [sp, #64]
  1e000377cc:	5280001a 	mov	w26, #0x0                   	// #0
  1e000377d0:	f90033e0 	str	x0, [sp, #96]
  1e000377d4:	d0000020 	adrp	x0, 1e0003d000 <CSWTCH.192+0x80c>
  1e000377d8:	9109c800 	add	x0, x0, #0x272
  1e000377dc:	f90037e0 	str	x0, [sp, #104]
  1e000377e0:	f8766aa0 	ldr	x0, [x21, x22]
  1e000377e4:	b94fc801 	ldr	w1, [x0, #4040]
  1e000377e8:	331102e1 	bfi	w1, w23, #15, #1
  1e000377ec:	b90fc801 	str	w1, [x0, #4040]
  1e000377f0:	b94fc801 	ldr	w1, [x0, #4040]
  1e000377f4:	32010021 	orr	w1, w1, #0x80000000
  1e000377f8:	b90fc801 	str	w1, [x0, #4040]
  1e000377fc:	b94fc801 	ldr	w1, [x0, #4040]
  1e00037800:	32020021 	orr	w1, w1, #0x40000000
  1e00037804:	b90fc801 	str	w1, [x0, #4040]
  1e00037808:	2a1b03e1 	mov	w1, w27
  1e0003780c:	aa1503e0 	mov	x0, x21
  1e00037810:	97ffe22e 	bl	1e000300c8 <phy_do_training>
  1e00037814:	f8766aa0 	ldr	x0, [x21, x22]
  1e00037818:	2a1703e1 	mov	w1, w23
  1e0003781c:	b94fc819 	ldr	w25, [x0, #4040]
  1e00037820:	b94fc818 	ldr	w24, [x0, #4040]
  1e00037824:	f94033e0 	ldr	x0, [sp, #96]
  1e00037828:	d3482339 	ubfx	x25, x25, #8, #1
  1e0003782c:	d3492718 	ubfx	x24, x24, #9, #1
  1e00037830:	940010f7 	bl	1e0003bc0c <printf>
  1e00037834:	340006b9 	cbz	w25, 1e00037908 <phy_dcm_init+0x17c>
  1e00037838:	2a1903fa 	mov	w26, w25
  1e0003783c:	d0000020 	adrp	x0, 1e0003d000 <CSWTCH.192+0x80c>
  1e00037840:	91094000 	add	x0, x0, #0x250
  1e00037844:	940010f2 	bl	1e0003bc0c <printf>
  1e00037848:	340009d8 	cbz	w24, 1e00037980 <phy_dcm_init+0x1f4>
  1e0003784c:	2a1803fa 	mov	w26, w24
  1e00037850:	d0000020 	adrp	x0, 1e0003d000 <CSWTCH.192+0x80c>
  1e00037854:	9109f800 	add	x0, x0, #0x27e
  1e00037858:	940010ed 	bl	1e0003bc0c <printf>
  1e0003785c:	f8766aa0 	ldr	x0, [x21, x22]
  1e00037860:	b94fc801 	ldr	w1, [x0, #4040]
  1e00037864:	12017821 	and	w1, w1, #0xbfffffff
  1e00037868:	b90fc801 	str	w1, [x0, #4040]
  1e0003786c:	b94fc801 	ldr	w1, [x0, #4040]
  1e00037870:	12007821 	and	w1, w1, #0x7fffffff
  1e00037874:	b90fc801 	str	w1, [x0, #4040]
  1e00037878:	34000457 	cbz	w23, 1e00037900 <phy_dcm_init+0x174>
  1e0003787c:	3500033a 	cbnz	w26, 1e000378e0 <phy_dcm_init+0x154>
  1e00037880:	52800040 	mov	w0, #0x2                   	// #2
  1e00037884:	71000a9f 	cmp	w20, #0x2
  1e00037888:	52800003 	mov	w3, #0x0                   	// #0
  1e0003788c:	1ac00e61 	sdiv	w1, w19, w0
  1e00037890:	1ac00e80 	sdiv	w0, w20, w0
  1e00037894:	12001c00 	and	w0, w0, #0xff
  1e00037898:	11002002 	add	w2, w0, #0x8
  1e0003789c:	4b0003e0 	neg	w0, w0
  1e000378a0:	12000c42 	and	w2, w2, #0xf
  1e000378a4:	12000c00 	and	w0, w0, #0xf
  1e000378a8:	1a82b000 	csel	w0, w0, w2, lt	// lt = tstop
  1e000378ac:	71000a7f 	cmp	w19, #0x2
  1e000378b0:	52800162 	mov	w2, #0xb                   	// #11
  1e000378b4:	33000c03 	bfxil	w3, w0, #0, #4
  1e000378b8:	12001c20 	and	w0, w1, #0xff
  1e000378bc:	11002001 	add	w1, w0, #0x8
  1e000378c0:	4b0003e0 	neg	w0, w0
  1e000378c4:	12000c21 	and	w1, w1, #0xf
  1e000378c8:	12000c00 	and	w0, w0, #0xf
  1e000378cc:	1a81b000 	csel	w0, w0, w1, lt	// lt = tstop
  1e000378d0:	2a1b03e1 	mov	w1, w27
  1e000378d4:	331c0c03 	bfi	w3, w0, #4, #4
  1e000378d8:	aa1503e0 	mov	x0, x21
  1e000378dc:	97ffe246 	bl	1e000301f4 <mrw_phy_direct_cmd>
  1e000378e0:	a94153f3 	ldp	x19, x20, [sp, #16]
  1e000378e4:	52800000 	mov	w0, #0x0                   	// #0
  1e000378e8:	a9425bf5 	ldp	x21, x22, [sp, #32]
  1e000378ec:	a94363f7 	ldp	x23, x24, [sp, #48]
  1e000378f0:	a9446bf9 	ldp	x25, x26, [sp, #64]
  1e000378f4:	a94573fb 	ldp	x27, x28, [sp, #80]
  1e000378f8:	a8c77bfd 	ldp	x29, x30, [sp], #112
  1e000378fc:	d65f03c0 	ret
  1e00037900:	52800037 	mov	w23, #0x1                   	// #1
  1e00037904:	17ffffb7 	b	1e000377e0 <phy_dcm_init+0x54>
  1e00037908:	f8766aa0 	ldr	x0, [x21, x22]
  1e0003790c:	12001e94 	and	w20, w20, #0xff
  1e00037910:	b94fc800 	ldr	w0, [x0, #4040]
  1e00037914:	12000c00 	and	w0, w0, #0xf
  1e00037918:	71001c1f 	cmp	w0, #0x7
  1e0003791c:	54000129 	b.ls	1e00037940 <phy_dcm_init+0x1b4>  // b.plast
  1e00037920:	51002002 	sub	w2, w0, #0x8
  1e00037924:	0b020294 	add	w20, w20, w2
  1e00037928:	13001e94 	sxtb	w20, w20
  1e0003792c:	7100201f 	cmp	w0, #0x8
  1e00037930:	54000200 	b.eq	1e00037970 <phy_dcm_init+0x1e4>  // b.none
  1e00037934:	d0000021 	adrp	x1, 1e0003d000 <CSWTCH.192+0x80c>
  1e00037938:	9108d421 	add	x1, x1, #0x235
  1e0003793c:	1400000a 	b	1e00037964 <phy_dcm_init+0x1d8>
  1e00037940:	4b000294 	sub	w20, w20, w0
  1e00037944:	7100001f 	cmp	w0, #0x0
  1e00037948:	b0000022 	adrp	x2, 1e0003c000 <vsnprintf+0x270>
  1e0003794c:	d0000021 	adrp	x1, 1e0003d000 <CSWTCH.192+0x80c>
  1e00037950:	9126b442 	add	x2, x2, #0x9ad
  1e00037954:	9108cc21 	add	x1, x1, #0x233
  1e00037958:	9a821021 	csel	x1, x1, x2, ne	// ne = any
  1e0003795c:	13001e94 	sxtb	w20, w20
  1e00037960:	2a0003e2 	mov	w2, w0
  1e00037964:	f94037e0 	ldr	x0, [sp, #104]
  1e00037968:	940010a9 	bl	1e0003bc0c <printf>
  1e0003796c:	17ffffb7 	b	1e00037848 <phy_dcm_init+0xbc>
  1e00037970:	d0000020 	adrp	x0, 1e0003d000 <CSWTCH.192+0x80c>
  1e00037974:	91097000 	add	x0, x0, #0x25c
  1e00037978:	940010a5 	bl	1e0003bc0c <printf>
  1e0003797c:	17ffffb3 	b	1e00037848 <phy_dcm_init+0xbc>
  1e00037980:	f8766aa0 	ldr	x0, [x21, x22]
  1e00037984:	12001e73 	and	w19, w19, #0xff
  1e00037988:	b94fc800 	ldr	w0, [x0, #4040]
  1e0003798c:	d3441c00 	ubfx	x0, x0, #4, #4
  1e00037990:	71001c1f 	cmp	w0, #0x7
  1e00037994:	54000129 	b.ls	1e000379b8 <phy_dcm_init+0x22c>  // b.plast
  1e00037998:	51002002 	sub	w2, w0, #0x8
  1e0003799c:	0b020273 	add	w19, w19, w2
  1e000379a0:	13001e73 	sxtb	w19, w19
  1e000379a4:	7100201f 	cmp	w0, #0x8
  1e000379a8:	54000200 	b.eq	1e000379e8 <phy_dcm_init+0x25c>  // b.none
  1e000379ac:	d0000021 	adrp	x1, 1e0003d000 <CSWTCH.192+0x80c>
  1e000379b0:	9108d421 	add	x1, x1, #0x235
  1e000379b4:	1400000a 	b	1e000379dc <phy_dcm_init+0x250>
  1e000379b8:	4b000273 	sub	w19, w19, w0
  1e000379bc:	7100001f 	cmp	w0, #0x0
  1e000379c0:	b0000022 	adrp	x2, 1e0003c000 <vsnprintf+0x270>
  1e000379c4:	d0000021 	adrp	x1, 1e0003d000 <CSWTCH.192+0x80c>
  1e000379c8:	9126b442 	add	x2, x2, #0x9ad
  1e000379cc:	9108cc21 	add	x1, x1, #0x233
  1e000379d0:	9a821021 	csel	x1, x1, x2, ne	// ne = any
  1e000379d4:	13001e73 	sxtb	w19, w19
  1e000379d8:	2a0003e2 	mov	w2, w0
  1e000379dc:	910a7b80 	add	x0, x28, #0x29e
  1e000379e0:	9400108b 	bl	1e0003bc0c <printf>
  1e000379e4:	17ffff9e 	b	1e0003785c <phy_dcm_init+0xd0>
  1e000379e8:	d0000020 	adrp	x0, 1e0003d000 <CSWTCH.192+0x80c>
  1e000379ec:	910a2400 	add	x0, x0, #0x289
  1e000379f0:	94001087 	bl	1e0003bc0c <printf>
  1e000379f4:	17ffff9a 	b	1e0003785c <phy_dcm_init+0xd0>

0000001e000379f8 <phy_training_all>:
  1e000379f8:	a9bd7bfd 	stp	x29, x30, [sp, #-48]!
  1e000379fc:	910003fd 	mov	x29, sp
  1e00037a00:	f90013f5 	str	x21, [sp, #32]
  1e00037a04:	12001c35 	and	w21, w1, #0xff
  1e00037a08:	2a1503e1 	mov	w1, w21
  1e00037a0c:	a90153f3 	stp	x19, x20, [sp, #16]
  1e00037a10:	aa0003f4 	mov	x20, x0
  1e00037a14:	97fff915 	bl	1e00035e68 <phy_read_vref_training_LFSR_vertical>
  1e00037a18:	2a1503e1 	mov	w1, w21
  1e00037a1c:	aa1403e0 	mov	x0, x20
  1e00037a20:	97fff706 	bl	1e00035638 <phy_read_training>
  1e00037a24:	2a0003f3 	mov	w19, w0
  1e00037a28:	350002e0 	cbnz	w0, 1e00037a84 <phy_training_all+0x8c>
  1e00037a2c:	2a1503e1 	mov	w1, w21
  1e00037a30:	aa1403e0 	mov	x0, x20
  1e00037a34:	97fff7b0 	bl	1e000358f4 <phy_read_training_LFSR>
  1e00037a38:	2a0003f3 	mov	w19, w0
  1e00037a3c:	35000240 	cbnz	w0, 1e00037a84 <phy_training_all+0x8c>
  1e00037a40:	2a1503e1 	mov	w1, w21
  1e00037a44:	aa1403e0 	mov	x0, x20
  1e00037a48:	97fff890 	bl	1e00035c88 <phy_write_vref_training>
  1e00037a4c:	2a1503e1 	mov	w1, w21
  1e00037a50:	aa1403e0 	mov	x0, x20
  1e00037a54:	97fff72b 	bl	1e00035700 <phy_write_training>
  1e00037a58:	2a0003f3 	mov	w19, w0
  1e00037a5c:	35000140 	cbnz	w0, 1e00037a84 <phy_training_all+0x8c>
  1e00037a60:	2a1503e1 	mov	w1, w21
  1e00037a64:	aa1403e0 	mov	x0, x20
  1e00037a68:	97fff826 	bl	1e00035b00 <phy_write_training_LFSR>
  1e00037a6c:	2a0003f3 	mov	w19, w0
  1e00037a70:	350000a0 	cbnz	w0, 1e00037a84 <phy_training_all+0x8c>
  1e00037a74:	2a1503e1 	mov	w1, w21
  1e00037a78:	aa1403e0 	mov	x0, x20
  1e00037a7c:	52800022 	mov	w2, #0x1                   	// #1
  1e00037a80:	97fffac1 	bl	1e00036584 <phy_prbs_training>
  1e00037a84:	f94013f5 	ldr	x21, [sp, #32]
  1e00037a88:	2a1303e0 	mov	w0, w19
  1e00037a8c:	a94153f3 	ldp	x19, x20, [sp, #16]
  1e00037a90:	a8c37bfd 	ldp	x29, x30, [sp], #48
  1e00037a94:	d65f03c0 	ret

0000001e00037a98 <hbm3_phy_training_step2>:
  1e00037a98:	a9bc7bfd 	stp	x29, x30, [sp, #-64]!
  1e00037a9c:	910003fd 	mov	x29, sp
  1e00037aa0:	a90153f3 	stp	x19, x20, [sp, #16]
  1e00037aa4:	12001c54 	and	w20, w2, #0xff
  1e00037aa8:	aa0003f3 	mov	x19, x0
  1e00037aac:	a9025bf5 	stp	x21, x22, [sp, #32]
  1e00037ab0:	2a0103f5 	mov	w21, w1
  1e00037ab4:	d0000076 	adrp	x22, 1e00045000 <list+0x1e8>
  1e00037ab8:	912062d6 	add	x22, x22, #0x818
  1e00037abc:	a90363f7 	stp	x23, x24, [sp, #48]
  1e00037ac0:	97fff325 	bl	1e00034754 <phy_acquire_vwm_buf>
  1e00037ac4:	d2801402 	mov	x2, #0xa0                  	// #160
  1e00037ac8:	aa0003f8 	mov	x24, x0
  1e00037acc:	52800001 	mov	w1, #0x0                   	// #0
  1e00037ad0:	aa1603e0 	mov	x0, x22
  1e00037ad4:	d0000077 	adrp	x23, 1e00045000 <list+0x1e8>
  1e00037ad8:	9400122c 	bl	1e0003c388 <memset>
  1e00037adc:	911b42f7 	add	x23, x23, #0x6d0
  1e00037ae0:	d2802902 	mov	x2, #0x148                 	// #328
  1e00037ae4:	52800001 	mov	w1, #0x0                   	// #0
  1e00037ae8:	aa1703e0 	mov	x0, x23
  1e00037aec:	94001227 	bl	1e0003c388 <memset>
  1e00037af0:	2a1403e1 	mov	w1, w20
  1e00037af4:	aa1303e0 	mov	x0, x19
  1e00037af8:	52800043 	mov	w3, #0x2                   	// #2
  1e00037afc:	52800102 	mov	w2, #0x8                   	// #8
  1e00037b00:	97ffe1bd 	bl	1e000301f4 <mrw_phy_direct_cmd>
  1e00037b04:	52800002 	mov	w2, #0x0                   	// #0
  1e00037b08:	2a1403e1 	mov	w1, w20
  1e00037b0c:	aa1303e0 	mov	x0, x19
  1e00037b10:	528000e3 	mov	w3, #0x7                   	// #7
  1e00037b14:	97ffe1b8 	bl	1e000301f4 <mrw_phy_direct_cmd>
  1e00037b18:	2a1403e1 	mov	w1, w20
  1e00037b1c:	aa1303e0 	mov	x0, x19
  1e00037b20:	97fffe9a 	bl	1e00037588 <phy_rx_io_setting>
  1e00037b24:	aa1703e4 	mov	x4, x23
  1e00037b28:	aa1603e3 	mov	x3, x22
  1e00037b2c:	aa1803e2 	mov	x2, x24
  1e00037b30:	2a1403e1 	mov	w1, w20
  1e00037b34:	aa1303e0 	mov	x0, x19
  1e00037b38:	97fffabc 	bl	1e00036628 <phy_recv_offset_calibration>
  1e00037b3c:	52800020 	mov	w0, #0x1                   	// #1
  1e00037b40:	97ffef65 	bl	1e000338d4 <udelay>
  1e00037b44:	2a1403e1 	mov	w1, w20
  1e00037b48:	aa1303e0 	mov	x0, x19
  1e00037b4c:	97ffffab 	bl	1e000379f8 <phy_training_all>
  1e00037b50:	2a1403e1 	mov	w1, w20
  1e00037b54:	aa1303e0 	mov	x0, x19
  1e00037b58:	97fffeaa 	bl	1e00037600 <phy_dca_training>
  1e00037b5c:	2a0003e3 	mov	w3, w0
  1e00037b60:	2a1403e1 	mov	w1, w20
  1e00037b64:	aa1303e0 	mov	x0, x19
  1e00037b68:	52800162 	mov	w2, #0xb                   	// #11
  1e00037b6c:	97ffe1a2 	bl	1e000301f4 <mrw_phy_direct_cmd>
  1e00037b70:	52800003 	mov	w3, #0x0                   	// #0
  1e00037b74:	52800102 	mov	w2, #0x8                   	// #8
  1e00037b78:	2a1403e1 	mov	w1, w20
  1e00037b7c:	aa1303e0 	mov	x0, x19
  1e00037b80:	97ffe19d 	bl	1e000301f4 <mrw_phy_direct_cmd>
  1e00037b84:	2a1403e1 	mov	w1, w20
  1e00037b88:	aa1303e0 	mov	x0, x19
  1e00037b8c:	97fffa51 	bl	1e000364d0 <phy_wdqs2ck_training>
  1e00037b90:	52800043 	mov	w3, #0x2                   	// #2
  1e00037b94:	52800102 	mov	w2, #0x8                   	// #8
  1e00037b98:	2a1403e1 	mov	w1, w20
  1e00037b9c:	aa1303e0 	mov	x0, x19
  1e00037ba0:	97ffe195 	bl	1e000301f4 <mrw_phy_direct_cmd>
  1e00037ba4:	2a1403e1 	mov	w1, w20
  1e00037ba8:	aa1303e0 	mov	x0, x19
  1e00037bac:	97ffff93 	bl	1e000379f8 <phy_training_all>
  1e00037bb0:	31000c1f 	cmn	w0, #0x3
  1e00037bb4:	54000121 	b.ne	1e00037bd8 <hbm3_phy_training_step2+0x140>  // b.any
  1e00037bb8:	a94363f7 	ldp	x23, x24, [sp, #48]
  1e00037bbc:	2a1403e2 	mov	w2, w20
  1e00037bc0:	2a1503e1 	mov	w1, w21
  1e00037bc4:	aa1303e0 	mov	x0, x19
  1e00037bc8:	a94153f3 	ldp	x19, x20, [sp, #16]
  1e00037bcc:	a9425bf5 	ldp	x21, x22, [sp, #32]
  1e00037bd0:	a8c47bfd 	ldp	x29, x30, [sp], #64
  1e00037bd4:	17fff016 	b	1e00033c2c <phy_find_read_training_fail_bit>
  1e00037bd8:	3100101f 	cmn	w0, #0x4
  1e00037bdc:	54000121 	b.ne	1e00037c00 <hbm3_phy_training_step2+0x168>  // b.any
  1e00037be0:	a94363f7 	ldp	x23, x24, [sp, #48]
  1e00037be4:	2a1403e2 	mov	w2, w20
  1e00037be8:	2a1503e1 	mov	w1, w21
  1e00037bec:	aa1303e0 	mov	x0, x19
  1e00037bf0:	a94153f3 	ldp	x19, x20, [sp, #16]
  1e00037bf4:	a9425bf5 	ldp	x21, x22, [sp, #32]
  1e00037bf8:	a8c47bfd 	ldp	x29, x30, [sp], #64
  1e00037bfc:	17fff170 	b	1e000341bc <phy_find_write_training_fail_bit>
  1e00037c00:	52800020 	mov	w0, #0x1                   	// #1
  1e00037c04:	97ffef34 	bl	1e000338d4 <udelay>
  1e00037c08:	2a1403e1 	mov	w1, w20
  1e00037c0c:	aa1303e0 	mov	x0, x19
  1e00037c10:	97ffeff0 	bl	1e00033bd0 <phy_post_training>
  1e00037c14:	a94153f3 	ldp	x19, x20, [sp, #16]
  1e00037c18:	52800000 	mov	w0, #0x0                   	// #0
  1e00037c1c:	a9425bf5 	ldp	x21, x22, [sp, #32]
  1e00037c20:	a94363f7 	ldp	x23, x24, [sp, #48]
  1e00037c24:	a8c47bfd 	ldp	x29, x30, [sp], #64
  1e00037c28:	d65f03c0 	ret

0000001e00037c2c <hbm3_phy_training_step1>:
  1e00037c2c:	a9be7bfd 	stp	x29, x30, [sp, #-32]!
  1e00037c30:	910003fd 	mov	x29, sp
  1e00037c34:	a90153f3 	stp	x19, x20, [sp, #16]
  1e00037c38:	12001c34 	and	w20, w1, #0xff
  1e00037c3c:	aa0003f3 	mov	x19, x0
  1e00037c40:	2a1403e1 	mov	w1, w20
  1e00037c44:	97fff3bc 	bl	1e00034b34 <phy_pre_training>
  1e00037c48:	2a1403e1 	mov	w1, w20
  1e00037c4c:	aa1303e0 	mov	x0, x19
  1e00037c50:	97fffc74 	bl	1e00036e20 <phy_command_training>
  1e00037c54:	2a1403e1 	mov	w1, w20
  1e00037c58:	aa1303e0 	mov	x0, x19
  1e00037c5c:	528006c3 	mov	w3, #0x36                  	// #54
  1e00037c60:	528001e2 	mov	w2, #0xf                   	// #15
  1e00037c64:	97ffe164 	bl	1e000301f4 <mrw_phy_direct_cmd>
  1e00037c68:	2a1403e1 	mov	w1, w20
  1e00037c6c:	aa1303e0 	mov	x0, x19
  1e00037c70:	a94153f3 	ldp	x19, x20, [sp, #16]
  1e00037c74:	a8c27bfd 	ldp	x29, x30, [sp], #32
  1e00037c78:	17fffa16 	b	1e000364d0 <phy_wdqs2ck_training>

0000001e00037c7c <hbm3_phy_training_evt0>:
  1e00037c7c:	a9bc7bfd 	stp	x29, x30, [sp, #-64]!
  1e00037c80:	910003fd 	mov	x29, sp
  1e00037c84:	a90153f3 	stp	x19, x20, [sp, #16]
  1e00037c88:	12001c54 	and	w20, w2, #0xff
  1e00037c8c:	aa0003f3 	mov	x19, x0
  1e00037c90:	a9025bf5 	stp	x21, x22, [sp, #32]
  1e00037c94:	2a0103f5 	mov	w21, w1
  1e00037c98:	2a1403e1 	mov	w1, w20
  1e00037c9c:	a90363f7 	stp	x23, x24, [sp, #48]
  1e00037ca0:	97fff3a5 	bl	1e00034b34 <phy_pre_training>
  1e00037ca4:	d0000076 	adrp	x22, 1e00045000 <list+0x1e8>
  1e00037ca8:	97fff2ab 	bl	1e00034754 <phy_acquire_vwm_buf>
  1e00037cac:	912062d6 	add	x22, x22, #0x818
  1e00037cb0:	aa0003f8 	mov	x24, x0
  1e00037cb4:	d2801402 	mov	x2, #0xa0                  	// #160
  1e00037cb8:	52800001 	mov	w1, #0x0                   	// #0
  1e00037cbc:	aa1603e0 	mov	x0, x22
  1e00037cc0:	d0000077 	adrp	x23, 1e00045000 <list+0x1e8>
  1e00037cc4:	940011b1 	bl	1e0003c388 <memset>
  1e00037cc8:	911b42f7 	add	x23, x23, #0x6d0
  1e00037ccc:	d2802902 	mov	x2, #0x148                 	// #328
  1e00037cd0:	52800001 	mov	w1, #0x0                   	// #0
  1e00037cd4:	aa1703e0 	mov	x0, x23
  1e00037cd8:	940011ac 	bl	1e0003c388 <memset>
  1e00037cdc:	2a1403e1 	mov	w1, w20
  1e00037ce0:	aa1303e0 	mov	x0, x19
  1e00037ce4:	97fffc4f 	bl	1e00036e20 <phy_command_training>
  1e00037ce8:	52800140 	mov	w0, #0xa                   	// #10
  1e00037cec:	97ffeefa 	bl	1e000338d4 <udelay>
  1e00037cf0:	2a1403e1 	mov	w1, w20
  1e00037cf4:	aa1303e0 	mov	x0, x19
  1e00037cf8:	97fff9f6 	bl	1e000364d0 <phy_wdqs2ck_training>
  1e00037cfc:	52800140 	mov	w0, #0xa                   	// #10
  1e00037d00:	97ffeef5 	bl	1e000338d4 <udelay>
  1e00037d04:	2a1403e1 	mov	w1, w20
  1e00037d08:	aa1303e0 	mov	x0, x19
  1e00037d0c:	97fffe1f 	bl	1e00037588 <phy_rx_io_setting>
  1e00037d10:	aa1703e4 	mov	x4, x23
  1e00037d14:	aa1603e3 	mov	x3, x22
  1e00037d18:	aa1803e2 	mov	x2, x24
  1e00037d1c:	2a1403e1 	mov	w1, w20
  1e00037d20:	aa1303e0 	mov	x0, x19
  1e00037d24:	97fffa41 	bl	1e00036628 <phy_recv_offset_calibration>
  1e00037d28:	52800020 	mov	w0, #0x1                   	// #1
  1e00037d2c:	97ffeeea 	bl	1e000338d4 <udelay>
  1e00037d30:	2a1403e1 	mov	w1, w20
  1e00037d34:	aa1303e0 	mov	x0, x19
  1e00037d38:	97ffff30 	bl	1e000379f8 <phy_training_all>
  1e00037d3c:	2a1403e1 	mov	w1, w20
  1e00037d40:	aa1303e0 	mov	x0, x19
  1e00037d44:	97fffe2f 	bl	1e00037600 <phy_dca_training>
  1e00037d48:	2a0003e3 	mov	w3, w0
  1e00037d4c:	52800162 	mov	w2, #0xb                   	// #11
  1e00037d50:	2a1403e1 	mov	w1, w20
  1e00037d54:	aa1303e0 	mov	x0, x19
  1e00037d58:	97ffe127 	bl	1e000301f4 <mrw_phy_direct_cmd>
  1e00037d5c:	2a1403e1 	mov	w1, w20
  1e00037d60:	aa1303e0 	mov	x0, x19
  1e00037d64:	97fff9db 	bl	1e000364d0 <phy_wdqs2ck_training>
  1e00037d68:	2a1403e1 	mov	w1, w20
  1e00037d6c:	aa1303e0 	mov	x0, x19
  1e00037d70:	97ffff22 	bl	1e000379f8 <phy_training_all>
  1e00037d74:	31000c1f 	cmn	w0, #0x3
  1e00037d78:	54000121 	b.ne	1e00037d9c <hbm3_phy_training_evt0+0x120>  // b.any
  1e00037d7c:	a94363f7 	ldp	x23, x24, [sp, #48]
  1e00037d80:	2a1403e2 	mov	w2, w20
  1e00037d84:	2a1503e1 	mov	w1, w21
  1e00037d88:	aa1303e0 	mov	x0, x19
  1e00037d8c:	a94153f3 	ldp	x19, x20, [sp, #16]
  1e00037d90:	a9425bf5 	ldp	x21, x22, [sp, #32]
  1e00037d94:	a8c47bfd 	ldp	x29, x30, [sp], #64
  1e00037d98:	17ffefa5 	b	1e00033c2c <phy_find_read_training_fail_bit>
  1e00037d9c:	2a0003e3 	mov	w3, w0
  1e00037da0:	3100101f 	cmn	w0, #0x4
  1e00037da4:	54000121 	b.ne	1e00037dc8 <hbm3_phy_training_evt0+0x14c>  // b.any
  1e00037da8:	a94363f7 	ldp	x23, x24, [sp, #48]
  1e00037dac:	2a1403e2 	mov	w2, w20
  1e00037db0:	2a1503e1 	mov	w1, w21
  1e00037db4:	aa1303e0 	mov	x0, x19
  1e00037db8:	a94153f3 	ldp	x19, x20, [sp, #16]
  1e00037dbc:	a9425bf5 	ldp	x21, x22, [sp, #32]
  1e00037dc0:	a8c47bfd 	ldp	x29, x30, [sp], #64
  1e00037dc4:	17fff0fe 	b	1e000341bc <phy_find_write_training_fail_bit>
  1e00037dc8:	2a1403e1 	mov	w1, w20
  1e00037dcc:	aa1303e0 	mov	x0, x19
  1e00037dd0:	97ffef80 	bl	1e00033bd0 <phy_post_training>
  1e00037dd4:	a94153f3 	ldp	x19, x20, [sp, #16]
  1e00037dd8:	2a0303e0 	mov	w0, w3
  1e00037ddc:	a9425bf5 	ldp	x21, x22, [sp, #32]
  1e00037de0:	a94363f7 	ldp	x23, x24, [sp, #48]
  1e00037de4:	a8c47bfd 	ldp	x29, x30, [sp], #64
  1e00037de8:	d65f03c0 	ret

0000001e00037dec <hbm3_phy_training_evt1>:
  1e00037dec:	a9bc7bfd 	stp	x29, x30, [sp, #-64]!
  1e00037df0:	910003fd 	mov	x29, sp
  1e00037df4:	a90153f3 	stp	x19, x20, [sp, #16]
  1e00037df8:	12001c54 	and	w20, w2, #0xff
  1e00037dfc:	aa0003f3 	mov	x19, x0
  1e00037e00:	a9025bf5 	stp	x21, x22, [sp, #32]
  1e00037e04:	2a0103f5 	mov	w21, w1
  1e00037e08:	2a1403e1 	mov	w1, w20
  1e00037e0c:	a90363f7 	stp	x23, x24, [sp, #48]
  1e00037e10:	97fff349 	bl	1e00034b34 <phy_pre_training>
  1e00037e14:	d0000076 	adrp	x22, 1e00045000 <list+0x1e8>
  1e00037e18:	97fff24f 	bl	1e00034754 <phy_acquire_vwm_buf>
  1e00037e1c:	912062d6 	add	x22, x22, #0x818
  1e00037e20:	aa0003f8 	mov	x24, x0
  1e00037e24:	d2801402 	mov	x2, #0xa0                  	// #160
  1e00037e28:	52800001 	mov	w1, #0x0                   	// #0
  1e00037e2c:	aa1603e0 	mov	x0, x22
  1e00037e30:	94001156 	bl	1e0003c388 <memset>
  1e00037e34:	d0000077 	adrp	x23, 1e00045000 <list+0x1e8>
  1e00037e38:	d2802902 	mov	x2, #0x148                 	// #328
  1e00037e3c:	911b42f7 	add	x23, x23, #0x6d0
  1e00037e40:	52800001 	mov	w1, #0x0                   	// #0
  1e00037e44:	aa1703e0 	mov	x0, x23
  1e00037e48:	94001150 	bl	1e0003c388 <memset>
  1e00037e4c:	2a1403e1 	mov	w1, w20
  1e00037e50:	aa1303e0 	mov	x0, x19
  1e00037e54:	97fffdcd 	bl	1e00037588 <phy_rx_io_setting>
  1e00037e58:	aa1703e4 	mov	x4, x23
  1e00037e5c:	aa1603e3 	mov	x3, x22
  1e00037e60:	aa1803e2 	mov	x2, x24
  1e00037e64:	2a1403e1 	mov	w1, w20
  1e00037e68:	aa1303e0 	mov	x0, x19
  1e00037e6c:	97fff9ef 	bl	1e00036628 <phy_recv_offset_calibration>
  1e00037e70:	52800140 	mov	w0, #0xa                   	// #10
  1e00037e74:	97ffee98 	bl	1e000338d4 <udelay>
  1e00037e78:	2a1403e1 	mov	w1, w20
  1e00037e7c:	aa1303e0 	mov	x0, x19
  1e00037e80:	97fffbe8 	bl	1e00036e20 <phy_command_training>
  1e00037e84:	52800140 	mov	w0, #0xa                   	// #10
  1e00037e88:	97ffee93 	bl	1e000338d4 <udelay>
  1e00037e8c:	2a1403e1 	mov	w1, w20
  1e00037e90:	aa1303e0 	mov	x0, x19
  1e00037e94:	97fffe3e 	bl	1e0003778c <phy_dcm_init>
  1e00037e98:	52800140 	mov	w0, #0xa                   	// #10
  1e00037e9c:	97ffee8e 	bl	1e000338d4 <udelay>
  1e00037ea0:	2a1403e1 	mov	w1, w20
  1e00037ea4:	aa1303e0 	mov	x0, x19
  1e00037ea8:	97fff98a 	bl	1e000364d0 <phy_wdqs2ck_training>
  1e00037eac:	52800140 	mov	w0, #0xa                   	// #10
  1e00037eb0:	97ffee89 	bl	1e000338d4 <udelay>
  1e00037eb4:	2a1403e1 	mov	w1, w20
  1e00037eb8:	aa1303e0 	mov	x0, x19
  1e00037ebc:	97fffecf 	bl	1e000379f8 <phy_training_all>
  1e00037ec0:	31000c1f 	cmn	w0, #0x3
  1e00037ec4:	54000121 	b.ne	1e00037ee8 <hbm3_phy_training_evt1+0xfc>  // b.any
  1e00037ec8:	a94363f7 	ldp	x23, x24, [sp, #48]
  1e00037ecc:	2a1403e2 	mov	w2, w20
  1e00037ed0:	2a1503e1 	mov	w1, w21
  1e00037ed4:	aa1303e0 	mov	x0, x19
  1e00037ed8:	a94153f3 	ldp	x19, x20, [sp, #16]
  1e00037edc:	a9425bf5 	ldp	x21, x22, [sp, #32]
  1e00037ee0:	a8c47bfd 	ldp	x29, x30, [sp], #64
  1e00037ee4:	17ffef52 	b	1e00033c2c <phy_find_read_training_fail_bit>
  1e00037ee8:	3100101f 	cmn	w0, #0x4
  1e00037eec:	54000121 	b.ne	1e00037f10 <hbm3_phy_training_evt1+0x124>  // b.any
  1e00037ef0:	a94363f7 	ldp	x23, x24, [sp, #48]
  1e00037ef4:	2a1403e2 	mov	w2, w20
  1e00037ef8:	2a1503e1 	mov	w1, w21
  1e00037efc:	aa1303e0 	mov	x0, x19
  1e00037f00:	a94153f3 	ldp	x19, x20, [sp, #16]
  1e00037f04:	a9425bf5 	ldp	x21, x22, [sp, #32]
  1e00037f08:	a8c47bfd 	ldp	x29, x30, [sp], #64
  1e00037f0c:	17fff0ac 	b	1e000341bc <phy_find_write_training_fail_bit>
  1e00037f10:	2a1403e1 	mov	w1, w20
  1e00037f14:	aa1303e0 	mov	x0, x19
  1e00037f18:	97ffef2e 	bl	1e00033bd0 <phy_post_training>
  1e00037f1c:	a94153f3 	ldp	x19, x20, [sp, #16]
  1e00037f20:	52800000 	mov	w0, #0x0                   	// #0
  1e00037f24:	a9425bf5 	ldp	x21, x22, [sp, #32]
  1e00037f28:	a94363f7 	ldp	x23, x24, [sp, #48]
  1e00037f2c:	a8c47bfd 	ldp	x29, x30, [sp], #64
  1e00037f30:	d65f03c0 	ret

0000001e00037f34 <set_errata_tmrs>:
  1e00037f34:	a9bd7bfd 	stp	x29, x30, [sp, #-48]!
  1e00037f38:	910003fd 	mov	x29, sp
  1e00037f3c:	a90153f3 	stp	x19, x20, [sp, #16]
  1e00037f40:	aa0003f3 	mov	x19, x0
  1e00037f44:	d0000020 	adrp	x0, 1e0003d000 <CSWTCH.192+0x80c>
  1e00037f48:	910aa400 	add	x0, x0, #0x2a9
  1e00037f4c:	f90013f5 	str	x21, [sp, #32]
  1e00037f50:	97ffe799 	bl	1e00031db4 <tf_log>
  1e00037f54:	52816a14 	mov	w20, #0xb50                 	// #2896
  1e00037f58:	f9408261 	ldr	x1, [x19, #256]
  1e00037f5c:	72a40014 	movk	w20, #0x2000, lsl #16
  1e00037f60:	11040295 	add	w21, w20, #0x100
  1e00037f64:	b9400020 	ldr	w0, [x1]
  1e00037f68:	32000000 	orr	w0, w0, #0x1
  1e00037f6c:	b9000020 	str	w0, [x1]
  1e00037f70:	52800020 	mov	w0, #0x1                   	// #1
  1e00037f74:	97ffee58 	bl	1e000338d4 <udelay>
  1e00037f78:	f9408661 	ldr	x1, [x19, #264]
  1e00037f7c:	39491020 	ldrb	w0, [x1, #580]
  1e00037f80:	32000000 	orr	w0, w0, #0x1
  1e00037f84:	39091020 	strb	w0, [x1, #580]
  1e00037f88:	52800020 	mov	w0, #0x1                   	// #1
  1e00037f8c:	97ffee52 	bl	1e000338d4 <udelay>
  1e00037f90:	f9408261 	ldr	x1, [x19, #256]
  1e00037f94:	b9400020 	ldr	w0, [x1]
  1e00037f98:	321f0000 	orr	w0, w0, #0x2
  1e00037f9c:	b9000020 	str	w0, [x1]
  1e00037fa0:	aa1303e0 	mov	x0, x19
  1e00037fa4:	97ffe556 	bl	1e000314fc <tmrs_gen_inst>
  1e00037fa8:	52820001 	mov	w1, #0x1000                	// #4096
  1e00037fac:	aa1303e0 	mov	x0, x19
  1e00037fb0:	72a7c001 	movk	w1, #0x3e00, lsl #16
  1e00037fb4:	97ffe540 	bl	1e000314b4 <tmrs_write>
  1e00037fb8:	2a1403e1 	mov	w1, w20
  1e00037fbc:	aa1303e0 	mov	x0, x19
  1e00037fc0:	97ffe53d 	bl	1e000314b4 <tmrs_write>
  1e00037fc4:	52816861 	mov	w1, #0xb43                 	// #2883
  1e00037fc8:	aa1303e0 	mov	x0, x19
  1e00037fcc:	72a3c001 	movk	w1, #0x1e00, lsl #16
  1e00037fd0:	97ffe539 	bl	1e000314b4 <tmrs_write>
  1e00037fd4:	2a1503e1 	mov	w1, w21
  1e00037fd8:	aa1303e0 	mov	x0, x19
  1e00037fdc:	97ffe536 	bl	1e000314b4 <tmrs_write>
  1e00037fe0:	5130bea1 	sub	w1, w21, #0xc2f
  1e00037fe4:	aa1303e0 	mov	x0, x19
  1e00037fe8:	97ffe533 	bl	1e000314b4 <tmrs_write>
  1e00037fec:	510032a1 	sub	w1, w21, #0xc
  1e00037ff0:	aa1303e0 	mov	x0, x19
  1e00037ff4:	97ffe530 	bl	1e000314b4 <tmrs_write>
  1e00037ff8:	512d4281 	sub	w1, w20, #0xb50
  1e00037ffc:	aa1303e0 	mov	x0, x19
  1e00038000:	97ffe52d 	bl	1e000314b4 <tmrs_write>
  1e00038004:	aa1303e0 	mov	x0, x19
  1e00038008:	97ffe54d 	bl	1e0003153c <tmrs_bypass>
  1e0003800c:	aa1303e0 	mov	x0, x19
  1e00038010:	528003e1 	mov	w1, #0x1f                  	// #31
  1e00038014:	97fff290 	bl	1e00034a54 <icon_mrs>
  1e00038018:	f9408260 	ldr	x0, [x19, #256]
  1e0003801c:	b9400001 	ldr	w1, [x0]
  1e00038020:	121e7821 	and	w1, w1, #0xfffffffd
  1e00038024:	b9000001 	str	w1, [x0]
  1e00038028:	b9400001 	ldr	w1, [x0]
  1e0003802c:	121f7821 	and	w1, w1, #0xfffffffe
  1e00038030:	b9000001 	str	w1, [x0]
  1e00038034:	52800000 	mov	w0, #0x0                   	// #0
  1e00038038:	a94153f3 	ldp	x19, x20, [sp, #16]
  1e0003803c:	f94013f5 	ldr	x21, [sp, #32]
  1e00038040:	a8c37bfd 	ldp	x29, x30, [sp], #48
  1e00038044:	d65f03c0 	ret

0000001e00038048 <hbm3_ctrl_phy_init>:
  1e00038048:	a9bb7bfd 	stp	x29, x30, [sp, #-80]!
  1e0003804c:	910003fd 	mov	x29, sp
  1e00038050:	a90153f3 	stp	x19, x20, [sp, #16]
  1e00038054:	aa0003f4 	mov	x20, x0
  1e00038058:	a9025bf5 	stp	x21, x22, [sp, #32]
  1e0003805c:	72001c36 	ands	w22, w1, #0xff
  1e00038060:	a90363f7 	stp	x23, x24, [sp, #48]
  1e00038064:	b9004fff 	str	wzr, [sp, #76]
  1e00038068:	54000081 	b.ne	1e00038078 <hbm3_ctrl_phy_init+0x30>  // b.any
  1e0003806c:	b0000020 	adrp	x0, 1e0003d000 <CSWTCH.192+0x80c>
  1e00038070:	910af400 	add	x0, x0, #0x2bd
  1e00038074:	97ffe750 	bl	1e00031db4 <tf_log>
  1e00038078:	2a1603f3 	mov	w19, w22
  1e0003807c:	52801181 	mov	w1, #0x8c                  	// #140
  1e00038080:	91004260 	add	x0, x19, #0x10
  1e00038084:	528000c4 	mov	w4, #0x6                   	// #6
  1e00038088:	d37df278 	lsl	x24, x19, #3
  1e0003808c:	8b130e93 	add	x19, x20, x19, lsl #3
  1e00038090:	528000a6 	mov	w6, #0x5                   	// #5
  1e00038094:	52800127 	mov	w7, #0x9                   	// #9
  1e00038098:	f8607a83 	ldr	x3, [x20, x0, lsl #3]
  1e0003809c:	52800188 	mov	w8, #0xc                   	// #12
  1e000380a0:	52800057 	mov	w23, #0x2                   	// #2
  1e000380a4:	52800035 	mov	w21, #0x1                   	// #1
  1e000380a8:	91401062 	add	x2, x3, #0x4, lsl #12
  1e000380ac:	91402063 	add	x3, x3, #0x8, lsl #12
  1e000380b0:	b9509040 	ldr	w0, [x2, #4240]
  1e000380b4:	32000000 	orr	w0, w0, #0x1
  1e000380b8:	b9109040 	str	w0, [x2, #4240]
  1e000380bc:	b938085f 	str	wzr, [x2, #14344]
  1e000380c0:	12800000 	mov	w0, #0xffffffff            	// #-1
  1e000380c4:	b9381c40 	str	w0, [x2, #14364]
  1e000380c8:	b954dc60 	ldr	w0, [x3, #5340]
  1e000380cc:	33002420 	bfxil	w0, w1, #0, #10
  1e000380d0:	b914dc60 	str	w0, [x3, #5340]
  1e000380d4:	528001e0 	mov	w0, #0xf                   	// #15
  1e000380d8:	b954e461 	ldr	w1, [x3, #5348]
  1e000380dc:	33001001 	bfxil	w1, w0, #0, #5
  1e000380e0:	b914e461 	str	w1, [x3, #5348]
  1e000380e4:	b944c441 	ldr	w1, [x2, #1220]
  1e000380e8:	33001001 	bfxil	w1, w0, #0, #5
  1e000380ec:	b904c441 	str	w1, [x2, #1220]
  1e000380f0:	b944c841 	ldr	w1, [x2, #1224]
  1e000380f4:	33000881 	bfxil	w1, w4, #0, #3
  1e000380f8:	b904c841 	str	w1, [x2, #1224]
  1e000380fc:	b9483441 	ldr	w1, [x2, #2100]
  1e00038100:	32000021 	orr	w1, w1, #0x1
  1e00038104:	b9083441 	str	w1, [x2, #2100]
  1e00038108:	b9483041 	ldr	w1, [x2, #2096]
  1e0003810c:	32000021 	orr	w1, w1, #0x1
  1e00038110:	b9083041 	str	w1, [x2, #2096]
  1e00038114:	f9404264 	ldr	x4, [x19, #128]
  1e00038118:	91402081 	add	x1, x4, #0x8, lsl #12
  1e0003811c:	91401084 	add	x4, x4, #0x4, lsl #12
  1e00038120:	b9548825 	ldr	w5, [x1, #5256]
  1e00038124:	330010c5 	bfxil	w5, w6, #0, #5
  1e00038128:	b9148825 	str	w5, [x1, #5256]
  1e0003812c:	b9544025 	ldr	w5, [x1, #5184]
  1e00038130:	330010c5 	bfxil	w5, w6, #0, #5
  1e00038134:	b9144025 	str	w5, [x1, #5184]
  1e00038138:	52802406 	mov	w6, #0x120                 	// #288
  1e0003813c:	b9543c25 	ldr	w5, [x1, #5180]
  1e00038140:	330024c5 	bfxil	w5, w6, #0, #10
  1e00038144:	b9143c25 	str	w5, [x1, #5180]
  1e00038148:	52800526 	mov	w6, #0x29                  	// #41
  1e0003814c:	b9547c25 	ldr	w5, [x1, #5244]
  1e00038150:	330018c5 	bfxil	w5, w6, #0, #7
  1e00038154:	b9147c25 	str	w5, [x1, #5244]
  1e00038158:	b9547825 	ldr	w5, [x1, #5240]
  1e0003815c:	330010e5 	bfxil	w5, w7, #0, #5
  1e00038160:	b9147825 	str	w5, [x1, #5240]
  1e00038164:	52800387 	mov	w7, #0x1c                  	// #28
  1e00038168:	b9544425 	ldr	w5, [x1, #5188]
  1e0003816c:	33001ce5 	bfxil	w5, w7, #0, #8
  1e00038170:	b9144425 	str	w5, [x1, #5188]
  1e00038174:	528007e7 	mov	w7, #0x3f                  	// #63
  1e00038178:	b9543025 	ldr	w5, [x1, #5168]
  1e0003817c:	33001ce5 	bfxil	w5, w7, #0, #8
  1e00038180:	b9143025 	str	w5, [x1, #5168]
  1e00038184:	528002c7 	mov	w7, #0x16                  	// #22
  1e00038188:	b9541c25 	ldr	w5, [x1, #5148]
  1e0003818c:	330018c5 	bfxil	w5, w6, #0, #7
  1e00038190:	b9141c25 	str	w5, [x1, #5148]
  1e00038194:	b9541425 	ldr	w5, [x1, #5140]
  1e00038198:	330018e5 	bfxil	w5, w7, #0, #7
  1e0003819c:	b9141425 	str	w5, [x1, #5140]
  1e000381a0:	b9541825 	ldr	w5, [x1, #5144]
  1e000381a4:	33001805 	bfxil	w5, w0, #0, #7
  1e000381a8:	b9141825 	str	w5, [x1, #5144]
  1e000381ac:	52800065 	mov	w5, #0x3                   	// #3
  1e000381b0:	b9542826 	ldr	w6, [x1, #5160]
  1e000381b4:	330010a6 	bfxil	w6, w5, #0, #5
  1e000381b8:	b9142826 	str	w6, [x1, #5160]
  1e000381bc:	b9542426 	ldr	w6, [x1, #5156]
  1e000381c0:	330010a6 	bfxil	w6, w5, #0, #5
  1e000381c4:	b9142426 	str	w6, [x1, #5156]
  1e000381c8:	b9543426 	ldr	w6, [x1, #5172]
  1e000381cc:	33002106 	bfxil	w6, w8, #0, #9
  1e000381d0:	b9143426 	str	w6, [x1, #5172]
  1e000381d4:	528000e8 	mov	w8, #0x7                   	// #7
  1e000381d8:	b9542c26 	ldr	w6, [x1, #5164]
  1e000381dc:	330018e6 	bfxil	w6, w7, #0, #7
  1e000381e0:	b9142c26 	str	w6, [x1, #5164]
  1e000381e4:	52800146 	mov	w6, #0xa                   	// #10
  1e000381e8:	b9540c27 	ldr	w7, [x1, #5132]
  1e000381ec:	330010c7 	bfxil	w7, w6, #0, #5
  1e000381f0:	b9140c27 	str	w7, [x1, #5132]
  1e000381f4:	b9540827 	ldr	w7, [x1, #5128]
  1e000381f8:	33001107 	bfxil	w7, w8, #0, #5
  1e000381fc:	b9140827 	str	w7, [x1, #5128]
  1e00038200:	52800168 	mov	w8, #0xb                   	// #11
  1e00038204:	b9548427 	ldr	w7, [x1, #5252]
  1e00038208:	33001107 	bfxil	w7, w8, #0, #5
  1e0003820c:	b9148427 	str	w7, [x1, #5252]
  1e00038210:	52804508 	mov	w8, #0x228                 	// #552
  1e00038214:	b9545027 	ldr	w7, [x1, #5200]
  1e00038218:	33002907 	bfxil	w7, w8, #0, #11
  1e0003821c:	b9145027 	str	w7, [x1, #5200]
  1e00038220:	b9544827 	ldr	w7, [x1, #5192]
  1e00038224:	33001007 	bfxil	w7, w0, #0, #5
  1e00038228:	b9144827 	str	w7, [x1, #5192]
  1e0003822c:	52801e07 	mov	w7, #0xf0                  	// #240
  1e00038230:	b9544c20 	ldr	w0, [x1, #5196]
  1e00038234:	330028e0 	bfxil	w0, w7, #0, #11
  1e00038238:	b9144c20 	str	w0, [x1, #5196]
  1e0003823c:	52804387 	mov	w7, #0x21c                 	// #540
  1e00038240:	b9543820 	ldr	w0, [x1, #5176]
  1e00038244:	330028e0 	bfxil	w0, w7, #0, #11
  1e00038248:	b9143820 	str	w0, [x1, #5176]
  1e0003824c:	b9541020 	ldr	w0, [x1, #5136]
  1e00038250:	330010c0 	bfxil	w0, w6, #0, #5
  1e00038254:	b9141020 	str	w0, [x1, #5136]
  1e00038258:	52824906 	mov	w6, #0x1248                	// #4680
  1e0003825c:	b954a820 	ldr	w0, [x1, #5288]
  1e00038260:	330040c0 	bfxil	w0, w6, #0, #17
  1e00038264:	b914a820 	str	w0, [x1, #5288]
  1e00038268:	b9406480 	ldr	w0, [x4, #100]
  1e0003826c:	33000ae0 	bfxil	w0, w23, #0, #3
  1e00038270:	b9006480 	str	w0, [x4, #100]
  1e00038274:	b940c880 	ldr	w0, [x4, #200]
  1e00038278:	330008a0 	bfxil	w0, w5, #0, #3
  1e0003827c:	b900c880 	str	w0, [x4, #200]
  1e00038280:	52800084 	mov	w4, #0x4                   	// #4
  1e00038284:	b9540020 	ldr	w0, [x1, #5120]
  1e00038288:	33000c80 	bfxil	w0, w4, #0, #4
  1e0003828c:	b9140020 	str	w0, [x1, #5120]
  1e00038290:	52800244 	mov	w4, #0x12                  	// #18
  1e00038294:	b9546020 	ldr	w0, [x1, #5216]
  1e00038298:	33001480 	bfxil	w0, w4, #0, #6
  1e0003829c:	b9146020 	str	w0, [x1, #5216]
  1e000382a0:	b9555420 	ldr	w0, [x1, #5460]
  1e000382a4:	33000aa0 	bfxil	w0, w21, #0, #3
  1e000382a8:	b9155420 	str	w0, [x1, #5460]
  1e000382ac:	528005a1 	mov	w1, #0x2d                  	// #45
  1e000382b0:	b942a440 	ldr	w0, [x2, #676]
  1e000382b4:	121f7800 	and	w0, w0, #0xfffffffe
  1e000382b8:	b902a440 	str	w0, [x2, #676]
  1e000382bc:	b942a840 	ldr	w0, [x2, #680]
  1e000382c0:	121f7800 	and	w0, w0, #0xfffffffe
  1e000382c4:	b902a840 	str	w0, [x2, #680]
  1e000382c8:	b942ac40 	ldr	w0, [x2, #684]
  1e000382cc:	121f7800 	and	w0, w0, #0xfffffffe
  1e000382d0:	b902ac40 	str	w0, [x2, #684]
  1e000382d4:	b942b040 	ldr	w0, [x2, #688]
  1e000382d8:	121f7800 	and	w0, w0, #0xfffffffe
  1e000382dc:	b902b040 	str	w0, [x2, #688]
  1e000382e0:	529ff800 	mov	w0, #0xffc0                	// #65472
  1e000382e4:	72b1ffe0 	movk	w0, #0x8fff, lsl #16
  1e000382e8:	b9241840 	str	w0, [x2, #9240]
  1e000382ec:	b94a7040 	ldr	w0, [x2, #2672]
  1e000382f0:	2a150000 	orr	w0, w0, w21
  1e000382f4:	b90a7040 	str	w0, [x2, #2672]
  1e000382f8:	b9640040 	ldr	w0, [x2, #9216]
  1e000382fc:	2a150000 	orr	w0, w0, w21
  1e00038300:	b9240040 	str	w0, [x2, #9216]
  1e00038304:	b940a040 	ldr	w0, [x2, #160]
  1e00038308:	121f7800 	and	w0, w0, #0xfffffffe
  1e0003830c:	b900a040 	str	w0, [x2, #160]
  1e00038310:	b940a440 	ldr	w0, [x2, #164]
  1e00038314:	121f7800 	and	w0, w0, #0xfffffffe
  1e00038318:	b900a440 	str	w0, [x2, #164]
  1e0003831c:	b940a840 	ldr	w0, [x2, #168]
  1e00038320:	121f7800 	and	w0, w0, #0xfffffffe
  1e00038324:	b900a840 	str	w0, [x2, #168]
  1e00038328:	b9555860 	ldr	w0, [x3, #5464]
  1e0003832c:	72880800 	movk	w0, #0x4040
  1e00038330:	b9155860 	str	w0, [x3, #5464]
  1e00038334:	b9551060 	ldr	w0, [x3, #5392]
  1e00038338:	33001420 	bfxil	w0, w1, #0, #6
  1e0003833c:	b9151060 	str	w0, [x3, #5392]
  1e00038340:	52801900 	mov	w0, #0xc8                  	// #200
  1e00038344:	97ffed64 	bl	1e000338d4 <udelay>
  1e00038348:	f8786a81 	ldr	x1, [x20, x24]
  1e0003834c:	52800103 	mov	w3, #0x8                   	// #8
  1e00038350:	b9400420 	ldr	w0, [x1, #4]
  1e00038354:	120c7800 	and	w0, w0, #0xfff7ffff
  1e00038358:	b9000420 	str	w0, [x1, #4]
  1e0003835c:	b9400c20 	ldr	w0, [x1, #12]
  1e00038360:	33161ae0 	bfi	w0, w23, #10, #7
  1e00038364:	b9000c20 	str	w0, [x1, #12]
  1e00038368:	b9400c20 	ldr	w0, [x1, #12]
  1e0003836c:	330f1aa0 	bfi	w0, w21, #17, #7
  1e00038370:	b9000c20 	str	w0, [x1, #12]
  1e00038374:	b9401420 	ldr	w0, [x1, #20]
  1e00038378:	120a6000 	and	w0, w0, #0xffc07fff
  1e0003837c:	b9001420 	str	w0, [x1, #20]
  1e00038380:	b9401420 	ldr	w0, [x1, #20]
  1e00038384:	330a1ae0 	bfi	w0, w23, #22, #7
  1e00038388:	b9001420 	str	w0, [x1, #20]
  1e0003838c:	f9404260 	ldr	x0, [x19, #128]
  1e00038390:	91403000 	add	x0, x0, #0xc, lsl #12
  1e00038394:	b9680402 	ldr	w2, [x0, #10244]
  1e00038398:	33000c62 	bfxil	w2, w3, #0, #4
  1e0003839c:	b9280402 	str	w2, [x0, #10244]
  1e000383a0:	b9400020 	ldr	w0, [x1]
  1e000383a4:	32120000 	orr	w0, w0, #0x4000
  1e000383a8:	b9000020 	str	w0, [x1]
  1e000383ac:	2a1503e0 	mov	w0, w21
  1e000383b0:	97ffed49 	bl	1e000338d4 <udelay>
  1e000383b4:	f9404260 	ldr	x0, [x19, #128]
  1e000383b8:	91401000 	add	x0, x0, #0x4, lsl #12
  1e000383bc:	b9440001 	ldr	w1, [x0, #1024]
  1e000383c0:	2a150021 	orr	w1, w1, w21
  1e000383c4:	b9040001 	str	w1, [x0, #1024]
  1e000383c8:	2a1503e0 	mov	w0, w21
  1e000383cc:	97ffed42 	bl	1e000338d4 <udelay>
  1e000383d0:	910133e2 	add	x2, sp, #0x4c
  1e000383d4:	2a1603e1 	mov	w1, w22
  1e000383d8:	aa1403e0 	mov	x0, x20
  1e000383dc:	97fff130 	bl	1e0003489c <hbm3_dfi_init>
  1e000383e0:	a94153f3 	ldp	x19, x20, [sp, #16]
  1e000383e4:	a9425bf5 	ldp	x21, x22, [sp, #32]
  1e000383e8:	a94363f7 	ldp	x23, x24, [sp, #48]
  1e000383ec:	a8c57bfd 	ldp	x29, x30, [sp], #80
  1e000383f0:	d65f03c0 	ret

0000001e000383f4 <hbm_ecc_scrub_init>:
  1e000383f4:	a9bf7bfd 	stp	x29, x30, [sp, #-16]!
  1e000383f8:	910003fd 	mov	x29, sp
  1e000383fc:	97ffdf27 	bl	1e00030098 <get_hbm_cfg>
  1e00038400:	91020002 	add	x2, x0, #0x80
  1e00038404:	91040000 	add	x0, x0, #0x100
  1e00038408:	f9400041 	ldr	x1, [x2]
  1e0003840c:	91401021 	add	x1, x1, #0x4, lsl #12
  1e00038410:	b9640823 	ldr	w3, [x1, #9224]
  1e00038414:	32000063 	orr	w3, w3, #0x1
  1e00038418:	b9240823 	str	w3, [x1, #9224]
  1e0003841c:	b9680823 	ldr	w3, [x1, #10248]
  1e00038420:	3607ffe3 	tbz	w3, #0, 1e0003841c <hbm_ecc_scrub_init+0x28>
  1e00038424:	91002042 	add	x2, x2, #0x8
  1e00038428:	eb00005f 	cmp	x2, x0
  1e0003842c:	54fffee1 	b.ne	1e00038408 <hbm_ecc_scrub_init+0x14>  // b.any
  1e00038430:	a8c17bfd 	ldp	x29, x30, [sp], #16
  1e00038434:	d65f03c0 	ret

0000001e00038438 <hbm3_run_phy_training>:
  1e00038438:	a9bc7bfd 	stp	x29, x30, [sp, #-64]!
  1e0003843c:	910003fd 	mov	x29, sp
  1e00038440:	a90153f3 	stp	x19, x20, [sp, #16]
  1e00038444:	aa0003f4 	mov	x20, x0
  1e00038448:	52800013 	mov	w19, #0x0                   	// #0
  1e0003844c:	a9025bf5 	stp	x21, x22, [sp, #32]
  1e00038450:	2a0103f5 	mov	w21, w1
  1e00038454:	a90363f7 	stp	x23, x24, [sp, #48]
  1e00038458:	97ffed8f 	bl	1e00033a94 <get_lotid_for_hbm>
  1e0003845c:	72001c1f 	tst	w0, #0xff
  1e00038460:	54000400 	b.eq	1e000384e0 <hbm3_run_phy_training+0xa8>  // b.none
  1e00038464:	2a1303e1 	mov	w1, w19
  1e00038468:	aa1403e0 	mov	x0, x20
  1e0003846c:	11000673 	add	w19, w19, #0x1
  1e00038470:	97fffdef 	bl	1e00037c2c <hbm3_phy_training_step1>
  1e00038474:	7100427f 	cmp	w19, #0x10
  1e00038478:	54ffff61 	b.ne	1e00038464 <hbm3_run_phy_training+0x2c>  // b.any
  1e0003847c:	52800013 	mov	w19, #0x0                   	// #0
  1e00038480:	52800016 	mov	w22, #0x0                   	// #0
  1e00038484:	52800057 	mov	w23, #0x2                   	// #2
  1e00038488:	aa1403e0 	mov	x0, x20
  1e0003848c:	97fffeaa 	bl	1e00037f34 <set_errata_tmrs>
  1e00038490:	2a1603e2 	mov	w2, w22
  1e00038494:	2a1503e1 	mov	w1, w21
  1e00038498:	aa1403e0 	mov	x0, x20
  1e0003849c:	97fffd7f 	bl	1e00037a98 <hbm3_phy_training_step2>
  1e000384a0:	3100081f 	cmn	w0, #0x2
  1e000384a4:	540001a0 	b.eq	1e000384d8 <hbm3_run_phy_training+0xa0>  // b.none
  1e000384a8:	7100081f 	cmp	w0, #0x2
  1e000384ac:	3a420a64 	ccmn	w19, #0x2, #0x4, eq	// eq = none
  1e000384b0:	1a970273 	csel	w19, w19, w23, eq	// eq = none
  1e000384b4:	110006d6 	add	w22, w22, #0x1
  1e000384b8:	710042df 	cmp	w22, #0x10
  1e000384bc:	54fffea1 	b.ne	1e00038490 <hbm3_run_phy_training+0x58>  // b.any
  1e000384c0:	a9425bf5 	ldp	x21, x22, [sp, #32]
  1e000384c4:	2a1303e0 	mov	w0, w19
  1e000384c8:	a94153f3 	ldp	x19, x20, [sp, #16]
  1e000384cc:	a94363f7 	ldp	x23, x24, [sp, #48]
  1e000384d0:	a8c47bfd 	ldp	x29, x30, [sp], #64
  1e000384d4:	d65f03c0 	ret
  1e000384d8:	2a0003f3 	mov	w19, w0
  1e000384dc:	17fffff6 	b	1e000384b4 <hbm3_run_phy_training+0x7c>
  1e000384e0:	d2820297 	mov	x23, #0x1014                	// #4116
  1e000384e4:	52800016 	mov	w22, #0x0                   	// #0
  1e000384e8:	f2a004b7 	movk	x23, #0x25, lsl #16
  1e000384ec:	52800058 	mov	w24, #0x2                   	// #2
  1e000384f0:	f2c003d7 	movk	x23, #0x1e, lsl #32
  1e000384f4:	b94002e0 	ldr	w0, [x23]
  1e000384f8:	12001ec2 	and	w2, w22, #0xff
  1e000384fc:	2a1503e1 	mov	w1, w21
  1e00038500:	72080c1f 	tst	w0, #0xf000000
  1e00038504:	aa1403e0 	mov	x0, x20
  1e00038508:	54000161 	b.ne	1e00038534 <hbm3_run_phy_training+0xfc>  // b.any
  1e0003850c:	97fffddc 	bl	1e00037c7c <hbm3_phy_training_evt0>
  1e00038510:	3100081f 	cmn	w0, #0x2
  1e00038514:	54000140 	b.eq	1e0003853c <hbm3_run_phy_training+0x104>  // b.none
  1e00038518:	7100081f 	cmp	w0, #0x2
  1e0003851c:	3a420a64 	ccmn	w19, #0x2, #0x4, eq	// eq = none
  1e00038520:	1a980273 	csel	w19, w19, w24, eq	// eq = none
  1e00038524:	110006d6 	add	w22, w22, #0x1
  1e00038528:	710042df 	cmp	w22, #0x10
  1e0003852c:	54fffe41 	b.ne	1e000384f4 <hbm3_run_phy_training+0xbc>  // b.any
  1e00038530:	17ffffe4 	b	1e000384c0 <hbm3_run_phy_training+0x88>
  1e00038534:	97fffe2e 	bl	1e00037dec <hbm3_phy_training_evt1>
  1e00038538:	17fffff6 	b	1e00038510 <hbm3_run_phy_training+0xd8>
  1e0003853c:	2a0003f3 	mov	w19, w0
  1e00038540:	17fffff9 	b	1e00038524 <hbm3_run_phy_training+0xec>

0000001e00038544 <hbm3_init>:
  1e00038544:	a9b97bfd 	stp	x29, x30, [sp, #-112]!
  1e00038548:	910003fd 	mov	x29, sp
  1e0003854c:	a90153f3 	stp	x19, x20, [sp, #16]
  1e00038550:	2a0003f4 	mov	w20, w0
  1e00038554:	a9025bf5 	stp	x21, x22, [sp, #32]
  1e00038558:	b0000075 	adrp	x21, 1e00045000 <list+0x1e8>
  1e0003855c:	911882b5 	add	x21, x21, #0x620
  1e00038560:	a90363f7 	stp	x23, x24, [sp, #48]
  1e00038564:	b0000076 	adrp	x22, 1e00045000 <list+0x1e8>
  1e00038568:	911b02d6 	add	x22, x22, #0x6c0
  1e0003856c:	a9046bf9 	stp	x25, x26, [sp, #64]
  1e00038570:	a90573fb 	stp	x27, x28, [sp, #80]
  1e00038574:	97ffdec9 	bl	1e00030098 <get_hbm_cfg>
  1e00038578:	2a1403e1 	mov	w1, w20
  1e0003857c:	aa0003f3 	mov	x19, x0
  1e00038580:	b0000020 	adrp	x0, 1e0003d000 <CSWTCH.192+0x80c>
  1e00038584:	910b3400 	add	x0, x0, #0x2cd
  1e00038588:	94000da1 	bl	1e0003bc0c <printf>
  1e0003858c:	aa1503e2 	mov	x2, x21
  1e00038590:	d2800000 	mov	x0, #0x0                   	// #0
  1e00038594:	528001e3 	mov	w3, #0xf                   	// #15
  1e00038598:	d2800001 	mov	x1, #0x0                   	// #0
  1e0003859c:	38206adf 	strb	wzr, [x22, x0]
  1e000385a0:	38216843 	strb	w3, [x2, x1]
  1e000385a4:	91000421 	add	x1, x1, #0x1
  1e000385a8:	f100283f 	cmp	x1, #0xa
  1e000385ac:	54ffffa1 	b.ne	1e000385a0 <hbm3_init+0x5c>  // b.any
  1e000385b0:	91000400 	add	x0, x0, #0x1
  1e000385b4:	91002842 	add	x2, x2, #0xa
  1e000385b8:	f100401f 	cmp	x0, #0x10
  1e000385bc:	54fffee1 	b.ne	1e00038598 <hbm3_init+0x54>  // b.any
  1e000385c0:	b000003a 	adrp	x26, 1e0003d000 <CSWTCH.192+0x80c>
  1e000385c4:	9000003b 	adrp	x27, 1e0003c000 <vsnprintf+0x270>
  1e000385c8:	910d5b5a 	add	x26, x26, #0x356
  1e000385cc:	911d837b 	add	x27, x27, #0x760
  1e000385d0:	52800058 	mov	w24, #0x2                   	// #2
  1e000385d4:	52800019 	mov	w25, #0x0                   	// #0
  1e000385d8:	97ffdfdc 	bl	1e00030548 <hbm3_config_init>
  1e000385dc:	52800017 	mov	w23, #0x0                   	// #0
  1e000385e0:	2a1703e1 	mov	w1, w23
  1e000385e4:	aa1303e0 	mov	x0, x19
  1e000385e8:	110006f7 	add	w23, w23, #0x1
  1e000385ec:	97fffe97 	bl	1e00038048 <hbm3_ctrl_phy_init>
  1e000385f0:	710042ff 	cmp	w23, #0x10
  1e000385f4:	54ffff61 	b.ne	1e000385e0 <hbm3_init+0x9c>  // b.any
  1e000385f8:	34000239 	cbz	w25, 1e0003863c <hbm3_init+0xf8>
  1e000385fc:	b0000020 	adrp	x0, 1e0003d000 <CSWTCH.192+0x80c>
  1e00038600:	910bb400 	add	x0, x0, #0x2ed
  1e00038604:	aa1503fc 	mov	x28, x21
  1e00038608:	52800019 	mov	w25, #0x0                   	// #0
  1e0003860c:	94000d80 	bl	1e0003bc0c <printf>
  1e00038610:	d2800017 	mov	x23, #0x0                   	// #0
  1e00038614:	38776b83 	ldrb	w3, [x28, x23]
  1e00038618:	71003c7f 	cmp	w3, #0xf
  1e0003861c:	54000e60 	b.eq	1e000387e8 <hbm3_init+0x2a4>  // b.none
  1e00038620:	510006e0 	sub	w0, w23, #0x1
  1e00038624:	7100201f 	cmp	w0, #0x8
  1e00038628:	54000268 	b.hi	1e00038674 <hbm3_init+0x130>  // b.pmore
  1e0003862c:	78605b60 	ldrh	w0, [x27, w0, uxtw #1]
  1e00038630:	10000061 	adr	x1, 1e0003863c <hbm3_init+0xf8>
  1e00038634:	8b20a820 	add	x0, x1, w0, sxth #2
  1e00038638:	d61f0000 	br	x0
  1e0003863c:	aa1503f9 	mov	x25, x21
  1e00038640:	d2800017 	mov	x23, #0x0                   	// #0
  1e00038644:	aa1903e2 	mov	x2, x25
  1e00038648:	2a1703e1 	mov	w1, w23
  1e0003864c:	aa1303e0 	mov	x0, x19
  1e00038650:	97ffe326 	bl	1e000312e8 <icon_extest>
  1e00038654:	38376ac0 	strb	w0, [x22, x23]
  1e00038658:	910006f7 	add	x23, x23, #0x1
  1e0003865c:	91002b39 	add	x25, x25, #0xa
  1e00038660:	f10042ff 	cmp	x23, #0x10
  1e00038664:	54ffff01 	b.ne	1e00038644 <hbm3_init+0x100>  // b.any
  1e00038668:	b0000020 	adrp	x0, 1e0003d000 <CSWTCH.192+0x80c>
  1e0003866c:	910c3c00 	add	x0, x0, #0x30f
  1e00038670:	17ffffe5 	b	1e00038604 <hbm3_init+0xc0>
  1e00038674:	350000e3 	cbnz	w3, 1e00038690 <hbm3_init+0x14c>
  1e00038678:	b0000022 	adrp	x2, 1e0003d000 <CSWTCH.192+0x80c>
  1e0003867c:	910cc442 	add	x2, x2, #0x331
  1e00038680:	9101a3e0 	add	x0, sp, #0x68
  1e00038684:	d2800101 	mov	x1, #0x8                   	// #8
  1e00038688:	94000f17 	bl	1e0003c2e4 <snprintf>
  1e0003868c:	14000052 	b	1e000387d4 <hbm3_init+0x290>
  1e00038690:	7100247f 	cmp	w3, #0x9
  1e00038694:	540000a1 	b.ne	1e000386a8 <hbm3_init+0x164>  // b.any
  1e00038698:	52800003 	mov	w3, #0x0                   	// #0
  1e0003869c:	b0000022 	adrp	x2, 1e0003d000 <CSWTCH.192+0x80c>
  1e000386a0:	910cdc42 	add	x2, x2, #0x337
  1e000386a4:	17fffff7 	b	1e00038680 <hbm3_init+0x13c>
  1e000386a8:	51000463 	sub	w3, w3, #0x1
  1e000386ac:	b0000022 	adrp	x2, 1e0003d000 <CSWTCH.192+0x80c>
  1e000386b0:	910cf442 	add	x2, x2, #0x33d
  1e000386b4:	17fffff3 	b	1e00038680 <hbm3_init+0x13c>
  1e000386b8:	35000063 	cbnz	w3, 1e000386c4 <hbm3_init+0x180>
  1e000386bc:	52800023 	mov	w3, #0x1                   	// #1
  1e000386c0:	17ffffee 	b	1e00038678 <hbm3_init+0x134>
  1e000386c4:	7100247f 	cmp	w3, #0x9
  1e000386c8:	54000061 	b.ne	1e000386d4 <hbm3_init+0x190>  // b.any
  1e000386cc:	52800023 	mov	w3, #0x1                   	// #1
  1e000386d0:	17fffff3 	b	1e0003869c <hbm3_init+0x158>
  1e000386d4:	11001c63 	add	w3, w3, #0x7
  1e000386d8:	17fffff5 	b	1e000386ac <hbm3_init+0x168>
  1e000386dc:	35000083 	cbnz	w3, 1e000386ec <hbm3_init+0x1a8>
  1e000386e0:	b0000022 	adrp	x2, 1e0003d000 <CSWTCH.192+0x80c>
  1e000386e4:	910d0842 	add	x2, x2, #0x342
  1e000386e8:	17ffffe6 	b	1e00038680 <hbm3_init+0x13c>
  1e000386ec:	7100247f 	cmp	w3, #0x9
  1e000386f0:	54000061 	b.ne	1e000386fc <hbm3_init+0x1b8>  // b.any
  1e000386f4:	52800043 	mov	w3, #0x2                   	// #2
  1e000386f8:	17ffffe9 	b	1e0003869c <hbm3_init+0x158>
  1e000386fc:	11003c63 	add	w3, w3, #0xf
  1e00038700:	17ffffeb 	b	1e000386ac <hbm3_init+0x168>
  1e00038704:	35000063 	cbnz	w3, 1e00038710 <hbm3_init+0x1cc>
  1e00038708:	52800023 	mov	w3, #0x1                   	// #1
  1e0003870c:	17fffff5 	b	1e000386e0 <hbm3_init+0x19c>
  1e00038710:	7100247f 	cmp	w3, #0x9
  1e00038714:	54000061 	b.ne	1e00038720 <hbm3_init+0x1dc>  // b.any
  1e00038718:	52800063 	mov	w3, #0x3                   	// #3
  1e0003871c:	17ffffe0 	b	1e0003869c <hbm3_init+0x158>
  1e00038720:	11005c63 	add	w3, w3, #0x17
  1e00038724:	17ffffe2 	b	1e000386ac <hbm3_init+0x168>
  1e00038728:	35000063 	cbnz	w3, 1e00038734 <hbm3_init+0x1f0>
  1e0003872c:	52800043 	mov	w3, #0x2                   	// #2
  1e00038730:	17ffffd2 	b	1e00038678 <hbm3_init+0x134>
  1e00038734:	7100247f 	cmp	w3, #0x9
  1e00038738:	54000061 	b.ne	1e00038744 <hbm3_init+0x200>  // b.any
  1e0003873c:	52800083 	mov	w3, #0x4                   	// #4
  1e00038740:	17ffffd7 	b	1e0003869c <hbm3_init+0x158>
  1e00038744:	11007c63 	add	w3, w3, #0x1f
  1e00038748:	17ffffd9 	b	1e000386ac <hbm3_init+0x168>
  1e0003874c:	35000063 	cbnz	w3, 1e00038758 <hbm3_init+0x214>
  1e00038750:	52800063 	mov	w3, #0x3                   	// #3
  1e00038754:	17ffffc9 	b	1e00038678 <hbm3_init+0x134>
  1e00038758:	7100247f 	cmp	w3, #0x9
  1e0003875c:	54000061 	b.ne	1e00038768 <hbm3_init+0x224>  // b.any
  1e00038760:	528000a3 	mov	w3, #0x5                   	// #5
  1e00038764:	17ffffce 	b	1e0003869c <hbm3_init+0x158>
  1e00038768:	11009c63 	add	w3, w3, #0x27
  1e0003876c:	17ffffd0 	b	1e000386ac <hbm3_init+0x168>
  1e00038770:	35000063 	cbnz	w3, 1e0003877c <hbm3_init+0x238>
  1e00038774:	52800043 	mov	w3, #0x2                   	// #2
  1e00038778:	17ffffda 	b	1e000386e0 <hbm3_init+0x19c>
  1e0003877c:	7100247f 	cmp	w3, #0x9
  1e00038780:	54000061 	b.ne	1e0003878c <hbm3_init+0x248>  // b.any
  1e00038784:	528000c3 	mov	w3, #0x6                   	// #6
  1e00038788:	17ffffc5 	b	1e0003869c <hbm3_init+0x158>
  1e0003878c:	1100bc63 	add	w3, w3, #0x2f
  1e00038790:	17ffffc7 	b	1e000386ac <hbm3_init+0x168>
  1e00038794:	35000063 	cbnz	w3, 1e000387a0 <hbm3_init+0x25c>
  1e00038798:	52800063 	mov	w3, #0x3                   	// #3
  1e0003879c:	17ffffd1 	b	1e000386e0 <hbm3_init+0x19c>
  1e000387a0:	7100247f 	cmp	w3, #0x9
  1e000387a4:	54000061 	b.ne	1e000387b0 <hbm3_init+0x26c>  // b.any
  1e000387a8:	528000e3 	mov	w3, #0x7                   	// #7
  1e000387ac:	17ffffbc 	b	1e0003869c <hbm3_init+0x158>
  1e000387b0:	1100dc63 	add	w3, w3, #0x37
  1e000387b4:	17ffffbe 	b	1e000386ac <hbm3_init+0x168>
  1e000387b8:	7100207f 	cmp	w3, #0x8
  1e000387bc:	540004e1 	b.ne	1e00038858 <hbm3_init+0x314>  // b.any
  1e000387c0:	b0000022 	adrp	x2, 1e0003d000 <CSWTCH.192+0x80c>
  1e000387c4:	910d2042 	add	x2, x2, #0x348
  1e000387c8:	9101a3e0 	add	x0, sp, #0x68
  1e000387cc:	d2800101 	mov	x1, #0x8                   	// #8
  1e000387d0:	94000ec5 	bl	1e0003c2e4 <snprintf>
  1e000387d4:	9101a3e3 	add	x3, sp, #0x68
  1e000387d8:	2a1903e2 	mov	w2, w25
  1e000387dc:	2a1403e1 	mov	w1, w20
  1e000387e0:	aa1a03e0 	mov	x0, x26
  1e000387e4:	94000d0a 	bl	1e0003bc0c <printf>
  1e000387e8:	910006f7 	add	x23, x23, #0x1
  1e000387ec:	f1002aff 	cmp	x23, #0xa
  1e000387f0:	54fff121 	b.ne	1e00038614 <hbm3_init+0xd0>  // b.any
  1e000387f4:	11000739 	add	w25, w25, #0x1
  1e000387f8:	91002b9c 	add	x28, x28, #0xa
  1e000387fc:	7100433f 	cmp	w25, #0x10
  1e00038800:	54fff081 	b.ne	1e00038610 <hbm3_init+0xcc>  // b.any
  1e00038804:	aa1503f9 	mov	x25, x21
  1e00038808:	d2800017 	mov	x23, #0x0                   	// #0
  1e0003880c:	b0000020 	adrp	x0, 1e0003d000 <CSWTCH.192+0x80c>
  1e00038810:	910d9800 	add	x0, x0, #0x366
  1e00038814:	94000cfe 	bl	1e0003bc0c <printf>
  1e00038818:	38f76ac0 	ldrsb	w0, [x22, x23]
  1e0003881c:	3100081f 	cmn	w0, #0x2
  1e00038820:	54000321 	b.ne	1e00038884 <hbm3_init+0x340>  // b.any
  1e00038824:	2a1703e1 	mov	w1, w23
  1e00038828:	12800037 	mov	w23, #0xfffffffe            	// #-2
  1e0003882c:	b0000020 	adrp	x0, 1e0003d000 <CSWTCH.192+0x80c>
  1e00038830:	910e2000 	add	x0, x0, #0x388
  1e00038834:	97ffe560 	bl	1e00031db4 <tf_log>
  1e00038838:	a94153f3 	ldp	x19, x20, [sp, #16]
  1e0003883c:	2a1703e0 	mov	w0, w23
  1e00038840:	a9425bf5 	ldp	x21, x22, [sp, #32]
  1e00038844:	a94363f7 	ldp	x23, x24, [sp, #48]
  1e00038848:	a9446bf9 	ldp	x25, x26, [sp, #64]
  1e0003884c:	a94573fb 	ldp	x27, x28, [sp, #80]
  1e00038850:	a8c77bfd 	ldp	x29, x30, [sp], #112
  1e00038854:	d65f03c0 	ret
  1e00038858:	7100247f 	cmp	w3, #0x9
  1e0003885c:	54000081 	b.ne	1e0003886c <hbm3_init+0x328>  // b.any
  1e00038860:	b0000022 	adrp	x2, 1e0003d000 <CSWTCH.192+0x80c>
  1e00038864:	910d3442 	add	x2, x2, #0x34d
  1e00038868:	17ffffd8 	b	1e000387c8 <hbm3_init+0x284>
  1e0003886c:	b0000022 	adrp	x2, 1e0003d000 <CSWTCH.192+0x80c>
  1e00038870:	910ccc42 	add	x2, x2, #0x333
  1e00038874:	17ffff83 	b	1e00038680 <hbm3_init+0x13c>
  1e00038878:	b0000022 	adrp	x2, 1e0003d000 <CSWTCH.192+0x80c>
  1e0003887c:	910d4842 	add	x2, x2, #0x352
  1e00038880:	17ffff80 	b	1e00038680 <hbm3_init+0x13c>
  1e00038884:	340000c0 	cbz	w0, 1e0003889c <hbm3_init+0x358>
  1e00038888:	aa1903e2 	mov	x2, x25
  1e0003888c:	2a1703e1 	mov	w1, w23
  1e00038890:	aa1303e0 	mov	x0, x19
  1e00038894:	97ffe224 	bl	1e00031124 <hbm3_lane_repair>
  1e00038898:	35fffc60 	cbnz	w0, 1e00038824 <hbm3_init+0x2e0>
  1e0003889c:	910006f7 	add	x23, x23, #0x1
  1e000388a0:	91002b39 	add	x25, x25, #0xa
  1e000388a4:	f10042ff 	cmp	x23, #0x10
  1e000388a8:	54fffb81 	b.ne	1e00038818 <hbm3_init+0x2d4>  // b.any
  1e000388ac:	aa1303e0 	mov	x0, x19
  1e000388b0:	97fff18a 	bl	1e00034ed8 <set_tmrs>
  1e000388b4:	528003e1 	mov	w1, #0x1f                  	// #31
  1e000388b8:	aa1303e0 	mov	x0, x19
  1e000388bc:	97fff066 	bl	1e00034a54 <icon_mrs>
  1e000388c0:	2a1403e1 	mov	w1, w20
  1e000388c4:	aa1303e0 	mov	x0, x19
  1e000388c8:	97fffedc 	bl	1e00038438 <hbm3_run_phy_training>
  1e000388cc:	2a0003f7 	mov	w23, w0
  1e000388d0:	7100081f 	cmp	w0, #0x2
  1e000388d4:	540003c1 	b.ne	1e0003894c <hbm3_init+0x408>  // b.any
  1e000388d8:	7100071f 	cmp	w24, #0x1
  1e000388dc:	54000260 	b.eq	1e00038928 <hbm3_init+0x3e4>  // b.none
  1e000388e0:	2a1403e0 	mov	w0, w20
  1e000388e4:	940009fb 	bl	1e0003b0d0 <pmu_reset_blk_dram>
  1e000388e8:	d2820281 	mov	x1, #0x1014                	// #4116
  1e000388ec:	d2bee000 	mov	x0, #0xf7000000            	// #4143972352
  1e000388f0:	f2a004a1 	movk	x1, #0x25, lsl #16
  1e000388f4:	f2c003e0 	movk	x0, #0x1f, lsl #32
  1e000388f8:	f2c003c1 	movk	x1, #0x1e, lsl #32
  1e000388fc:	8b149400 	add	x0, x0, x20, lsl #37
  1e00038900:	b9400021 	ldr	w1, [x1]
  1e00038904:	72080c3f 	tst	w1, #0xf000000
  1e00038908:	52800021 	mov	w1, #0x1                   	// #1
  1e0003890c:	540000a1 	b.ne	1e00038920 <hbm3_init+0x3dc>  // b.any
  1e00038910:	97ffeb16 	bl	1e00033568 <cmu_blk_dram_init_evt0_by_freq>
  1e00038914:	52800038 	mov	w24, #0x1                   	// #1
  1e00038918:	2a1803f9 	mov	w25, w24
  1e0003891c:	17ffff30 	b	1e000385dc <hbm3_init+0x98>
  1e00038920:	97ffeb1e 	bl	1e00033598 <cmu_blk_dram_init_evt1_by_freq>
  1e00038924:	17fffffc 	b	1e00038914 <hbm3_init+0x3d0>
  1e00038928:	2a1803e1 	mov	w1, w24
  1e0003892c:	b0000020 	adrp	x0, 1e0003d000 <CSWTCH.192+0x80c>
  1e00038930:	910e8800 	add	x0, x0, #0x3a2
  1e00038934:	97ffe520 	bl	1e00031db4 <tf_log>
  1e00038938:	2a1403e1 	mov	w1, w20
  1e0003893c:	b0000020 	adrp	x0, 1e0003d000 <CSWTCH.192+0x80c>
  1e00038940:	910f2800 	add	x0, x0, #0x3ca
  1e00038944:	97ffe51c 	bl	1e00031db4 <tf_log>
  1e00038948:	17ffffbc 	b	1e00038838 <hbm3_init+0x2f4>
  1e0003894c:	2a1403e1 	mov	w1, w20
  1e00038950:	37ffff60 	tbnz	w0, #31, 1e0003893c <hbm3_init+0x3f8>
  1e00038954:	b0000020 	adrp	x0, 1e0003d000 <CSWTCH.192+0x80c>
  1e00038958:	910fb400 	add	x0, x0, #0x3ed
  1e0003895c:	94000cac 	bl	1e0003bc0c <printf>
  1e00038960:	d2800000 	mov	x0, #0x0                   	// #0
  1e00038964:	f8607a62 	ldr	x2, [x19, x0, lsl #3]
  1e00038968:	91000400 	add	x0, x0, #0x1
  1e0003896c:	b940ac41 	ldr	w1, [x2, #172]
  1e00038970:	321f0c21 	orr	w1, w1, #0x1e
  1e00038974:	b900ac41 	str	w1, [x2, #172]
  1e00038978:	f100401f 	cmp	x0, #0x10
  1e0003897c:	54ffff41 	b.ne	1e00038964 <hbm3_init+0x420>  // b.any
  1e00038980:	f9408260 	ldr	x0, [x19, #256]
  1e00038984:	52800017 	mov	w23, #0x0                   	// #0
  1e00038988:	b9452001 	ldr	w1, [x0, #1312]
  1e0003898c:	321d0021 	orr	w1, w1, #0x8
  1e00038990:	b9052001 	str	w1, [x0, #1312]
  1e00038994:	b9452001 	ldr	w1, [x0, #1312]
  1e00038998:	32000021 	orr	w1, w1, #0x1
  1e0003899c:	b9052001 	str	w1, [x0, #1312]
  1e000389a0:	b9400001 	ldr	w1, [x0]
  1e000389a4:	32000021 	orr	w1, w1, #0x1
  1e000389a8:	b9000001 	str	w1, [x0]
  1e000389ac:	aa1303e0 	mov	x0, x19
  1e000389b0:	52800021 	mov	w1, #0x1                   	// #1
  1e000389b4:	97ffef72 	bl	1e0003477c <enable_hashing>
  1e000389b8:	17ffffa0 	b	1e00038838 <hbm3_init+0x2f4>

0000001e000389bc <is_valid_dev>:
  1e000389bc:	b4000180 	cbz	x0, 1e000389ec <is_valid_dev+0x30>
  1e000389c0:	f9400000 	ldr	x0, [x0]
  1e000389c4:	b4000140 	cbz	x0, 1e000389ec <is_valid_dev+0x30>
  1e000389c8:	f9400000 	ldr	x0, [x0]
  1e000389cc:	b4000100 	cbz	x0, 1e000389ec <is_valid_dev+0x30>
  1e000389d0:	a9bf7bfd 	stp	x29, x30, [sp, #-16]!
  1e000389d4:	910003fd 	mov	x29, sp
  1e000389d8:	d63f0000 	blr	x0
  1e000389dc:	71001c1f 	cmp	w0, #0x7
  1e000389e0:	1a9f87e0 	cset	w0, ls	// ls = plast
  1e000389e4:	a8c17bfd 	ldp	x29, x30, [sp], #16
  1e000389e8:	d65f03c0 	ret
  1e000389ec:	52800000 	mov	w0, #0x0                   	// #0
  1e000389f0:	d65f03c0 	ret

0000001e000389f4 <is_valid_entity>:
  1e000389f4:	b4000120 	cbz	x0, 1e00038a18 <is_valid_entity+0x24>
  1e000389f8:	a9bf7bfd 	stp	x29, x30, [sp, #-16]!
  1e000389fc:	910003fd 	mov	x29, sp
  1e00038a00:	f9400000 	ldr	x0, [x0]
  1e00038a04:	97ffffee 	bl	1e000389bc <is_valid_dev>
  1e00038a08:	12001c00 	and	w0, w0, #0xff
  1e00038a0c:	12000000 	and	w0, w0, #0x1
  1e00038a10:	a8c17bfd 	ldp	x29, x30, [sp], #16
  1e00038a14:	d65f03c0 	ret
  1e00038a18:	52800000 	mov	w0, #0x0                   	// #0
  1e00038a1c:	12000000 	and	w0, w0, #0x1
  1e00038a20:	d65f03c0 	ret

0000001e00038a24 <free_entity.isra.0>:
  1e00038a24:	b4000160 	cbz	x0, 1e00038a50 <free_entity.isra.0+0x2c>
  1e00038a28:	90000062 	adrp	x2, 1e00044000 <__STACKS_START__+0x3bc0>
  1e00038a2c:	91358042 	add	x2, x2, #0xd60
  1e00038a30:	d2800001 	mov	x1, #0x0                   	// #0
  1e00038a34:	f8617843 	ldr	x3, [x2, x1, lsl #3]
  1e00038a38:	eb03001f 	cmp	x0, x3
  1e00038a3c:	54000100 	b.eq	1e00038a5c <free_entity.isra.0+0x38>  // b.none
  1e00038a40:	91000421 	add	x1, x1, #0x1
  1e00038a44:	f100103f 	cmp	x1, #0x4
  1e00038a48:	54ffff61 	b.ne	1e00038a34 <free_entity.isra.0+0x10>  // b.any
  1e00038a4c:	d65f03c0 	ret
  1e00038a50:	a9bf7bfd 	stp	x29, x30, [sp, #-16]!
  1e00038a54:	910003fd 	mov	x29, sp
  1e00038a58:	94000aea 	bl	1e0003b600 <__assert>
  1e00038a5c:	f821585f 	str	xzr, [x2, w1, uxtw #3]
  1e00038a60:	b0000061 	adrp	x1, 1e00045000 <list+0x1e8>
  1e00038a64:	b945d020 	ldr	w0, [x1, #1488]
  1e00038a68:	51000400 	sub	w0, w0, #0x1
  1e00038a6c:	b905d020 	str	w0, [x1, #1488]
  1e00038a70:	d65f03c0 	ret

0000001e00038a74 <io_dev_close>:
  1e00038a74:	a9be7bfd 	stp	x29, x30, [sp, #-32]!
  1e00038a78:	910003fd 	mov	x29, sp
  1e00038a7c:	f9000bf3 	str	x19, [sp, #16]
  1e00038a80:	b5000040 	cbnz	x0, 1e00038a88 <io_dev_close+0x14>
  1e00038a84:	94000adf 	bl	1e0003b600 <__assert>
  1e00038a88:	aa0003f3 	mov	x19, x0
  1e00038a8c:	97ffffcc 	bl	1e000389bc <is_valid_dev>
  1e00038a90:	3607ffa0 	tbz	w0, #0, 1e00038a84 <io_dev_close+0x10>
  1e00038a94:	f9400260 	ldr	x0, [x19]
  1e00038a98:	f9402001 	ldr	x1, [x0, #64]
  1e00038a9c:	b40000c1 	cbz	x1, 1e00038ab4 <io_dev_close+0x40>
  1e00038aa0:	aa1303e0 	mov	x0, x19
  1e00038aa4:	aa0103f0 	mov	x16, x1
  1e00038aa8:	f9400bf3 	ldr	x19, [sp, #16]
  1e00038aac:	a8c27bfd 	ldp	x29, x30, [sp], #32
  1e00038ab0:	d61f0200 	br	x16
  1e00038ab4:	f9400bf3 	ldr	x19, [sp, #16]
  1e00038ab8:	52800000 	mov	w0, #0x0                   	// #0
  1e00038abc:	a8c27bfd 	ldp	x29, x30, [sp], #32
  1e00038ac0:	d65f03c0 	ret

0000001e00038ac4 <io_open>:
  1e00038ac4:	a9bc7bfd 	stp	x29, x30, [sp, #-64]!
  1e00038ac8:	f100003f 	cmp	x1, #0x0
  1e00038acc:	fa401844 	ccmp	x2, #0x0, #0x4, ne	// ne = any
  1e00038ad0:	910003fd 	mov	x29, sp
  1e00038ad4:	a90153f3 	stp	x19, x20, [sp, #16]
  1e00038ad8:	a9025bf5 	stp	x21, x22, [sp, #32]
  1e00038adc:	a90363f7 	stp	x23, x24, [sp, #48]
  1e00038ae0:	54000041 	b.ne	1e00038ae8 <io_open+0x24>  // b.any
  1e00038ae4:	94000ac7 	bl	1e0003b600 <__assert>
  1e00038ae8:	aa0003f5 	mov	x21, x0
  1e00038aec:	aa0103f4 	mov	x20, x1
  1e00038af0:	aa0203f6 	mov	x22, x2
  1e00038af4:	97ffffb2 	bl	1e000389bc <is_valid_dev>
  1e00038af8:	3607ff60 	tbz	w0, #0, 1e00038ae4 <io_open+0x20>
  1e00038afc:	b0000061 	adrp	x1, 1e00045000 <list+0x1e8>
  1e00038b00:	b945d020 	ldr	w0, [x1, #1488]
  1e00038b04:	71000c1f 	cmp	w0, #0x3
  1e00038b08:	540001a8 	b.hi	1e00038b3c <io_open+0x78>  // b.pmore
  1e00038b0c:	90000064 	adrp	x4, 1e00044000 <__STACKS_START__+0x3bc0>
  1e00038b10:	91358084 	add	x4, x4, #0xd60
  1e00038b14:	d2800003 	mov	x3, #0x0                   	// #0
  1e00038b18:	f8637882 	ldr	x2, [x4, x3, lsl #3]
  1e00038b1c:	b4000142 	cbz	x2, 1e00038b44 <io_open+0x80>
  1e00038b20:	91000463 	add	x3, x3, #0x1
  1e00038b24:	f100107f 	cmp	x3, #0x4
  1e00038b28:	54ffff81 	b.ne	1e00038b18 <io_open+0x54>  // b.any
  1e00038b2c:	17ffffee 	b	1e00038ae4 <io_open+0x20>
  1e00038b30:	aa1703e0 	mov	x0, x23
  1e00038b34:	97ffffbc 	bl	1e00038a24 <free_entity.isra.0>
  1e00038b38:	14000016 	b	1e00038b90 <io_open+0xcc>
  1e00038b3c:	12800174 	mov	w20, #0xfffffff4            	// #-12
  1e00038b40:	14000014 	b	1e00038b90 <io_open+0xcc>
  1e00038b44:	11000400 	add	w0, w0, #0x1
  1e00038b48:	b905d020 	str	w0, [x1, #1488]
  1e00038b4c:	f94002a0 	ldr	x0, [x21]
  1e00038b50:	2a0303f3 	mov	w19, w3
  1e00038b54:	90000078 	adrp	x24, 1e00044000 <__STACKS_START__+0x3bc0>
  1e00038b58:	91360318 	add	x24, x24, #0xd80
  1e00038b5c:	8b031317 	add	x23, x24, x3, lsl #4
  1e00038b60:	f9400403 	ldr	x3, [x0, #8]
  1e00038b64:	f8337897 	str	x23, [x4, x19, lsl #3]
  1e00038b68:	b4fffbe3 	cbz	x3, 1e00038ae4 <io_open+0x20>
  1e00038b6c:	aa1403e1 	mov	x1, x20
  1e00038b70:	aa1703e2 	mov	x2, x23
  1e00038b74:	aa1503e0 	mov	x0, x21
  1e00038b78:	d63f0060 	blr	x3
  1e00038b7c:	2a0003f4 	mov	w20, w0
  1e00038b80:	35fffd80 	cbnz	w0, 1e00038b30 <io_open+0x6c>
  1e00038b84:	d37cee63 	lsl	x3, x19, #4
  1e00038b88:	f8236b15 	str	x21, [x24, x3]
  1e00038b8c:	f90002d7 	str	x23, [x22]
  1e00038b90:	a9425bf5 	ldp	x21, x22, [sp, #32]
  1e00038b94:	2a1403e0 	mov	w0, w20
  1e00038b98:	a94153f3 	ldp	x19, x20, [sp, #16]
  1e00038b9c:	a94363f7 	ldp	x23, x24, [sp, #48]
  1e00038ba0:	a8c47bfd 	ldp	x29, x30, [sp], #64
  1e00038ba4:	d65f03c0 	ret

0000001e00038ba8 <io_size>:
  1e00038ba8:	a9be7bfd 	stp	x29, x30, [sp, #-32]!
  1e00038bac:	910003fd 	mov	x29, sp
  1e00038bb0:	a90153f3 	stp	x19, x20, [sp, #16]
  1e00038bb4:	aa0003f3 	mov	x19, x0
  1e00038bb8:	aa0103f4 	mov	x20, x1
  1e00038bbc:	97ffff8e 	bl	1e000389f4 <is_valid_entity>
  1e00038bc0:	36000040 	tbz	w0, #0, 1e00038bc8 <io_size+0x20>
  1e00038bc4:	b5000054 	cbnz	x20, 1e00038bcc <io_size+0x24>
  1e00038bc8:	94000a8e 	bl	1e0003b600 <__assert>
  1e00038bcc:	f9400260 	ldr	x0, [x19]
  1e00038bd0:	f9400000 	ldr	x0, [x0]
  1e00038bd4:	f9400c02 	ldr	x2, [x0, #24]
  1e00038bd8:	b40000e2 	cbz	x2, 1e00038bf4 <io_size+0x4c>
  1e00038bdc:	aa1403e1 	mov	x1, x20
  1e00038be0:	aa1303e0 	mov	x0, x19
  1e00038be4:	a94153f3 	ldp	x19, x20, [sp, #16]
  1e00038be8:	aa0203f0 	mov	x16, x2
  1e00038bec:	a8c27bfd 	ldp	x29, x30, [sp], #32
  1e00038bf0:	d61f0200 	br	x16
  1e00038bf4:	a94153f3 	ldp	x19, x20, [sp, #16]
  1e00038bf8:	12800240 	mov	w0, #0xffffffed            	// #-19
  1e00038bfc:	a8c27bfd 	ldp	x29, x30, [sp], #32
  1e00038c00:	d65f03c0 	ret

0000001e00038c04 <io_read>:
  1e00038c04:	a9bd7bfd 	stp	x29, x30, [sp, #-48]!
  1e00038c08:	910003fd 	mov	x29, sp
  1e00038c0c:	a90153f3 	stp	x19, x20, [sp, #16]
  1e00038c10:	aa0003f3 	mov	x19, x0
  1e00038c14:	aa0103f4 	mov	x20, x1
  1e00038c18:	a9025bf5 	stp	x21, x22, [sp, #32]
  1e00038c1c:	aa0203f5 	mov	x21, x2
  1e00038c20:	aa0303f6 	mov	x22, x3
  1e00038c24:	97ffff74 	bl	1e000389f4 <is_valid_entity>
  1e00038c28:	37000040 	tbnz	w0, #0, 1e00038c30 <io_read+0x2c>
  1e00038c2c:	94000a75 	bl	1e0003b600 <__assert>
  1e00038c30:	f9400260 	ldr	x0, [x19]
  1e00038c34:	f9400000 	ldr	x0, [x0]
  1e00038c38:	f9401004 	ldr	x4, [x0, #32]
  1e00038c3c:	b4000144 	cbz	x4, 1e00038c64 <io_read+0x60>
  1e00038c40:	aa1603e3 	mov	x3, x22
  1e00038c44:	aa1503e2 	mov	x2, x21
  1e00038c48:	a9425bf5 	ldp	x21, x22, [sp, #32]
  1e00038c4c:	aa1403e1 	mov	x1, x20
  1e00038c50:	aa1303e0 	mov	x0, x19
  1e00038c54:	aa0403f0 	mov	x16, x4
  1e00038c58:	a94153f3 	ldp	x19, x20, [sp, #16]
  1e00038c5c:	a8c37bfd 	ldp	x29, x30, [sp], #48
  1e00038c60:	d61f0200 	br	x16
  1e00038c64:	a94153f3 	ldp	x19, x20, [sp, #16]
  1e00038c68:	12800240 	mov	w0, #0xffffffed            	// #-19
  1e00038c6c:	a9425bf5 	ldp	x21, x22, [sp, #32]
  1e00038c70:	a8c37bfd 	ldp	x29, x30, [sp], #48
  1e00038c74:	d65f03c0 	ret

0000001e00038c78 <io_close>:
  1e00038c78:	a9be7bfd 	stp	x29, x30, [sp, #-32]!
  1e00038c7c:	910003fd 	mov	x29, sp
  1e00038c80:	a90153f3 	stp	x19, x20, [sp, #16]
  1e00038c84:	aa0003f3 	mov	x19, x0
  1e00038c88:	97ffff5b 	bl	1e000389f4 <is_valid_entity>
  1e00038c8c:	37000040 	tbnz	w0, #0, 1e00038c94 <io_close+0x1c>
  1e00038c90:	94000a5c 	bl	1e0003b600 <__assert>
  1e00038c94:	f9400260 	ldr	x0, [x19]
  1e00038c98:	f9400000 	ldr	x0, [x0]
  1e00038c9c:	f9401801 	ldr	x1, [x0, #48]
  1e00038ca0:	b4000141 	cbz	x1, 1e00038cc8 <io_close+0x50>
  1e00038ca4:	aa1303e0 	mov	x0, x19
  1e00038ca8:	d63f0020 	blr	x1
  1e00038cac:	2a0003f4 	mov	w20, w0
  1e00038cb0:	aa1303e0 	mov	x0, x19
  1e00038cb4:	97ffff5c 	bl	1e00038a24 <free_entity.isra.0>
  1e00038cb8:	2a1403e0 	mov	w0, w20
  1e00038cbc:	a94153f3 	ldp	x19, x20, [sp, #16]
  1e00038cc0:	a8c27bfd 	ldp	x29, x30, [sp], #32
  1e00038cc4:	d65f03c0 	ret
  1e00038cc8:	52800014 	mov	w20, #0x0                   	// #0
  1e00038ccc:	17fffff9 	b	1e00038cb0 <io_close+0x38>

0000001e00038cd0 <ipm_samsung_write>:
  1e00038cd0:	7100141f 	cmp	w0, #0x5
  1e00038cd4:	54000328 	b.hi	1e00038d38 <ipm_samsung_write+0x68>  // b.pmore
  1e00038cd8:	51000463 	sub	w3, w3, #0x1
  1e00038cdc:	52800081 	mov	w1, #0x4                   	// #4
  1e00038ce0:	93407c00 	sxtw	x0, w0
  1e00038ce4:	d2800505 	mov	x5, #0x28                  	// #40
  1e00038ce8:	1ac10c63 	sdiv	w3, w3, w1
  1e00038cec:	90000021 	adrp	x1, 1e0003c000 <vsnprintf+0x270>
  1e00038cf0:	91106021 	add	x1, x1, #0x418
  1e00038cf4:	9b050400 	madd	x0, x0, x5, x1
  1e00038cf8:	11000463 	add	w3, w3, #0x1
  1e00038cfc:	f9400401 	ldr	x1, [x0, #8]
  1e00038d00:	d2800000 	mov	x0, #0x0                   	// #0
  1e00038d04:	8b24c821 	add	x1, x1, w4, sxtw #2
  1e00038d08:	91020021 	add	x1, x1, #0x80
  1e00038d0c:	6b00007f 	cmp	w3, w0
  1e00038d10:	54000068 	b.hi	1e00038d1c <ipm_samsung_write+0x4c>  // b.pmore
  1e00038d14:	531e7400 	lsl	w0, w0, #2
  1e00038d18:	d65f03c0 	ret
  1e00038d1c:	0b000085 	add	w5, w4, w0
  1e00038d20:	7100fcbf 	cmp	w5, #0x3f
  1e00038d24:	540000e8 	b.hi	1e00038d40 <ipm_samsung_write+0x70>  // b.pmore
  1e00038d28:	b8607845 	ldr	w5, [x2, x0, lsl #2]
  1e00038d2c:	91000400 	add	x0, x0, #0x1
  1e00038d30:	b8004425 	str	w5, [x1], #4
  1e00038d34:	17fffff6 	b	1e00038d0c <ipm_samsung_write+0x3c>
  1e00038d38:	12800240 	mov	w0, #0xffffffed            	// #-19
  1e00038d3c:	17fffff7 	b	1e00038d18 <ipm_samsung_write+0x48>
  1e00038d40:	128006c0 	mov	w0, #0xffffffc9            	// #-55
  1e00038d44:	17fffff5 	b	1e00038d18 <ipm_samsung_write+0x48>

0000001e00038d48 <ipm_samsung_send>:
  1e00038d48:	7100141f 	cmp	w0, #0x5
  1e00038d4c:	54000208 	b.hi	1e00038d8c <ipm_samsung_send+0x44>  // b.pmore
  1e00038d50:	93407c00 	sxtw	x0, w0
  1e00038d54:	90000021 	adrp	x1, 1e0003c000 <vsnprintf+0x270>
  1e00038d58:	91106021 	add	x1, x1, #0x418
  1e00038d5c:	d2800504 	mov	x4, #0x28                  	// #40
  1e00038d60:	7100007f 	cmp	w3, #0x0
  1e00038d64:	9b040400 	madd	x0, x0, x4, x1
  1e00038d68:	f9400400 	ldr	x0, [x0, #8]
  1e00038d6c:	91002001 	add	x1, x0, #0x8
  1e00038d70:	91007000 	add	x0, x0, #0x1c
  1e00038d74:	9a811000 	csel	x0, x0, x1, ne	// ne = any
  1e00038d78:	d2800021 	mov	x1, #0x1                   	// #1
  1e00038d7c:	9ac22022 	lsl	x2, x1, x2
  1e00038d80:	b9000002 	str	w2, [x0]
  1e00038d84:	52800000 	mov	w0, #0x0                   	// #0
  1e00038d88:	d65f03c0 	ret
  1e00038d8c:	12800240 	mov	w0, #0xffffffed            	// #-19
  1e00038d90:	17fffffe 	b	1e00038d88 <ipm_samsung_send+0x40>

0000001e00038d94 <parse_gpt_entry>:
  1e00038d94:	a9be7bfd 	stp	x29, x30, [sp, #-32]!
  1e00038d98:	f100001f 	cmp	x0, #0x0
  1e00038d9c:	fa401824 	ccmp	x1, #0x0, #0x4, ne	// ne = any
  1e00038da0:	910003fd 	mov	x29, sp
  1e00038da4:	a90153f3 	stp	x19, x20, [sp, #16]
  1e00038da8:	54000041 	b.ne	1e00038db0 <parse_gpt_entry+0x1c>  // b.any
  1e00038dac:	94000a15 	bl	1e0003b600 <__assert>
  1e00038db0:	aa0003f3 	mov	x19, x0
  1e00038db4:	aa0103f4 	mov	x20, x1
  1e00038db8:	f9401000 	ldr	x0, [x0, #32]
  1e00038dbc:	b5000140 	cbnz	x0, 1e00038de4 <parse_gpt_entry+0x50>
  1e00038dc0:	f9401660 	ldr	x0, [x19, #40]
  1e00038dc4:	b5000100 	cbnz	x0, 1e00038de4 <parse_gpt_entry+0x50>
  1e00038dc8:	b0000020 	adrp	x0, 1e0003d000 <CSWTCH.192+0x80c>
  1e00038dcc:	91103000 	add	x0, x0, #0x40c
  1e00038dd0:	97ffe3f9 	bl	1e00031db4 <tf_log>
  1e00038dd4:	12800000 	mov	w0, #0xffffffff            	// #-1
  1e00038dd8:	a94153f3 	ldp	x19, x20, [sp, #16]
  1e00038ddc:	a8c27bfd 	ldp	x29, x30, [sp], #32
  1e00038de0:	d65f03c0 	ret
  1e00038de4:	aa1403e0 	mov	x0, x20
  1e00038de8:	d2800b01 	mov	x1, #0x58                  	// #88
  1e00038dec:	94000984 	bl	1e0003b3fc <zeromem>
  1e00038df0:	3940e260 	ldrb	w0, [x19, #56]
  1e00038df4:	34fffdc0 	cbz	w0, 1e00038dac <parse_gpt_entry+0x18>
  1e00038df8:	9100e660 	add	x0, x19, #0x39
  1e00038dfc:	91020661 	add	x1, x19, #0x81
  1e00038e00:	39400002 	ldrb	w2, [x0]
  1e00038e04:	35000402 	cbnz	w2, 1e00038e84 <parse_gpt_entry+0xf0>
  1e00038e08:	91000800 	add	x0, x0, #0x2
  1e00038e0c:	eb01001f 	cmp	x0, x1
  1e00038e10:	54ffff81 	b.ne	1e00038e00 <parse_gpt_entry+0x6c>  // b.any
  1e00038e14:	91004282 	add	x2, x20, #0x10
  1e00038e18:	9100e263 	add	x3, x19, #0x38
  1e00038e1c:	d2800000 	mov	x0, #0x0                   	// #0
  1e00038e20:	13017c04 	asr	w4, w0, #1
  1e00038e24:	38606861 	ldrb	w1, [x3, x0]
  1e00038e28:	3824c841 	strb	w1, [x2, w4, sxtw]
  1e00038e2c:	34000081 	cbz	w1, 1e00038e3c <parse_gpt_entry+0xa8>
  1e00038e30:	91000800 	add	x0, x0, #0x2
  1e00038e34:	f101201f 	cmp	x0, #0x48
  1e00038e38:	54ffff41 	b.ne	1e00038e20 <parse_gpt_entry+0x8c>  // b.any
  1e00038e3c:	f9401261 	ldr	x1, [x19, #32]
  1e00038e40:	d2800202 	mov	x2, #0x10                  	// #16
  1e00038e44:	d377d820 	lsl	x0, x1, #9
  1e00038e48:	f9000280 	str	x0, [x20]
  1e00038e4c:	f9401660 	ldr	x0, [x19, #40]
  1e00038e50:	91000400 	add	x0, x0, #0x1
  1e00038e54:	cb010000 	sub	x0, x0, x1
  1e00038e58:	8b020261 	add	x1, x19, x2
  1e00038e5c:	d377d800 	lsl	x0, x0, #9
  1e00038e60:	f9000680 	str	x0, [x20, #8]
  1e00038e64:	9100d280 	add	x0, x20, #0x34
  1e00038e68:	940009ed 	bl	1e0003b61c <memcpy>
  1e00038e6c:	aa1303e1 	mov	x1, x19
  1e00038e70:	91011280 	add	x0, x20, #0x44
  1e00038e74:	d2800202 	mov	x2, #0x10                  	// #16
  1e00038e78:	940009e9 	bl	1e0003b61c <memcpy>
  1e00038e7c:	52800000 	mov	w0, #0x0                   	// #0
  1e00038e80:	17ffffd6 	b	1e00038dd8 <parse_gpt_entry+0x44>
  1e00038e84:	b0000020 	adrp	x0, 1e0003d000 <CSWTCH.192+0x80c>
  1e00038e88:	9110ac00 	add	x0, x0, #0x42b
  1e00038e8c:	97ffe3ca 	bl	1e00031db4 <tf_log>
  1e00038e90:	128002a0 	mov	w0, #0xffffffea            	// #-22
  1e00038e94:	17ffffd1 	b	1e00038dd8 <parse_gpt_entry+0x44>

0000001e00038e98 <gpt_32bit_memcpy>:
  1e00038e98:	d3428442 	ubfx	x2, x2, #2, #32
  1e00038e9c:	d2800003 	mov	x3, #0x0                   	// #0
  1e00038ea0:	eb03005f 	cmp	x2, x3
  1e00038ea4:	54000041 	b.ne	1e00038eac <gpt_32bit_memcpy+0x14>  // b.any
  1e00038ea8:	d65f03c0 	ret
  1e00038eac:	b8637824 	ldr	w4, [x1, x3, lsl #2]
  1e00038eb0:	b8237804 	str	w4, [x0, x3, lsl #2]
  1e00038eb4:	91000463 	add	x3, x3, #0x1
  1e00038eb8:	17fffffa 	b	1e00038ea0 <gpt_32bit_memcpy+0x8>

0000001e00038ebc <gpt_get_image_header>:
  1e00038ebc:	b2725be1 	mov	x1, #0x1fffffc000          	// #137438937088
  1e00038ec0:	d2800382 	mov	x2, #0x1c                  	// #28
  1e00038ec4:	f2b000e1 	movk	x1, #0x8007, lsl #16
  1e00038ec8:	b0000060 	adrp	x0, 1e00045000 <list+0x1e8>
  1e00038ecc:	91175000 	add	x0, x0, #0x5d4
  1e00038ed0:	17fffff2 	b	1e00038e98 <gpt_32bit_memcpy>

0000001e00038ed4 <gpt_set_gpt_image_addr>:
  1e00038ed4:	528dcca3 	mov	w3, #0x6e65                	// #28261
  1e00038ed8:	d2b01101 	mov	x1, #0x80880000            	// #2156396544
  1e00038edc:	72a00de3 	movk	w3, #0x6f, lsl #16
  1e00038ee0:	6b03001f 	cmp	w0, w3
  1e00038ee4:	90000060 	adrp	x0, 1e00044000 <__STACKS_START__+0x3bc0>
  1e00038ee8:	f2c003e1 	movk	x1, #0x1f, lsl #32
  1e00038eec:	d1600022 	sub	x2, x1, #0x800, lsl #12
  1e00038ef0:	9a821021 	csel	x1, x1, x2, ne	// ne = any
  1e00038ef4:	f906e001 	str	x1, [x0, #3520]
  1e00038ef8:	d65f03c0 	ret

0000001e00038efc <load_gpt_entry>:
  1e00038efc:	a9bf7bfd 	stp	x29, x30, [sp, #-16]!
  1e00038f00:	90000062 	adrp	x2, 1e00044000 <__STACKS_START__+0x3bc0>
  1e00038f04:	910003fd 	mov	x29, sp
  1e00038f08:	f946e043 	ldr	x3, [x2, #3520]
  1e00038f0c:	d2801002 	mov	x2, #0x80                  	// #128
  1e00038f10:	8b030021 	add	x1, x1, x3
  1e00038f14:	97ffffe1 	bl	1e00038e98 <gpt_32bit_memcpy>
  1e00038f18:	52800000 	mov	w0, #0x0                   	// #0
  1e00038f1c:	a8c17bfd 	ldp	x29, x30, [sp], #16
  1e00038f20:	d65f03c0 	ret

0000001e00038f24 <load_partition_gpt>:
  1e00038f24:	a9b47bfd 	stp	x29, x30, [sp, #-192]!
  1e00038f28:	910003fd 	mov	x29, sp
  1e00038f2c:	a90153f3 	stp	x19, x20, [sp, #16]
  1e00038f30:	90000073 	adrp	x19, 1e00044000 <__STACKS_START__+0x3bc0>
  1e00038f34:	91386273 	add	x19, x19, #0xe18
  1e00038f38:	a9025bf5 	stp	x21, x22, [sp, #32]
  1e00038f3c:	d377d816 	lsl	x22, x0, #9
  1e00038f40:	52800015 	mov	w21, #0x0                   	// #0
  1e00038f44:	f9001bf7 	str	x23, [sp, #48]
  1e00038f48:	aa1303f7 	mov	x23, x19
  1e00038f4c:	aa1603e1 	mov	x1, x22
  1e00038f50:	910103e0 	add	x0, sp, #0x40
  1e00038f54:	97ffffea 	bl	1e00038efc <load_gpt_entry>
  1e00038f58:	2a0003f4 	mov	w20, w0
  1e00038f5c:	34000140 	cbz	w0, 1e00038f84 <load_partition_gpt+0x60>
  1e00038f60:	b0000020 	adrp	x0, 1e0003d000 <CSWTCH.192+0x80c>
  1e00038f64:	91112800 	add	x0, x0, #0x44a
  1e00038f68:	97ffe393 	bl	1e00031db4 <tf_log>
  1e00038f6c:	a9425bf5 	ldp	x21, x22, [sp, #32]
  1e00038f70:	2a1403e0 	mov	w0, w20
  1e00038f74:	a94153f3 	ldp	x19, x20, [sp, #16]
  1e00038f78:	f9401bf7 	ldr	x23, [sp, #48]
  1e00038f7c:	a8cc7bfd 	ldp	x29, x30, [sp], #192
  1e00038f80:	d65f03c0 	ret
  1e00038f84:	aa1303e1 	mov	x1, x19
  1e00038f88:	910103e0 	add	x0, sp, #0x40
  1e00038f8c:	97ffff82 	bl	1e00038d94 <parse_gpt_entry>
  1e00038f90:	34000140 	cbz	w0, 1e00038fb8 <load_partition_gpt+0x94>
  1e00038f94:	b0000020 	adrp	x0, 1e0003d000 <CSWTCH.192+0x80c>
  1e00038f98:	9111a800 	add	x0, x0, #0x46a
  1e00038f9c:	97ffe386 	bl	1e00031db4 <tf_log>
  1e00038fa0:	35000175 	cbnz	w21, 1e00038fcc <load_partition_gpt+0xa8>
  1e00038fa4:	b0000020 	adrp	x0, 1e0003d000 <CSWTCH.192+0x80c>
  1e00038fa8:	12800014 	mov	w20, #0xffffffff            	// #-1
  1e00038fac:	91122c00 	add	x0, x0, #0x48b
  1e00038fb0:	97ffe381 	bl	1e00031db4 <tf_log>
  1e00038fb4:	17ffffee 	b	1e00038f6c <load_partition_gpt+0x48>
  1e00038fb8:	110006b5 	add	w21, w21, #0x1
  1e00038fbc:	910202d6 	add	x22, x22, #0x80
  1e00038fc0:	91016273 	add	x19, x19, #0x58
  1e00038fc4:	71002abf 	cmp	w21, #0xa
  1e00038fc8:	54fffc21 	b.ne	1e00038f4c <load_partition_gpt+0x28>  // b.any
  1e00038fcc:	b90372f5 	str	w21, [x23, #880]
  1e00038fd0:	17ffffe7 	b	1e00038f6c <load_partition_gpt+0x48>

0000001e00038fd4 <load_gpt_header>:
  1e00038fd4:	a9b87bfd 	stp	x29, x30, [sp, #-128]!
  1e00038fd8:	d2800b82 	mov	x2, #0x5c                  	// #92
  1e00038fdc:	910003fd 	mov	x29, sp
  1e00038fe0:	a90153f3 	stp	x19, x20, [sp, #16]
  1e00038fe4:	aa0103f3 	mov	x19, x1
  1e00038fe8:	90000061 	adrp	x1, 1e00044000 <__STACKS_START__+0x3bc0>
  1e00038fec:	f946e021 	ldr	x1, [x1, #3520]
  1e00038ff0:	8b010001 	add	x1, x0, x1
  1e00038ff4:	910083e0 	add	x0, sp, #0x20
  1e00038ff8:	97ffffa8 	bl	1e00038e98 <gpt_32bit_memcpy>
  1e00038ffc:	b94023e1 	ldr	w1, [sp, #32]
  1e00039000:	5288c8a0 	mov	w0, #0x4645                	// #17989
  1e00039004:	72a40920 	movk	w0, #0x2049, lsl #16
  1e00039008:	6b00003f 	cmp	w1, w0
  1e0003900c:	540000a0 	b.eq	1e00039020 <load_gpt_header+0x4c>  // b.none
  1e00039010:	12800000 	mov	w0, #0xffffffff            	// #-1
  1e00039014:	a94153f3 	ldp	x19, x20, [sp, #16]
  1e00039018:	a8c87bfd 	ldp	x29, x30, [sp], #128
  1e0003901c:	d65f03c0 	ret
  1e00039020:	b94027e1 	ldr	w1, [sp, #36]
  1e00039024:	52882a00 	mov	w0, #0x4150                	// #16720
  1e00039028:	72aa8a40 	movk	w0, #0x5452, lsl #16
  1e0003902c:	6b00003f 	cmp	w1, w0
  1e00039030:	54ffff01 	b.ne	1e00039010 <load_gpt_header+0x3c>  // b.any
  1e00039034:	b94033f4 	ldr	w20, [sp, #48]
  1e00039038:	910083e1 	add	x1, sp, #0x20
  1e0003903c:	d2800b82 	mov	x2, #0x5c                  	// #92
  1e00039040:	52800000 	mov	w0, #0x0                   	// #0
  1e00039044:	b90033ff 	str	wzr, [sp, #48]
  1e00039048:	97ffe34d 	bl	1e00031d7c <tf_crc32>
  1e0003904c:	6b00029f 	cmp	w20, w0
  1e00039050:	54fffe01 	b.ne	1e00039010 <load_gpt_header+0x3c>  // b.any
  1e00039054:	b94073e0 	ldr	w0, [sp, #112]
  1e00039058:	52800141 	mov	w1, #0xa                   	// #10
  1e0003905c:	7100281f 	cmp	w0, #0xa
  1e00039060:	1a81d000 	csel	w0, w0, w1, le
  1e00039064:	90000061 	adrp	x1, 1e00045000 <list+0x1e8>
  1e00039068:	b9018820 	str	w0, [x1, #392]
  1e0003906c:	f94037e0 	ldr	x0, [sp, #104]
  1e00039070:	f9000260 	str	x0, [x19]
  1e00039074:	52800000 	mov	w0, #0x0                   	// #0
  1e00039078:	17ffffe7 	b	1e00039014 <load_gpt_header+0x40>

0000001e0003907c <load_primary_gpt>:
  1e0003907c:	a9be7bfd 	stp	x29, x30, [sp, #-32]!
  1e00039080:	d3777c00 	ubfiz	x0, x0, #9, #32
  1e00039084:	910003fd 	mov	x29, sp
  1e00039088:	910063e1 	add	x1, sp, #0x18
  1e0003908c:	97ffffd2 	bl	1e00038fd4 <load_gpt_header>
  1e00039090:	350000a0 	cbnz	w0, 1e000390a4 <load_primary_gpt+0x28>
  1e00039094:	f9400fe0 	ldr	x0, [sp, #24]
  1e00039098:	b4000060 	cbz	x0, 1e000390a4 <load_primary_gpt+0x28>
  1e0003909c:	a8c27bfd 	ldp	x29, x30, [sp], #32
  1e000390a0:	17ffffa1 	b	1e00038f24 <load_partition_gpt>
  1e000390a4:	90000020 	adrp	x0, 1e0003d000 <CSWTCH.192+0x80c>
  1e000390a8:	9112b800 	add	x0, x0, #0x4ae
  1e000390ac:	97ffe342 	bl	1e00031db4 <tf_log>
  1e000390b0:	12800000 	mov	w0, #0xffffffff            	// #-1
  1e000390b4:	a8c27bfd 	ldp	x29, x30, [sp], #32
  1e000390b8:	d65f03c0 	ret

0000001e000390bc <load_mbr_header>:
  1e000390bc:	a9bf7bfd 	stp	x29, x30, [sp, #-16]!
  1e000390c0:	aa0003e6 	mov	x6, x0
  1e000390c4:	f0000040 	adrp	x0, 1e00044000 <__STACKS_START__+0x3bc0>
  1e000390c8:	910003fd 	mov	x29, sp
  1e000390cc:	f946e001 	ldr	x1, [x0, #3520]
  1e000390d0:	90000065 	adrp	x5, 1e00045000 <list+0x1e8>
  1e000390d4:	912560a5 	add	x5, x5, #0x958
  1e000390d8:	d2804002 	mov	x2, #0x200                 	// #512
  1e000390dc:	aa0503e0 	mov	x0, x5
  1e000390e0:	97ffff6e 	bl	1e00038e98 <gpt_32bit_memcpy>
  1e000390e4:	3947f8a0 	ldrb	w0, [x5, #510]
  1e000390e8:	7101541f 	cmp	w0, #0x55
  1e000390ec:	54000081 	b.ne	1e000390fc <load_mbr_header+0x40>  // b.any
  1e000390f0:	3947fca0 	ldrb	w0, [x5, #511]
  1e000390f4:	7102a81f 	cmp	w0, #0xaa
  1e000390f8:	540000e0 	b.eq	1e00039114 <load_mbr_header+0x58>  // b.none
  1e000390fc:	90000020 	adrp	x0, 1e0003d000 <CSWTCH.192+0x80c>
  1e00039100:	91137000 	add	x0, x0, #0x4dc
  1e00039104:	97ffe32c 	bl	1e00031db4 <tf_log>
  1e00039108:	12800000 	mov	w0, #0xffffffff            	// #-1
  1e0003910c:	a8c17bfd 	ldp	x29, x30, [sp], #16
  1e00039110:	d65f03c0 	ret
  1e00039114:	394718a1 	ldrb	w1, [x5, #454]
  1e00039118:	39471ca0 	ldrb	w0, [x5, #455]
  1e0003911c:	aa002020 	orr	x0, x1, x0, lsl #8
  1e00039120:	394720a1 	ldrb	w1, [x5, #456]
  1e00039124:	aa014001 	orr	x1, x0, x1, lsl #16
  1e00039128:	394724a0 	ldrb	w0, [x5, #457]
  1e0003912c:	aa006020 	orr	x0, x1, x0, lsl #24
  1e00039130:	7100041f 	cmp	w0, #0x1
  1e00039134:	54000080 	b.eq	1e00039144 <load_mbr_header+0x88>  // b.none
  1e00039138:	90000020 	adrp	x0, 1e0003d000 <CSWTCH.192+0x80c>
  1e0003913c:	9113fc00 	add	x0, x0, #0x4ff
  1e00039140:	17fffff1 	b	1e00039104 <load_mbr_header+0x48>
  1e00039144:	394728a2 	ldrb	w2, [x5, #458]
  1e00039148:	39472ca1 	ldrb	w1, [x5, #459]
  1e0003914c:	aa012041 	orr	x1, x2, x1, lsl #8
  1e00039150:	394730a2 	ldrb	w2, [x5, #460]
  1e00039154:	aa024022 	orr	x2, x1, x2, lsl #16
  1e00039158:	394734a1 	ldrb	w1, [x5, #461]
  1e0003915c:	aa016041 	orr	x1, x2, x1, lsl #24
  1e00039160:	51000421 	sub	w1, w1, #0x1
  1e00039164:	31000c3f 	cmn	w1, #0x3
  1e00039168:	54000089 	b.ls	1e00039178 <load_mbr_header+0xbc>  // b.plast
  1e0003916c:	90000020 	adrp	x0, 1e0003d000 <CSWTCH.192+0x80c>
  1e00039170:	9114c000 	add	x0, x0, #0x530
  1e00039174:	17ffffe4 	b	1e00039104 <load_mbr_header+0x48>
  1e00039178:	394708a1 	ldrb	w1, [x5, #450]
  1e0003917c:	390010c1 	strb	w1, [x6, #4]
  1e00039180:	b90008c0 	str	w0, [x6, #8]
  1e00039184:	52800000 	mov	w0, #0x0                   	// #0
  1e00039188:	17ffffe1 	b	1e0003910c <load_mbr_header+0x50>

0000001e0003918c <load_partition_table>:
  1e0003918c:	a9bd7bfd 	stp	x29, x30, [sp, #-48]!
  1e00039190:	910003fd 	mov	x29, sp
  1e00039194:	910083e0 	add	x0, sp, #0x20
  1e00039198:	f9000bf3 	str	x19, [sp, #16]
  1e0003919c:	97ffffc8 	bl	1e000390bc <load_mbr_header>
  1e000391a0:	34000140 	cbz	w0, 1e000391c8 <load_partition_table+0x3c>
  1e000391a4:	2a0003f3 	mov	w19, w0
  1e000391a8:	2a0003e1 	mov	w1, w0
  1e000391ac:	90000020 	adrp	x0, 1e0003d000 <CSWTCH.192+0x80c>
  1e000391b0:	9115a800 	add	x0, x0, #0x56a
  1e000391b4:	97ffe300 	bl	1e00031db4 <tf_log>
  1e000391b8:	2a1303e0 	mov	w0, w19
  1e000391bc:	f9400bf3 	ldr	x19, [sp, #16]
  1e000391c0:	a8c37bfd 	ldp	x29, x30, [sp], #48
  1e000391c4:	d65f03c0 	ret
  1e000391c8:	394093e0 	ldrb	w0, [sp, #36]
  1e000391cc:	7103b81f 	cmp	w0, #0xee
  1e000391d0:	54000121 	b.ne	1e000391f4 <load_partition_table+0x68>  // b.any
  1e000391d4:	b9402be0 	ldr	w0, [sp, #40]
  1e000391d8:	97ffffa9 	bl	1e0003907c <load_primary_gpt>
  1e000391dc:	2a0003f3 	mov	w19, w0
  1e000391e0:	34fffec0 	cbz	w0, 1e000391b8 <load_partition_table+0x2c>
  1e000391e4:	2a0003e1 	mov	w1, w0
  1e000391e8:	90000020 	adrp	x0, 1e0003d000 <CSWTCH.192+0x80c>
  1e000391ec:	91165400 	add	x0, x0, #0x595
  1e000391f0:	17fffff1 	b	1e000391b4 <load_partition_table+0x28>
  1e000391f4:	12800013 	mov	w19, #0xffffffff            	// #-1
  1e000391f8:	17fffff0 	b	1e000391b8 <load_partition_table+0x2c>

0000001e000391fc <gpt_load_binary_length>:
  1e000391fc:	f0000040 	adrp	x0, 1e00044000 <__STACKS_START__+0x3bc0>
  1e00039200:	f0000041 	adrp	x1, 1e00044000 <__STACKS_START__+0x3bc0>
  1e00039204:	f0000042 	adrp	x2, 1e00044000 <__STACKS_START__+0x3bc0>
  1e00039208:	91372021 	add	x1, x1, #0xdc8
  1e0003920c:	91386042 	add	x2, x2, #0xe18
  1e00039210:	d2800b05 	mov	x5, #0x58                  	// #88
  1e00039214:	f946e004 	ldr	x4, [x0, #3520]
  1e00039218:	d2800000 	mov	x0, #0x0                   	// #0
  1e0003921c:	9b057c03 	mul	x3, x0, x5
  1e00039220:	f8636843 	ldr	x3, [x2, x3]
  1e00039224:	b8646863 	ldr	w3, [x3, x4]
  1e00039228:	f8207823 	str	x3, [x1, x0, lsl #3]
  1e0003922c:	91000400 	add	x0, x0, #0x1
  1e00039230:	f100281f 	cmp	x0, #0xa
  1e00039234:	54ffff41 	b.ne	1e0003921c <gpt_load_binary_length+0x20>  // b.any
  1e00039238:	d65f03c0 	ret

0000001e0003923c <gpt_get_address_by_entry>:
  1e0003923c:	f0000041 	adrp	x1, 1e00044000 <__STACKS_START__+0x3bc0>
  1e00039240:	f946e022 	ldr	x2, [x1, #3520]
  1e00039244:	2a0003e1 	mov	w1, w0
  1e00039248:	d2800b00 	mov	x0, #0x58                  	// #88
  1e0003924c:	91004042 	add	x2, x2, #0x10
  1e00039250:	9b007c21 	mul	x1, x1, x0
  1e00039254:	f0000040 	adrp	x0, 1e00044000 <__STACKS_START__+0x3bc0>
  1e00039258:	91386000 	add	x0, x0, #0xe18
  1e0003925c:	f8616800 	ldr	x0, [x0, x1]
  1e00039260:	8b000040 	add	x0, x2, x0
  1e00039264:	d65f03c0 	ret

0000001e00039268 <gpt_get_length_by_entry>:
  1e00039268:	f0000041 	adrp	x1, 1e00044000 <__STACKS_START__+0x3bc0>
  1e0003926c:	91372021 	add	x1, x1, #0xdc8
  1e00039270:	f8605820 	ldr	x0, [x1, w0, uxtw #3]
  1e00039274:	d65f03c0 	ret

0000001e00039278 <gpt_partition_init>:
  1e00039278:	a9be7bfd 	stp	x29, x30, [sp, #-32]!
  1e0003927c:	90000020 	adrp	x0, 1e0003d000 <CSWTCH.192+0x80c>
  1e00039280:	91170400 	add	x0, x0, #0x5c1
  1e00039284:	910003fd 	mov	x29, sp
  1e00039288:	f9000bf3 	str	x19, [sp, #16]
  1e0003928c:	97ffe2ca 	bl	1e00031db4 <tf_log>
  1e00039290:	97ffff0b 	bl	1e00038ebc <gpt_get_image_header>
  1e00039294:	90000060 	adrp	x0, 1e00045000 <list+0x1e8>
  1e00039298:	b945d800 	ldr	w0, [x0, #1496]
  1e0003929c:	97ffff0e 	bl	1e00038ed4 <gpt_set_gpt_image_addr>
  1e000392a0:	97ffffbb 	bl	1e0003918c <load_partition_table>
  1e000392a4:	2a0003f3 	mov	w19, w0
  1e000392a8:	34000100 	cbz	w0, 1e000392c8 <gpt_partition_init+0x50>
  1e000392ac:	90000020 	adrp	x0, 1e0003d000 <CSWTCH.192+0x80c>
  1e000392b0:	91174000 	add	x0, x0, #0x5d0
  1e000392b4:	97ffe2c0 	bl	1e00031db4 <tf_log>
  1e000392b8:	2a1303e0 	mov	w0, w19
  1e000392bc:	f9400bf3 	ldr	x19, [sp, #16]
  1e000392c0:	a8c27bfd 	ldp	x29, x30, [sp], #32
  1e000392c4:	d65f03c0 	ret
  1e000392c8:	97ffffcd 	bl	1e000391fc <gpt_load_binary_length>
  1e000392cc:	17fffffb 	b	1e000392b8 <gpt_partition_init+0x40>

0000001e000392d0 <smmu_gen_pagetable>:
  1e000392d0:	a9411025 	ldp	x5, x4, [x1, #16]
  1e000392d4:	aa0003eb 	mov	x11, x0
  1e000392d8:	f9401020 	ldr	x0, [x1, #32]
  1e000392dc:	d2800006 	mov	x6, #0x0                   	// #0
  1e000392e0:	29401c23 	ldp	w3, w7, [x1]
  1e000392e4:	d2800002 	mov	x2, #0x0                   	// #0
  1e000392e8:	b9400828 	ldr	w8, [x1, #8]
  1e000392ec:	6b06007f 	cmp	w3, w6
  1e000392f0:	540012c8 	b.hi	1e00039548 <smmu_gen_pagetable+0x278>  // b.pmore
  1e000392f4:	d2800006 	mov	x6, #0x0                   	// #0
  1e000392f8:	6b0600ff 	cmp	w7, w6
  1e000392fc:	54001328 	b.hi	1e00039560 <smmu_gen_pagetable+0x290>  // b.pmore
  1e00039300:	34000128 	cbz	w8, 1e00039324 <smmu_gen_pagetable+0x54>
  1e00039304:	d2800006 	mov	x6, #0x0                   	// #0
  1e00039308:	d37be8c9 	lsl	x9, x6, #5
  1e0003930c:	910004c6 	add	x6, x6, #0x1
  1e00039310:	f8696809 	ldr	x9, [x0, x9]
  1e00039314:	eb09005f 	cmp	x2, x9
  1e00039318:	9a892042 	csel	x2, x2, x9, cs	// cs = hs, nlast
  1e0003931c:	6b06011f 	cmp	w8, w6
  1e00039320:	54ffff48 	b.hi	1e00039308 <smmu_gen_pagetable+0x38>  // b.pmore
  1e00039324:	d367fc42 	lsr	x2, x2, #39
  1e00039328:	90000069 	adrp	x9, 1e00045000 <list+0x1e8>
  1e0003932c:	91000442 	add	x2, x2, #0x1
  1e00039330:	91182129 	add	x9, x9, #0x608
  1e00039334:	d2800006 	mov	x6, #0x0                   	// #0
  1e00039338:	6b06007f 	cmp	w3, w6
  1e0003933c:	540011e8 	b.hi	1e00039578 <smmu_gen_pagetable+0x2a8>  // b.pmore
  1e00039340:	90000069 	adrp	x9, 1e00045000 <list+0x1e8>
  1e00039344:	91182129 	add	x9, x9, #0x608
  1e00039348:	d2800006 	mov	x6, #0x0                   	// #0
  1e0003934c:	6b0600ff 	cmp	w7, w6
  1e00039350:	54001208 	b.hi	1e00039590 <smmu_gen_pagetable+0x2c0>  // b.pmore
  1e00039354:	340000e8 	cbz	w8, 1e00039370 <smmu_gen_pagetable+0xa0>
  1e00039358:	0b070063 	add	w3, w3, w7
  1e0003935c:	90000066 	adrp	x6, 1e00045000 <list+0x1e8>
  1e00039360:	f9400007 	ldr	x7, [x0]
  1e00039364:	911820c6 	add	x6, x6, #0x608
  1e00039368:	d367bce7 	ubfx	x7, x7, #39, #9
  1e0003936c:	b82378c7 	str	w7, [x6, x3, lsl #2]
  1e00039370:	f9400086 	ldr	x6, [x4]
  1e00039374:	90000069 	adrp	x9, 1e00045000 <list+0x1e8>
  1e00039378:	b940042e 	ldr	w14, [x1, #4]
  1e0003937c:	9117d129 	add	x9, x9, #0x5f4
  1e00039380:	d2800003 	mov	x3, #0x0                   	// #0
  1e00039384:	52800008 	mov	w8, #0x0                   	// #0
  1e00039388:	d35e98c6 	ubfx	x6, x6, #30, #9
  1e0003938c:	6b0301df 	cmp	w14, w3
  1e00039390:	540010e8 	b.hi	1e000395ac <smmu_gen_pagetable+0x2dc>  // b.pmore
  1e00039394:	b940082f 	ldr	w15, [x1, #8]
  1e00039398:	3400006f 	cbz	w15, 1e000393a4 <smmu_gen_pagetable+0xd4>
  1e0003939c:	90000063 	adrp	x3, 1e00045000 <list+0x1e8>
  1e000393a0:	b905f07f 	str	wzr, [x3, #1520]
  1e000393a4:	b9400026 	ldr	w6, [x1]
  1e000393a8:	90000069 	adrp	x9, 1e00045000 <list+0x1e8>
  1e000393ac:	9000006a 	adrp	x10, 1e00045000 <list+0x1e8>
  1e000393b0:	2a0203ed 	mov	w13, w2
  1e000393b4:	0b0601e6 	add	w6, w15, w6
  1e000393b8:	91181129 	add	x9, x9, #0x604
  1e000393bc:	9107014a 	add	x10, x10, #0x1c0
  1e000393c0:	9140056c 	add	x12, x11, #0x1, lsl #12
  1e000393c4:	0b0e00c6 	add	w6, w6, w14
  1e000393c8:	d2800003 	mov	x3, #0x0                   	// #0
  1e000393cc:	52800008 	mov	w8, #0x0                   	// #0
  1e000393d0:	d2800007 	mov	x7, #0x0                   	// #0
  1e000393d4:	6b0700df 	cmp	w6, w7
  1e000393d8:	54000129 	b.ls	1e000393fc <smmu_gen_pagetable+0x12c>  // b.plast
  1e000393dc:	910004e7 	add	x7, x7, #0x1
  1e000393e0:	b8677930 	ldr	w16, [x9, x7, lsl #2]
  1e000393e4:	6b03021f 	cmp	w16, w3
  1e000393e8:	54ffff61 	b.ne	1e000393d4 <smmu_gen_pagetable+0x104>  // b.any
  1e000393ec:	53144d07 	lsl	w7, w8, #12
  1e000393f0:	11000508 	add	w8, w8, #0x1
  1e000393f4:	8b070187 	add	x7, x12, x7
  1e000393f8:	f8237947 	str	x7, [x10, x3, lsl #3]
  1e000393fc:	91000463 	add	x3, x3, #0x1
  1e00039400:	6b0301bf 	cmp	w13, w3
  1e00039404:	54fffe68 	b.hi	1e000393d0 <smmu_gen_pagetable+0x100>  // b.pmore
  1e00039408:	51000442 	sub	w2, w2, #0x1
  1e0003940c:	90000067 	adrp	x7, 1e00045000 <list+0x1e8>
  1e00039410:	910700e7 	add	x7, x7, #0x1c0
  1e00039414:	90000066 	adrp	x6, 1e00045000 <list+0x1e8>
  1e00039418:	52800029 	mov	w9, #0x1                   	// #1
  1e0003941c:	aa0403e8 	mov	x8, x4
  1e00039420:	aa0403ec 	mov	x12, x4
  1e00039424:	910660d2 	add	x18, x6, #0x198
  1e00039428:	f86278e3 	ldr	x3, [x7, x2, lsl #3]
  1e0003942c:	2a0903e2 	mov	w2, w9
  1e00039430:	b24077f1 	mov	x17, #0x3fffffff            	// #1073741823
  1e00039434:	91400463 	add	x3, x3, #0x1, lsl #12
  1e00039438:	f900ccc3 	str	x3, [x6, #408]
  1e0003943c:	6b0201df 	cmp	w14, w2
  1e00039440:	54000c88 	b.hi	1e000395d0 <smmu_gen_pagetable+0x300>  // b.pmore
  1e00039444:	3500116f 	cbnz	w15, 1e00039670 <smmu_gen_pagetable+0x3a0>
  1e00039448:	d2800002 	mov	x2, #0x0                   	// #0
  1e0003944c:	f86278e3 	ldr	x3, [x7, x2, lsl #3]
  1e00039450:	b4000063 	cbz	x3, 1e0003945c <smmu_gen_pagetable+0x18c>
  1e00039454:	b2400463 	orr	x3, x3, #0x3
  1e00039458:	f8227963 	str	x3, [x11, x2, lsl #3]
  1e0003945c:	91000442 	add	x2, x2, #0x1
  1e00039460:	6b0201bf 	cmp	w13, w2
  1e00039464:	54ffff48 	b.hi	1e0003944c <smmu_gen_pagetable+0x17c>  // b.pmore
  1e00039468:	2940282c 	ldp	w12, w10, [x1]
  1e0003946c:	9000006d 	adrp	x13, 1e00045000 <list+0x1e8>
  1e00039470:	b9400829 	ldr	w9, [x1, #8]
  1e00039474:	911821ad 	add	x13, x13, #0x608
  1e00039478:	aa0503e2 	mov	x2, x5
  1e0003947c:	d280608f 	mov	x15, #0x304                 	// #772
  1e00039480:	d2800005 	mov	x5, #0x0                   	// #0
  1e00039484:	d2808030 	mov	x16, #0x401                 	// #1025
  1e00039488:	6b05019f 	cmp	w12, w5
  1e0003948c:	54001228 	b.hi	1e000396d0 <smmu_gen_pagetable+0x400>  // b.pmore
  1e00039490:	90000062 	adrp	x2, 1e00045000 <list+0x1e8>
  1e00039494:	90000063 	adrp	x3, 1e00045000 <list+0x1e8>
  1e00039498:	91182042 	add	x2, x2, #0x608
  1e0003949c:	9117d063 	add	x3, x3, #0x5f4
  1e000394a0:	910660cd 	add	x13, x6, #0x198
  1e000394a4:	d2800001 	mov	x1, #0x0                   	// #0
  1e000394a8:	6b01015f 	cmp	w10, w1
  1e000394ac:	54001188 	b.hi	1e000396dc <smmu_gen_pagetable+0x40c>  // b.pmore
  1e000394b0:	350012e9 	cbnz	w9, 1e0003970c <smmu_gen_pagetable+0x43c>
  1e000394b4:	90000067 	adrp	x7, 1e00045000 <list+0x1e8>
  1e000394b8:	910660cc 	add	x12, x6, #0x198
  1e000394bc:	9117d0e7 	add	x7, x7, #0x5f4
  1e000394c0:	d2800003 	mov	x3, #0x0                   	// #0
  1e000394c4:	d280608d 	mov	x13, #0x304                 	// #772
  1e000394c8:	d280802e 	mov	x14, #0x401                 	// #1025
  1e000394cc:	6b03015f 	cmp	w10, w3
  1e000394d0:	54001728 	b.hi	1e000397b4 <smmu_gen_pagetable+0x4e4>  // b.pmore
  1e000394d4:	340019e9 	cbz	w9, 1e00039810 <smmu_gen_pagetable+0x540>
  1e000394d8:	90000065 	adrp	x5, 1e00045000 <list+0x1e8>
  1e000394dc:	90000067 	adrp	x7, 1e00045000 <list+0x1e8>
  1e000394e0:	9117d0a5 	add	x5, x5, #0x5f4
  1e000394e4:	910660c6 	add	x6, x6, #0x198
  1e000394e8:	910640e7 	add	x7, x7, #0x190
  1e000394ec:	d2800001 	mov	x1, #0x0                   	// #0
  1e000394f0:	0b010142 	add	w2, w10, w1
  1e000394f4:	b86278a3 	ldr	w3, [x5, x2, lsl #2]
  1e000394f8:	d37be822 	lsl	x2, x1, #5
  1e000394fc:	f8626802 	ldr	x2, [x0, x2]
  1e00039500:	f86378c8 	ldr	x8, [x6, x3, lsl #3]
  1e00039504:	f86178e3 	ldr	x3, [x7, x1, lsl #3]
  1e00039508:	d3557442 	ubfx	x2, x2, #21, #9
  1e0003950c:	91000421 	add	x1, x1, #0x1
  1e00039510:	b2400463 	orr	x3, x3, #0x3
  1e00039514:	f8227903 	str	x3, [x8, x2, lsl #3]
  1e00039518:	6b01013f 	cmp	w9, w1
  1e0003951c:	54fffea8 	b.hi	1e000394f0 <smmu_gen_pagetable+0x220>  // b.pmore
  1e00039520:	90000068 	adrp	x8, 1e00045000 <list+0x1e8>
  1e00039524:	91006081 	add	x1, x4, #0x18
  1e00039528:	9117c108 	add	x8, x8, #0x5f0
  1e0003952c:	d2800003 	mov	x3, #0x0                   	// #0
  1e00039530:	d280608c 	mov	x12, #0x304                 	// #772
  1e00039534:	d280806d 	mov	x13, #0x403                 	// #1027
  1e00039538:	d37be86b 	lsl	x11, x3, #5
  1e0003953c:	8b03090a 	add	x10, x8, x3, lsl #2
  1e00039540:	52800005 	mov	w5, #0x0                   	// #0
  1e00039544:	140000ab 	b	1e000397f0 <smmu_gen_pagetable+0x520>
  1e00039548:	d37be8c9 	lsl	x9, x6, #5
  1e0003954c:	910004c6 	add	x6, x6, #0x1
  1e00039550:	f86968a9 	ldr	x9, [x5, x9]
  1e00039554:	eb09005f 	cmp	x2, x9
  1e00039558:	9a892042 	csel	x2, x2, x9, cs	// cs = hs, nlast
  1e0003955c:	17ffff64 	b	1e000392ec <smmu_gen_pagetable+0x1c>
  1e00039560:	d37be8c9 	lsl	x9, x6, #5
  1e00039564:	910004c6 	add	x6, x6, #0x1
  1e00039568:	f8696889 	ldr	x9, [x4, x9]
  1e0003956c:	eb09005f 	cmp	x2, x9
  1e00039570:	9a892042 	csel	x2, x2, x9, cs	// cs = hs, nlast
  1e00039574:	17ffff61 	b	1e000392f8 <smmu_gen_pagetable+0x28>
  1e00039578:	d37be8ca 	lsl	x10, x6, #5
  1e0003957c:	f86a68aa 	ldr	x10, [x5, x10]
  1e00039580:	d367bd4a 	ubfx	x10, x10, #39, #9
  1e00039584:	b826792a 	str	w10, [x9, x6, lsl #2]
  1e00039588:	910004c6 	add	x6, x6, #0x1
  1e0003958c:	17ffff6b 	b	1e00039338 <smmu_gen_pagetable+0x68>
  1e00039590:	d37be8ca 	lsl	x10, x6, #5
  1e00039594:	0b06006c 	add	w12, w3, w6
  1e00039598:	910004c6 	add	x6, x6, #0x1
  1e0003959c:	f86a688a 	ldr	x10, [x4, x10]
  1e000395a0:	d367bd4a 	ubfx	x10, x10, #39, #9
  1e000395a4:	b82c792a 	str	w10, [x9, x12, lsl #2]
  1e000395a8:	17ffff69 	b	1e0003934c <smmu_gen_pagetable+0x7c>
  1e000395ac:	d37be867 	lsl	x7, x3, #5
  1e000395b0:	f8676887 	ldr	x7, [x4, x7]
  1e000395b4:	d35e98e7 	ubfx	x7, x7, #30, #9
  1e000395b8:	6b0600ff 	cmp	w7, w6
  1e000395bc:	2a0703e6 	mov	w6, w7
  1e000395c0:	1a880508 	cinc	w8, w8, ne	// ne = any
  1e000395c4:	b8237928 	str	w8, [x9, x3, lsl #2]
  1e000395c8:	91000463 	add	x3, x3, #0x1
  1e000395cc:	17ffff70 	b	1e0003938c <smmu_gen_pagetable+0xbc>
  1e000395d0:	f9400190 	ldr	x16, [x12]
  1e000395d4:	f940118a 	ldr	x10, [x12, #32]
  1e000395d8:	92624610 	and	x16, x16, #0xffffc0000000
  1e000395dc:	9262454a 	and	x10, x10, #0xffffc0000000
  1e000395e0:	cb10014a 	sub	x10, x10, x16
  1e000395e4:	eb11015f 	cmp	x10, x17
  1e000395e8:	54000089 	b.ls	1e000395f8 <smmu_gen_pagetable+0x328>  // b.plast
  1e000395ec:	91400463 	add	x3, x3, #0x1, lsl #12
  1e000395f0:	f8295a43 	str	x3, [x18, w9, uxtw #3]
  1e000395f4:	11000529 	add	w9, w9, #0x1
  1e000395f8:	11000442 	add	w2, w2, #0x1
  1e000395fc:	9100818c 	add	x12, x12, #0x20
  1e00039600:	17ffff8f 	b	1e0003943c <smmu_gen_pagetable+0x16c>
  1e00039604:	d37be98a 	lsl	x10, x12, #5
  1e00039608:	9100058c 	add	x12, x12, #0x1
  1e0003960c:	f940000f 	ldr	x15, [x0]
  1e00039610:	f86a688a 	ldr	x10, [x4, x10]
  1e00039614:	926245ef 	and	x15, x15, #0xffffc0000000
  1e00039618:	9262454a 	and	x10, x10, #0xffffc0000000
  1e0003961c:	cb0f014a 	sub	x10, x10, x15
  1e00039620:	eb10015f 	cmp	x10, x16
  1e00039624:	1a829442 	cinc	w2, w2, hi	// hi = pmore
  1e00039628:	6b0c01df 	cmp	w14, w12
  1e0003962c:	54fffec8 	b.hi	1e00039604 <smmu_gen_pagetable+0x334>  // b.pmore
  1e00039630:	34000182 	cbz	w2, 1e00039660 <smmu_gen_pagetable+0x390>
  1e00039634:	910660c2 	add	x2, x6, #0x198
  1e00039638:	91400463 	add	x3, x3, #0x1, lsl #12
  1e0003963c:	f8295843 	str	x3, [x2, w9, uxtw #3]
  1e00039640:	d37e7dc2 	ubfiz	x2, x14, #2, #32
  1e00039644:	90000069 	adrp	x9, 1e00045000 <list+0x1e8>
  1e00039648:	9117c129 	add	x9, x9, #0x5f0
  1e0003964c:	b862692a 	ldr	w10, [x9, x2]
  1e00039650:	90000069 	adrp	x9, 1e00045000 <list+0x1e8>
  1e00039654:	9117d129 	add	x9, x9, #0x5f4
  1e00039658:	1100054a 	add	w10, w10, #0x1
  1e0003965c:	b822692a 	str	w10, [x9, x2]
  1e00039660:	90000062 	adrp	x2, 1e00045000 <list+0x1e8>
  1e00039664:	91400463 	add	x3, x3, #0x1, lsl #12
  1e00039668:	f900c843 	str	x3, [x2, #400]
  1e0003966c:	17ffff77 	b	1e00039448 <smmu_gen_pagetable+0x178>
  1e00039670:	d280000c 	mov	x12, #0x0                   	// #0
  1e00039674:	52800002 	mov	w2, #0x0                   	// #0
  1e00039678:	b24077f0 	mov	x16, #0x3fffffff            	// #1073741823
  1e0003967c:	17ffffeb 	b	1e00039628 <smmu_gen_pagetable+0x358>
  1e00039680:	b940022e 	ldr	w14, [x17]
  1e00039684:	1100056b 	add	w11, w11, #0x1
  1e00039688:	f86e78f2 	ldr	x18, [x7, x14, lsl #3]
  1e0003968c:	a9403841 	ldp	x1, x14, [x2]
  1e00039690:	8b037821 	add	x1, x1, x3, lsl #30
  1e00039694:	8b0379c3 	add	x3, x14, x3, lsl #30
  1e00039698:	f9400c4e 	ldr	x14, [x2, #24]
  1e0003969c:	d35e9821 	ubfx	x1, x1, #30, #9
  1e000396a0:	92624463 	and	x3, x3, #0xffffc0000000
  1e000396a4:	9b0f7dce 	mul	x14, x14, x15
  1e000396a8:	aa0e0063 	orr	x3, x3, x14
  1e000396ac:	aa100063 	orr	x3, x3, x16
  1e000396b0:	f8217a43 	str	x3, [x18, x1, lsl #3]
  1e000396b4:	f9400841 	ldr	x1, [x2, #16]
  1e000396b8:	2a0b03e3 	mov	w3, w11
  1e000396bc:	eb2b403f 	cmp	x1, w11, uxtw
  1e000396c0:	54fffe08 	b.hi	1e00039680 <smmu_gen_pagetable+0x3b0>  // b.pmore
  1e000396c4:	910004a5 	add	x5, x5, #0x1
  1e000396c8:	91008042 	add	x2, x2, #0x20
  1e000396cc:	17ffff6f 	b	1e00039488 <smmu_gen_pagetable+0x1b8>
  1e000396d0:	8b0509b1 	add	x17, x13, x5, lsl #2
  1e000396d4:	5280000b 	mov	w11, #0x0                   	// #0
  1e000396d8:	17fffff7 	b	1e000396b4 <smmu_gen_pagetable+0x3e4>
  1e000396dc:	0b010185 	add	w5, w12, w1
  1e000396e0:	b865784b 	ldr	w11, [x2, x5, lsl #2]
  1e000396e4:	d37be825 	lsl	x5, x1, #5
  1e000396e8:	f8656885 	ldr	x5, [x4, x5]
  1e000396ec:	f86b78ee 	ldr	x14, [x7, x11, lsl #3]
  1e000396f0:	b861786b 	ldr	w11, [x3, x1, lsl #2]
  1e000396f4:	d35e98a5 	ubfx	x5, x5, #30, #9
  1e000396f8:	91000421 	add	x1, x1, #0x1
  1e000396fc:	f86b79ab 	ldr	x11, [x13, x11, lsl #3]
  1e00039700:	b240056b 	orr	x11, x11, #0x3
  1e00039704:	f82579cb 	str	x11, [x14, x5, lsl #3]
  1e00039708:	17ffff68 	b	1e000394a8 <smmu_gen_pagetable+0x1d8>
  1e0003970c:	0b0a0182 	add	w2, w12, w10
  1e00039710:	9000006b 	adrp	x11, 1e00045000 <list+0x1e8>
  1e00039714:	9000006c 	adrp	x12, 1e00045000 <list+0x1e8>
  1e00039718:	9117d16b 	add	x11, x11, #0x5f4
  1e0003971c:	9118218c 	add	x12, x12, #0x608
  1e00039720:	910660ce 	add	x14, x6, #0x198
  1e00039724:	d2800001 	mov	x1, #0x0                   	// #0
  1e00039728:	0b010043 	add	w3, w2, w1
  1e0003972c:	b8637985 	ldr	w5, [x12, x3, lsl #2]
  1e00039730:	d37be823 	lsl	x3, x1, #5
  1e00039734:	f8636803 	ldr	x3, [x0, x3]
  1e00039738:	f86578ed 	ldr	x13, [x7, x5, lsl #3]
  1e0003973c:	0b010145 	add	w5, w10, w1
  1e00039740:	d35e9863 	ubfx	x3, x3, #30, #9
  1e00039744:	91000421 	add	x1, x1, #0x1
  1e00039748:	b8657965 	ldr	w5, [x11, x5, lsl #2]
  1e0003974c:	f86579c5 	ldr	x5, [x14, x5, lsl #3]
  1e00039750:	b24004a5 	orr	x5, x5, #0x3
  1e00039754:	f82379a5 	str	x5, [x13, x3, lsl #3]
  1e00039758:	6b01013f 	cmp	w9, w1
  1e0003975c:	54fffe68 	b.hi	1e00039728 <smmu_gen_pagetable+0x458>  // b.pmore
  1e00039760:	17ffff55 	b	1e000394b4 <smmu_gen_pagetable+0x1e4>
  1e00039764:	b94001eb 	ldr	w11, [x15]
  1e00039768:	110004a5 	add	w5, w5, #0x1
  1e0003976c:	f86b7990 	ldr	x16, [x12, x11, lsl #3]
  1e00039770:	a9402d01 	ldp	x1, x11, [x8]
  1e00039774:	8b025421 	add	x1, x1, x2, lsl #21
  1e00039778:	8b025562 	add	x2, x11, x2, lsl #21
  1e0003977c:	f9400d0b 	ldr	x11, [x8, #24]
  1e00039780:	d3557421 	ubfx	x1, x1, #21, #9
  1e00039784:	926b6842 	and	x2, x2, #0xffffffe00000
  1e00039788:	9b0d7d6b 	mul	x11, x11, x13
  1e0003978c:	aa0b0042 	orr	x2, x2, x11
  1e00039790:	aa0e0042 	orr	x2, x2, x14
  1e00039794:	f8217a02 	str	x2, [x16, x1, lsl #3]
  1e00039798:	f9400901 	ldr	x1, [x8, #16]
  1e0003979c:	2a0503e2 	mov	w2, w5
  1e000397a0:	eb25403f 	cmp	x1, w5, uxtw
  1e000397a4:	54fffe08 	b.hi	1e00039764 <smmu_gen_pagetable+0x494>  // b.pmore
  1e000397a8:	91000463 	add	x3, x3, #0x1
  1e000397ac:	91008108 	add	x8, x8, #0x20
  1e000397b0:	17ffff47 	b	1e000394cc <smmu_gen_pagetable+0x1fc>
  1e000397b4:	8b0308ef 	add	x15, x7, x3, lsl #2
  1e000397b8:	52800005 	mov	w5, #0x0                   	// #0
  1e000397bc:	17fffff7 	b	1e00039798 <smmu_gen_pagetable+0x4c8>
  1e000397c0:	a9403c04 	ldp	x4, x15, [x0]
  1e000397c4:	110004a5 	add	w5, w5, #0x1
  1e000397c8:	b9400142 	ldr	w2, [x10]
  1e000397cc:	f86278ee 	ldr	x14, [x7, x2, lsl #3]
  1e000397d0:	8b063084 	add	x4, x4, x6, lsl #12
  1e000397d4:	f86b6822 	ldr	x2, [x1, x11]
  1e000397d8:	d34c5084 	ubfx	x4, x4, #12, #9
  1e000397dc:	8b0631e6 	add	x6, x15, x6, lsl #12
  1e000397e0:	9b0c7c42 	mul	x2, x2, x12
  1e000397e4:	aa060042 	orr	x2, x2, x6
  1e000397e8:	aa0d0042 	orr	x2, x2, x13
  1e000397ec:	f82479c2 	str	x2, [x14, x4, lsl #3]
  1e000397f0:	f9400802 	ldr	x2, [x0, #16]
  1e000397f4:	2a0503e6 	mov	w6, w5
  1e000397f8:	eb25405f 	cmp	x2, w5, uxtw
  1e000397fc:	54fffe28 	b.hi	1e000397c0 <smmu_gen_pagetable+0x4f0>  // b.pmore
  1e00039800:	91000463 	add	x3, x3, #0x1
  1e00039804:	91008000 	add	x0, x0, #0x20
  1e00039808:	6b03013f 	cmp	w9, w3
  1e0003980c:	54ffe968 	b.hi	1e00039538 <smmu_gen_pagetable+0x268>  // b.pmore
  1e00039810:	d65f03c0 	ret

0000001e00039814 <smmu_early_init>:
  1e00039814:	a9be7bfd 	stp	x29, x30, [sp, #-32]!
  1e00039818:	d0000021 	adrp	x1, 1e0003f000 <__RO_END__>
  1e0003981c:	9103a021 	add	x1, x1, #0xe8
  1e00039820:	910003fd 	mov	x29, sp
  1e00039824:	f9000bf3 	str	x19, [sp, #16]
  1e00039828:	2a0003f3 	mov	w19, w0
  1e0003982c:	d2900000 	mov	x0, #0x8000                	// #32768
  1e00039830:	f2a28020 	movk	x0, #0x1401, lsl #16
  1e00039834:	97fffea7 	bl	1e000392d0 <smmu_gen_pagetable>
  1e00039838:	71000e7f 	cmp	w19, #0x3
  1e0003983c:	540004e1 	b.ne	1e000398d8 <smmu_early_init+0xc4>  // b.any
  1e00039840:	d2820280 	mov	x0, #0x1014                	// #4116
  1e00039844:	52a02001 	mov	w1, #0x1000000             	// #16777216
  1e00039848:	f2a004a0 	movk	x0, #0x25, lsl #16
  1e0003984c:	f2c003c0 	movk	x0, #0x1e, lsl #32
  1e00039850:	b9400000 	ldr	w0, [x0]
  1e00039854:	12080c00 	and	w0, w0, #0xf000000
  1e00039858:	6b01001f 	cmp	w0, w1
  1e0003985c:	540003e1 	b.ne	1e000398d8 <smmu_early_init+0xc4>  // b.any
  1e00039860:	90000062 	adrp	x2, 1e00045000 <list+0x1e8>
  1e00039864:	90000061 	adrp	x1, 1e00045000 <list+0x1e8>
  1e00039868:	91070042 	add	x2, x2, #0x1c0
  1e0003986c:	91182021 	add	x1, x1, #0x608
  1e00039870:	d2800000 	mov	x0, #0x0                   	// #0
  1e00039874:	f820785f 	str	xzr, [x2, x0, lsl #3]
  1e00039878:	b820783f 	str	wzr, [x1, x0, lsl #2]
  1e0003987c:	91000400 	add	x0, x0, #0x1
  1e00039880:	f100181f 	cmp	x0, #0x6
  1e00039884:	54ffff81 	b.ne	1e00039874 <smmu_early_init+0x60>  // b.any
  1e00039888:	90000060 	adrp	x0, 1e00045000 <list+0x1e8>
  1e0003988c:	90000062 	adrp	x2, 1e00045000 <list+0x1e8>
  1e00039890:	91066001 	add	x1, x0, #0x198
  1e00039894:	f900cc1f 	str	xzr, [x0, #408]
  1e00039898:	9117d040 	add	x0, x2, #0x5f4
  1e0003989c:	a900fc3f 	stp	xzr, xzr, [x1, #8]
  1e000398a0:	29007c1f 	stp	wzr, wzr, [x0]
  1e000398a4:	29017c1f 	stp	wzr, wzr, [x0, #8]
  1e000398a8:	b900101f 	str	wzr, [x0, #16]
  1e000398ac:	90000060 	adrp	x0, 1e00045000 <list+0x1e8>
  1e000398b0:	a901fc3f 	stp	xzr, xzr, [x1, #24]
  1e000398b4:	d0000021 	adrp	x1, 1e0003f000 <__RO_END__>
  1e000398b8:	91000021 	add	x1, x1, #0x0
  1e000398bc:	f900c81f 	str	xzr, [x0, #400]
  1e000398c0:	90000060 	adrp	x0, 1e00045000 <list+0x1e8>
  1e000398c4:	b905f01f 	str	wzr, [x0, #1520]
  1e000398c8:	d2900000 	mov	x0, #0x8000                	// #32768
  1e000398cc:	f2a28020 	movk	x0, #0x1401, lsl #16
  1e000398d0:	f2c00c00 	movk	x0, #0x60, lsl #32
  1e000398d4:	97fffe7f 	bl	1e000392d0 <smmu_gen_pagetable>
  1e000398d8:	d2808800 	mov	x0, #0x440                 	// #1088
  1e000398dc:	52840163 	mov	w3, #0x200b                	// #8203
  1e000398e0:	f2a28000 	movk	x0, #0x1400, lsl #16
  1e000398e4:	72a28023 	movk	w3, #0x1401, lsl #16
  1e000398e8:	52800042 	mov	w2, #0x2                   	// #2
  1e000398ec:	52820001 	mov	w1, #0x1000                	// #4096
  1e000398f0:	b9000003 	str	w3, [x0]
  1e000398f4:	72b00002 	movk	w2, #0x8000, lsl #16
  1e000398f8:	b900041f 	str	wzr, [x0, #4]
  1e000398fc:	b9000802 	str	w2, [x0, #8]
  1e00039900:	b9000c01 	str	w1, [x0, #12]
  1e00039904:	b900101f 	str	wzr, [x0, #16]
  1e00039908:	b900141f 	str	wzr, [x0, #20]
  1e0003990c:	b900181f 	str	wzr, [x0, #24]
  1e00039910:	b9001c1f 	str	wzr, [x0, #28]
  1e00039914:	71000e7f 	cmp	w19, #0x3
  1e00039918:	540002a1 	b.ne	1e0003996c <smmu_early_init+0x158>  // b.any
  1e0003991c:	d2820280 	mov	x0, #0x1014                	// #4116
  1e00039920:	117ffc24 	add	w4, w1, #0xfff, lsl #12
  1e00039924:	f2a004a0 	movk	x0, #0x25, lsl #16
  1e00039928:	f2c003c0 	movk	x0, #0x1e, lsl #32
  1e0003992c:	b9400000 	ldr	w0, [x0]
  1e00039930:	12080c00 	and	w0, w0, #0xf000000
  1e00039934:	6b04001f 	cmp	w0, w4
  1e00039938:	540001a1 	b.ne	1e0003996c <smmu_early_init+0x158>  // b.any
  1e0003993c:	d2808800 	mov	x0, #0x440                 	// #1088
  1e00039940:	f2a28000 	movk	x0, #0x1400, lsl #16
  1e00039944:	f2c00c00 	movk	x0, #0x60, lsl #32
  1e00039948:	b9000003 	str	w3, [x0]
  1e0003994c:	52800c03 	mov	w3, #0x60                  	// #96
  1e00039950:	b9000403 	str	w3, [x0, #4]
  1e00039954:	b9000802 	str	w2, [x0, #8]
  1e00039958:	b9000c01 	str	w1, [x0, #12]
  1e0003995c:	b900101f 	str	wzr, [x0, #16]
  1e00039960:	b900141f 	str	wzr, [x0, #20]
  1e00039964:	b900181f 	str	wzr, [x0, #24]
  1e00039968:	b9001c1f 	str	wzr, [x0, #28]
  1e0003996c:	d2840001 	mov	x1, #0x2000                	// #8192
  1e00039970:	528002e6 	mov	w6, #0x17                  	// #23
  1e00039974:	f2a28021 	movk	x1, #0x1401, lsl #16
  1e00039978:	72b80006 	movk	w6, #0xc000, lsl #16
  1e0003997c:	52844944 	mov	w4, #0x224a                	// #8778
  1e00039980:	52900005 	mov	w5, #0x8000                	// #32768
  1e00039984:	b9000026 	str	w6, [x1]
  1e00039988:	72a28025 	movk	w5, #0x1401, lsl #16
  1e0003998c:	b9000424 	str	w4, [x1, #4]
  1e00039990:	12801fe0 	mov	w0, #0xffffff00            	// #-256
  1e00039994:	b9000825 	str	w5, [x1, #8]
  1e00039998:	d2be8402 	mov	x2, #0xf4200000            	// #4095737856
  1e0003999c:	b9000c3f 	str	wzr, [x1, #12]
  1e000399a0:	d2800143 	mov	x3, #0xa                   	// #10
  1e000399a4:	b900103f 	str	wzr, [x1, #16]
  1e000399a8:	71000e7f 	cmp	w19, #0x3
  1e000399ac:	b900143f 	str	wzr, [x1, #20]
  1e000399b0:	f2c003e2 	movk	x2, #0x1f, lsl #32
  1e000399b4:	b9001820 	str	w0, [x1, #24]
  1e000399b8:	f2a281e3 	movk	x3, #0x140f, lsl #16
  1e000399bc:	b9001c20 	str	w0, [x1, #28]
  1e000399c0:	b900203f 	str	wzr, [x1, #32]
  1e000399c4:	b900243f 	str	wzr, [x1, #36]
  1e000399c8:	b900283f 	str	wzr, [x1, #40]
  1e000399cc:	b9002c3f 	str	wzr, [x1, #44]
  1e000399d0:	b900303f 	str	wzr, [x1, #48]
  1e000399d4:	b900343f 	str	wzr, [x1, #52]
  1e000399d8:	b900383f 	str	wzr, [x1, #56]
  1e000399dc:	b9003c3f 	str	wzr, [x1, #60]
  1e000399e0:	54000060 	b.eq	1e000399ec <smmu_early_init+0x1d8>  // b.none
  1e000399e4:	f9005043 	str	x3, [x2, #160]
  1e000399e8:	14000024 	b	1e00039a78 <smmu_early_init+0x264>
  1e000399ec:	d2820281 	mov	x1, #0x1014                	// #4116
  1e000399f0:	117ff487 	add	w7, w4, #0xffd, lsl #12
  1e000399f4:	f2a004a1 	movk	x1, #0x25, lsl #16
  1e000399f8:	1136d8e7 	add	w7, w7, #0xdb6
  1e000399fc:	f2c003c1 	movk	x1, #0x1e, lsl #32
  1e00039a00:	b9400021 	ldr	w1, [x1]
  1e00039a04:	12080c21 	and	w1, w1, #0xf000000
  1e00039a08:	6b07003f 	cmp	w1, w7
  1e00039a0c:	54fffec1 	b.ne	1e000399e4 <smmu_early_init+0x1d0>  // b.any
  1e00039a10:	d2840001 	mov	x1, #0x2000                	// #8192
  1e00039a14:	f2a28021 	movk	x1, #0x1401, lsl #16
  1e00039a18:	f2c00c01 	movk	x1, #0x60, lsl #32
  1e00039a1c:	b9000026 	str	w6, [x1]
  1e00039a20:	b9000424 	str	w4, [x1, #4]
  1e00039a24:	52800c04 	mov	w4, #0x60                  	// #96
  1e00039a28:	b9000825 	str	w5, [x1, #8]
  1e00039a2c:	b9000c24 	str	w4, [x1, #12]
  1e00039a30:	b900103f 	str	wzr, [x1, #16]
  1e00039a34:	b900143f 	str	wzr, [x1, #20]
  1e00039a38:	b9001820 	str	w0, [x1, #24]
  1e00039a3c:	b9001c20 	str	w0, [x1, #28]
  1e00039a40:	d2be8400 	mov	x0, #0xf4200000            	// #4095737856
  1e00039a44:	b900203f 	str	wzr, [x1, #32]
  1e00039a48:	f2c00fe0 	movk	x0, #0x7f, lsl #32
  1e00039a4c:	b900243f 	str	wzr, [x1, #36]
  1e00039a50:	b900283f 	str	wzr, [x1, #40]
  1e00039a54:	b9002c3f 	str	wzr, [x1, #44]
  1e00039a58:	b900303f 	str	wzr, [x1, #48]
  1e00039a5c:	b900343f 	str	wzr, [x1, #52]
  1e00039a60:	b900383f 	str	wzr, [x1, #56]
  1e00039a64:	b9003c3f 	str	wzr, [x1, #60]
  1e00039a68:	91437821 	add	x1, x1, #0xde, lsl #12
  1e00039a6c:	f9005043 	str	x3, [x2, #160]
  1e00039a70:	91002821 	add	x1, x1, #0xa
  1e00039a74:	f9005001 	str	x1, [x0, #160]
  1e00039a78:	d2be8400 	mov	x0, #0xf4200000            	// #4095737856
  1e00039a7c:	528030a1 	mov	w1, #0x185                 	// #389
  1e00039a80:	f2c003e0 	movk	x0, #0x1f, lsl #32
  1e00039a84:	d2a28002 	mov	x2, #0x14000000            	// #335544320
  1e00039a88:	b9008801 	str	w1, [x0, #136]
  1e00039a8c:	f9004002 	str	x2, [x0, #128]
  1e00039a90:	71000e7f 	cmp	w19, #0x3
  1e00039a94:	54000201 	b.ne	1e00039ad4 <smmu_early_init+0x2c0>  // b.any
  1e00039a98:	d2820282 	mov	x2, #0x1014                	// #4116
  1e00039a9c:	117ffc23 	add	w3, w1, #0xfff, lsl #12
  1e00039aa0:	f2a004a2 	movk	x2, #0x25, lsl #16
  1e00039aa4:	1139ec63 	add	w3, w3, #0xe7b
  1e00039aa8:	f2c003c2 	movk	x2, #0x1e, lsl #32
  1e00039aac:	b9400042 	ldr	w2, [x2]
  1e00039ab0:	12080c42 	and	w2, w2, #0xf000000
  1e00039ab4:	6b03005f 	cmp	w2, w3
  1e00039ab8:	540000e1 	b.ne	1e00039ad4 <smmu_early_init+0x2c0>  // b.any
  1e00039abc:	d2be8402 	mov	x2, #0xf4200000            	// #4095737856
  1e00039ac0:	f2c00fe2 	movk	x2, #0x7f, lsl #32
  1e00039ac4:	b9008841 	str	w1, [x2, #136]
  1e00039ac8:	d2a28001 	mov	x1, #0x14000000            	// #335544320
  1e00039acc:	f2c00c01 	movk	x1, #0x60, lsl #32
  1e00039ad0:	f9004041 	str	x1, [x2, #128]
  1e00039ad4:	52820001 	mov	w1, #0x1000                	// #4096
  1e00039ad8:	72b00001 	movk	w1, #0x8000, lsl #16
  1e00039adc:	b9004401 	str	w1, [x0, #68]
  1e00039ae0:	d2be8401 	mov	x1, #0xf4200000            	// #4095737856
  1e00039ae4:	f2c003e1 	movk	x1, #0x1f, lsl #32
  1e00039ae8:	b9404420 	ldr	w0, [x1, #68]
  1e00039aec:	37ffffe0 	tbnz	w0, #31, 1e00039ae8 <smmu_early_init+0x2d4>
  1e00039af0:	71000e7f 	cmp	w19, #0x3
  1e00039af4:	54000201 	b.ne	1e00039b34 <smmu_early_init+0x320>  // b.any
  1e00039af8:	d2820280 	mov	x0, #0x1014                	// #4116
  1e00039afc:	52a02002 	mov	w2, #0x1000000             	// #16777216
  1e00039b00:	f2a004a0 	movk	x0, #0x25, lsl #16
  1e00039b04:	f2c003c0 	movk	x0, #0x1e, lsl #32
  1e00039b08:	b9400000 	ldr	w0, [x0]
  1e00039b0c:	12080c00 	and	w0, w0, #0xf000000
  1e00039b10:	6b02001f 	cmp	w0, w2
  1e00039b14:	54000101 	b.ne	1e00039b34 <smmu_early_init+0x320>  // b.any
  1e00039b18:	d2be8400 	mov	x0, #0xf4200000            	// #4095737856
  1e00039b1c:	52820002 	mov	w2, #0x1000                	// #4096
  1e00039b20:	f2c00fe0 	movk	x0, #0x7f, lsl #32
  1e00039b24:	72b00002 	movk	w2, #0x8000, lsl #16
  1e00039b28:	b9004402 	str	w2, [x0, #68]
  1e00039b2c:	b9404402 	ldr	w2, [x0, #68]
  1e00039b30:	37ffffe2 	tbnz	w2, #31, 1e00039b2c <smmu_early_init+0x318>
  1e00039b34:	52800080 	mov	w0, #0x4                   	// #4
  1e00039b38:	b9002020 	str	w0, [x1, #32]
  1e00039b3c:	d2be8400 	mov	x0, #0xf4200000            	// #4095737856
  1e00039b40:	f2c003e0 	movk	x0, #0x1f, lsl #32
  1e00039b44:	b9402401 	ldr	w1, [x0, #36]
  1e00039b48:	3617ffe1 	tbz	w1, #2, 1e00039b44 <smmu_early_init+0x330>
  1e00039b4c:	b9402001 	ldr	w1, [x0, #32]
  1e00039b50:	32000021 	orr	w1, w1, #0x1
  1e00039b54:	b9002001 	str	w1, [x0, #32]
  1e00039b58:	b9402401 	ldr	w1, [x0, #36]
  1e00039b5c:	3607ffe1 	tbz	w1, #0, 1e00039b58 <smmu_early_init+0x344>
  1e00039b60:	71000e7f 	cmp	w19, #0x3
  1e00039b64:	540002c1 	b.ne	1e00039bbc <smmu_early_init+0x3a8>  // b.any
  1e00039b68:	d2820280 	mov	x0, #0x1014                	// #4116
  1e00039b6c:	52a02001 	mov	w1, #0x1000000             	// #16777216
  1e00039b70:	f2a004a0 	movk	x0, #0x25, lsl #16
  1e00039b74:	f2c003c0 	movk	x0, #0x1e, lsl #32
  1e00039b78:	b9400000 	ldr	w0, [x0]
  1e00039b7c:	12080c00 	and	w0, w0, #0xf000000
  1e00039b80:	6b01001f 	cmp	w0, w1
  1e00039b84:	540001c1 	b.ne	1e00039bbc <smmu_early_init+0x3a8>  // b.any
  1e00039b88:	d2be8400 	mov	x0, #0xf4200000            	// #4095737856
  1e00039b8c:	52800081 	mov	w1, #0x4                   	// #4
  1e00039b90:	f2c00fe0 	movk	x0, #0x7f, lsl #32
  1e00039b94:	b9002001 	str	w1, [x0, #32]
  1e00039b98:	b9402401 	ldr	w1, [x0, #36]
  1e00039b9c:	3617ffe1 	tbz	w1, #2, 1e00039b98 <smmu_early_init+0x384>
  1e00039ba0:	b9402001 	ldr	w1, [x0, #32]
  1e00039ba4:	32000021 	orr	w1, w1, #0x1
  1e00039ba8:	b9002001 	str	w1, [x0, #32]
  1e00039bac:	d2be8401 	mov	x1, #0xf4200000            	// #4095737856
  1e00039bb0:	f2c00fe1 	movk	x1, #0x7f, lsl #32
  1e00039bb4:	b9402420 	ldr	w0, [x1, #36]
  1e00039bb8:	3607ffe0 	tbz	w0, #0, 1e00039bb4 <smmu_early_init+0x3a0>
  1e00039bbc:	f9400bf3 	ldr	x19, [sp, #16]
  1e00039bc0:	a8c27bfd 	ldp	x29, x30, [sp], #32
  1e00039bc4:	d65f03c0 	ret

0000001e00039bc8 <poll_reg_same_val.constprop.0.isra.0>:
  1e00039bc8:	d280c200 	mov	x0, #0x610                 	// #1552
  1e00039bcc:	d10043ff 	sub	sp, sp, #0x10
  1e00039bd0:	f2a00800 	movk	x0, #0x40, lsl #16
  1e00039bd4:	f2c003c0 	movk	x0, #0x1e, lsl #32
  1e00039bd8:	b9400001 	ldr	w1, [x0]
  1e00039bdc:	b9000fe1 	str	w1, [sp, #12]
  1e00039be0:	b9400fe1 	ldr	w1, [sp, #12]
  1e00039be4:	35ffffa1 	cbnz	w1, 1e00039bd8 <poll_reg_same_val.constprop.0.isra.0+0x10>
  1e00039be8:	b9400fe0 	ldr	w0, [sp, #12]
  1e00039bec:	910043ff 	add	sp, sp, #0x10
  1e00039bf0:	d65f03c0 	ret

0000001e00039bf4 <request_to_cmrt>:
  1e00039bf4:	2a0003e6 	mov	w6, w0
  1e00039bf8:	d280c400 	mov	x0, #0x620                 	// #1568
  1e00039bfc:	f2a00800 	movk	x0, #0x40, lsl #16
  1e00039c00:	a9be7bfd 	stp	x29, x30, [sp, #-32]!
  1e00039c04:	f2c003c0 	movk	x0, #0x1e, lsl #32
  1e00039c08:	910003fd 	mov	x29, sp
  1e00039c0c:	b9400001 	ldr	w1, [x0]
  1e00039c10:	b9001be1 	str	w1, [sp, #24]
  1e00039c14:	b9401be1 	ldr	w1, [sp, #24]
  1e00039c18:	34ffffa1 	cbz	w1, 1e00039c0c <request_to_cmrt+0x18>
  1e00039c1c:	d280c003 	mov	x3, #0x600                 	// #1536
  1e00039c20:	b9401be0 	ldr	w0, [sp, #24]
  1e00039c24:	f2a00803 	movk	x3, #0x40, lsl #16
  1e00039c28:	b90017e0 	str	w0, [sp, #20]
  1e00039c2c:	f2c003c3 	movk	x3, #0x1e, lsl #32
  1e00039c30:	aa0303e2 	mov	x2, x3
  1e00039c34:	52800020 	mov	w0, #0x1                   	// #1
  1e00039c38:	52800204 	mov	w4, #0x10                  	// #16
  1e00039c3c:	52820005 	mov	w5, #0x1000                	// #4096
  1e00039c40:	b810045f 	str	wzr, [x2], #-256
  1e00039c44:	72a40005 	movk	w5, #0x2000, lsl #16
  1e00039c48:	b8100060 	stur	w0, [x3, #-256]
  1e00039c4c:	b94017e1 	ldr	w1, [sp, #20]
  1e00039c50:	b9011444 	str	w4, [x2, #276]
  1e00039c54:	b9011444 	str	w4, [x2, #276]
  1e00039c58:	53102c21 	ubfiz	w1, w1, #16, #12
  1e00039c5c:	b901185f 	str	wzr, [x2, #280]
  1e00039c60:	2a050021 	orr	w1, w1, w5
  1e00039c64:	b9011c5f 	str	wzr, [x2, #284]
  1e00039c68:	b9011041 	str	w1, [x2, #272]
  1e00039c6c:	d2800081 	mov	x1, #0x4                   	// #4
  1e00039c70:	f2be0421 	movk	x1, #0xf021, lsl #16
  1e00039c74:	114008a5 	add	w5, w5, #0x2, lsl #12
  1e00039c78:	f2c003e1 	movk	x1, #0x1f, lsl #32
  1e00039c7c:	b9000020 	str	w0, [x1]
  1e00039c80:	97ffffd2 	bl	1e00039bc8 <poll_reg_same_val.constprop.0.isra.0>
  1e00039c84:	b94017e4 	ldr	w4, [sp, #20]
  1e00039c88:	97ffffd0 	bl	1e00039bc8 <poll_reg_same_val.constprop.0.isra.0>
  1e00039c8c:	b9011446 	str	w6, [x2, #276]
  1e00039c90:	b901185f 	str	wzr, [x2, #280]
  1e00039c94:	53102c84 	ubfiz	w4, w4, #16, #12
  1e00039c98:	b9011c5f 	str	wzr, [x2, #284]
  1e00039c9c:	2a050084 	orr	w4, w4, w5
  1e00039ca0:	b9011044 	str	w4, [x2, #272]
  1e00039ca4:	97ffffc9 	bl	1e00039bc8 <poll_reg_same_val.constprop.0.isra.0>
  1e00039ca8:	52800080 	mov	w0, #0x4                   	// #4
  1e00039cac:	b9011440 	str	w0, [x2, #276]
  1e00039cb0:	b901185f 	str	wzr, [x2, #280]
  1e00039cb4:	b9011c5f 	str	wzr, [x2, #284]
  1e00039cb8:	b9011044 	str	w4, [x2, #272]
  1e00039cbc:	97ffffc3 	bl	1e00039bc8 <poll_reg_same_val.constprop.0.isra.0>
  1e00039cc0:	b810007f 	stur	wzr, [x3, #-256]
  1e00039cc4:	b9400060 	ldr	w0, [x3]
  1e00039cc8:	b9001fe0 	str	w0, [sp, #28]
  1e00039ccc:	b9401fe0 	ldr	w0, [sp, #28]
  1e00039cd0:	34ffffa0 	cbz	w0, 1e00039cc4 <request_to_cmrt+0xd0>
  1e00039cd4:	b9401fe0 	ldr	w0, [sp, #28]
  1e00039cd8:	b900007f 	str	wzr, [x3]
  1e00039cdc:	b94017e0 	ldr	w0, [sp, #20]
  1e00039ce0:	b9002060 	str	w0, [x3, #32]
  1e00039ce4:	a8c27bfd 	ldp	x29, x30, [sp], #32
  1e00039ce8:	d65f03c0 	ret

0000001e00039cec <xlat_arch_get_pas>:
  1e00039cec:	121c0400 	and	w0, w0, #0x30
  1e00039cf0:	7100401f 	cmp	w0, #0x10
  1e00039cf4:	1a9f17e0 	cset	w0, eq	// eq = none
  1e00039cf8:	531b6800 	lsl	w0, w0, #5
  1e00039cfc:	d65f03c0 	ret

0000001e00039d00 <tcr_physical_addr_size_bits>:
  1e00039d00:	92ffffe1 	mov	x1, #0xffffffffffff        	// #281474976710655
  1e00039d04:	eb01001f 	cmp	x0, x1
  1e00039d08:	54000089 	b.ls	1e00039d18 <tcr_physical_addr_size_bits+0x18>  // b.plast
  1e00039d0c:	a9bf7bfd 	stp	x29, x30, [sp, #-16]!
  1e00039d10:	910003fd 	mov	x29, sp
  1e00039d14:	9400063b 	bl	1e0003b600 <__assert>
  1e00039d18:	f2540c1f 	tst	x0, #0xf00000000000
  1e00039d1c:	54000141 	b.ne	1e00039d44 <tcr_physical_addr_size_bits+0x44>  // b.any
  1e00039d20:	f256041f 	tst	x0, #0xc0000000000
  1e00039d24:	54000141 	b.ne	1e00039d4c <tcr_physical_addr_size_bits+0x4c>  // b.any
  1e00039d28:	f258041f 	tst	x0, #0x30000000000
  1e00039d2c:	54000141 	b.ne	1e00039d54 <tcr_physical_addr_size_bits+0x54>  // b.any
  1e00039d30:	f25c0c1f 	tst	x0, #0xf000000000
  1e00039d34:	54000141 	b.ne	1e00039d5c <tcr_physical_addr_size_bits+0x5c>  // b.any
  1e00039d38:	f2600c1f 	tst	x0, #0xf00000000
  1e00039d3c:	9a9f07e0 	cset	x0, ne	// ne = any
  1e00039d40:	d65f03c0 	ret
  1e00039d44:	d28000a0 	mov	x0, #0x5                   	// #5
  1e00039d48:	d65f03c0 	ret
  1e00039d4c:	d2800080 	mov	x0, #0x4                   	// #4
  1e00039d50:	d65f03c0 	ret
  1e00039d54:	d2800060 	mov	x0, #0x3                   	// #3
  1e00039d58:	d65f03c0 	ret
  1e00039d5c:	d2800040 	mov	x0, #0x2                   	// #2
  1e00039d60:	d65f03c0 	ret

0000001e00039d64 <xlat_arch_get_max_supported_pa>:
  1e00039d64:	d5380700 	mrs	x0, id_aa64mmfr0_el1
  1e00039d68:	36180080 	tbz	w0, #3, 1e00039d78 <xlat_arch_get_max_supported_pa+0x14>
  1e00039d6c:	a9bf7bfd 	stp	x29, x30, [sp, #-16]!
  1e00039d70:	910003fd 	mov	x29, sp
  1e00039d74:	94000623 	bl	1e0003b600 <__assert>
  1e00039d78:	92400c01 	and	x1, x0, #0xf
  1e00039d7c:	f0000000 	adrp	x0, 1e0003c000 <vsnprintf+0x270>
  1e00039d80:	911dd000 	add	x0, x0, #0x774
  1e00039d84:	b8617801 	ldr	w1, [x0, x1, lsl #2]
  1e00039d88:	d2800020 	mov	x0, #0x1                   	// #1
  1e00039d8c:	9ac12000 	lsl	x0, x0, x1
  1e00039d90:	d1000400 	sub	x0, x0, #0x1
  1e00039d94:	d65f03c0 	ret

0000001e00039d98 <xlat_get_min_virt_addr_space_size>:
  1e00039d98:	d5380740 	mrs	x0, id_aa64mmfr2_el1
  1e00039d9c:	6b4073ff 	cmp	wzr, w0, lsr #28
  1e00039da0:	d2a04001 	mov	x1, #0x2000000             	// #33554432
  1e00039da4:	d2a00020 	mov	x0, #0x10000               	// #65536
  1e00039da8:	9a800020 	csel	x0, x1, x0, eq	// eq = none
  1e00039dac:	d65f03c0 	ret

0000001e00039db0 <xlat_arch_regime_get_xn_desc>:
  1e00039db0:	7100041f 	cmp	w0, #0x1
  1e00039db4:	54000100 	b.eq	1e00039dd4 <xlat_arch_regime_get_xn_desc+0x24>  // b.none
  1e00039db8:	51000801 	sub	w1, w0, #0x2
  1e00039dbc:	d2e00800 	mov	x0, #0x40000000000000      	// #18014398509481984
  1e00039dc0:	7100043f 	cmp	w1, #0x1
  1e00039dc4:	540000a9 	b.ls	1e00039dd8 <xlat_arch_regime_get_xn_desc+0x28>  // b.plast
  1e00039dc8:	a9bf7bfd 	stp	x29, x30, [sp, #-16]!
  1e00039dcc:	910003fd 	mov	x29, sp
  1e00039dd0:	9400060c 	bl	1e0003b600 <__assert>
  1e00039dd4:	d2e00c00 	mov	x0, #0x60000000000000      	// #27021597764222976
  1e00039dd8:	d65f03c0 	ret

0000001e00039ddc <xlat_arch_current_el>:
  1e00039ddc:	d5384240 	mrs	x0, currentel
  1e00039de0:	53020c00 	ubfx	w0, w0, #2, #2
  1e00039de4:	35000080 	cbnz	w0, 1e00039df4 <xlat_arch_current_el+0x18>
  1e00039de8:	a9bf7bfd 	stp	x29, x30, [sp, #-16]!
  1e00039dec:	910003fd 	mov	x29, sp
  1e00039df0:	94000604 	bl	1e0003b600 <__assert>
  1e00039df4:	d65f03c0 	ret

0000001e00039df8 <is_mmu_enabled_ctx>:
  1e00039df8:	a9bf7bfd 	stp	x29, x30, [sp, #-16]!
  1e00039dfc:	910003fd 	mov	x29, sp
  1e00039e00:	b9405800 	ldr	w0, [x0, #88]
  1e00039e04:	7100041f 	cmp	w0, #0x1
  1e00039e08:	54000101 	b.ne	1e00039e28 <is_mmu_enabled_ctx+0x30>  // b.any
  1e00039e0c:	97fffff4 	bl	1e00039ddc <xlat_arch_current_el>
  1e00039e10:	35000040 	cbnz	w0, 1e00039e18 <is_mmu_enabled_ctx+0x20>
  1e00039e14:	940005fb 	bl	1e0003b600 <__assert>
  1e00039e18:	d5381000 	mrs	x0, sctlr_el1
  1e00039e1c:	12000000 	and	w0, w0, #0x1
  1e00039e20:	a8c17bfd 	ldp	x29, x30, [sp], #16
  1e00039e24:	d65f03c0 	ret
  1e00039e28:	7100081f 	cmp	w0, #0x2
  1e00039e2c:	540000c1 	b.ne	1e00039e44 <is_mmu_enabled_ctx+0x4c>  // b.any
  1e00039e30:	97ffffeb 	bl	1e00039ddc <xlat_arch_current_el>
  1e00039e34:	7100041f 	cmp	w0, #0x1
  1e00039e38:	54fffee9 	b.ls	1e00039e14 <is_mmu_enabled_ctx+0x1c>  // b.plast
  1e00039e3c:	d53c1000 	mrs	x0, sctlr_el2
  1e00039e40:	17fffff7 	b	1e00039e1c <is_mmu_enabled_ctx+0x24>
  1e00039e44:	71000c1f 	cmp	w0, #0x3
  1e00039e48:	54fffe61 	b.ne	1e00039e14 <is_mmu_enabled_ctx+0x1c>  // b.any
  1e00039e4c:	97ffffe4 	bl	1e00039ddc <xlat_arch_current_el>
  1e00039e50:	7100081f 	cmp	w0, #0x2
  1e00039e54:	54fffe09 	b.ls	1e00039e14 <is_mmu_enabled_ctx+0x1c>  // b.plast
  1e00039e58:	d53e1000 	mrs	x0, sctlr_el3
  1e00039e5c:	17fffff0 	b	1e00039e1c <is_mmu_enabled_ctx+0x24>

0000001e00039e60 <setup_mmu_cfg>:
  1e00039e60:	a9bd7bfd 	stp	x29, x30, [sp, #-48]!
  1e00039e64:	910003fd 	mov	x29, sp
  1e00039e68:	a90153f3 	stp	x19, x20, [sp, #16]
  1e00039e6c:	a9025bf5 	stp	x21, x22, [sp, #32]
  1e00039e70:	b100049f 	cmn	x4, #0x1
  1e00039e74:	54000041 	b.ne	1e00039e7c <setup_mmu_cfg+0x1c>  // b.any
  1e00039e78:	940005e2 	bl	1e0003b600 <__assert>
  1e00039e7c:	aa0203f4 	mov	x20, x2
  1e00039e80:	91000482 	add	x2, x4, #0x1
  1e00039e84:	aa0003f5 	mov	x21, x0
  1e00039e88:	2a0103e6 	mov	w6, w1
  1e00039e8c:	97ffffc3 	bl	1e00039d98 <xlat_get_min_virt_addr_space_size>
  1e00039e90:	eb02001f 	cmp	x0, x2
  1e00039e94:	54ffff28 	b.hi	1e00039e78 <setup_mmu_cfg+0x18>  // b.pmore
  1e00039e98:	d2e00020 	mov	x0, #0x1000000000000       	// #281474976710656
  1e00039e9c:	eb00005f 	cmp	x2, x0
  1e00039ea0:	54fffec8 	b.hi	1e00039e78 <setup_mmu_cfg+0x18>  // b.pmore
  1e00039ea4:	ea02009f 	tst	x4, x2
  1e00039ea8:	54fffe81 	b.ne	1e00039e78 <setup_mmu_cfg+0x18>  // b.any
  1e00039eac:	dac00042 	rbit	x2, x2
  1e00039eb0:	52800813 	mov	w19, #0x40                  	// #64
  1e00039eb4:	dac01042 	clz	x2, x2
  1e00039eb8:	2a0503f6 	mov	w22, w5
  1e00039ebc:	4b020273 	sub	w19, w19, w2
  1e00039ec0:	37080066 	tbnz	w6, #1, 1e00039ecc <setup_mmu_cfg+0x6c>
  1e00039ec4:	5286a000 	mov	w0, #0x3500                	// #13568
  1e00039ec8:	2a000273 	orr	w19, w19, w0
  1e00039ecc:	93407e73 	sxtw	x19, w19
  1e00039ed0:	aa0303e0 	mov	x0, x3
  1e00039ed4:	97ffff8b 	bl	1e00039d00 <tcr_physical_addr_size_bits>
  1e00039ed8:	710006df 	cmp	w22, #0x1
  1e00039edc:	540001e1 	b.ne	1e00039f18 <setup_mmu_cfg+0xb8>  // b.any
  1e00039ee0:	aa008261 	orr	x1, x19, x0, lsl #32
  1e00039ee4:	b2690021 	orr	x1, x1, #0x800000
  1e00039ee8:	d5380740 	mrs	x0, id_aa64mmfr2_el1
  1e00039eec:	f2400c1f 	tst	x0, #0xf
  1e00039ef0:	54000040 	b.eq	1e00039ef8 <setup_mmu_cfg+0x98>  // b.none
  1e00039ef4:	b2400294 	orr	x20, x20, #0x1
  1e00039ef8:	d2801fe0 	mov	x0, #0xff                  	// #255
  1e00039efc:	f9000ab4 	str	x20, [x21, #16]
  1e00039f00:	f2a00880 	movk	x0, #0x44, lsl #16
  1e00039f04:	a90006a0 	stp	x0, x1, [x21]
  1e00039f08:	a94153f3 	ldp	x19, x20, [sp, #16]
  1e00039f0c:	a9425bf5 	ldp	x21, x22, [sp, #32]
  1e00039f10:	a8c37bfd 	ldp	x29, x30, [sp], #48
  1e00039f14:	d65f03c0 	ret
  1e00039f18:	71000adf 	cmp	w22, #0x2
  1e00039f1c:	d370bc01 	lsl	x1, x0, #16
  1e00039f20:	540000a1 	b.ne	1e00039f34 <setup_mmu_cfg+0xd4>  // b.any
  1e00039f24:	aa130021 	orr	x1, x1, x19
  1e00039f28:	d2b01000 	mov	x0, #0x80800000            	// #2155872256
  1e00039f2c:	aa000021 	orr	x1, x1, x0
  1e00039f30:	17ffffee 	b	1e00039ee8 <setup_mmu_cfg+0x88>
  1e00039f34:	71000edf 	cmp	w22, #0x3
  1e00039f38:	54ffff60 	b.eq	1e00039f24 <setup_mmu_cfg+0xc4>  // b.none
  1e00039f3c:	17ffffcf 	b	1e00039e78 <setup_mmu_cfg+0x18>

0000001e00039f40 <mmap_add_region>:
  1e00039f40:	a9bc7bfd 	stp	x29, x30, [sp, #-64]!
  1e00039f44:	910003fd 	mov	x29, sp
  1e00039f48:	a90187e0 	stp	x0, x1, [sp, #24]
  1e00039f4c:	d2a80000 	mov	x0, #0x40000000            	// #1073741824
  1e00039f50:	910063e1 	add	x1, sp, #0x18
  1e00039f54:	f90017e2 	str	x2, [sp, #40]
  1e00039f58:	b90033e3 	str	w3, [sp, #48]
  1e00039f5c:	f9001fe0 	str	x0, [sp, #56]
  1e00039f60:	d0000020 	adrp	x0, 1e0003f000 <__RO_END__>
  1e00039f64:	91074000 	add	x0, x0, #0x1d0
  1e00039f68:	940000f5 	bl	1e0003a33c <mmap_add_region_ctx>
  1e00039f6c:	a8c47bfd 	ldp	x29, x30, [sp], #64
  1e00039f70:	d65f03c0 	ret

0000001e00039f74 <init_xlat_tables>:
  1e00039f74:	a9be7bfd 	stp	x29, x30, [sp, #-32]!
  1e00039f78:	910003fd 	mov	x29, sp
  1e00039f7c:	f9000bf3 	str	x19, [sp, #16]
  1e00039f80:	d0000033 	adrp	x19, 1e0003f000 <__RO_END__>
  1e00039f84:	91074273 	add	x19, x19, #0x1d0
  1e00039f88:	b9405a60 	ldr	w0, [x19, #88]
  1e00039f8c:	3100041f 	cmn	w0, #0x1
  1e00039f90:	54000040 	b.eq	1e00039f98 <init_xlat_tables+0x24>  // b.none
  1e00039f94:	9400059b 	bl	1e0003b600 <__assert>
  1e00039f98:	97ffff91 	bl	1e00039ddc <xlat_arch_current_el>
  1e00039f9c:	7100041f 	cmp	w0, #0x1
  1e00039fa0:	540000a0 	b.eq	1e00039fb4 <init_xlat_tables+0x40>  // b.none
  1e00039fa4:	7100081f 	cmp	w0, #0x2
  1e00039fa8:	54000060 	b.eq	1e00039fb4 <init_xlat_tables+0x40>  // b.none
  1e00039fac:	71000c1f 	cmp	w0, #0x3
  1e00039fb0:	54ffff21 	b.ne	1e00039f94 <init_xlat_tables+0x20>  // b.any
  1e00039fb4:	b9005a60 	str	w0, [x19, #88]
  1e00039fb8:	aa1303e0 	mov	x0, x19
  1e00039fbc:	f9400bf3 	ldr	x19, [sp, #16]
  1e00039fc0:	a8c27bfd 	ldp	x29, x30, [sp], #32
  1e00039fc4:	1400016d 	b	1e0003a578 <init_xlat_tables_ctx>

0000001e00039fc8 <enable_mmu_el1>:
  1e00039fc8:	d0000022 	adrp	x2, 1e0003f000 <__RO_END__>
  1e00039fcc:	91074042 	add	x2, x2, #0x1d0
  1e00039fd0:	a9be7bfd 	stp	x29, x30, [sp, #-32]!
  1e00039fd4:	2a0003e1 	mov	w1, w0
  1e00039fd8:	52800025 	mov	w5, #0x1                   	// #1
  1e00039fdc:	910003fd 	mov	x29, sp
  1e00039fe0:	f9400444 	ldr	x4, [x2, #8]
  1e00039fe4:	f9402043 	ldr	x3, [x2, #64]
  1e00039fe8:	f9401842 	ldr	x2, [x2, #48]
  1e00039fec:	f9000bf3 	str	x19, [sp, #16]
  1e00039ff0:	2a0003f3 	mov	w19, w0
  1e00039ff4:	90000060 	adrp	x0, 1e00045000 <list+0x1e8>
  1e00039ff8:	91162000 	add	x0, x0, #0x588
  1e00039ffc:	97ffff99 	bl	1e00039e60 <setup_mmu_cfg>
  1e0003a000:	2a1303e0 	mov	w0, w19
  1e0003a004:	f9400bf3 	ldr	x19, [sp, #16]
  1e0003a008:	a8c27bfd 	ldp	x29, x30, [sp], #32
  1e0003a00c:	14000543 	b	1e0003b518 <enable_mmu_direct_el1>

0000001e0003a010 <xlat_desc>:
  1e0003a010:	a9bc7bfd 	stp	x29, x30, [sp, #-64]!
  1e0003a014:	910003fd 	mov	x29, sp
  1e0003a018:	a90153f3 	stp	x19, x20, [sp, #16]
  1e0003a01c:	2a0103f4 	mov	w20, w1
  1e0003a020:	12800101 	mov	w1, #0xfffffff7            	// #-9
  1e0003a024:	a9025bf5 	stp	x21, x22, [sp, #32]
  1e0003a028:	aa0003f6 	mov	x22, x0
  1e0003a02c:	1b017c61 	mul	w1, w3, w1
  1e0003a030:	92800000 	mov	x0, #0xffffffffffffffff    	// #-1
  1e0003a034:	f9001bf7 	str	x23, [sp, #48]
  1e0003a038:	11009c21 	add	w1, w1, #0x27
  1e0003a03c:	9ac12000 	lsl	x0, x0, x1
  1e0003a040:	ea20005f 	bics	xzr, x2, x0
  1e0003a044:	54000040 	b.eq	1e0003a04c <xlat_desc+0x3c>  // b.none
  1e0003a048:	9400056e 	bl	1e0003b600 <__assert>
  1e0003a04c:	71000c7f 	cmp	w3, #0x3
  1e0003a050:	d27d0293 	eor	x19, x20, #0x8
  1e0003a054:	aa0203f5 	mov	x21, x2
  1e0003a058:	2a1403e0 	mov	w0, w20
  1e0003a05c:	d3430e73 	ubfx	x19, x19, #3, #1
  1e0003a060:	d2800077 	mov	x23, #0x3                   	// #3
  1e0003a064:	9a9f06f7 	csinc	x23, x23, xzr, eq	// eq = none
  1e0003a068:	97ffff21 	bl	1e00039cec <xlat_arch_get_pas>
  1e0003a06c:	2a0003e1 	mov	w1, w0
  1e0003a070:	b9405ac0 	ldr	w0, [x22, #88]
  1e0003a074:	aa131eb3 	orr	x19, x21, x19, lsl #7
  1e0003a078:	aa170021 	orr	x1, x1, x23
  1e0003a07c:	aa010273 	orr	x19, x19, x1
  1e0003a080:	7100041f 	cmp	w0, #0x1
  1e0003a084:	540001a1 	b.ne	1e0003a0b8 <xlat_desc+0xa8>  // b.any
  1e0003a088:	b2760261 	orr	x1, x19, #0x400
  1e0003a08c:	f279029f 	tst	x20, #0x80
  1e0003a090:	d2808802 	mov	x2, #0x440                 	// #1088
  1e0003a094:	aa020273 	orr	x19, x19, x2
  1e0003a098:	9a811273 	csel	x19, x19, x1, ne	// ne = any
  1e0003a09c:	72000a95 	ands	w21, w20, #0x7
  1e0003a0a0:	54000181 	b.ne	1e0003a0d0 <xlat_desc+0xc0>  // b.any
  1e0003a0a4:	97ffff43 	bl	1e00039db0 <xlat_arch_regime_get_xn_desc>
  1e0003a0a8:	aa000273 	orr	x19, x19, x0
  1e0003a0ac:	d2804080 	mov	x0, #0x204                 	// #516
  1e0003a0b0:	aa000273 	orr	x19, x19, x0
  1e0003a0b4:	14000015 	b	1e0003a108 <xlat_desc+0xf8>
  1e0003a0b8:	51000801 	sub	w1, w0, #0x2
  1e0003a0bc:	7100043f 	cmp	w1, #0x1
  1e0003a0c0:	54fffc48 	b.hi	1e0003a048 <xlat_desc+0x38>  // b.pmore
  1e0003a0c4:	d2808801 	mov	x1, #0x440                 	// #1088
  1e0003a0c8:	aa010273 	orr	x19, x19, x1
  1e0003a0cc:	17fffff4 	b	1e0003a09c <xlat_desc+0x8c>
  1e0003a0d0:	52800901 	mov	w1, #0x48                  	// #72
  1e0003a0d4:	6a01029f 	tst	w20, w1
  1e0003a0d8:	54000060 	b.eq	1e0003a0e4 <xlat_desc+0xd4>  // b.none
  1e0003a0dc:	97ffff35 	bl	1e00039db0 <xlat_arch_regime_get_xn_desc>
  1e0003a0e0:	aa000273 	orr	x19, x19, x0
  1e0003a0e4:	71000abf 	cmp	w21, #0x2
  1e0003a0e8:	540001c1 	b.ne	1e0003a120 <xlat_desc+0x110>  // b.any
  1e0003a0ec:	12180694 	and	w20, w20, #0x300
  1e0003a0f0:	710c029f 	cmp	w20, #0x300
  1e0003a0f4:	540000a0 	b.eq	1e0003a108 <xlat_desc+0xf8>  // b.none
  1e0003a0f8:	b2770260 	orr	x0, x19, #0x200
  1e0003a0fc:	7108029f 	cmp	w20, #0x200
  1e0003a100:	b2780673 	orr	x19, x19, #0x300
  1e0003a104:	9a801273 	csel	x19, x19, x0, ne	// ne = any
  1e0003a108:	a9425bf5 	ldp	x21, x22, [sp, #32]
  1e0003a10c:	aa1303e0 	mov	x0, x19
  1e0003a110:	a94153f3 	ldp	x19, x20, [sp, #16]
  1e0003a114:	f9401bf7 	ldr	x23, [sp, #48]
  1e0003a118:	a8c47bfd 	ldp	x29, x30, [sp], #64
  1e0003a11c:	d65f03c0 	ret
  1e0003a120:	710006bf 	cmp	w21, #0x1
  1e0003a124:	54fff921 	b.ne	1e0003a048 <xlat_desc+0x38>  // b.any
  1e0003a128:	d2804100 	mov	x0, #0x208                 	// #520
  1e0003a12c:	17ffffe1 	b	1e0003a0b0 <xlat_desc+0xa0>

0000001e0003a130 <xlat_tables_map_region>:
  1e0003a130:	a9b97bfd 	stp	x29, x30, [sp, #-112]!
  1e0003a134:	910003fd 	mov	x29, sp
  1e0003a138:	a90363f7 	stp	x23, x24, [sp, #48]
  1e0003a13c:	aa0003f8 	mov	x24, x0
  1e0003a140:	b9405000 	ldr	w0, [x0, #80]
  1e0003a144:	a90153f3 	stp	x19, x20, [sp, #16]
  1e0003a148:	a9025bf5 	stp	x21, x22, [sp, #32]
  1e0003a14c:	a9046bf9 	stp	x25, x26, [sp, #64]
  1e0003a150:	a90573fb 	stp	x27, x28, [sp, #80]
  1e0003a154:	b9006be4 	str	w4, [sp, #104]
  1e0003a158:	6b05001f 	cmp	w0, w5
  1e0003a15c:	54000088 	b.hi	1e0003a16c <xlat_tables_map_region+0x3c>  // b.pmore
  1e0003a160:	2a0503fa 	mov	w26, w5
  1e0003a164:	71000cbf 	cmp	w5, #0x3
  1e0003a168:	54000049 	b.ls	1e0003a170 <xlat_tables_map_region+0x40>  // b.plast
  1e0003a16c:	94000525 	bl	1e0003b600 <__assert>
  1e0003a170:	12800114 	mov	w20, #0xfffffff7            	// #-9
  1e0003a174:	aa0103fc 	mov	x28, x1
  1e0003a178:	a940d821 	ldp	x1, x22, [x1, #8]
  1e0003a17c:	1b147cb4 	mul	w20, w5, w20
  1e0003a180:	d2800035 	mov	x21, #0x1                   	// #1
  1e0003a184:	11009e94 	add	w20, w20, #0x27
  1e0003a188:	9ad422b5 	lsl	x21, x21, x20
  1e0003a18c:	cb1503e0 	neg	x0, x21
  1e0003a190:	8a010000 	and	x0, x0, x1
  1e0003a194:	eb02003f 	cmp	x1, x2
  1e0003a198:	9a828000 	csel	x0, x0, x2, hi	// hi = pmore
  1e0003a19c:	8b160036 	add	x22, x1, x22
  1e0003a1a0:	cb020013 	sub	x19, x0, x2
  1e0003a1a4:	d10006d6 	sub	x22, x22, #0x1
  1e0003a1a8:	aa0003f7 	mov	x23, x0
  1e0003a1ac:	110004a1 	add	w1, w5, #0x1
  1e0003a1b0:	9ad42673 	lsr	x19, x19, x20
  1e0003a1b4:	b90067f3 	str	w19, [sp, #100]
  1e0003a1b8:	8b334c73 	add	x19, x3, w19, uxtw #3
  1e0003a1bc:	b9006fe1 	str	w1, [sp, #108]
  1e0003a1c0:	294c8be1 	ldp	w1, w2, [sp, #100]
  1e0003a1c4:	6b02003f 	cmp	w1, w2
  1e0003a1c8:	54000922 	b.cs	1e0003a2ec <xlat_tables_map_region+0x1bc>  // b.hs, b.nlast
  1e0003a1cc:	a9401782 	ldp	x2, x5, [x28]
  1e0003a1d0:	8b0002b9 	add	x25, x21, x0
  1e0003a1d4:	f9400b84 	ldr	x4, [x28, #16]
  1e0003a1d8:	d100073b 	sub	x27, x25, #0x1
  1e0003a1dc:	f9400263 	ldr	x3, [x19]
  1e0003a1e0:	8b0400a4 	add	x4, x5, x4
  1e0003a1e4:	12000461 	and	w1, w3, #0x3
  1e0003a1e8:	d1000484 	sub	x4, x4, #0x1
  1e0003a1ec:	eb1700bf 	cmp	x5, x23
  1e0003a1f0:	54000828 	b.hi	1e0003a2f4 <xlat_tables_map_region+0x1c4>  // b.pmore
  1e0003a1f4:	eb04037f 	cmp	x27, x4
  1e0003a1f8:	540007e8 	b.hi	1e0003a2f4 <xlat_tables_map_region+0x1c4>  // b.pmore
  1e0003a1fc:	cb050042 	sub	x2, x2, x5
  1e0003a200:	8b000042 	add	x2, x2, x0
  1e0003a204:	71000f5f 	cmp	w26, #0x3
  1e0003a208:	54000141 	b.ne	1e0003a230 <xlat_tables_map_region+0x100>  // b.any
  1e0003a20c:	71000c3f 	cmp	w1, #0x3
  1e0003a210:	540005e0 	b.eq	1e0003a2cc <xlat_tables_map_region+0x19c>  // b.none
  1e0003a214:	35fffac1 	cbnz	w1, 1e0003a16c <xlat_tables_map_region+0x3c>
  1e0003a218:	b9401b81 	ldr	w1, [x28, #24]
  1e0003a21c:	2a1a03e3 	mov	w3, w26
  1e0003a220:	aa1803e0 	mov	x0, x24
  1e0003a224:	97ffff7b 	bl	1e0003a010 <xlat_desc>
  1e0003a228:	f9000260 	str	x0, [x19]
  1e0003a22c:	14000028 	b	1e0003a2cc <xlat_tables_map_region+0x19c>
  1e0003a230:	71000c3f 	cmp	w1, #0x3
  1e0003a234:	54000720 	b.eq	1e0003a318 <xlat_tables_map_region+0x1e8>  // b.none
  1e0003a238:	35000461 	cbnz	w1, 1e0003a2c4 <xlat_tables_map_region+0x194>
  1e0003a23c:	92800001 	mov	x1, #0xffffffffffffffff    	// #-1
  1e0003a240:	9ad42021 	lsl	x1, x1, x20
  1e0003a244:	ea21005f 	bics	xzr, x2, x1
  1e0003a248:	540000a1 	b.ne	1e0003a25c <xlat_tables_map_region+0x12c>  // b.any
  1e0003a24c:	3400009a 	cbz	w26, 1e0003a25c <xlat_tables_map_region+0x12c>
  1e0003a250:	f9401381 	ldr	x1, [x28, #32]
  1e0003a254:	9ad42421 	lsr	x1, x1, x20
  1e0003a258:	b5fffe01 	cbnz	x1, 1e0003a218 <xlat_tables_map_region+0xe8>
  1e0003a25c:	29450702 	ldp	w2, w1, [x24, #40]
  1e0003a260:	6b02003f 	cmp	w1, w2
  1e0003a264:	54fff84a 	b.ge	1e0003a16c <xlat_tables_map_region+0x3c>  // b.tcont
  1e0003a268:	f9401303 	ldr	x3, [x24, #32]
  1e0003a26c:	11000422 	add	w2, w1, #0x1
  1e0003a270:	b9002f02 	str	w2, [x24, #44]
  1e0003a274:	93747c21 	sbfiz	x1, x1, #12, #32
  1e0003a278:	ab010063 	adds	x3, x3, x1
  1e0003a27c:	54000160 	b.eq	1e0003a2a8 <xlat_tables_map_region+0x178>  // b.none
  1e0003a280:	b2400461 	orr	x1, x3, #0x3
  1e0003a284:	f9000261 	str	x1, [x19]
  1e0003a288:	aa0003e2 	mov	x2, x0
  1e0003a28c:	11000745 	add	w5, w26, #0x1
  1e0003a290:	aa1803e0 	mov	x0, x24
  1e0003a294:	aa1c03e1 	mov	x1, x28
  1e0003a298:	52804004 	mov	w4, #0x200                 	// #512
  1e0003a29c:	97ffffa5 	bl	1e0003a130 <xlat_tables_map_region>
  1e0003a2a0:	eb00037f 	cmp	x27, x0
  1e0003a2a4:	54000140 	b.eq	1e0003a2cc <xlat_tables_map_region+0x19c>  // b.none
  1e0003a2a8:	a94153f3 	ldp	x19, x20, [sp, #16]
  1e0003a2ac:	a9425bf5 	ldp	x21, x22, [sp, #32]
  1e0003a2b0:	a94363f7 	ldp	x23, x24, [sp, #48]
  1e0003a2b4:	a9446bf9 	ldp	x25, x26, [sp, #64]
  1e0003a2b8:	a94573fb 	ldp	x27, x28, [sp, #80]
  1e0003a2bc:	a8c77bfd 	ldp	x29, x30, [sp], #112
  1e0003a2c0:	d65f03c0 	ret
  1e0003a2c4:	7100043f 	cmp	w1, #0x1
  1e0003a2c8:	54fff521 	b.ne	1e0003a16c <xlat_tables_map_region+0x3c>  // b.any
  1e0003a2cc:	b94067e0 	ldr	w0, [sp, #100]
  1e0003a2d0:	8b1502f7 	add	x23, x23, x21
  1e0003a2d4:	91002273 	add	x19, x19, #0x8
  1e0003a2d8:	11000400 	add	w0, w0, #0x1
  1e0003a2dc:	b90067e0 	str	w0, [sp, #100]
  1e0003a2e0:	aa1903e0 	mov	x0, x25
  1e0003a2e4:	eb1902df 	cmp	x22, x25
  1e0003a2e8:	54fff6c8 	b.hi	1e0003a1c0 <xlat_tables_map_region+0x90>  // b.pmore
  1e0003a2ec:	d1000400 	sub	x0, x0, #0x1
  1e0003a2f0:	17ffffee 	b	1e0003a2a8 <xlat_tables_map_region+0x178>
  1e0003a2f4:	eb1b00bf 	cmp	x5, x27
  1e0003a2f8:	54000069 	b.ls	1e0003a304 <xlat_tables_map_region+0x1d4>  // b.plast
  1e0003a2fc:	eb0402ff 	cmp	x23, x4
  1e0003a300:	54fffe68 	b.hi	1e0003a2cc <xlat_tables_map_region+0x19c>  // b.pmore
  1e0003a304:	71000f5f 	cmp	w26, #0x3
  1e0003a308:	54fff320 	b.eq	1e0003a16c <xlat_tables_map_region+0x3c>  // b.none
  1e0003a30c:	34fffa81 	cbz	w1, 1e0003a25c <xlat_tables_map_region+0x12c>
  1e0003a310:	71000c3f 	cmp	w1, #0x3
  1e0003a314:	54fff2c1 	b.ne	1e0003a16c <xlat_tables_map_region+0x3c>  // b.any
  1e0003a318:	b9406fe5 	ldr	w5, [sp, #108]
  1e0003a31c:	aa0003e2 	mov	x2, x0
  1e0003a320:	92748c63 	and	x3, x3, #0xfffffffff000
  1e0003a324:	aa1c03e1 	mov	x1, x28
  1e0003a328:	aa1803e0 	mov	x0, x24
  1e0003a32c:	52804004 	mov	w4, #0x200                 	// #512
  1e0003a330:	97ffff80 	bl	1e0003a130 <xlat_tables_map_region>
  1e0003a334:	eb1b001f 	cmp	x0, x27
  1e0003a338:	17ffffdb 	b	1e0003a2a4 <xlat_tables_map_region+0x174>

0000001e0003a33c <mmap_add_region_ctx>:
  1e0003a33c:	a9bc7bfd 	stp	x29, x30, [sp, #-64]!
  1e0003a340:	910003fd 	mov	x29, sp
  1e0003a344:	f9400824 	ldr	x4, [x1, #16]
  1e0003a348:	a90153f3 	stp	x19, x20, [sp, #16]
  1e0003a34c:	aa0003f4 	mov	x20, x0
  1e0003a350:	a9025bf5 	stp	x21, x22, [sp, #32]
  1e0003a354:	a90363f7 	stp	x23, x24, [sp, #48]
  1e0003a358:	b9401818 	ldr	w24, [x0, #24]
  1e0003a35c:	f9400802 	ldr	x2, [x0, #16]
  1e0003a360:	a9400025 	ldp	x5, x0, [x1]
  1e0003a364:	b4000f84 	cbz	x4, 1e0003a554 <mmap_add_region_ctx+0x218>
  1e0003a368:	aa0103f7 	mov	x23, x1
  1e0003a36c:	39415281 	ldrb	w1, [x20, #84]
  1e0003a370:	36000041 	tbz	w1, #0, 1e0003a378 <mmap_add_region_ctx+0x3c>
  1e0003a374:	940004a3 	bl	1e0003b600 <__assert>
  1e0003a378:	aa0400a3 	orr	x3, x5, x4
  1e0003a37c:	aa000063 	orr	x3, x3, x0
  1e0003a380:	f94012e1 	ldr	x1, [x23, #32]
  1e0003a384:	f2402c7f 	tst	x3, #0xfff
  1e0003a388:	54000a81 	b.ne	1e0003a4d8 <mmap_add_region_ctx+0x19c>  // b.any
  1e0003a38c:	f148003f 	cmp	x1, #0x200, lsl #12
  1e0003a390:	d2a80003 	mov	x3, #0x40000000            	// #1073741824
  1e0003a394:	fa431024 	ccmp	x1, x3, #0x4, ne	// ne = any
  1e0003a398:	54000060 	b.eq	1e0003a3a4 <mmap_add_region_ctx+0x68>  // b.none
  1e0003a39c:	f140043f 	cmp	x1, #0x1, lsl #12
  1e0003a3a0:	540009c1 	b.ne	1e0003a4d8 <mmap_add_region_ctx+0x19c>  // b.any
  1e0003a3a4:	8b0400b6 	add	x22, x5, x4
  1e0003a3a8:	8b000089 	add	x9, x4, x0
  1e0003a3ac:	d10006d6 	sub	x22, x22, #0x1
  1e0003a3b0:	d1000535 	sub	x21, x9, #0x1
  1e0003a3b4:	eb1600bf 	cmp	x5, x22
  1e0003a3b8:	fa559002 	ccmp	x0, x21, #0x2, ls	// ls = plast
  1e0003a3bc:	54000988 	b.hi	1e0003a4ec <mmap_add_region_ctx+0x1b0>  // b.pmore
  1e0003a3c0:	f9400681 	ldr	x1, [x20, #8]
  1e0003a3c4:	eb0102bf 	cmp	x21, x1
  1e0003a3c8:	54000928 	b.hi	1e0003a4ec <mmap_add_region_ctx+0x1b0>  // b.pmore
  1e0003a3cc:	f9400281 	ldr	x1, [x20]
  1e0003a3d0:	eb0102df 	cmp	x22, x1
  1e0003a3d4:	540008c8 	b.hi	1e0003a4ec <mmap_add_region_ctx+0x1b0>  // b.pmore
  1e0003a3d8:	52800501 	mov	w1, #0x28                  	// #40
  1e0003a3dc:	9b210b18 	smaddl	x24, w24, w1, x2
  1e0003a3e0:	f85e8301 	ldur	x1, [x24, #-24]
  1e0003a3e4:	b5000881 	cbnz	x1, 1e0003a4f4 <mmap_add_region_ctx+0x1b8>
  1e0003a3e8:	aa0203e6 	mov	x6, x2
  1e0003a3ec:	cb05000a 	sub	x10, x0, x5
  1e0003a3f0:	f94008c3 	ldr	x3, [x6, #16]
  1e0003a3f4:	b50002a3 	cbnz	x3, 1e0003a448 <mmap_add_region_ctx+0x10c>
  1e0003a3f8:	aa0203f3 	mov	x19, x2
  1e0003a3fc:	a9408660 	ldp	x0, x1, [x19, #8]
  1e0003a400:	8b000020 	add	x0, x1, x0
  1e0003a404:	d1000400 	sub	x0, x0, #0x1
  1e0003a408:	eb15001f 	cmp	x0, x21
  1e0003a40c:	54000042 	b.cs	1e0003a414 <mmap_add_region_ctx+0xd8>  // b.hs, b.nlast
  1e0003a410:	b5000761 	cbnz	x1, 1e0003a4fc <mmap_add_region_ctx+0x1c0>
  1e0003a414:	a9408261 	ldp	x1, x0, [x19, #8]
  1e0003a418:	8b010001 	add	x1, x0, x1
  1e0003a41c:	eb01013f 	cmp	x9, x1
  1e0003a420:	54000081 	b.ne	1e0003a430 <mmap_add_region_ctx+0xf4>  // b.any
  1e0003a424:	b4000060 	cbz	x0, 1e0003a430 <mmap_add_region_ctx+0xf4>
  1e0003a428:	eb00009f 	cmp	x4, x0
  1e0003a42c:	540006c8 	b.hi	1e0003a504 <mmap_add_region_ctx+0x1c8>  // b.pmore
  1e0003a430:	f9400840 	ldr	x0, [x2, #16]
  1e0003a434:	b40006c0 	cbz	x0, 1e0003a50c <mmap_add_region_ctx+0x1d0>
  1e0003a438:	eb18005f 	cmp	x2, x24
  1e0003a43c:	54fff9c2 	b.cs	1e0003a374 <mmap_add_region_ctx+0x38>  // b.hs, b.nlast
  1e0003a440:	9100a042 	add	x2, x2, #0x28
  1e0003a444:	17fffffb 	b	1e0003a430 <mmap_add_region_ctx+0xf4>
  1e0003a448:	a94004c8 	ldp	x8, x1, [x6]
  1e0003a44c:	8b030027 	add	x7, x1, x3
  1e0003a450:	d10004e7 	sub	x7, x7, #0x1
  1e0003a454:	eb01001f 	cmp	x0, x1
  1e0003a458:	540001c3 	b.cc	1e0003a490 <mmap_add_region_ctx+0x154>  // b.lo, b.ul, b.last
  1e0003a45c:	eb0702bf 	cmp	x21, x7
  1e0003a460:	54000069 	b.ls	1e0003a46c <mmap_add_region_ctx+0x130>  // b.plast
  1e0003a464:	eb01001f 	cmp	x0, x1
  1e0003a468:	54000181 	b.ne	1e0003a498 <mmap_add_region_ctx+0x15c>  // b.any
  1e0003a46c:	cb080028 	sub	x8, x1, x8
  1e0003a470:	eb0a011f 	cmp	x8, x10
  1e0003a474:	540000a1 	b.ne	1e0003a488 <mmap_add_region_ctx+0x14c>  // b.any
  1e0003a478:	eb01001f 	cmp	x0, x1
  1e0003a47c:	54000261 	b.ne	1e0003a4c8 <mmap_add_region_ctx+0x18c>  // b.any
  1e0003a480:	eb03009f 	cmp	x4, x3
  1e0003a484:	54000221 	b.ne	1e0003a4c8 <mmap_add_region_ctx+0x18c>  // b.any
  1e0003a488:	12800001 	mov	w1, #0xffffffff            	// #-1
  1e0003a48c:	14000014 	b	1e0003a4dc <mmap_add_region_ctx+0x1a0>
  1e0003a490:	eb0702bf 	cmp	x21, x7
  1e0003a494:	54fffec2 	b.cs	1e0003a46c <mmap_add_region_ctx+0x130>  // b.hs, b.nlast
  1e0003a498:	eb0802df 	cmp	x22, x8
  1e0003a49c:	54000663 	b.cc	1e0003a568 <mmap_add_region_ctx+0x22c>  // b.lo, b.ul, b.last
  1e0003a4a0:	8b080063 	add	x3, x3, x8
  1e0003a4a4:	d1000463 	sub	x3, x3, #0x1
  1e0003a4a8:	eb0300bf 	cmp	x5, x3
  1e0003a4ac:	1a9f97e3 	cset	w3, hi	// hi = pmore
  1e0003a4b0:	eb0102bf 	cmp	x21, x1
  1e0003a4b4:	540000e3 	b.cc	1e0003a4d0 <mmap_add_region_ctx+0x194>  // b.lo, b.ul, b.last
  1e0003a4b8:	eb07001f 	cmp	x0, x7
  1e0003a4bc:	1a9f97e1 	cset	w1, hi	// hi = pmore
  1e0003a4c0:	6a01007f 	tst	w3, w1
  1e0003a4c4:	54fffe20 	b.eq	1e0003a488 <mmap_add_region_ctx+0x14c>  // b.none
  1e0003a4c8:	9100a0c6 	add	x6, x6, #0x28
  1e0003a4cc:	17ffffc9 	b	1e0003a3f0 <mmap_add_region_ctx+0xb4>
  1e0003a4d0:	52800021 	mov	w1, #0x1                   	// #1
  1e0003a4d4:	17fffffb 	b	1e0003a4c0 <mmap_add_region_ctx+0x184>
  1e0003a4d8:	128002a1 	mov	w1, #0xffffffea            	// #-22
  1e0003a4dc:	f0000000 	adrp	x0, 1e0003d000 <CSWTCH.192+0x80c>
  1e0003a4e0:	91179c00 	add	x0, x0, #0x5e7
  1e0003a4e4:	97ffde34 	bl	1e00031db4 <tf_log>
  1e0003a4e8:	17ffffa3 	b	1e0003a374 <mmap_add_region_ctx+0x38>
  1e0003a4ec:	12800421 	mov	w1, #0xffffffde            	// #-34
  1e0003a4f0:	17fffffb 	b	1e0003a4dc <mmap_add_region_ctx+0x1a0>
  1e0003a4f4:	12800161 	mov	w1, #0xfffffff4            	// #-12
  1e0003a4f8:	17fffff9 	b	1e0003a4dc <mmap_add_region_ctx+0x1a0>
  1e0003a4fc:	9100a273 	add	x19, x19, #0x28
  1e0003a500:	17ffffbf 	b	1e0003a3fc <mmap_add_region_ctx+0xc0>
  1e0003a504:	9100a273 	add	x19, x19, #0x28
  1e0003a508:	17ffffc3 	b	1e0003a414 <mmap_add_region_ctx+0xd8>
  1e0003a50c:	cb130042 	sub	x2, x2, x19
  1e0003a510:	aa1303e1 	mov	x1, x19
  1e0003a514:	9100a260 	add	x0, x19, #0x28
  1e0003a518:	94000449 	bl	1e0003b63c <memmove>
  1e0003a51c:	f9400b00 	ldr	x0, [x24, #16]
  1e0003a520:	b5fff2a0 	cbnz	x0, 1e0003a374 <mmap_add_region_ctx+0x38>
  1e0003a524:	aa1703e1 	mov	x1, x23
  1e0003a528:	aa1303e0 	mov	x0, x19
  1e0003a52c:	d2800502 	mov	x2, #0x28                  	// #40
  1e0003a530:	9400043b 	bl	1e0003b61c <memcpy>
  1e0003a534:	f9402280 	ldr	x0, [x20, #64]
  1e0003a538:	eb16001f 	cmp	x0, x22
  1e0003a53c:	54000042 	b.cs	1e0003a544 <mmap_add_region_ctx+0x208>  // b.hs, b.nlast
  1e0003a540:	f9002296 	str	x22, [x20, #64]
  1e0003a544:	f9402680 	ldr	x0, [x20, #72]
  1e0003a548:	eb15001f 	cmp	x0, x21
  1e0003a54c:	54000042 	b.cs	1e0003a554 <mmap_add_region_ctx+0x218>  // b.hs, b.nlast
  1e0003a550:	f9002695 	str	x21, [x20, #72]
  1e0003a554:	a94153f3 	ldp	x19, x20, [sp, #16]
  1e0003a558:	a9425bf5 	ldp	x21, x22, [sp, #32]
  1e0003a55c:	a94363f7 	ldp	x23, x24, [sp, #48]
  1e0003a560:	a8c47bfd 	ldp	x29, x30, [sp], #64
  1e0003a564:	d65f03c0 	ret
  1e0003a568:	eb0102bf 	cmp	x21, x1
  1e0003a56c:	54fffae3 	b.cc	1e0003a4c8 <mmap_add_region_ctx+0x18c>  // b.lo, b.ul, b.last
  1e0003a570:	52800023 	mov	w3, #0x1                   	// #1
  1e0003a574:	17ffffd1 	b	1e0003a4b8 <mmap_add_region_ctx+0x17c>

0000001e0003a578 <init_xlat_tables_ctx>:
  1e0003a578:	a9bd7bfd 	stp	x29, x30, [sp, #-48]!
  1e0003a57c:	910003fd 	mov	x29, sp
  1e0003a580:	a90153f3 	stp	x19, x20, [sp, #16]
  1e0003a584:	f90013f5 	str	x21, [sp, #32]
  1e0003a588:	b5000040 	cbnz	x0, 1e0003a590 <init_xlat_tables_ctx+0x18>
  1e0003a58c:	9400041d 	bl	1e0003b600 <__assert>
  1e0003a590:	39415001 	ldrb	w1, [x0, #84]
  1e0003a594:	aa0003f3 	mov	x19, x0
  1e0003a598:	3707ffa1 	tbnz	w1, #0, 1e0003a58c <init_xlat_tables_ctx+0x14>
  1e0003a59c:	b9405801 	ldr	w1, [x0, #88]
  1e0003a5a0:	51000421 	sub	w1, w1, #0x1
  1e0003a5a4:	7100083f 	cmp	w1, #0x2
  1e0003a5a8:	54ffff28 	b.hi	1e0003a58c <init_xlat_tables_ctx+0x14>  // b.pmore
  1e0003a5ac:	97fffe13 	bl	1e00039df8 <is_mmu_enabled_ctx>
  1e0003a5b0:	3707fee0 	tbnz	w0, #0, 1e0003a58c <init_xlat_tables_ctx+0x14>
  1e0003a5b4:	a940d275 	ldp	x21, x20, [x19, #8]
  1e0003a5b8:	97fffdf8 	bl	1e00039d98 <xlat_get_min_virt_addr_space_size>
  1e0003a5bc:	d1000400 	sub	x0, x0, #0x1
  1e0003a5c0:	eb0002bf 	cmp	x21, x0
  1e0003a5c4:	54fffe43 	b.cc	1e0003a58c <init_xlat_tables_ctx+0x14>  // b.lo, b.ul, b.last
  1e0003a5c8:	f9400660 	ldr	x0, [x19, #8]
  1e0003a5cc:	92ffffe1 	mov	x1, #0xffffffffffff        	// #281474976710655
  1e0003a5d0:	eb01001f 	cmp	x0, x1
  1e0003a5d4:	54fffdc8 	b.hi	1e0003a58c <init_xlat_tables_ctx+0x14>  // b.pmore
  1e0003a5d8:	91000415 	add	x21, x0, #0x1
  1e0003a5dc:	ea0002b5 	ands	x21, x21, x0
  1e0003a5e0:	54fffd61 	b.ne	1e0003a58c <init_xlat_tables_ctx+0x14>  // b.any
  1e0003a5e4:	aa1403e0 	mov	x0, x20
  1e0003a5e8:	9400003b 	bl	1e0003a6d4 <xlat_mmap_print>
  1e0003a5ec:	f9401a60 	ldr	x0, [x19, #48]
  1e0003a5f0:	b9403a61 	ldr	w1, [x19, #56]
  1e0003a5f4:	d37df021 	lsl	x1, x1, #3
  1e0003a5f8:	94000381 	bl	1e0003b3fc <zeromem>
  1e0003a5fc:	b9402a60 	ldr	w0, [x19, #40]
  1e0003a600:	6b15001f 	cmp	w0, w21
  1e0003a604:	540002cc 	b.gt	1e0003a65c <init_xlat_tables_ctx+0xe4>
  1e0003a608:	f9400a80 	ldr	x0, [x20, #16]
  1e0003a60c:	b5000340 	cbnz	x0, 1e0003a674 <init_xlat_tables_ctx+0xfc>
  1e0003a610:	f9400274 	ldr	x20, [x19]
  1e0003a614:	97fffdd4 	bl	1e00039d64 <xlat_arch_get_max_supported_pa>
  1e0003a618:	eb00029f 	cmp	x20, x0
  1e0003a61c:	54fffb88 	b.hi	1e0003a58c <init_xlat_tables_ctx+0x14>  // b.pmore
  1e0003a620:	f9400660 	ldr	x0, [x19, #8]
  1e0003a624:	f9402661 	ldr	x1, [x19, #72]
  1e0003a628:	eb00003f 	cmp	x1, x0
  1e0003a62c:	54fffb08 	b.hi	1e0003a58c <init_xlat_tables_ctx+0x14>  // b.pmore
  1e0003a630:	f9400260 	ldr	x0, [x19]
  1e0003a634:	f9402261 	ldr	x1, [x19, #64]
  1e0003a638:	eb00003f 	cmp	x1, x0
  1e0003a63c:	54fffa88 	b.hi	1e0003a58c <init_xlat_tables_ctx+0x14>  // b.pmore
  1e0003a640:	52800020 	mov	w0, #0x1                   	// #1
  1e0003a644:	39015260 	strb	w0, [x19, #84]
  1e0003a648:	f94013f5 	ldr	x21, [sp, #32]
  1e0003a64c:	aa1303e0 	mov	x0, x19
  1e0003a650:	a94153f3 	ldp	x19, x20, [sp, #16]
  1e0003a654:	a8c37bfd 	ldp	x29, x30, [sp], #48
  1e0003a658:	14000020 	b	1e0003a6d8 <xlat_tables_print>
  1e0003a65c:	f9401260 	ldr	x0, [x19, #32]
  1e0003a660:	d2820001 	mov	x1, #0x1000                	// #4096
  1e0003a664:	8b153000 	add	x0, x0, x21, lsl #12
  1e0003a668:	910006b5 	add	x21, x21, #0x1
  1e0003a66c:	94000364 	bl	1e0003b3fc <zeromem>
  1e0003a670:	17ffffe3 	b	1e0003a5fc <init_xlat_tables_ctx+0x84>
  1e0003a674:	f9401a63 	ldr	x3, [x19, #48]
  1e0003a678:	aa1403e1 	mov	x1, x20
  1e0003a67c:	b9403a64 	ldr	w4, [x19, #56]
  1e0003a680:	d2800002 	mov	x2, #0x0                   	// #0
  1e0003a684:	b9405265 	ldr	w5, [x19, #80]
  1e0003a688:	aa1303e0 	mov	x0, x19
  1e0003a68c:	97fffea9 	bl	1e0003a130 <xlat_tables_map_region>
  1e0003a690:	a9408e81 	ldp	x1, x3, [x20, #8]
  1e0003a694:	8b030022 	add	x2, x1, x3
  1e0003a698:	d1000442 	sub	x2, x2, #0x1
  1e0003a69c:	eb00005f 	cmp	x2, x0
  1e0003a6a0:	54000160 	b.eq	1e0003a6cc <init_xlat_tables_ctx+0x154>  // b.none
  1e0003a6a4:	f9400282 	ldr	x2, [x20]
  1e0003a6a8:	f0000000 	adrp	x0, 1e0003d000 <CSWTCH.192+0x80c>
  1e0003a6ac:	b9401a84 	ldr	w4, [x20, #24]
  1e0003a6b0:	91184800 	add	x0, x0, #0x612
  1e0003a6b4:	97ffddc0 	bl	1e00031db4 <tf_log>
  1e0003a6b8:	f0000000 	adrp	x0, 1e0003d000 <CSWTCH.192+0x80c>
  1e0003a6bc:	91264c00 	add	x0, x0, #0x993
  1e0003a6c0:	97ffdc5b 	bl	1e0003182c <backtrace>
  1e0003a6c4:	97ffe46f 	bl	1e00033880 <console_flush>
  1e0003a6c8:	940002ca 	bl	1e0003b1f0 <el3_panic>
  1e0003a6cc:	9100a294 	add	x20, x20, #0x28
  1e0003a6d0:	17ffffce 	b	1e0003a608 <init_xlat_tables_ctx+0x90>

0000001e0003a6d4 <xlat_mmap_print>:
  1e0003a6d4:	d65f03c0 	ret

0000001e0003a6d8 <xlat_tables_print>:
  1e0003a6d8:	d65f03c0 	ret

0000001e0003a6dc <get_el_str>:
  1e0003a6dc:	71000c1f 	cmp	w0, #0x3
  1e0003a6e0:	54000089 	b.ls	1e0003a6f0 <get_el_str+0x14>  // b.plast
  1e0003a6e4:	a9bf7bfd 	stp	x29, x30, [sp, #-16]!
  1e0003a6e8:	910003fd 	mov	x29, sp
  1e0003a6ec:	940003c5 	bl	1e0003b600 <__assert>
  1e0003a6f0:	d0000001 	adrp	x1, 1e0003c000 <vsnprintf+0x270>
  1e0003a6f4:	91142021 	add	x1, x1, #0x508
  1e0003a6f8:	f8605820 	ldr	x0, [x1, w0, uxtw #3]
  1e0003a6fc:	d65f03c0 	ret

0000001e0003a700 <plat_error_handler>:
  1e0003a700:	d503207f 	wfi
  1e0003a704:	17ffffff 	b	1e0003a700 <plat_error_handler>

0000001e0003a708 <bl2_plat_preload_setup>:
  1e0003a708:	d65f03c0 	ret

0000001e0003a70c <bl2_plat_handle_pre_image_load>:
  1e0003a70c:	52800000 	mov	w0, #0x0                   	// #0
  1e0003a710:	d65f03c0 	ret

0000001e0003a714 <bl2_plat_handle_post_image_load>:
  1e0003a714:	52800000 	mov	w0, #0x0                   	// #0
  1e0003a718:	d65f03c0 	ret

0000001e0003a71c <plat_log_get_prefix>:
  1e0003a71c:	7100c81f 	cmp	w0, #0x32
  1e0003a720:	52800641 	mov	w1, #0x32                  	// #50
  1e0003a724:	1a819000 	csel	w0, w0, w1, ls	// ls = plast
  1e0003a728:	52800141 	mov	w1, #0xa                   	// #10
  1e0003a72c:	6b01001f 	cmp	w0, w1
  1e0003a730:	1a812000 	csel	w0, w0, w1, cs	// cs = hs, nlast
  1e0003a734:	1ac10800 	udiv	w0, w0, w1
  1e0003a738:	d0000001 	adrp	x1, 1e0003c000 <vsnprintf+0x270>
  1e0003a73c:	9114a021 	add	x1, x1, #0x528
  1e0003a740:	51000400 	sub	w0, w0, #0x1
  1e0003a744:	f8607820 	ldr	x0, [x1, x0, lsl #3]
  1e0003a748:	d65f03c0 	ret

0000001e0003a74c <bl2_plat_arch_setup>:
  1e0003a74c:	a9be7bfd 	stp	x29, x30, [sp, #-32]!
  1e0003a750:	d2bfffa2 	mov	x2, #0xfffd0000            	// #4294770688
  1e0003a754:	f2dffc22 	movk	x2, #0xffe1, lsl #32
  1e0003a758:	910003fd 	mov	x29, sp
  1e0003a75c:	a90153f3 	stp	x19, x20, [sp, #16]
  1e0003a760:	b0000034 	adrp	x20, 1e0003f000 <__RO_END__>
  1e0003a764:	d2a00073 	mov	x19, #0x30000               	// #196608
  1e0003a768:	91000294 	add	x20, x20, #0x0
  1e0003a76c:	f2c003d3 	movk	x19, #0x1e, lsl #32
  1e0003a770:	52800043 	mov	w3, #0x2                   	// #2
  1e0003a774:	aa1303e1 	mov	x1, x19
  1e0003a778:	aa1303e0 	mov	x0, x19
  1e0003a77c:	f2ffffe2 	movk	x2, #0xffff, lsl #48
  1e0003a780:	91408273 	add	x19, x19, #0x20, lsl #12
  1e0003a784:	8b020282 	add	x2, x20, x2
  1e0003a788:	97fffdee 	bl	1e00039f40 <mmap_add_region>
  1e0003a78c:	cb140262 	sub	x2, x19, x20
  1e0003a790:	aa1403e1 	mov	x1, x20
  1e0003a794:	aa1403e0 	mov	x0, x20
  1e0003a798:	52800143 	mov	w3, #0xa                   	// #10
  1e0003a79c:	97fffde9 	bl	1e00039f40 <mmap_add_region>
  1e0003a7a0:	d2bf3001 	mov	x1, #0xf9800000            	// #4185915392
  1e0003a7a4:	52800103 	mov	w3, #0x8                   	// #8
  1e0003a7a8:	f2c003e1 	movk	x1, #0x1f, lsl #32
  1e0003a7ac:	d2a00402 	mov	x2, #0x200000              	// #2097152
  1e0003a7b0:	aa0103e0 	mov	x0, x1
  1e0003a7b4:	97fffde3 	bl	1e00039f40 <mmap_add_region>
  1e0003a7b8:	d2be2001 	mov	x1, #0xf1000000            	// #4043309056
  1e0003a7bc:	52800103 	mov	w3, #0x8                   	// #8
  1e0003a7c0:	f2c003e1 	movk	x1, #0x1f, lsl #32
  1e0003a7c4:	d2a00402 	mov	x2, #0x200000              	// #2097152
  1e0003a7c8:	aa0103e0 	mov	x0, x1
  1e0003a7cc:	97fffddd 	bl	1e00039f40 <mmap_add_region>
  1e0003a7d0:	d2be2001 	mov	x1, #0xf1000000            	// #4043309056
  1e0003a7d4:	52800103 	mov	w3, #0x8                   	// #8
  1e0003a7d8:	f2c00fe1 	movk	x1, #0x7f, lsl #32
  1e0003a7dc:	d2a00402 	mov	x2, #0x200000              	// #2097152
  1e0003a7e0:	aa0103e0 	mov	x0, x1
  1e0003a7e4:	97fffdd7 	bl	1e00039f40 <mmap_add_region>
  1e0003a7e8:	9146c261 	add	x1, x19, #0x1b0, lsl #12
  1e0003a7ec:	52800103 	mov	w3, #0x8                   	// #8
  1e0003a7f0:	aa0103e0 	mov	x0, x1
  1e0003a7f4:	d2a00402 	mov	x2, #0x200000              	// #2097152
  1e0003a7f8:	97fffdd2 	bl	1e00039f40 <mmap_add_region>
  1e0003a7fc:	d2be6401 	mov	x1, #0xf3200000            	// #4078960640
  1e0003a800:	52800103 	mov	w3, #0x8                   	// #8
  1e0003a804:	f2c003e1 	movk	x1, #0x1f, lsl #32
  1e0003a808:	d2a00402 	mov	x2, #0x200000              	// #2097152
  1e0003a80c:	aa0103e0 	mov	x0, x1
  1e0003a810:	97fffdcc 	bl	1e00039f40 <mmap_add_region>
  1e0003a814:	d2be8401 	mov	x1, #0xf4200000            	// #4095737856
  1e0003a818:	52800103 	mov	w3, #0x8                   	// #8
  1e0003a81c:	f2c003e1 	movk	x1, #0x1f, lsl #32
  1e0003a820:	d2a00402 	mov	x2, #0x200000              	// #2097152
  1e0003a824:	aa0103e0 	mov	x0, x1
  1e0003a828:	97fffdc6 	bl	1e00039f40 <mmap_add_region>
  1e0003a82c:	d2a28001 	mov	x1, #0x14000000            	// #335544320
  1e0003a830:	52800103 	mov	w3, #0x8                   	// #8
  1e0003a834:	aa0103e0 	mov	x0, x1
  1e0003a838:	d2a00402 	mov	x2, #0x200000              	// #2097152
  1e0003a83c:	97fffdc1 	bl	1e00039f40 <mmap_add_region>
  1e0003a840:	d2a20001 	mov	x1, #0x10000000            	// #268435456
  1e0003a844:	52802143 	mov	w3, #0x10a                 	// #266
  1e0003a848:	aa0103e0 	mov	x0, x1
  1e0003a84c:	d2a00402 	mov	x2, #0x200000              	// #2097152
  1e0003a850:	97fffdbc 	bl	1e00039f40 <mmap_add_region>
  1e0003a854:	b26117e1 	mov	x1, #0x1f80000000          	// #135291469824
  1e0003a858:	aa0103e0 	mov	x0, x1
  1e0003a85c:	52800043 	mov	w3, #0x2                   	// #2
  1e0003a860:	d2a02002 	mov	x2, #0x1000000             	// #16777216
  1e0003a864:	97fffdb7 	bl	1e00039f40 <mmap_add_region>
  1e0003a868:	97fffdc3 	bl	1e00039f74 <init_xlat_tables>
  1e0003a86c:	a94153f3 	ldp	x19, x20, [sp, #16]
  1e0003a870:	52800000 	mov	w0, #0x0                   	// #0
  1e0003a874:	a8c27bfd 	ldp	x29, x30, [sp], #32
  1e0003a878:	17fffdd4 	b	1e00039fc8 <enable_mmu_el1>

0000001e0003a87c <tzpc_init_sysreg_bl2>:
  1e0003a87c:	d2804080 	mov	x0, #0x204                 	// #516
  1e0003a880:	528007a2 	mov	w2, #0x3d                  	// #61
  1e0003a884:	f2be2020 	movk	x0, #0xf101, lsl #16
  1e0003a888:	5281fe64 	mov	w4, #0xff3                 	// #4083
  1e0003a88c:	f2c003e0 	movk	x0, #0x1f, lsl #32
  1e0003a890:	91600001 	add	x1, x0, #0x800, lsl #12
  1e0003a894:	52807fe3 	mov	w3, #0x3ff                 	// #1023
  1e0003a898:	b9000002 	str	w2, [x0]
  1e0003a89c:	b9000022 	str	w2, [x1]
  1e0003a8a0:	d2804282 	mov	x2, #0x214                 	// #532
  1e0003a8a4:	b900101f 	str	wzr, [x0, #16]
  1e0003a8a8:	d2804080 	mov	x0, #0x204                 	// #516
  1e0003a8ac:	f2bee020 	movk	x0, #0xf701, lsl #16
  1e0003a8b0:	f2be6622 	movk	x2, #0xf331, lsl #16
  1e0003a8b4:	f2c003e0 	movk	x0, #0x1f, lsl #32
  1e0003a8b8:	b900103f 	str	wzr, [x1, #16]
  1e0003a8bc:	528001e1 	mov	w1, #0xf                   	// #15
  1e0003a8c0:	f2c003e2 	movk	x2, #0x1f, lsl #32
  1e0003a8c4:	b9000001 	str	w1, [x0]
  1e0003a8c8:	d2802801 	mov	x1, #0x140                 	// #320
  1e0003a8cc:	52900000 	mov	w0, #0x8000                	// #32768
  1e0003a8d0:	f2bf2021 	movk	x1, #0xf901, lsl #16
  1e0003a8d4:	f2c003e1 	movk	x1, #0x1f, lsl #32
  1e0003a8d8:	b9000040 	str	w0, [x2]
  1e0003a8dc:	aa0103e0 	mov	x0, x1
  1e0003a8e0:	9173fc42 	add	x2, x2, #0xcff, lsl #12
  1e0003a8e4:	913fc042 	add	x2, x2, #0xff0
  1e0003a8e8:	b800c404 	str	w4, [x0], #12
  1e0003a8ec:	b9000c23 	str	w3, [x1, #12]
  1e0003a8f0:	91600021 	add	x1, x1, #0x800, lsl #12
  1e0003a8f4:	91600000 	add	x0, x0, #0x800, lsl #12
  1e0003a8f8:	b9000024 	str	w4, [x1]
  1e0003a8fc:	b9000003 	str	w3, [x0]
  1e0003a900:	528060e0 	mov	w0, #0x307                 	// #775
  1e0003a904:	b9000040 	str	w0, [x2]
  1e0003a908:	d65f03c0 	ret

0000001e0003a90c <bl2_early_platform_setup2>:
  1e0003a90c:	a9bc7bfd 	stp	x29, x30, [sp, #-64]!
  1e0003a910:	52984002 	mov	w2, #0xc200                	// #49664
  1e0003a914:	72a00022 	movk	w2, #0x1, lsl #16
  1e0003a918:	910003fd 	mov	x29, sp
  1e0003a91c:	a90153f3 	stp	x19, x20, [sp, #16]
  1e0003a920:	f0000053 	adrp	x19, 1e00045000 <list+0x1e8>
  1e0003a924:	9116a273 	add	x19, x19, #0x5a8
  1e0003a928:	aa1303e3 	mov	x3, x19
  1e0003a92c:	52965001 	mov	w1, #0xb280                	// #45696
  1e0003a930:	d2bf30a0 	mov	x0, #0xf9850000            	// #4186243072
  1e0003a934:	72a1dcc1 	movk	w1, #0xee6, lsl #16
  1e0003a938:	f2c003e0 	movk	x0, #0x1f, lsl #32
  1e0003a93c:	f90013f5 	str	x21, [sp, #32]
  1e0003a940:	94000254 	bl	1e0003b290 <console_16550_register>
  1e0003a944:	aa1303e0 	mov	x0, x19
  1e0003a948:	528000e1 	mov	w1, #0x7                   	// #7
  1e0003a94c:	97ffe38f 	bl	1e00033788 <console_set_scope>
  1e0003a950:	d2813093 	mov	x19, #0x984                 	// #2436
  1e0003a954:	528dcca0 	mov	w0, #0x6e65                	// #28261
  1e0003a958:	52800021 	mov	w1, #0x1                   	// #1
  1e0003a95c:	72a00c80 	movk	w0, #0x64, lsl #16
  1e0003a960:	b9003be0 	str	w0, [sp, #56]
  1e0003a964:	d2920000 	mov	x0, #0x9000                	// #36864
  1e0003a968:	f2a00473 	movk	x19, #0x23, lsl #16
  1e0003a96c:	f2bf7000 	movk	x0, #0xfb80, lsl #16
  1e0003a970:	f2c003d3 	movk	x19, #0x1e, lsl #32
  1e0003a974:	f2c003e0 	movk	x0, #0x1f, lsl #32
  1e0003a978:	b9000001 	str	w1, [x0]
  1e0003a97c:	97ffe42f 	bl	1e00033a38 <generic_delay_timer_init>
  1e0003a980:	940001d0 	bl	1e0003b0c0 <pmu_get_bootmode>
  1e0003a984:	2a0003f4 	mov	w20, w0
  1e0003a988:	52800001 	mov	w1, #0x0                   	// #0
  1e0003a98c:	52800000 	mov	w0, #0x0                   	// #0
  1e0003a990:	940001c6 	bl	1e0003b0a8 <plat_set_secondary_chiplet_cnt>
  1e0003a994:	b9400260 	ldr	w0, [x19]
  1e0003a998:	35ffffe0 	cbnz	w0, 1e0003a994 <bl2_early_platform_setup2+0x88>
  1e0003a99c:	52800020 	mov	w0, #0x1                   	// #1
  1e0003a9a0:	b9000260 	str	w0, [x19]
  1e0003a9a4:	529ffc15 	mov	w21, #0xffe0                	// #65504
  1e0003a9a8:	52800041 	mov	w1, #0x2                   	// #2
  1e0003a9ac:	b85fc260 	ldur	w0, [x19, #-4]
  1e0003a9b0:	72bfff15 	movk	w21, #0xfff8, lsl #16
  1e0003a9b4:	72a00061 	movk	w1, #0x3, lsl #16
  1e0003a9b8:	0a150000 	and	w0, w0, w21
  1e0003a9bc:	2a010000 	orr	w0, w0, w1
  1e0003a9c0:	b81fc260 	stur	w0, [x19, #-4]
  1e0003a9c4:	b900027f 	str	wzr, [x19]
  1e0003a9c8:	52800001 	mov	w1, #0x0                   	// #0
  1e0003a9cc:	f0000000 	adrp	x0, 1e0003d000 <CSWTCH.192+0x80c>
  1e0003a9d0:	911a8c00 	add	x0, x0, #0x6a3
  1e0003a9d4:	97ffdcf8 	bl	1e00031db4 <tf_log>
  1e0003a9d8:	d2800000 	mov	x0, #0x0                   	// #0
  1e0003a9dc:	97ffe2fb 	bl	1e000335c8 <cmu_init_bl2>
  1e0003a9e0:	b9400260 	ldr	w0, [x19]
  1e0003a9e4:	35ffffe0 	cbnz	w0, 1e0003a9e0 <bl2_early_platform_setup2+0xd4>
  1e0003a9e8:	52800020 	mov	w0, #0x1                   	// #1
  1e0003a9ec:	b9000260 	str	w0, [x19]
  1e0003a9f0:	52800001 	mov	w1, #0x0                   	// #0
  1e0003a9f4:	b85fc260 	ldur	w0, [x19, #-4]
  1e0003a9f8:	0a150000 	and	w0, w0, w21
  1e0003a9fc:	32008400 	orr	w0, w0, #0x30003
  1e0003aa00:	b81fc260 	stur	w0, [x19, #-4]
  1e0003aa04:	b900027f 	str	wzr, [x19]
  1e0003aa08:	f0000000 	adrp	x0, 1e0003d000 <CSWTCH.192+0x80c>
  1e0003aa0c:	911b0400 	add	x0, x0, #0x6c1
  1e0003aa10:	97ffdce9 	bl	1e00031db4 <tf_log>
  1e0003aa14:	52800000 	mov	w0, #0x0                   	// #0
  1e0003aa18:	97fff6cb 	bl	1e00038544 <hbm3_init>
  1e0003aa1c:	340000c0 	cbz	w0, 1e0003aa34 <bl2_early_platform_setup2+0x128>
  1e0003aa20:	52800001 	mov	w1, #0x0                   	// #0
  1e0003aa24:	f0000000 	adrp	x0, 1e0003d000 <CSWTCH.192+0x80c>
  1e0003aa28:	911b7c00 	add	x0, x0, #0x6df
  1e0003aa2c:	97ffdce2 	bl	1e00031db4 <tf_log>
  1e0003aa30:	14000000 	b	1e0003aa30 <bl2_early_platform_setup2+0x124>
  1e0003aa34:	f0000000 	adrp	x0, 1e0003d000 <CSWTCH.192+0x80c>
  1e0003aa38:	911bf000 	add	x0, x0, #0x6fc
  1e0003aa3c:	97ffdcde 	bl	1e00031db4 <tf_log>
  1e0003aa40:	52800000 	mov	w0, #0x0                   	// #0
  1e0003aa44:	97fff66c 	bl	1e000383f4 <hbm_ecc_scrub_init>
  1e0003aa48:	97ffff8d 	bl	1e0003a87c <tzpc_init_sysreg_bl2>
  1e0003aa4c:	d2820280 	mov	x0, #0x1014                	// #4116
  1e0003aa50:	f2a004a0 	movk	x0, #0x25, lsl #16
  1e0003aa54:	f2c003c0 	movk	x0, #0x1e, lsl #32
  1e0003aa58:	39400c01 	ldrb	w1, [x0, #3]
  1e0003aa5c:	f0000000 	adrp	x0, 1e0003d000 <CSWTCH.192+0x80c>
  1e0003aa60:	911c4000 	add	x0, x0, #0x710
  1e0003aa64:	12000c21 	and	w1, w1, #0xf
  1e0003aa68:	97ffdcd3 	bl	1e00031db4 <tf_log>
  1e0003aa6c:	97fffa03 	bl	1e00039278 <gpt_partition_init>
  1e0003aa70:	f0000000 	adrp	x0, 1e0003d000 <CSWTCH.192+0x80c>
  1e0003aa74:	911ca400 	add	x0, x0, #0x729
  1e0003aa78:	97ffdccf 	bl	1e00031db4 <tf_log>
  1e0003aa7c:	71000e9f 	cmp	w20, #0x3
  1e0003aa80:	54000f80 	b.eq	1e0003ac70 <bl2_early_platform_setup2+0x364>  // b.none
  1e0003aa84:	54000108 	b.hi	1e0003aaa4 <bl2_early_platform_setup2+0x198>  // b.pmore
  1e0003aa88:	7100069f 	cmp	w20, #0x1
  1e0003aa8c:	540010a0 	b.eq	1e0003aca0 <bl2_early_platform_setup2+0x394>  // b.none
  1e0003aa90:	2a1403e1 	mov	w1, w20
  1e0003aa94:	f0000000 	adrp	x0, 1e0003d000 <CSWTCH.192+0x80c>
  1e0003aa98:	9122d400 	add	x0, x0, #0x8b5
  1e0003aa9c:	97ffdcc6 	bl	1e00031db4 <tf_log>
  1e0003aaa0:	940002d8 	bl	1e0003b600 <__assert>
  1e0003aaa4:	51001280 	sub	w0, w20, #0x4
  1e0003aaa8:	7100041f 	cmp	w0, #0x1
  1e0003aaac:	54ffff28 	b.hi	1e0003aa90 <bl2_early_platform_setup2+0x184>  // b.pmore
  1e0003aab0:	52800000 	mov	w0, #0x0                   	// #0
  1e0003aab4:	97fffb58 	bl	1e00039814 <smmu_early_init>
  1e0003aab8:	52800024 	mov	w4, #0x1                   	// #1
  1e0003aabc:	9100e3e2 	add	x2, sp, #0x38
  1e0003aac0:	52800063 	mov	w3, #0x3                   	// #3
  1e0003aac4:	52800001 	mov	w1, #0x0                   	// #0
  1e0003aac8:	52800040 	mov	w0, #0x2                   	// #2
  1e0003aacc:	97fff881 	bl	1e00038cd0 <ipm_samsung_write>
  1e0003aad0:	52800023 	mov	w3, #0x1                   	// #1
  1e0003aad4:	52800162 	mov	w2, #0xb                   	// #11
  1e0003aad8:	52800001 	mov	w1, #0x0                   	// #0
  1e0003aadc:	52800040 	mov	w0, #0x2                   	// #2
  1e0003aae0:	97fff89a 	bl	1e00038d48 <ipm_samsung_send>
  1e0003aae4:	b9400260 	ldr	w0, [x19]
  1e0003aae8:	35ffffe0 	cbnz	w0, 1e0003aae4 <bl2_early_platform_setup2+0x1d8>
  1e0003aaec:	52800020 	mov	w0, #0x1                   	// #1
  1e0003aaf0:	b9000260 	str	w0, [x19]
  1e0003aaf4:	529ffc15 	mov	w21, #0xffe0                	// #65504
  1e0003aaf8:	52800081 	mov	w1, #0x4                   	// #4
  1e0003aafc:	b85fc260 	ldur	w0, [x19, #-4]
  1e0003ab00:	72bfff15 	movk	w21, #0xfff8, lsl #16
  1e0003ab04:	72a00061 	movk	w1, #0x3, lsl #16
  1e0003ab08:	0a150000 	and	w0, w0, w21
  1e0003ab0c:	2a010000 	orr	w0, w0, w1
  1e0003ab10:	b81fc260 	stur	w0, [x19, #-4]
  1e0003ab14:	b900027f 	str	wzr, [x19]
  1e0003ab18:	f0000000 	adrp	x0, 1e0003d000 <CSWTCH.192+0x80c>
  1e0003ab1c:	91209400 	add	x0, x0, #0x825
  1e0003ab20:	97ffdca5 	bl	1e00031db4 <tf_log>
  1e0003ab24:	528000c0 	mov	w0, #0x6                   	// #6
  1e0003ab28:	97fff9c5 	bl	1e0003923c <gpt_get_address_by_entry>
  1e0003ab2c:	aa0003f4 	mov	x20, x0
  1e0003ab30:	528000c0 	mov	w0, #0x6                   	// #6
  1e0003ab34:	97fff9cd 	bl	1e00039268 <gpt_get_length_by_entry>
  1e0003ab38:	2a0003e2 	mov	w2, w0
  1e0003ab3c:	aa1403e1 	mov	x1, x20
  1e0003ab40:	d2800000 	mov	x0, #0x0                   	// #0
  1e0003ab44:	97ffde29 	bl	1e000323e8 <dma_load_image>
  1e0003ab48:	f0000000 	adrp	x0, 1e0003d000 <CSWTCH.192+0x80c>
  1e0003ab4c:	91210400 	add	x0, x0, #0x841
  1e0003ab50:	97ffdc99 	bl	1e00031db4 <tf_log>
  1e0003ab54:	b9400260 	ldr	w0, [x19]
  1e0003ab58:	35ffffe0 	cbnz	w0, 1e0003ab54 <bl2_early_platform_setup2+0x248>
  1e0003ab5c:	52800020 	mov	w0, #0x1                   	// #1
  1e0003ab60:	b9000260 	str	w0, [x19]
  1e0003ab64:	528000a1 	mov	w1, #0x5                   	// #5
  1e0003ab68:	b85fc260 	ldur	w0, [x19, #-4]
  1e0003ab6c:	72a00061 	movk	w1, #0x3, lsl #16
  1e0003ab70:	0a150000 	and	w0, w0, w21
  1e0003ab74:	2a010000 	orr	w0, w0, w1
  1e0003ab78:	b81fc260 	stur	w0, [x19, #-4]
  1e0003ab7c:	b900027f 	str	wzr, [x19]
  1e0003ab80:	528000e0 	mov	w0, #0x7                   	// #7
  1e0003ab84:	97fff9ae 	bl	1e0003923c <gpt_get_address_by_entry>
  1e0003ab88:	aa0003f4 	mov	x20, x0
  1e0003ab8c:	528000e0 	mov	w0, #0x7                   	// #7
  1e0003ab90:	97fff9b6 	bl	1e00039268 <gpt_get_length_by_entry>
  1e0003ab94:	aa1403e1 	mov	x1, x20
  1e0003ab98:	2a0003e2 	mov	w2, w0
  1e0003ab9c:	d2a00400 	mov	x0, #0x200000              	// #2097152
  1e0003aba0:	97ffde12 	bl	1e000323e8 <dma_load_image>
  1e0003aba4:	f0000000 	adrp	x0, 1e0003d000 <CSWTCH.192+0x80c>
  1e0003aba8:	91216800 	add	x0, x0, #0x85a
  1e0003abac:	97ffdc82 	bl	1e00031db4 <tf_log>
  1e0003abb0:	b9400260 	ldr	w0, [x19]
  1e0003abb4:	35ffffe0 	cbnz	w0, 1e0003abb0 <bl2_early_platform_setup2+0x2a4>
  1e0003abb8:	52800020 	mov	w0, #0x1                   	// #1
  1e0003abbc:	b9000260 	str	w0, [x19]
  1e0003abc0:	529ffc15 	mov	w21, #0xffe0                	// #65504
  1e0003abc4:	528000c1 	mov	w1, #0x6                   	// #6
  1e0003abc8:	b85fc260 	ldur	w0, [x19, #-4]
  1e0003abcc:	72bfff15 	movk	w21, #0xfff8, lsl #16
  1e0003abd0:	72a00061 	movk	w1, #0x3, lsl #16
  1e0003abd4:	0a150000 	and	w0, w0, w21
  1e0003abd8:	2a010000 	orr	w0, w0, w1
  1e0003abdc:	b81fc260 	stur	w0, [x19, #-4]
  1e0003abe0:	b900027f 	str	wzr, [x19]
  1e0003abe4:	52800100 	mov	w0, #0x8                   	// #8
  1e0003abe8:	97fff995 	bl	1e0003923c <gpt_get_address_by_entry>
  1e0003abec:	aa0003f4 	mov	x20, x0
  1e0003abf0:	52800100 	mov	w0, #0x8                   	// #8
  1e0003abf4:	97fff99d 	bl	1e00039268 <gpt_get_length_by_entry>
  1e0003abf8:	aa1403e1 	mov	x1, x20
  1e0003abfc:	2a0003e2 	mov	w2, w0
  1e0003ac00:	d2a28200 	mov	x0, #0x14100000            	// #336592896
  1e0003ac04:	97ffddf9 	bl	1e000323e8 <dma_load_image>
  1e0003ac08:	f0000000 	adrp	x0, 1e0003d000 <CSWTCH.192+0x80c>
  1e0003ac0c:	9121dc00 	add	x0, x0, #0x877
  1e0003ac10:	97ffdc69 	bl	1e00031db4 <tf_log>
  1e0003ac14:	b9400260 	ldr	w0, [x19]
  1e0003ac18:	35ffffe0 	cbnz	w0, 1e0003ac14 <bl2_early_platform_setup2+0x308>
  1e0003ac1c:	52800020 	mov	w0, #0x1                   	// #1
  1e0003ac20:	b9000260 	str	w0, [x19]
  1e0003ac24:	528000e1 	mov	w1, #0x7                   	// #7
  1e0003ac28:	b85fc260 	ldur	w0, [x19, #-4]
  1e0003ac2c:	72a00061 	movk	w1, #0x3, lsl #16
  1e0003ac30:	0a150000 	and	w0, w0, w21
  1e0003ac34:	2a010000 	orr	w0, w0, w1
  1e0003ac38:	b81fc260 	stur	w0, [x19, #-4]
  1e0003ac3c:	b900027f 	str	wzr, [x19]
  1e0003ac40:	52800120 	mov	w0, #0x9                   	// #9
  1e0003ac44:	97fff97e 	bl	1e0003923c <gpt_get_address_by_entry>
  1e0003ac48:	aa0003f4 	mov	x20, x0
  1e0003ac4c:	52800120 	mov	w0, #0x9                   	// #9
  1e0003ac50:	97fff986 	bl	1e00039268 <gpt_get_length_by_entry>
  1e0003ac54:	aa1403e1 	mov	x1, x20
  1e0003ac58:	2a0003e2 	mov	w2, w0
  1e0003ac5c:	d2a28400 	mov	x0, #0x14200000            	// #337641472
  1e0003ac60:	97ffdde2 	bl	1e000323e8 <dma_load_image>
  1e0003ac64:	f0000000 	adrp	x0, 1e0003d000 <CSWTCH.192+0x80c>
  1e0003ac68:	91225000 	add	x0, x0, #0x894
  1e0003ac6c:	140000b1 	b	1e0003af30 <bl2_early_platform_setup2+0x624>
  1e0003ac70:	b9400260 	ldr	w0, [x19]
  1e0003ac74:	35ffffe0 	cbnz	w0, 1e0003ac70 <bl2_early_platform_setup2+0x364>
  1e0003ac78:	52800020 	mov	w0, #0x1                   	// #1
  1e0003ac7c:	b9000260 	str	w0, [x19]
  1e0003ac80:	52800101 	mov	w1, #0x8                   	// #8
  1e0003ac84:	b85fc260 	ldur	w0, [x19, #-4]
  1e0003ac88:	72a00061 	movk	w1, #0x3, lsl #16
  1e0003ac8c:	121b6800 	and	w0, w0, #0xffffffe0
  1e0003ac90:	120d7000 	and	w0, w0, #0xfff8ffff
  1e0003ac94:	2a010000 	orr	w0, w0, w1
  1e0003ac98:	b81fc260 	stur	w0, [x19, #-4]
  1e0003ac9c:	b900027f 	str	wzr, [x19]
  1e0003aca0:	b9400260 	ldr	w0, [x19]
  1e0003aca4:	35ffffe0 	cbnz	w0, 1e0003aca0 <bl2_early_platform_setup2+0x394>
  1e0003aca8:	52800020 	mov	w0, #0x1                   	// #1
  1e0003acac:	b9000260 	str	w0, [x19]
  1e0003acb0:	529ffc01 	mov	w1, #0xffe0                	// #65504
  1e0003acb4:	52800122 	mov	w2, #0x9                   	// #9
  1e0003acb8:	b85fc260 	ldur	w0, [x19, #-4]
  1e0003acbc:	72bfff01 	movk	w1, #0xfff8, lsl #16
  1e0003acc0:	72a00062 	movk	w2, #0x3, lsl #16
  1e0003acc4:	0a010000 	and	w0, w0, w1
  1e0003acc8:	2a020000 	orr	w0, w0, w2
  1e0003accc:	b81fc260 	stur	w0, [x19, #-4]
  1e0003acd0:	b900027f 	str	wzr, [x19]
  1e0003acd4:	b9400260 	ldr	w0, [x19]
  1e0003acd8:	35ffffe0 	cbnz	w0, 1e0003acd4 <bl2_early_platform_setup2+0x3c8>
  1e0003acdc:	52800034 	mov	w20, #0x1                   	// #1
  1e0003ace0:	b9000274 	str	w20, [x19]
  1e0003ace4:	b85fc260 	ldur	w0, [x19, #-4]
  1e0003ace8:	0a010000 	and	w0, w0, w1
  1e0003acec:	52800141 	mov	w1, #0xa                   	// #10
  1e0003acf0:	72a00061 	movk	w1, #0x3, lsl #16
  1e0003acf4:	2a010000 	orr	w0, w0, w1
  1e0003acf8:	b81fc260 	stur	w0, [x19, #-4]
  1e0003acfc:	52800000 	mov	w0, #0x0                   	// #0
  1e0003ad00:	b900027f 	str	wzr, [x19]
  1e0003ad04:	97fffac4 	bl	1e00039814 <smmu_early_init>
  1e0003ad08:	2a1403e4 	mov	w4, w20
  1e0003ad0c:	9100e3e2 	add	x2, sp, #0x38
  1e0003ad10:	52800063 	mov	w3, #0x3                   	// #3
  1e0003ad14:	52800001 	mov	w1, #0x0                   	// #0
  1e0003ad18:	52800040 	mov	w0, #0x2                   	// #2
  1e0003ad1c:	97fff7ed 	bl	1e00038cd0 <ipm_samsung_write>
  1e0003ad20:	2a1403e3 	mov	w3, w20
  1e0003ad24:	52800162 	mov	w2, #0xb                   	// #11
  1e0003ad28:	52800001 	mov	w1, #0x0                   	// #0
  1e0003ad2c:	52800040 	mov	w0, #0x2                   	// #2
  1e0003ad30:	97fff806 	bl	1e00038d48 <ipm_samsung_send>
  1e0003ad34:	f0000000 	adrp	x0, 1e0003d000 <CSWTCH.192+0x80c>
  1e0003ad38:	911d0400 	add	x0, x0, #0x741
  1e0003ad3c:	97ffdc1e 	bl	1e00031db4 <tf_log>
  1e0003ad40:	b9400260 	ldr	w0, [x19]
  1e0003ad44:	35ffffe0 	cbnz	w0, 1e0003ad40 <bl2_early_platform_setup2+0x434>
  1e0003ad48:	52800020 	mov	w0, #0x1                   	// #1
  1e0003ad4c:	b9000260 	str	w0, [x19]
  1e0003ad50:	529ffc14 	mov	w20, #0xffe0                	// #65504
  1e0003ad54:	52800161 	mov	w1, #0xb                   	// #11
  1e0003ad58:	b85fc260 	ldur	w0, [x19, #-4]
  1e0003ad5c:	72bfff14 	movk	w20, #0xfff8, lsl #16
  1e0003ad60:	72a00061 	movk	w1, #0x3, lsl #16
  1e0003ad64:	0a140000 	and	w0, w0, w20
  1e0003ad68:	2a010000 	orr	w0, w0, w1
  1e0003ad6c:	b81fc260 	stur	w0, [x19, #-4]
  1e0003ad70:	b900027f 	str	wzr, [x19]
  1e0003ad74:	52800cc0 	mov	w0, #0x66                  	// #102
  1e0003ad78:	97fffb9f 	bl	1e00039bf4 <request_to_cmrt>
  1e0003ad7c:	b9400260 	ldr	w0, [x19]
  1e0003ad80:	35ffffe0 	cbnz	w0, 1e0003ad7c <bl2_early_platform_setup2+0x470>
  1e0003ad84:	52800020 	mov	w0, #0x1                   	// #1
  1e0003ad88:	b9000260 	str	w0, [x19]
  1e0003ad8c:	52800181 	mov	w1, #0xc                   	// #12
  1e0003ad90:	b85fc260 	ldur	w0, [x19, #-4]
  1e0003ad94:	72a00061 	movk	w1, #0x3, lsl #16
  1e0003ad98:	0a140000 	and	w0, w0, w20
  1e0003ad9c:	2a010000 	orr	w0, w0, w1
  1e0003ada0:	b81fc260 	stur	w0, [x19, #-4]
  1e0003ada4:	b900027f 	str	wzr, [x19]
  1e0003ada8:	f0000000 	adrp	x0, 1e0003d000 <CSWTCH.192+0x80c>
  1e0003adac:	911d6400 	add	x0, x0, #0x759
  1e0003adb0:	97ffdc01 	bl	1e00031db4 <tf_log>
  1e0003adb4:	f0000000 	adrp	x0, 1e0003d000 <CSWTCH.192+0x80c>
  1e0003adb8:	911dd800 	add	x0, x0, #0x776
  1e0003adbc:	97ffdbfe 	bl	1e00031db4 <tf_log>
  1e0003adc0:	b9400260 	ldr	w0, [x19]
  1e0003adc4:	35ffffe0 	cbnz	w0, 1e0003adc0 <bl2_early_platform_setup2+0x4b4>
  1e0003adc8:	52800020 	mov	w0, #0x1                   	// #1
  1e0003adcc:	b9000260 	str	w0, [x19]
  1e0003add0:	529ffc14 	mov	w20, #0xffe0                	// #65504
  1e0003add4:	528001a1 	mov	w1, #0xd                   	// #13
  1e0003add8:	b85fc260 	ldur	w0, [x19, #-4]
  1e0003addc:	72bfff14 	movk	w20, #0xfff8, lsl #16
  1e0003ade0:	72a00061 	movk	w1, #0x3, lsl #16
  1e0003ade4:	0a140000 	and	w0, w0, w20
  1e0003ade8:	2a010000 	orr	w0, w0, w1
  1e0003adec:	b81fc260 	stur	w0, [x19, #-4]
  1e0003adf0:	b900027f 	str	wzr, [x19]
  1e0003adf4:	52800ce0 	mov	w0, #0x67                  	// #103
  1e0003adf8:	97fffb7f 	bl	1e00039bf4 <request_to_cmrt>
  1e0003adfc:	b9400260 	ldr	w0, [x19]
  1e0003ae00:	35ffffe0 	cbnz	w0, 1e0003adfc <bl2_early_platform_setup2+0x4f0>
  1e0003ae04:	52800020 	mov	w0, #0x1                   	// #1
  1e0003ae08:	b9000260 	str	w0, [x19]
  1e0003ae0c:	528001c1 	mov	w1, #0xe                   	// #14
  1e0003ae10:	b85fc260 	ldur	w0, [x19, #-4]
  1e0003ae14:	72a00061 	movk	w1, #0x3, lsl #16
  1e0003ae18:	0a140000 	and	w0, w0, w20
  1e0003ae1c:	2a010000 	orr	w0, w0, w1
  1e0003ae20:	b81fc260 	stur	w0, [x19, #-4]
  1e0003ae24:	b900027f 	str	wzr, [x19]
  1e0003ae28:	f0000000 	adrp	x0, 1e0003d000 <CSWTCH.192+0x80c>
  1e0003ae2c:	911e4800 	add	x0, x0, #0x792
  1e0003ae30:	97ffdbe1 	bl	1e00031db4 <tf_log>
  1e0003ae34:	f0000000 	adrp	x0, 1e0003d000 <CSWTCH.192+0x80c>
  1e0003ae38:	911ecc00 	add	x0, x0, #0x7b3
  1e0003ae3c:	97ffdbde 	bl	1e00031db4 <tf_log>
  1e0003ae40:	b9400260 	ldr	w0, [x19]
  1e0003ae44:	35ffffe0 	cbnz	w0, 1e0003ae40 <bl2_early_platform_setup2+0x534>
  1e0003ae48:	52800020 	mov	w0, #0x1                   	// #1
  1e0003ae4c:	b9000260 	str	w0, [x19]
  1e0003ae50:	529ffc14 	mov	w20, #0xffe0                	// #65504
  1e0003ae54:	528001e1 	mov	w1, #0xf                   	// #15
  1e0003ae58:	b85fc260 	ldur	w0, [x19, #-4]
  1e0003ae5c:	72bfff14 	movk	w20, #0xfff8, lsl #16
  1e0003ae60:	72a00061 	movk	w1, #0x3, lsl #16
  1e0003ae64:	0a140000 	and	w0, w0, w20
  1e0003ae68:	2a010000 	orr	w0, w0, w1
  1e0003ae6c:	b81fc260 	stur	w0, [x19, #-4]
  1e0003ae70:	b900027f 	str	wzr, [x19]
  1e0003ae74:	52800d00 	mov	w0, #0x68                  	// #104
  1e0003ae78:	97fffb5f 	bl	1e00039bf4 <request_to_cmrt>
  1e0003ae7c:	b9400260 	ldr	w0, [x19]
  1e0003ae80:	35ffffe0 	cbnz	w0, 1e0003ae7c <bl2_early_platform_setup2+0x570>
  1e0003ae84:	52800020 	mov	w0, #0x1                   	// #1
  1e0003ae88:	b9000260 	str	w0, [x19]
  1e0003ae8c:	52800201 	mov	w1, #0x10                  	// #16
  1e0003ae90:	b85fc260 	ldur	w0, [x19, #-4]
  1e0003ae94:	72a00061 	movk	w1, #0x3, lsl #16
  1e0003ae98:	0a140000 	and	w0, w0, w20
  1e0003ae9c:	2a010000 	orr	w0, w0, w1
  1e0003aea0:	b81fc260 	stur	w0, [x19, #-4]
  1e0003aea4:	b900027f 	str	wzr, [x19]
  1e0003aea8:	f0000000 	adrp	x0, 1e0003d000 <CSWTCH.192+0x80c>
  1e0003aeac:	911f2c00 	add	x0, x0, #0x7cb
  1e0003aeb0:	97ffdbc1 	bl	1e00031db4 <tf_log>
  1e0003aeb4:	f0000000 	adrp	x0, 1e0003d000 <CSWTCH.192+0x80c>
  1e0003aeb8:	911fa000 	add	x0, x0, #0x7e8
  1e0003aebc:	97ffdbbe 	bl	1e00031db4 <tf_log>
  1e0003aec0:	b9400260 	ldr	w0, [x19]
  1e0003aec4:	35ffffe0 	cbnz	w0, 1e0003aec0 <bl2_early_platform_setup2+0x5b4>
  1e0003aec8:	52800020 	mov	w0, #0x1                   	// #1
  1e0003aecc:	b9000260 	str	w0, [x19]
  1e0003aed0:	529ffc14 	mov	w20, #0xffe0                	// #65504
  1e0003aed4:	52800221 	mov	w1, #0x11                  	// #17
  1e0003aed8:	b85fc260 	ldur	w0, [x19, #-4]
  1e0003aedc:	72bfff14 	movk	w20, #0xfff8, lsl #16
  1e0003aee0:	72a00061 	movk	w1, #0x3, lsl #16
  1e0003aee4:	0a140000 	and	w0, w0, w20
  1e0003aee8:	2a010000 	orr	w0, w0, w1
  1e0003aeec:	b81fc260 	stur	w0, [x19, #-4]
  1e0003aef0:	b900027f 	str	wzr, [x19]
  1e0003aef4:	52800d20 	mov	w0, #0x69                  	// #105
  1e0003aef8:	97fffb3f 	bl	1e00039bf4 <request_to_cmrt>
  1e0003aefc:	b9400260 	ldr	w0, [x19]
  1e0003af00:	35ffffe0 	cbnz	w0, 1e0003aefc <bl2_early_platform_setup2+0x5f0>
  1e0003af04:	52800020 	mov	w0, #0x1                   	// #1
  1e0003af08:	b9000260 	str	w0, [x19]
  1e0003af0c:	52800241 	mov	w1, #0x12                  	// #18
  1e0003af10:	b85fc260 	ldur	w0, [x19, #-4]
  1e0003af14:	72a00061 	movk	w1, #0x3, lsl #16
  1e0003af18:	0a140000 	and	w0, w0, w20
  1e0003af1c:	2a010000 	orr	w0, w0, w1
  1e0003af20:	b81fc260 	stur	w0, [x19, #-4]
  1e0003af24:	f0000000 	adrp	x0, 1e0003d000 <CSWTCH.192+0x80c>
  1e0003af28:	91201000 	add	x0, x0, #0x804
  1e0003af2c:	b900027f 	str	wzr, [x19]
  1e0003af30:	97ffdba1 	bl	1e00031db4 <tf_log>
  1e0003af34:	b9400260 	ldr	w0, [x19]
  1e0003af38:	35ffffe0 	cbnz	w0, 1e0003af34 <bl2_early_platform_setup2+0x628>
  1e0003af3c:	52800020 	mov	w0, #0x1                   	// #1
  1e0003af40:	b9000260 	str	w0, [x19]
  1e0003af44:	529ffc15 	mov	w21, #0xffe0                	// #65504
  1e0003af48:	528002e1 	mov	w1, #0x17                  	// #23
  1e0003af4c:	b85fc260 	ldur	w0, [x19, #-4]
  1e0003af50:	72bfff15 	movk	w21, #0xfff8, lsl #16
  1e0003af54:	72a00061 	movk	w1, #0x3, lsl #16
  1e0003af58:	0a150000 	and	w0, w0, w21
  1e0003af5c:	2a010000 	orr	w0, w0, w1
  1e0003af60:	b81fc260 	stur	w0, [x19, #-4]
  1e0003af64:	b900027f 	str	wzr, [x19]
  1e0003af68:	97ffd98a 	bl	1e00031590 <rebel_bakery_lock_init>
  1e0003af6c:	f0000000 	adrp	x0, 1e0003d000 <CSWTCH.192+0x80c>
  1e0003af70:	91234000 	add	x0, x0, #0x8d0
  1e0003af74:	97ffdb90 	bl	1e00031db4 <tf_log>
  1e0003af78:	b9400260 	ldr	w0, [x19]
  1e0003af7c:	35ffffe0 	cbnz	w0, 1e0003af78 <bl2_early_platform_setup2+0x66c>
  1e0003af80:	52800034 	mov	w20, #0x1                   	// #1
  1e0003af84:	b9000274 	str	w20, [x19]
  1e0003af88:	52800301 	mov	w1, #0x18                  	// #24
  1e0003af8c:	d2a28203 	mov	x3, #0x14100000            	// #336592896
  1e0003af90:	b85fc260 	ldur	w0, [x19, #-4]
  1e0003af94:	72a00061 	movk	w1, #0x3, lsl #16
  1e0003af98:	52800002 	mov	w2, #0x0                   	// #0
  1e0003af9c:	0a150000 	and	w0, w0, w21
  1e0003afa0:	2a010000 	orr	w0, w0, w1
  1e0003afa4:	b81fc260 	stur	w0, [x19, #-4]
  1e0003afa8:	b900027f 	str	wzr, [x19]
  1e0003afac:	2a1403e1 	mov	w1, w20
  1e0003afb0:	52800000 	mov	w0, #0x0                   	// #0
  1e0003afb4:	94000013 	bl	1e0003b000 <plat_set_cpu_rvbar>
  1e0003afb8:	2a1403e1 	mov	w1, w20
  1e0003afbc:	52800000 	mov	w0, #0x0                   	// #0
  1e0003afc0:	9400001c 	bl	1e0003b030 <plat_pmu_cl_on>
  1e0003afc4:	2a1403e1 	mov	w1, w20
  1e0003afc8:	52800002 	mov	w2, #0x0                   	// #0
  1e0003afcc:	52800000 	mov	w0, #0x0                   	// #0
  1e0003afd0:	94000026 	bl	1e0003b068 <plat_pmu_cpu_on>
  1e0003afd4:	a94153f3 	ldp	x19, x20, [sp, #16]
  1e0003afd8:	f94013f5 	ldr	x21, [sp, #32]
  1e0003afdc:	a8c47bfd 	ldp	x29, x30, [sp], #64
  1e0003afe0:	d65f03c0 	ret

0000001e0003afe4 <bl2_platform_setup>:
  1e0003afe4:	d65f03c0 	ret

0000001e0003afe8 <plat_get_syscnt_freq2>:
  1e0003afe8:	528ca000 	mov	w0, #0x6500                	// #25856
  1e0003afec:	72a3b9a0 	movk	w0, #0x1dcd, lsl #16
  1e0003aff0:	d65f03c0 	ret

0000001e0003aff4 <plat_flush_next_bl_params>:
  1e0003aff4:	17ffdae2 	b	1e00031b7c <flush_bl_params_desc>

0000001e0003aff8 <plat_get_bl_image_load_info>:
  1e0003aff8:	17ffdb01 	b	1e00031bfc <get_bl_load_info_from_mem_params_desc>

0000001e0003affc <plat_get_next_bl_params>:
  1e0003affc:	17ffdb19 	b	1e00031c60 <get_next_bl_params_from_mem_params_desc>

0000001e0003b000 <plat_set_cpu_rvbar>:
  1e0003b000:	531d7042 	lsl	w2, w2, #3
  1e0003b004:	53092021 	lsl	w1, w1, #23
  1e0003b008:	8b020021 	add	x1, x1, x2
  1e0003b00c:	8b009420 	add	x0, x1, x0, lsl #37
  1e0003b010:	d2806a81 	mov	x1, #0x354                 	// #852
  1e0003b014:	f2be2021 	movk	x1, #0xf101, lsl #16
  1e0003b018:	f2c003e1 	movk	x1, #0x1f, lsl #32
  1e0003b01c:	b8216803 	str	w3, [x0, x1]
  1e0003b020:	91001021 	add	x1, x1, #0x4
  1e0003b024:	d360fc63 	lsr	x3, x3, #32
  1e0003b028:	b8216803 	str	w3, [x0, x1]
  1e0003b02c:	d65f03c0 	ret

0000001e0003b030 <plat_pmu_cl_on>:
  1e0003b030:	531a6421 	lsl	w1, w1, #6
  1e0003b034:	5281e1e2 	mov	w2, #0xf0f                 	// #3855
  1e0003b038:	8b009420 	add	x0, x1, x0, lsl #37
  1e0003b03c:	d2848001 	mov	x1, #0x2400                	// #9216
  1e0003b040:	f2be0461 	movk	x1, #0xf023, lsl #16
  1e0003b044:	72a001e2 	movk	w2, #0xf, lsl #16
  1e0003b048:	f2c003e1 	movk	x1, #0x1f, lsl #32
  1e0003b04c:	b8216802 	str	w2, [x0, x1]
  1e0003b050:	91001021 	add	x1, x1, #0x4
  1e0003b054:	b8616802 	ldr	w2, [x0, x1]
  1e0003b058:	12000c42 	and	w2, w2, #0xf
  1e0003b05c:	71003c5f 	cmp	w2, #0xf
  1e0003b060:	54ffffa1 	b.ne	1e0003b054 <plat_pmu_cl_on+0x24>  // b.any
  1e0003b064:	d65f03c0 	ret

0000001e0003b068 <plat_pmu_cpu_on>:
  1e0003b068:	53196042 	lsl	w2, w2, #7
  1e0003b06c:	53175821 	lsl	w1, w1, #9
  1e0003b070:	8b020021 	add	x1, x1, x2
  1e0003b074:	528001e2 	mov	w2, #0xf                   	// #15
  1e0003b078:	8b009420 	add	x0, x1, x0, lsl #37
  1e0003b07c:	d2840001 	mov	x1, #0x2000                	// #8192
  1e0003b080:	f2be0461 	movk	x1, #0xf023, lsl #16
  1e0003b084:	72b001e2 	movk	w2, #0x800f, lsl #16
  1e0003b088:	f2c003e1 	movk	x1, #0x1f, lsl #32
  1e0003b08c:	b8216802 	str	w2, [x0, x1]
  1e0003b090:	91001021 	add	x1, x1, #0x4
  1e0003b094:	b8616802 	ldr	w2, [x0, x1]
  1e0003b098:	12000c42 	and	w2, w2, #0xf
  1e0003b09c:	71003c5f 	cmp	w2, #0xf
  1e0003b0a0:	54ffffa1 	b.ne	1e0003b094 <plat_pmu_cpu_on+0x2c>  // b.any
  1e0003b0a4:	d65f03c0 	ret

0000001e0003b0a8 <plat_set_secondary_chiplet_cnt>:
  1e0003b0a8:	d2810802 	mov	x2, #0x840                 	// #2112
  1e0003b0ac:	d35b6800 	lsl	x0, x0, #37
  1e0003b0b0:	f2be0462 	movk	x2, #0xf023, lsl #16
  1e0003b0b4:	f2c003e2 	movk	x2, #0x1f, lsl #32
  1e0003b0b8:	b8226801 	str	w1, [x0, x2]
  1e0003b0bc:	d65f03c0 	ret

0000001e0003b0c0 <pmu_get_bootmode>:
  1e0003b0c0:	d2be0460 	mov	x0, #0xf0230000            	// #4028825600
  1e0003b0c4:	f2c003e0 	movk	x0, #0x1f, lsl #32
  1e0003b0c8:	b9400000 	ldr	w0, [x0]
  1e0003b0cc:	d65f03c0 	ret

0000001e0003b0d0 <pmu_reset_blk_dram>:
  1e0003b0d0:	a9bd7bfd 	stp	x29, x30, [sp, #-48]!
  1e0003b0d4:	910003fd 	mov	x29, sp
  1e0003b0d8:	f90013f5 	str	x21, [sp, #32]
  1e0003b0dc:	d2800b15 	mov	x21, #0x58                  	// #88
  1e0003b0e0:	f2be0475 	movk	x21, #0xf023, lsl #16
  1e0003b0e4:	a90153f3 	stp	x19, x20, [sp, #16]
  1e0003b0e8:	d35b6813 	lsl	x19, x0, #37
  1e0003b0ec:	f2c003f5 	movk	x21, #0x1f, lsl #32
  1e0003b0f0:	52bfffe0 	mov	w0, #0xffff0000            	// #-65536
  1e0003b0f4:	b8356a60 	str	w0, [x19, x21]
  1e0003b0f8:	d0000000 	adrp	x0, 1e0003d000 <CSWTCH.192+0x80c>
  1e0003b0fc:	9123cc00 	add	x0, x0, #0x8f3
  1e0003b100:	97ffdb2d 	bl	1e00031db4 <tf_log>
  1e0003b104:	d2884100 	mov	x0, #0x4208                	// #16904
  1e0003b108:	8b0002b4 	add	x20, x21, x0
  1e0003b10c:	52800140 	mov	w0, #0xa                   	// #10
  1e0003b110:	b8346a7f 	str	wzr, [x19, x20]
  1e0003b114:	97ffe214 	bl	1e00033964 <mdelay>
  1e0003b118:	528001e0 	mov	w0, #0xf                   	// #15
  1e0003b11c:	b8346a60 	str	w0, [x19, x20]
  1e0003b120:	91001294 	add	x20, x20, #0x4
  1e0003b124:	52800140 	mov	w0, #0xa                   	// #10
  1e0003b128:	97ffe20f 	bl	1e00033964 <mdelay>
  1e0003b12c:	b8746a60 	ldr	w0, [x19, x20]
  1e0003b130:	12000c00 	and	w0, w0, #0xf
  1e0003b134:	71003c1f 	cmp	w0, #0xf
  1e0003b138:	54ffffa1 	b.ne	1e0003b12c <pmu_reset_blk_dram+0x5c>  // b.any
  1e0003b13c:	d0000000 	adrp	x0, 1e0003d000 <CSWTCH.192+0x80c>
  1e0003b140:	91243000 	add	x0, x0, #0x90c
  1e0003b144:	97ffdb1c 	bl	1e00031db4 <tf_log>
  1e0003b148:	b8356a7f 	str	wzr, [x19, x21]
  1e0003b14c:	a94153f3 	ldp	x19, x20, [sp, #16]
  1e0003b150:	f94013f5 	ldr	x21, [sp, #32]
  1e0003b154:	a8c37bfd 	ldp	x29, x30, [sp], #48
  1e0003b158:	d65f03c0 	ret

0000001e0003b15c <plat_core_pos_by_mpidr>:
  1e0003b15c:	92409c03 	and	x3, x0, #0xffffffffff
  1e0003b160:	d348fc01 	lsr	x1, x0, #8
  1e0003b164:	9260dc63 	and	x3, x3, #0xffffffff00ffffff
  1e0003b168:	12001c02 	and	w2, w0, #0xff
  1e0003b16c:	d29fffe4 	mov	x4, #0xffff                	// #65535
  1e0003b170:	eb04007f 	cmp	x3, x4
  1e0003b174:	540000e8 	b.hi	1e0003b190 <plat_core_pos_by_mpidr+0x34>  // b.pmore
  1e0003b178:	121e1400 	and	w0, w0, #0xfc
  1e0003b17c:	121f1821 	and	w1, w1, #0xfe
  1e0003b180:	2a000021 	orr	w1, w1, w0
  1e0003b184:	7100003f 	cmp	w1, #0x0
  1e0003b188:	5a9f0040 	csinv	w0, w2, wzr, eq	// eq = none
  1e0003b18c:	d65f03c0 	ret
  1e0003b190:	12800000 	mov	w0, #0xffffffff            	// #-1
  1e0003b194:	17fffffe 	b	1e0003b18c <plat_core_pos_by_mpidr+0x30>

0000001e0003b198 <asm_assert>:
  1e0003b198:	940000fd 	bl	1e0003b58c <plat_panic_handler>
  1e0003b19c:	d503201f 	nop

0000001e0003b1a0 <asm_print_str>:
  1e0003b1a0:	aa1e03e3 	mov	x3, x30
  1e0003b1a4:	38401480 	ldrb	w0, [x4], #1
  1e0003b1a8:	b4000060 	cbz	x0, 1e0003b1b4 <asm_print_str+0x14>
  1e0003b1ac:	9400010f 	bl	1e0003b5e8 <plat_crash_console_putc>
  1e0003b1b0:	17fffffd 	b	1e0003b1a4 <asm_print_str+0x4>
  1e0003b1b4:	d65f0060 	ret	x3

0000001e0003b1b8 <asm_print_hex>:
  1e0003b1b8:	d2800805 	mov	x5, #0x40                  	// #64

0000001e0003b1bc <asm_print_hex_bits>:
  1e0003b1bc:	aa1e03e3 	mov	x3, x30
  1e0003b1c0:	d10010a5 	sub	x5, x5, #0x4
  1e0003b1c4:	9ac52480 	lsr	x0, x4, x5
  1e0003b1c8:	92400c00 	and	x0, x0, #0xf
  1e0003b1cc:	f100281f 	cmp	x0, #0xa
  1e0003b1d0:	54000043 	b.cc	1e0003b1d8 <asm_print_hex_bits+0x1c>  // b.lo, b.ul, b.last
  1e0003b1d4:	91009c00 	add	x0, x0, #0x27
  1e0003b1d8:	9100c000 	add	x0, x0, #0x30
  1e0003b1dc:	94000103 	bl	1e0003b5e8 <plat_crash_console_putc>
  1e0003b1e0:	b5ffff05 	cbnz	x5, 1e0003b1c0 <asm_print_hex_bits+0x4>
  1e0003b1e4:	d65f0060 	ret	x3

0000001e0003b1e8 <asm_print_newline>:
  1e0003b1e8:	d2800140 	mov	x0, #0xa                   	// #10
  1e0003b1ec:	140000ff 	b	1e0003b5e8 <plat_crash_console_putc>

0000001e0003b1f0 <el3_panic>:
  1e0003b1f0:	aa1e03e6 	mov	x6, x30
  1e0003b1f4:	940000f5 	bl	1e0003b5c8 <plat_crash_console_init>
  1e0003b1f8:	b4000100 	cbz	x0, 1e0003b218 <_panic_handler>
  1e0003b1fc:	10013d64 	adr	x4, 1e0003d9a8 <panic_msg>
  1e0003b200:	97ffffe8 	bl	1e0003b1a0 <asm_print_str>
  1e0003b204:	aa0603e4 	mov	x4, x6
  1e0003b208:	d1001084 	sub	x4, x4, #0x4
  1e0003b20c:	97ffffeb 	bl	1e0003b1b8 <asm_print_hex>
  1e0003b210:	97fffff6 	bl	1e0003b1e8 <asm_print_newline>
  1e0003b214:	940000f8 	bl	1e0003b5f4 <plat_crash_console_flush>

0000001e0003b218 <_panic_handler>:
  1e0003b218:	aa0603fe 	mov	x30, x6
  1e0003b21c:	140000dc 	b	1e0003b58c <plat_panic_handler>

0000001e0003b220 <console_16550_core_init>:
  1e0003b220:	b4000340 	cbz	x0, 1e0003b288 <init_fail>
  1e0003b224:	34000321 	cbz	w1, 1e0003b288 <init_fail>
  1e0003b228:	34000302 	cbz	w2, 1e0003b288 <init_fail>
  1e0003b22c:	531c6c42 	lsl	w2, w2, #4
  1e0003b230:	1ac20822 	udiv	w2, w1, w2
  1e0003b234:	12001c41 	and	w1, w2, #0xff
  1e0003b238:	53087c42 	lsr	w2, w2, #8
  1e0003b23c:	12001c42 	and	w2, w2, #0xff
  1e0003b240:	b9400c03 	ldr	w3, [x0, #12]
  1e0003b244:	32190063 	orr	w3, w3, #0x80
  1e0003b248:	b9000c03 	str	w3, [x0, #12]
  1e0003b24c:	b9000001 	str	w1, [x0]
  1e0003b250:	b9000402 	str	w2, [x0, #4]
  1e0003b254:	12801002 	mov	w2, #0xffffff7f            	// #-129
  1e0003b258:	0a020063 	and	w3, w3, w2
  1e0003b25c:	b9000c03 	str	w3, [x0, #12]
  1e0003b260:	52800063 	mov	w3, #0x3                   	// #3
  1e0003b264:	b9000c03 	str	w3, [x0, #12]
  1e0003b268:	52800003 	mov	w3, #0x0                   	// #0
  1e0003b26c:	b9000403 	str	w3, [x0, #4]
  1e0003b270:	52800123 	mov	w3, #0x9                   	// #9
  1e0003b274:	b9000803 	str	w3, [x0, #8]
  1e0003b278:	52800063 	mov	w3, #0x3                   	// #3
  1e0003b27c:	b9001003 	str	w3, [x0, #16]
  1e0003b280:	52800020 	mov	w0, #0x1                   	// #1
  1e0003b284:	d65f03c0 	ret

0000001e0003b288 <init_fail>:
  1e0003b288:	52800000 	mov	w0, #0x0                   	// #0
  1e0003b28c:	d65f03c0 	ret

0000001e0003b290 <console_16550_register>:
  1e0003b290:	aa1e03e7 	mov	x7, x30
  1e0003b294:	aa0303e6 	mov	x6, x3
  1e0003b298:	b4000206 	cbz	x6, 1e0003b2d8 <register_fail>
  1e0003b29c:	f90010c0 	str	x0, [x6, #32]
  1e0003b2a0:	34000061 	cbz	w1, 1e0003b2ac <register_16550>
  1e0003b2a4:	97ffffdf 	bl	1e0003b220 <console_16550_core_init>
  1e0003b2a8:	b4000180 	cbz	x0, 1e0003b2d8 <register_fail>

0000001e0003b2ac <register_16550>:
  1e0003b2ac:	aa0603e0 	mov	x0, x6
  1e0003b2b0:	aa0703fe 	mov	x30, x7
  1e0003b2b4:	90000001 	adrp	x1, 1e0003b000 <plat_set_cpu_rvbar>
  1e0003b2b8:	910ca021 	add	x1, x1, #0x328
  1e0003b2bc:	f9000801 	str	x1, [x0, #16]
  1e0003b2c0:	90000001 	adrp	x1, 1e0003b000 <plat_set_cpu_rvbar>
  1e0003b2c4:	910db021 	add	x1, x1, #0x36c
  1e0003b2c8:	f9000c01 	str	x1, [x0, #24]
  1e0003b2cc:	d28000a1 	mov	x1, #0x5                   	// #5
  1e0003b2d0:	f9000401 	str	x1, [x0, #8]
  1e0003b2d4:	17ffe114 	b	1e00033724 <console_register>

0000001e0003b2d8 <register_fail>:
  1e0003b2d8:	d65f00e0 	ret	x7

0000001e0003b2dc <console_16550_core_putc>:
  1e0003b2dc:	f100003f 	cmp	x1, #0x0
  1e0003b2e0:	54000081 	b.ne	1e0003b2f0 <console_16550_core_putc+0x14>  // b.any
  1e0003b2e4:	300136a0 	adr	x0, 1e0003d9b9 <panic_msg+0x11>
  1e0003b2e8:	d2801221 	mov	x1, #0x91                  	// #145
  1e0003b2ec:	17ffffab 	b	1e0003b198 <asm_assert>
  1e0003b2f0:	7100281f 	cmp	w0, #0xa
  1e0003b2f4:	540000e1 	b.ne	1e0003b310 <console_16550_core_putc+0x34>  // b.any
  1e0003b2f8:	b9401422 	ldr	w2, [x1, #20]
  1e0003b2fc:	121b0442 	and	w2, w2, #0x60
  1e0003b300:	7101805f 	cmp	w2, #0x60
  1e0003b304:	54ffffa1 	b.ne	1e0003b2f8 <console_16550_core_putc+0x1c>  // b.any
  1e0003b308:	528001a2 	mov	w2, #0xd                   	// #13
  1e0003b30c:	b9000022 	str	w2, [x1]
  1e0003b310:	b9401422 	ldr	w2, [x1, #20]
  1e0003b314:	121b0442 	and	w2, w2, #0x60
  1e0003b318:	7101805f 	cmp	w2, #0x60
  1e0003b31c:	54ffffa1 	b.ne	1e0003b310 <console_16550_core_putc+0x34>  // b.any
  1e0003b320:	b9000020 	str	w0, [x1]
  1e0003b324:	d65f03c0 	ret

0000001e0003b328 <console_16550_putc>:
  1e0003b328:	f100003f 	cmp	x1, #0x0
  1e0003b32c:	54000081 	b.ne	1e0003b33c <console_16550_putc+0x14>  // b.any
  1e0003b330:	30013440 	adr	x0, 1e0003d9b9 <panic_msg+0x11>
  1e0003b334:	d28016a1 	mov	x1, #0xb5                  	// #181
  1e0003b338:	17ffff98 	b	1e0003b198 <asm_assert>
  1e0003b33c:	f9401021 	ldr	x1, [x1, #32]
  1e0003b340:	17ffffe7 	b	1e0003b2dc <console_16550_core_putc>

0000001e0003b344 <console_16550_core_flush>:
  1e0003b344:	f100001f 	cmp	x0, #0x0
  1e0003b348:	54000081 	b.ne	1e0003b358 <console_16550_core_flush+0x14>  // b.any
  1e0003b34c:	30013360 	adr	x0, 1e0003d9b9 <panic_msg+0x11>
  1e0003b350:	d2801e81 	mov	x1, #0xf4                  	// #244
  1e0003b354:	17ffff91 	b	1e0003b198 <asm_assert>
  1e0003b358:	b9401401 	ldr	w1, [x0, #20]
  1e0003b35c:	121b0421 	and	w1, w1, #0x60
  1e0003b360:	7101803f 	cmp	w1, #0x60
  1e0003b364:	54ffffa1 	b.ne	1e0003b358 <console_16550_core_flush+0x14>  // b.any
  1e0003b368:	d65f03c0 	ret

0000001e0003b36c <console_16550_flush>:
  1e0003b36c:	f100001f 	cmp	x0, #0x0
  1e0003b370:	54000081 	b.ne	1e0003b380 <console_16550_flush+0x14>  // b.any
  1e0003b374:	30013220 	adr	x0, 1e0003d9b9 <panic_msg+0x11>
  1e0003b378:	d2802181 	mov	x1, #0x10c                 	// #268
  1e0003b37c:	17ffff87 	b	1e0003b198 <asm_assert>
  1e0003b380:	f9401000 	ldr	x0, [x0, #32]
  1e0003b384:	17fffff0 	b	1e0003b344 <console_16550_core_flush>

0000001e0003b388 <flush_dcache_range>:
  1e0003b388:	b40001a1 	cbz	x1, 1e0003b3bc <exit_loop_civac>
  1e0003b38c:	d53b0023 	mrs	x3, ctr_el0
  1e0003b390:	d3504c63 	ubfx	x3, x3, #16, #4
  1e0003b394:	d2800082 	mov	x2, #0x4                   	// #4
  1e0003b398:	9ac32042 	lsl	x2, x2, x3
  1e0003b39c:	8b010001 	add	x1, x0, x1
  1e0003b3a0:	d1000443 	sub	x3, x2, #0x1
  1e0003b3a4:	8a230000 	bic	x0, x0, x3

0000001e0003b3a8 <loop_civac>:
  1e0003b3a8:	d50b7e20 	dc	civac, x0
  1e0003b3ac:	8b020000 	add	x0, x0, x2
  1e0003b3b0:	eb01001f 	cmp	x0, x1
  1e0003b3b4:	54ffffa3 	b.cc	1e0003b3a8 <loop_civac>  // b.lo, b.ul, b.last
  1e0003b3b8:	d5033f9f 	dsb	sy

0000001e0003b3bc <exit_loop_civac>:
  1e0003b3bc:	d65f03c0 	ret

0000001e0003b3c0 <inv_dcache_range>:
  1e0003b3c0:	b40001a1 	cbz	x1, 1e0003b3f4 <exit_loop_ivac>
  1e0003b3c4:	d53b0023 	mrs	x3, ctr_el0
  1e0003b3c8:	d3504c63 	ubfx	x3, x3, #16, #4
  1e0003b3cc:	d2800082 	mov	x2, #0x4                   	// #4
  1e0003b3d0:	9ac32042 	lsl	x2, x2, x3
  1e0003b3d4:	8b010001 	add	x1, x0, x1
  1e0003b3d8:	d1000443 	sub	x3, x2, #0x1
  1e0003b3dc:	8a230000 	bic	x0, x0, x3

0000001e0003b3e0 <loop_ivac>:
  1e0003b3e0:	d5087620 	dc	ivac, x0
  1e0003b3e4:	8b020000 	add	x0, x0, x2
  1e0003b3e8:	eb01001f 	cmp	x0, x1
  1e0003b3ec:	54ffffa3 	b.cc	1e0003b3e0 <loop_ivac>  // b.lo, b.ul, b.last
  1e0003b3f0:	d5033f9f 	dsb	sy

0000001e0003b3f4 <exit_loop_ivac>:
  1e0003b3f4:	d65f03c0 	ret

0000001e0003b3f8 <smc>:
  1e0003b3f8:	d4000003 	smc	#0x0

0000001e0003b3fc <zeromem>:
  1e0003b3fc:	8b010002 	add	x2, x0, x1
  1e0003b400:	1400003b 	b	1e0003b4ec <zero_normalmem+0xe8>

0000001e0003b404 <zero_normalmem>:
  1e0003b404:	d5381004 	mrs	x4, sctlr_el1
  1e0003b408:	f240009f 	tst	x4, #0x1
  1e0003b40c:	54000081 	b.ne	1e0003b41c <zero_normalmem+0x18>  // b.any
  1e0003b410:	30012e80 	adr	x0, 1e0003d9e1 <panic_msg+0x39>
  1e0003b414:	d2801521 	mov	x1, #0xa9                  	// #169
  1e0003b418:	17ffff60 	b	1e0003b198 <asm_assert>
  1e0003b41c:	8b010002 	add	x2, x0, x1
  1e0003b420:	d53b00e3 	mrs	x3, dczid_el0
  1e0003b424:	d3400c63 	ubfx	x3, x3, #0, #4
  1e0003b428:	d2800085 	mov	x5, #0x4                   	// #4
  1e0003b42c:	9ac320a3 	lsl	x3, x5, x3
  1e0003b430:	f100407f 	cmp	x3, #0x10
  1e0003b434:	54000082 	b.cs	1e0003b444 <zero_normalmem+0x40>  // b.hs, b.nlast
  1e0003b438:	30012d40 	adr	x0, 1e0003d9e1 <panic_msg+0x39>
  1e0003b43c:	d2801861 	mov	x1, #0xc3                  	// #195
  1e0003b440:	17ffff56 	b	1e0003b198 <asm_assert>
  1e0003b444:	eb03003f 	cmp	x1, x3
  1e0003b448:	54000523 	b.cc	1e0003b4ec <zero_normalmem+0xe8>  // b.lo, b.ul, b.last
  1e0003b44c:	d1000461 	sub	x1, x3, #0x1
  1e0003b450:	ea01001f 	tst	x0, x1
  1e0003b454:	54000260 	b.eq	1e0003b4a0 <zero_normalmem+0x9c>  // b.none
  1e0003b458:	aa010004 	orr	x4, x0, x1
  1e0003b45c:	91000484 	add	x4, x4, #0x1
  1e0003b460:	b4000464 	cbz	x4, 1e0003b4ec <zero_normalmem+0xe8>
  1e0003b464:	eb02009f 	cmp	x4, x2
  1e0003b468:	54000428 	b.hi	1e0003b4ec <zero_normalmem+0xe8>  // b.pmore
  1e0003b46c:	f2400c1f 	tst	x0, #0xf
  1e0003b470:	540000e0 	b.eq	1e0003b48c <zero_normalmem+0x88>  // b.none
  1e0003b474:	b2400c05 	orr	x5, x0, #0xf
  1e0003b478:	910004a5 	add	x5, x5, #0x1
  1e0003b47c:	b4000385 	cbz	x5, 1e0003b4ec <zero_normalmem+0xe8>
  1e0003b480:	3800141f 	strb	wzr, [x0], #1
  1e0003b484:	eb05001f 	cmp	x0, x5
  1e0003b488:	54ffffc1 	b.ne	1e0003b480 <zero_normalmem+0x7c>  // b.any
  1e0003b48c:	eb04001f 	cmp	x0, x4
  1e0003b490:	54000082 	b.cs	1e0003b4a0 <zero_normalmem+0x9c>  // b.hs, b.nlast
  1e0003b494:	a8817c1f 	stp	xzr, xzr, [x0], #16
  1e0003b498:	eb04001f 	cmp	x0, x4
  1e0003b49c:	54ffffc3 	b.cc	1e0003b494 <zero_normalmem+0x90>  // b.lo, b.ul, b.last
  1e0003b4a0:	8a210044 	bic	x4, x2, x1
  1e0003b4a4:	eb04001f 	cmp	x0, x4
  1e0003b4a8:	540000a2 	b.cs	1e0003b4bc <zero_normalmem+0xb8>  // b.hs, b.nlast
  1e0003b4ac:	d50b7420 	dc	zva, x0
  1e0003b4b0:	8b030000 	add	x0, x0, x3
  1e0003b4b4:	eb04001f 	cmp	x0, x4
  1e0003b4b8:	54ffffa3 	b.cc	1e0003b4ac <zero_normalmem+0xa8>  // b.lo, b.ul, b.last
  1e0003b4bc:	927cec44 	and	x4, x2, #0xfffffffffffffff0
  1e0003b4c0:	eb04001f 	cmp	x0, x4
  1e0003b4c4:	54000082 	b.cs	1e0003b4d4 <zero_normalmem+0xd0>  // b.hs, b.nlast
  1e0003b4c8:	a8817c1f 	stp	xzr, xzr, [x0], #16
  1e0003b4cc:	eb04001f 	cmp	x0, x4
  1e0003b4d0:	54ffffc3 	b.cc	1e0003b4c8 <zero_normalmem+0xc4>  // b.lo, b.ul, b.last
  1e0003b4d4:	eb02001f 	cmp	x0, x2
  1e0003b4d8:	54000080 	b.eq	1e0003b4e8 <zero_normalmem+0xe4>  // b.none
  1e0003b4dc:	3800141f 	strb	wzr, [x0], #1
  1e0003b4e0:	eb02001f 	cmp	x0, x2
  1e0003b4e4:	54ffffc1 	b.ne	1e0003b4dc <zero_normalmem+0xd8>  // b.any
  1e0003b4e8:	d65f03c0 	ret
  1e0003b4ec:	f2400c1f 	tst	x0, #0xf
  1e0003b4f0:	54fffe60 	b.eq	1e0003b4bc <zero_normalmem+0xb8>  // b.none
  1e0003b4f4:	b2400c04 	orr	x4, x0, #0xf
  1e0003b4f8:	91000484 	add	x4, x4, #0x1
  1e0003b4fc:	b4fffec4 	cbz	x4, 1e0003b4d4 <zero_normalmem+0xd0>
  1e0003b500:	eb02009f 	cmp	x4, x2
  1e0003b504:	54fffe82 	b.cs	1e0003b4d4 <zero_normalmem+0xd0>  // b.hs, b.nlast
  1e0003b508:	3800141f 	strb	wzr, [x0], #1
  1e0003b50c:	eb04001f 	cmp	x0, x4
  1e0003b510:	54ffffc1 	b.ne	1e0003b508 <zero_normalmem+0x104>  // b.any
  1e0003b514:	17ffffea 	b	1e0003b4bc <zero_normalmem+0xb8>

0000001e0003b518 <enable_mmu_direct_el1>:
  1e0003b518:	d5381001 	mrs	x1, sctlr_el1
  1e0003b51c:	f240003f 	tst	x1, #0x1
  1e0003b520:	54000080 	b.eq	1e0003b530 <enable_mmu_direct_el1+0x18>  // b.none
  1e0003b524:	100126c0 	adr	x0, 1e0003d9fc <panic_msg+0x54>
  1e0003b528:	d2800581 	mov	x1, #0x2c                  	// #44
  1e0003b52c:	17ffff1b 	b	1e0003b198 <asm_assert>
  1e0003b530:	d508871f 	tlbi	vmalle1
  1e0003b534:	aa0003e7 	mov	x7, x0
  1e0003b538:	d0000040 	adrp	x0, 1e00045000 <list+0x1e8>
  1e0003b53c:	91162000 	add	x0, x0, #0x588
  1e0003b540:	f9400001 	ldr	x1, [x0]
  1e0003b544:	d518a201 	msr	mair_el1, x1
  1e0003b548:	f9400402 	ldr	x2, [x0, #8]
  1e0003b54c:	d5182042 	msr	tcr_el1, x2
  1e0003b550:	f9400803 	ldr	x3, [x0, #16]
  1e0003b554:	d5182003 	msr	ttbr0_el1, x3
  1e0003b558:	d5033b9f 	dsb	ish
  1e0003b55c:	d5033fdf 	isb
  1e0003b560:	d5381004 	mrs	x4, sctlr_el1
  1e0003b564:	d28000a5 	mov	x5, #0x5                   	// #5
  1e0003b568:	f2a00105 	movk	x5, #0x8, lsl #16
  1e0003b56c:	aa050084 	orr	x4, x4, x5
  1e0003b570:	927df885 	and	x5, x4, #0xfffffffffffffffb
  1e0003b574:	f24000ff 	tst	x7, #0x1
  1e0003b578:	9a8410a4 	csel	x4, x5, x4, ne	// ne = any
  1e0003b57c:	d5181004 	msr	sctlr_el1, x4
  1e0003b580:	d5033fdf 	isb
  1e0003b584:	d65f03c0 	ret

0000001e0003b588 <plat_report_exception>:
  1e0003b588:	d65f03c0 	ret

0000001e0003b58c <plat_panic_handler>:
  1e0003b58c:	d503207f 	wfi
  1e0003b590:	17ffffff 	b	1e0003b58c <plat_panic_handler>

0000001e0003b594 <plat_get_my_stack>:
  1e0003b594:	aa1e03ea 	mov	x10, x30
  1e0003b598:	9400000a 	bl	1e0003b5c0 <plat_my_core_pos>
  1e0003b59c:	d0000022 	adrp	x2, 1e00041000 <__STACKS_START__+0xbc0>
  1e0003b5a0:	91110042 	add	x2, x2, #0x440
  1e0003b5a4:	d2820001 	mov	x1, #0x1000                	// #4096
  1e0003b5a8:	9b010800 	madd	x0, x0, x1, x2
  1e0003b5ac:	d65f0140 	ret	x10

0000001e0003b5b0 <plat_set_my_stack>:
  1e0003b5b0:	aa1e03e9 	mov	x9, x30
  1e0003b5b4:	97fffff8 	bl	1e0003b594 <plat_get_my_stack>
  1e0003b5b8:	9100001f 	mov	sp, x0
  1e0003b5bc:	d65f0120 	ret	x9

0000001e0003b5c0 <plat_my_core_pos>:
  1e0003b5c0:	d53800a0 	mrs	x0, mpidr_el1
  1e0003b5c4:	17fffee6 	b	1e0003b15c <plat_core_pos_by_mpidr>

0000001e0003b5c8 <plat_crash_console_init>:
  1e0003b5c8:	d2bf30a0 	mov	x0, #0xf9850000            	// #4186243072
  1e0003b5cc:	f2c003e0 	movk	x0, #0x1f, lsl #32
  1e0003b5d0:	d2965001 	mov	x1, #0xb280                	// #45696
  1e0003b5d4:	f2a1dcc1 	movk	x1, #0xee6, lsl #16
  1e0003b5d8:	d2984002 	mov	x2, #0xc200                	// #49664
  1e0003b5dc:	f2a00022 	movk	x2, #0x1, lsl #16
  1e0003b5e0:	52800003 	mov	w3, #0x0                   	// #0
  1e0003b5e4:	17ffff0f 	b	1e0003b220 <console_16550_core_init>

0000001e0003b5e8 <plat_crash_console_putc>:
  1e0003b5e8:	d2bf30a1 	mov	x1, #0xf9850000            	// #4186243072
  1e0003b5ec:	f2c003e1 	movk	x1, #0x1f, lsl #32
  1e0003b5f0:	17ffff3b 	b	1e0003b2dc <console_16550_core_putc>

0000001e0003b5f4 <plat_crash_console_flush>:
  1e0003b5f4:	d2bf30a0 	mov	x0, #0xf9850000            	// #4186243072
  1e0003b5f8:	f2c003e0 	movk	x0, #0x1f, lsl #32
  1e0003b5fc:	17ffff52 	b	1e0003b344 <console_16550_core_flush>

0000001e0003b600 <__assert>:
  1e0003b600:	d0000000 	adrp	x0, 1e0003d000 <CSWTCH.192+0x80c>
  1e0003b604:	9124b800 	add	x0, x0, #0x92e
  1e0003b608:	a9bf7bfd 	stp	x29, x30, [sp, #-16]!
  1e0003b60c:	910003fd 	mov	x29, sp
  1e0003b610:	97ffd887 	bl	1e0003182c <backtrace>
  1e0003b614:	97ffe09b 	bl	1e00033880 <console_flush>
  1e0003b618:	97ffffdd 	bl	1e0003b58c <plat_panic_handler>

0000001e0003b61c <memcpy>:
  1e0003b61c:	d2800003 	mov	x3, #0x0                   	// #0
  1e0003b620:	eb03005f 	cmp	x2, x3
  1e0003b624:	54000041 	b.ne	1e0003b62c <memcpy+0x10>  // b.any
  1e0003b628:	d65f03c0 	ret
  1e0003b62c:	38636824 	ldrb	w4, [x1, x3]
  1e0003b630:	38236804 	strb	w4, [x0, x3]
  1e0003b634:	91000463 	add	x3, x3, #0x1
  1e0003b638:	17fffffa 	b	1e0003b620 <memcpy+0x4>

0000001e0003b63c <memmove>:
  1e0003b63c:	cb010006 	sub	x6, x0, x1
  1e0003b640:	aa0003e5 	mov	x5, x0
  1e0003b644:	eb0200df 	cmp	x6, x2
  1e0003b648:	54000043 	b.cc	1e0003b650 <memmove+0x14>  // b.lo, b.ul, b.last
  1e0003b64c:	17fffff4 	b	1e0003b61c <memcpy>
  1e0003b650:	8b020024 	add	x4, x1, x2
  1e0003b654:	8b020000 	add	x0, x0, x2
  1e0003b658:	eb05001f 	cmp	x0, x5
  1e0003b65c:	54000041 	b.ne	1e0003b664 <memmove+0x28>  // b.any
  1e0003b660:	d65f03c0 	ret
  1e0003b664:	385ffc81 	ldrb	w1, [x4, #-1]!
  1e0003b668:	381ffc01 	strb	w1, [x0, #-1]!
  1e0003b66c:	17fffffb 	b	1e0003b658 <memmove+0x1c>

0000001e0003b670 <unsigned_num_print.part.0>:
  1e0003b670:	a9ba7bfd 	stp	x29, x30, [sp, #-96]!
  1e0003b674:	2a0103e1 	mov	w1, w1
  1e0003b678:	12000084 	and	w4, w4, #0x1
  1e0003b67c:	910003fd 	mov	x29, sp
  1e0003b680:	a90153f3 	stp	x19, x20, [sp, #16]
  1e0003b684:	12001c54 	and	w20, w2, #0xff
  1e0003b688:	d2800013 	mov	x19, #0x0                   	// #0
  1e0003b68c:	a9025bf5 	stp	x21, x22, [sp, #32]
  1e0003b690:	2a0303f6 	mov	w22, w3
  1e0003b694:	910123f5 	add	x21, sp, #0x48
  1e0003b698:	a90363f7 	stp	x23, x24, [sp, #48]
  1e0003b69c:	9ac10805 	udiv	x5, x0, x1
  1e0003b6a0:	9b0180a3 	msub	x3, x5, x1, x0
  1e0003b6a4:	12001c62 	and	w2, w3, #0xff
  1e0003b6a8:	f100247f 	cmp	x3, #0x9
  1e0003b6ac:	54000428 	b.hi	1e0003b730 <unsigned_num_print.part.0+0xc0>  // b.pmore
  1e0003b6b0:	1100c042 	add	w2, w2, #0x30
  1e0003b6b4:	12001c42 	and	w2, w2, #0xff
  1e0003b6b8:	38356a62 	strb	w2, [x19, x21]
  1e0003b6bc:	91000662 	add	x2, x19, #0x1
  1e0003b6c0:	eb00003f 	cmp	x1, x0
  1e0003b6c4:	54000309 	b.ls	1e0003b724 <unsigned_num_print.part.0+0xb4>  // b.plast
  1e0003b6c8:	710002df 	cmp	w22, #0x0
  1e0003b6cc:	5400040d 	b.le	1e0003b74c <unsigned_num_print.part.0+0xdc>
  1e0003b6d0:	11000677 	add	w23, w19, #0x1
  1e0003b6d4:	2a1603f8 	mov	w24, w22
  1e0003b6d8:	6b1802ff 	cmp	w23, w24
  1e0003b6dc:	540003cb 	b.lt	1e0003b754 <unsigned_num_print.part.0+0xe4>  // b.tstop
  1e0003b6e0:	4b1702d4 	sub	w20, w22, w23
  1e0003b6e4:	6b1602ff 	cmp	w23, w22
  1e0003b6e8:	1a9fd294 	csel	w20, w20, wzr, le
  1e0003b6ec:	2a1303f6 	mov	w22, w19
  1e0003b6f0:	93407e73 	sxtw	x19, w19
  1e0003b6f4:	38736aa0 	ldrb	w0, [x21, x19]
  1e0003b6f8:	d1000673 	sub	x19, x19, #0x1
  1e0003b6fc:	97ffe057 	bl	1e00033858 <putchar>
  1e0003b700:	3100067f 	cmn	w19, #0x1
  1e0003b704:	54ffff81 	b.ne	1e0003b6f4 <unsigned_num_print.part.0+0x84>  // b.any
  1e0003b708:	11000680 	add	w0, w20, #0x1
  1e0003b70c:	a94153f3 	ldp	x19, x20, [sp, #16]
  1e0003b710:	0b0002c0 	add	w0, w22, w0
  1e0003b714:	a9425bf5 	ldp	x21, x22, [sp, #32]
  1e0003b718:	a94363f7 	ldp	x23, x24, [sp, #48]
  1e0003b71c:	a8c67bfd 	ldp	x29, x30, [sp], #96
  1e0003b720:	d65f03c0 	ret
  1e0003b724:	aa0203f3 	mov	x19, x2
  1e0003b728:	aa0503e0 	mov	x0, x5
  1e0003b72c:	17ffffdc 	b	1e0003b69c <unsigned_num_print.part.0+0x2c>
  1e0003b730:	1100dc43 	add	w3, w2, #0x37
  1e0003b734:	11015c42 	add	w2, w2, #0x57
  1e0003b738:	12001c63 	and	w3, w3, #0xff
  1e0003b73c:	12001c42 	and	w2, w2, #0xff
  1e0003b740:	7100009f 	cmp	w4, #0x0
  1e0003b744:	1a830042 	csel	w2, w2, w3, eq	// eq = none
  1e0003b748:	17ffffdc 	b	1e0003b6b8 <unsigned_num_print.part.0+0x48>
  1e0003b74c:	52800014 	mov	w20, #0x0                   	// #0
  1e0003b750:	17ffffe7 	b	1e0003b6ec <unsigned_num_print.part.0+0x7c>
  1e0003b754:	2a1403e0 	mov	w0, w20
  1e0003b758:	51000718 	sub	w24, w24, #0x1
  1e0003b75c:	97ffe03f 	bl	1e00033858 <putchar>
  1e0003b760:	17ffffde 	b	1e0003b6d8 <unsigned_num_print.part.0+0x68>

0000001e0003b764 <vprintf>:
  1e0003b764:	a9b97bfd 	stp	x29, x30, [sp, #-112]!
  1e0003b768:	910003fd 	mov	x29, sp
  1e0003b76c:	a90153f3 	stp	x19, x20, [sp, #16]
  1e0003b770:	b9401834 	ldr	w20, [x1, #24]
  1e0003b774:	a90363f7 	stp	x23, x24, [sp, #48]
  1e0003b778:	a9406033 	ldp	x19, x24, [x1]
  1e0003b77c:	a9025bf5 	stp	x21, x22, [sp, #32]
  1e0003b780:	aa0003f6 	mov	x22, x0
  1e0003b784:	a9046bf9 	stp	x25, x26, [sp, #64]
  1e0003b788:	b000001a 	adrp	x26, 1e0003c000 <vsnprintf+0x270>
  1e0003b78c:	911e535a 	add	x26, x26, #0x794
  1e0003b790:	52800015 	mov	w21, #0x0                   	// #0
  1e0003b794:	52800019 	mov	w25, #0x0                   	// #0
  1e0003b798:	a90573fb 	stp	x27, x28, [sp, #80]
  1e0003b79c:	394002c0 	ldrb	w0, [x22]
  1e0003b7a0:	35000120 	cbnz	w0, 1e0003b7c4 <vprintf+0x60>
  1e0003b7a4:	a94153f3 	ldp	x19, x20, [sp, #16]
  1e0003b7a8:	2a1503e0 	mov	w0, w21
  1e0003b7ac:	a9425bf5 	ldp	x21, x22, [sp, #32]
  1e0003b7b0:	a94363f7 	ldp	x23, x24, [sp, #48]
  1e0003b7b4:	a9446bf9 	ldp	x25, x26, [sp, #64]
  1e0003b7b8:	a94573fb 	ldp	x27, x28, [sp, #80]
  1e0003b7bc:	a8c77bfd 	ldp	x29, x30, [sp], #112
  1e0003b7c0:	d65f03c0 	ret
  1e0003b7c4:	910006d6 	add	x22, x22, #0x1
  1e0003b7c8:	7100941f 	cmp	w0, #0x25
  1e0003b7cc:	540021a1 	b.ne	1e0003bc00 <vprintf+0x49c>  // b.any
  1e0003b7d0:	52800017 	mov	w23, #0x0                   	// #0
  1e0003b7d4:	52800001 	mov	w1, #0x0                   	// #0
  1e0003b7d8:	14000002 	b	1e0003b7e0 <vprintf+0x7c>
  1e0003b7dc:	52800619 	mov	w25, #0x30                  	// #48
  1e0003b7e0:	394002c0 	ldrb	w0, [x22]
  1e0003b7e4:	7101e81f 	cmp	w0, #0x7a
  1e0003b7e8:	54000168 	b.hi	1e0003b814 <vprintf+0xb0>  // b.pmore
  1e0003b7ec:	7101881f 	cmp	w0, #0x62
  1e0003b7f0:	540001a8 	b.hi	1e0003b824 <vprintf+0xc0>  // b.pmore
  1e0003b7f4:	7100e41f 	cmp	w0, #0x39
  1e0003b7f8:	54000248 	b.hi	1e0003b840 <vprintf+0xdc>  // b.pmore
  1e0003b7fc:	7100c01f 	cmp	w0, #0x30
  1e0003b800:	54001ec8 	b.hi	1e0003bbd8 <vprintf+0x474>  // b.pmore
  1e0003b804:	7100941f 	cmp	w0, #0x25
  1e0003b808:	54000240 	b.eq	1e0003b850 <vprintf+0xec>  // b.none
  1e0003b80c:	7100c01f 	cmp	w0, #0x30
  1e0003b810:	54001ce0 	b.eq	1e0003bbac <vprintf+0x448>  // b.none
  1e0003b814:	12800015 	mov	w21, #0xffffffff            	// #-1
  1e0003b818:	17ffffe3 	b	1e0003b7a4 <vprintf+0x40>
  1e0003b81c:	52800419 	mov	w25, #0x20                  	// #32
  1e0003b820:	17fffff0 	b	1e0003b7e0 <vprintf+0x7c>
  1e0003b824:	51018c00 	sub	w0, w0, #0x63
  1e0003b828:	71005c1f 	cmp	w0, #0x17
  1e0003b82c:	54ffff48 	b.hi	1e0003b814 <vprintf+0xb0>  // b.pmore
  1e0003b830:	78605b40 	ldrh	w0, [x26, w0, uxtw #1]
  1e0003b834:	10000062 	adr	x2, 1e0003b840 <vprintf+0xdc>
  1e0003b838:	8b20a840 	add	x0, x2, w0, sxth #2
  1e0003b83c:	d61f0000 	br	x0
  1e0003b840:	7101601f 	cmp	w0, #0x58
  1e0003b844:	54fffe81 	b.ne	1e0003b814 <vprintf+0xb0>  // b.any
  1e0003b848:	52800024 	mov	w4, #0x1                   	// #1
  1e0003b84c:	14000087 	b	1e0003ba68 <vprintf+0x304>
  1e0003b850:	97ffe002 	bl	1e00033858 <putchar>
  1e0003b854:	910006d6 	add	x22, x22, #0x1
  1e0003b858:	17ffffd1 	b	1e0003b79c <vprintf+0x38>
  1e0003b85c:	7100043f 	cmp	w1, #0x1
  1e0003b860:	5400024d 	b.le	1e0003b8a8 <vprintf+0x144>
  1e0003b864:	37f80314 	tbnz	w20, #31, 1e0003b8c4 <vprintf+0x160>
  1e0003b868:	91003e60 	add	x0, x19, #0xf
  1e0003b86c:	2a1403e1 	mov	w1, w20
  1e0003b870:	927df000 	and	x0, x0, #0xfffffffffffffff8
  1e0003b874:	f940027b 	ldr	x27, [x19]
  1e0003b878:	2a0103f4 	mov	w20, w1
  1e0003b87c:	aa0003f3 	mov	x19, x0
  1e0003b880:	b6f8047b 	tbz	x27, #63, 1e0003b90c <vprintf+0x1a8>
  1e0003b884:	528005a0 	mov	w0, #0x2d                  	// #45
  1e0003b888:	97ffdff4 	bl	1e00033858 <putchar>
  1e0003b88c:	cb1b03e0 	neg	x0, x27
  1e0003b890:	510006f7 	sub	w23, w23, #0x1
  1e0003b894:	2a1703e3 	mov	w3, w23
  1e0003b898:	2a1903e2 	mov	w2, w25
  1e0003b89c:	52800004 	mov	w4, #0x0                   	// #0
  1e0003b8a0:	52800141 	mov	w1, #0xa                   	// #10
  1e0003b8a4:	1400007d 	b	1e0003ba98 <vprintf+0x334>
  1e0003b8a8:	54fffde0 	b.eq	1e0003b864 <vprintf+0x100>  // b.none
  1e0003b8ac:	37f801f4 	tbnz	w20, #31, 1e0003b8e8 <vprintf+0x184>
  1e0003b8b0:	91002e60 	add	x0, x19, #0xb
  1e0003b8b4:	2a1403e1 	mov	w1, w20
  1e0003b8b8:	927df000 	and	x0, x0, #0xfffffffffffffff8
  1e0003b8bc:	b980027b 	ldrsw	x27, [x19]
  1e0003b8c0:	17ffffee 	b	1e0003b878 <vprintf+0x114>
  1e0003b8c4:	11002281 	add	w1, w20, #0x8
  1e0003b8c8:	7100003f 	cmp	w1, #0x0
  1e0003b8cc:	5400008d 	b.le	1e0003b8dc <vprintf+0x178>
  1e0003b8d0:	91003e60 	add	x0, x19, #0xf
  1e0003b8d4:	927df000 	and	x0, x0, #0xfffffffffffffff8
  1e0003b8d8:	17ffffe7 	b	1e0003b874 <vprintf+0x110>
  1e0003b8dc:	aa1303e0 	mov	x0, x19
  1e0003b8e0:	8b34c313 	add	x19, x24, w20, sxtw
  1e0003b8e4:	17ffffe4 	b	1e0003b874 <vprintf+0x110>
  1e0003b8e8:	11002281 	add	w1, w20, #0x8
  1e0003b8ec:	7100003f 	cmp	w1, #0x0
  1e0003b8f0:	5400008d 	b.le	1e0003b900 <vprintf+0x19c>
  1e0003b8f4:	91002e60 	add	x0, x19, #0xb
  1e0003b8f8:	927df000 	and	x0, x0, #0xfffffffffffffff8
  1e0003b8fc:	17fffff0 	b	1e0003b8bc <vprintf+0x158>
  1e0003b900:	aa1303e0 	mov	x0, x19
  1e0003b904:	8b34c313 	add	x19, x24, w20, sxtw
  1e0003b908:	17ffffed 	b	1e0003b8bc <vprintf+0x158>
  1e0003b90c:	aa1b03e0 	mov	x0, x27
  1e0003b910:	17ffffe1 	b	1e0003b894 <vprintf+0x130>
  1e0003b914:	37f80154 	tbnz	w20, #31, 1e0003b93c <vprintf+0x1d8>
  1e0003b918:	91002e77 	add	x23, x19, #0xb
  1e0003b91c:	2a1403fb 	mov	w27, w20
  1e0003b920:	927df2f7 	and	x23, x23, #0xfffffffffffffff8
  1e0003b924:	b9400260 	ldr	w0, [x19]
  1e0003b928:	110006b5 	add	w21, w21, #0x1
  1e0003b92c:	97ffdfcb 	bl	1e00033858 <putchar>
  1e0003b930:	2a1b03f4 	mov	w20, w27
  1e0003b934:	aa1703f3 	mov	x19, x23
  1e0003b938:	17ffffc7 	b	1e0003b854 <vprintf+0xf0>
  1e0003b93c:	1100229b 	add	w27, w20, #0x8
  1e0003b940:	7100037f 	cmp	w27, #0x0
  1e0003b944:	5400008d 	b.le	1e0003b954 <vprintf+0x1f0>
  1e0003b948:	91002e77 	add	x23, x19, #0xb
  1e0003b94c:	927df2f7 	and	x23, x23, #0xfffffffffffffff8
  1e0003b950:	17fffff5 	b	1e0003b924 <vprintf+0x1c0>
  1e0003b954:	aa1303f7 	mov	x23, x19
  1e0003b958:	8b34c313 	add	x19, x24, w20, sxtw
  1e0003b95c:	17fffff2 	b	1e0003b924 <vprintf+0x1c0>
  1e0003b960:	37f800f4 	tbnz	w20, #31, 1e0003b97c <vprintf+0x218>
  1e0003b964:	91003e77 	add	x23, x19, #0xf
  1e0003b968:	2a1403fb 	mov	w27, w20
  1e0003b96c:	927df2f7 	and	x23, x23, #0xfffffffffffffff8
  1e0003b970:	f9400260 	ldr	x0, [x19]
  1e0003b974:	b5000240 	cbnz	x0, 1e0003b9bc <vprintf+0x258>
  1e0003b978:	97ffff22 	bl	1e0003b600 <__assert>
  1e0003b97c:	1100229b 	add	w27, w20, #0x8
  1e0003b980:	7100037f 	cmp	w27, #0x0
  1e0003b984:	5400008d 	b.le	1e0003b994 <vprintf+0x230>
  1e0003b988:	91003e77 	add	x23, x19, #0xf
  1e0003b98c:	927df2f7 	and	x23, x23, #0xfffffffffffffff8
  1e0003b990:	17fffff8 	b	1e0003b970 <vprintf+0x20c>
  1e0003b994:	aa1303f7 	mov	x23, x19
  1e0003b998:	8b34c313 	add	x19, x24, w20, sxtw
  1e0003b99c:	17fffff5 	b	1e0003b970 <vprintf+0x20c>
  1e0003b9a0:	97ffdfae 	bl	1e00033858 <putchar>
  1e0003b9a4:	aa1403e1 	mov	x1, x20
  1e0003b9a8:	91000434 	add	x20, x1, #0x1
  1e0003b9ac:	38746a60 	ldrb	w0, [x19, x20]
  1e0003b9b0:	35ffff80 	cbnz	w0, 1e0003b9a0 <vprintf+0x23c>
  1e0003b9b4:	0b0102b5 	add	w21, w21, w1
  1e0003b9b8:	17ffffde 	b	1e0003b930 <vprintf+0x1cc>
  1e0003b9bc:	d1000413 	sub	x19, x0, #0x1
  1e0003b9c0:	d2800001 	mov	x1, #0x0                   	// #0
  1e0003b9c4:	17fffff9 	b	1e0003b9a8 <vprintf+0x244>
  1e0003b9c8:	37f80214 	tbnz	w20, #31, 1e0003ba08 <vprintf+0x2a4>
  1e0003b9cc:	91003e7b 	add	x27, x19, #0xf
  1e0003b9d0:	2a1403fc 	mov	w28, w20
  1e0003b9d4:	927df37b 	and	x27, x27, #0xfffffffffffffff8
  1e0003b9d8:	f9400274 	ldr	x20, [x19]
  1e0003b9dc:	b50003d4 	cbnz	x20, 1e0003ba54 <vprintf+0x2f0>
  1e0003b9e0:	aa1403e0 	mov	x0, x20
  1e0003b9e4:	2a1703e3 	mov	w3, w23
  1e0003b9e8:	2a1903e2 	mov	w2, w25
  1e0003b9ec:	52800004 	mov	w4, #0x0                   	// #0
  1e0003b9f0:	52800201 	mov	w1, #0x10                  	// #16
  1e0003b9f4:	2a1c03f4 	mov	w20, w28
  1e0003b9f8:	97ffff1e 	bl	1e0003b670 <unsigned_num_print.part.0>
  1e0003b9fc:	aa1b03f3 	mov	x19, x27
  1e0003ba00:	0b0002b5 	add	w21, w21, w0
  1e0003ba04:	17ffff94 	b	1e0003b854 <vprintf+0xf0>
  1e0003ba08:	1100229c 	add	w28, w20, #0x8
  1e0003ba0c:	7100039f 	cmp	w28, #0x0
  1e0003ba10:	5400008d 	b.le	1e0003ba20 <vprintf+0x2bc>
  1e0003ba14:	91003e7b 	add	x27, x19, #0xf
  1e0003ba18:	927df37b 	and	x27, x27, #0xfffffffffffffff8
  1e0003ba1c:	17ffffef 	b	1e0003b9d8 <vprintf+0x274>
  1e0003ba20:	aa1303fb 	mov	x27, x19
  1e0003ba24:	8b34c313 	add	x19, x24, w20, sxtw
  1e0003ba28:	17ffffec 	b	1e0003b9d8 <vprintf+0x274>
  1e0003ba2c:	f90037e2 	str	x2, [sp, #104]
  1e0003ba30:	97ffdf8a 	bl	1e00033858 <putchar>
  1e0003ba34:	f94037e2 	ldr	x2, [sp, #104]
  1e0003ba38:	aa0203e1 	mov	x1, x2
  1e0003ba3c:	91000422 	add	x2, x1, #0x1
  1e0003ba40:	38626a60 	ldrb	w0, [x19, x2]
  1e0003ba44:	35ffff40 	cbnz	w0, 1e0003ba2c <vprintf+0x2c8>
  1e0003ba48:	0b0102b5 	add	w21, w21, w1
  1e0003ba4c:	51000af7 	sub	w23, w23, #0x2
  1e0003ba50:	17ffffe4 	b	1e0003b9e0 <vprintf+0x27c>
  1e0003ba54:	d0000013 	adrp	x19, 1e0003d000 <CSWTCH.192+0x80c>
  1e0003ba58:	d2800001 	mov	x1, #0x0                   	// #0
  1e0003ba5c:	9124d273 	add	x19, x19, #0x934
  1e0003ba60:	17fffff7 	b	1e0003ba3c <vprintf+0x2d8>
  1e0003ba64:	52800004 	mov	w4, #0x0                   	// #0
  1e0003ba68:	7100043f 	cmp	w1, #0x1
  1e0003ba6c:	540001cd 	b.le	1e0003baa4 <vprintf+0x340>
  1e0003ba70:	37f80294 	tbnz	w20, #31, 1e0003bac0 <vprintf+0x35c>
  1e0003ba74:	91003e61 	add	x1, x19, #0xf
  1e0003ba78:	2a1403e2 	mov	w2, w20
  1e0003ba7c:	927df021 	and	x1, x1, #0xfffffffffffffff8
  1e0003ba80:	f9400260 	ldr	x0, [x19]
  1e0003ba84:	2a0203f4 	mov	w20, w2
  1e0003ba88:	2a1703e3 	mov	w3, w23
  1e0003ba8c:	2a1903e2 	mov	w2, w25
  1e0003ba90:	aa0103f3 	mov	x19, x1
  1e0003ba94:	52800201 	mov	w1, #0x10                  	// #16
  1e0003ba98:	97fffef6 	bl	1e0003b670 <unsigned_num_print.part.0>
  1e0003ba9c:	0b0002b5 	add	w21, w21, w0
  1e0003baa0:	17ffff6d 	b	1e0003b854 <vprintf+0xf0>
  1e0003baa4:	54fffe60 	b.eq	1e0003ba70 <vprintf+0x30c>  // b.none
  1e0003baa8:	37f801f4 	tbnz	w20, #31, 1e0003bae4 <vprintf+0x380>
  1e0003baac:	91002e61 	add	x1, x19, #0xb
  1e0003bab0:	2a1403e2 	mov	w2, w20
  1e0003bab4:	927df021 	and	x1, x1, #0xfffffffffffffff8
  1e0003bab8:	b9400260 	ldr	w0, [x19]
  1e0003babc:	17fffff2 	b	1e0003ba84 <vprintf+0x320>
  1e0003bac0:	11002282 	add	w2, w20, #0x8
  1e0003bac4:	7100005f 	cmp	w2, #0x0
  1e0003bac8:	5400008d 	b.le	1e0003bad8 <vprintf+0x374>
  1e0003bacc:	91003e61 	add	x1, x19, #0xf
  1e0003bad0:	927df021 	and	x1, x1, #0xfffffffffffffff8
  1e0003bad4:	17ffffeb 	b	1e0003ba80 <vprintf+0x31c>
  1e0003bad8:	aa1303e1 	mov	x1, x19
  1e0003badc:	8b34c313 	add	x19, x24, w20, sxtw
  1e0003bae0:	17ffffe8 	b	1e0003ba80 <vprintf+0x31c>
  1e0003bae4:	11002282 	add	w2, w20, #0x8
  1e0003bae8:	7100005f 	cmp	w2, #0x0
  1e0003baec:	5400008d 	b.le	1e0003bafc <vprintf+0x398>
  1e0003baf0:	91002e61 	add	x1, x19, #0xb
  1e0003baf4:	927df021 	and	x1, x1, #0xfffffffffffffff8
  1e0003baf8:	17fffff0 	b	1e0003bab8 <vprintf+0x354>
  1e0003bafc:	aa1303e1 	mov	x1, x19
  1e0003bb00:	8b34c313 	add	x19, x24, w20, sxtw
  1e0003bb04:	17ffffed 	b	1e0003bab8 <vprintf+0x354>
  1e0003bb08:	910006d6 	add	x22, x22, #0x1
  1e0003bb0c:	52800041 	mov	w1, #0x2                   	// #2
  1e0003bb10:	17ffff34 	b	1e0003b7e0 <vprintf+0x7c>
  1e0003bb14:	11000421 	add	w1, w1, #0x1
  1e0003bb18:	910006d6 	add	x22, x22, #0x1
  1e0003bb1c:	17ffff31 	b	1e0003b7e0 <vprintf+0x7c>
  1e0003bb20:	7100043f 	cmp	w1, #0x1
  1e0003bb24:	5400012d 	b.le	1e0003bb48 <vprintf+0x3e4>
  1e0003bb28:	37f801f4 	tbnz	w20, #31, 1e0003bb64 <vprintf+0x400>
  1e0003bb2c:	91003e61 	add	x1, x19, #0xf
  1e0003bb30:	2a1403e2 	mov	w2, w20
  1e0003bb34:	927df021 	and	x1, x1, #0xfffffffffffffff8
  1e0003bb38:	f9400260 	ldr	x0, [x19]
  1e0003bb3c:	2a0203f4 	mov	w20, w2
  1e0003bb40:	aa0103f3 	mov	x19, x1
  1e0003bb44:	17ffff54 	b	1e0003b894 <vprintf+0x130>
  1e0003bb48:	54ffff00 	b.eq	1e0003bb28 <vprintf+0x3c4>  // b.none
  1e0003bb4c:	37f801f4 	tbnz	w20, #31, 1e0003bb88 <vprintf+0x424>
  1e0003bb50:	91002e61 	add	x1, x19, #0xb
  1e0003bb54:	2a1403e2 	mov	w2, w20
  1e0003bb58:	927df021 	and	x1, x1, #0xfffffffffffffff8
  1e0003bb5c:	b9400260 	ldr	w0, [x19]
  1e0003bb60:	17fffff7 	b	1e0003bb3c <vprintf+0x3d8>
  1e0003bb64:	11002282 	add	w2, w20, #0x8
  1e0003bb68:	7100005f 	cmp	w2, #0x0
  1e0003bb6c:	5400008d 	b.le	1e0003bb7c <vprintf+0x418>
  1e0003bb70:	91003e61 	add	x1, x19, #0xf
  1e0003bb74:	927df021 	and	x1, x1, #0xfffffffffffffff8
  1e0003bb78:	17fffff0 	b	1e0003bb38 <vprintf+0x3d4>
  1e0003bb7c:	aa1303e1 	mov	x1, x19
  1e0003bb80:	8b34c313 	add	x19, x24, w20, sxtw
  1e0003bb84:	17ffffed 	b	1e0003bb38 <vprintf+0x3d4>
  1e0003bb88:	11002282 	add	w2, w20, #0x8
  1e0003bb8c:	7100005f 	cmp	w2, #0x0
  1e0003bb90:	5400008d 	b.le	1e0003bba0 <vprintf+0x43c>
  1e0003bb94:	91002e61 	add	x1, x19, #0xb
  1e0003bb98:	927df021 	and	x1, x1, #0xfffffffffffffff8
  1e0003bb9c:	17fffff0 	b	1e0003bb5c <vprintf+0x3f8>
  1e0003bba0:	aa1303e1 	mov	x1, x19
  1e0003bba4:	8b34c313 	add	x19, x24, w20, sxtw
  1e0003bba8:	17ffffed 	b	1e0003bb5c <vprintf+0x3f8>
  1e0003bbac:	910006d6 	add	x22, x22, #0x1
  1e0003bbb0:	52800017 	mov	w23, #0x0                   	// #0
  1e0003bbb4:	52800142 	mov	w2, #0xa                   	// #10
  1e0003bbb8:	394002c0 	ldrb	w0, [x22]
  1e0003bbbc:	5100c000 	sub	w0, w0, #0x30
  1e0003bbc0:	12001c03 	and	w3, w0, #0xff
  1e0003bbc4:	7100247f 	cmp	w3, #0x9
  1e0003bbc8:	54ffe0a8 	b.hi	1e0003b7dc <vprintf+0x78>  // b.pmore
  1e0003bbcc:	1b0202f7 	madd	w23, w23, w2, w0
  1e0003bbd0:	910006d6 	add	x22, x22, #0x1
  1e0003bbd4:	17fffff9 	b	1e0003bbb8 <vprintf+0x454>
  1e0003bbd8:	52800017 	mov	w23, #0x0                   	// #0
  1e0003bbdc:	52800142 	mov	w2, #0xa                   	// #10
  1e0003bbe0:	394002c0 	ldrb	w0, [x22]
  1e0003bbe4:	5100c000 	sub	w0, w0, #0x30
  1e0003bbe8:	12001c03 	and	w3, w0, #0xff
  1e0003bbec:	7100247f 	cmp	w3, #0x9
  1e0003bbf0:	54ffe168 	b.hi	1e0003b81c <vprintf+0xb8>  // b.pmore
  1e0003bbf4:	1b0202f7 	madd	w23, w23, w2, w0
  1e0003bbf8:	910006d6 	add	x22, x22, #0x1
  1e0003bbfc:	17fffff9 	b	1e0003bbe0 <vprintf+0x47c>
  1e0003bc00:	110006b5 	add	w21, w21, #0x1
  1e0003bc04:	97ffdf15 	bl	1e00033858 <putchar>
  1e0003bc08:	17fffee5 	b	1e0003b79c <vprintf+0x38>

0000001e0003bc0c <printf>:
  1e0003bc0c:	a9b77bfd 	stp	x29, x30, [sp, #-144]!
  1e0003bc10:	910003fd 	mov	x29, sp
  1e0003bc14:	a9058be1 	stp	x1, x2, [sp, #88]
  1e0003bc18:	910243e1 	add	x1, sp, #0x90
  1e0003bc1c:	a90307e1 	stp	x1, x1, [sp, #48]
  1e0003bc20:	910143e1 	add	x1, sp, #0x50
  1e0003bc24:	f90023e1 	str	x1, [sp, #64]
  1e0003bc28:	128006e1 	mov	w1, #0xffffffc8            	// #-56
  1e0003bc2c:	b9004be1 	str	w1, [sp, #72]
  1e0003bc30:	910043e1 	add	x1, sp, #0x10
  1e0003bc34:	b9004fff 	str	wzr, [sp, #76]
  1e0003bc38:	a90693e3 	stp	x3, x4, [sp, #104]
  1e0003bc3c:	a9430fe2 	ldp	x2, x3, [sp, #48]
  1e0003bc40:	a9010fe2 	stp	x2, x3, [sp, #16]
  1e0003bc44:	a9440fe2 	ldp	x2, x3, [sp, #64]
  1e0003bc48:	a9020fe2 	stp	x2, x3, [sp, #32]
  1e0003bc4c:	a9079be5 	stp	x5, x6, [sp, #120]
  1e0003bc50:	f90047e7 	str	x7, [sp, #136]
  1e0003bc54:	97fffec4 	bl	1e0003b764 <vprintf>
  1e0003bc58:	a8c97bfd 	ldp	x29, x30, [sp], #144
  1e0003bc5c:	d65f03c0 	ret

0000001e0003bc60 <unsigned_num_print>:
  1e0003bc60:	720000ff 	tst	w7, #0x1
  1e0003bc64:	d10083ff 	sub	sp, sp, #0x20
  1e0003bc68:	52800827 	mov	w7, #0x41                  	// #65
  1e0003bc6c:	52800c28 	mov	w8, #0x61                  	// #97
  1e0003bc70:	1a870108 	csel	w8, w8, w7, eq	// eq = none
  1e0003bc74:	12001ca5 	and	w5, w5, #0xff
  1e0003bc78:	2a0403e4 	mov	w4, w4
  1e0003bc7c:	51002909 	sub	w9, w8, #0xa
  1e0003bc80:	910023eb 	add	x11, sp, #0x8
  1e0003bc84:	d2800007 	mov	x7, #0x0                   	// #0
  1e0003bc88:	9ac4086d 	udiv	x13, x3, x4
  1e0003bc8c:	9b048dac 	msub	x12, x13, x4, x3
  1e0003bc90:	12001d88 	and	w8, w12, #0xff
  1e0003bc94:	f100259f 	cmp	x12, #0x9
  1e0003bc98:	1100c10a 	add	w10, w8, #0x30
  1e0003bc9c:	0b090108 	add	w8, w8, w9
  1e0003bca0:	12001d4a 	and	w10, w10, #0xff
  1e0003bca4:	12001d08 	and	w8, w8, #0xff
  1e0003bca8:	1a8a8108 	csel	w8, w8, w10, hi	// hi = pmore
  1e0003bcac:	382b68e8 	strb	w8, [x7, x11]
  1e0003bcb0:	910004e8 	add	x8, x7, #0x1
  1e0003bcb4:	eb03009f 	cmp	x4, x3
  1e0003bcb8:	54000349 	b.ls	1e0003bd20 <unsigned_num_print+0xc0>  // b.plast
  1e0003bcbc:	110004e7 	add	w7, w7, #0x1
  1e0003bcc0:	4b0700c3 	sub	w3, w6, w7
  1e0003bcc4:	f9400044 	ldr	x4, [x2]
  1e0003bcc8:	7100007f 	cmp	w3, #0x0
  1e0003bccc:	5400030c 	b.gt	1e0003bd2c <unsigned_num_print+0xcc>
  1e0003bcd0:	93407ce3 	sxtw	x3, w7
  1e0003bcd4:	f9400044 	ldr	x4, [x2]
  1e0003bcd8:	eb01009f 	cmp	x4, x1
  1e0003bcdc:	54000102 	b.cs	1e0003bcfc <unsigned_num_print+0x9c>  // b.hs, b.nlast
  1e0003bce0:	f9400004 	ldr	x4, [x0]
  1e0003bce4:	8b030168 	add	x8, x11, x3
  1e0003bce8:	385ff108 	ldurb	w8, [x8, #-1]
  1e0003bcec:	39000088 	strb	w8, [x4]
  1e0003bcf0:	f9400004 	ldr	x4, [x0]
  1e0003bcf4:	91000484 	add	x4, x4, #0x1
  1e0003bcf8:	f9000004 	str	x4, [x0]
  1e0003bcfc:	f9400044 	ldr	x4, [x2]
  1e0003bd00:	d1000463 	sub	x3, x3, #0x1
  1e0003bd04:	91000484 	add	x4, x4, #0x1
  1e0003bd08:	f9000044 	str	x4, [x2]
  1e0003bd0c:	35fffe43 	cbnz	w3, 1e0003bcd4 <unsigned_num_print+0x74>
  1e0003bd10:	0b0600e6 	add	w6, w7, w6
  1e0003bd14:	37f80246 	tbnz	w6, #31, 1e0003bd5c <unsigned_num_print+0xfc>
  1e0003bd18:	910083ff 	add	sp, sp, #0x20
  1e0003bd1c:	d65f03c0 	ret
  1e0003bd20:	aa0803e7 	mov	x7, x8
  1e0003bd24:	aa0d03e3 	mov	x3, x13
  1e0003bd28:	17ffffd8 	b	1e0003bc88 <unsigned_num_print+0x28>
  1e0003bd2c:	eb01009f 	cmp	x4, x1
  1e0003bd30:	540000c2 	b.cs	1e0003bd48 <unsigned_num_print+0xe8>  // b.hs, b.nlast
  1e0003bd34:	f9400004 	ldr	x4, [x0]
  1e0003bd38:	39000085 	strb	w5, [x4]
  1e0003bd3c:	f9400004 	ldr	x4, [x0]
  1e0003bd40:	91000484 	add	x4, x4, #0x1
  1e0003bd44:	f9000004 	str	x4, [x0]
  1e0003bd48:	f9400044 	ldr	x4, [x2]
  1e0003bd4c:	51000463 	sub	w3, w3, #0x1
  1e0003bd50:	91000484 	add	x4, x4, #0x1
  1e0003bd54:	f9000044 	str	x4, [x2]
  1e0003bd58:	17ffffdb 	b	1e0003bcc4 <unsigned_num_print+0x64>
  1e0003bd5c:	f9400043 	ldr	x3, [x2]
  1e0003bd60:	eb01007f 	cmp	x3, x1
  1e0003bd64:	540000c2 	b.cs	1e0003bd7c <unsigned_num_print+0x11c>  // b.hs, b.nlast
  1e0003bd68:	f9400003 	ldr	x3, [x0]
  1e0003bd6c:	39000065 	strb	w5, [x3]
  1e0003bd70:	f9400003 	ldr	x3, [x0]
  1e0003bd74:	91000463 	add	x3, x3, #0x1
  1e0003bd78:	f9000003 	str	x3, [x0]
  1e0003bd7c:	f9400043 	ldr	x3, [x2]
  1e0003bd80:	110004c6 	add	w6, w6, #0x1
  1e0003bd84:	91000463 	add	x3, x3, #0x1
  1e0003bd88:	f9000043 	str	x3, [x2]
  1e0003bd8c:	17ffffe2 	b	1e0003bd14 <unsigned_num_print+0xb4>

0000001e0003bd90 <vsnprintf>:
  1e0003bd90:	a9bb7bfd 	stp	x29, x30, [sp, #-80]!
  1e0003bd94:	910003fd 	mov	x29, sp
  1e0003bd98:	a940486e 	ldp	x14, x18, [x3]
  1e0003bd9c:	a90153f3 	stp	x19, x20, [sp, #16]
  1e0003bda0:	b940186f 	ldr	w15, [x3, #24]
  1e0003bda4:	f90013f5 	str	x21, [sp, #32]
  1e0003bda8:	f9001fe0 	str	x0, [sp, #56]
  1e0003bdac:	f90027ff 	str	xzr, [sp, #72]
  1e0003bdb0:	b4000081 	cbz	x1, 1e0003bdc0 <vsnprintf+0x30>
  1e0003bdb4:	f100043f 	cmp	x1, #0x1
  1e0003bdb8:	54000081 	b.ne	1e0003bdc8 <vsnprintf+0x38>  // b.any
  1e0003bdbc:	3900001f 	strb	wzr, [x0]
  1e0003bdc0:	d2800001 	mov	x1, #0x0                   	// #0
  1e0003bdc4:	14000002 	b	1e0003bdcc <vsnprintf+0x3c>
  1e0003bdc8:	d1000421 	sub	x1, x1, #0x1
  1e0003bdcc:	39400043 	ldrb	w3, [x2]
  1e0003bdd0:	35000123 	cbnz	w3, 1e0003bdf4 <vsnprintf+0x64>
  1e0003bdd4:	b4000061 	cbz	x1, 1e0003bde0 <vsnprintf+0x50>
  1e0003bdd8:	f9401fe0 	ldr	x0, [sp, #56]
  1e0003bddc:	3900001f 	strb	wzr, [x0]
  1e0003bde0:	a94153f3 	ldp	x19, x20, [sp, #16]
  1e0003bde4:	f94013f5 	ldr	x21, [sp, #32]
  1e0003bde8:	b9404be0 	ldr	w0, [sp, #72]
  1e0003bdec:	a8c57bfd 	ldp	x29, x30, [sp], #80
  1e0003bdf0:	d65f03c0 	ret
  1e0003bdf4:	91000442 	add	x2, x2, #0x1
  1e0003bdf8:	7100947f 	cmp	w3, #0x25
  1e0003bdfc:	54002621 	b.ne	1e0003c2c0 <vsnprintf+0x530>  // b.any
  1e0003be00:	52800003 	mov	w3, #0x0                   	// #0
  1e0003be04:	52800007 	mov	w7, #0x0                   	// #0
  1e0003be08:	52800006 	mov	w6, #0x0                   	// #0
  1e0003be0c:	52800005 	mov	w5, #0x0                   	// #0
  1e0003be10:	14000003 	b	1e0003be1c <vsnprintf+0x8c>
  1e0003be14:	52800027 	mov	w7, #0x1                   	// #1
  1e0003be18:	aa1303e2 	mov	x2, x19
  1e0003be1c:	aa0203f3 	mov	x19, x2
  1e0003be20:	38401660 	ldrb	w0, [x19], #1
  1e0003be24:	7101e81f 	cmp	w0, #0x7a
  1e0003be28:	54000168 	b.hi	1e0003be54 <vsnprintf+0xc4>  // b.pmore
  1e0003be2c:	7101881f 	cmp	w0, #0x62
  1e0003be30:	540003a8 	b.hi	1e0003bea4 <vsnprintf+0x114>  // b.pmore
  1e0003be34:	7100e41f 	cmp	w0, #0x39
  1e0003be38:	54000488 	b.hi	1e0003bec8 <vsnprintf+0x138>  // b.pmore
  1e0003be3c:	7100bc1f 	cmp	w0, #0x2f
  1e0003be40:	54000608 	b.hi	1e0003bf00 <vsnprintf+0x170>  // b.pmore
  1e0003be44:	7100941f 	cmp	w0, #0x25
  1e0003be48:	54000480 	b.eq	1e0003bed8 <vsnprintf+0x148>  // b.none
  1e0003be4c:	7100b41f 	cmp	w0, #0x2d
  1e0003be50:	54fffe20 	b.eq	1e0003be14 <vsnprintf+0x84>  // b.none
  1e0003be54:	f94027e0 	ldr	x0, [sp, #72]
  1e0003be58:	eb01001f 	cmp	x0, x1
  1e0003be5c:	540000a2 	b.cs	1e0003be70 <vsnprintf+0xe0>  // b.hs, b.nlast
  1e0003be60:	f9401fe3 	ldr	x3, [sp, #56]
  1e0003be64:	528004a4 	mov	w4, #0x25                  	// #37
  1e0003be68:	38001464 	strb	w4, [x3], #1
  1e0003be6c:	f9001fe3 	str	x3, [sp, #56]
  1e0003be70:	91000403 	add	x3, x0, #0x1
  1e0003be74:	f90027e3 	str	x3, [sp, #72]
  1e0003be78:	eb01007f 	cmp	x3, x1
  1e0003be7c:	540000a2 	b.cs	1e0003be90 <vsnprintf+0x100>  // b.hs, b.nlast
  1e0003be80:	39400043 	ldrb	w3, [x2]
  1e0003be84:	f9401fe2 	ldr	x2, [sp, #56]
  1e0003be88:	38001443 	strb	w3, [x2], #1
  1e0003be8c:	f9001fe2 	str	x2, [sp, #56]
  1e0003be90:	91000800 	add	x0, x0, #0x2
  1e0003be94:	f90027e0 	str	x0, [sp, #72]
  1e0003be98:	14000018 	b	1e0003bef8 <vsnprintf+0x168>
  1e0003be9c:	52800023 	mov	w3, #0x1                   	// #1
  1e0003bea0:	17ffffde 	b	1e0003be18 <vsnprintf+0x88>
  1e0003bea4:	51018c00 	sub	w0, w0, #0x63
  1e0003bea8:	71005c1f 	cmp	w0, #0x17
  1e0003beac:	54fffd48 	b.hi	1e0003be54 <vsnprintf+0xc4>  // b.pmore
  1e0003beb0:	b0000004 	adrp	x4, 1e0003c000 <vsnprintf+0x270>
  1e0003beb4:	911f1084 	add	x4, x4, #0x7c4
  1e0003beb8:	78605884 	ldrh	w4, [x4, w0, uxtw #1]
  1e0003bebc:	10000060 	adr	x0, 1e0003bec8 <vsnprintf+0x138>
  1e0003bec0:	8b24a804 	add	x4, x0, w4, sxth #2
  1e0003bec4:	d61f0080 	br	x4
  1e0003bec8:	7101601f 	cmp	w0, #0x58
  1e0003becc:	54fffc41 	b.ne	1e0003be54 <vsnprintf+0xc4>  // b.any
  1e0003bed0:	52800027 	mov	w7, #0x1                   	// #1
  1e0003bed4:	140000d7 	b	1e0003c230 <vsnprintf+0x4a0>
  1e0003bed8:	f94027e2 	ldr	x2, [sp, #72]
  1e0003bedc:	eb01005f 	cmp	x2, x1
  1e0003bee0:	54000082 	b.cs	1e0003bef0 <vsnprintf+0x160>  // b.hs, b.nlast
  1e0003bee4:	f9401fe3 	ldr	x3, [sp, #56]
  1e0003bee8:	38001460 	strb	w0, [x3], #1
  1e0003beec:	f9001fe3 	str	x3, [sp, #56]
  1e0003bef0:	91000442 	add	x2, x2, #0x1
  1e0003bef4:	f90027e2 	str	x2, [sp, #72]
  1e0003bef8:	aa1303e2 	mov	x2, x19
  1e0003befc:	17ffffb4 	b	1e0003bdcc <vsnprintf+0x3c>
  1e0003bf00:	7100c01f 	cmp	w0, #0x30
  1e0003bf04:	52800405 	mov	w5, #0x20                  	// #32
  1e0003bf08:	52800600 	mov	w0, #0x30                  	// #48
  1e0003bf0c:	aa0203f3 	mov	x19, x2
  1e0003bf10:	1a8010a5 	csel	w5, w5, w0, ne	// ne = any
  1e0003bf14:	52800006 	mov	w6, #0x0                   	// #0
  1e0003bf18:	52800148 	mov	w8, #0xa                   	// #10
  1e0003bf1c:	aa1303e2 	mov	x2, x19
  1e0003bf20:	38401440 	ldrb	w0, [x2], #1
  1e0003bf24:	5100c000 	sub	w0, w0, #0x30
  1e0003bf28:	12001c04 	and	w4, w0, #0xff
  1e0003bf2c:	7100249f 	cmp	w4, #0x9
  1e0003bf30:	54000089 	b.ls	1e0003bf40 <vsnprintf+0x1b0>  // b.plast
  1e0003bf34:	34fff727 	cbz	w7, 1e0003be18 <vsnprintf+0x88>
  1e0003bf38:	4b0603e6 	neg	w6, w6
  1e0003bf3c:	17ffffb7 	b	1e0003be18 <vsnprintf+0x88>
  1e0003bf40:	1b0800c6 	madd	w6, w6, w8, w0
  1e0003bf44:	aa0203f3 	mov	x19, x2
  1e0003bf48:	17fffff5 	b	1e0003bf1c <vsnprintf+0x18c>
  1e0003bf4c:	7100047f 	cmp	w3, #0x1
  1e0003bf50:	54000349 	b.ls	1e0003bfb8 <vsnprintf+0x228>  // b.plast
  1e0003bf54:	37f803af 	tbnz	w15, #31, 1e0003bfc8 <vsnprintf+0x238>
  1e0003bf58:	91003dc0 	add	x0, x14, #0xf
  1e0003bf5c:	927df000 	and	x0, x0, #0xfffffffffffffff8
  1e0003bf60:	2a0f03e2 	mov	w2, w15
  1e0003bf64:	b94001c3 	ldr	w3, [x14]
  1e0003bf68:	2a0203ef 	mov	w15, w2
  1e0003bf6c:	aa0003ee 	mov	x14, x0
  1e0003bf70:	36f80163 	tbz	w3, #31, 1e0003bf9c <vsnprintf+0x20c>
  1e0003bf74:	f94027e0 	ldr	x0, [sp, #72]
  1e0003bf78:	eb01001f 	cmp	x0, x1
  1e0003bf7c:	540000a2 	b.cs	1e0003bf90 <vsnprintf+0x200>  // b.hs, b.nlast
  1e0003bf80:	f9401fe2 	ldr	x2, [sp, #56]
  1e0003bf84:	528005a4 	mov	w4, #0x2d                  	// #45
  1e0003bf88:	38001444 	strb	w4, [x2], #1
  1e0003bf8c:	f9001fe2 	str	x2, [sp, #56]
  1e0003bf90:	4b0303e3 	neg	w3, w3
  1e0003bf94:	91000400 	add	x0, x0, #0x1
  1e0003bf98:	f90027e0 	str	x0, [sp, #72]
  1e0003bf9c:	93407c63 	sxtw	x3, w3
  1e0003bfa0:	52800007 	mov	w7, #0x0                   	// #0
  1e0003bfa4:	52800144 	mov	w4, #0xa                   	// #10
  1e0003bfa8:	910123e2 	add	x2, sp, #0x48
  1e0003bfac:	9100e3e0 	add	x0, sp, #0x38
  1e0003bfb0:	97ffff2c 	bl	1e0003bc60 <unsigned_num_print>
  1e0003bfb4:	17ffffd1 	b	1e0003bef8 <vsnprintf+0x168>
  1e0003bfb8:	54fffce0 	b.eq	1e0003bf54 <vsnprintf+0x1c4>  // b.none
  1e0003bfbc:	37f8012f 	tbnz	w15, #31, 1e0003bfe0 <vsnprintf+0x250>
  1e0003bfc0:	91002dc0 	add	x0, x14, #0xb
  1e0003bfc4:	17ffffe6 	b	1e0003bf5c <vsnprintf+0x1cc>
  1e0003bfc8:	110021e2 	add	w2, w15, #0x8
  1e0003bfcc:	7100005f 	cmp	w2, #0x0
  1e0003bfd0:	5400012d 	b.le	1e0003bff4 <vsnprintf+0x264>
  1e0003bfd4:	91003dc0 	add	x0, x14, #0xf
  1e0003bfd8:	927df000 	and	x0, x0, #0xfffffffffffffff8
  1e0003bfdc:	17ffffe2 	b	1e0003bf64 <vsnprintf+0x1d4>
  1e0003bfe0:	110021e2 	add	w2, w15, #0x8
  1e0003bfe4:	7100005f 	cmp	w2, #0x0
  1e0003bfe8:	5400006d 	b.le	1e0003bff4 <vsnprintf+0x264>
  1e0003bfec:	91002dc0 	add	x0, x14, #0xb
  1e0003bff0:	17fffffa 	b	1e0003bfd8 <vsnprintf+0x248>
  1e0003bff4:	aa0e03e0 	mov	x0, x14
  1e0003bff8:	8b2fc24e 	add	x14, x18, w15, sxtw
  1e0003bffc:	17ffffda 	b	1e0003bf64 <vsnprintf+0x1d4>
  1e0003c000:	f94027e2 	ldr	x2, [sp, #72]
  1e0003c004:	eb01005f 	cmp	x2, x1
  1e0003c008:	54fff742 	b.cs	1e0003bef0 <vsnprintf+0x160>  // b.hs, b.nlast
  1e0003c00c:	37f8016f 	tbnz	w15, #31, 1e0003c038 <vsnprintf+0x2a8>
  1e0003c010:	91002dc0 	add	x0, x14, #0xb
  1e0003c014:	2a0f03e3 	mov	w3, w15
  1e0003c018:	927df000 	and	x0, x0, #0xfffffffffffffff8
  1e0003c01c:	f9401fe4 	ldr	x4, [sp, #56]
  1e0003c020:	2a0303ef 	mov	w15, w3
  1e0003c024:	b94001c5 	ldr	w5, [x14]
  1e0003c028:	aa0003ee 	mov	x14, x0
  1e0003c02c:	38001485 	strb	w5, [x4], #1
  1e0003c030:	f9001fe4 	str	x4, [sp, #56]
  1e0003c034:	17ffffaf 	b	1e0003bef0 <vsnprintf+0x160>
  1e0003c038:	110021e3 	add	w3, w15, #0x8
  1e0003c03c:	7100007f 	cmp	w3, #0x0
  1e0003c040:	5400008d 	b.le	1e0003c050 <vsnprintf+0x2c0>
  1e0003c044:	91002dc0 	add	x0, x14, #0xb
  1e0003c048:	927df000 	and	x0, x0, #0xfffffffffffffff8
  1e0003c04c:	17fffff4 	b	1e0003c01c <vsnprintf+0x28c>
  1e0003c050:	aa0e03e0 	mov	x0, x14
  1e0003c054:	8b2fc24e 	add	x14, x18, w15, sxtw
  1e0003c058:	17fffff1 	b	1e0003c01c <vsnprintf+0x28c>
  1e0003c05c:	37f8026f 	tbnz	w15, #31, 1e0003c0a8 <vsnprintf+0x318>
  1e0003c060:	91003dc0 	add	x0, x14, #0xf
  1e0003c064:	2a0f03e3 	mov	w3, w15
  1e0003c068:	927df000 	and	x0, x0, #0xfffffffffffffff8
  1e0003c06c:	f94001c5 	ldr	x5, [x14]
  1e0003c070:	52800007 	mov	w7, #0x0                   	// #0
  1e0003c074:	f94027e2 	ldr	x2, [sp, #72]
  1e0003c078:	52800006 	mov	w6, #0x0                   	// #0
  1e0003c07c:	f9401fe4 	ldr	x4, [sp, #56]
  1e0003c080:	cb0200a5 	sub	x5, x5, x2
  1e0003c084:	386268a8 	ldrb	w8, [x5, x2]
  1e0003c088:	35000228 	cbnz	w8, 1e0003c0cc <vsnprintf+0x33c>
  1e0003c08c:	34000047 	cbz	w7, 1e0003c094 <vsnprintf+0x304>
  1e0003c090:	f9001fe4 	str	x4, [sp, #56]
  1e0003c094:	34000046 	cbz	w6, 1e0003c09c <vsnprintf+0x30c>
  1e0003c098:	f90027e2 	str	x2, [sp, #72]
  1e0003c09c:	2a0303ef 	mov	w15, w3
  1e0003c0a0:	aa0003ee 	mov	x14, x0
  1e0003c0a4:	17ffff95 	b	1e0003bef8 <vsnprintf+0x168>
  1e0003c0a8:	110021e3 	add	w3, w15, #0x8
  1e0003c0ac:	7100007f 	cmp	w3, #0x0
  1e0003c0b0:	5400008d 	b.le	1e0003c0c0 <vsnprintf+0x330>
  1e0003c0b4:	91003dc0 	add	x0, x14, #0xf
  1e0003c0b8:	927df000 	and	x0, x0, #0xfffffffffffffff8
  1e0003c0bc:	17ffffec 	b	1e0003c06c <vsnprintf+0x2dc>
  1e0003c0c0:	aa0e03e0 	mov	x0, x14
  1e0003c0c4:	8b2fc24e 	add	x14, x18, w15, sxtw
  1e0003c0c8:	17ffffe9 	b	1e0003c06c <vsnprintf+0x2dc>
  1e0003c0cc:	eb02003f 	cmp	x1, x2
  1e0003c0d0:	54000069 	b.ls	1e0003c0dc <vsnprintf+0x34c>  // b.plast
  1e0003c0d4:	52800027 	mov	w7, #0x1                   	// #1
  1e0003c0d8:	38001488 	strb	w8, [x4], #1
  1e0003c0dc:	91000442 	add	x2, x2, #0x1
  1e0003c0e0:	52800026 	mov	w6, #0x1                   	// #1
  1e0003c0e4:	17ffffe8 	b	1e0003c084 <vsnprintf+0x2f4>
  1e0003c0e8:	7100047f 	cmp	w3, #0x1
  1e0003c0ec:	54000129 	b.ls	1e0003c110 <vsnprintf+0x380>  // b.plast
  1e0003c0f0:	37f801ef 	tbnz	w15, #31, 1e0003c12c <vsnprintf+0x39c>
  1e0003c0f4:	91003dc0 	add	x0, x14, #0xf
  1e0003c0f8:	2a0f03e2 	mov	w2, w15
  1e0003c0fc:	927df000 	and	x0, x0, #0xfffffffffffffff8
  1e0003c100:	f94001c3 	ldr	x3, [x14]
  1e0003c104:	2a0203ef 	mov	w15, w2
  1e0003c108:	aa0003ee 	mov	x14, x0
  1e0003c10c:	17ffffa5 	b	1e0003bfa0 <vsnprintf+0x210>
  1e0003c110:	54ffff00 	b.eq	1e0003c0f0 <vsnprintf+0x360>  // b.none
  1e0003c114:	37f801ef 	tbnz	w15, #31, 1e0003c150 <vsnprintf+0x3c0>
  1e0003c118:	91002dc0 	add	x0, x14, #0xb
  1e0003c11c:	2a0f03e2 	mov	w2, w15
  1e0003c120:	927df000 	and	x0, x0, #0xfffffffffffffff8
  1e0003c124:	b94001c3 	ldr	w3, [x14]
  1e0003c128:	17fffff7 	b	1e0003c104 <vsnprintf+0x374>
  1e0003c12c:	110021e2 	add	w2, w15, #0x8
  1e0003c130:	7100005f 	cmp	w2, #0x0
  1e0003c134:	5400008d 	b.le	1e0003c144 <vsnprintf+0x3b4>
  1e0003c138:	91003dc0 	add	x0, x14, #0xf
  1e0003c13c:	927df000 	and	x0, x0, #0xfffffffffffffff8
  1e0003c140:	17fffff0 	b	1e0003c100 <vsnprintf+0x370>
  1e0003c144:	aa0e03e0 	mov	x0, x14
  1e0003c148:	8b2fc24e 	add	x14, x18, w15, sxtw
  1e0003c14c:	17ffffed 	b	1e0003c100 <vsnprintf+0x370>
  1e0003c150:	110021e2 	add	w2, w15, #0x8
  1e0003c154:	7100005f 	cmp	w2, #0x0
  1e0003c158:	5400008d 	b.le	1e0003c168 <vsnprintf+0x3d8>
  1e0003c15c:	91002dc0 	add	x0, x14, #0xb
  1e0003c160:	927df000 	and	x0, x0, #0xfffffffffffffff8
  1e0003c164:	17fffff0 	b	1e0003c124 <vsnprintf+0x394>
  1e0003c168:	aa0e03e0 	mov	x0, x14
  1e0003c16c:	8b2fc24e 	add	x14, x18, w15, sxtw
  1e0003c170:	17ffffed 	b	1e0003c124 <vsnprintf+0x394>
  1e0003c174:	11000463 	add	w3, w3, #0x1
  1e0003c178:	17ffff28 	b	1e0003be18 <vsnprintf+0x88>
  1e0003c17c:	37f8038f 	tbnz	w15, #31, 1e0003c1ec <vsnprintf+0x45c>
  1e0003c180:	91003dd4 	add	x20, x14, #0xf
  1e0003c184:	2a0f03f5 	mov	w21, w15
  1e0003c188:	927df294 	and	x20, x20, #0xfffffffffffffff8
  1e0003c18c:	f94001c3 	ldr	x3, [x14]
  1e0003c190:	b40001e3 	cbz	x3, 1e0003c1cc <vsnprintf+0x43c>
  1e0003c194:	f94027e0 	ldr	x0, [sp, #72]
  1e0003c198:	b0000002 	adrp	x2, 1e0003d000 <CSWTCH.192+0x80c>
  1e0003c19c:	f9401fe4 	ldr	x4, [sp, #56]
  1e0003c1a0:	9124d442 	add	x2, x2, #0x935
  1e0003c1a4:	cb000042 	sub	x2, x2, x0
  1e0003c1a8:	52800008 	mov	w8, #0x0                   	// #0
  1e0003c1ac:	52800007 	mov	w7, #0x0                   	// #0
  1e0003c1b0:	38606849 	ldrb	w9, [x2, x0]
  1e0003c1b4:	350002e9 	cbnz	w9, 1e0003c210 <vsnprintf+0x480>
  1e0003c1b8:	34000048 	cbz	w8, 1e0003c1c0 <vsnprintf+0x430>
  1e0003c1bc:	f9001fe4 	str	x4, [sp, #56]
  1e0003c1c0:	34000047 	cbz	w7, 1e0003c1c8 <vsnprintf+0x438>
  1e0003c1c4:	f90027e0 	str	x0, [sp, #72]
  1e0003c1c8:	510008c6 	sub	w6, w6, #0x2
  1e0003c1cc:	910123e2 	add	x2, sp, #0x48
  1e0003c1d0:	9100e3e0 	add	x0, sp, #0x38
  1e0003c1d4:	52800007 	mov	w7, #0x0                   	// #0
  1e0003c1d8:	52800204 	mov	w4, #0x10                  	// #16
  1e0003c1dc:	2a1503ef 	mov	w15, w21
  1e0003c1e0:	aa1403ee 	mov	x14, x20
  1e0003c1e4:	97fffe9f 	bl	1e0003bc60 <unsigned_num_print>
  1e0003c1e8:	17ffff44 	b	1e0003bef8 <vsnprintf+0x168>
  1e0003c1ec:	110021f5 	add	w21, w15, #0x8
  1e0003c1f0:	710002bf 	cmp	w21, #0x0
  1e0003c1f4:	5400008d 	b.le	1e0003c204 <vsnprintf+0x474>
  1e0003c1f8:	91003dd4 	add	x20, x14, #0xf
  1e0003c1fc:	927df294 	and	x20, x20, #0xfffffffffffffff8
  1e0003c200:	17ffffe3 	b	1e0003c18c <vsnprintf+0x3fc>
  1e0003c204:	aa0e03f4 	mov	x20, x14
  1e0003c208:	8b2fc24e 	add	x14, x18, w15, sxtw
  1e0003c20c:	17ffffe0 	b	1e0003c18c <vsnprintf+0x3fc>
  1e0003c210:	eb01001f 	cmp	x0, x1
  1e0003c214:	54000062 	b.cs	1e0003c220 <vsnprintf+0x490>  // b.hs, b.nlast
  1e0003c218:	52800028 	mov	w8, #0x1                   	// #1
  1e0003c21c:	38001489 	strb	w9, [x4], #1
  1e0003c220:	91000400 	add	x0, x0, #0x1
  1e0003c224:	52800027 	mov	w7, #0x1                   	// #1
  1e0003c228:	17ffffe2 	b	1e0003c1b0 <vsnprintf+0x420>
  1e0003c22c:	52800007 	mov	w7, #0x0                   	// #0
  1e0003c230:	7100047f 	cmp	w3, #0x1
  1e0003c234:	54000149 	b.ls	1e0003c25c <vsnprintf+0x4cc>  // b.plast
  1e0003c238:	37f8020f 	tbnz	w15, #31, 1e0003c278 <vsnprintf+0x4e8>
  1e0003c23c:	91003dc0 	add	x0, x14, #0xf
  1e0003c240:	2a0f03e2 	mov	w2, w15
  1e0003c244:	927df000 	and	x0, x0, #0xfffffffffffffff8
  1e0003c248:	f94001c3 	ldr	x3, [x14]
  1e0003c24c:	2a0203ef 	mov	w15, w2
  1e0003c250:	aa0003ee 	mov	x14, x0
  1e0003c254:	52800204 	mov	w4, #0x10                  	// #16
  1e0003c258:	17ffff54 	b	1e0003bfa8 <vsnprintf+0x218>
  1e0003c25c:	54fffee0 	b.eq	1e0003c238 <vsnprintf+0x4a8>  // b.none
  1e0003c260:	37f801ef 	tbnz	w15, #31, 1e0003c29c <vsnprintf+0x50c>
  1e0003c264:	91002dc0 	add	x0, x14, #0xb
  1e0003c268:	2a0f03e2 	mov	w2, w15
  1e0003c26c:	927df000 	and	x0, x0, #0xfffffffffffffff8
  1e0003c270:	b94001c3 	ldr	w3, [x14]
  1e0003c274:	17fffff6 	b	1e0003c24c <vsnprintf+0x4bc>
  1e0003c278:	110021e2 	add	w2, w15, #0x8
  1e0003c27c:	7100005f 	cmp	w2, #0x0
  1e0003c280:	5400008d 	b.le	1e0003c290 <vsnprintf+0x500>
  1e0003c284:	91003dc0 	add	x0, x14, #0xf
  1e0003c288:	927df000 	and	x0, x0, #0xfffffffffffffff8
  1e0003c28c:	17ffffef 	b	1e0003c248 <vsnprintf+0x4b8>
  1e0003c290:	aa0e03e0 	mov	x0, x14
  1e0003c294:	8b2fc24e 	add	x14, x18, w15, sxtw
  1e0003c298:	17ffffec 	b	1e0003c248 <vsnprintf+0x4b8>
  1e0003c29c:	110021e2 	add	w2, w15, #0x8
  1e0003c2a0:	7100005f 	cmp	w2, #0x0
  1e0003c2a4:	5400008d 	b.le	1e0003c2b4 <vsnprintf+0x524>
  1e0003c2a8:	91002dc0 	add	x0, x14, #0xb
  1e0003c2ac:	927df000 	and	x0, x0, #0xfffffffffffffff8
  1e0003c2b0:	17fffff0 	b	1e0003c270 <vsnprintf+0x4e0>
  1e0003c2b4:	aa0e03e0 	mov	x0, x14
  1e0003c2b8:	8b2fc24e 	add	x14, x18, w15, sxtw
  1e0003c2bc:	17ffffed 	b	1e0003c270 <vsnprintf+0x4e0>
  1e0003c2c0:	f94027e0 	ldr	x0, [sp, #72]
  1e0003c2c4:	eb01001f 	cmp	x0, x1
  1e0003c2c8:	54000082 	b.cs	1e0003c2d8 <vsnprintf+0x548>  // b.hs, b.nlast
  1e0003c2cc:	f9401fe4 	ldr	x4, [sp, #56]
  1e0003c2d0:	38001483 	strb	w3, [x4], #1
  1e0003c2d4:	f9001fe4 	str	x4, [sp, #56]
  1e0003c2d8:	91000400 	add	x0, x0, #0x1
  1e0003c2dc:	f90027e0 	str	x0, [sp, #72]
  1e0003c2e0:	17fffebb 	b	1e0003bdcc <vsnprintf+0x3c>

0000001e0003c2e4 <snprintf>:
  1e0003c2e4:	a9b87bfd 	stp	x29, x30, [sp, #-128]!
  1e0003c2e8:	910003fd 	mov	x29, sp
  1e0003c2ec:	a90593e3 	stp	x3, x4, [sp, #88]
  1e0003c2f0:	910203e3 	add	x3, sp, #0x80
  1e0003c2f4:	a9030fe3 	stp	x3, x3, [sp, #48]
  1e0003c2f8:	910143e3 	add	x3, sp, #0x50
  1e0003c2fc:	f90023e3 	str	x3, [sp, #64]
  1e0003c300:	128004e3 	mov	w3, #0xffffffd8            	// #-40
  1e0003c304:	b9004be3 	str	w3, [sp, #72]
  1e0003c308:	910043e3 	add	x3, sp, #0x10
  1e0003c30c:	b9004fff 	str	wzr, [sp, #76]
  1e0003c310:	a9069be5 	stp	x5, x6, [sp, #104]
  1e0003c314:	a94317e4 	ldp	x4, x5, [sp, #48]
  1e0003c318:	a90117e4 	stp	x4, x5, [sp, #16]
  1e0003c31c:	a94417e4 	ldp	x4, x5, [sp, #64]
  1e0003c320:	a90217e4 	stp	x4, x5, [sp, #32]
  1e0003c324:	f9003fe7 	str	x7, [sp, #120]
  1e0003c328:	97fffe9a 	bl	1e0003bd90 <vsnprintf>
  1e0003c32c:	a8c87bfd 	ldp	x29, x30, [sp], #128
  1e0003c330:	d65f03c0 	ret

0000001e0003c334 <strlen>:
  1e0003c334:	aa0003e1 	mov	x1, x0
  1e0003c338:	39400022 	ldrb	w2, [x1]
  1e0003c33c:	35000062 	cbnz	w2, 1e0003c348 <strlen+0x14>
  1e0003c340:	cb000020 	sub	x0, x1, x0
  1e0003c344:	d65f03c0 	ret
  1e0003c348:	91000421 	add	x1, x1, #0x1
  1e0003c34c:	17fffffb 	b	1e0003c338 <strlen+0x4>

0000001e0003c350 <strncmp>:
  1e0003c350:	b4000182 	cbz	x2, 1e0003c380 <strncmp+0x30>
  1e0003c354:	d2800004 	mov	x4, #0x0                   	// #0
  1e0003c358:	38646803 	ldrb	w3, [x0, x4]
  1e0003c35c:	38646825 	ldrb	w5, [x1, x4]
  1e0003c360:	6b05007f 	cmp	w3, w5
  1e0003c364:	54000060 	b.eq	1e0003c370 <strncmp+0x20>  // b.none
  1e0003c368:	4b050060 	sub	w0, w3, w5
  1e0003c36c:	d65f03c0 	ret
  1e0003c370:	34000083 	cbz	w3, 1e0003c380 <strncmp+0x30>
  1e0003c374:	91000484 	add	x4, x4, #0x1
  1e0003c378:	eb04005f 	cmp	x2, x4
  1e0003c37c:	54fffee1 	b.ne	1e0003c358 <strncmp+0x8>  // b.any
  1e0003c380:	52800000 	mov	w0, #0x0                   	// #0
  1e0003c384:	17fffffa 	b	1e0003c36c <strncmp+0x1c>

0000001e0003c388 <memset>:
  1e0003c388:	b4000322 	cbz	x2, 1e0003c3ec <memset+0x64>
  1e0003c38c:	12001c21 	and	w1, w1, #0xff
  1e0003c390:	aa0003e3 	mov	x3, x0
  1e0003c394:	f2400864 	ands	x4, x3, #0x7
  1e0003c398:	54000241 	b.ne	1e0003c3e0 <memset+0x58>  // b.any
  1e0003c39c:	2a0103e6 	mov	w6, w1
  1e0003c3a0:	b200c3e5 	mov	x5, #0x101010101010101     	// #72340172838076673
  1e0003c3a4:	9b057cc6 	mul	x6, x6, x5
  1e0003c3a8:	d2800005 	mov	x5, #0x0                   	// #0
  1e0003c3ac:	cb050047 	sub	x7, x2, x5
  1e0003c3b0:	f1001cff 	cmp	x7, #0x7
  1e0003c3b4:	540001e8 	b.hi	1e0003c3f0 <memset+0x68>  // b.pmore
  1e0003c3b8:	d343fc45 	lsr	x5, x2, #3
  1e0003c3bc:	928000e6 	mov	x6, #0xfffffffffffffff8    	// #-8
  1e0003c3c0:	9b067ca5 	mul	x5, x5, x6
  1e0003c3c4:	8b050042 	add	x2, x2, x5
  1e0003c3c8:	cb050063 	sub	x3, x3, x5
  1e0003c3cc:	eb04005f 	cmp	x2, x4
  1e0003c3d0:	540000e0 	b.eq	1e0003c3ec <memset+0x64>  // b.none
  1e0003c3d4:	38246861 	strb	w1, [x3, x4]
  1e0003c3d8:	91000484 	add	x4, x4, #0x1
  1e0003c3dc:	17fffffc 	b	1e0003c3cc <memset+0x44>
  1e0003c3e0:	38001461 	strb	w1, [x3], #1
  1e0003c3e4:	f1000442 	subs	x2, x2, #0x1
  1e0003c3e8:	54fffd61 	b.ne	1e0003c394 <memset+0xc>  // b.any
  1e0003c3ec:	d65f03c0 	ret
  1e0003c3f0:	f8256866 	str	x6, [x3, x5]
  1e0003c3f4:	910020a5 	add	x5, x5, #0x8
  1e0003c3f8:	17ffffed 	b	1e0003c3ac <memset+0x24>
  1e0003c3fc:	00000000 	udf	#0

0000001e0003c400 <old_lotid>:
  1e0003c400:	0003cc89 0000001e 0003cc8f 0000001e     ................
  1e0003c410:	0003cc95 0000001e                       ........

0000001e0003c418 <mailbox_data>:
	...
  1e0003c420:	f0280000 0000001f 00000001 00000020     ..(......... ...
  1e0003c430:	00000021 00000000 00000000 00000000     !...............
  1e0003c440:	00000001 00000000 f1040000 0000001f     ................
  1e0003c450:	00000000 00000090 00000091 00000000     ................
	...
  1e0003c468:	00000002 00000000 f1050000 0000001f     ................
  1e0003c478:	00000000 00000094 00000095 00000000     ................
	...
  1e0003c490:	00000003 00000000 f1840000 0000001f     ................
  1e0003c4a0:	00000000 0000009a 0000009b 00000000     ................
	...
  1e0003c4b8:	00000004 00000000 f1850000 0000001f     ................
  1e0003c4c8:	00000000 0000009e 0000009f 00000000     ................
	...
  1e0003c4e0:	00000005 00000000 f1050000 0000007f     ................
	...

0000001e0003c508 <CSWTCH.3>:
  1e0003c508:	0003d661 0000001e 0003d665 0000001e     a.......e.......
  1e0003c518:	0003d669 0000001e 0003d66d 0000001e     i.......m.......

0000001e0003c528 <plat_prefix_str>:
  1e0003c528:	0003d671 0000001e 0003d67b 0000001e     q.......{.......
  1e0003c538:	0003d685 0000001e 0003d68f 0000001e     ................
  1e0003c548:	0003d699 0000001e 84210842 81084210     ........B.!..B..
  1e0003c558:	21084210 08421084 42108421 42102108     .B.!..B.!..B.!.B
  1e0003c568:	10842108 84210842 21084210 21084204     .!..B.!..B.!.B.!
  1e0003c578:	08421084 42108421 40842108 10842108     ..B.!..B.!.@.!..
  1e0003c588:	84210842 21084210 21081084 08421084     B.!..B.!...!..B.
  1e0003c598:	00000021 08421084 02108421 42108421     !.....B.!...!..B
  1e0003c5a8:	10842108 84210842 84204210 21084210     .!..B.!..B ..B.!
  1e0003c5b8:	08421084 42108421 42108408 10842108     ..B.!..B...B.!..
  1e0003c5c8:	84210842 81084210 21084210 08421084     B.!..B...B.!..B.
  1e0003c5d8:	42108421 42102108 10842108 00000042     !..B.!.B.!..B...
  1e0003c5e8:	42108421 40842108 10842108 84210842     !..B.!.@.!..B.!.
  1e0003c5f8:	21084210 21081084 08421084 42108421     .B.!...!..B.!..B
  1e0003c608:	10842108 10842102 84210842 21084210     .!...!..B.!..B.!
  1e0003c618:	20421084 08421084 42108421 10842108     ..B ..B.!..B.!..
  1e0003c628:	10840842 84210842 00000010              B...B.!.....

0000001e0003c634 <pll_table_f0435>:
  1e0003c634:	00002580 00000001 00000078 00000000     .%......x.......
  1e0003c644:	00000000 000023f0 00000001 00000073     .....#......s...
	...
  1e0003c65c:	00001f40 00000001 00000064 00000000     @.......d.......
  1e0003c66c:	00000000 00001900 00000001 00000050     ............P...
	...
  1e0003c684:	000012c0 00000001 0000003c 00000000     ........<.......
  1e0003c694:	00000000                                ....

0000001e0003c698 <pll_table_f0434>:
  1e0003c698:	000008fc 00000002 00000073 00000000     ........s.......
  1e0003c6a8:	00000000 000007d0 00000001 00000064     ............d...
  1e0003c6b8:	00000001 00000000 00000708 00000001     ................
  1e0003c6c8:	0000005a 00000001 00000000 000006a4     Z...............
  1e0003c6d8:	00000001 00000055 00000001 00000000     ....U...........
  1e0003c6e8:	00000640 00000001 00000050 00000001     @.......P.......
  1e0003c6f8:	00000000 000005dc 00000001 0000004b     ............K...
  1e0003c708:	00000001 00000000 00000578 00000001     ........x.......
  1e0003c718:	00000046 00000001 00000000 000004b0     F...............
  1e0003c728:	00000002 00000078 00000001 00000000     ....x...........
  1e0003c738:	000003e8 00000001 00000064 00000002     ........d.......
  1e0003c748:	00000000 00000320 00000002 000000a0     .... ...........
  1e0003c758:	00000002 00000000 0028001f 005f0032     ..........(.2._.
  1e0003c768:	003b008f 004d0044 00000056              ..;.D.M.V...

0000001e0003c774 <pa_range_bits_arr>:
  1e0003c774:	00000020 00000024 00000028 0000002a      ...$...(...*...
  1e0003c784:	0000002c 00000030 00000034 00000038     ,...0...4...8...
  1e0003c794:	00070035 fff5fff5 fff5fff5 fff50007     5...............
  1e0003c7a4:	00b5fff5 fff5fff5 0062fff5 fff5fff5     ..........b.....
  1e0003c7b4:	fff50048 fff500b8 0089fff5 00b2fff5     H...............
  1e0003c7c4:	0021004e ffe3ffe3 ffe3ffe3 ffe30021     N.!.........!...
  1e0003c7d4:	00abffe3 ffe3ffe3 00adffe3 ffe3ffe3     ................
  1e0003c7e4:	ffe30065 ffe30088 00d9ffe3 fff5ffe3     e...............

0000001e0003c7f4 <CSWTCH.192>:
  1e0003c7f4:	064004b0 08fc07d0 48430960 5d64255b     ..@.....`.CH[%d]
  1e0003c804:	74696220 736f7020 25203d20 6c202c64      bit pos = %d, l
  1e0003c814:	20656e61 7325203d 6572202c 72696170     ane = %s, repair
  1e0003c824:	736f705f 25203d20 67202c64 70756f72     _pos = %d, group
  1e0003c834:	25203d20 72000a64 616c2078 6920656e      = %d..rx lane i
  1e0003c844:	4e552073 41504552 42415249 000a454c     s UNREPAIRABLE..
  1e0003c854:	202c414e 276e6f44 61632074 000a6572     NA, Don't care..
  1e0003c864:	55444552 4e41444e 44202c54 74276e6f     REDUNDANT, Don't
  1e0003c874:	72616320 4f000a65 20796c6e 69702031      care..Only 1 pi
  1e0003c884:	6163206e 6572206e 72696170 726f6620     n can repair for
  1e0003c894:	63616520 77642068 2064726f 756f7267      each dword grou
  1e0003c8a4:	43000a70 64255b48 6544205d 74636574     p..CH[%d] Detect
  1e0003c8b4:	524e5520 49415045 4c424152 616c2045      UNREPAIRABLE la
  1e0003c8c4:	000a656e 64255852 54584520 20545345     ne..RX%d EXTEST 
  1e0003c8d4:	75746572 3d206e72 0a642520 20787400     return = %d..tx 
  1e0003c8e4:	656e616c 20736920 45524e55 52494150     lane is UNREPAIR
  1e0003c8f4:	454c4241 4552000a 444e5544 20544e41     ABLE..REDUNDANT 
  1e0003c904:	656e616c 6f44202c 2074276e 65726163     lane, Don't care
  1e0003c914:	5854000a 45206425 53455458 65722054     ..TX%d EXTEST re
  1e0003c924:	6e727574 25203d20 63000a64 64255b68     turn = %d..ch[%d
  1e0003c934:	6e55205d 61706572 62617269 000a656c     ] Unrepairable..
  1e0003c944:	5f706572 656e616c 5d64255b 5d64255b     rep_lane[%d][%d]
  1e0003c954:	30203d20 2c782578 70657220 6e616c5f      = 0x%x, rep_lan
  1e0003c964:	64255b65 64255b5d 203d205d 78257830     e[%d][%d] = 0x%x
  1e0003c974:	4843000a 5d64255b 70655220 61726961     ..CH[%d] Repaira
  1e0003c984:	0a656c62 4c421e00 50203a32 6674616c     ble...BL2: Platf
  1e0003c994:	206d726f 75746573 6c612070 64616572     orm setup alread
  1e0003c9a4:	6f642079 2121656e 420a000a 203a324c     y done!!...BL2: 
  1e0003c9b4:	6c696146 20657275 70206e69 69206572     Failure in pre i
  1e0003c9c4:	6567616d 616f6c20 61682064 696c646e     mage load handli
  1e0003c9d4:	2820676e 0a296925 4c420a00 46203a32     ng (%i)...BL2: F
  1e0003c9e4:	656c6961 6f742064 616f6c20 6d692064     ailed to load im
  1e0003c9f4:	20656761 25206469 25282075 000a2969     age id %u (%i)..
  1e0003ca04:	324c420a 6146203a 72756c69 6e692065     .BL2: Failure in
  1e0003ca14:	736f7020 6d692074 20656761 64616f6c      post image load
  1e0003ca24:	6e616820 6e696c64 25282067 000a2969      handling (%i)..
  1e0003ca34:	324c4214 7325203a 4142000a 52544b43     .BL2: %s..BACKTR
  1e0003ca44:	3a454341 41545320 203a5452 000a7325     ACE: START: %s..
  1e0003ca54:	4f525245 43203a52 7572726f 64657470     ERROR: Corrupted
  1e0003ca64:	61726620 7020656d 746e696f 28207265      frame pointer (
  1e0003ca74:	6d617266 65722065 64726f63 64646120     frame record add
  1e0003ca84:	73736572 25203d20 000a2970 4f525245     ress = %p)..ERRO
  1e0003ca94:	43203a52 7572726f 64657470 61747320     R: Corrupted sta
  1e0003caa4:	28206b63 6d617266 65722065 64726f63     ck (frame record
  1e0003cab4:	64646120 73736572 25203d20 000a2970      address = %p)..
  1e0003cac4:	203a7525 203a7325 6c257830 45000a78     %u: %s: 0x%lx..E
  1e0003cad4:	524f5252 614d203a 61622078 72746b63     RROR: Max backtr
  1e0003cae4:	20656361 74706564 65722068 65686361     ace depth reache
  1e0003caf4:	42000a64 544b4341 45434152 4e45203a     d..BACKTRACE: EN
  1e0003cb04:	25203a44 1e000a73 6c696146 74206465     D: %s...Failed t
  1e0003cb14:	626f206f 6e696174 66657220 6e657265     o obtain referen
  1e0003cb24:	74206563 6d69206f 20656761 253d6469     ce to image id=%
  1e0003cb34:	25282075 000a2969 6961461e 2064656c     u (%i)...Failed 
  1e0003cb44:	61206f74 73656363 6d692073 20656761     to access image 
  1e0003cb54:	253d6469 25282075 000a2969 6961461e     id=%u (%i)...Fai
  1e0003cb64:	2064656c 64206f74 72657465 656e696d     led to determine
  1e0003cb74:	65687420 7a697320 666f2065 65687420      the size of the
  1e0003cb84:	616d6920 69206567 75253d64 69252820      image id=%u (%i
  1e0003cb94:	1e000a29 67616d69 64692065 2075253d     )...image id=%u 
  1e0003cba4:	657a6973 20736920 6f72657a 491e000a     size is zero...I
  1e0003cbb4:	6567616d 3d646920 73207525 20657a69     mage id=%u size 
  1e0003cbc4:	2074756f 6220666f 646e756f 1e000a73     out of bounds...
  1e0003cbd4:	6c696146 74206465 6f6c206f 69206461     Failed to load i
  1e0003cbe4:	6567616d 3d646920 28207525 0a296925     mage id=%u (%i).
  1e0003cbf4:	73251400 6146203a 64656c69 206f7420     ..%s: Failed to 
  1e0003cc04:	72617473 6d642074 68632061 656e6e61     start dma channe
  1e0003cc14:	14000a6c 203a7325 6c696146 74206465     l...%s: Failed t
  1e0003cc24:	6177206f 64207469 6320616d 6e6e6168     o wait dma chann
  1e0003cc34:	000a6c65 324c420a 6146203a 64656c69     el...BL2: Failed
  1e0003cc44:	206f7420 20616d64 64616f6c 616d6920      to dma load ima
  1e0003cc54:	25286567 203a2964 20616d64 6c257830     ge(%d): dma 0x%l
  1e0003cc64:	3e2d2078 25783020 202c786c 657a6973     x -> 0x%lx, size
  1e0003cc74:	30203a20 0a782578 746f4c00 3a44495f      : 0x%x..Lot_ID:
  1e0003cc84:	0a732520 385a4600 46005458 3359385a      %s..FZ8XT.FZ8Y3
  1e0003cc94:	385a4600 0a003459 65726e55 72696170     .FZ8Y4..Unrepair
  1e0003cca4:	656c6261 4d424820 435f6425 64255f48     able HBM%d_CH_%d
  1e0003ccb4:	4f57445f 5f304452 204c4c41 69616628     _DWORD0_ALL (fai
  1e0003ccc4:	74735f6c 73757461 7830203a 0a297825     l_status: 0x%x).
  1e0003ccd4:	6e550a00 61706572 62617269 4820656c     ..Unrepairable H
  1e0003cce4:	64254d42 5f48435f 445f6425 20642551     BM%d_CH_%d_DQ%d 
  1e0003ccf4:	69616628 74735f6c 73757461 7830203a     (fail_status: 0x
  1e0003cd04:	72207825 69617065 6f705f72 30203a73     %x repair_pos: 0
  1e0003cd14:	29782578 550a000a 7065726e 61726961     x%x)...Unrepaira
  1e0003cd24:	20656c62 254d4248 48435f64 5f64255f     ble HBM%d_CH_%d_
  1e0003cd34:	25494244 66282064 5f6c6961 74617473     DBI%d (fail_stat
  1e0003cd44:	203a7375 78257830 70657220 5f726961     us: 0x%x repair_
  1e0003cd54:	3a736f70 25783020 000a2978 726e550a     pos: 0x%x)...Unr
  1e0003cd64:	69617065 6c626172 42482065 5f64254d     epairable HBM%d_
  1e0003cd74:	255f4843 43455f64 20642543 69616628     CH_%d_ECC%d (fai
  1e0003cd84:	74735f6c 73757461 7830203a 72207825     l_status: 0x%x r
  1e0003cd94:	69617065 6f705f72 30203a73 29782578     epair_pos: 0x%x)
  1e0003cda4:	550a000a 7065726e 61726961 20656c62     ...Unrepairable 
  1e0003cdb4:	254d4248 48435f64 5f64255f 25564553     HBM%d_CH_%d_SEV%
  1e0003cdc4:	28200a64 6c696166 6174735f 3a737574     d. (fail_status:
  1e0003cdd4:	25783020 65722078 72696170 736f705f      0x%x repair_pos
  1e0003cde4:	7830203a 00297825 726e550a 69617065     : 0x%x)..Unrepai
  1e0003cdf4:	6c626172 42482065 5f64254d 255f4843     rable HBM%d_CH_%
  1e0003ce04:	57445f64 3144524f 4c4c415f 61662820     d_DWORD1_ALL (fa
  1e0003ce14:	735f6c69 75746174 30203a73 29782578     il_status: 0x%x)
  1e0003ce24:	550a000a 7065726e 61726961 20656c62     ...Unrepairable 
  1e0003ce34:	254d4248 48435f64 5f64255f 25564553     HBM%d_CH_%d_SEV%
  1e0003ce44:	66282064 5f6c6961 74617473 203a7375     d (fail_status: 
  1e0003ce54:	78257830 70657220 5f726961 3a736f70     0x%x repair_pos:
  1e0003ce64:	25783020 000a2978 726e550a 69617065      0x%x)...Unrepai
  1e0003ce74:	6c626172 42482065 5f64254d 255f4843     rable HBM%d_CH_%
  1e0003ce84:	42445f64 20642549 61662820 735f6c69     d_DBI%d  (fail_s
  1e0003ce94:	75746174 30203a73 20782578 61706572     tatus: 0x%x repa
  1e0003cea4:	705f7269 203a736f 78257830 0a000a29     ir_pos: 0x%x)...
  1e0003ceb4:	255b4843 64205d64 695f6966 2074696e     CH[%d] dfi_init 
  1e0003cec4:	6c696166 000a2e2e 766e490a 64696c61     fail.....Invalid
  1e0003ced4:	74616420 74617261 44000a65 44524f57      datarate..DWORD
  1e0003cee4:	44002030 44524f57 0a002031 255b4843     0 .DWORD1 ..CH[%
  1e0003cef4:	52205d64 20646165 69617254 676e696e     d] Read Training
  1e0003cf04:	69614620 25202c6c 0a732573 48430a00      Fail, %s%s...CH
  1e0003cf14:	5d64255b 69725720 54206574 6e696172     [%d] Write Train
  1e0003cf24:	20676e69 6c696146 7325202c 000a7325     ing Fail, %s%s..
  1e0003cf34:	5b48430a 205d6425 64616552 61725420     .CH[%d] Read Tra
  1e0003cf44:	6e696e69 464c2067 46205253 2c6c6961     ining LFSR Fail,
  1e0003cf54:	4f574420 20304452 7830203d 78383025      DWORD0 = 0x%08x
  1e0003cf64:	5744202c 3144524f 30203d20 38302578     , DWORD1 = 0x%08
  1e0003cf74:	1e000a78 255b4843 57205d64 65746972     x...CH[%d] Write
  1e0003cf84:	61725420 6e696e69 464c2067 46205253      Training LFSR F
  1e0003cf94:	2c6c6961 4f574420 20304452 7830203d     ail, DWORD0 = 0x
  1e0003cfa4:	78383025 5744202c 3144524f 30203d20     %08x, DWORD1 = 0
  1e0003cfb4:	38302578 43000a78 64255b48 6572205d     x%08x..CH[%d] re
  1e0003cfc4:	6f206461 6d697470 76206c61 20666572     ad optimal vref 
  1e0003cfd4:	72657628 46202974 454c4941 4e202e44     (vert) FAILED. N
  1e0003cfe4:	6176206f 2064696c 646e6977 6620776f     o valid window f
  1e0003cff4:	646e756f 43000a2e 64255b48 7764205d     ound...CH[%d] dw
  1e0003d004:	3064726f 65725620 4c432066 45504d41     ord0 Vref CLAMPE
  1e0003d014:	28202144 636c6143 74616c75 203a6465     D! (Calculated: 
  1e0003d024:	78257830 203e2d20 3a746553 25783020     0x%x -> Set: 0x%
  1e0003d034:	000a2978 255b4843 64205d64 64726f77     x)..CH[%d] dword
  1e0003d044:	72562031 43206665 504d414c 20214445     1 Vref CLAMPED! 
  1e0003d054:	6c614328 616c7563 3a646574 25783020     (Calculated: 0x%
  1e0003d064:	3e2d2078 74655320 7830203a 0a297825     x -> Set: 0x%x).
  1e0003d074:	636f6c00 6176206b 3a65756c 0a642520     .lock value: %d.
  1e0003d084:	5b484300 205d6425 726f7764 72203064     .CH[%d] dword0 r
  1e0003d094:	6f762078 6761746c 616d2065 6e696772     x voltage margin
  1e0003d0a4:	25783020 30202c78 20782578 29642528      0x%x, 0x%x (%d)
  1e0003d0b4:	666f2820 74657366 29642520 4843000a      (offset %d)..CH
  1e0003d0c4:	5d64255b 6f776420 20316472 76207872     [%d] dword1 rx v
  1e0003d0d4:	61746c6f 6d206567 69677261 7830206e     oltage margin 0x
  1e0003d0e4:	202c7825 78257830 64252820 6f282029     %x, 0x%x (%d) (o
  1e0003d0f4:	65736666 64252074 43000a29 64255b48     ffset %d)..CH[%d
  1e0003d104:	6572205d 6f206461 6d697470 76206c61     ] read optimal v
  1e0003d114:	20666572 726f7764 3d203064 25783020     ref dword0 = 0x%
  1e0003d124:	30282078 2064252e 2c294955 6f776420     x (0.%d UI), dwo
  1e0003d134:	20316472 7830203d 28207825 64252e30     rd1 = 0x%x (0.%d
  1e0003d144:	29495520 570a000a 65746972 76654c20      UI)...Write Lev
  1e0003d154:	6e696c65 61462067 000a6c69 6972570a     eling Fail...Wri
  1e0003d164:	4c206574 6c657665 20676e69 7265764f     te Leveling Over
  1e0003d174:	776f6c66 431e000a 64255b48 5250205d     flow...CH[%d] PR
  1e0003d184:	50205342 422d7265 52207469 20646165     BS Per-Bit Read 
  1e0003d194:	69617254 676e696e 69614620 44202c6c     Training Fail, D
  1e0003d1a4:	44524f57 203d2030 30257830 202c7838     WORD0 = 0x%08x, 
  1e0003d1b4:	524f5744 3d203144 25783020 2c783830     DWORD1 = 0x%08x,
  1e0003d1c4:	4f574420 20324452 7830203d 78383025      DWORD2 = 0x%08x
  1e0003d1d4:	431e000a 64255b48 5250205d 50205342     ...CH[%d] PRBS P
  1e0003d1e4:	422d7265 57207469 65746972 61725420     er-Bit Write Tra
  1e0003d1f4:	6e696e69 61462067 202c6c69 524f5744     ining Fail, DWOR
  1e0003d204:	3d203044 25783020 2c783830 4f574420     D0 = 0x%08x, DWO
  1e0003d214:	20314452 7830203d 78383025 5744202c     RD1 = 0x%08x, DW
  1e0003d224:	3244524f 30203d20 38302578 2d000a78     ORD2 = 0x%08x..-
  1e0003d234:	44002b00 63657269 6e6f6974 44206425     .+.Direction%d D
  1e0003d244:	52204d43 6c757365 00203a74 3a304350     CM Result: .PC0:
  1e0003d254:	49414620 00202c4c 3a304350 73657220      FAIL, .PC0: res
  1e0003d264:	65767265 61762064 2c65756c 43500020     erved value, .PC
  1e0003d274:	25203a30 2c642573 43500020 46203a31     0: %s%d, .PC1: F
  1e0003d284:	0a4c4941 31435000 6572203a 76726573     AIL..PC1: reserv
  1e0003d294:	76206465 65756c61 4350000a 25203a31     ed value..PC1: %
  1e0003d2a4:	0a642573 70411400 20796c70 41525245     s%d...Apply ERRA
  1e0003d2b4:	54204154 0a53524d 42481400 3420334d     TA TMRS...HBM3 4
  1e0003d2c4:	4d303038 0a737062 69684300 74656c70     800Mbps..Chiplet
  1e0003d2d4:	5b444920 205d6425 334d4248 696e6920      ID[%d] HBM3 ini
  1e0003d2e4:	74732074 0a747261 3d3d3d00 3d3d3d3d     t start..=======
  1e0003d2f4:	5552203d 4d49544e 45522045 52494150     = RUNTIME REPAIR
  1e0003d304:	3d3d3d20 3d3d3d3d 3d000a3d 3d3d3d3d      ========..=====
  1e0003d314:	203d3d3d 58452020 54534554 4e4f4420     ===   EXTEST DON
  1e0003d324:	3d202045 3d3d3d3d 0a3d3d3d 43434500     E  ========..ECC
  1e0003d334:	44006425 64254942 25514400 45530064     %d.DBI%d.DQ%d.SE
  1e0003d344:	00642556 52415041 46504100 25520055     V%d.APAR.APFU.R%
  1e0003d354:	42480064 5f64254d 255f4843 73255f64     d.HBM%d_CH_%d_%s
  1e0003d364:	3d3d000a 3d3d3d3d 3d3d3d3d 3d3d3d3d     ..==============
  1e0003d374:	3d3d3d3d 3d3d3d3d 3d3d3d3d 3d3d3d3d     ================
  1e0003d384:	000a3d3d 5b48430a 205d6425 65726e55     ==...CH[%d] Unre
  1e0003d394:	72696170 656c6261 474b5020 410a000a     pairable PKG...A
  1e0003d3a4:	6165726c 52207964 74657365 726f6620     lready Reset for
  1e0003d3b4:	4d424820 70655220 20726961 74206425      HBM Repair %d t
  1e0003d3c4:	73656d69 430a000a 6c706968 49207465     imes...Chiplet I
  1e0003d3d4:	64255b44 4248205d 7254204d 696e6961     D[%d] HBM Traini
  1e0003d3e4:	4620676e 0a4c4941 69684300 74656c70     ng FAIL..Chiplet
  1e0003d3f4:	5b444920 205d6425 334d4248 696e6920      ID[%d] HBM3 ini
  1e0003d404:	6f642074 000a656e 54504714 70202d20     t done...GPT - p
  1e0003d414:	65737261 7470675f 746e655f 31207972     arse_gpt_entry 1
  1e0003d424:	69616620 14000a6c 20545047 6170202d      fail...GPT - pa
  1e0003d434:	5f657372 5f747067 72746e65 20322079     rse_gpt_entry 2 
  1e0003d444:	6c696166 4714000a 2d205450 69614620     fail...GPT - Fai
  1e0003d454:	2064656c 6f6c202d 675f6461 655f7470     led - load_gpt_e
  1e0003d464:	7972746e 4714000a 2d205450 69614620     ntry...GPT - Fai
  1e0003d474:	2064656c 6170202d 5f657372 5f747067     led - parse_gpt_
  1e0003d484:	72746e65 14000a79 20545047 6f4e202d     entry...GPT - No
  1e0003d494:	6c615620 47206469 45205450 6972746e      Valid GPT Entri
  1e0003d4a4:	66207365 646e756f 4714000a 2d205450     es found...GPT -
  1e0003d4b4:	69614620 2064656c 72206f74 69727465      Failed to retri
  1e0003d4c4:	20657665 6d697250 20797261 20545047     eve Primary GPT 
  1e0003d4d4:	64616568 000a7265 54504714 4d202d20     header...GPT - M
  1e0003d4e4:	62205242 20746f6f 6e676973 72757461     BR boot signatur
  1e0003d4f4:	61662065 72756c69 14000a65 20545047     e failure...GPT 
  1e0003d504:	424d202d 65682052 72656461 79616d20     - MBR header may
  1e0003d514:	76616820 6e612065 766e6920 64696c61      have an invalid
  1e0003d524:	72696620 4c207473 000a4142 54504714      first LBA...GPT
  1e0003d534:	4d202d20 68205242 65646165 6e652072      - MBR header en
  1e0003d544:	20797274 20736168 69206e61 6c61766e     try has an inval
  1e0003d554:	6e206469 65626d75 666f2072 63657320     id number of sec
  1e0003d564:	73726f74 4714000a 2d205450 52424d20     tors...GPT - MBR
  1e0003d574:	46202d20 656c6961 6f742064 63636120      - Failed to acc
  1e0003d584:	20737365 67616d69 64692065 0a64253d     ess image id=%d.
  1e0003d594:	50471400 202d2054 6c696146 6c206465     ..GPT - Failed l
  1e0003d5a4:	5f64616f 6d697270 5f797261 20747067     oad_primary_gpt 
  1e0003d5b4:	6572202d 746c7573 0a64253d 20201400     - result=%d...  
  1e0003d5c4:	50472020 6e692054 000a7469 20202014       GPT init...   
  1e0003d5d4:	54504720 696e6920 61662074 72756c69      GPT init failur
  1e0003d5e4:	0a000a65 70616d6d 6464615f 6765725f     e...mmap_add_reg
  1e0003d5f4:	5f6e6f69 63656863 2029286b 6c696166     ion_check() fail
  1e0003d604:	202e6465 6f727265 64252072 4e0a000a     ed. error %d...N
  1e0003d614:	6520746f 67756f6e 656d2068 79726f6d     ot enough memory
  1e0003d624:	206f7420 2070616d 69676572 0a3a6e6f      to map region:.
  1e0003d634:	3a415620 6c257830 50202078 78303a41      VA:0x%lx  PA:0x
  1e0003d644:	786c6c25 69732020 303a657a 787a2578     %llx  size:0x%zx
  1e0003d654:	74612020 303a7274 0a782578 304c4500       attr:0x%x..EL0
  1e0003d664:	314c4500 324c4500 334c4500 52524500     .EL1.EL2.EL3.ERR
  1e0003d674:	203a524f 4e002020 4349544f 20203a45     OR:   .NOTICE:  
  1e0003d684:	52415700 474e494e 4900203a 3a4f464e     .WARNING: .INFO:
  1e0003d694:	20202020 52455600 45534f42 1400203a         .VERBOSE: ..
  1e0003d6a4:	3a324c42 696e4920 4d432074 666f2055     BL2: Init CMU of
  1e0003d6b4:	69686320 74656c70 0a64252d 4c421400      chiplet-%d...BL
  1e0003d6c4:	49203a32 2074696e 204d4248 6320666f     2: Init HBM of c
  1e0003d6d4:	6c706968 252d7465 0a000a64 204d4248     hiplet-%d...HBM 
  1e0003d6e4:	746f6f42 206e6f20 70696863 2574656c     Boot on chiplet%
  1e0003d6f4:	41462064 000a4c49 324c4214 7552203a     d FAIL...BL2: Ru
  1e0003d704:	4345206e 6e692043 000a7469 324c4214     n ECC init...BL2
  1e0003d714:	5645203a 65762054 6f697372 30203a6e     : EVT version: 0
  1e0003d724:	0a782578 4c421400 67203a32 69207470     x%x...BL2: gpt i
  1e0003d734:	2074696e 64207369 0a656e6f 4c421400     nit is done...BL
  1e0003d744:	43203a32 425f3050 2031334c 75716572     2: CP0_BL31 requ
  1e0003d754:	0a747365 4c421400 43203a32 425f3050     est...BL2: CP0_B
  1e0003d764:	2031334c 75716572 20747365 656e6f64     L31 request done
  1e0003d774:	4214000a 203a324c 5f305043 45455246     ...BL2: CP0_FREE
  1e0003d784:	534f5452 71657220 74736575 4214000a     RTOS request...B
  1e0003d794:	203a324c 5f305043 45455246 534f5452     L2: CP0_FREERTOS
  1e0003d7a4:	71657220 74736575 6e6f6420 14000a65      request done...
  1e0003d7b4:	3a324c42 31504320 334c425f 65722031     BL2: CP1_BL31 re
  1e0003d7c4:	73657571 14000a74 3a324c42 31504320     quest...BL2: CP1
  1e0003d7d4:	334c425f 65722031 73657571 6f642074     _BL31 request do
  1e0003d7e4:	000a656e 324c4214 5043203a 52465f31     ne...BL2: CP1_FR
  1e0003d7f4:	54524545 7220534f 65757165 000a7473     EERTOS request..
  1e0003d804:	324c4214 5043203a 52465f31 54524545     .BL2: CP1_FREERT
  1e0003d814:	7220534f 65757165 64207473 0a656e6f     OS request done.
  1e0003d824:	4c421400 43203a32 6c706968 30207465     ..BL2: Chiplet 0
  1e0003d834:	616f6c20 74732064 0a747261 4c421400      load start...BL
  1e0003d844:	42203a32 2031334c 64616f6c 20736920     2: BL31 load is 
  1e0003d854:	656e6f64 4214000a 203a324c 45455246     done...BL2: FREE
  1e0003d864:	534f5452 616f6c20 73692064 6e6f6420     RTOS load is don
  1e0003d874:	14000a65 3a324c42 334c4220 50432031     e...BL2: BL31 CP
  1e0003d884:	6f6c2031 69206461 6f642073 000a656e     1 load is done..
  1e0003d894:	324c4214 5246203a 54524545 4320534f     .BL2: FREERTOS C
  1e0003d8a4:	6c203150 2064616f 64207369 0a656e6f     P1 load is done.
  1e0003d8b4:	6e550a00 65707865 64657463 6f6f6220     ..Unexpected boo
  1e0003d8c4:	646f6d74 203a2065 000a6425 324c4214     tmode : %d...BL2
  1e0003d8d4:	6552203a 7361656c 20612065 65736572     : Release a rese
  1e0003d8e4:	666f2074 31504320 7570632e 14000a30     t of CP1.cpu0...
  1e0003d8f4:	5f4b4c42 4d415244 72615020 6c616974     BLK_DRAM Partial
  1e0003d904:	53455220 000a5445 4b4c4214 4152445f      RESET...BLK_DRA
  1e0003d914:	6150204d 61697472 4552206c 20544553     M Partial RESET 
  1e0003d924:	656c6552 64657361 7361000a 74726573     Released..assert
  1e0003d934:	00783000                                .0x.

0000001e0003d938 <build_version_string>:
  1e0003d938:	312e3276 28312e34 75626564 763a2967     v2.14.1(debug):v
  1e0003d948:	765f6b64 2e312e34 39312d32 6431672d     dk_v4.1.2-19-g1d
  1e0003d958:	32613631 2d353265 74726964               16a2e25-dirty.

0000001e0003d966 <build_message>:
  1e0003d966:	6c697542 203a2074 313a3032 30343a33     Built : 20:13:40
  1e0003d976:	7041202c 30322072 32303220               , Apr 20 2026.

0000001e0003d984 <__func__.0>:
  1e0003d984:	5f616d64 33336c70 66785f30               dma_pl330_xfer.

0000001e0003d993 <__func__.0>:
  1e0003d993:	74696e69 616c785f 61745f74 73656c62     init_xlat_tables
  1e0003d9a3:	7874635f                                 _ctx.

0000001e0003d9a8 <panic_msg>:
  1e0003d9a8:	494e4150 	.word	0x494e4150
  1e0003d9ac:	74612043 	.word	0x74612043
  1e0003d9b0:	20435020 	.word	0x20435020
  1e0003d9b4:	7830203a 	.word	0x7830203a
  1e0003d9b8:	69726400 	.word	0x69726400
  1e0003d9bc:	73726576 	.word	0x73726576
  1e0003d9c0:	2f69742f 	.word	0x2f69742f
  1e0003d9c4:	74726175 	.word	0x74726175
  1e0003d9c8:	7261612f 	.word	0x7261612f
  1e0003d9cc:	34366863 	.word	0x34366863
  1e0003d9d0:	3536312f 	.word	0x3536312f
  1e0003d9d4:	635f3035 	.word	0x635f3035
  1e0003d9d8:	6f736e6f 	.word	0x6f736e6f
  1e0003d9dc:	532e656c 	.word	0x532e656c
  1e0003d9e0:	62696c00 	.word	0x62696c00
  1e0003d9e4:	7261612f 	.word	0x7261612f
  1e0003d9e8:	34366863 	.word	0x34366863
  1e0003d9ec:	73696d2f 	.word	0x73696d2f
  1e0003d9f0:	65685f63 	.word	0x65685f63
  1e0003d9f4:	7265706c 	.word	0x7265706c
  1e0003d9f8:	00532e73 	.word	0x00532e73
  1e0003d9fc:	2f62696c 	.word	0x2f62696c
  1e0003da00:	74616c78 	.word	0x74616c78
  1e0003da04:	6261745f 	.word	0x6261745f
  1e0003da08:	5f73656c 	.word	0x5f73656c
  1e0003da0c:	612f3276 	.word	0x612f3276
  1e0003da10:	68637261 	.word	0x68637261
  1e0003da14:	652f3436 	.word	0x652f3436
  1e0003da18:	6c62616e 	.word	0x6c62616e
  1e0003da1c:	6d6d5f65 	.word	0x6d6d5f65
  1e0003da20:	00532e75 	.word	0x00532e75
  1e0003da24:	00000000 	.word	0x00000000

0000001e0003da28 <__CPU_OPS_END__>:
	...

0000001e0003e000 <SynchronousExceptionSP0>:
  1e0003e000:	d2800000 	mov	x0, #0x0                   	// #0
  1e0003e004:	97fff561 	bl	1e0003b588 <plat_report_exception>
  1e0003e008:	97fff561 	bl	1e0003b58c <plat_panic_handler>
  1e0003e00c:	d503201f 	nop
	...

0000001e0003e080 <IrqSP0>:
  1e0003e080:	d2800020 	mov	x0, #0x1                   	// #1
  1e0003e084:	97fff541 	bl	1e0003b588 <plat_report_exception>
  1e0003e088:	97fff541 	bl	1e0003b58c <plat_panic_handler>
  1e0003e08c:	d503201f 	nop
	...

0000001e0003e100 <FiqSP0>:
  1e0003e100:	d2800040 	mov	x0, #0x2                   	// #2
  1e0003e104:	97fff521 	bl	1e0003b588 <plat_report_exception>
  1e0003e108:	97fff521 	bl	1e0003b58c <plat_panic_handler>
  1e0003e10c:	d503201f 	nop
	...

0000001e0003e180 <SErrorSP0>:
  1e0003e180:	d2800060 	mov	x0, #0x3                   	// #3
  1e0003e184:	97fff501 	bl	1e0003b588 <plat_report_exception>
  1e0003e188:	97fff501 	bl	1e0003b58c <plat_panic_handler>
  1e0003e18c:	d503201f 	nop
	...

0000001e0003e200 <SynchronousExceptionSPx>:
  1e0003e200:	d2800080 	mov	x0, #0x4                   	// #4
  1e0003e204:	97fff4e1 	bl	1e0003b588 <plat_report_exception>
  1e0003e208:	97fff4e1 	bl	1e0003b58c <plat_panic_handler>
  1e0003e20c:	d503201f 	nop
	...

0000001e0003e280 <IrqSPx>:
  1e0003e280:	d28000a0 	mov	x0, #0x5                   	// #5
  1e0003e284:	97fff4c1 	bl	1e0003b588 <plat_report_exception>
  1e0003e288:	97fff4c1 	bl	1e0003b58c <plat_panic_handler>
  1e0003e28c:	d503201f 	nop
	...

0000001e0003e300 <FiqSPx>:
  1e0003e300:	d28000c0 	mov	x0, #0x6                   	// #6
  1e0003e304:	97fff4a1 	bl	1e0003b588 <plat_report_exception>
  1e0003e308:	97fff4a1 	bl	1e0003b58c <plat_panic_handler>
  1e0003e30c:	d503201f 	nop
	...

0000001e0003e380 <SErrorSPx>:
  1e0003e380:	d28000e0 	mov	x0, #0x7                   	// #7
  1e0003e384:	97fff481 	bl	1e0003b588 <plat_report_exception>
  1e0003e388:	97fff481 	bl	1e0003b58c <plat_panic_handler>
  1e0003e38c:	d503201f 	nop
	...

0000001e0003e400 <SynchronousExceptionA64>:
  1e0003e400:	d2800100 	mov	x0, #0x8                   	// #8
  1e0003e404:	97fff461 	bl	1e0003b588 <plat_report_exception>
  1e0003e408:	97fff461 	bl	1e0003b58c <plat_panic_handler>
  1e0003e40c:	d503201f 	nop
	...

0000001e0003e480 <IrqA64>:
  1e0003e480:	d2800120 	mov	x0, #0x9                   	// #9
  1e0003e484:	97fff441 	bl	1e0003b588 <plat_report_exception>
  1e0003e488:	97fff441 	bl	1e0003b58c <plat_panic_handler>
  1e0003e48c:	d503201f 	nop
	...

0000001e0003e500 <FiqA64>:
  1e0003e500:	d2800140 	mov	x0, #0xa                   	// #10
  1e0003e504:	97fff421 	bl	1e0003b588 <plat_report_exception>
  1e0003e508:	97fff421 	bl	1e0003b58c <plat_panic_handler>
  1e0003e50c:	d503201f 	nop
	...

0000001e0003e580 <SErrorA64>:
  1e0003e580:	d2800160 	mov	x0, #0xb                   	// #11
  1e0003e584:	97fff401 	bl	1e0003b588 <plat_report_exception>
  1e0003e588:	97fff401 	bl	1e0003b58c <plat_panic_handler>
  1e0003e58c:	d503201f 	nop
	...

0000001e0003e600 <SynchronousExceptionA32>:
  1e0003e600:	d2800180 	mov	x0, #0xc                   	// #12
  1e0003e604:	97fff3e1 	bl	1e0003b588 <plat_report_exception>
  1e0003e608:	97fff3e1 	bl	1e0003b58c <plat_panic_handler>
  1e0003e60c:	d503201f 	nop
	...

0000001e0003e680 <IrqA32>:
  1e0003e680:	d28001a0 	mov	x0, #0xd                   	// #13
  1e0003e684:	97fff3c1 	bl	1e0003b588 <plat_report_exception>
  1e0003e688:	97fff3c1 	bl	1e0003b58c <plat_panic_handler>
  1e0003e68c:	d503201f 	nop
	...

0000001e0003e700 <FiqA32>:
  1e0003e700:	d28001c0 	mov	x0, #0xe                   	// #14
  1e0003e704:	97fff3a1 	bl	1e0003b588 <plat_report_exception>
  1e0003e708:	97fff3a1 	bl	1e0003b58c <plat_panic_handler>
  1e0003e70c:	d503201f 	nop
	...

0000001e0003e780 <SErrorA32>:
  1e0003e780:	d28001e0 	mov	x0, #0xf                   	// #15
  1e0003e784:	97fff381 	bl	1e0003b588 <plat_report_exception>
  1e0003e788:	97fff381 	bl	1e0003b58c <plat_panic_handler>
  1e0003e78c:	d503201f 	nop
	...

0000001e0003e800 <__RO_END_UNALIGNED__>:
	...
