Archive member included to satisfy reference by file (symbol)

/home/jongja.cho/Git/legacy/rebel_cds_collab_hw/bootloader/cp/tf-a/build/rebel_h/debug/lib/libc.a(assert.o)
                              /home/jongja.cho/Git/legacy/rebel_cds_collab_hw/bootloader/cp/tf-a/build/rebel_h/debug/bl2/bl2_image_load_v2.o (__assert)
/home/jongja.cho/Git/legacy/rebel_cds_collab_hw/bootloader/cp/tf-a/build/rebel_h/debug/lib/libc.a(memcpy.o)
                              /home/jongja.cho/Git/legacy/rebel_cds_collab_hw/bootloader/cp/tf-a/build/rebel_h/debug/bl2/icon.o (memcpy)
/home/jongja.cho/Git/legacy/rebel_cds_collab_hw/bootloader/cp/tf-a/build/rebel_h/debug/lib/libc.a(memmove.o)
                              /home/jongja.cho/Git/legacy/rebel_cds_collab_hw/bootloader/cp/tf-a/build/rebel_h/debug/bl2/xlat_tables_core.o (memmove)
/home/jongja.cho/Git/legacy/rebel_cds_collab_hw/bootloader/cp/tf-a/build/rebel_h/debug/lib/libc.a(printf.o)
                              /home/jongja.cho/Git/legacy/rebel_cds_collab_hw/bootloader/cp/tf-a/build/rebel_h/debug/bl2/tf_log.o (vprintf)
/home/jongja.cho/Git/legacy/rebel_cds_collab_hw/bootloader/cp/tf-a/build/rebel_h/debug/lib/libc.a(snprintf.o)
                              /home/jongja.cho/Git/legacy/rebel_cds_collab_hw/bootloader/cp/tf-a/build/rebel_h/debug/bl2/hbm3_init.o (snprintf)
/home/jongja.cho/Git/legacy/rebel_cds_collab_hw/bootloader/cp/tf-a/build/rebel_h/debug/lib/libc.a(strlen.o)
                              /home/jongja.cho/Git/legacy/rebel_cds_collab_hw/bootloader/cp/tf-a/build/rebel_h/debug/bl2/hbm3_chipid.o (strlen)
/home/jongja.cho/Git/legacy/rebel_cds_collab_hw/bootloader/cp/tf-a/build/rebel_h/debug/lib/libc.a(strncmp.o)
                              /home/jongja.cho/Git/legacy/rebel_cds_collab_hw/bootloader/cp/tf-a/build/rebel_h/debug/bl2/hbm3_chipid.o (strncmp)
/home/jongja.cho/Git/legacy/rebel_cds_collab_hw/bootloader/cp/tf-a/build/rebel_h/debug/lib/libc.a(memset.o)
                              /home/jongja.cho/Git/legacy/rebel_cds_collab_hw/bootloader/cp/tf-a/build/rebel_h/debug/bl2/pl330.o (memset)

Discarded input sections

 .text          0x0000000000000000        0x0 /home/jongja.cho/Git/legacy/rebel_cds_collab_hw/bootloader/cp/tf-a/build/rebel_h/debug/bl2/hbm3.o
 .data          0x0000000000000000        0x0 /home/jongja.cho/Git/legacy/rebel_cds_collab_hw/bootloader/cp/tf-a/build/rebel_h/debug/bl2/hbm3.o
 .bss           0x0000000000000000        0x0 /home/jongja.cho/Git/legacy/rebel_cds_collab_hw/bootloader/cp/tf-a/build/rebel_h/debug/bl2/hbm3.o
 .text.phy_clear_feedback_data
                0x0000000000000000       0x4c /home/jongja.cho/Git/legacy/rebel_cds_collab_hw/bootloader/cp/tf-a/build/rebel_h/debug/bl2/hbm3.o
 .text.mrw_mask
                0x0000000000000000       0x98 /home/jongja.cho/Git/legacy/rebel_cds_collab_hw/bootloader/cp/tf-a/build/rebel_h/debug/bl2/hbm3.o
 .text.mrw      0x0000000000000000        0x8 /home/jongja.cho/Git/legacy/rebel_cds_collab_hw/bootloader/cp/tf-a/build/rebel_h/debug/bl2/hbm3.o
 .text          0x0000000000000000        0x0 /home/jongja.cho/Git/legacy/rebel_cds_collab_hw/bootloader/cp/tf-a/build/rebel_h/debug/bl2/icon.o
 .data          0x0000000000000000        0x0 /home/jongja.cho/Git/legacy/rebel_cds_collab_hw/bootloader/cp/tf-a/build/rebel_h/debug/bl2/icon.o
 .bss           0x0000000000000000        0x0 /home/jongja.cho/Git/legacy/rebel_cds_collab_hw/bootloader/cp/tf-a/build/rebel_h/debug/bl2/icon.o
 .rodata.icon_cdc_result.str1.1
                0x0000000000000000       0x1c /home/jongja.cho/Git/legacy/rebel_cds_collab_hw/bootloader/cp/tf-a/build/rebel_h/debug/bl2/icon.o
 .text.icon_cdc_result
                0x0000000000000000       0xb0 /home/jongja.cho/Git/legacy/rebel_cds_collab_hw/bootloader/cp/tf-a/build/rebel_h/debug/bl2/icon.o
 .text.icon_cdc_wdr
                0x0000000000000000       0x58 /home/jongja.cho/Git/legacy/rebel_cds_collab_hw/bootloader/cp/tf-a/build/rebel_h/debug/bl2/icon.o
 .text.icon_cdc_wir
                0x0000000000000000       0x50 /home/jongja.cho/Git/legacy/rebel_cds_collab_hw/bootloader/cp/tf-a/build/rebel_h/debug/bl2/icon.o
 .rodata.icon_hbm_chipping_detection.str1.1
                0x0000000000000000       0xe5 /home/jongja.cho/Git/legacy/rebel_cds_collab_hw/bootloader/cp/tf-a/build/rebel_h/debug/bl2/icon.o
 .text.icon_hbm_chipping_detection
                0x0000000000000000      0x228 /home/jongja.cho/Git/legacy/rebel_cds_collab_hw/bootloader/cp/tf-a/build/rebel_h/debug/bl2/icon.o
 .text.icon_mbist_wdr
                0x0000000000000000       0xe4 /home/jongja.cho/Git/legacy/rebel_cds_collab_hw/bootloader/cp/tf-a/build/rebel_h/debug/bl2/icon.o
 .rodata.icon_mbist_result.str1.1
                0x0000000000000000       0x3b /home/jongja.cho/Git/legacy/rebel_cds_collab_hw/bootloader/cp/tf-a/build/rebel_h/debug/bl2/icon.o
 .text.icon_mbist_result
                0x0000000000000000      0x114 /home/jongja.cho/Git/legacy/rebel_cds_collab_hw/bootloader/cp/tf-a/build/rebel_h/debug/bl2/icon.o
 .text.icon_mbist_wir
                0x0000000000000000       0x60 /home/jongja.cho/Git/legacy/rebel_cds_collab_hw/bootloader/cp/tf-a/build/rebel_h/debug/bl2/icon.o
 .text.icon_get_device_id
                0x0000000000000000       0x5c /home/jongja.cho/Git/legacy/rebel_cds_collab_hw/bootloader/cp/tf-a/build/rebel_h/debug/bl2/icon.o
 .text.icon_get_dram_temperature
                0x0000000000000000       0x30 /home/jongja.cho/Git/legacy/rebel_cds_collab_hw/bootloader/cp/tf-a/build/rebel_h/debug/bl2/icon.o
 .text.icon_get_channel_temperature
                0x0000000000000000       0x3c /home/jongja.cho/Git/legacy/rebel_cds_collab_hw/bootloader/cp/tf-a/build/rebel_h/debug/bl2/icon.o
 .text.icon_get_ecs_error_log
                0x0000000000000000       0x78 /home/jongja.cho/Git/legacy/rebel_cds_collab_hw/bootloader/cp/tf-a/build/rebel_h/debug/bl2/icon.o
 .rodata.icon_print_device_id.str1.1
                0x0000000000000000      0x242 /home/jongja.cho/Git/legacy/rebel_cds_collab_hw/bootloader/cp/tf-a/build/rebel_h/debug/bl2/icon.o
 .text.icon_print_device_id
                0x0000000000000000      0x28c /home/jongja.cho/Git/legacy/rebel_cds_collab_hw/bootloader/cp/tf-a/build/rebel_h/debug/bl2/icon.o
 .rodata.icon_print_dram_temperature.str1.1
                0x0000000000000000       0x40 /home/jongja.cho/Git/legacy/rebel_cds_collab_hw/bootloader/cp/tf-a/build/rebel_h/debug/bl2/icon.o
 .text.icon_print_dram_temperature
                0x0000000000000000       0x88 /home/jongja.cho/Git/legacy/rebel_cds_collab_hw/bootloader/cp/tf-a/build/rebel_h/debug/bl2/icon.o
 .rodata.icon_print_channel_temperature.str1.1
                0x0000000000000000       0xe0 /home/jongja.cho/Git/legacy/rebel_cds_collab_hw/bootloader/cp/tf-a/build/rebel_h/debug/bl2/icon.o
 .text.icon_print_channel_temperature
                0x0000000000000000      0x114 /home/jongja.cho/Git/legacy/rebel_cds_collab_hw/bootloader/cp/tf-a/build/rebel_h/debug/bl2/icon.o
 .rodata.icon_print_ecs_error_log.str1.1
                0x0000000000000000      0x618 /home/jongja.cho/Git/legacy/rebel_cds_collab_hw/bootloader/cp/tf-a/build/rebel_h/debug/bl2/icon.o
 .text.icon_print_ecs_error_log
                0x0000000000000000      0x400 /home/jongja.cho/Git/legacy/rebel_cds_collab_hw/bootloader/cp/tf-a/build/rebel_h/debug/bl2/icon.o
 .rodata.icon_mrw_idx.str1.1
                0x0000000000000000       0x31 /home/jongja.cho/Git/legacy/rebel_cds_collab_hw/bootloader/cp/tf-a/build/rebel_h/debug/bl2/icon.o
 .text.icon_mrw_idx
                0x0000000000000000       0xbc /home/jongja.cho/Git/legacy/rebel_cds_collab_hw/bootloader/cp/tf-a/build/rebel_h/debug/bl2/icon.o
 .rodata.icon_mrr.str1.1
                0x0000000000000000       0xd0 /home/jongja.cho/Git/legacy/rebel_cds_collab_hw/bootloader/cp/tf-a/build/rebel_h/debug/bl2/icon.o
 .text.icon_mrr
                0x0000000000000000      0x1a0 /home/jongja.cho/Git/legacy/rebel_cds_collab_hw/bootloader/cp/tf-a/build/rebel_h/debug/bl2/icon.o
 .text          0x0000000000000000        0x0 /home/jongja.cho/Git/legacy/rebel_cds_collab_hw/bootloader/cp/tf-a/build/rebel_h/debug/bl2/tmrs.o
 .data          0x0000000000000000        0x0 /home/jongja.cho/Git/legacy/rebel_cds_collab_hw/bootloader/cp/tf-a/build/rebel_h/debug/bl2/tmrs.o
 .bss           0x0000000000000000        0x0 /home/jongja.cho/Git/legacy/rebel_cds_collab_hw/bootloader/cp/tf-a/build/rebel_h/debug/bl2/tmrs.o
 .text          0x0000000000000000        0x0 /home/jongja.cho/Git/legacy/rebel_cds_collab_hw/bootloader/cp/tf-a/build/rebel_h/debug/bl2/bakery_lock.o
 .data          0x0000000000000000        0x0 /home/jongja.cho/Git/legacy/rebel_cds_collab_hw/bootloader/cp/tf-a/build/rebel_h/debug/bl2/bakery_lock.o
 .bss           0x0000000000000000        0x0 /home/jongja.cho/Git/legacy/rebel_cds_collab_hw/bootloader/cp/tf-a/build/rebel_h/debug/bl2/bakery_lock.o
 .text.rebel_bakery_lock_acquire
                0x0000000000000000       0xcc /home/jongja.cho/Git/legacy/rebel_cds_collab_hw/bootloader/cp/tf-a/build/rebel_h/debug/bl2/bakery_lock.o
 .text.rebel_bakery_lock_release
                0x0000000000000000       0x28 /home/jongja.cho/Git/legacy/rebel_cds_collab_hw/bootloader/cp/tf-a/build/rebel_h/debug/bl2/bakery_lock.o
 .text          0x0000000000000000        0x0 /home/jongja.cho/Git/legacy/rebel_cds_collab_hw/bootloader/cp/tf-a/build/rebel_h/debug/bl2/bl2_arch_setup.o
 .data          0x0000000000000000        0x0 /home/jongja.cho/Git/legacy/rebel_cds_collab_hw/bootloader/cp/tf-a/build/rebel_h/debug/bl2/bl2_arch_setup.o
 .bss           0x0000000000000000        0x0 /home/jongja.cho/Git/legacy/rebel_cds_collab_hw/bootloader/cp/tf-a/build/rebel_h/debug/bl2/bl2_arch_setup.o
 .text          0x0000000000000000        0x0 /home/jongja.cho/Git/legacy/rebel_cds_collab_hw/bootloader/cp/tf-a/build/rebel_h/debug/bl2/bl2_image_load_v2.o
 .data          0x0000000000000000        0x0 /home/jongja.cho/Git/legacy/rebel_cds_collab_hw/bootloader/cp/tf-a/build/rebel_h/debug/bl2/bl2_image_load_v2.o
 .bss           0x0000000000000000        0x0 /home/jongja.cho/Git/legacy/rebel_cds_collab_hw/bootloader/cp/tf-a/build/rebel_h/debug/bl2/bl2_image_load_v2.o
 .text          0x0000000000000000        0x0 /home/jongja.cho/Git/legacy/rebel_cds_collab_hw/bootloader/cp/tf-a/build/rebel_h/debug/bl2/bl2_main.o
 .data          0x0000000000000000        0x0 /home/jongja.cho/Git/legacy/rebel_cds_collab_hw/bootloader/cp/tf-a/build/rebel_h/debug/bl2/bl2_main.o
 .bss           0x0000000000000000        0x0 /home/jongja.cho/Git/legacy/rebel_cds_collab_hw/bootloader/cp/tf-a/build/rebel_h/debug/bl2/bl2_main.o
 .text          0x0000000000000000        0x0 /home/jongja.cho/Git/legacy/rebel_cds_collab_hw/bootloader/cp/tf-a/build/rebel_h/debug/bl2/backtrace.o
 .data          0x0000000000000000        0x0 /home/jongja.cho/Git/legacy/rebel_cds_collab_hw/bootloader/cp/tf-a/build/rebel_h/debug/bl2/backtrace.o
 .bss           0x0000000000000000        0x0 /home/jongja.cho/Git/legacy/rebel_cds_collab_hw/bootloader/cp/tf-a/build/rebel_h/debug/bl2/backtrace.o
 .text          0x0000000000000000        0x0 /home/jongja.cho/Git/legacy/rebel_cds_collab_hw/bootloader/cp/tf-a/build/rebel_h/debug/bl2/bl_common.o
 .data          0x0000000000000000        0x0 /home/jongja.cho/Git/legacy/rebel_cds_collab_hw/bootloader/cp/tf-a/build/rebel_h/debug/bl2/bl_common.o
 .bss           0x0000000000000000        0x0 /home/jongja.cho/Git/legacy/rebel_cds_collab_hw/bootloader/cp/tf-a/build/rebel_h/debug/bl2/bl_common.o
 .text.page_align
                0x0000000000000000       0x1c /home/jongja.cho/Git/legacy/rebel_cds_collab_hw/bootloader/cp/tf-a/build/rebel_h/debug/bl2/bl_common.o
 .text.print_entry_point_info
                0x0000000000000000        0x4 /home/jongja.cho/Git/legacy/rebel_cds_collab_hw/bootloader/cp/tf-a/build/rebel_h/debug/bl2/bl_common.o
 .text.get_version
                0x0000000000000000        0xc /home/jongja.cho/Git/legacy/rebel_cds_collab_hw/bootloader/cp/tf-a/build/rebel_h/debug/bl2/bl_common.o
 .rodata.build_version
                0x0000000000000000        0x7 /home/jongja.cho/Git/legacy/rebel_cds_collab_hw/bootloader/cp/tf-a/build/rebel_h/debug/bl2/bl_common.o
 .text          0x0000000000000000        0x0 /home/jongja.cho/Git/legacy/rebel_cds_collab_hw/bootloader/cp/tf-a/build/rebel_h/debug/bl2/desc_image_load.o
 .data          0x0000000000000000        0x0 /home/jongja.cho/Git/legacy/rebel_cds_collab_hw/bootloader/cp/tf-a/build/rebel_h/debug/bl2/desc_image_load.o
 .bss           0x0000000000000000        0x0 /home/jongja.cho/Git/legacy/rebel_cds_collab_hw/bootloader/cp/tf-a/build/rebel_h/debug/bl2/desc_image_load.o
 .text.get_bl_mem_params_node
                0x0000000000000000       0x3c /home/jongja.cho/Git/legacy/rebel_cds_collab_hw/bootloader/cp/tf-a/build/rebel_h/debug/bl2/desc_image_load.o
 .text.populate_next_bl_params_config
                0x0000000000000000       0xbc /home/jongja.cho/Git/legacy/rebel_cds_collab_hw/bootloader/cp/tf-a/build/rebel_h/debug/bl2/desc_image_load.o
 .text.bl31_params_parse_helper
                0x0000000000000000       0xd0 /home/jongja.cho/Git/legacy/rebel_cds_collab_hw/bootloader/cp/tf-a/build/rebel_h/debug/bl2/desc_image_load.o
 .text          0x0000000000000000        0x0 /home/jongja.cho/Git/legacy/rebel_cds_collab_hw/bootloader/cp/tf-a/build/rebel_h/debug/bl2/tf_crc32.o
 .data          0x0000000000000000        0x0 /home/jongja.cho/Git/legacy/rebel_cds_collab_hw/bootloader/cp/tf-a/build/rebel_h/debug/bl2/tf_crc32.o
 .bss           0x0000000000000000        0x0 /home/jongja.cho/Git/legacy/rebel_cds_collab_hw/bootloader/cp/tf-a/build/rebel_h/debug/bl2/tf_crc32.o
 .text          0x0000000000000000        0x0 /home/jongja.cho/Git/legacy/rebel_cds_collab_hw/bootloader/cp/tf-a/build/rebel_h/debug/bl2/tf_log.o
 .data          0x0000000000000000        0x0 /home/jongja.cho/Git/legacy/rebel_cds_collab_hw/bootloader/cp/tf-a/build/rebel_h/debug/bl2/tf_log.o
 .bss           0x0000000000000000        0x0 /home/jongja.cho/Git/legacy/rebel_cds_collab_hw/bootloader/cp/tf-a/build/rebel_h/debug/bl2/tf_log.o
 .text.tf_log_newline
                0x0000000000000000       0x44 /home/jongja.cho/Git/legacy/rebel_cds_collab_hw/bootloader/cp/tf-a/build/rebel_h/debug/bl2/tf_log.o
 .text.tf_log_set_max_level
                0x0000000000000000       0x38 /home/jongja.cho/Git/legacy/rebel_cds_collab_hw/bootloader/cp/tf-a/build/rebel_h/debug/bl2/tf_log.o
 .text          0x0000000000000000        0x0 /home/jongja.cho/Git/legacy/rebel_cds_collab_hw/bootloader/cp/tf-a/build/rebel_h/debug/bl2/pl330.o
 .data          0x0000000000000000        0x0 /home/jongja.cho/Git/legacy/rebel_cds_collab_hw/bootloader/cp/tf-a/build/rebel_h/debug/bl2/pl330.o
 .bss           0x0000000000000000        0x0 /home/jongja.cho/Git/legacy/rebel_cds_collab_hw/bootloader/cp/tf-a/build/rebel_h/debug/bl2/pl330.o
 .text.dma_wait_xfer_done
                0x0000000000000000       0x30 /home/jongja.cho/Git/legacy/rebel_cds_collab_hw/bootloader/cp/tf-a/build/rebel_h/debug/bl2/pl330.o
 .text          0x0000000000000000        0x0 /home/jongja.cho/Git/legacy/rebel_cds_collab_hw/bootloader/cp/tf-a/build/rebel_h/debug/bl2/ucie.o
 .data          0x0000000000000000        0x0 /home/jongja.cho/Git/legacy/rebel_cds_collab_hw/bootloader/cp/tf-a/build/rebel_h/debug/bl2/ucie.o
 .bss           0x0000000000000000        0x0 /home/jongja.cho/Git/legacy/rebel_cds_collab_hw/bootloader/cp/tf-a/build/rebel_h/debug/bl2/ucie.o
 .text.enable_ucie_core
                0x0000000000000000      0x414 /home/jongja.cho/Git/legacy/rebel_cds_collab_hw/bootloader/cp/tf-a/build/rebel_h/debug/bl2/ucie.o
 .text.check_link_up
                0x0000000000000000       0x54 /home/jongja.cho/Git/legacy/rebel_cds_collab_hw/bootloader/cp/tf-a/build/rebel_h/debug/bl2/ucie.o
 .rodata.skip_txlpbk_iq_cal
                0x0000000000000000        0x4 /home/jongja.cho/Git/legacy/rebel_cds_collab_hw/bootloader/cp/tf-a/build/rebel_h/debug/bl2/ucie.o
 .rodata.nde_bit_sel
                0x0000000000000000        0x4 /home/jongja.cho/Git/legacy/rebel_cds_collab_hw/bootloader/cp/tf-a/build/rebel_h/debug/bl2/ucie.o
 .rodata.no_degrade
                0x0000000000000000        0x4 /home/jongja.cho/Git/legacy/rebel_cds_collab_hw/bootloader/cp/tf-a/build/rebel_h/debug/bl2/ucie.o
 .rodata.sticky_train_error
                0x0000000000000000        0x4 /home/jongja.cho/Git/legacy/rebel_cds_collab_hw/bootloader/cp/tf-a/build/rebel_h/debug/bl2/ucie.o
 .rodata.rx_pstate
                0x0000000000000000        0x4 /home/jongja.cho/Git/legacy/rebel_cds_collab_hw/bootloader/cp/tf-a/build/rebel_h/debug/bl2/ucie.o
 .rodata.tx_pstate
                0x0000000000000000        0x4 /home/jongja.cho/Git/legacy/rebel_cds_collab_hw/bootloader/cp/tf-a/build/rebel_h/debug/bl2/ucie.o
 .rodata.cmn_pstate
                0x0000000000000000        0x4 /home/jongja.cho/Git/legacy/rebel_cds_collab_hw/bootloader/cp/tf-a/build/rebel_h/debug/bl2/ucie.o
 .rodata.st_max_states
                0x0000000000000000        0x4 /home/jongja.cho/Git/legacy/rebel_cds_collab_hw/bootloader/cp/tf-a/build/rebel_h/debug/bl2/ucie.o
 .rodata.st_l1_l2
                0x0000000000000000        0x4 /home/jongja.cho/Git/legacy/rebel_cds_collab_hw/bootloader/cp/tf-a/build/rebel_h/debug/bl2/ucie.o
 .rodata.st_trainerror
                0x0000000000000000        0x4 /home/jongja.cho/Git/legacy/rebel_cds_collab_hw/bootloader/cp/tf-a/build/rebel_h/debug/bl2/ucie.o
 .rodata.st_active
                0x0000000000000000        0x4 /home/jongja.cho/Git/legacy/rebel_cds_collab_hw/bootloader/cp/tf-a/build/rebel_h/debug/bl2/ucie.o
 .rodata.st_linkinit
                0x0000000000000000        0x4 /home/jongja.cho/Git/legacy/rebel_cds_collab_hw/bootloader/cp/tf-a/build/rebel_h/debug/bl2/ucie.o
 .rodata.st_phyretrain
                0x0000000000000000        0x4 /home/jongja.cho/Git/legacy/rebel_cds_collab_hw/bootloader/cp/tf-a/build/rebel_h/debug/bl2/ucie.o
 .rodata.st_mbtrain_repair
                0x0000000000000000        0x4 /home/jongja.cho/Git/legacy/rebel_cds_collab_hw/bootloader/cp/tf-a/build/rebel_h/debug/bl2/ucie.o
 .rodata.st_mbtrain_linkspeed
                0x0000000000000000        0x4 /home/jongja.cho/Git/legacy/rebel_cds_collab_hw/bootloader/cp/tf-a/build/rebel_h/debug/bl2/ucie.o
 .rodata.st_mbtrain_datatraincenter2
                0x0000000000000000        0x4 /home/jongja.cho/Git/legacy/rebel_cds_collab_hw/bootloader/cp/tf-a/build/rebel_h/debug/bl2/ucie.o
 .rodata.st_mbtrain_rxdeskew
                0x0000000000000000        0x4 /home/jongja.cho/Git/legacy/rebel_cds_collab_hw/bootloader/cp/tf-a/build/rebel_h/debug/bl2/ucie.o
 .rodata.st_mbtrain_datatrainvref
                0x0000000000000000        0x4 /home/jongja.cho/Git/legacy/rebel_cds_collab_hw/bootloader/cp/tf-a/build/rebel_h/debug/bl2/ucie.o
 .rodata.st_mbtrain_datatraincenter1
                0x0000000000000000        0x4 /home/jongja.cho/Git/legacy/rebel_cds_collab_hw/bootloader/cp/tf-a/build/rebel_h/debug/bl2/ucie.o
 .rodata.st_mbtrain_valtrainvref
                0x0000000000000000        0x4 /home/jongja.cho/Git/legacy/rebel_cds_collab_hw/bootloader/cp/tf-a/build/rebel_h/debug/bl2/ucie.o
 .rodata.st_mbtrain_valtraincenter
                0x0000000000000000        0x4 /home/jongja.cho/Git/legacy/rebel_cds_collab_hw/bootloader/cp/tf-a/build/rebel_h/debug/bl2/ucie.o
 .rodata.st_mbtrain_rxselfcal
                0x0000000000000000        0x4 /home/jongja.cho/Git/legacy/rebel_cds_collab_hw/bootloader/cp/tf-a/build/rebel_h/debug/bl2/ucie.o
 .rodata.st_mbtrain_txselfcal
                0x0000000000000000        0x4 /home/jongja.cho/Git/legacy/rebel_cds_collab_hw/bootloader/cp/tf-a/build/rebel_h/debug/bl2/ucie.o
 .rodata.st_mbtrain_speedidle
                0x0000000000000000        0x4 /home/jongja.cho/Git/legacy/rebel_cds_collab_hw/bootloader/cp/tf-a/build/rebel_h/debug/bl2/ucie.o
 .rodata.st_mbtrain_datavref
                0x0000000000000000        0x4 /home/jongja.cho/Git/legacy/rebel_cds_collab_hw/bootloader/cp/tf-a/build/rebel_h/debug/bl2/ucie.o
 .rodata.st_mbtrain_valvref
                0x0000000000000000        0x4 /home/jongja.cho/Git/legacy/rebel_cds_collab_hw/bootloader/cp/tf-a/build/rebel_h/debug/bl2/ucie.o
 .rodata.st_mbinit_repairmb
                0x0000000000000000        0x4 /home/jongja.cho/Git/legacy/rebel_cds_collab_hw/bootloader/cp/tf-a/build/rebel_h/debug/bl2/ucie.o
 .rodata.st_mbinit_reversalmb
                0x0000000000000000        0x4 /home/jongja.cho/Git/legacy/rebel_cds_collab_hw/bootloader/cp/tf-a/build/rebel_h/debug/bl2/ucie.o
 .rodata.st_mbinit_repairval
                0x0000000000000000        0x4 /home/jongja.cho/Git/legacy/rebel_cds_collab_hw/bootloader/cp/tf-a/build/rebel_h/debug/bl2/ucie.o
 .rodata.st_mbinit_repairclk
                0x0000000000000000        0x4 /home/jongja.cho/Git/legacy/rebel_cds_collab_hw/bootloader/cp/tf-a/build/rebel_h/debug/bl2/ucie.o
 .rodata.st_mbinit_cal
                0x0000000000000000        0x4 /home/jongja.cho/Git/legacy/rebel_cds_collab_hw/bootloader/cp/tf-a/build/rebel_h/debug/bl2/ucie.o
 .rodata.st_mbinit_param
                0x0000000000000000        0x4 /home/jongja.cho/Git/legacy/rebel_cds_collab_hw/bootloader/cp/tf-a/build/rebel_h/debug/bl2/ucie.o
 .rodata.st_sbinit
                0x0000000000000000        0x4 /home/jongja.cho/Git/legacy/rebel_cds_collab_hw/bootloader/cp/tf-a/build/rebel_h/debug/bl2/ucie.o
 .rodata.st_reset
                0x0000000000000000        0x4 /home/jongja.cho/Git/legacy/rebel_cds_collab_hw/bootloader/cp/tf-a/build/rebel_h/debug/bl2/ucie.o
 .rodata.min_rate
                0x0000000000000000        0x4 /home/jongja.cho/Git/legacy/rebel_cds_collab_hw/bootloader/cp/tf-a/build/rebel_h/debug/bl2/ucie.o
 .rodata.bitmode_override_en
                0x0000000000000000        0x4 /home/jongja.cho/Git/legacy/rebel_cds_collab_hw/bootloader/cp/tf-a/build/rebel_h/debug/bl2/ucie.o
 .rodata.bitmode_override_val
                0x0000000000000000        0x4 /home/jongja.cho/Git/legacy/rebel_cds_collab_hw/bootloader/cp/tf-a/build/rebel_h/debug/bl2/ucie.o
 .rodata.sbdiv  0x0000000000000000        0x4 /home/jongja.cho/Git/legacy/rebel_cds_collab_hw/bootloader/cp/tf-a/build/rebel_h/debug/bl2/ucie.o
 .rodata.burst_mode
                0x0000000000000000        0x4 /home/jongja.cho/Git/legacy/rebel_cds_collab_hw/bootloader/cp/tf-a/build/rebel_h/debug/bl2/ucie.o
 .rodata.active_modules
                0x0000000000000000        0x4 /home/jongja.cho/Git/legacy/rebel_cds_collab_hw/bootloader/cp/tf-a/build/rebel_h/debug/bl2/ucie.o
 .rodata.disable_fw_timeouts
                0x0000000000000000        0x4 /home/jongja.cho/Git/legacy/rebel_cds_collab_hw/bootloader/cp/tf-a/build/rebel_h/debug/bl2/ucie.o
 .debug_info    0x0000000000000000    0x3ab97 /home/jongja.cho/Git/legacy/rebel_cds_collab_hw/bootloader/cp/tf-a/build/rebel_h/debug/bl2/ucie.o
 .debug_abbrev  0x0000000000000000      0x342 /home/jongja.cho/Git/legacy/rebel_cds_collab_hw/bootloader/cp/tf-a/build/rebel_h/debug/bl2/ucie.o
 .debug_loc     0x0000000000000000      0x4fe /home/jongja.cho/Git/legacy/rebel_cds_collab_hw/bootloader/cp/tf-a/build/rebel_h/debug/bl2/ucie.o
 .debug_aranges
                0x0000000000000000       0x40 /home/jongja.cho/Git/legacy/rebel_cds_collab_hw/bootloader/cp/tf-a/build/rebel_h/debug/bl2/ucie.o
 .debug_ranges  0x0000000000000000       0x90 /home/jongja.cho/Git/legacy/rebel_cds_collab_hw/bootloader/cp/tf-a/build/rebel_h/debug/bl2/ucie.o
 .debug_line    0x0000000000000000      0x439 /home/jongja.cho/Git/legacy/rebel_cds_collab_hw/bootloader/cp/tf-a/build/rebel_h/debug/bl2/ucie.o
 .debug_str     0x0000000000000000    0x3b5e7 /home/jongja.cho/Git/legacy/rebel_cds_collab_hw/bootloader/cp/tf-a/build/rebel_h/debug/bl2/ucie.o
 .comment       0x0000000000000000       0x45 /home/jongja.cho/Git/legacy/rebel_cds_collab_hw/bootloader/cp/tf-a/build/rebel_h/debug/bl2/ucie.o
 .debug_frame   0x0000000000000000       0x88 /home/jongja.cho/Git/legacy/rebel_cds_collab_hw/bootloader/cp/tf-a/build/rebel_h/debug/bl2/ucie.o
 .text          0x0000000000000000        0x0 /home/jongja.cho/Git/legacy/rebel_cds_collab_hw/bootloader/cp/tf-a/build/rebel_h/debug/bl2/cmu.o
 .data          0x0000000000000000        0x0 /home/jongja.cho/Git/legacy/rebel_cds_collab_hw/bootloader/cp/tf-a/build/rebel_h/debug/bl2/cmu.o
 .bss           0x0000000000000000        0x0 /home/jongja.cho/Git/legacy/rebel_cds_collab_hw/bootloader/cp/tf-a/build/rebel_h/debug/bl2/cmu.o
 .text.cmu_init_bl1
                0x0000000000000000       0x84 /home/jongja.cho/Git/legacy/rebel_cds_collab_hw/bootloader/cp/tf-a/build/rebel_h/debug/bl2/cmu.o
 .text.cmu_init_rbc
                0x0000000000000000      0x2d4 /home/jongja.cho/Git/legacy/rebel_cds_collab_hw/bootloader/cp/tf-a/build/rebel_h/debug/bl2/cmu.o
 .text          0x0000000000000000        0x0 /home/jongja.cho/Git/legacy/rebel_cds_collab_hw/bootloader/cp/tf-a/build/rebel_h/debug/bl2/multi_console.o
 .data          0x0000000000000000        0x0 /home/jongja.cho/Git/legacy/rebel_cds_collab_hw/bootloader/cp/tf-a/build/rebel_h/debug/bl2/multi_console.o
 .bss           0x0000000000000000        0x0 /home/jongja.cho/Git/legacy/rebel_cds_collab_hw/bootloader/cp/tf-a/build/rebel_h/debug/bl2/multi_console.o
 .text.console_unregister
                0x0000000000000000       0x48 /home/jongja.cho/Git/legacy/rebel_cds_collab_hw/bootloader/cp/tf-a/build/rebel_h/debug/bl2/multi_console.o
 .text.console_switch_state
                0x0000000000000000        0xc /home/jongja.cho/Git/legacy/rebel_cds_collab_hw/bootloader/cp/tf-a/build/rebel_h/debug/bl2/multi_console.o
 .text          0x0000000000000000        0x0 /home/jongja.cho/Git/legacy/rebel_cds_collab_hw/bootloader/cp/tf-a/build/rebel_h/debug/bl2/delay_timer.o
 .data          0x0000000000000000        0x0 /home/jongja.cho/Git/legacy/rebel_cds_collab_hw/bootloader/cp/tf-a/build/rebel_h/debug/bl2/delay_timer.o
 .bss           0x0000000000000000        0x0 /home/jongja.cho/Git/legacy/rebel_cds_collab_hw/bootloader/cp/tf-a/build/rebel_h/debug/bl2/delay_timer.o
 .text.timeout_init_us
                0x0000000000000000       0x28 /home/jongja.cho/Git/legacy/rebel_cds_collab_hw/bootloader/cp/tf-a/build/rebel_h/debug/bl2/delay_timer.o
 .text.timeout_elapsed
                0x0000000000000000       0x28 /home/jongja.cho/Git/legacy/rebel_cds_collab_hw/bootloader/cp/tf-a/build/rebel_h/debug/bl2/delay_timer.o
 .text          0x0000000000000000        0x0 /home/jongja.cho/Git/legacy/rebel_cds_collab_hw/bootloader/cp/tf-a/build/rebel_h/debug/bl2/generic_delay_timer.o
 .data          0x0000000000000000        0x0 /home/jongja.cho/Git/legacy/rebel_cds_collab_hw/bootloader/cp/tf-a/build/rebel_h/debug/bl2/generic_delay_timer.o
 .bss           0x0000000000000000        0x0 /home/jongja.cho/Git/legacy/rebel_cds_collab_hw/bootloader/cp/tf-a/build/rebel_h/debug/bl2/generic_delay_timer.o
 .text          0x0000000000000000        0x0 /home/jongja.cho/Git/legacy/rebel_cds_collab_hw/bootloader/cp/tf-a/build/rebel_h/debug/bl2/hbm3_chipid.o
 .data          0x0000000000000000        0x0 /home/jongja.cho/Git/legacy/rebel_cds_collab_hw/bootloader/cp/tf-a/build/rebel_h/debug/bl2/hbm3_chipid.o
 .bss           0x0000000000000000        0x0 /home/jongja.cho/Git/legacy/rebel_cds_collab_hw/bootloader/cp/tf-a/build/rebel_h/debug/bl2/hbm3_chipid.o
 .text          0x0000000000000000        0x0 /home/jongja.cho/Git/legacy/rebel_cds_collab_hw/bootloader/cp/tf-a/build/rebel_h/debug/bl2/hbm3_init.o
 .data          0x0000000000000000        0x0 /home/jongja.cho/Git/legacy/rebel_cds_collab_hw/bootloader/cp/tf-a/build/rebel_h/debug/bl2/hbm3_init.o
 .bss           0x0000000000000000        0x0 /home/jongja.cho/Git/legacy/rebel_cds_collab_hw/bootloader/cp/tf-a/build/rebel_h/debug/bl2/hbm3_init.o
 .text.set_zq_calibration
                0x0000000000000000       0xa8 /home/jongja.cho/Git/legacy/rebel_cds_collab_hw/bootloader/cp/tf-a/build/rebel_h/debug/bl2/hbm3_init.o
 .text.set_mbist_tmrs
                0x0000000000000000      0x108 /home/jongja.cho/Git/legacy/rebel_cds_collab_hw/bootloader/cp/tf-a/build/rebel_h/debug/bl2/hbm3_init.o
 .rodata.icon_hbm_mbist.str1.1
                0x0000000000000000       0x43 /home/jongja.cho/Git/legacy/rebel_cds_collab_hw/bootloader/cp/tf-a/build/rebel_h/debug/bl2/hbm3_init.o
 .text.icon_hbm_mbist
                0x0000000000000000       0xf8 /home/jongja.cho/Git/legacy/rebel_cds_collab_hw/bootloader/cp/tf-a/build/rebel_h/debug/bl2/hbm3_init.o
 .text.enable_memory_dbi
                0x0000000000000000       0x18 /home/jongja.cho/Git/legacy/rebel_cds_collab_hw/bootloader/cp/tf-a/build/rebel_h/debug/bl2/hbm3_init.o
 .text.tmrs_c_die_kill_code
                0x0000000000000000       0xa8 /home/jongja.cho/Git/legacy/rebel_cds_collab_hw/bootloader/cp/tf-a/build/rebel_h/debug/bl2/hbm3_init.o
 .text.tmrs_b_die_kill_code
                0x0000000000000000       0x98 /home/jongja.cho/Git/legacy/rebel_cds_collab_hw/bootloader/cp/tf-a/build/rebel_h/debug/bl2/hbm3_init.o
 .text.tmrs_rev0_errata_wa
                0x0000000000000000       0xe0 /home/jongja.cho/Git/legacy/rebel_cds_collab_hw/bootloader/cp/tf-a/build/rebel_h/debug/bl2/hbm3_init.o
 .rodata.phy_read_parity_training.str1.1
                0x0000000000000000       0x45 /home/jongja.cho/Git/legacy/rebel_cds_collab_hw/bootloader/cp/tf-a/build/rebel_h/debug/bl2/hbm3_init.o
 .text.phy_read_parity_training
                0x0000000000000000       0x88 /home/jongja.cho/Git/legacy/rebel_cds_collab_hw/bootloader/cp/tf-a/build/rebel_h/debug/bl2/hbm3_init.o
 .rodata.phy_read_vref_training_LFSR_avg.str1.1
                0x0000000000000000       0xa8 /home/jongja.cho/Git/legacy/rebel_cds_collab_hw/bootloader/cp/tf-a/build/rebel_h/debug/bl2/hbm3_init.o
 .text.phy_read_vref_training_LFSR_avg
                0x0000000000000000      0x334 /home/jongja.cho/Git/legacy/rebel_cds_collab_hw/bootloader/cp/tf-a/build/rebel_h/debug/bl2/hbm3_init.o
 .rodata.phy_read_vref_training_LFSR.str1.1
                0x0000000000000000       0x37 /home/jongja.cho/Git/legacy/rebel_cds_collab_hw/bootloader/cp/tf-a/build/rebel_h/debug/bl2/hbm3_init.o
 .text.phy_read_vref_training_LFSR
                0x0000000000000000      0x264 /home/jongja.cho/Git/legacy/rebel_cds_collab_hw/bootloader/cp/tf-a/build/rebel_h/debug/bl2/hbm3_init.o
 .text.phy_read_vref_training
                0x0000000000000000      0x1d8 /home/jongja.cho/Git/legacy/rebel_cds_collab_hw/bootloader/cp/tf-a/build/rebel_h/debug/bl2/hbm3_init.o
 .text.phy_prbs_read_training_fail_check
                0x0000000000000000       0x28 /home/jongja.cho/Git/legacy/rebel_cds_collab_hw/bootloader/cp/tf-a/build/rebel_h/debug/bl2/hbm3_init.o
 .text.phy_prbs_write_training_fail_check
                0x0000000000000000       0x28 /home/jongja.cho/Git/legacy/rebel_cds_collab_hw/bootloader/cp/tf-a/build/rebel_h/debug/bl2/hbm3_init.o
 .rodata.hbm3_icon_zq_cal_evt0.str1.1
                0x0000000000000000        0xe /home/jongja.cho/Git/legacy/rebel_cds_collab_hw/bootloader/cp/tf-a/build/rebel_h/debug/bl2/hbm3_init.o
 .text.hbm3_icon_zq_cal_evt0
                0x0000000000000000       0x6c /home/jongja.cho/Git/legacy/rebel_cds_collab_hw/bootloader/cp/tf-a/build/rebel_h/debug/bl2/hbm3_init.o
 .rodata.hbm3_icon_zq_cal_evt1.str1.1
                0x0000000000000000       0x18 /home/jongja.cho/Git/legacy/rebel_cds_collab_hw/bootloader/cp/tf-a/build/rebel_h/debug/bl2/hbm3_init.o
 .text.hbm3_icon_zq_cal_evt1
                0x0000000000000000       0x70 /home/jongja.cho/Git/legacy/rebel_cds_collab_hw/bootloader/cp/tf-a/build/rebel_h/debug/bl2/hbm3_init.o
 .rodata        0x0000000000000000      0x238 /home/jongja.cho/Git/legacy/rebel_cds_collab_hw/bootloader/cp/tf-a/build/rebel_h/debug/bl2/hbm3_init.o
 .text          0x0000000000000000        0x0 /home/jongja.cho/Git/legacy/rebel_cds_collab_hw/bootloader/cp/tf-a/build/rebel_h/debug/bl2/io_memmap.o
 .data          0x0000000000000000        0x0 /home/jongja.cho/Git/legacy/rebel_cds_collab_hw/bootloader/cp/tf-a/build/rebel_h/debug/bl2/io_memmap.o
 .bss           0x0000000000000000        0x0 /home/jongja.cho/Git/legacy/rebel_cds_collab_hw/bootloader/cp/tf-a/build/rebel_h/debug/bl2/io_memmap.o
 .text.device_type_memmap
                0x0000000000000000        0x8 /home/jongja.cho/Git/legacy/rebel_cds_collab_hw/bootloader/cp/tf-a/build/rebel_h/debug/bl2/io_memmap.o
 .text.memmap_dev_close
                0x0000000000000000        0x8 /home/jongja.cho/Git/legacy/rebel_cds_collab_hw/bootloader/cp/tf-a/build/rebel_h/debug/bl2/io_memmap.o
 .text.memmap_dev_open
                0x0000000000000000       0x24 /home/jongja.cho/Git/legacy/rebel_cds_collab_hw/bootloader/cp/tf-a/build/rebel_h/debug/bl2/io_memmap.o
 .text.memmap_block_len
                0x0000000000000000       0x28 /home/jongja.cho/Git/legacy/rebel_cds_collab_hw/bootloader/cp/tf-a/build/rebel_h/debug/bl2/io_memmap.o
 .text.memmap_block_seek
                0x0000000000000000       0x40 /home/jongja.cho/Git/legacy/rebel_cds_collab_hw/bootloader/cp/tf-a/build/rebel_h/debug/bl2/io_memmap.o
 .text.memmap_block_close
                0x0000000000000000       0x30 /home/jongja.cho/Git/legacy/rebel_cds_collab_hw/bootloader/cp/tf-a/build/rebel_h/debug/bl2/io_memmap.o
 .text.memmap_block_write
                0x0000000000000000       0x68 /home/jongja.cho/Git/legacy/rebel_cds_collab_hw/bootloader/cp/tf-a/build/rebel_h/debug/bl2/io_memmap.o
 .text.memmap_block_read
                0x0000000000000000       0x6c /home/jongja.cho/Git/legacy/rebel_cds_collab_hw/bootloader/cp/tf-a/build/rebel_h/debug/bl2/io_memmap.o
 .rodata.memmap_block_open.str1.1
                0x0000000000000000       0x32 /home/jongja.cho/Git/legacy/rebel_cds_collab_hw/bootloader/cp/tf-a/build/rebel_h/debug/bl2/io_memmap.o
 .text.memmap_block_open
                0x0000000000000000       0x58 /home/jongja.cho/Git/legacy/rebel_cds_collab_hw/bootloader/cp/tf-a/build/rebel_h/debug/bl2/io_memmap.o
 .text.register_io_dev_memmap
                0x0000000000000000       0x40 /home/jongja.cho/Git/legacy/rebel_cds_collab_hw/bootloader/cp/tf-a/build/rebel_h/debug/bl2/io_memmap.o
 .data.memmap_dev_info
                0x0000000000000000       0x10 /home/jongja.cho/Git/legacy/rebel_cds_collab_hw/bootloader/cp/tf-a/build/rebel_h/debug/bl2/io_memmap.o
 .rodata.memmap_dev_funcs
                0x0000000000000000       0x48 /home/jongja.cho/Git/legacy/rebel_cds_collab_hw/bootloader/cp/tf-a/build/rebel_h/debug/bl2/io_memmap.o
 .rodata.memmap_dev_connector
                0x0000000000000000        0x8 /home/jongja.cho/Git/legacy/rebel_cds_collab_hw/bootloader/cp/tf-a/build/rebel_h/debug/bl2/io_memmap.o
 .bss.current_memmap_file
                0x0000000000000000       0x20 /home/jongja.cho/Git/legacy/rebel_cds_collab_hw/bootloader/cp/tf-a/build/rebel_h/debug/bl2/io_memmap.o
 .debug_info    0x0000000000000000      0x9b8 /home/jongja.cho/Git/legacy/rebel_cds_collab_hw/bootloader/cp/tf-a/build/rebel_h/debug/bl2/io_memmap.o
 .debug_abbrev  0x0000000000000000      0x1e2 /home/jongja.cho/Git/legacy/rebel_cds_collab_hw/bootloader/cp/tf-a/build/rebel_h/debug/bl2/io_memmap.o
 .debug_loc     0x0000000000000000      0xb2a /home/jongja.cho/Git/legacy/rebel_cds_collab_hw/bootloader/cp/tf-a/build/rebel_h/debug/bl2/io_memmap.o
 .debug_aranges
                0x0000000000000000       0xc0 /home/jongja.cho/Git/legacy/rebel_cds_collab_hw/bootloader/cp/tf-a/build/rebel_h/debug/bl2/io_memmap.o
 .debug_ranges  0x0000000000000000       0xb0 /home/jongja.cho/Git/legacy/rebel_cds_collab_hw/bootloader/cp/tf-a/build/rebel_h/debug/bl2/io_memmap.o
 .debug_line    0x0000000000000000      0x3dc /home/jongja.cho/Git/legacy/rebel_cds_collab_hw/bootloader/cp/tf-a/build/rebel_h/debug/bl2/io_memmap.o
 .debug_str     0x0000000000000000      0x61f /home/jongja.cho/Git/legacy/rebel_cds_collab_hw/bootloader/cp/tf-a/build/rebel_h/debug/bl2/io_memmap.o
 .comment       0x0000000000000000       0x45 /home/jongja.cho/Git/legacy/rebel_cds_collab_hw/bootloader/cp/tf-a/build/rebel_h/debug/bl2/io_memmap.o
 .debug_frame   0x0000000000000000      0x1a0 /home/jongja.cho/Git/legacy/rebel_cds_collab_hw/bootloader/cp/tf-a/build/rebel_h/debug/bl2/io_memmap.o
 .text          0x0000000000000000        0x0 /home/jongja.cho/Git/legacy/rebel_cds_collab_hw/bootloader/cp/tf-a/build/rebel_h/debug/bl2/io_storage.o
 .data          0x0000000000000000        0x0 /home/jongja.cho/Git/legacy/rebel_cds_collab_hw/bootloader/cp/tf-a/build/rebel_h/debug/bl2/io_storage.o
 .bss           0x0000000000000000        0x0 /home/jongja.cho/Git/legacy/rebel_cds_collab_hw/bootloader/cp/tf-a/build/rebel_h/debug/bl2/io_storage.o
 .text.io_register_device
                0x0000000000000000       0x38 /home/jongja.cho/Git/legacy/rebel_cds_collab_hw/bootloader/cp/tf-a/build/rebel_h/debug/bl2/io_storage.o
 .text.io_dev_open
                0x0000000000000000       0x30 /home/jongja.cho/Git/legacy/rebel_cds_collab_hw/bootloader/cp/tf-a/build/rebel_h/debug/bl2/io_storage.o
 .text.io_dev_init
                0x0000000000000000       0x58 /home/jongja.cho/Git/legacy/rebel_cds_collab_hw/bootloader/cp/tf-a/build/rebel_h/debug/bl2/io_storage.o
 .text.io_seek  0x0000000000000000       0x78 /home/jongja.cho/Git/legacy/rebel_cds_collab_hw/bootloader/cp/tf-a/build/rebel_h/debug/bl2/io_storage.o
 .text.io_write
                0x0000000000000000       0x74 /home/jongja.cho/Git/legacy/rebel_cds_collab_hw/bootloader/cp/tf-a/build/rebel_h/debug/bl2/io_storage.o
 .bss.dev_count
                0x0000000000000000        0x4 /home/jongja.cho/Git/legacy/rebel_cds_collab_hw/bootloader/cp/tf-a/build/rebel_h/debug/bl2/io_storage.o
 .text          0x0000000000000000        0x0 /home/jongja.cho/Git/legacy/rebel_cds_collab_hw/bootloader/cp/tf-a/build/rebel_h/debug/bl2/mailbox.o
 .data          0x0000000000000000        0x0 /home/jongja.cho/Git/legacy/rebel_cds_collab_hw/bootloader/cp/tf-a/build/rebel_h/debug/bl2/mailbox.o
 .bss           0x0000000000000000        0x0 /home/jongja.cho/Git/legacy/rebel_cds_collab_hw/bootloader/cp/tf-a/build/rebel_h/debug/bl2/mailbox.o
 .text.ipm_samsung_receive
                0x0000000000000000       0x78 /home/jongja.cho/Git/legacy/rebel_cds_collab_hw/bootloader/cp/tf-a/build/rebel_h/debug/bl2/mailbox.o
 .text          0x0000000000000000        0x0 /home/jongja.cho/Git/legacy/rebel_cds_collab_hw/bootloader/cp/tf-a/build/rebel_h/debug/bl2/gpt.o
 .data          0x0000000000000000        0x0 /home/jongja.cho/Git/legacy/rebel_cds_collab_hw/bootloader/cp/tf-a/build/rebel_h/debug/bl2/gpt.o
 .bss           0x0000000000000000        0x0 /home/jongja.cho/Git/legacy/rebel_cds_collab_hw/bootloader/cp/tf-a/build/rebel_h/debug/bl2/gpt.o
 .text          0x0000000000000000        0x0 /home/jongja.cho/Git/legacy/rebel_cds_collab_hw/bootloader/cp/tf-a/build/rebel_h/debug/bl2/partition_simple.o
 .data          0x0000000000000000        0x0 /home/jongja.cho/Git/legacy/rebel_cds_collab_hw/bootloader/cp/tf-a/build/rebel_h/debug/bl2/partition_simple.o
 .bss           0x0000000000000000        0x0 /home/jongja.cho/Git/legacy/rebel_cds_collab_hw/bootloader/cp/tf-a/build/rebel_h/debug/bl2/partition_simple.o
 .text.gpt_get_recovery_flag
                0x0000000000000000        0xc /home/jongja.cho/Git/legacy/rebel_cds_collab_hw/bootloader/cp/tf-a/build/rebel_h/debug/bl2/partition_simple.o
 .text.gpt_get_active_partition
                0x0000000000000000        0xc /home/jongja.cho/Git/legacy/rebel_cds_collab_hw/bootloader/cp/tf-a/build/rebel_h/debug/bl2/partition_simple.o
 .text.gpt_load_binary
                0x0000000000000000      0x114 /home/jongja.cho/Git/legacy/rebel_cds_collab_hw/bootloader/cp/tf-a/build/rebel_h/debug/bl2/partition_simple.o
 .rodata.gpt_load_binary
                0x0000000000000000        0x8 /home/jongja.cho/Git/legacy/rebel_cds_collab_hw/bootloader/cp/tf-a/build/rebel_h/debug/bl2/partition_simple.o
 .text          0x0000000000000000        0x0 /home/jongja.cho/Git/legacy/rebel_cds_collab_hw/bootloader/cp/tf-a/build/rebel_h/debug/bl2/smmu.o
 .data          0x0000000000000000        0x0 /home/jongja.cho/Git/legacy/rebel_cds_collab_hw/bootloader/cp/tf-a/build/rebel_h/debug/bl2/smmu.o
 .bss           0x0000000000000000        0x0 /home/jongja.cho/Git/legacy/rebel_cds_collab_hw/bootloader/cp/tf-a/build/rebel_h/debug/bl2/smmu.o
 .rodata.smmu_test_pcie.str1.1
                0x0000000000000000       0xd4 /home/jongja.cho/Git/legacy/rebel_cds_collab_hw/bootloader/cp/tf-a/build/rebel_h/debug/bl2/smmu.o
 .text.smmu_test_pcie
                0x0000000000000000       0x8c /home/jongja.cho/Git/legacy/rebel_cds_collab_hw/bootloader/cp/tf-a/build/rebel_h/debug/bl2/smmu.o
 .text          0x0000000000000000        0x0 /home/jongja.cho/Git/legacy/rebel_cds_collab_hw/bootloader/cp/tf-a/build/rebel_h/debug/bl2/qspi_bridge.o
 .data          0x0000000000000000        0x0 /home/jongja.cho/Git/legacy/rebel_cds_collab_hw/bootloader/cp/tf-a/build/rebel_h/debug/bl2/qspi_bridge.o
 .bss           0x0000000000000000        0x0 /home/jongja.cho/Git/legacy/rebel_cds_collab_hw/bootloader/cp/tf-a/build/rebel_h/debug/bl2/qspi_bridge.o
 .text.qspi_bridge_check_busy
                0x0000000000000000       0x1c /home/jongja.cho/Git/legacy/rebel_cds_collab_hw/bootloader/cp/tf-a/build/rebel_h/debug/bl2/qspi_bridge.o
 .text.qspi_bridge_ser_enable
                0x0000000000000000       0x50 /home/jongja.cho/Git/legacy/rebel_cds_collab_hw/bootloader/cp/tf-a/build/rebel_h/debug/bl2/qspi_bridge.o
 .text.qspi_bridge_config_writemode
                0x0000000000000000       0x40 /home/jongja.cho/Git/legacy/rebel_cds_collab_hw/bootloader/cp/tf-a/build/rebel_h/debug/bl2/qspi_bridge.o
 .text.qspi_bridge_ser_disable.isra.0
                0x0000000000000000       0x4c /home/jongja.cho/Git/legacy/rebel_cds_collab_hw/bootloader/cp/tf-a/build/rebel_h/debug/bl2/qspi_bridge.o
 .text.qspi_bridge_init.part.0
                0x0000000000000000       0x7c /home/jongja.cho/Git/legacy/rebel_cds_collab_hw/bootloader/cp/tf-a/build/rebel_h/debug/bl2/qspi_bridge.o
 .text.qspi_bridge_config_readmode
                0x0000000000000000       0x40 /home/jongja.cho/Git/legacy/rebel_cds_collab_hw/bootloader/cp/tf-a/build/rebel_h/debug/bl2/qspi_bridge.o
 .text.qspi_bridge_write_1word
                0x0000000000000000       0x7c /home/jongja.cho/Git/legacy/rebel_cds_collab_hw/bootloader/cp/tf-a/build/rebel_h/debug/bl2/qspi_bridge.o
 .text.qspi_bridge_write_16word
                0x0000000000000000       0x98 /home/jongja.cho/Git/legacy/rebel_cds_collab_hw/bootloader/cp/tf-a/build/rebel_h/debug/bl2/qspi_bridge.o
 .text.qspi_bridge_read_1word
                0x0000000000000000       0x80 /home/jongja.cho/Git/legacy/rebel_cds_collab_hw/bootloader/cp/tf-a/build/rebel_h/debug/bl2/qspi_bridge.o
 .text.qspi_bridge_read_16word
                0x0000000000000000       0x94 /home/jongja.cho/Git/legacy/rebel_cds_collab_hw/bootloader/cp/tf-a/build/rebel_h/debug/bl2/qspi_bridge.o
 .text.qspi_bridge_init
                0x0000000000000000       0x10 /home/jongja.cho/Git/legacy/rebel_cds_collab_hw/bootloader/cp/tf-a/build/rebel_h/debug/bl2/qspi_bridge.o
 .text.qspi_bridge_set_upper_addr
                0x0000000000000000       0x20 /home/jongja.cho/Git/legacy/rebel_cds_collab_hw/bootloader/cp/tf-a/build/rebel_h/debug/bl2/qspi_bridge.o
 .rodata.qspi_bridge_test.str1.1
                0x0000000000000000      0x27b /home/jongja.cho/Git/legacy/rebel_cds_collab_hw/bootloader/cp/tf-a/build/rebel_h/debug/bl2/qspi_bridge.o
 .text.qspi_bridge_test
                0x0000000000000000      0x3f0 /home/jongja.cho/Git/legacy/rebel_cds_collab_hw/bootloader/cp/tf-a/build/rebel_h/debug/bl2/qspi_bridge.o
 .data.qspi_bridge_cfg
                0x0000000000000000       0x10 /home/jongja.cho/Git/legacy/rebel_cds_collab_hw/bootloader/cp/tf-a/build/rebel_h/debug/bl2/qspi_bridge.o
 .data.qspi_cfg
                0x0000000000000000       0x30 /home/jongja.cho/Git/legacy/rebel_cds_collab_hw/bootloader/cp/tf-a/build/rebel_h/debug/bl2/qspi_bridge.o
 .rodata        0x0000000000000000       0x40 /home/jongja.cho/Git/legacy/rebel_cds_collab_hw/bootloader/cp/tf-a/build/rebel_h/debug/bl2/qspi_bridge.o
 .debug_info    0x0000000000000000     0x17e9 /home/jongja.cho/Git/legacy/rebel_cds_collab_hw/bootloader/cp/tf-a/build/rebel_h/debug/bl2/qspi_bridge.o
 .debug_abbrev  0x0000000000000000      0x3b6 /home/jongja.cho/Git/legacy/rebel_cds_collab_hw/bootloader/cp/tf-a/build/rebel_h/debug/bl2/qspi_bridge.o
 .debug_loc     0x0000000000000000     0x19bc /home/jongja.cho/Git/legacy/rebel_cds_collab_hw/bootloader/cp/tf-a/build/rebel_h/debug/bl2/qspi_bridge.o
 .debug_aranges
                0x0000000000000000       0xf0 /home/jongja.cho/Git/legacy/rebel_cds_collab_hw/bootloader/cp/tf-a/build/rebel_h/debug/bl2/qspi_bridge.o
 .debug_ranges  0x0000000000000000      0x2b0 /home/jongja.cho/Git/legacy/rebel_cds_collab_hw/bootloader/cp/tf-a/build/rebel_h/debug/bl2/qspi_bridge.o
 .debug_line    0x0000000000000000      0x8a9 /home/jongja.cho/Git/legacy/rebel_cds_collab_hw/bootloader/cp/tf-a/build/rebel_h/debug/bl2/qspi_bridge.o
 .debug_str     0x0000000000000000      0x6ca /home/jongja.cho/Git/legacy/rebel_cds_collab_hw/bootloader/cp/tf-a/build/rebel_h/debug/bl2/qspi_bridge.o
 .comment       0x0000000000000000       0x45 /home/jongja.cho/Git/legacy/rebel_cds_collab_hw/bootloader/cp/tf-a/build/rebel_h/debug/bl2/qspi_bridge.o
 .debug_frame   0x0000000000000000      0x1e8 /home/jongja.cho/Git/legacy/rebel_cds_collab_hw/bootloader/cp/tf-a/build/rebel_h/debug/bl2/qspi_bridge.o
 .text          0x0000000000000000        0x0 /home/jongja.cho/Git/legacy/rebel_cds_collab_hw/bootloader/cp/tf-a/build/rebel_h/debug/bl2/popcountdi2.o
 .data          0x0000000000000000        0x0 /home/jongja.cho/Git/legacy/rebel_cds_collab_hw/bootloader/cp/tf-a/build/rebel_h/debug/bl2/popcountdi2.o
 .bss           0x0000000000000000        0x0 /home/jongja.cho/Git/legacy/rebel_cds_collab_hw/bootloader/cp/tf-a/build/rebel_h/debug/bl2/popcountdi2.o
 .text.__popcountdi2
                0x0000000000000000       0x38 /home/jongja.cho/Git/legacy/rebel_cds_collab_hw/bootloader/cp/tf-a/build/rebel_h/debug/bl2/popcountdi2.o
 .debug_info    0x0000000000000000      0x146 /home/jongja.cho/Git/legacy/rebel_cds_collab_hw/bootloader/cp/tf-a/build/rebel_h/debug/bl2/popcountdi2.o
 .debug_abbrev  0x0000000000000000       0x7d /home/jongja.cho/Git/legacy/rebel_cds_collab_hw/bootloader/cp/tf-a/build/rebel_h/debug/bl2/popcountdi2.o
 .debug_loc     0x0000000000000000      0x13b /home/jongja.cho/Git/legacy/rebel_cds_collab_hw/bootloader/cp/tf-a/build/rebel_h/debug/bl2/popcountdi2.o
 .debug_aranges
                0x0000000000000000       0x30 /home/jongja.cho/Git/legacy/rebel_cds_collab_hw/bootloader/cp/tf-a/build/rebel_h/debug/bl2/popcountdi2.o
 .debug_ranges  0x0000000000000000       0x20 /home/jongja.cho/Git/legacy/rebel_cds_collab_hw/bootloader/cp/tf-a/build/rebel_h/debug/bl2/popcountdi2.o
 .debug_line    0x0000000000000000       0xf4 /home/jongja.cho/Git/legacy/rebel_cds_collab_hw/bootloader/cp/tf-a/build/rebel_h/debug/bl2/popcountdi2.o
 .debug_str     0x0000000000000000      0x298 /home/jongja.cho/Git/legacy/rebel_cds_collab_hw/bootloader/cp/tf-a/build/rebel_h/debug/bl2/popcountdi2.o
 .comment       0x0000000000000000       0x45 /home/jongja.cho/Git/legacy/rebel_cds_collab_hw/bootloader/cp/tf-a/build/rebel_h/debug/bl2/popcountdi2.o
 .debug_frame   0x0000000000000000       0x28 /home/jongja.cho/Git/legacy/rebel_cds_collab_hw/bootloader/cp/tf-a/build/rebel_h/debug/bl2/popcountdi2.o
 .text          0x0000000000000000        0x0 /home/jongja.cho/Git/legacy/rebel_cds_collab_hw/bootloader/cp/tf-a/build/rebel_h/debug/bl2/popcountsi2.o
 .data          0x0000000000000000        0x0 /home/jongja.cho/Git/legacy/rebel_cds_collab_hw/bootloader/cp/tf-a/build/rebel_h/debug/bl2/popcountsi2.o
 .bss           0x0000000000000000        0x0 /home/jongja.cho/Git/legacy/rebel_cds_collab_hw/bootloader/cp/tf-a/build/rebel_h/debug/bl2/popcountsi2.o
 .text.__popcountsi2
                0x0000000000000000       0x30 /home/jongja.cho/Git/legacy/rebel_cds_collab_hw/bootloader/cp/tf-a/build/rebel_h/debug/bl2/popcountsi2.o
 .debug_info    0x0000000000000000      0x11b /home/jongja.cho/Git/legacy/rebel_cds_collab_hw/bootloader/cp/tf-a/build/rebel_h/debug/bl2/popcountsi2.o
 .debug_abbrev  0x0000000000000000       0x7d /home/jongja.cho/Git/legacy/rebel_cds_collab_hw/bootloader/cp/tf-a/build/rebel_h/debug/bl2/popcountsi2.o
 .debug_loc     0x0000000000000000      0x18b /home/jongja.cho/Git/legacy/rebel_cds_collab_hw/bootloader/cp/tf-a/build/rebel_h/debug/bl2/popcountsi2.o
 .debug_aranges
                0x0000000000000000       0x30 /home/jongja.cho/Git/legacy/rebel_cds_collab_hw/bootloader/cp/tf-a/build/rebel_h/debug/bl2/popcountsi2.o
 .debug_ranges  0x0000000000000000       0x20 /home/jongja.cho/Git/legacy/rebel_cds_collab_hw/bootloader/cp/tf-a/build/rebel_h/debug/bl2/popcountsi2.o
 .debug_line    0x0000000000000000       0xc3 /home/jongja.cho/Git/legacy/rebel_cds_collab_hw/bootloader/cp/tf-a/build/rebel_h/debug/bl2/popcountsi2.o
 .debug_str     0x0000000000000000      0x288 /home/jongja.cho/Git/legacy/rebel_cds_collab_hw/bootloader/cp/tf-a/build/rebel_h/debug/bl2/popcountsi2.o
 .comment       0x0000000000000000       0x45 /home/jongja.cho/Git/legacy/rebel_cds_collab_hw/bootloader/cp/tf-a/build/rebel_h/debug/bl2/popcountsi2.o
 .debug_frame   0x0000000000000000       0x28 /home/jongja.cho/Git/legacy/rebel_cds_collab_hw/bootloader/cp/tf-a/build/rebel_h/debug/bl2/popcountsi2.o
 .text          0x0000000000000000        0x0 /home/jongja.cho/Git/legacy/rebel_cds_collab_hw/bootloader/cp/tf-a/build/rebel_h/debug/bl2/pmuv3.o
 .data          0x0000000000000000        0x0 /home/jongja.cho/Git/legacy/rebel_cds_collab_hw/bootloader/cp/tf-a/build/rebel_h/debug/bl2/pmuv3.o
 .bss           0x0000000000000000        0x0 /home/jongja.cho/Git/legacy/rebel_cds_collab_hw/bootloader/cp/tf-a/build/rebel_h/debug/bl2/pmuv3.o
 .text.pmuv3_enable
                0x0000000000000000       0x28 /home/jongja.cho/Git/legacy/rebel_cds_collab_hw/bootloader/cp/tf-a/build/rebel_h/debug/bl2/pmuv3.o
 .text.pmuv3_init_el3
                0x0000000000000000       0x1c /home/jongja.cho/Git/legacy/rebel_cds_collab_hw/bootloader/cp/tf-a/build/rebel_h/debug/bl2/pmuv3.o
 .text.pmuv3_init_el2_unused
                0x0000000000000000       0x2c /home/jongja.cho/Git/legacy/rebel_cds_collab_hw/bootloader/cp/tf-a/build/rebel_h/debug/bl2/pmuv3.o
 .debug_info    0x0000000000000000      0x6c8 /home/jongja.cho/Git/legacy/rebel_cds_collab_hw/bootloader/cp/tf-a/build/rebel_h/debug/bl2/pmuv3.o
 .debug_abbrev  0x0000000000000000      0x266 /home/jongja.cho/Git/legacy/rebel_cds_collab_hw/bootloader/cp/tf-a/build/rebel_h/debug/bl2/pmuv3.o
 .debug_loc     0x0000000000000000      0x26d /home/jongja.cho/Git/legacy/rebel_cds_collab_hw/bootloader/cp/tf-a/build/rebel_h/debug/bl2/pmuv3.o
 .debug_aranges
                0x0000000000000000       0x50 /home/jongja.cho/Git/legacy/rebel_cds_collab_hw/bootloader/cp/tf-a/build/rebel_h/debug/bl2/pmuv3.o
 .debug_ranges  0x0000000000000000       0xd0 /home/jongja.cho/Git/legacy/rebel_cds_collab_hw/bootloader/cp/tf-a/build/rebel_h/debug/bl2/pmuv3.o
 .debug_line    0x0000000000000000      0x25c /home/jongja.cho/Git/legacy/rebel_cds_collab_hw/bootloader/cp/tf-a/build/rebel_h/debug/bl2/pmuv3.o
 .debug_str     0x0000000000000000      0x606 /home/jongja.cho/Git/legacy/rebel_cds_collab_hw/bootloader/cp/tf-a/build/rebel_h/debug/bl2/pmuv3.o
 .comment       0x0000000000000000       0x45 /home/jongja.cho/Git/legacy/rebel_cds_collab_hw/bootloader/cp/tf-a/build/rebel_h/debug/bl2/pmuv3.o
 .debug_frame   0x0000000000000000       0x58 /home/jongja.cho/Git/legacy/rebel_cds_collab_hw/bootloader/cp/tf-a/build/rebel_h/debug/bl2/pmuv3.o
 .text          0x0000000000000000        0x0 /home/jongja.cho/Git/legacy/rebel_cds_collab_hw/bootloader/cp/tf-a/build/rebel_h/debug/bl2/sic.o
 .data          0x0000000000000000        0x0 /home/jongja.cho/Git/legacy/rebel_cds_collab_hw/bootloader/cp/tf-a/build/rebel_h/debug/bl2/sic.o
 .bss           0x0000000000000000        0x0 /home/jongja.cho/Git/legacy/rebel_cds_collab_hw/bootloader/cp/tf-a/build/rebel_h/debug/bl2/sic.o
 .text          0x0000000000000000        0x0 /home/jongja.cho/Git/legacy/rebel_cds_collab_hw/bootloader/cp/tf-a/build/rebel_h/debug/bl2/xlat_tables_arch.o
 .data          0x0000000000000000        0x0 /home/jongja.cho/Git/legacy/rebel_cds_collab_hw/bootloader/cp/tf-a/build/rebel_h/debug/bl2/xlat_tables_arch.o
 .bss           0x0000000000000000        0x0 /home/jongja.cho/Git/legacy/rebel_cds_collab_hw/bootloader/cp/tf-a/build/rebel_h/debug/bl2/xlat_tables_arch.o
 .text.xlat_arch_is_granule_size_supported
                0x0000000000000000       0x50 /home/jongja.cho/Git/legacy/rebel_cds_collab_hw/bootloader/cp/tf-a/build/rebel_h/debug/bl2/xlat_tables_arch.o
 .text.xlat_arch_get_max_supported_granule_size
                0x0000000000000000       0x4c /home/jongja.cho/Git/legacy/rebel_cds_collab_hw/bootloader/cp/tf-a/build/rebel_h/debug/bl2/xlat_tables_arch.o
 .text.is_dcache_enabled
                0x0000000000000000        0xc /home/jongja.cho/Git/legacy/rebel_cds_collab_hw/bootloader/cp/tf-a/build/rebel_h/debug/bl2/xlat_tables_arch.o
 .text.xlat_arch_tlbi_va_sync
                0x0000000000000000        0xc /home/jongja.cho/Git/legacy/rebel_cds_collab_hw/bootloader/cp/tf-a/build/rebel_h/debug/bl2/xlat_tables_arch.o
 .text.xlat_arch_tlbi_va
                0x0000000000000000       0x7c /home/jongja.cho/Git/legacy/rebel_cds_collab_hw/bootloader/cp/tf-a/build/rebel_h/debug/bl2/xlat_tables_arch.o
 .text.touch_dummy_mmu_cfg
                0x0000000000000000        0x8 /home/jongja.cho/Git/legacy/rebel_cds_collab_hw/bootloader/cp/tf-a/build/rebel_h/debug/bl2/xlat_tables_arch.o
 .text          0x0000000000000000        0x0 /home/jongja.cho/Git/legacy/rebel_cds_collab_hw/bootloader/cp/tf-a/build/rebel_h/debug/bl2/xlat_tables_context.o
 .data          0x0000000000000000        0x0 /home/jongja.cho/Git/legacy/rebel_cds_collab_hw/bootloader/cp/tf-a/build/rebel_h/debug/bl2/xlat_tables_context.o
 .bss           0x0000000000000000        0x0 /home/jongja.cho/Git/legacy/rebel_cds_collab_hw/bootloader/cp/tf-a/build/rebel_h/debug/bl2/xlat_tables_context.o
 .text.mmap_add
                0x0000000000000000       0x10 /home/jongja.cho/Git/legacy/rebel_cds_collab_hw/bootloader/cp/tf-a/build/rebel_h/debug/bl2/xlat_tables_context.o
 .text.mmap_add_region_alloc_va
                0x0000000000000000       0x48 /home/jongja.cho/Git/legacy/rebel_cds_collab_hw/bootloader/cp/tf-a/build/rebel_h/debug/bl2/xlat_tables_context.o
 .text.mmap_add_alloc_va
                0x0000000000000000       0x4c /home/jongja.cho/Git/legacy/rebel_cds_collab_hw/bootloader/cp/tf-a/build/rebel_h/debug/bl2/xlat_tables_context.o
 .text.xlat_get_mem_attributes
                0x0000000000000000       0x18 /home/jongja.cho/Git/legacy/rebel_cds_collab_hw/bootloader/cp/tf-a/build/rebel_h/debug/bl2/xlat_tables_context.o
 .text.xlat_change_mem_attributes
                0x0000000000000000       0x18 /home/jongja.cho/Git/legacy/rebel_cds_collab_hw/bootloader/cp/tf-a/build/rebel_h/debug/bl2/xlat_tables_context.o
 .text.enable_mmu_el2
                0x0000000000000000       0x48 /home/jongja.cho/Git/legacy/rebel_cds_collab_hw/bootloader/cp/tf-a/build/rebel_h/debug/bl2/xlat_tables_context.o
 .text.enable_mmu_el3
                0x0000000000000000       0x48 /home/jongja.cho/Git/legacy/rebel_cds_collab_hw/bootloader/cp/tf-a/build/rebel_h/debug/bl2/xlat_tables_context.o
 .text.touch_dummy_mmu_cfg_el3
                0x0000000000000000       0x14 /home/jongja.cho/Git/legacy/rebel_cds_collab_hw/bootloader/cp/tf-a/build/rebel_h/debug/bl2/xlat_tables_context.o
 .text.enable_mmu
                0x0000000000000000        0x4 /home/jongja.cho/Git/legacy/rebel_cds_collab_hw/bootloader/cp/tf-a/build/rebel_h/debug/bl2/xlat_tables_context.o
 .text          0x0000000000000000        0x0 /home/jongja.cho/Git/legacy/rebel_cds_collab_hw/bootloader/cp/tf-a/build/rebel_h/debug/bl2/xlat_tables_core.o
 .data          0x0000000000000000        0x0 /home/jongja.cho/Git/legacy/rebel_cds_collab_hw/bootloader/cp/tf-a/build/rebel_h/debug/bl2/xlat_tables_core.o
 .bss           0x0000000000000000        0x0 /home/jongja.cho/Git/legacy/rebel_cds_collab_hw/bootloader/cp/tf-a/build/rebel_h/debug/bl2/xlat_tables_core.o
 .text.mmap_add_region_alloc_va_ctx
                0x0000000000000000       0x80 /home/jongja.cho/Git/legacy/rebel_cds_collab_hw/bootloader/cp/tf-a/build/rebel_h/debug/bl2/xlat_tables_core.o
 .text.mmap_add_ctx
                0x0000000000000000       0x3c /home/jongja.cho/Git/legacy/rebel_cds_collab_hw/bootloader/cp/tf-a/build/rebel_h/debug/bl2/xlat_tables_core.o
 .text          0x0000000000000000        0x0 /home/jongja.cho/Git/legacy/rebel_cds_collab_hw/bootloader/cp/tf-a/build/rebel_h/debug/bl2/xlat_tables_utils.o
 .data          0x0000000000000000        0x0 /home/jongja.cho/Git/legacy/rebel_cds_collab_hw/bootloader/cp/tf-a/build/rebel_h/debug/bl2/xlat_tables_utils.o
 .bss           0x0000000000000000        0x0 /home/jongja.cho/Git/legacy/rebel_cds_collab_hw/bootloader/cp/tf-a/build/rebel_h/debug/bl2/xlat_tables_utils.o
 .rodata.find_xlat_table_entry.str1.1
                0x0000000000000000       0x2c /home/jongja.cho/Git/legacy/rebel_cds_collab_hw/bootloader/cp/tf-a/build/rebel_h/debug/bl2/xlat_tables_utils.o
 .text.find_xlat_table_entry
                0x0000000000000000       0xcc /home/jongja.cho/Git/legacy/rebel_cds_collab_hw/bootloader/cp/tf-a/build/rebel_h/debug/bl2/xlat_tables_utils.o
 .rodata.xlat_get_mem_attributes_internal.str1.1
                0x0000000000000000       0x1f /home/jongja.cho/Git/legacy/rebel_cds_collab_hw/bootloader/cp/tf-a/build/rebel_h/debug/bl2/xlat_tables_utils.o
 .text.xlat_get_mem_attributes_internal
                0x0000000000000000      0x15c /home/jongja.cho/Git/legacy/rebel_cds_collab_hw/bootloader/cp/tf-a/build/rebel_h/debug/bl2/xlat_tables_utils.o
 .text.xlat_get_mem_attributes_ctx
                0x0000000000000000       0x10 /home/jongja.cho/Git/legacy/rebel_cds_collab_hw/bootloader/cp/tf-a/build/rebel_h/debug/bl2/xlat_tables_utils.o
 .rodata.xlat_change_mem_attributes_ctx.str1.1
                0x0000000000000000      0x152 /home/jongja.cho/Git/legacy/rebel_cds_collab_hw/bootloader/cp/tf-a/build/rebel_h/debug/bl2/xlat_tables_utils.o
 .text.xlat_change_mem_attributes_ctx
                0x0000000000000000      0x238 /home/jongja.cho/Git/legacy/rebel_cds_collab_hw/bootloader/cp/tf-a/build/rebel_h/debug/bl2/xlat_tables_utils.o
 .rodata.__func__.0
                0x0000000000000000       0x1f /home/jongja.cho/Git/legacy/rebel_cds_collab_hw/bootloader/cp/tf-a/build/rebel_h/debug/bl2/xlat_tables_utils.o
 .text          0x0000000000000000        0x0 /home/jongja.cho/Git/legacy/rebel_cds_collab_hw/bootloader/cp/tf-a/build/rebel_h/debug/bl2/plat_common.o
 .data          0x0000000000000000        0x0 /home/jongja.cho/Git/legacy/rebel_cds_collab_hw/bootloader/cp/tf-a/build/rebel_h/debug/bl2/plat_common.o
 .bss           0x0000000000000000        0x0 /home/jongja.cho/Git/legacy/rebel_cds_collab_hw/bootloader/cp/tf-a/build/rebel_h/debug/bl2/plat_common.o
 .text.plat_setup_try_img_ops
                0x0000000000000000        0xc /home/jongja.cho/Git/legacy/rebel_cds_collab_hw/bootloader/cp/tf-a/build/rebel_h/debug/bl2/plat_common.o
 .text.bl31_plat_runtime_setup
                0x0000000000000000        0x4 /home/jongja.cho/Git/legacy/rebel_cds_collab_hw/bootloader/cp/tf-a/build/rebel_h/debug/bl2/plat_common.o
 .text          0x0000000000000000        0x0 /home/jongja.cho/Git/legacy/rebel_cds_collab_hw/bootloader/cp/tf-a/build/rebel_h/debug/bl2/plat_bl_common.o
 .data          0x0000000000000000        0x0 /home/jongja.cho/Git/legacy/rebel_cds_collab_hw/bootloader/cp/tf-a/build/rebel_h/debug/bl2/plat_bl_common.o
 .bss           0x0000000000000000        0x0 /home/jongja.cho/Git/legacy/rebel_cds_collab_hw/bootloader/cp/tf-a/build/rebel_h/debug/bl2/plat_bl_common.o
 .text.plat_setup_log_gpt_corrupted
                0x0000000000000000        0xc /home/jongja.cho/Git/legacy/rebel_cds_collab_hw/bootloader/cp/tf-a/build/rebel_h/debug/bl2/plat_bl_common.o
 .text.plat_get_soc_version
                0x0000000000000000        0x8 /home/jongja.cho/Git/legacy/rebel_cds_collab_hw/bootloader/cp/tf-a/build/rebel_h/debug/bl2/plat_bl_common.o
 .text.plat_get_soc_revision
                0x0000000000000000        0x8 /home/jongja.cho/Git/legacy/rebel_cds_collab_hw/bootloader/cp/tf-a/build/rebel_h/debug/bl2/plat_bl_common.o
 .text.plat_get_soc_name
                0x0000000000000000        0x8 /home/jongja.cho/Git/legacy/rebel_cds_collab_hw/bootloader/cp/tf-a/build/rebel_h/debug/bl2/plat_bl_common.o
 .text.plat_is_smccc_feature_available
                0x0000000000000000        0x8 /home/jongja.cho/Git/legacy/rebel_cds_collab_hw/bootloader/cp/tf-a/build/rebel_h/debug/bl2/plat_bl_common.o
 .text.bl2_el3_plat_prepare_exit
                0x0000000000000000        0x4 /home/jongja.cho/Git/legacy/rebel_cds_collab_hw/bootloader/cp/tf-a/build/rebel_h/debug/bl2/plat_bl_common.o
 .text.plat_get_enc_key_info
                0x0000000000000000       0x70 /home/jongja.cho/Git/legacy/rebel_cds_collab_hw/bootloader/cp/tf-a/build/rebel_h/debug/bl2/plat_bl_common.o
 .rodata.plat_get_enc_key_info.str1.1
                0x0000000000000000       0x21 /home/jongja.cho/Git/legacy/rebel_cds_collab_hw/bootloader/cp/tf-a/build/rebel_h/debug/bl2/plat_bl_common.o
 .text.setup_page_tables
                0x0000000000000000       0x28 /home/jongja.cho/Git/legacy/rebel_cds_collab_hw/bootloader/cp/tf-a/build/rebel_h/debug/bl2/plat_bl_common.o
 .bss.plat_log_gpt_ptr
                0x0000000000000000        0x8 /home/jongja.cho/Git/legacy/rebel_cds_collab_hw/bootloader/cp/tf-a/build/rebel_h/debug/bl2/plat_bl_common.o
 .text          0x0000000000000000        0x0 /home/jongja.cho/Git/legacy/rebel_cds_collab_hw/bootloader/cp/tf-a/build/rebel_h/debug/bl2/plat_log_common.o
 .data          0x0000000000000000        0x0 /home/jongja.cho/Git/legacy/rebel_cds_collab_hw/bootloader/cp/tf-a/build/rebel_h/debug/bl2/plat_log_common.o
 .bss           0x0000000000000000        0x0 /home/jongja.cho/Git/legacy/rebel_cds_collab_hw/bootloader/cp/tf-a/build/rebel_h/debug/bl2/plat_log_common.o
 .text          0x0000000000000000        0x0 /home/jongja.cho/Git/legacy/rebel_cds_collab_hw/bootloader/cp/tf-a/build/rebel_h/debug/bl2/rebel_h_bl2_setup.o
 .data          0x0000000000000000        0x0 /home/jongja.cho/Git/legacy/rebel_cds_collab_hw/bootloader/cp/tf-a/build/rebel_h/debug/bl2/rebel_h_bl2_setup.o
 .bss           0x0000000000000000        0x0 /home/jongja.cho/Git/legacy/rebel_cds_collab_hw/bootloader/cp/tf-a/build/rebel_h/debug/bl2/rebel_h_bl2_setup.o
 .text          0x0000000000000000        0x0 /home/jongja.cho/Git/legacy/rebel_cds_collab_hw/bootloader/cp/tf-a/build/rebel_h/debug/bl2/rebel_h_image_load.o
 .data          0x0000000000000000        0x0 /home/jongja.cho/Git/legacy/rebel_cds_collab_hw/bootloader/cp/tf-a/build/rebel_h/debug/bl2/rebel_h_image_load.o
 .bss           0x0000000000000000        0x0 /home/jongja.cho/Git/legacy/rebel_cds_collab_hw/bootloader/cp/tf-a/build/rebel_h/debug/bl2/rebel_h_image_load.o
 .text          0x0000000000000000        0x0 /home/jongja.cho/Git/legacy/rebel_cds_collab_hw/bootloader/cp/tf-a/build/rebel_h/debug/bl2/rebel_h_pcie.o
 .data          0x0000000000000000        0x0 /home/jongja.cho/Git/legacy/rebel_cds_collab_hw/bootloader/cp/tf-a/build/rebel_h/debug/bl2/rebel_h_pcie.o
 .bss           0x0000000000000000        0x0 /home/jongja.cho/Git/legacy/rebel_cds_collab_hw/bootloader/cp/tf-a/build/rebel_h/debug/bl2/rebel_h_pcie.o
 .text.cm7_wait_phy_sram_init_done
                0x0000000000000000       0xb4 /home/jongja.cho/Git/legacy/rebel_cds_collab_hw/bootloader/cp/tf-a/build/rebel_h/debug/bl2/rebel_h_pcie.o
 .text.cm7_notify_load_done
                0x0000000000000000       0x5c /home/jongja.cho/Git/legacy/rebel_cds_collab_hw/bootloader/cp/tf-a/build/rebel_h/debug/bl2/rebel_h_pcie.o
 .debug_info    0x0000000000000000      0x48e /home/jongja.cho/Git/legacy/rebel_cds_collab_hw/bootloader/cp/tf-a/build/rebel_h/debug/bl2/rebel_h_pcie.o
 .debug_abbrev  0x0000000000000000      0x135 /home/jongja.cho/Git/legacy/rebel_cds_collab_hw/bootloader/cp/tf-a/build/rebel_h/debug/bl2/rebel_h_pcie.o
 .debug_loc     0x0000000000000000      0x45f /home/jongja.cho/Git/legacy/rebel_cds_collab_hw/bootloader/cp/tf-a/build/rebel_h/debug/bl2/rebel_h_pcie.o
 .debug_aranges
                0x0000000000000000       0x40 /home/jongja.cho/Git/legacy/rebel_cds_collab_hw/bootloader/cp/tf-a/build/rebel_h/debug/bl2/rebel_h_pcie.o
 .debug_ranges  0x0000000000000000      0x240 /home/jongja.cho/Git/legacy/rebel_cds_collab_hw/bootloader/cp/tf-a/build/rebel_h/debug/bl2/rebel_h_pcie.o
 .debug_line    0x0000000000000000      0x366 /home/jongja.cho/Git/legacy/rebel_cds_collab_hw/bootloader/cp/tf-a/build/rebel_h/debug/bl2/rebel_h_pcie.o
 .debug_str     0x0000000000000000      0x2d7 /home/jongja.cho/Git/legacy/rebel_cds_collab_hw/bootloader/cp/tf-a/build/rebel_h/debug/bl2/rebel_h_pcie.o
 .comment       0x0000000000000000       0x45 /home/jongja.cho/Git/legacy/rebel_cds_collab_hw/bootloader/cp/tf-a/build/rebel_h/debug/bl2/rebel_h_pcie.o
 .debug_frame   0x0000000000000000       0x40 /home/jongja.cho/Git/legacy/rebel_cds_collab_hw/bootloader/cp/tf-a/build/rebel_h/debug/bl2/rebel_h_pcie.o
 .text          0x0000000000000000        0x0 /home/jongja.cho/Git/legacy/rebel_cds_collab_hw/bootloader/cp/tf-a/build/rebel_h/debug/bl2/rebel_h_plat.o
 .data          0x0000000000000000        0x0 /home/jongja.cho/Git/legacy/rebel_cds_collab_hw/bootloader/cp/tf-a/build/rebel_h/debug/bl2/rebel_h_plat.o
 .bss           0x0000000000000000        0x0 /home/jongja.cho/Git/legacy/rebel_cds_collab_hw/bootloader/cp/tf-a/build/rebel_h/debug/bl2/rebel_h_plat.o
 .text.plat_pmu_cpu_off
                0x0000000000000000       0x38 /home/jongja.cho/Git/legacy/rebel_cds_collab_hw/bootloader/cp/tf-a/build/rebel_h/debug/bl2/rebel_h_plat.o
 .text.plat_get_secondary_chiplet_cnt
                0x0000000000000000       0x74 /home/jongja.cho/Git/legacy/rebel_cds_collab_hw/bootloader/cp/tf-a/build/rebel_h/debug/bl2/rebel_h_plat.o
 .rodata.plat_pmu_reset_rot.str1.1
                0x0000000000000000       0x1a /home/jongja.cho/Git/legacy/rebel_cds_collab_hw/bootloader/cp/tf-a/build/rebel_h/debug/bl2/rebel_h_plat.o
 .text.plat_pmu_reset_rot
                0x0000000000000000       0x2c /home/jongja.cho/Git/legacy/rebel_cds_collab_hw/bootloader/cp/tf-a/build/rebel_h/debug/bl2/rebel_h_plat.o
 .text          0x0000000000000000        0x0 /home/jongja.cho/Git/legacy/rebel_cds_collab_hw/bootloader/cp/tf-a/build/rebel_h/debug/bl2/rebel_h_pmu.o
 .data          0x0000000000000000        0x0 /home/jongja.cho/Git/legacy/rebel_cds_collab_hw/bootloader/cp/tf-a/build/rebel_h/debug/bl2/rebel_h_pmu.o
 .bss           0x0000000000000000        0x0 /home/jongja.cho/Git/legacy/rebel_cds_collab_hw/bootloader/cp/tf-a/build/rebel_h/debug/bl2/rebel_h_pmu.o
 .rodata.pmu_release_cm7.str1.1
                0x0000000000000000       0x25 /home/jongja.cho/Git/legacy/rebel_cds_collab_hw/bootloader/cp/tf-a/build/rebel_h/debug/bl2/rebel_h_pmu.o
 .text.pmu_release_cm7
                0x0000000000000000       0x4c /home/jongja.cho/Git/legacy/rebel_cds_collab_hw/bootloader/cp/tf-a/build/rebel_h/debug/bl2/rebel_h_pmu.o
 .rodata.pmu_get_bootmode_str.str1.1
                0x0000000000000000        0x8 /home/jongja.cho/Git/legacy/rebel_cds_collab_hw/bootloader/cp/tf-a/build/rebel_h/debug/bl2/rebel_h_pmu.o
 .text.pmu_get_bootmode_str
                0x0000000000000000       0x28 /home/jongja.cho/Git/legacy/rebel_cds_collab_hw/bootloader/cp/tf-a/build/rebel_h/debug/bl2/rebel_h_pmu.o
 .rodata.pmu_get_bootreason_str.str1.1
                0x0000000000000000       0xcd /home/jongja.cho/Git/legacy/rebel_cds_collab_hw/bootloader/cp/tf-a/build/rebel_h/debug/bl2/rebel_h_pmu.o
 .text.pmu_get_bootreason_str
                0x0000000000000000       0xdc /home/jongja.cho/Git/legacy/rebel_cds_collab_hw/bootloader/cp/tf-a/build/rebel_h/debug/bl2/rebel_h_pmu.o
 .text.pmu_get_bootreason
                0x0000000000000000       0x14 /home/jongja.cho/Git/legacy/rebel_cds_collab_hw/bootloader/cp/tf-a/build/rebel_h/debug/bl2/rebel_h_pmu.o
 .rodata.pmu_enable_blk_rbc.str1.1
                0x0000000000000000       0x2c /home/jongja.cho/Git/legacy/rebel_cds_collab_hw/bootloader/cp/tf-a/build/rebel_h/debug/bl2/rebel_h_pmu.o
 .text.pmu_enable_blk_rbc
                0x0000000000000000      0x174 /home/jongja.cho/Git/legacy/rebel_cds_collab_hw/bootloader/cp/tf-a/build/rebel_h/debug/bl2/rebel_h_pmu.o
 .text.pmu_reset_secondary_chiplet
                0x0000000000000000      0x170 /home/jongja.cho/Git/legacy/rebel_cds_collab_hw/bootloader/cp/tf-a/build/rebel_h/debug/bl2/rebel_h_pmu.o
 .rodata.str1.1
                0x0000000000000000       0x35 /home/jongja.cho/Git/legacy/rebel_cds_collab_hw/bootloader/cp/tf-a/build/rebel_h/debug/bl2/rebel_h_pmu.o
 .rodata.CSWTCH.6
                0x0000000000000000       0x28 /home/jongja.cho/Git/legacy/rebel_cds_collab_hw/bootloader/cp/tf-a/build/rebel_h/debug/bl2/rebel_h_pmu.o
 .rodata        0x0000000000000000       0x80 /home/jongja.cho/Git/legacy/rebel_cds_collab_hw/bootloader/cp/tf-a/build/rebel_h/debug/bl2/rebel_h_pmu.o
 .text          0x0000000000000000        0x0 /home/jongja.cho/Git/legacy/rebel_cds_collab_hw/bootloader/cp/tf-a/build/rebel_h/debug/bl2/rebel_h_rbc.o
 .data          0x0000000000000000        0x0 /home/jongja.cho/Git/legacy/rebel_cds_collab_hw/bootloader/cp/tf-a/build/rebel_h/debug/bl2/rebel_h_rbc.o
 .bss           0x0000000000000000        0x0 /home/jongja.cho/Git/legacy/rebel_cds_collab_hw/bootloader/cp/tf-a/build/rebel_h/debug/bl2/rebel_h_rbc.o
 .text.load_ucie_image.part.0
                0x0000000000000000       0x30 /home/jongja.cho/Git/legacy/rebel_cds_collab_hw/bootloader/cp/tf-a/build/rebel_h/debug/bl2/rebel_h_rbc.o
 .text.repeat_func_for_all_rbc
                0x0000000000000000       0xb4 /home/jongja.cho/Git/legacy/rebel_cds_collab_hw/bootloader/cp/tf-a/build/rebel_h/debug/bl2/rebel_h_rbc.o
 .text.load_ucie_image
                0x0000000000000000       0xe0 /home/jongja.cho/Git/legacy/rebel_cds_collab_hw/bootloader/cp/tf-a/build/rebel_h/debug/bl2/rebel_h_rbc.o
 .text.wait_ucie_link_up
                0x0000000000000000       0x48 /home/jongja.cho/Git/legacy/rebel_cds_collab_hw/bootloader/cp/tf-a/build/rebel_h/debug/bl2/rebel_h_rbc.o
 .text.load_and_enable_ucie_link_for_CP
                0x0000000000000000      0x12c /home/jongja.cho/Git/legacy/rebel_cds_collab_hw/bootloader/cp/tf-a/build/rebel_h/debug/bl2/rebel_h_rbc.o
 .text.wait_ucie_link_up_for_CP
                0x0000000000000000       0x84 /home/jongja.cho/Git/legacy/rebel_cds_collab_hw/bootloader/cp/tf-a/build/rebel_h/debug/bl2/rebel_h_rbc.o
 .text.ucie_link_up_for_others
                0x0000000000000000       0xb4 /home/jongja.cho/Git/legacy/rebel_cds_collab_hw/bootloader/cp/tf-a/build/rebel_h/debug/bl2/rebel_h_rbc.o
 .text.set_remap_table
                0x0000000000000000       0xbc /home/jongja.cho/Git/legacy/rebel_cds_collab_hw/bootloader/cp/tf-a/build/rebel_h/debug/bl2/rebel_h_rbc.o
 .rodata.chiplet_access_test.str1.1
                0x0000000000000000       0x24 /home/jongja.cho/Git/legacy/rebel_cds_collab_hw/bootloader/cp/tf-a/build/rebel_h/debug/bl2/rebel_h_rbc.o
 .text.chiplet_access_test
                0x0000000000000000       0xd4 /home/jongja.cho/Git/legacy/rebel_cds_collab_hw/bootloader/cp/tf-a/build/rebel_h/debug/bl2/rebel_h_rbc.o
 .data.chiplet_reachability
                0x0000000000000000        0x4 /home/jongja.cho/Git/legacy/rebel_cds_collab_hw/bootloader/cp/tf-a/build/rebel_h/debug/bl2/rebel_h_rbc.o
 .data.num_of_active_rbc
                0x0000000000000000        0x4 /home/jongja.cho/Git/legacy/rebel_cds_collab_hw/bootloader/cp/tf-a/build/rebel_h/debug/bl2/rebel_h_rbc.o
 .data.num_of_chips
                0x0000000000000000        0x4 /home/jongja.cho/Git/legacy/rebel_cds_collab_hw/bootloader/cp/tf-a/build/rebel_h/debug/bl2/rebel_h_rbc.o
 .rodata.active_rbc_base
                0x0000000000000000       0x80 /home/jongja.cho/Git/legacy/rebel_cds_collab_hw/bootloader/cp/tf-a/build/rebel_h/debug/bl2/rebel_h_rbc.o
 .rodata        0x0000000000000000       0xa0 /home/jongja.cho/Git/legacy/rebel_cds_collab_hw/bootloader/cp/tf-a/build/rebel_h/debug/bl2/rebel_h_rbc.o
 .debug_info    0x0000000000000000      0xebc /home/jongja.cho/Git/legacy/rebel_cds_collab_hw/bootloader/cp/tf-a/build/rebel_h/debug/bl2/rebel_h_rbc.o
 .debug_abbrev  0x0000000000000000      0x366 /home/jongja.cho/Git/legacy/rebel_cds_collab_hw/bootloader/cp/tf-a/build/rebel_h/debug/bl2/rebel_h_rbc.o
 .debug_loc     0x0000000000000000      0xb12 /home/jongja.cho/Git/legacy/rebel_cds_collab_hw/bootloader/cp/tf-a/build/rebel_h/debug/bl2/rebel_h_rbc.o
 .debug_aranges
                0x0000000000000000       0xb0 /home/jongja.cho/Git/legacy/rebel_cds_collab_hw/bootloader/cp/tf-a/build/rebel_h/debug/bl2/rebel_h_rbc.o
 .debug_ranges  0x0000000000000000      0x2e0 /home/jongja.cho/Git/legacy/rebel_cds_collab_hw/bootloader/cp/tf-a/build/rebel_h/debug/bl2/rebel_h_rbc.o
 .debug_line    0x0000000000000000      0x73e /home/jongja.cho/Git/legacy/rebel_cds_collab_hw/bootloader/cp/tf-a/build/rebel_h/debug/bl2/rebel_h_rbc.o
 .debug_str     0x0000000000000000      0x5db /home/jongja.cho/Git/legacy/rebel_cds_collab_hw/bootloader/cp/tf-a/build/rebel_h/debug/bl2/rebel_h_rbc.o
 .comment       0x0000000000000000       0x45 /home/jongja.cho/Git/legacy/rebel_cds_collab_hw/bootloader/cp/tf-a/build/rebel_h/debug/bl2/rebel_h_rbc.o
 .debug_frame   0x0000000000000000      0x200 /home/jongja.cho/Git/legacy/rebel_cds_collab_hw/bootloader/cp/tf-a/build/rebel_h/debug/bl2/rebel_h_rbc.o
 .text          0x0000000000000000        0x0 /home/jongja.cho/Git/legacy/rebel_cds_collab_hw/bootloader/cp/tf-a/build/rebel_h/debug/bl2/rebel_h_topology.o
 .data          0x0000000000000000        0x0 /home/jongja.cho/Git/legacy/rebel_cds_collab_hw/bootloader/cp/tf-a/build/rebel_h/debug/bl2/rebel_h_topology.o
 .bss           0x0000000000000000        0x0 /home/jongja.cho/Git/legacy/rebel_cds_collab_hw/bootloader/cp/tf-a/build/rebel_h/debug/bl2/rebel_h_topology.o
 .text.plat_get_power_domain_tree_desc
                0x0000000000000000        0xc /home/jongja.cho/Git/legacy/rebel_cds_collab_hw/bootloader/cp/tf-a/build/rebel_h/debug/bl2/rebel_h_topology.o
 .data.power_domain_tree_desc
                0x0000000000000000        0x2 /home/jongja.cho/Git/legacy/rebel_cds_collab_hw/bootloader/cp/tf-a/build/rebel_h/debug/bl2/rebel_h_topology.o
 .text          0x0000000000000000        0x0 /home/jongja.cho/Git/legacy/rebel_cds_collab_hw/bootloader/cp/tf-a/build/rebel_h/debug/bl2/bl2_entrypoint.o
 .data          0x0000000000000000        0x0 /home/jongja.cho/Git/legacy/rebel_cds_collab_hw/bootloader/cp/tf-a/build/rebel_h/debug/bl2/bl2_entrypoint.o
 .bss           0x0000000000000000        0x0 /home/jongja.cho/Git/legacy/rebel_cds_collab_hw/bootloader/cp/tf-a/build/rebel_h/debug/bl2/bl2_entrypoint.o
 .text          0x0000000000000000        0x0 /home/jongja.cho/Git/legacy/rebel_cds_collab_hw/bootloader/cp/tf-a/build/rebel_h/debug/bl2/debug.o
 .data          0x0000000000000000        0x0 /home/jongja.cho/Git/legacy/rebel_cds_collab_hw/bootloader/cp/tf-a/build/rebel_h/debug/bl2/debug.o
 .bss           0x0000000000000000        0x0 /home/jongja.cho/Git/legacy/rebel_cds_collab_hw/bootloader/cp/tf-a/build/rebel_h/debug/bl2/debug.o
 .rodata.assert_str
                0x0000000000000000       0x15 /home/jongja.cho/Git/legacy/rebel_cds_collab_hw/bootloader/cp/tf-a/build/rebel_h/debug/bl2/debug.o
 .text.asm.elx_panic
                0x0000000000000000        0x4 /home/jongja.cho/Git/legacy/rebel_cds_collab_hw/bootloader/cp/tf-a/build/rebel_h/debug/bl2/debug.o
 .text          0x0000000000000000        0x0 /home/jongja.cho/Git/legacy/rebel_cds_collab_hw/bootloader/cp/tf-a/build/rebel_h/debug/bl2/early_exceptions.o
 .data          0x0000000000000000        0x0 /home/jongja.cho/Git/legacy/rebel_cds_collab_hw/bootloader/cp/tf-a/build/rebel_h/debug/bl2/early_exceptions.o
 .bss           0x0000000000000000        0x0 /home/jongja.cho/Git/legacy/rebel_cds_collab_hw/bootloader/cp/tf-a/build/rebel_h/debug/bl2/early_exceptions.o
 .text          0x0000000000000000        0x0 /home/jongja.cho/Git/legacy/rebel_cds_collab_hw/bootloader/cp/tf-a/build/rebel_h/debug/bl2/16550_console.o
 .data          0x0000000000000000        0x0 /home/jongja.cho/Git/legacy/rebel_cds_collab_hw/bootloader/cp/tf-a/build/rebel_h/debug/bl2/16550_console.o
 .bss           0x0000000000000000        0x0 /home/jongja.cho/Git/legacy/rebel_cds_collab_hw/bootloader/cp/tf-a/build/rebel_h/debug/bl2/16550_console.o
 .text.asm.console_16550_core_getc
                0x0000000000000000       0x2c /home/jongja.cho/Git/legacy/rebel_cds_collab_hw/bootloader/cp/tf-a/build/rebel_h/debug/bl2/16550_console.o
 .text.asm.console_16550_getc
                0x0000000000000000       0x1c /home/jongja.cho/Git/legacy/rebel_cds_collab_hw/bootloader/cp/tf-a/build/rebel_h/debug/bl2/16550_console.o
 .text          0x0000000000000000        0x0 /home/jongja.cho/Git/legacy/rebel_cds_collab_hw/bootloader/cp/tf-a/build/rebel_h/debug/bl2/cache_helpers.o
 .data          0x0000000000000000        0x0 /home/jongja.cho/Git/legacy/rebel_cds_collab_hw/bootloader/cp/tf-a/build/rebel_h/debug/bl2/cache_helpers.o
 .bss           0x0000000000000000        0x0 /home/jongja.cho/Git/legacy/rebel_cds_collab_hw/bootloader/cp/tf-a/build/rebel_h/debug/bl2/cache_helpers.o
 .text.asm.clean_dcache_range
                0x0000000000000000       0x38 /home/jongja.cho/Git/legacy/rebel_cds_collab_hw/bootloader/cp/tf-a/build/rebel_h/debug/bl2/cache_helpers.o
 .text.asm.flush_dcache_to_popa_range
                0x0000000000000000       0x38 /home/jongja.cho/Git/legacy/rebel_cds_collab_hw/bootloader/cp/tf-a/build/rebel_h/debug/bl2/cache_helpers.o
 .text.asm.flush_dcache_to_popa_range_mte2
                0x0000000000000000       0x38 /home/jongja.cho/Git/legacy/rebel_cds_collab_hw/bootloader/cp/tf-a/build/rebel_h/debug/bl2/cache_helpers.o
 .text.asm.do_dcsw_op
                0x0000000000000000       0xfc /home/jongja.cho/Git/legacy/rebel_cds_collab_hw/bootloader/cp/tf-a/build/rebel_h/debug/bl2/cache_helpers.o
 .text.asm.dcsw_op_louis
                0x0000000000000000       0x14 /home/jongja.cho/Git/legacy/rebel_cds_collab_hw/bootloader/cp/tf-a/build/rebel_h/debug/bl2/cache_helpers.o
 .text.asm.dcsw_op_all
                0x0000000000000000       0x14 /home/jongja.cho/Git/legacy/rebel_cds_collab_hw/bootloader/cp/tf-a/build/rebel_h/debug/bl2/cache_helpers.o
 .text.asm.dcsw_op_level1
                0x0000000000000000       0x10 /home/jongja.cho/Git/legacy/rebel_cds_collab_hw/bootloader/cp/tf-a/build/rebel_h/debug/bl2/cache_helpers.o
 .text.asm.dcsw_op_level2
                0x0000000000000000       0x10 /home/jongja.cho/Git/legacy/rebel_cds_collab_hw/bootloader/cp/tf-a/build/rebel_h/debug/bl2/cache_helpers.o
 .text.asm.dcsw_op_level3
                0x0000000000000000       0x10 /home/jongja.cho/Git/legacy/rebel_cds_collab_hw/bootloader/cp/tf-a/build/rebel_h/debug/bl2/cache_helpers.o
 .text          0x0000000000000000        0x0 /home/jongja.cho/Git/legacy/rebel_cds_collab_hw/bootloader/cp/tf-a/build/rebel_h/debug/bl2/misc_helpers.o
 .data          0x0000000000000000        0x0 /home/jongja.cho/Git/legacy/rebel_cds_collab_hw/bootloader/cp/tf-a/build/rebel_h/debug/bl2/misc_helpers.o
 .bss           0x0000000000000000        0x0 /home/jongja.cho/Git/legacy/rebel_cds_collab_hw/bootloader/cp/tf-a/build/rebel_h/debug/bl2/misc_helpers.o
 .text.asm.memcpy16
                0x0000000000000000       0x48 /home/jongja.cho/Git/legacy/rebel_cds_collab_hw/bootloader/cp/tf-a/build/rebel_h/debug/bl2/misc_helpers.o
 .text.asm.disable_mmu_el3
                0x0000000000000000       0x1c /home/jongja.cho/Git/legacy/rebel_cds_collab_hw/bootloader/cp/tf-a/build/rebel_h/debug/bl2/misc_helpers.o
 .text.asm.disable_mmu_icache_el3
                0x0000000000000000        0x8 /home/jongja.cho/Git/legacy/rebel_cds_collab_hw/bootloader/cp/tf-a/build/rebel_h/debug/bl2/misc_helpers.o
 .text.asm.disable_mmu_el1
                0x0000000000000000       0x1c /home/jongja.cho/Git/legacy/rebel_cds_collab_hw/bootloader/cp/tf-a/build/rebel_h/debug/bl2/misc_helpers.o
 .text.asm.disable_mmu_icache_el1
                0x0000000000000000        0x8 /home/jongja.cho/Git/legacy/rebel_cds_collab_hw/bootloader/cp/tf-a/build/rebel_h/debug/bl2/misc_helpers.o
 .text.asm.fixup_gdt_reloc
                0x0000000000000000       0xc4 /home/jongja.cho/Git/legacy/rebel_cds_collab_hw/bootloader/cp/tf-a/build/rebel_h/debug/bl2/misc_helpers.o
 .text          0x0000000000000000        0x0 /home/jongja.cho/Git/legacy/rebel_cds_collab_hw/bootloader/cp/tf-a/build/rebel_h/debug/bl2/wa_cve_2017_5715_bpiall.o
 .data          0x0000000000000000        0x0 /home/jongja.cho/Git/legacy/rebel_cds_collab_hw/bootloader/cp/tf-a/build/rebel_h/debug/bl2/wa_cve_2017_5715_bpiall.o
 .bss           0x0000000000000000        0x0 /home/jongja.cho/Git/legacy/rebel_cds_collab_hw/bootloader/cp/tf-a/build/rebel_h/debug/bl2/wa_cve_2017_5715_bpiall.o
 .vectors       0x0000000000000000     0x1000 /home/jongja.cho/Git/legacy/rebel_cds_collab_hw/bootloader/cp/tf-a/build/rebel_h/debug/bl2/wa_cve_2017_5715_bpiall.o
 .text.asm.bpiall_ret_sync_exception_aarch32_tail
                0x0000000000000000        0x8 /home/jongja.cho/Git/legacy/rebel_cds_collab_hw/bootloader/cp/tf-a/build/rebel_h/debug/bl2/wa_cve_2017_5715_bpiall.o
 .debug_line    0x0000000000000000       0xe2 /home/jongja.cho/Git/legacy/rebel_cds_collab_hw/bootloader/cp/tf-a/build/rebel_h/debug/bl2/wa_cve_2017_5715_bpiall.o
 .debug_info    0x0000000000000000       0x33 /home/jongja.cho/Git/legacy/rebel_cds_collab_hw/bootloader/cp/tf-a/build/rebel_h/debug/bl2/wa_cve_2017_5715_bpiall.o
 .debug_abbrev  0x0000000000000000       0x24 /home/jongja.cho/Git/legacy/rebel_cds_collab_hw/bootloader/cp/tf-a/build/rebel_h/debug/bl2/wa_cve_2017_5715_bpiall.o
 .debug_aranges
                0x0000000000000000       0x40 /home/jongja.cho/Git/legacy/rebel_cds_collab_hw/bootloader/cp/tf-a/build/rebel_h/debug/bl2/wa_cve_2017_5715_bpiall.o
 .debug_str     0x0000000000000000       0xa3 /home/jongja.cho/Git/legacy/rebel_cds_collab_hw/bootloader/cp/tf-a/build/rebel_h/debug/bl2/wa_cve_2017_5715_bpiall.o
 .debug_ranges  0x0000000000000000       0x40 /home/jongja.cho/Git/legacy/rebel_cds_collab_hw/bootloader/cp/tf-a/build/rebel_h/debug/bl2/wa_cve_2017_5715_bpiall.o
 .debug_frame   0x0000000000000000      0x328 /home/jongja.cho/Git/legacy/rebel_cds_collab_hw/bootloader/cp/tf-a/build/rebel_h/debug/bl2/wa_cve_2017_5715_bpiall.o
 .text          0x0000000000000000        0x0 /home/jongja.cho/Git/legacy/rebel_cds_collab_hw/bootloader/cp/tf-a/build/rebel_h/debug/bl2/spinlock.o
 .data          0x0000000000000000        0x0 /home/jongja.cho/Git/legacy/rebel_cds_collab_hw/bootloader/cp/tf-a/build/rebel_h/debug/bl2/spinlock.o
 .bss           0x0000000000000000        0x0 /home/jongja.cho/Git/legacy/rebel_cds_collab_hw/bootloader/cp/tf-a/build/rebel_h/debug/bl2/spinlock.o
 .text.asm.spin_lock
                0x0000000000000000       0x20 /home/jongja.cho/Git/legacy/rebel_cds_collab_hw/bootloader/cp/tf-a/build/rebel_h/debug/bl2/spinlock.o
 .text.asm.spin_trylock
                0x0000000000000000       0x24 /home/jongja.cho/Git/legacy/rebel_cds_collab_hw/bootloader/cp/tf-a/build/rebel_h/debug/bl2/spinlock.o
 .text.asm.spin_unlock
                0x0000000000000000        0x8 /home/jongja.cho/Git/legacy/rebel_cds_collab_hw/bootloader/cp/tf-a/build/rebel_h/debug/bl2/spinlock.o
 .debug_line    0x0000000000000000       0x94 /home/jongja.cho/Git/legacy/rebel_cds_collab_hw/bootloader/cp/tf-a/build/rebel_h/debug/bl2/spinlock.o
 .debug_info    0x0000000000000000       0x51 /home/jongja.cho/Git/legacy/rebel_cds_collab_hw/bootloader/cp/tf-a/build/rebel_h/debug/bl2/spinlock.o
 .debug_abbrev  0x0000000000000000       0x26 /home/jongja.cho/Git/legacy/rebel_cds_collab_hw/bootloader/cp/tf-a/build/rebel_h/debug/bl2/spinlock.o
 .debug_aranges
                0x0000000000000000       0x50 /home/jongja.cho/Git/legacy/rebel_cds_collab_hw/bootloader/cp/tf-a/build/rebel_h/debug/bl2/spinlock.o
 .debug_str     0x0000000000000000       0x9b /home/jongja.cho/Git/legacy/rebel_cds_collab_hw/bootloader/cp/tf-a/build/rebel_h/debug/bl2/spinlock.o
 .debug_ranges  0x0000000000000000       0x50 /home/jongja.cho/Git/legacy/rebel_cds_collab_hw/bootloader/cp/tf-a/build/rebel_h/debug/bl2/spinlock.o
 .debug_frame   0x0000000000000000       0x58 /home/jongja.cho/Git/legacy/rebel_cds_collab_hw/bootloader/cp/tf-a/build/rebel_h/debug/bl2/spinlock.o
 .text          0x0000000000000000        0x0 /home/jongja.cho/Git/legacy/rebel_cds_collab_hw/bootloader/cp/tf-a/build/rebel_h/debug/bl2/enable_mmu.o
 .data          0x0000000000000000        0x0 /home/jongja.cho/Git/legacy/rebel_cds_collab_hw/bootloader/cp/tf-a/build/rebel_h/debug/bl2/enable_mmu.o
 .bss           0x0000000000000000        0x0 /home/jongja.cho/Git/legacy/rebel_cds_collab_hw/bootloader/cp/tf-a/build/rebel_h/debug/bl2/enable_mmu.o
 .text.asm.enable_mmu_direct_el2
                0x0000000000000000       0x70 /home/jongja.cho/Git/legacy/rebel_cds_collab_hw/bootloader/cp/tf-a/build/rebel_h/debug/bl2/enable_mmu.o
 .text.asm.enable_mmu_direct_el3
                0x0000000000000000       0x70 /home/jongja.cho/Git/legacy/rebel_cds_collab_hw/bootloader/cp/tf-a/build/rebel_h/debug/bl2/enable_mmu.o
 .text.asm.enable_mmu_direct_el3_bl31
                0x0000000000000000       0xe0 /home/jongja.cho/Git/legacy/rebel_cds_collab_hw/bootloader/cp/tf-a/build/rebel_h/debug/bl2/enable_mmu.o
 .text          0x0000000000000000        0x0 /home/jongja.cho/Git/legacy/rebel_cds_collab_hw/bootloader/cp/tf-a/build/rebel_h/debug/bl2/platform_helpers.o
 .data          0x0000000000000000        0x0 /home/jongja.cho/Git/legacy/rebel_cds_collab_hw/bootloader/cp/tf-a/build/rebel_h/debug/bl2/platform_helpers.o
 .bss           0x0000000000000000        0x0 /home/jongja.cho/Git/legacy/rebel_cds_collab_hw/bootloader/cp/tf-a/build/rebel_h/debug/bl2/platform_helpers.o
 .text.asm.plat_reset_handler
                0x0000000000000000        0x4 /home/jongja.cho/Git/legacy/rebel_cds_collab_hw/bootloader/cp/tf-a/build/rebel_h/debug/bl2/platform_helpers.o
 .text.asm.plat_disable_acp
                0x0000000000000000        0x4 /home/jongja.cho/Git/legacy/rebel_cds_collab_hw/bootloader/cp/tf-a/build/rebel_h/debug/bl2/platform_helpers.o
 .text.asm.bl1_plat_prepare_exit
                0x0000000000000000        0x4 /home/jongja.cho/Git/legacy/rebel_cds_collab_hw/bootloader/cp/tf-a/build/rebel_h/debug/bl2/platform_helpers.o
 .text.asm.bl31_plat_enable_mmu
                0x0000000000000000        0x4 /home/jongja.cho/Git/legacy/rebel_cds_collab_hw/bootloader/cp/tf-a/build/rebel_h/debug/bl2/platform_helpers.o
 .text.asm.bl32_plat_enable_mmu
                0x0000000000000000        0x4 /home/jongja.cho/Git/legacy/rebel_cds_collab_hw/bootloader/cp/tf-a/build/rebel_h/debug/bl2/platform_helpers.o
 .text.asm.plat_handle_uncontainable_ea
                0x0000000000000000        0x4 /home/jongja.cho/Git/legacy/rebel_cds_collab_hw/bootloader/cp/tf-a/build/rebel_h/debug/bl2/platform_helpers.o
 .text.asm.plat_handle_double_fault
                0x0000000000000000        0x4 /home/jongja.cho/Git/legacy/rebel_cds_collab_hw/bootloader/cp/tf-a/build/rebel_h/debug/bl2/platform_helpers.o
 .text.asm.plat_handle_el3_ea
                0x0000000000000000        0x4 /home/jongja.cho/Git/legacy/rebel_cds_collab_hw/bootloader/cp/tf-a/build/rebel_h/debug/bl2/platform_helpers.o
 .text          0x0000000000000000        0x0 /home/jongja.cho/Git/legacy/rebel_cds_collab_hw/bootloader/cp/tf-a/build/rebel_h/debug/bl2/platform_mp_stack.o
 .data          0x0000000000000000        0x0 /home/jongja.cho/Git/legacy/rebel_cds_collab_hw/bootloader/cp/tf-a/build/rebel_h/debug/bl2/platform_mp_stack.o
 .bss           0x0000000000000000        0x0 /home/jongja.cho/Git/legacy/rebel_cds_collab_hw/bootloader/cp/tf-a/build/rebel_h/debug/bl2/platform_mp_stack.o
 .text          0x0000000000000000        0x0 /home/jongja.cho/Git/legacy/rebel_cds_collab_hw/bootloader/cp/tf-a/build/rebel_h/debug/bl2/platform_up_stack.o
 .data          0x0000000000000000        0x0 /home/jongja.cho/Git/legacy/rebel_cds_collab_hw/bootloader/cp/tf-a/build/rebel_h/debug/bl2/platform_up_stack.o
 .bss           0x0000000000000000        0x0 /home/jongja.cho/Git/legacy/rebel_cds_collab_hw/bootloader/cp/tf-a/build/rebel_h/debug/bl2/platform_up_stack.o
 .text.asm.plat_get_my_stack
                0x0000000000000000        0xc /home/jongja.cho/Git/legacy/rebel_cds_collab_hw/bootloader/cp/tf-a/build/rebel_h/debug/bl2/platform_up_stack.o
 .text.asm.plat_set_my_stack
                0x0000000000000000       0x10 /home/jongja.cho/Git/legacy/rebel_cds_collab_hw/bootloader/cp/tf-a/build/rebel_h/debug/bl2/platform_up_stack.o
 .tzfw_normal_stacks
                0x0000000000000000     0x1000 /home/jongja.cho/Git/legacy/rebel_cds_collab_hw/bootloader/cp/tf-a/build/rebel_h/debug/bl2/platform_up_stack.o
 .debug_line    0x0000000000000000       0x72 /home/jongja.cho/Git/legacy/rebel_cds_collab_hw/bootloader/cp/tf-a/build/rebel_h/debug/bl2/platform_up_stack.o
 .debug_info    0x0000000000000000       0x42 /home/jongja.cho/Git/legacy/rebel_cds_collab_hw/bootloader/cp/tf-a/build/rebel_h/debug/bl2/platform_up_stack.o
 .debug_abbrev  0x0000000000000000       0x24 /home/jongja.cho/Git/legacy/rebel_cds_collab_hw/bootloader/cp/tf-a/build/rebel_h/debug/bl2/platform_up_stack.o
 .debug_aranges
                0x0000000000000000       0x40 /home/jongja.cho/Git/legacy/rebel_cds_collab_hw/bootloader/cp/tf-a/build/rebel_h/debug/bl2/platform_up_stack.o
 .debug_str     0x0000000000000000       0x9d /home/jongja.cho/Git/legacy/rebel_cds_collab_hw/bootloader/cp/tf-a/build/rebel_h/debug/bl2/platform_up_stack.o
 .debug_ranges  0x0000000000000000       0x40 /home/jongja.cho/Git/legacy/rebel_cds_collab_hw/bootloader/cp/tf-a/build/rebel_h/debug/bl2/platform_up_stack.o
 .debug_frame   0x0000000000000000       0x40 /home/jongja.cho/Git/legacy/rebel_cds_collab_hw/bootloader/cp/tf-a/build/rebel_h/debug/bl2/platform_up_stack.o
 .text          0x0000000000000000        0x0 /home/jongja.cho/Git/legacy/rebel_cds_collab_hw/bootloader/cp/tf-a/build/rebel_h/debug/bl2/plat_helper.o
 .data          0x0000000000000000        0x0 /home/jongja.cho/Git/legacy/rebel_cds_collab_hw/bootloader/cp/tf-a/build/rebel_h/debug/bl2/plat_helper.o
 .bss           0x0000000000000000        0x0 /home/jongja.cho/Git/legacy/rebel_cds_collab_hw/bootloader/cp/tf-a/build/rebel_h/debug/bl2/plat_helper.o
 .text.asm.plat_get_my_entrypoint
                0x0000000000000000        0x8 /home/jongja.cho/Git/legacy/rebel_cds_collab_hw/bootloader/cp/tf-a/build/rebel_h/debug/bl2/plat_helper.o
 .text.asm.plat_arm_calc_core_pos
                0x0000000000000000        0x8 /home/jongja.cho/Git/legacy/rebel_cds_collab_hw/bootloader/cp/tf-a/build/rebel_h/debug/bl2/plat_helper.o
 .text.asm.plat_is_my_cpu_primary
                0x0000000000000000       0x14 /home/jongja.cho/Git/legacy/rebel_cds_collab_hw/bootloader/cp/tf-a/build/rebel_h/debug/bl2/plat_helper.o
 .text.asm.plat_secondary_cold_boot_setup
                0x0000000000000000        0x4 /home/jongja.cho/Git/legacy/rebel_cds_collab_hw/bootloader/cp/tf-a/build/rebel_h/debug/bl2/plat_helper.o
 .text.asm.platform_mem_init
                0x0000000000000000        0x4 /home/jongja.cho/Git/legacy/rebel_cds_collab_hw/bootloader/cp/tf-a/build/rebel_h/debug/bl2/plat_helper.o
 .text.asm.plat_reset_handler
                0x0000000000000000        0x0 /home/jongja.cho/Git/legacy/rebel_cds_collab_hw/bootloader/cp/tf-a/build/rebel_h/debug/bl2/plat_helper.o
 .text          0x0000000000000000        0x0 /home/jongja.cho/Git/legacy/rebel_cds_collab_hw/bootloader/cp/tf-a/build/rebel_h/debug/lib/libc.a(assert.o)
 .data          0x0000000000000000        0x0 /home/jongja.cho/Git/legacy/rebel_cds_collab_hw/bootloader/cp/tf-a/build/rebel_h/debug/lib/libc.a(assert.o)
 .bss           0x0000000000000000        0x0 /home/jongja.cho/Git/legacy/rebel_cds_collab_hw/bootloader/cp/tf-a/build/rebel_h/debug/lib/libc.a(assert.o)
 .text          0x0000000000000000        0x0 /home/jongja.cho/Git/legacy/rebel_cds_collab_hw/bootloader/cp/tf-a/build/rebel_h/debug/lib/libc.a(memcpy.o)
 .data          0x0000000000000000        0x0 /home/jongja.cho/Git/legacy/rebel_cds_collab_hw/bootloader/cp/tf-a/build/rebel_h/debug/lib/libc.a(memcpy.o)
 .bss           0x0000000000000000        0x0 /home/jongja.cho/Git/legacy/rebel_cds_collab_hw/bootloader/cp/tf-a/build/rebel_h/debug/lib/libc.a(memcpy.o)
 .text          0x0000000000000000        0x0 /home/jongja.cho/Git/legacy/rebel_cds_collab_hw/bootloader/cp/tf-a/build/rebel_h/debug/lib/libc.a(memmove.o)
 .data          0x0000000000000000        0x0 /home/jongja.cho/Git/legacy/rebel_cds_collab_hw/bootloader/cp/tf-a/build/rebel_h/debug/lib/libc.a(memmove.o)
 .bss           0x0000000000000000        0x0 /home/jongja.cho/Git/legacy/rebel_cds_collab_hw/bootloader/cp/tf-a/build/rebel_h/debug/lib/libc.a(memmove.o)
 .text          0x0000000000000000        0x0 /home/jongja.cho/Git/legacy/rebel_cds_collab_hw/bootloader/cp/tf-a/build/rebel_h/debug/lib/libc.a(printf.o)
 .data          0x0000000000000000        0x0 /home/jongja.cho/Git/legacy/rebel_cds_collab_hw/bootloader/cp/tf-a/build/rebel_h/debug/lib/libc.a(printf.o)
 .bss           0x0000000000000000        0x0 /home/jongja.cho/Git/legacy/rebel_cds_collab_hw/bootloader/cp/tf-a/build/rebel_h/debug/lib/libc.a(printf.o)
 .text          0x0000000000000000        0x0 /home/jongja.cho/Git/legacy/rebel_cds_collab_hw/bootloader/cp/tf-a/build/rebel_h/debug/lib/libc.a(snprintf.o)
 .data          0x0000000000000000        0x0 /home/jongja.cho/Git/legacy/rebel_cds_collab_hw/bootloader/cp/tf-a/build/rebel_h/debug/lib/libc.a(snprintf.o)
 .bss           0x0000000000000000        0x0 /home/jongja.cho/Git/legacy/rebel_cds_collab_hw/bootloader/cp/tf-a/build/rebel_h/debug/lib/libc.a(snprintf.o)
 .text          0x0000000000000000        0x0 /home/jongja.cho/Git/legacy/rebel_cds_collab_hw/bootloader/cp/tf-a/build/rebel_h/debug/lib/libc.a(strlen.o)
 .data          0x0000000000000000        0x0 /home/jongja.cho/Git/legacy/rebel_cds_collab_hw/bootloader/cp/tf-a/build/rebel_h/debug/lib/libc.a(strlen.o)
 .bss           0x0000000000000000        0x0 /home/jongja.cho/Git/legacy/rebel_cds_collab_hw/bootloader/cp/tf-a/build/rebel_h/debug/lib/libc.a(strlen.o)
 .text          0x0000000000000000        0x0 /home/jongja.cho/Git/legacy/rebel_cds_collab_hw/bootloader/cp/tf-a/build/rebel_h/debug/lib/libc.a(strncmp.o)
 .data          0x0000000000000000        0x0 /home/jongja.cho/Git/legacy/rebel_cds_collab_hw/bootloader/cp/tf-a/build/rebel_h/debug/lib/libc.a(strncmp.o)
 .bss           0x0000000000000000        0x0 /home/jongja.cho/Git/legacy/rebel_cds_collab_hw/bootloader/cp/tf-a/build/rebel_h/debug/lib/libc.a(strncmp.o)
 .text          0x0000000000000000        0x0 /home/jongja.cho/Git/legacy/rebel_cds_collab_hw/bootloader/cp/tf-a/build/rebel_h/debug/lib/libc.a(memset.o)
 .data          0x0000000000000000        0x0 /home/jongja.cho/Git/legacy/rebel_cds_collab_hw/bootloader/cp/tf-a/build/rebel_h/debug/lib/libc.a(memset.o)
 .bss           0x0000000000000000        0x0 /home/jongja.cho/Git/legacy/rebel_cds_collab_hw/bootloader/cp/tf-a/build/rebel_h/debug/lib/libc.a(memset.o)

Memory Configuration

Name             Origin             Length             Attributes
RAM              0x0000001e00030000 0x0000000000020000 xrw
*default*        0x0000000000000000 0xffffffffffffffff

Linker script and memory map

                0x0000001e00030000                RAM_REGION_START = ORIGIN (RAM)
                0x0000000000020000                RAM_REGION_LENGTH = LENGTH (RAM)
                0x0000001e00030000                . = 0x1e00030000
                0x0000000000000001                ASSERT ((. == ALIGN (0x1000)), BL2_BASE address is not aligned on a page boundary.)

.ro             0x0000001e00030000     0xf000
                0x0000000000000001                ASSERT ((. == ALIGN (0x1000)), .ro address is not aligned on a page boundary.)
                0x0000001e00030000                __RO_START__ = .
 *bl2_entrypoint.o(SORT_BY_ALIGNMENT(.text*))
 .text.asm.bl2_entrypoint
                0x0000001e00030000       0x98 /home/jongja.cho/Git/legacy/rebel_cds_collab_hw/bootloader/cp/tf-a/build/rebel_h/debug/bl2/bl2_entrypoint.o
                0x0000001e00030000                bl2_entrypoint
 *(SORT_BY_ALIGNMENT(.text*))
 .text.get_hbm_cfg
                0x0000001e00030098       0x1c /home/jongja.cho/Git/legacy/rebel_cds_collab_hw/bootloader/cp/tf-a/build/rebel_h/debug/bl2/hbm3.o
                0x0000001e00030098                get_hbm_cfg
 .text.get_phy_lock_value
                0x0000001e000300b4       0x14 /home/jongja.cho/Git/legacy/rebel_cds_collab_hw/bootloader/cp/tf-a/build/rebel_h/debug/bl2/hbm3.o
                0x0000001e000300b4                get_phy_lock_value
 .text.phy_do_training
                0x0000001e000300c8       0x64 /home/jongja.cho/Git/legacy/rebel_cds_collab_hw/bootloader/cp/tf-a/build/rebel_h/debug/bl2/hbm3.o
                0x0000001e000300c8                phy_do_training
 .text.phy_gen_pattern
                0x0000001e0003012c       0x7c /home/jongja.cho/Git/legacy/rebel_cds_collab_hw/bootloader/cp/tf-a/build/rebel_h/debug/bl2/hbm3.o
                0x0000001e0003012c                phy_gen_pattern
 .text.phy_update_dll_code
                0x0000001e000301a8       0x4c /home/jongja.cho/Git/legacy/rebel_cds_collab_hw/bootloader/cp/tf-a/build/rebel_h/debug/bl2/hbm3.o
                0x0000001e000301a8                phy_update_dll_code
 .text.mrw_phy_direct_cmd
                0x0000001e000301f4       0xec /home/jongja.cho/Git/legacy/rebel_cds_collab_hw/bootloader/cp/tf-a/build/rebel_h/debug/bl2/hbm3.o
                0x0000001e000301f4                mrw_phy_direct_cmd
 .text.phy_set_read_vref
                0x0000001e000302e0       0x40 /home/jongja.cho/Git/legacy/rebel_cds_collab_hw/bootloader/cp/tf-a/build/rebel_h/debug/bl2/hbm3.o
                0x0000001e000302e0                phy_set_read_vref
 .text.phy_set_write_vref
                0x0000001e00030320        0xc /home/jongja.cho/Git/legacy/rebel_cds_collab_hw/bootloader/cp/tf-a/build/rebel_h/debug/bl2/hbm3.o
                0x0000001e00030320                phy_set_write_vref
 .text.phy_dq_offset_control
                0x0000001e0003032c       0x74 /home/jongja.cho/Git/legacy/rebel_cds_collab_hw/bootloader/cp/tf-a/build/rebel_h/debug/bl2/hbm3.o
                0x0000001e0003032c                phy_dq_offset_control
 .text.phy_ecc_offset_control
                0x0000001e000303a0       0x54 /home/jongja.cho/Git/legacy/rebel_cds_collab_hw/bootloader/cp/tf-a/build/rebel_h/debug/bl2/hbm3.o
                0x0000001e000303a0                phy_ecc_offset_control
 .text.phy_sev_offset_control
                0x0000001e000303f4       0x54 /home/jongja.cho/Git/legacy/rebel_cds_collab_hw/bootloader/cp/tf-a/build/rebel_h/debug/bl2/hbm3.o
                0x0000001e000303f4                phy_sev_offset_control
 .text.phy_dbi_offset_control
                0x0000001e00030448       0x94 /home/jongja.cho/Git/legacy/rebel_cds_collab_hw/bootloader/cp/tf-a/build/rebel_h/debug/bl2/hbm3.o
                0x0000001e00030448                phy_dbi_offset_control
 .text.phy_rdqs_offset_control
                0x0000001e000304dc       0x34 /home/jongja.cho/Git/legacy/rebel_cds_collab_hw/bootloader/cp/tf-a/build/rebel_h/debug/bl2/hbm3.o
                0x0000001e000304dc                phy_rdqs_offset_control
 .text.phy_offset_update
                0x0000001e00030510       0x38 /home/jongja.cho/Git/legacy/rebel_cds_collab_hw/bootloader/cp/tf-a/build/rebel_h/debug/bl2/hbm3.o
                0x0000001e00030510                phy_offset_update
 .text.hbm3_config_init
                0x0000001e00030548       0x68 /home/jongja.cho/Git/legacy/rebel_cds_collab_hw/bootloader/cp/tf-a/build/rebel_h/debug/bl2/hbm3.o
                0x0000001e00030548                hbm3_config_init
 .text.wait_for_test_instruction_req_done
                0x0000001e000305b0       0x34 /home/jongja.cho/Git/legacy/rebel_cds_collab_hw/bootloader/cp/tf-a/build/rebel_h/debug/bl2/icon.o
                0x0000001e000305b0                wait_for_test_instruction_req_done
 .text.wait_for_test_instruction_req_done_clear
                0x0000001e000305e4       0x34 /home/jongja.cho/Git/legacy/rebel_cds_collab_hw/bootloader/cp/tf-a/build/rebel_h/debug/bl2/icon.o
                0x0000001e000305e4                wait_for_test_instruction_req_done_clear
 .text.icon_test_instruction_req
                0x0000001e00030618       0x9c /home/jongja.cho/Git/legacy/rebel_cds_collab_hw/bootloader/cp/tf-a/build/rebel_h/debug/bl2/icon.o
                0x0000001e00030618                icon_test_instruction_req
 .text.icon_sw_instruction_req
                0x0000001e000306b4       0x4c /home/jongja.cho/Git/legacy/rebel_cds_collab_hw/bootloader/cp/tf-a/build/rebel_h/debug/bl2/icon.o
                0x0000001e000306b4                icon_sw_instruction_req
 .text.icon_hbm_reset
                0x0000001e00030700       0xcc /home/jongja.cho/Git/legacy/rebel_cds_collab_hw/bootloader/cp/tf-a/build/rebel_h/debug/bl2/icon.o
                0x0000001e00030700                icon_hbm_reset
 .text.icon_lane_repair
                0x0000001e000307cc       0x9c /home/jongja.cho/Git/legacy/rebel_cds_collab_hw/bootloader/cp/tf-a/build/rebel_h/debug/bl2/icon.o
                0x0000001e000307cc                icon_lane_repair
 .text.icon_rx_lane_search
                0x0000001e00030868      0x124 /home/jongja.cho/Git/legacy/rebel_cds_collab_hw/bootloader/cp/tf-a/build/rebel_h/debug/bl2/icon.o
                0x0000001e00030868                icon_rx_lane_search
 .text.icon_rx_extest
                0x0000001e0003098c      0x2e8 /home/jongja.cho/Git/legacy/rebel_cds_collab_hw/bootloader/cp/tf-a/build/rebel_h/debug/bl2/icon.o
                0x0000001e0003098c                icon_rx_extest
 .text.icon_tx_lane_search
                0x0000001e00030c74      0x154 /home/jongja.cho/Git/legacy/rebel_cds_collab_hw/bootloader/cp/tf-a/build/rebel_h/debug/bl2/icon.o
                0x0000001e00030c74                icon_tx_lane_search
 .text.icon_tx_extest
                0x0000001e00030dc8      0x35c /home/jongja.cho/Git/legacy/rebel_cds_collab_hw/bootloader/cp/tf-a/build/rebel_h/debug/bl2/icon.o
                0x0000001e00030dc8                icon_tx_extest
 .text.hbm3_lane_repair
                0x0000001e00031124      0x1c4 /home/jongja.cho/Git/legacy/rebel_cds_collab_hw/bootloader/cp/tf-a/build/rebel_h/debug/bl2/icon.o
                0x0000001e00031124                hbm3_lane_repair
 .text.icon_extest
                0x0000001e000312e8      0x104 /home/jongja.cho/Git/legacy/rebel_cds_collab_hw/bootloader/cp/tf-a/build/rebel_h/debug/bl2/icon.o
                0x0000001e000312e8                icon_extest
 .text.icon_mrs_ch
                0x0000001e000313ec       0x4c /home/jongja.cho/Git/legacy/rebel_cds_collab_hw/bootloader/cp/tf-a/build/rebel_h/debug/bl2/icon.o
                0x0000001e000313ec                icon_mrs_ch
 .text.icon_rd_feedback
                0x0000001e00031438       0x7c /home/jongja.cho/Git/legacy/rebel_cds_collab_hw/bootloader/cp/tf-a/build/rebel_h/debug/bl2/icon.o
                0x0000001e00031438                icon_rd_feedback
 .text.tmrs_write
                0x0000001e000314b4       0x48 /home/jongja.cho/Git/legacy/rebel_cds_collab_hw/bootloader/cp/tf-a/build/rebel_h/debug/bl2/tmrs.o
                0x0000001e000314b4                tmrs_write
 .text.tmrs_gen_inst
                0x0000001e000314fc       0x40 /home/jongja.cho/Git/legacy/rebel_cds_collab_hw/bootloader/cp/tf-a/build/rebel_h/debug/bl2/tmrs.o
                0x0000001e000314fc                tmrs_gen_inst
 .text.tmrs_bypass
                0x0000001e0003153c       0x54 /home/jongja.cho/Git/legacy/rebel_cds_collab_hw/bootloader/cp/tf-a/build/rebel_h/debug/bl2/tmrs.o
                0x0000001e0003153c                tmrs_bypass
 .text.rebel_bakery_lock_init
                0x0000001e00031590       0x34 /home/jongja.cho/Git/legacy/rebel_cds_collab_hw/bootloader/cp/tf-a/build/rebel_h/debug/bl2/bakery_lock.o
                0x0000001e00031590                rebel_bakery_lock_init
 .text.bl2_arch_setup
                0x0000001e000315c4        0xc /home/jongja.cho/Git/legacy/rebel_cds_collab_hw/bootloader/cp/tf-a/build/rebel_h/debug/bl2/bl2_arch_setup.o
                0x0000001e000315c4                bl2_arch_setup
 .text.bl2_load_images
                0x0000001e000315d0      0x14c /home/jongja.cho/Git/legacy/rebel_cds_collab_hw/bootloader/cp/tf-a/build/rebel_h/debug/bl2/bl2_image_load_v2.o
                0x0000001e000315d0                bl2_load_images
 .text.bl2_main
                0x0000001e0003171c       0x74 /home/jongja.cho/Git/legacy/rebel_cds_collab_hw/bootloader/cp/tf-a/build/rebel_h/debug/bl2/bl2_main.o
                0x0000001e0003171c                bl2_main
 .text.is_address_readable
                0x0000001e00031790       0x40 /home/jongja.cho/Git/legacy/rebel_cds_collab_hw/bootloader/cp/tf-a/build/rebel_h/debug/bl2/backtrace.o
 .text.is_valid_object.constprop.0
                0x0000001e000317d0       0x5c /home/jongja.cho/Git/legacy/rebel_cds_collab_hw/bootloader/cp/tf-a/build/rebel_h/debug/bl2/backtrace.o
 .text.backtrace
                0x0000001e0003182c      0x120 /home/jongja.cho/Git/legacy/rebel_cds_collab_hw/bootloader/cp/tf-a/build/rebel_h/debug/bl2/backtrace.o
                0x0000001e0003182c                backtrace
 .text.load_image
                0x0000001e0003194c      0x160 /home/jongja.cho/Git/legacy/rebel_cds_collab_hw/bootloader/cp/tf-a/build/rebel_h/debug/bl2/bl_common.o
 .text.load_auth_image
                0x0000001e00031aac       0x90 /home/jongja.cho/Git/legacy/rebel_cds_collab_hw/bootloader/cp/tf-a/build/rebel_h/debug/bl2/bl_common.o
                0x0000001e00031aac                load_auth_image
 .text.flush_bl_params_desc_args
                0x0000001e00031b3c       0x40 /home/jongja.cho/Git/legacy/rebel_cds_collab_hw/bootloader/cp/tf-a/build/rebel_h/debug/bl2/desc_image_load.o
                0x0000001e00031b3c                flush_bl_params_desc_args
 .text.flush_bl_params_desc
                0x0000001e00031b7c       0x1c /home/jongja.cho/Git/legacy/rebel_cds_collab_hw/bootloader/cp/tf-a/build/rebel_h/debug/bl2/desc_image_load.o
                0x0000001e00031b7c                flush_bl_params_desc
 .text.get_bl_params_node_index
                0x0000001e00031b98       0x64 /home/jongja.cho/Git/legacy/rebel_cds_collab_hw/bootloader/cp/tf-a/build/rebel_h/debug/bl2/desc_image_load.o
                0x0000001e00031b98                get_bl_params_node_index
 .text.get_bl_load_info_from_mem_params_desc
                0x0000001e00031bfc       0x64 /home/jongja.cho/Git/legacy/rebel_cds_collab_hw/bootloader/cp/tf-a/build/rebel_h/debug/bl2/desc_image_load.o
                0x0000001e00031bfc                get_bl_load_info_from_mem_params_desc
 .text.get_next_bl_params_from_mem_params_desc
                0x0000001e00031c60      0x11c /home/jongja.cho/Git/legacy/rebel_cds_collab_hw/bootloader/cp/tf-a/build/rebel_h/debug/bl2/desc_image_load.o
                0x0000001e00031c60                get_next_bl_params_from_mem_params_desc
 .text.tf_crc32
                0x0000001e00031d7c       0x38 /home/jongja.cho/Git/legacy/rebel_cds_collab_hw/bootloader/cp/tf-a/build/rebel_h/debug/bl2/tf_crc32.o
                0x0000001e00031d7c                tf_crc32
 .text.tf_log   0x0000001e00031db4       0xb4 /home/jongja.cho/Git/legacy/rebel_cds_collab_hw/bootloader/cp/tf-a/build/rebel_h/debug/bl2/tf_log.o
                0x0000001e00031db4                tf_log
 .text.dma_pl330_gen_mov
                0x0000001e00031e68       0x38 /home/jongja.cho/Git/legacy/rebel_cds_collab_hw/bootloader/cp/tf-a/build/rebel_h/debug/bl2/pl330.o
 .text.dma_configure
                0x0000001e00031ea0       0xc8 /home/jongja.cho/Git/legacy/rebel_cds_collab_hw/bootloader/cp/tf-a/build/rebel_h/debug/bl2/pl330.o
                0x0000001e00031ea0                dma_configure
 .text.dma_start
                0x0000001e00031f68      0x448 /home/jongja.cho/Git/legacy/rebel_cds_collab_hw/bootloader/cp/tf-a/build/rebel_h/debug/bl2/pl330.o
                0x0000001e00031f68                dma_start
 .text.dma_init
                0x0000001e000323b0       0x38 /home/jongja.cho/Git/legacy/rebel_cds_collab_hw/bootloader/cp/tf-a/build/rebel_h/debug/bl2/pl330.o
                0x0000001e000323b0                dma_init
 .text.dma_load_image
                0x0000001e000323e8       0xf0 /home/jongja.cho/Git/legacy/rebel_cds_collab_hw/bootloader/cp/tf-a/build/rebel_h/debug/bl2/pl330.o
                0x0000001e000323e8                dma_load_image
 .text.cmu_find_pll_lvl
                0x0000001e000324d8       0x34 /home/jongja.cho/Git/legacy/rebel_cds_collab_hw/bootloader/cp/tf-a/build/rebel_h/debug/bl2/cmu.o
 .text.cmu_blk_cp_init
                0x0000001e0003250c      0x1ac /home/jongja.cho/Git/legacy/rebel_cds_collab_hw/bootloader/cp/tf-a/build/rebel_h/debug/bl2/cmu.o
 .text.cmu_blk_pcie_init
                0x0000001e000326b8       0xf4 /home/jongja.cho/Git/legacy/rebel_cds_collab_hw/bootloader/cp/tf-a/build/rebel_h/debug/bl2/cmu.o
 .text.cmu_blk_rot_init
                0x0000001e000327ac       0xd8 /home/jongja.cho/Git/legacy/rebel_cds_collab_hw/bootloader/cp/tf-a/build/rebel_h/debug/bl2/cmu.o
 .text.cmu_blk_peri_init
                0x0000001e00032884       0x88 /home/jongja.cho/Git/legacy/rebel_cds_collab_hw/bootloader/cp/tf-a/build/rebel_h/debug/bl2/cmu.o
 .text.cmu_top_bus
                0x0000001e0003290c      0x524 /home/jongja.cho/Git/legacy/rebel_cds_collab_hw/bootloader/cp/tf-a/build/rebel_h/debug/bl2/cmu.o
 .text.cmu_blk_dcl_init
                0x0000001e00032e30      0x2b8 /home/jongja.cho/Git/legacy/rebel_cds_collab_hw/bootloader/cp/tf-a/build/rebel_h/debug/bl2/cmu.o
 .text.cmu_blk_dram_init_evt0
                0x0000001e000330e8      0x240 /home/jongja.cho/Git/legacy/rebel_cds_collab_hw/bootloader/cp/tf-a/build/rebel_h/debug/bl2/cmu.o
                0x0000001e000330e8                cmu_blk_dram_init_evt0
 .text.cmu_blk_dram_init_evt1
                0x0000001e00033328      0x240 /home/jongja.cho/Git/legacy/rebel_cds_collab_hw/bootloader/cp/tf-a/build/rebel_h/debug/bl2/cmu.o
                0x0000001e00033328                cmu_blk_dram_init_evt1
 .text.cmu_blk_dram_init_evt0_by_freq
                0x0000001e00033568       0x30 /home/jongja.cho/Git/legacy/rebel_cds_collab_hw/bootloader/cp/tf-a/build/rebel_h/debug/bl2/cmu.o
                0x0000001e00033568                cmu_blk_dram_init_evt0_by_freq
 .text.cmu_blk_dram_init_evt1_by_freq
                0x0000001e00033598       0x30 /home/jongja.cho/Git/legacy/rebel_cds_collab_hw/bootloader/cp/tf-a/build/rebel_h/debug/bl2/cmu.o
                0x0000001e00033598                cmu_blk_dram_init_evt1_by_freq
 .text.cmu_init_bl2
                0x0000001e000335c8      0x120 /home/jongja.cho/Git/legacy/rebel_cds_collab_hw/bootloader/cp/tf-a/build/rebel_h/debug/bl2/cmu.o
                0x0000001e000335c8                cmu_init_bl2
 .text.console_is_registered
                0x0000001e000336e8       0x3c /home/jongja.cho/Git/legacy/rebel_cds_collab_hw/bootloader/cp/tf-a/build/rebel_h/debug/bl2/multi_console.o
                0x0000001e000336e8                console_is_registered
 .text.console_register
                0x0000001e00033724       0x64 /home/jongja.cho/Git/legacy/rebel_cds_collab_hw/bootloader/cp/tf-a/build/rebel_h/debug/bl2/multi_console.o
                0x0000001e00033724                console_register
 .text.console_set_scope
                0x0000001e00033788       0x28 /home/jongja.cho/Git/legacy/rebel_cds_collab_hw/bootloader/cp/tf-a/build/rebel_h/debug/bl2/multi_console.o
                0x0000001e00033788                console_set_scope
 .text.console_putc
                0x0000001e000337b0       0xa8 /home/jongja.cho/Git/legacy/rebel_cds_collab_hw/bootloader/cp/tf-a/build/rebel_h/debug/bl2/multi_console.o
                0x0000001e000337b0                console_putc
 .text.putchar  0x0000001e00033858       0x28 /home/jongja.cho/Git/legacy/rebel_cds_collab_hw/bootloader/cp/tf-a/build/rebel_h/debug/bl2/multi_console.o
                0x0000001e00033858                putchar
 .text.console_flush
                0x0000001e00033880       0x54 /home/jongja.cho/Git/legacy/rebel_cds_collab_hw/bootloader/cp/tf-a/build/rebel_h/debug/bl2/multi_console.o
                0x0000001e00033880                console_flush
 .text.udelay   0x0000001e000338d4       0x90 /home/jongja.cho/Git/legacy/rebel_cds_collab_hw/bootloader/cp/tf-a/build/rebel_h/debug/bl2/delay_timer.o
                0x0000001e000338d4                udelay
 .text.mdelay   0x0000001e00033964       0x28 /home/jongja.cho/Git/legacy/rebel_cds_collab_hw/bootloader/cp/tf-a/build/rebel_h/debug/bl2/delay_timer.o
                0x0000001e00033964                mdelay
 .text.timer_init
                0x0000001e0003398c       0x34 /home/jongja.cho/Git/legacy/rebel_cds_collab_hw/bootloader/cp/tf-a/build/rebel_h/debug/bl2/delay_timer.o
                0x0000001e0003398c                timer_init
 .text.generic_delay_timeout_init_us
                0x0000001e000339c0       0x24 /home/jongja.cho/Git/legacy/rebel_cds_collab_hw/bootloader/cp/tf-a/build/rebel_h/debug/bl2/generic_delay_timer.o
 .text.generic_delay_timeout_elapsed
                0x0000001e000339e4       0x10 /home/jongja.cho/Git/legacy/rebel_cds_collab_hw/bootloader/cp/tf-a/build/rebel_h/debug/bl2/generic_delay_timer.o
 .text.generic_delay_get_timer_value
                0x0000001e000339f4        0xc /home/jongja.cho/Git/legacy/rebel_cds_collab_hw/bootloader/cp/tf-a/build/rebel_h/debug/bl2/generic_delay_timer.o
 .text.generic_delay_timer_init_args
                0x0000001e00033a00       0x38 /home/jongja.cho/Git/legacy/rebel_cds_collab_hw/bootloader/cp/tf-a/build/rebel_h/debug/bl2/generic_delay_timer.o
                0x0000001e00033a00                generic_delay_timer_init_args
 .text.generic_delay_timer_init
                0x0000001e00033a38       0x5c /home/jongja.cho/Git/legacy/rebel_cds_collab_hw/bootloader/cp/tf-a/build/rebel_h/debug/bl2/generic_delay_timer.o
                0x0000001e00033a38                generic_delay_timer_init
 .text.get_lotid_for_hbm
                0x0000001e00033a94      0x13c /home/jongja.cho/Git/legacy/rebel_cds_collab_hw/bootloader/cp/tf-a/build/rebel_h/debug/bl2/hbm3_chipid.o
                0x0000001e00033a94                get_lotid_for_hbm
 .text.phy_post_training
                0x0000001e00033bd0       0x5c /home/jongja.cho/Git/legacy/rebel_cds_collab_hw/bootloader/cp/tf-a/build/rebel_h/debug/bl2/hbm3_init.o
 .text.phy_find_read_training_fail_bit
                0x0000001e00033c2c      0x590 /home/jongja.cho/Git/legacy/rebel_cds_collab_hw/bootloader/cp/tf-a/build/rebel_h/debug/bl2/hbm3_init.o
 .text.phy_find_write_training_fail_bit
                0x0000001e000341bc      0x598 /home/jongja.cho/Git/legacy/rebel_cds_collab_hw/bootloader/cp/tf-a/build/rebel_h/debug/bl2/hbm3_init.o
 .text.phy_acquire_vwm_buf
                0x0000001e00034754       0x28 /home/jongja.cho/Git/legacy/rebel_cds_collab_hw/bootloader/cp/tf-a/build/rebel_h/debug/bl2/hbm3_init.o
 .text.enable_hashing
                0x0000001e0003477c      0x120 /home/jongja.cho/Git/legacy/rebel_cds_collab_hw/bootloader/cp/tf-a/build/rebel_h/debug/bl2/hbm3_init.o
                0x0000001e0003477c                enable_hashing
 .text.hbm3_dfi_init
                0x0000001e0003489c       0xc8 /home/jongja.cho/Git/legacy/rebel_cds_collab_hw/bootloader/cp/tf-a/build/rebel_h/debug/bl2/hbm3_init.o
                0x0000001e0003489c                hbm3_dfi_init
 .text.get_read_latency
                0x0000001e00034964       0x80 /home/jongja.cho/Git/legacy/rebel_cds_collab_hw/bootloader/cp/tf-a/build/rebel_h/debug/bl2/hbm3_init.o
                0x0000001e00034964                get_read_latency
 .text.get_write_latency
                0x0000001e000349e4       0x70 /home/jongja.cho/Git/legacy/rebel_cds_collab_hw/bootloader/cp/tf-a/build/rebel_h/debug/bl2/hbm3_init.o
                0x0000001e000349e4                get_write_latency
 .text.icon_mrs
                0x0000001e00034a54       0xe0 /home/jongja.cho/Git/legacy/rebel_cds_collab_hw/bootloader/cp/tf-a/build/rebel_h/debug/bl2/hbm3_init.o
                0x0000001e00034a54                icon_mrs
 .text.phy_pre_training
                0x0000001e00034b34      0x204 /home/jongja.cho/Git/legacy/rebel_cds_collab_hw/bootloader/cp/tf-a/build/rebel_h/debug/bl2/hbm3_init.o
 .text.tmrs_default_set
                0x0000001e00034d38      0x1a0 /home/jongja.cho/Git/legacy/rebel_cds_collab_hw/bootloader/cp/tf-a/build/rebel_h/debug/bl2/hbm3_init.o
                0x0000001e00034d38                tmrs_default_set
 .text.set_tmrs
                0x0000001e00034ed8       0x70 /home/jongja.cho/Git/legacy/rebel_cds_collab_hw/bootloader/cp/tf-a/build/rebel_h/debug/bl2/hbm3_init.o
                0x0000001e00034ed8                set_tmrs
 .text.phy_read_training_fail_check
                0x0000001e00034f48       0xc8 /home/jongja.cho/Git/legacy/rebel_cds_collab_hw/bootloader/cp/tf-a/build/rebel_h/debug/bl2/hbm3_init.o
                0x0000001e00034f48                phy_read_training_fail_check
 .text.phy_write_training_fail_check
                0x0000001e00035010       0xc8 /home/jongja.cho/Git/legacy/rebel_cds_collab_hw/bootloader/cp/tf-a/build/rebel_h/debug/bl2/hbm3_init.o
                0x0000001e00035010                phy_write_training_fail_check
 .text.phy_find_min_result
                0x0000001e000350d8      0x1f4 /home/jongja.cho/Git/legacy/rebel_cds_collab_hw/bootloader/cp/tf-a/build/rebel_h/debug/bl2/hbm3_init.o
                0x0000001e000350d8                phy_find_min_result
 .text.phy_get_training_result
                0x0000001e000352cc      0x134 /home/jongja.cho/Git/legacy/rebel_cds_collab_hw/bootloader/cp/tf-a/build/rebel_h/debug/bl2/hbm3_init.o
                0x0000001e000352cc                phy_get_training_result
 .text.phy_update_ca_ra_deskew
                0x0000001e00035400      0x138 /home/jongja.cho/Git/legacy/rebel_cds_collab_hw/bootloader/cp/tf-a/build/rebel_h/debug/bl2/hbm3_init.o
                0x0000001e00035400                phy_update_ca_ra_deskew
 .text.phy_search_ca_ra_deskew
                0x0000001e00035538      0x100 /home/jongja.cho/Git/legacy/rebel_cds_collab_hw/bootloader/cp/tf-a/build/rebel_h/debug/bl2/hbm3_init.o
                0x0000001e00035538                phy_search_ca_ra_deskew
 .text.phy_read_training
                0x0000001e00035638       0xc8 /home/jongja.cho/Git/legacy/rebel_cds_collab_hw/bootloader/cp/tf-a/build/rebel_h/debug/bl2/hbm3_init.o
                0x0000001e00035638                phy_read_training
 .text.phy_write_training
                0x0000001e00035700       0xf0 /home/jongja.cho/Git/legacy/rebel_cds_collab_hw/bootloader/cp/tf-a/build/rebel_h/debug/bl2/hbm3_init.o
                0x0000001e00035700                phy_write_training
 .text.phy_read_training_LFSR_seed
                0x0000001e000357f0      0x104 /home/jongja.cho/Git/legacy/rebel_cds_collab_hw/bootloader/cp/tf-a/build/rebel_h/debug/bl2/hbm3_init.o
                0x0000001e000357f0                phy_read_training_LFSR_seed
 .text.phy_read_training_LFSR
                0x0000001e000358f4       0xc4 /home/jongja.cho/Git/legacy/rebel_cds_collab_hw/bootloader/cp/tf-a/build/rebel_h/debug/bl2/hbm3_init.o
                0x0000001e000358f4                phy_read_training_LFSR
 .text.phy_write_training_LFSR_seed
                0x0000001e000359b8      0x148 /home/jongja.cho/Git/legacy/rebel_cds_collab_hw/bootloader/cp/tf-a/build/rebel_h/debug/bl2/hbm3_init.o
                0x0000001e000359b8                phy_write_training_LFSR_seed
 .text.phy_write_training_LFSR
                0x0000001e00035b00      0x140 /home/jongja.cho/Git/legacy/rebel_cds_collab_hw/bootloader/cp/tf-a/build/rebel_h/debug/bl2/hbm3_init.o
                0x0000001e00035b00                phy_write_training_LFSR
 .text.phy_vwm_sum_margin
                0x0000001e00035c40       0x24 /home/jongja.cho/Git/legacy/rebel_cds_collab_hw/bootloader/cp/tf-a/build/rebel_h/debug/bl2/hbm3_init.o
                0x0000001e00035c40                phy_vwm_sum_margin
 .text.phy_vwm_shitf_window
                0x0000001e00035c64       0x24 /home/jongja.cho/Git/legacy/rebel_cds_collab_hw/bootloader/cp/tf-a/build/rebel_h/debug/bl2/hbm3_init.o
                0x0000001e00035c64                phy_vwm_shitf_window
 .text.phy_write_vref_training
                0x0000001e00035c88      0x1e0 /home/jongja.cho/Git/legacy/rebel_cds_collab_hw/bootloader/cp/tf-a/build/rebel_h/debug/bl2/hbm3_init.o
                0x0000001e00035c88                phy_write_vref_training
 .text.phy_read_vref_training_LFSR_vertical
                0x0000001e00035e68      0x3a0 /home/jongja.cho/Git/legacy/rebel_cds_collab_hw/bootloader/cp/tf-a/build/rebel_h/debug/bl2/hbm3_init.o
                0x0000001e00035e68                phy_read_vref_training_LFSR_vertical
 .text.phy_prbs_read_training
                0x0000001e00036208      0x164 /home/jongja.cho/Git/legacy/rebel_cds_collab_hw/bootloader/cp/tf-a/build/rebel_h/debug/bl2/hbm3_init.o
                0x0000001e00036208                phy_prbs_read_training
 .text.phy_prbs_write_training
                0x0000001e0003636c      0x164 /home/jongja.cho/Git/legacy/rebel_cds_collab_hw/bootloader/cp/tf-a/build/rebel_h/debug/bl2/hbm3_init.o
                0x0000001e0003636c                phy_prbs_write_training
 .text.phy_wdqs2ck_training
                0x0000001e000364d0       0xb4 /home/jongja.cho/Git/legacy/rebel_cds_collab_hw/bootloader/cp/tf-a/build/rebel_h/debug/bl2/hbm3_init.o
                0x0000001e000364d0                phy_wdqs2ck_training
 .text.phy_prbs_training
                0x0000001e00036584       0xa4 /home/jongja.cho/Git/legacy/rebel_cds_collab_hw/bootloader/cp/tf-a/build/rebel_h/debug/bl2/hbm3_init.o
                0x0000001e00036584                phy_prbs_training
 .text.phy_recv_offset_calibration
                0x0000001e00036628      0x7f8 /home/jongja.cho/Git/legacy/rebel_cds_collab_hw/bootloader/cp/tf-a/build/rebel_h/debug/bl2/hbm3_init.o
                0x0000001e00036628                phy_recv_offset_calibration
 .text.phy_command_training
                0x0000001e00036e20      0x768 /home/jongja.cho/Git/legacy/rebel_cds_collab_hw/bootloader/cp/tf-a/build/rebel_h/debug/bl2/hbm3_init.o
                0x0000001e00036e20                phy_command_training
 .text.phy_rx_io_setting
                0x0000001e00037588       0x78 /home/jongja.cho/Git/legacy/rebel_cds_collab_hw/bootloader/cp/tf-a/build/rebel_h/debug/bl2/hbm3_init.o
                0x0000001e00037588                phy_rx_io_setting
 .text.phy_dca_training
                0x0000001e00037600      0x18c /home/jongja.cho/Git/legacy/rebel_cds_collab_hw/bootloader/cp/tf-a/build/rebel_h/debug/bl2/hbm3_init.o
                0x0000001e00037600                phy_dca_training
 .text.phy_dcm_init
                0x0000001e0003778c      0x26c /home/jongja.cho/Git/legacy/rebel_cds_collab_hw/bootloader/cp/tf-a/build/rebel_h/debug/bl2/hbm3_init.o
                0x0000001e0003778c                phy_dcm_init
 .text.phy_training_all
                0x0000001e000379f8       0xa0 /home/jongja.cho/Git/legacy/rebel_cds_collab_hw/bootloader/cp/tf-a/build/rebel_h/debug/bl2/hbm3_init.o
                0x0000001e000379f8                phy_training_all
 .text.hbm3_phy_training_step2
                0x0000001e00037a98      0x194 /home/jongja.cho/Git/legacy/rebel_cds_collab_hw/bootloader/cp/tf-a/build/rebel_h/debug/bl2/hbm3_init.o
                0x0000001e00037a98                hbm3_phy_training_step2
 .text.hbm3_phy_training_step1
                0x0000001e00037c2c       0x50 /home/jongja.cho/Git/legacy/rebel_cds_collab_hw/bootloader/cp/tf-a/build/rebel_h/debug/bl2/hbm3_init.o
                0x0000001e00037c2c                hbm3_phy_training_step1
 .text.hbm3_phy_training_evt0
                0x0000001e00037c7c      0x170 /home/jongja.cho/Git/legacy/rebel_cds_collab_hw/bootloader/cp/tf-a/build/rebel_h/debug/bl2/hbm3_init.o
                0x0000001e00037c7c                hbm3_phy_training_evt0
 .text.hbm3_phy_training_evt1
                0x0000001e00037dec      0x148 /home/jongja.cho/Git/legacy/rebel_cds_collab_hw/bootloader/cp/tf-a/build/rebel_h/debug/bl2/hbm3_init.o
                0x0000001e00037dec                hbm3_phy_training_evt1
 .text.set_errata_tmrs
                0x0000001e00037f34      0x114 /home/jongja.cho/Git/legacy/rebel_cds_collab_hw/bootloader/cp/tf-a/build/rebel_h/debug/bl2/hbm3_init.o
                0x0000001e00037f34                set_errata_tmrs
 .text.hbm3_ctrl_phy_init
                0x0000001e00038048      0x3ac /home/jongja.cho/Git/legacy/rebel_cds_collab_hw/bootloader/cp/tf-a/build/rebel_h/debug/bl2/hbm3_init.o
                0x0000001e00038048                hbm3_ctrl_phy_init
 .text.hbm_ecc_scrub_init
                0x0000001e000383f4       0x44 /home/jongja.cho/Git/legacy/rebel_cds_collab_hw/bootloader/cp/tf-a/build/rebel_h/debug/bl2/hbm3_init.o
                0x0000001e000383f4                hbm_ecc_scrub_init
 .text.hbm3_run_phy_training
                0x0000001e00038438      0x10c /home/jongja.cho/Git/legacy/rebel_cds_collab_hw/bootloader/cp/tf-a/build/rebel_h/debug/bl2/hbm3_init.o
                0x0000001e00038438                hbm3_run_phy_training
 .text.hbm3_init
                0x0000001e00038544      0x478 /home/jongja.cho/Git/legacy/rebel_cds_collab_hw/bootloader/cp/tf-a/build/rebel_h/debug/bl2/hbm3_init.o
                0x0000001e00038544                hbm3_init
 .text.is_valid_dev
                0x0000001e000389bc       0x38 /home/jongja.cho/Git/legacy/rebel_cds_collab_hw/bootloader/cp/tf-a/build/rebel_h/debug/bl2/io_storage.o
 .text.is_valid_entity
                0x0000001e000389f4       0x30 /home/jongja.cho/Git/legacy/rebel_cds_collab_hw/bootloader/cp/tf-a/build/rebel_h/debug/bl2/io_storage.o
 .text.free_entity.isra.0
                0x0000001e00038a24       0x50 /home/jongja.cho/Git/legacy/rebel_cds_collab_hw/bootloader/cp/tf-a/build/rebel_h/debug/bl2/io_storage.o
 .text.io_dev_close
                0x0000001e00038a74       0x50 /home/jongja.cho/Git/legacy/rebel_cds_collab_hw/bootloader/cp/tf-a/build/rebel_h/debug/bl2/io_storage.o
                0x0000001e00038a74                io_dev_close
 .text.io_open  0x0000001e00038ac4       0xe4 /home/jongja.cho/Git/legacy/rebel_cds_collab_hw/bootloader/cp/tf-a/build/rebel_h/debug/bl2/io_storage.o
                0x0000001e00038ac4                io_open
 .text.io_size  0x0000001e00038ba8       0x5c /home/jongja.cho/Git/legacy/rebel_cds_collab_hw/bootloader/cp/tf-a/build/rebel_h/debug/bl2/io_storage.o
                0x0000001e00038ba8                io_size
 .text.io_read  0x0000001e00038c04       0x74 /home/jongja.cho/Git/legacy/rebel_cds_collab_hw/bootloader/cp/tf-a/build/rebel_h/debug/bl2/io_storage.o
                0x0000001e00038c04                io_read
 .text.io_close
                0x0000001e00038c78       0x58 /home/jongja.cho/Git/legacy/rebel_cds_collab_hw/bootloader/cp/tf-a/build/rebel_h/debug/bl2/io_storage.o
                0x0000001e00038c78                io_close
 .text.ipm_samsung_write
                0x0000001e00038cd0       0x78 /home/jongja.cho/Git/legacy/rebel_cds_collab_hw/bootloader/cp/tf-a/build/rebel_h/debug/bl2/mailbox.o
                0x0000001e00038cd0                ipm_samsung_write
 .text.ipm_samsung_send
                0x0000001e00038d48       0x4c /home/jongja.cho/Git/legacy/rebel_cds_collab_hw/bootloader/cp/tf-a/build/rebel_h/debug/bl2/mailbox.o
                0x0000001e00038d48                ipm_samsung_send
 .text.parse_gpt_entry
                0x0000001e00038d94      0x104 /home/jongja.cho/Git/legacy/rebel_cds_collab_hw/bootloader/cp/tf-a/build/rebel_h/debug/bl2/gpt.o
                0x0000001e00038d94                parse_gpt_entry
 .text.gpt_32bit_memcpy
                0x0000001e00038e98       0x24 /home/jongja.cho/Git/legacy/rebel_cds_collab_hw/bootloader/cp/tf-a/build/rebel_h/debug/bl2/partition_simple.o
                0x0000001e00038e98                gpt_32bit_memcpy
 .text.gpt_get_image_header
                0x0000001e00038ebc       0x18 /home/jongja.cho/Git/legacy/rebel_cds_collab_hw/bootloader/cp/tf-a/build/rebel_h/debug/bl2/partition_simple.o
                0x0000001e00038ebc                gpt_get_image_header
 .text.gpt_set_gpt_image_addr
                0x0000001e00038ed4       0x28 /home/jongja.cho/Git/legacy/rebel_cds_collab_hw/bootloader/cp/tf-a/build/rebel_h/debug/bl2/partition_simple.o
                0x0000001e00038ed4                gpt_set_gpt_image_addr
 .text.load_gpt_entry
                0x0000001e00038efc       0x28 /home/jongja.cho/Git/legacy/rebel_cds_collab_hw/bootloader/cp/tf-a/build/rebel_h/debug/bl2/partition_simple.o
                0x0000001e00038efc                load_gpt_entry
 .text.load_partition_gpt
                0x0000001e00038f24       0xb0 /home/jongja.cho/Git/legacy/rebel_cds_collab_hw/bootloader/cp/tf-a/build/rebel_h/debug/bl2/partition_simple.o
                0x0000001e00038f24                load_partition_gpt
 .text.load_gpt_header
                0x0000001e00038fd4       0xa8 /home/jongja.cho/Git/legacy/rebel_cds_collab_hw/bootloader/cp/tf-a/build/rebel_h/debug/bl2/partition_simple.o
                0x0000001e00038fd4                load_gpt_header
 .text.load_primary_gpt
                0x0000001e0003907c       0x40 /home/jongja.cho/Git/legacy/rebel_cds_collab_hw/bootloader/cp/tf-a/build/rebel_h/debug/bl2/partition_simple.o
                0x0000001e0003907c                load_primary_gpt
 .text.load_mbr_header
                0x0000001e000390bc       0xd0 /home/jongja.cho/Git/legacy/rebel_cds_collab_hw/bootloader/cp/tf-a/build/rebel_h/debug/bl2/partition_simple.o
                0x0000001e000390bc                load_mbr_header
 .text.load_partition_table
                0x0000001e0003918c       0x70 /home/jongja.cho/Git/legacy/rebel_cds_collab_hw/bootloader/cp/tf-a/build/rebel_h/debug/bl2/partition_simple.o
                0x0000001e0003918c                load_partition_table
 .text.gpt_load_binary_length
                0x0000001e000391fc       0x40 /home/jongja.cho/Git/legacy/rebel_cds_collab_hw/bootloader/cp/tf-a/build/rebel_h/debug/bl2/partition_simple.o
                0x0000001e000391fc                gpt_load_binary_length
 .text.gpt_get_address_by_entry
                0x0000001e0003923c       0x2c /home/jongja.cho/Git/legacy/rebel_cds_collab_hw/bootloader/cp/tf-a/build/rebel_h/debug/bl2/partition_simple.o
                0x0000001e0003923c                gpt_get_address_by_entry
 .text.gpt_get_length_by_entry
                0x0000001e00039268       0x10 /home/jongja.cho/Git/legacy/rebel_cds_collab_hw/bootloader/cp/tf-a/build/rebel_h/debug/bl2/partition_simple.o
                0x0000001e00039268                gpt_get_length_by_entry
 .text.gpt_partition_init
                0x0000001e00039278       0x58 /home/jongja.cho/Git/legacy/rebel_cds_collab_hw/bootloader/cp/tf-a/build/rebel_h/debug/bl2/partition_simple.o
                0x0000001e00039278                gpt_partition_init
 .text.smmu_gen_pagetable
                0x0000001e000392d0      0x544 /home/jongja.cho/Git/legacy/rebel_cds_collab_hw/bootloader/cp/tf-a/build/rebel_h/debug/bl2/smmu.o
 .text.smmu_early_init
                0x0000001e00039814      0x3b4 /home/jongja.cho/Git/legacy/rebel_cds_collab_hw/bootloader/cp/tf-a/build/rebel_h/debug/bl2/smmu.o
                0x0000001e00039814                smmu_early_init
 .text.poll_reg_same_val.constprop.0.isra.0
                0x0000001e00039bc8       0x2c /home/jongja.cho/Git/legacy/rebel_cds_collab_hw/bootloader/cp/tf-a/build/rebel_h/debug/bl2/sic.o
 .text.request_to_cmrt
                0x0000001e00039bf4       0xf8 /home/jongja.cho/Git/legacy/rebel_cds_collab_hw/bootloader/cp/tf-a/build/rebel_h/debug/bl2/sic.o
                0x0000001e00039bf4                request_to_cmrt
 .text.xlat_arch_get_pas
                0x0000001e00039cec       0x14 /home/jongja.cho/Git/legacy/rebel_cds_collab_hw/bootloader/cp/tf-a/build/rebel_h/debug/bl2/xlat_tables_arch.o
                0x0000001e00039cec                xlat_arch_get_pas
 .text.tcr_physical_addr_size_bits
                0x0000001e00039d00       0x64 /home/jongja.cho/Git/legacy/rebel_cds_collab_hw/bootloader/cp/tf-a/build/rebel_h/debug/bl2/xlat_tables_arch.o
                0x0000001e00039d00                tcr_physical_addr_size_bits
 .text.xlat_arch_get_max_supported_pa
                0x0000001e00039d64       0x34 /home/jongja.cho/Git/legacy/rebel_cds_collab_hw/bootloader/cp/tf-a/build/rebel_h/debug/bl2/xlat_tables_arch.o
                0x0000001e00039d64                xlat_arch_get_max_supported_pa
 .text.xlat_get_min_virt_addr_space_size
                0x0000001e00039d98       0x18 /home/jongja.cho/Git/legacy/rebel_cds_collab_hw/bootloader/cp/tf-a/build/rebel_h/debug/bl2/xlat_tables_arch.o
                0x0000001e00039d98                xlat_get_min_virt_addr_space_size
 .text.xlat_arch_regime_get_xn_desc
                0x0000001e00039db0       0x2c /home/jongja.cho/Git/legacy/rebel_cds_collab_hw/bootloader/cp/tf-a/build/rebel_h/debug/bl2/xlat_tables_arch.o
                0x0000001e00039db0                xlat_arch_regime_get_xn_desc
 .text.xlat_arch_current_el
                0x0000001e00039ddc       0x1c /home/jongja.cho/Git/legacy/rebel_cds_collab_hw/bootloader/cp/tf-a/build/rebel_h/debug/bl2/xlat_tables_arch.o
                0x0000001e00039ddc                xlat_arch_current_el
 .text.is_mmu_enabled_ctx
                0x0000001e00039df8       0x68 /home/jongja.cho/Git/legacy/rebel_cds_collab_hw/bootloader/cp/tf-a/build/rebel_h/debug/bl2/xlat_tables_arch.o
                0x0000001e00039df8                is_mmu_enabled_ctx
 .text.setup_mmu_cfg
                0x0000001e00039e60       0xe0 /home/jongja.cho/Git/legacy/rebel_cds_collab_hw/bootloader/cp/tf-a/build/rebel_h/debug/bl2/xlat_tables_arch.o
                0x0000001e00039e60                setup_mmu_cfg
 .text.mmap_add_region
                0x0000001e00039f40       0x34 /home/jongja.cho/Git/legacy/rebel_cds_collab_hw/bootloader/cp/tf-a/build/rebel_h/debug/bl2/xlat_tables_context.o
                0x0000001e00039f40                mmap_add_region
 .text.init_xlat_tables
                0x0000001e00039f74       0x54 /home/jongja.cho/Git/legacy/rebel_cds_collab_hw/bootloader/cp/tf-a/build/rebel_h/debug/bl2/xlat_tables_context.o
                0x0000001e00039f74                init_xlat_tables
 .text.enable_mmu_el1
                0x0000001e00039fc8       0x48 /home/jongja.cho/Git/legacy/rebel_cds_collab_hw/bootloader/cp/tf-a/build/rebel_h/debug/bl2/xlat_tables_context.o
                0x0000001e00039fc8                enable_mmu_el1
 .text.xlat_desc
                0x0000001e0003a010      0x120 /home/jongja.cho/Git/legacy/rebel_cds_collab_hw/bootloader/cp/tf-a/build/rebel_h/debug/bl2/xlat_tables_core.o
                0x0000001e0003a010                xlat_desc
 .text.xlat_tables_map_region
                0x0000001e0003a130      0x20c /home/jongja.cho/Git/legacy/rebel_cds_collab_hw/bootloader/cp/tf-a/build/rebel_h/debug/bl2/xlat_tables_core.o
 .text.mmap_add_region_ctx
                0x0000001e0003a33c      0x23c /home/jongja.cho/Git/legacy/rebel_cds_collab_hw/bootloader/cp/tf-a/build/rebel_h/debug/bl2/xlat_tables_core.o
                0x0000001e0003a33c                mmap_add_region_ctx
 .text.init_xlat_tables_ctx
                0x0000001e0003a578      0x15c /home/jongja.cho/Git/legacy/rebel_cds_collab_hw/bootloader/cp/tf-a/build/rebel_h/debug/bl2/xlat_tables_core.o
                0x0000001e0003a578                init_xlat_tables_ctx
 .text.xlat_mmap_print
                0x0000001e0003a6d4        0x4 /home/jongja.cho/Git/legacy/rebel_cds_collab_hw/bootloader/cp/tf-a/build/rebel_h/debug/bl2/xlat_tables_utils.o
                0x0000001e0003a6d4                xlat_mmap_print
 .text.xlat_tables_print
                0x0000001e0003a6d8        0x4 /home/jongja.cho/Git/legacy/rebel_cds_collab_hw/bootloader/cp/tf-a/build/rebel_h/debug/bl2/xlat_tables_utils.o
                0x0000001e0003a6d8                xlat_tables_print
 .text.get_el_str
                0x0000001e0003a6dc       0x24 /home/jongja.cho/Git/legacy/rebel_cds_collab_hw/bootloader/cp/tf-a/build/rebel_h/debug/bl2/plat_common.o
                0x0000001e0003a6dc                get_el_str
 .text.plat_error_handler
                0x0000001e0003a700        0x8 /home/jongja.cho/Git/legacy/rebel_cds_collab_hw/bootloader/cp/tf-a/build/rebel_h/debug/bl2/plat_bl_common.o
                0x0000001e0003a700                plat_error_handler
 .text.bl2_plat_preload_setup
                0x0000001e0003a708        0x4 /home/jongja.cho/Git/legacy/rebel_cds_collab_hw/bootloader/cp/tf-a/build/rebel_h/debug/bl2/plat_bl_common.o
                0x0000001e0003a708                bl2_plat_preload_setup
 .text.bl2_plat_handle_pre_image_load
                0x0000001e0003a70c        0x8 /home/jongja.cho/Git/legacy/rebel_cds_collab_hw/bootloader/cp/tf-a/build/rebel_h/debug/bl2/plat_bl_common.o
                0x0000001e0003a70c                bl2_plat_handle_pre_image_load
 .text.bl2_plat_handle_post_image_load
                0x0000001e0003a714        0x8 /home/jongja.cho/Git/legacy/rebel_cds_collab_hw/bootloader/cp/tf-a/build/rebel_h/debug/bl2/plat_bl_common.o
                0x0000001e0003a714                bl2_plat_handle_post_image_load
 .text.plat_log_get_prefix
                0x0000001e0003a71c       0x30 /home/jongja.cho/Git/legacy/rebel_cds_collab_hw/bootloader/cp/tf-a/build/rebel_h/debug/bl2/plat_log_common.o
                0x0000001e0003a71c                plat_log_get_prefix
 .text.bl2_plat_arch_setup
                0x0000001e0003a74c      0x130 /home/jongja.cho/Git/legacy/rebel_cds_collab_hw/bootloader/cp/tf-a/build/rebel_h/debug/bl2/rebel_h_bl2_setup.o
                0x0000001e0003a74c                bl2_plat_arch_setup
 .text.tzpc_init_sysreg_bl2
                0x0000001e0003a87c       0x90 /home/jongja.cho/Git/legacy/rebel_cds_collab_hw/bootloader/cp/tf-a/build/rebel_h/debug/bl2/rebel_h_bl2_setup.o
                0x0000001e0003a87c                tzpc_init_sysreg_bl2
 .text.bl2_early_platform_setup2
                0x0000001e0003a90c      0x6d8 /home/jongja.cho/Git/legacy/rebel_cds_collab_hw/bootloader/cp/tf-a/build/rebel_h/debug/bl2/rebel_h_bl2_setup.o
                0x0000001e0003a90c                bl2_early_platform_setup2
 .text.bl2_platform_setup
                0x0000001e0003afe4        0x4 /home/jongja.cho/Git/legacy/rebel_cds_collab_hw/bootloader/cp/tf-a/build/rebel_h/debug/bl2/rebel_h_bl2_setup.o
                0x0000001e0003afe4                bl2_platform_setup
 .text.plat_get_syscnt_freq2
                0x0000001e0003afe8        0xc /home/jongja.cho/Git/legacy/rebel_cds_collab_hw/bootloader/cp/tf-a/build/rebel_h/debug/bl2/rebel_h_bl2_setup.o
                0x0000001e0003afe8                plat_get_syscnt_freq2
 .text.plat_flush_next_bl_params
                0x0000001e0003aff4        0x4 /home/jongja.cho/Git/legacy/rebel_cds_collab_hw/bootloader/cp/tf-a/build/rebel_h/debug/bl2/rebel_h_image_load.o
                0x0000001e0003aff4                plat_flush_next_bl_params
 .text.plat_get_bl_image_load_info
                0x0000001e0003aff8        0x4 /home/jongja.cho/Git/legacy/rebel_cds_collab_hw/bootloader/cp/tf-a/build/rebel_h/debug/bl2/rebel_h_image_load.o
                0x0000001e0003aff8                plat_get_bl_image_load_info
 .text.plat_get_next_bl_params
                0x0000001e0003affc        0x4 /home/jongja.cho/Git/legacy/rebel_cds_collab_hw/bootloader/cp/tf-a/build/rebel_h/debug/bl2/rebel_h_image_load.o
                0x0000001e0003affc                plat_get_next_bl_params
 .text.plat_set_cpu_rvbar
                0x0000001e0003b000       0x30 /home/jongja.cho/Git/legacy/rebel_cds_collab_hw/bootloader/cp/tf-a/build/rebel_h/debug/bl2/rebel_h_plat.o
                0x0000001e0003b000                plat_set_cpu_rvbar
 .text.plat_pmu_cl_on
                0x0000001e0003b030       0x38 /home/jongja.cho/Git/legacy/rebel_cds_collab_hw/bootloader/cp/tf-a/build/rebel_h/debug/bl2/rebel_h_plat.o
                0x0000001e0003b030                plat_pmu_cl_on
 .text.plat_pmu_cpu_on
                0x0000001e0003b068       0x40 /home/jongja.cho/Git/legacy/rebel_cds_collab_hw/bootloader/cp/tf-a/build/rebel_h/debug/bl2/rebel_h_plat.o
                0x0000001e0003b068                plat_pmu_cpu_on
 .text.plat_set_secondary_chiplet_cnt
                0x0000001e0003b0a8       0x18 /home/jongja.cho/Git/legacy/rebel_cds_collab_hw/bootloader/cp/tf-a/build/rebel_h/debug/bl2/rebel_h_plat.o
                0x0000001e0003b0a8                plat_set_secondary_chiplet_cnt
 .text.pmu_get_bootmode
                0x0000001e0003b0c0       0x10 /home/jongja.cho/Git/legacy/rebel_cds_collab_hw/bootloader/cp/tf-a/build/rebel_h/debug/bl2/rebel_h_pmu.o
                0x0000001e0003b0c0                pmu_get_bootmode
 .text.pmu_reset_blk_dram
                0x0000001e0003b0d0       0x8c /home/jongja.cho/Git/legacy/rebel_cds_collab_hw/bootloader/cp/tf-a/build/rebel_h/debug/bl2/rebel_h_pmu.o
                0x0000001e0003b0d0                pmu_reset_blk_dram
 .text.plat_core_pos_by_mpidr
                0x0000001e0003b15c       0x3c /home/jongja.cho/Git/legacy/rebel_cds_collab_hw/bootloader/cp/tf-a/build/rebel_h/debug/bl2/rebel_h_topology.o
                0x0000001e0003b15c                plat_core_pos_by_mpidr
 .text.asm.asm_assert
                0x0000001e0003b198        0x8 /home/jongja.cho/Git/legacy/rebel_cds_collab_hw/bootloader/cp/tf-a/build/rebel_h/debug/bl2/debug.o
                0x0000001e0003b198                asm_assert
 .text.asm.asm_print_str
                0x0000001e0003b1a0       0x18 /home/jongja.cho/Git/legacy/rebel_cds_collab_hw/bootloader/cp/tf-a/build/rebel_h/debug/bl2/debug.o
                0x0000001e0003b1a0                asm_print_str
 .text.asm.asm_print_hex
                0x0000001e0003b1b8       0x30 /home/jongja.cho/Git/legacy/rebel_cds_collab_hw/bootloader/cp/tf-a/build/rebel_h/debug/bl2/debug.o
                0x0000001e0003b1b8                asm_print_hex
                0x0000001e0003b1bc                asm_print_hex_bits
 .text.asm.asm_print_newline
                0x0000001e0003b1e8        0x8 /home/jongja.cho/Git/legacy/rebel_cds_collab_hw/bootloader/cp/tf-a/build/rebel_h/debug/bl2/debug.o
                0x0000001e0003b1e8                asm_print_newline
 .text.asm.el3_panic
                0x0000001e0003b1f0       0x30 /home/jongja.cho/Git/legacy/rebel_cds_collab_hw/bootloader/cp/tf-a/build/rebel_h/debug/bl2/debug.o
                0x0000001e0003b1f0                el3_panic
 .text.asm.console_16550_core_init
                0x0000001e0003b220       0x70 /home/jongja.cho/Git/legacy/rebel_cds_collab_hw/bootloader/cp/tf-a/build/rebel_h/debug/bl2/16550_console.o
                0x0000001e0003b220                console_16550_core_init
 .text.asm.console_16550_register
                0x0000001e0003b290       0x4c /home/jongja.cho/Git/legacy/rebel_cds_collab_hw/bootloader/cp/tf-a/build/rebel_h/debug/bl2/16550_console.o
                0x0000001e0003b290                console_16550_register
 .text.asm.console_16550_core_putc
                0x0000001e0003b2dc       0x4c /home/jongja.cho/Git/legacy/rebel_cds_collab_hw/bootloader/cp/tf-a/build/rebel_h/debug/bl2/16550_console.o
                0x0000001e0003b2dc                console_16550_core_putc
 .text.asm.console_16550_putc
                0x0000001e0003b328       0x1c /home/jongja.cho/Git/legacy/rebel_cds_collab_hw/bootloader/cp/tf-a/build/rebel_h/debug/bl2/16550_console.o
                0x0000001e0003b328                console_16550_putc
 .text.asm.console_16550_core_flush
                0x0000001e0003b344       0x28 /home/jongja.cho/Git/legacy/rebel_cds_collab_hw/bootloader/cp/tf-a/build/rebel_h/debug/bl2/16550_console.o
                0x0000001e0003b344                console_16550_core_flush
 .text.asm.console_16550_flush
                0x0000001e0003b36c       0x1c /home/jongja.cho/Git/legacy/rebel_cds_collab_hw/bootloader/cp/tf-a/build/rebel_h/debug/bl2/16550_console.o
                0x0000001e0003b36c                console_16550_flush
 .text.asm.flush_dcache_range
                0x0000001e0003b388       0x38 /home/jongja.cho/Git/legacy/rebel_cds_collab_hw/bootloader/cp/tf-a/build/rebel_h/debug/bl2/cache_helpers.o
                0x0000001e0003b388                flush_dcache_range
 .text.asm.inv_dcache_range
                0x0000001e0003b3c0       0x38 /home/jongja.cho/Git/legacy/rebel_cds_collab_hw/bootloader/cp/tf-a/build/rebel_h/debug/bl2/cache_helpers.o
                0x0000001e0003b3c0                inv_dcache_range
 .text.asm.smc  0x0000001e0003b3f8        0x4 /home/jongja.cho/Git/legacy/rebel_cds_collab_hw/bootloader/cp/tf-a/build/rebel_h/debug/bl2/misc_helpers.o
                0x0000001e0003b3f8                smc
 .text.asm.zeromem
                0x0000001e0003b3fc        0x8 /home/jongja.cho/Git/legacy/rebel_cds_collab_hw/bootloader/cp/tf-a/build/rebel_h/debug/bl2/misc_helpers.o
                0x0000001e0003b3fc                zeromem
 .text.asm.zeromem_dczva
                0x0000001e0003b404      0x114 /home/jongja.cho/Git/legacy/rebel_cds_collab_hw/bootloader/cp/tf-a/build/rebel_h/debug/bl2/misc_helpers.o
                0x0000001e0003b404                zero_normalmem
 .text.asm.enable_mmu_direct_el1
                0x0000001e0003b518       0x70 /home/jongja.cho/Git/legacy/rebel_cds_collab_hw/bootloader/cp/tf-a/build/rebel_h/debug/bl2/enable_mmu.o
                0x0000001e0003b518                enable_mmu_direct_el1
 .text.asm.plat_report_exception
                0x0000001e0003b588        0x4 /home/jongja.cho/Git/legacy/rebel_cds_collab_hw/bootloader/cp/tf-a/build/rebel_h/debug/bl2/platform_helpers.o
                0x0000001e0003b588                plat_report_exception
 .text.asm.plat_panic_handler
                0x0000001e0003b58c        0x8 /home/jongja.cho/Git/legacy/rebel_cds_collab_hw/bootloader/cp/tf-a/build/rebel_h/debug/bl2/platform_helpers.o
                0x0000001e0003b58c                plat_panic_handler
 .text.asm.plat_get_my_stack
                0x0000001e0003b594       0x1c /home/jongja.cho/Git/legacy/rebel_cds_collab_hw/bootloader/cp/tf-a/build/rebel_h/debug/bl2/platform_mp_stack.o
                0x0000001e0003b594                plat_get_my_stack
 .text.asm.plat_set_my_stack
                0x0000001e0003b5b0       0x10 /home/jongja.cho/Git/legacy/rebel_cds_collab_hw/bootloader/cp/tf-a/build/rebel_h/debug/bl2/platform_mp_stack.o
                0x0000001e0003b5b0                plat_set_my_stack
 .text.asm.plat_my_core_pos
                0x0000001e0003b5c0        0x8 /home/jongja.cho/Git/legacy/rebel_cds_collab_hw/bootloader/cp/tf-a/build/rebel_h/debug/bl2/plat_helper.o
                0x0000001e0003b5c0                plat_my_core_pos
 .text.asm.plat_get_image_source
                0x0000001e0003b5c8        0x0 /home/jongja.cho/Git/legacy/rebel_cds_collab_hw/bootloader/cp/tf-a/build/rebel_h/debug/bl2/plat_helper.o
                0x0000001e0003b5c8                plat_get_image_source
 .text.asm.plat_crash_console_init
                0x0000001e0003b5c8       0x20 /home/jongja.cho/Git/legacy/rebel_cds_collab_hw/bootloader/cp/tf-a/build/rebel_h/debug/bl2/plat_helper.o
                0x0000001e0003b5c8                plat_crash_console_init
 .text.asm.plat_crash_console_putc
                0x0000001e0003b5e8        0xc /home/jongja.cho/Git/legacy/rebel_cds_collab_hw/bootloader/cp/tf-a/build/rebel_h/debug/bl2/plat_helper.o
                0x0000001e0003b5e8                plat_crash_console_putc
 .text.asm.plat_crash_console_flush
                0x0000001e0003b5f4        0xc /home/jongja.cho/Git/legacy/rebel_cds_collab_hw/bootloader/cp/tf-a/build/rebel_h/debug/bl2/plat_helper.o
                0x0000001e0003b5f4                plat_crash_console_flush
 .text.__assert
                0x0000001e0003b600       0x1c /home/jongja.cho/Git/legacy/rebel_cds_collab_hw/bootloader/cp/tf-a/build/rebel_h/debug/lib/libc.a(assert.o)
                0x0000001e0003b600                __assert
 .text.memcpy   0x0000001e0003b61c       0x20 /home/jongja.cho/Git/legacy/rebel_cds_collab_hw/bootloader/cp/tf-a/build/rebel_h/debug/lib/libc.a(memcpy.o)
                0x0000001e0003b61c                memcpy
 .text.memmove  0x0000001e0003b63c       0x34 /home/jongja.cho/Git/legacy/rebel_cds_collab_hw/bootloader/cp/tf-a/build/rebel_h/debug/lib/libc.a(memmove.o)
                0x0000001e0003b63c                memmove
 .text.unsigned_num_print.part.0
                0x0000001e0003b670       0xf4 /home/jongja.cho/Git/legacy/rebel_cds_collab_hw/bootloader/cp/tf-a/build/rebel_h/debug/lib/libc.a(printf.o)
 .text.vprintf  0x0000001e0003b764      0x4a8 /home/jongja.cho/Git/legacy/rebel_cds_collab_hw/bootloader/cp/tf-a/build/rebel_h/debug/lib/libc.a(printf.o)
                0x0000001e0003b764                vprintf
 .text.printf   0x0000001e0003bc0c       0x54 /home/jongja.cho/Git/legacy/rebel_cds_collab_hw/bootloader/cp/tf-a/build/rebel_h/debug/lib/libc.a(printf.o)
                0x0000001e0003bc0c                printf
 .text.unsigned_num_print
                0x0000001e0003bc60      0x130 /home/jongja.cho/Git/legacy/rebel_cds_collab_hw/bootloader/cp/tf-a/build/rebel_h/debug/lib/libc.a(snprintf.o)
 .text.vsnprintf
                0x0000001e0003bd90      0x554 /home/jongja.cho/Git/legacy/rebel_cds_collab_hw/bootloader/cp/tf-a/build/rebel_h/debug/lib/libc.a(snprintf.o)
                0x0000001e0003bd90                vsnprintf
 .text.snprintf
                0x0000001e0003c2e4       0x50 /home/jongja.cho/Git/legacy/rebel_cds_collab_hw/bootloader/cp/tf-a/build/rebel_h/debug/lib/libc.a(snprintf.o)
                0x0000001e0003c2e4                snprintf
 .text.strlen   0x0000001e0003c334       0x1c /home/jongja.cho/Git/legacy/rebel_cds_collab_hw/bootloader/cp/tf-a/build/rebel_h/debug/lib/libc.a(strlen.o)
                0x0000001e0003c334                strlen
 .text.strncmp  0x0000001e0003c350       0x38 /home/jongja.cho/Git/legacy/rebel_cds_collab_hw/bootloader/cp/tf-a/build/rebel_h/debug/lib/libc.a(strncmp.o)
                0x0000001e0003c350                strncmp
 .text.memset   0x0000001e0003c388       0x74 /home/jongja.cho/Git/legacy/rebel_cds_collab_hw/bootloader/cp/tf-a/build/rebel_h/debug/lib/libc.a(memset.o)
                0x0000001e0003c388                memset
 *(SORT_BY_ALIGNMENT(.rodata*))
 *fill*         0x0000001e0003c3fc        0x4 
 .rodata.old_lotid
                0x0000001e0003c400       0x18 /home/jongja.cho/Git/legacy/rebel_cds_collab_hw/bootloader/cp/tf-a/build/rebel_h/debug/bl2/hbm3_chipid.o
 .rodata.mailbox_data
                0x0000001e0003c418       0xf0 /home/jongja.cho/Git/legacy/rebel_cds_collab_hw/bootloader/cp/tf-a/build/rebel_h/debug/bl2/mailbox.o
 .rodata.CSWTCH.3
                0x0000001e0003c508       0x20 /home/jongja.cho/Git/legacy/rebel_cds_collab_hw/bootloader/cp/tf-a/build/rebel_h/debug/bl2/plat_common.o
 .rodata.plat_prefix_str
                0x0000001e0003c528       0x28 /home/jongja.cho/Git/legacy/rebel_cds_collab_hw/bootloader/cp/tf-a/build/rebel_h/debug/bl2/plat_log_common.o
 .rodata        0x0000001e0003c550       0xe4 /home/jongja.cho/Git/legacy/rebel_cds_collab_hw/bootloader/cp/tf-a/build/rebel_h/debug/bl2/icon.o
 .rodata.pll_table_f0435
                0x0000001e0003c634       0x64 /home/jongja.cho/Git/legacy/rebel_cds_collab_hw/bootloader/cp/tf-a/build/rebel_h/debug/bl2/cmu.o
 .rodata.pll_table_f0434
                0x0000001e0003c698       0xc8 /home/jongja.cho/Git/legacy/rebel_cds_collab_hw/bootloader/cp/tf-a/build/rebel_h/debug/bl2/cmu.o
 .rodata.hbm3_init
                0x0000001e0003c760       0x12 /home/jongja.cho/Git/legacy/rebel_cds_collab_hw/bootloader/cp/tf-a/build/rebel_h/debug/bl2/hbm3_init.o
 *fill*         0x0000001e0003c772        0x2 
 .rodata.pa_range_bits_arr
                0x0000001e0003c774       0x20 /home/jongja.cho/Git/legacy/rebel_cds_collab_hw/bootloader/cp/tf-a/build/rebel_h/debug/bl2/xlat_tables_arch.o
 .rodata.vprintf
                0x0000001e0003c794       0x30 /home/jongja.cho/Git/legacy/rebel_cds_collab_hw/bootloader/cp/tf-a/build/rebel_h/debug/lib/libc.a(printf.o)
 .rodata.vsnprintf
                0x0000001e0003c7c4       0x30 /home/jongja.cho/Git/legacy/rebel_cds_collab_hw/bootloader/cp/tf-a/build/rebel_h/debug/lib/libc.a(snprintf.o)
 .rodata.CSWTCH.192
                0x0000001e0003c7f4        0xa /home/jongja.cho/Git/legacy/rebel_cds_collab_hw/bootloader/cp/tf-a/build/rebel_h/debug/bl2/hbm3_init.o
 .rodata.icon_rx_lane_search.str1.1
                0x0000001e0003c7fe     0x113a /home/jongja.cho/Git/legacy/rebel_cds_collab_hw/bootloader/cp/tf-a/build/rebel_h/debug/bl2/icon.o
                                         0xa9 (size before relaxing)
 .rodata.icon_rx_extest.str1.1
                0x0000001e0003d938       0x3a /home/jongja.cho/Git/legacy/rebel_cds_collab_hw/bootloader/cp/tf-a/build/rebel_h/debug/bl2/icon.o
 .rodata.icon_tx_lane_search.str1.1
                0x0000001e0003d938       0x35 /home/jongja.cho/Git/legacy/rebel_cds_collab_hw/bootloader/cp/tf-a/build/rebel_h/debug/bl2/icon.o
 .rodata.icon_tx_extest.str1.1
                0x0000001e0003d938       0x19 /home/jongja.cho/Git/legacy/rebel_cds_collab_hw/bootloader/cp/tf-a/build/rebel_h/debug/bl2/icon.o
 .rodata.hbm3_lane_repair.str1.1
                0x0000001e0003d938       0x5a /home/jongja.cho/Git/legacy/rebel_cds_collab_hw/bootloader/cp/tf-a/build/rebel_h/debug/bl2/icon.o
 .rodata.bl2_load_images.str1.1
                0x0000001e0003d938       0xab /home/jongja.cho/Git/legacy/rebel_cds_collab_hw/bootloader/cp/tf-a/build/rebel_h/debug/bl2/bl2_image_load_v2.o
 .rodata.bl2_main.str1.1
                0x0000001e0003d938        0xa /home/jongja.cho/Git/legacy/rebel_cds_collab_hw/bootloader/cp/tf-a/build/rebel_h/debug/bl2/bl2_main.o
 .rodata.build_version_string
                0x0000001e0003d938       0x2e /home/jongja.cho/Git/legacy/rebel_cds_collab_hw/bootloader/cp/tf-a/build/rebel_h/debug/bl2/bl2_main.o
 .rodata.build_message
                0x0000001e0003d966       0x1e /home/jongja.cho/Git/legacy/rebel_cds_collab_hw/bootloader/cp/tf-a/build/rebel_h/debug/bl2/bl2_main.o
 .rodata.backtrace.str1.1
                0x0000001e0003d984       0xcd /home/jongja.cho/Git/legacy/rebel_cds_collab_hw/bootloader/cp/tf-a/build/rebel_h/debug/bl2/backtrace.o
 .rodata.load_image.str1.1
                0x0000001e0003d984       0xea /home/jongja.cho/Git/legacy/rebel_cds_collab_hw/bootloader/cp/tf-a/build/rebel_h/debug/bl2/bl_common.o
 .rodata.dma_start.str1.1
                0x0000001e0003d984       0x43 /home/jongja.cho/Git/legacy/rebel_cds_collab_hw/bootloader/cp/tf-a/build/rebel_h/debug/bl2/pl330.o
 .rodata.dma_load_image.str1.1
                0x0000001e0003d984       0x45 /home/jongja.cho/Git/legacy/rebel_cds_collab_hw/bootloader/cp/tf-a/build/rebel_h/debug/bl2/pl330.o
 .rodata.__func__.0
                0x0000001e0003d984        0xf /home/jongja.cho/Git/legacy/rebel_cds_collab_hw/bootloader/cp/tf-a/build/rebel_h/debug/bl2/pl330.o
 .rodata.get_lotid_for_hbm.str1.1
                0x0000001e0003d993        0xc /home/jongja.cho/Git/legacy/rebel_cds_collab_hw/bootloader/cp/tf-a/build/rebel_h/debug/bl2/hbm3_chipid.o
 .rodata.str1.1
                0x0000001e0003d993       0x12 /home/jongja.cho/Git/legacy/rebel_cds_collab_hw/bootloader/cp/tf-a/build/rebel_h/debug/bl2/hbm3_chipid.o
 .rodata.phy_find_read_training_fail_bit.str1.1
                0x0000001e0003d993      0x1d1 /home/jongja.cho/Git/legacy/rebel_cds_collab_hw/bootloader/cp/tf-a/build/rebel_h/debug/bl2/hbm3_init.o
 .rodata.phy_find_write_training_fail_bit.str1.1
                0x0000001e0003d993       0x47 /home/jongja.cho/Git/legacy/rebel_cds_collab_hw/bootloader/cp/tf-a/build/rebel_h/debug/bl2/hbm3_init.o
 .rodata.hbm3_dfi_init.str1.1
                0x0000001e0003d993       0x19 /home/jongja.cho/Git/legacy/rebel_cds_collab_hw/bootloader/cp/tf-a/build/rebel_h/debug/bl2/hbm3_init.o
 .rodata.get_read_latency.str1.1
                0x0000001e0003d993       0x13 /home/jongja.cho/Git/legacy/rebel_cds_collab_hw/bootloader/cp/tf-a/build/rebel_h/debug/bl2/hbm3_init.o
 .rodata.phy_read_training.str1.1
                0x0000001e0003d993       0x33 /home/jongja.cho/Git/legacy/rebel_cds_collab_hw/bootloader/cp/tf-a/build/rebel_h/debug/bl2/hbm3_init.o
 .rodata.phy_write_training.str1.1
                0x0000001e0003d993       0x23 /home/jongja.cho/Git/legacy/rebel_cds_collab_hw/bootloader/cp/tf-a/build/rebel_h/debug/bl2/hbm3_init.o
 .rodata.phy_read_training_LFSR.str1.1
                0x0000001e0003d993       0x43 /home/jongja.cho/Git/legacy/rebel_cds_collab_hw/bootloader/cp/tf-a/build/rebel_h/debug/bl2/hbm3_init.o
 .rodata.phy_write_training_LFSR.str1.1
                0x0000001e0003d993       0x44 /home/jongja.cho/Git/legacy/rebel_cds_collab_hw/bootloader/cp/tf-a/build/rebel_h/debug/bl2/hbm3_init.o
 .rodata.phy_read_vref_training_LFSR_vertical.str1.1
                0x0000001e0003d993      0x18f /home/jongja.cho/Git/legacy/rebel_cds_collab_hw/bootloader/cp/tf-a/build/rebel_h/debug/bl2/hbm3_init.o
 .rodata.phy_wdqs2ck_training.str1.1
                0x0000001e0003d993       0x30 /home/jongja.cho/Git/legacy/rebel_cds_collab_hw/bootloader/cp/tf-a/build/rebel_h/debug/bl2/hbm3_init.o
 .rodata.phy_prbs_training.str1.1
                0x0000001e0003d993       0xb9 /home/jongja.cho/Git/legacy/rebel_cds_collab_hw/bootloader/cp/tf-a/build/rebel_h/debug/bl2/hbm3_init.o
 .rodata.phy_dcm_init.str1.1
                0x0000001e0003d993       0x76 /home/jongja.cho/Git/legacy/rebel_cds_collab_hw/bootloader/cp/tf-a/build/rebel_h/debug/bl2/hbm3_init.o
 .rodata.set_errata_tmrs.str1.1
                0x0000001e0003d993       0x14 /home/jongja.cho/Git/legacy/rebel_cds_collab_hw/bootloader/cp/tf-a/build/rebel_h/debug/bl2/hbm3_init.o
 .rodata.hbm3_ctrl_phy_init.str1.1
                0x0000001e0003d993       0x10 /home/jongja.cho/Git/legacy/rebel_cds_collab_hw/bootloader/cp/tf-a/build/rebel_h/debug/bl2/hbm3_init.o
 .rodata.hbm3_init.str1.1
                0x0000001e0003d993      0x143 /home/jongja.cho/Git/legacy/rebel_cds_collab_hw/bootloader/cp/tf-a/build/rebel_h/debug/bl2/hbm3_init.o
 .rodata.parse_gpt_entry.str1.1
                0x0000001e0003d993       0x3e /home/jongja.cho/Git/legacy/rebel_cds_collab_hw/bootloader/cp/tf-a/build/rebel_h/debug/bl2/gpt.o
 .rodata.load_partition_gpt.str1.1
                0x0000001e0003d993       0x64 /home/jongja.cho/Git/legacy/rebel_cds_collab_hw/bootloader/cp/tf-a/build/rebel_h/debug/bl2/partition_simple.o
 .rodata.load_primary_gpt.str1.1
                0x0000001e0003d993       0x2e /home/jongja.cho/Git/legacy/rebel_cds_collab_hw/bootloader/cp/tf-a/build/rebel_h/debug/bl2/partition_simple.o
 .rodata.load_mbr_header.str1.1
                0x0000001e0003d993       0x8e /home/jongja.cho/Git/legacy/rebel_cds_collab_hw/bootloader/cp/tf-a/build/rebel_h/debug/bl2/partition_simple.o
 .rodata.load_partition_table.str1.1
                0x0000001e0003d993       0x57 /home/jongja.cho/Git/legacy/rebel_cds_collab_hw/bootloader/cp/tf-a/build/rebel_h/debug/bl2/partition_simple.o
 .rodata.gpt_partition_init.str1.1
                0x0000001e0003d993       0x26 /home/jongja.cho/Git/legacy/rebel_cds_collab_hw/bootloader/cp/tf-a/build/rebel_h/debug/bl2/partition_simple.o
 .rodata.mmap_add_region_ctx.str1.1
                0x0000001e0003d993       0x2b /home/jongja.cho/Git/legacy/rebel_cds_collab_hw/bootloader/cp/tf-a/build/rebel_h/debug/bl2/xlat_tables_core.o
 .rodata.init_xlat_tables_ctx.str1.1
                0x0000001e0003d993       0x4f /home/jongja.cho/Git/legacy/rebel_cds_collab_hw/bootloader/cp/tf-a/build/rebel_h/debug/bl2/xlat_tables_core.o
 .rodata.__func__.0
                0x0000001e0003d993       0x15 /home/jongja.cho/Git/legacy/rebel_cds_collab_hw/bootloader/cp/tf-a/build/rebel_h/debug/bl2/xlat_tables_core.o
 .rodata.str1.1
                0x0000001e0003d9a8       0x10 /home/jongja.cho/Git/legacy/rebel_cds_collab_hw/bootloader/cp/tf-a/build/rebel_h/debug/bl2/plat_common.o
 .rodata.str1.1
                0x0000001e0003d9a8       0x32 /home/jongja.cho/Git/legacy/rebel_cds_collab_hw/bootloader/cp/tf-a/build/rebel_h/debug/bl2/plat_log_common.o
 .rodata.bl2_early_platform_setup2.str1.1
                0x0000001e0003d9a8      0x250 /home/jongja.cho/Git/legacy/rebel_cds_collab_hw/bootloader/cp/tf-a/build/rebel_h/debug/bl2/rebel_h_bl2_setup.o
 .rodata.pmu_reset_blk_dram.str1.1
                0x0000001e0003d9a8       0x3b /home/jongja.cho/Git/legacy/rebel_cds_collab_hw/bootloader/cp/tf-a/build/rebel_h/debug/bl2/rebel_h_pmu.o
 .rodata.panic_str
                0x0000001e0003d9a8       0x11 /home/jongja.cho/Git/legacy/rebel_cds_collab_hw/bootloader/cp/tf-a/build/rebel_h/debug/bl2/debug.o
 .rodata.str1.1
                0x0000001e0003d9b9       0x28 /home/jongja.cho/Git/legacy/rebel_cds_collab_hw/bootloader/cp/tf-a/build/rebel_h/debug/bl2/16550_console.o
 .rodata.str1.1
                0x0000001e0003d9e1       0x1b /home/jongja.cho/Git/legacy/rebel_cds_collab_hw/bootloader/cp/tf-a/build/rebel_h/debug/bl2/misc_helpers.o
 .rodata.str1.1
                0x0000001e0003d9fc       0x28 /home/jongja.cho/Git/legacy/rebel_cds_collab_hw/bootloader/cp/tf-a/build/rebel_h/debug/bl2/enable_mmu.o
 .rodata.__assert.str1.1
                0x0000001e0003da24        0x7 /home/jongja.cho/Git/legacy/rebel_cds_collab_hw/bootloader/cp/tf-a/build/rebel_h/debug/lib/libc.a(assert.o)
 .rodata.vprintf.str1.1
                0x0000001e0003da24        0x3 /home/jongja.cho/Git/legacy/rebel_cds_collab_hw/bootloader/cp/tf-a/build/rebel_h/debug/lib/libc.a(printf.o)
 .rodata.vsnprintf.str1.1
                0x0000001e0003da24        0x3 /home/jongja.cho/Git/legacy/rebel_cds_collab_hw/bootloader/cp/tf-a/build/rebel_h/debug/lib/libc.a(snprintf.o)
                0x0000001e0003dbf8                . = ALIGN (0x8)
 *fill*         0x0000001e0003da24        0x4 
                0x0000001e0003da28                __RT_SVC_DESCS_START__ = .
 *(SORT_BY_ALIGNMENT(.rt_svc_descs))
                0x0000001e0003da28                __RT_SVC_DESCS_END__ = .
                0x0000001e0003da28                . = ALIGN (0x8)
                0x0000001e0003da28                __FCONF_POPULATOR_START__ = .
 *(SORT_BY_ALIGNMENT(.fconf_populator))
                0x0000001e0003da28                __FCONF_POPULATOR_END__ = .
                0x0000001e0003da28                . = ALIGN (0x8)
                0x0000001e0003da28                __PMF_SVC_DESCS_START__ = .
 *(SORT_BY_ALIGNMENT(.pmf_svc_descs))
                0x0000001e0003da28                __PMF_SVC_DESCS_END__ = .
                0x0000001e0003da28                . = ALIGN (0x8)
                0x0000001e0003da28                __PARSER_LIB_DESCS_START__ = .
 *(SORT_BY_ALIGNMENT(.img_parser_lib_descs))
                0x0000001e0003da28                __PARSER_LIB_DESCS_END__ = .
                0x0000001e0003da28                . = ALIGN (0x8)
                0x0000001e0003da28                __CPU_OPS_START__ = .
 *(SORT_BY_ALIGNMENT(.cpu_ops))
                0x0000001e0003da28                __CPU_OPS_END__ = .
                0x0000001e0003da28                . = ALIGN (0x8)
                0x0000001e0003da28                __GOT_START__ = .
 *(SORT_BY_ALIGNMENT(.got))
                0x0000001e0003da28                __GOT_END__ = .
 *(SORT_BY_ALIGNMENT(.vectors))
 *fill*         0x0000001e0003da28      0x5d8 
 .vectors       0x0000001e0003e000      0x800 /home/jongja.cho/Git/legacy/rebel_cds_collab_hw/bootloader/cp/tf-a/build/rebel_h/debug/bl2/early_exceptions.o
                0x0000001e0003e000                early_exceptions
                0x0000001e0003e800                __RO_END_UNALIGNED__ = .
                0x0000001e0003f000                . = ALIGN (0x1000)
 *fill*         0x0000001e0003e800      0x800 
                0x0000001e0003f000                __RO_END__ = .
                0x0000001e0003f000                __RW_START__ = .

.iplt           0x0000001e0003f000        0x0
 .iplt          0x0000001e0003f000        0x0 /home/jongja.cho/Git/legacy/rebel_cds_collab_hw/bootloader/cp/tf-a/build/rebel_h/debug/bl2/hbm3.o

.rela.dyn       0x0000001e0003f000        0x0
 .rela.iplt     0x0000001e0003f000        0x0 /home/jongja.cho/Git/legacy/rebel_cds_collab_hw/bootloader/cp/tf-a/build/rebel_h/debug/bl2/hbm3.o
 .rela.text.console_register
                0x0000001e0003f000        0x0 /home/jongja.cho/Git/legacy/rebel_cds_collab_hw/bootloader/cp/tf-a/build/rebel_h/debug/bl2/hbm3.o
 .rela.text.bl2_plat_arch_setup
                0x0000001e0003f000        0x0 /home/jongja.cho/Git/legacy/rebel_cds_collab_hw/bootloader/cp/tf-a/build/rebel_h/debug/bl2/hbm3.o
 .rela.text.asm.bl2_entrypoint
                0x0000001e0003f000        0x0 /home/jongja.cho/Git/legacy/rebel_cds_collab_hw/bootloader/cp/tf-a/build/rebel_h/debug/bl2/hbm3.o

.data           0x0000001e0003f000     0x142a
                0x0000001e0003f000                __DATA_START__ = .
 *(SORT_BY_ALIGNMENT(.data*))
 .data.region_info_cl3
                0x0000001e0003f000       0x28 /home/jongja.cho/Git/legacy/rebel_cds_collab_hw/bootloader/cp/tf-a/build/rebel_h/debug/bl2/smmu.o
 .data.pt_4k_region_info_cl3
                0x0000001e0003f028       0x20 /home/jongja.cho/Git/legacy/rebel_cds_collab_hw/bootloader/cp/tf-a/build/rebel_h/debug/bl2/smmu.o
 .data.pt_2m_region_info_cl3
                0x0000001e0003f048       0x80 /home/jongja.cho/Git/legacy/rebel_cds_collab_hw/bootloader/cp/tf-a/build/rebel_h/debug/bl2/smmu.o
 .data.pt_1g_region_info_cl3
                0x0000001e0003f0c8       0x20 /home/jongja.cho/Git/legacy/rebel_cds_collab_hw/bootloader/cp/tf-a/build/rebel_h/debug/bl2/smmu.o
 .data.region_info
                0x0000001e0003f0e8       0x28 /home/jongja.cho/Git/legacy/rebel_cds_collab_hw/bootloader/cp/tf-a/build/rebel_h/debug/bl2/smmu.o
 .data.pt_4k_region_info
                0x0000001e0003f110       0x20 /home/jongja.cho/Git/legacy/rebel_cds_collab_hw/bootloader/cp/tf-a/build/rebel_h/debug/bl2/smmu.o
 .data.pt_2m_region_info
                0x0000001e0003f130       0x80 /home/jongja.cho/Git/legacy/rebel_cds_collab_hw/bootloader/cp/tf-a/build/rebel_h/debug/bl2/smmu.o
 .data.pt_1g_region_info
                0x0000001e0003f1b0       0x20 /home/jongja.cho/Git/legacy/rebel_cds_collab_hw/bootloader/cp/tf-a/build/rebel_h/debug/bl2/smmu.o
 .data.tf_xlat_ctx
                0x0000001e0003f1d0       0x60 /home/jongja.cho/Git/legacy/rebel_cds_collab_hw/bootloader/cp/tf-a/build/rebel_h/debug/bl2/xlat_tables_context.o
 .data.bl_mem_params_desc_ptr
                0x0000001e0003f230        0x8 /home/jongja.cho/Git/legacy/rebel_cds_collab_hw/bootloader/cp/tf-a/build/rebel_h/debug/bl2/rebel_h_bl2_setup.o
                0x0000001e0003f230                bl_mem_params_desc_ptr
 .data.bl2_mem_params_descs
                0x0000001e0003f238      0x170 /home/jongja.cho/Git/legacy/rebel_cds_collab_hw/bootloader/cp/tf-a/build/rebel_h/debug/bl2/rebel_h_bl2_setup.o
 .data.max_log_level
                0x0000001e0003f3a8        0x4 /home/jongja.cho/Git/legacy/rebel_cds_collab_hw/bootloader/cp/tf-a/build/rebel_h/debug/bl2/tf_log.o
 .data.console_state
                0x0000001e0003f3ac        0x4 /home/jongja.cho/Git/legacy/rebel_cds_collab_hw/bootloader/cp/tf-a/build/rebel_h/debug/bl2/multi_console.o
 .data.bl_mem_params_desc_num
                0x0000001e0003f3b0        0x4 /home/jongja.cho/Git/legacy/rebel_cds_collab_hw/bootloader/cp/tf-a/build/rebel_h/debug/bl2/rebel_h_bl2_setup.o
                0x0000001e0003f3b0                bl_mem_params_desc_num
 .data.rx_lane  0x0000001e0003f3b4      0x700 /home/jongja.cho/Git/legacy/rebel_cds_collab_hw/bootloader/cp/tf-a/build/rebel_h/debug/bl2/icon.o
                0x0000001e0003f3b4                rx_lane
 .data.tx_lane  0x0000001e0003fab4      0x746 /home/jongja.cho/Git/legacy/rebel_cds_collab_hw/bootloader/cp/tf-a/build/rebel_h/debug/bl2/icon.o
                0x0000001e0003fab4                tx_lane
 .data.dbi_lane
                0x0000001e000401fa       0x38 /home/jongja.cho/Git/legacy/rebel_cds_collab_hw/bootloader/cp/tf-a/build/rebel_h/debug/bl2/hbm3_init.o
                0x0000001e000401fa                dbi_lane
 .data.sev_lane
                0x0000001e00040232       0x1c /home/jongja.cho/Git/legacy/rebel_cds_collab_hw/bootloader/cp/tf-a/build/rebel_h/debug/bl2/hbm3_init.o
                0x0000001e00040232                sev_lane
 .data.ecc_lane
                0x0000001e0004024e       0x1c /home/jongja.cho/Git/legacy/rebel_cds_collab_hw/bootloader/cp/tf-a/build/rebel_h/debug/bl2/hbm3_init.o
                0x0000001e0004024e                ecc_lane
 .data.dq_lane  0x0000001e0004026a      0x1c0 /home/jongja.cho/Git/legacy/rebel_cds_collab_hw/bootloader/cp/tf-a/build/rebel_h/debug/bl2/hbm3_init.o
                0x0000001e0004026a                dq_lane
                0x0000001e0004042a                __DATA_END__ = .

.igot.plt       0x0000001e00040430        0x0
 .igot.plt      0x0000001e00040430        0x0 /home/jongja.cho/Git/legacy/rebel_cds_collab_hw/bootloader/cp/tf-a/build/rebel_h/debug/bl2/hbm3.o

.stacks         0x0000001e00040440     0x4000
                0x0000001e00040440                __STACKS_START__ = .
 *(SORT_BY_ALIGNMENT(.tzfw_normal_stacks))
 .tzfw_normal_stacks
                0x0000001e00040440     0x4000 /home/jongja.cho/Git/legacy/rebel_cds_collab_hw/bootloader/cp/tf-a/build/rebel_h/debug/bl2/platform_mp_stack.o
                0x0000001e00044440                __STACKS_END__ = .

.bss            0x0000001e00044440     0x1750
                0x0000001e00044440                __BSS_START__ = .
 *(SORT_BY_ALIGNMENT(.bss*))
 .bss.mcode     0x0000001e00044440      0x400 /home/jongja.cho/Git/legacy/rebel_cds_collab_hw/bootloader/cp/tf-a/build/rebel_h/debug/bl2/pl330.o
                0x0000001e00044440                mcode
 .bss.hbm3_cfg  0x0000001e00044840      0x440 /home/jongja.cho/Git/legacy/rebel_cds_collab_hw/bootloader/cp/tf-a/build/rebel_h/debug/bl2/hbm3.o
 .bss.next_bl_params
                0x0000001e00044c80       0x10 /home/jongja.cho/Git/legacy/rebel_cds_collab_hw/bootloader/cp/tf-a/build/rebel_h/debug/bl2/desc_image_load.o
 .bss.bl_load_info
                0x0000001e00044c90       0x10 /home/jongja.cho/Git/legacy/rebel_cds_collab_hw/bootloader/cp/tf-a/build/rebel_h/debug/bl2/desc_image_load.o
 .bss.pl330_data
                0x0000001e00044ca0       0x90 /home/jongja.cho/Git/legacy/rebel_cds_collab_hw/bootloader/cp/tf-a/build/rebel_h/debug/bl2/pl330.o
 .bss.console_list
                0x0000001e00044d30        0x8 /home/jongja.cho/Git/legacy/rebel_cds_collab_hw/bootloader/cp/tf-a/build/rebel_h/debug/bl2/multi_console.o
                0x0000001e00044d30                console_list
 .bss.timer_ops
                0x0000001e00044d38        0x8 /home/jongja.cho/Git/legacy/rebel_cds_collab_hw/bootloader/cp/tf-a/build/rebel_h/debug/bl2/delay_timer.o
 .bss.ops       0x0000001e00044d40       0x20 /home/jongja.cho/Git/legacy/rebel_cds_collab_hw/bootloader/cp/tf-a/build/rebel_h/debug/bl2/generic_delay_timer.o
 .bss.entity_map
                0x0000001e00044d60       0x20 /home/jongja.cho/Git/legacy/rebel_cds_collab_hw/bootloader/cp/tf-a/build/rebel_h/debug/bl2/io_storage.o
 .bss.entity_pool
                0x0000001e00044d80       0x40 /home/jongja.cho/Git/legacy/rebel_cds_collab_hw/bootloader/cp/tf-a/build/rebel_h/debug/bl2/io_storage.o
 .bss.gpt_image_addr
                0x0000001e00044dc0        0x8 /home/jongja.cho/Git/legacy/rebel_cds_collab_hw/bootloader/cp/tf-a/build/rebel_h/debug/bl2/partition_simple.o
                0x0000001e00044dc0                gpt_image_addr
 .bss.binary_size
                0x0000001e00044dc8       0x50 /home/jongja.cho/Git/legacy/rebel_cds_collab_hw/bootloader/cp/tf-a/build/rebel_h/debug/bl2/partition_simple.o
                0x0000001e00044dc8                binary_size
 .bss.list      0x0000001e00044e18      0x378 /home/jongja.cho/Git/legacy/rebel_cds_collab_hw/bootloader/cp/tf-a/build/rebel_h/debug/bl2/partition_simple.o
                0x0000001e00044e18                list
 .bss.smmu_l3_pt_base
                0x0000001e00045190        0x8 /home/jongja.cho/Git/legacy/rebel_cds_collab_hw/bootloader/cp/tf-a/build/rebel_h/debug/bl2/smmu.o
 .bss.smmu_l2_pt_base
                0x0000001e00045198       0x28 /home/jongja.cho/Git/legacy/rebel_cds_collab_hw/bootloader/cp/tf-a/build/rebel_h/debug/bl2/smmu.o
 .bss.smmu_l1_pt_base
                0x0000001e000451c0       0x30 /home/jongja.cho/Git/legacy/rebel_cds_collab_hw/bootloader/cp/tf-a/build/rebel_h/debug/bl2/smmu.o
 .bss.tf_mmap   0x0000001e000451f0      0x398 /home/jongja.cho/Git/legacy/rebel_cds_collab_hw/bootloader/cp/tf-a/build/rebel_h/debug/bl2/xlat_tables_context.o
 .bss.mmu_cfg_params
                0x0000001e00045588       0x18 /home/jongja.cho/Git/legacy/rebel_cds_collab_hw/bootloader/cp/tf-a/build/rebel_h/debug/bl2/xlat_tables_context.o
                0x0000001e00045588                mmu_cfg_params
 .bss.plat_try_img_ops
                0x0000001e000455a0        0x8 /home/jongja.cho/Git/legacy/rebel_cds_collab_hw/bootloader/cp/tf-a/build/rebel_h/debug/bl2/plat_common.o
                0x0000001e000455a0                plat_try_img_ops
 .bss.rebel_console
                0x0000001e000455a8       0x28 /home/jongja.cho/Git/legacy/rebel_cds_collab_hw/bootloader/cp/tf-a/build/rebel_h/debug/bl2/rebel_h_bl2_setup.o
 .bss.entity_count
                0x0000001e000455d0        0x4 /home/jongja.cho/Git/legacy/rebel_cds_collab_hw/bootloader/cp/tf-a/build/rebel_h/debug/bl2/io_storage.o
 .bss.image_header
                0x0000001e000455d4       0x1c /home/jongja.cho/Git/legacy/rebel_cds_collab_hw/bootloader/cp/tf-a/build/rebel_h/debug/bl2/partition_simple.o
 .bss.smmu_l3_pt_index
                0x0000001e000455f0        0x4 /home/jongja.cho/Git/legacy/rebel_cds_collab_hw/bootloader/cp/tf-a/build/rebel_h/debug/bl2/smmu.o
 .bss.smmu_l2_pt_index
                0x0000001e000455f4       0x14 /home/jongja.cho/Git/legacy/rebel_cds_collab_hw/bootloader/cp/tf-a/build/rebel_h/debug/bl2/smmu.o
 .bss.smmu_l1_pt_index
                0x0000001e00045608       0x18 /home/jongja.cho/Git/legacy/rebel_cds_collab_hw/bootloader/cp/tf-a/build/rebel_h/debug/bl2/smmu.o
 .bss.ch_rep_lane
                0x0000001e00045620       0xa0 /home/jongja.cho/Git/legacy/rebel_cds_collab_hw/bootloader/cp/tf-a/build/rebel_h/debug/bl2/hbm3_init.o
                0x0000001e00045620                ch_rep_lane
 .bss.rep_status
                0x0000001e000456c0       0x10 /home/jongja.cho/Git/legacy/rebel_cds_collab_hw/bootloader/cp/tf-a/build/rebel_h/debug/bl2/hbm3_init.o
                0x0000001e000456c0                rep_status
 .bss.max_offset_buf
                0x0000001e000456d0      0x148 /home/jongja.cho/Git/legacy/rebel_cds_collab_hw/bootloader/cp/tf-a/build/rebel_h/debug/bl2/hbm3_init.o
                0x0000001e000456d0                max_offset_buf
 .bss.max_vwm_buf
                0x0000001e00045818       0xa0 /home/jongja.cho/Git/legacy/rebel_cds_collab_hw/bootloader/cp/tf-a/build/rebel_h/debug/bl2/hbm3_init.o
                0x0000001e00045818                max_vwm_buf
 .bss.vwm_buf   0x0000001e000458b8       0xa0 /home/jongja.cho/Git/legacy/rebel_cds_collab_hw/bootloader/cp/tf-a/build/rebel_h/debug/bl2/hbm3_init.o
                0x0000001e000458b8                vwm_buf
 .bss.mbr_sector
                0x0000001e00045958      0x200 /home/jongja.cho/Git/legacy/rebel_cds_collab_hw/bootloader/cp/tf-a/build/rebel_h/debug/bl2/partition_simple.o
                0x0000001e00045958                mbr_sector
 *(SORT_BY_ALIGNMENT(COMMON))
                0x0000001e00045b80                . = ALIGN (0x40)
 *fill*         0x0000001e00045b58       0x28 
                0x0000001e00045b80                __PMF_TIMESTAMP_START__ = .
 *(SORT_BY_ALIGNMENT(.pmf_timestamp_array))
                0x0000001e00045b80                . = ALIGN (0x40)
                0x0000001e00045b80                __PMF_PERCPU_TIMESTAMP_END__ = .
                0x0000000000000000                __PERCPU_TIMESTAMP_SIZE__ = ABSOLUTE ((. - __PMF_TIMESTAMP_START__))
                0x0000001e00045b80                . = (. + (__PERCPU_TIMESTAMP_SIZE__ * 0x3))
                0x0000001e00045b80                __PMF_TIMESTAMP_END__ = .
                0x0000001e00045b80                __BSS_END__ = .
                0x0000001e00045b80                . = ALIGN (0x10)
                0x0000001e00045b80                __BASE_XLAT_TABLE_START__ = .
 *(SORT_BY_ALIGNMENT(.base_xlat_table))
 .base_xlat_table
                0x0000001e00045b80       0x10 /home/jongja.cho/Git/legacy/rebel_cds_collab_hw/bootloader/cp/tf-a/build/rebel_h/debug/bl2/xlat_tables_context.o
                0x0000001e00045b90                __BASE_XLAT_TABLE_END__ = .

.xlat_table     0x0000001e00046000     0x7000
                0x0000001e00046000                __XLAT_TABLE_START__ = .
 *(SORT_BY_ALIGNMENT(.xlat_table))
 .xlat_table    0x0000001e00046000     0x7000 /home/jongja.cho/Git/legacy/rebel_cds_collab_hw/bootloader/cp/tf-a/build/rebel_h/debug/bl2/xlat_tables_context.o
                0x0000001e0004d000                __XLAT_TABLE_END__ = .

.coherent_ram   0x0000001e0004d000        0x0
                0x0000001e0004d000                __COHERENT_RAM_START__ = .
 *(SORT_BY_ALIGNMENT(.tzfw_coherent_mem))
                0x0000001e0004d000                __COHERENT_RAM_END_UNALIGNED__ = .
                0x0000001e0004d000                . = ALIGN (0x1000)
                0x0000001e0004d000                __COHERENT_RAM_END__ = .
                0x0000001e0004d000                __RW_END__ = .
                0x0000001e0004d000                __BL2_END__ = .
                0x0000001e0004d000                RAM_REGION_END = .
                0x0000000000001750                __BSS_SIZE__ = SIZEOF (.bss)
                0x0000000000000000                __COHERENT_RAM_UNALIGNED_SIZE__ = (__COHERENT_RAM_END_UNALIGNED__ - __COHERENT_RAM_START__)
                0x0000000000000001                ASSERT ((. <= 0x1e00050000), BL2 image has exceeded its limit.)
START GROUP
LOAD /home/jongja.cho/Git/legacy/rebel_cds_collab_hw/bootloader/cp/tf-a/build/rebel_h/debug/bl2/hbm3.o
LOAD /home/jongja.cho/Git/legacy/rebel_cds_collab_hw/bootloader/cp/tf-a/build/rebel_h/debug/bl2/icon.o
LOAD /home/jongja.cho/Git/legacy/rebel_cds_collab_hw/bootloader/cp/tf-a/build/rebel_h/debug/bl2/tmrs.o
LOAD /home/jongja.cho/Git/legacy/rebel_cds_collab_hw/bootloader/cp/tf-a/build/rebel_h/debug/bl2/bakery_lock.o
LOAD /home/jongja.cho/Git/legacy/rebel_cds_collab_hw/bootloader/cp/tf-a/build/rebel_h/debug/bl2/bl2_arch_setup.o
LOAD /home/jongja.cho/Git/legacy/rebel_cds_collab_hw/bootloader/cp/tf-a/build/rebel_h/debug/bl2/bl2_image_load_v2.o
LOAD /home/jongja.cho/Git/legacy/rebel_cds_collab_hw/bootloader/cp/tf-a/build/rebel_h/debug/bl2/bl2_main.o
LOAD /home/jongja.cho/Git/legacy/rebel_cds_collab_hw/bootloader/cp/tf-a/build/rebel_h/debug/bl2/backtrace.o
LOAD /home/jongja.cho/Git/legacy/rebel_cds_collab_hw/bootloader/cp/tf-a/build/rebel_h/debug/bl2/bl_common.o
LOAD /home/jongja.cho/Git/legacy/rebel_cds_collab_hw/bootloader/cp/tf-a/build/rebel_h/debug/bl2/desc_image_load.o
LOAD /home/jongja.cho/Git/legacy/rebel_cds_collab_hw/bootloader/cp/tf-a/build/rebel_h/debug/bl2/tf_crc32.o
LOAD /home/jongja.cho/Git/legacy/rebel_cds_collab_hw/bootloader/cp/tf-a/build/rebel_h/debug/bl2/tf_log.o
LOAD /home/jongja.cho/Git/legacy/rebel_cds_collab_hw/bootloader/cp/tf-a/build/rebel_h/debug/bl2/pl330.o
LOAD /home/jongja.cho/Git/legacy/rebel_cds_collab_hw/bootloader/cp/tf-a/build/rebel_h/debug/bl2/ucie.o
LOAD /home/jongja.cho/Git/legacy/rebel_cds_collab_hw/bootloader/cp/tf-a/build/rebel_h/debug/bl2/cmu.o
LOAD /home/jongja.cho/Git/legacy/rebel_cds_collab_hw/bootloader/cp/tf-a/build/rebel_h/debug/bl2/multi_console.o
LOAD /home/jongja.cho/Git/legacy/rebel_cds_collab_hw/bootloader/cp/tf-a/build/rebel_h/debug/bl2/delay_timer.o
LOAD /home/jongja.cho/Git/legacy/rebel_cds_collab_hw/bootloader/cp/tf-a/build/rebel_h/debug/bl2/generic_delay_timer.o
LOAD /home/jongja.cho/Git/legacy/rebel_cds_collab_hw/bootloader/cp/tf-a/build/rebel_h/debug/bl2/hbm3_chipid.o
LOAD /home/jongja.cho/Git/legacy/rebel_cds_collab_hw/bootloader/cp/tf-a/build/rebel_h/debug/bl2/hbm3_init.o
LOAD /home/jongja.cho/Git/legacy/rebel_cds_collab_hw/bootloader/cp/tf-a/build/rebel_h/debug/bl2/io_memmap.o
LOAD /home/jongja.cho/Git/legacy/rebel_cds_collab_hw/bootloader/cp/tf-a/build/rebel_h/debug/bl2/io_storage.o
LOAD /home/jongja.cho/Git/legacy/rebel_cds_collab_hw/bootloader/cp/tf-a/build/rebel_h/debug/bl2/mailbox.o
LOAD /home/jongja.cho/Git/legacy/rebel_cds_collab_hw/bootloader/cp/tf-a/build/rebel_h/debug/bl2/gpt.o
LOAD /home/jongja.cho/Git/legacy/rebel_cds_collab_hw/bootloader/cp/tf-a/build/rebel_h/debug/bl2/partition_simple.o
LOAD /home/jongja.cho/Git/legacy/rebel_cds_collab_hw/bootloader/cp/tf-a/build/rebel_h/debug/bl2/smmu.o
LOAD /home/jongja.cho/Git/legacy/rebel_cds_collab_hw/bootloader/cp/tf-a/build/rebel_h/debug/bl2/qspi_bridge.o
LOAD /home/jongja.cho/Git/legacy/rebel_cds_collab_hw/bootloader/cp/tf-a/build/rebel_h/debug/bl2/popcountdi2.o
LOAD /home/jongja.cho/Git/legacy/rebel_cds_collab_hw/bootloader/cp/tf-a/build/rebel_h/debug/bl2/popcountsi2.o
LOAD /home/jongja.cho/Git/legacy/rebel_cds_collab_hw/bootloader/cp/tf-a/build/rebel_h/debug/bl2/pmuv3.o
LOAD /home/jongja.cho/Git/legacy/rebel_cds_collab_hw/bootloader/cp/tf-a/build/rebel_h/debug/bl2/sic.o
LOAD /home/jongja.cho/Git/legacy/rebel_cds_collab_hw/bootloader/cp/tf-a/build/rebel_h/debug/bl2/xlat_tables_arch.o
LOAD /home/jongja.cho/Git/legacy/rebel_cds_collab_hw/bootloader/cp/tf-a/build/rebel_h/debug/bl2/xlat_tables_context.o
LOAD /home/jongja.cho/Git/legacy/rebel_cds_collab_hw/bootloader/cp/tf-a/build/rebel_h/debug/bl2/xlat_tables_core.o
LOAD /home/jongja.cho/Git/legacy/rebel_cds_collab_hw/bootloader/cp/tf-a/build/rebel_h/debug/bl2/xlat_tables_utils.o
LOAD /home/jongja.cho/Git/legacy/rebel_cds_collab_hw/bootloader/cp/tf-a/build/rebel_h/debug/bl2/plat_common.o
LOAD /home/jongja.cho/Git/legacy/rebel_cds_collab_hw/bootloader/cp/tf-a/build/rebel_h/debug/bl2/plat_bl_common.o
LOAD /home/jongja.cho/Git/legacy/rebel_cds_collab_hw/bootloader/cp/tf-a/build/rebel_h/debug/bl2/plat_log_common.o
LOAD /home/jongja.cho/Git/legacy/rebel_cds_collab_hw/bootloader/cp/tf-a/build/rebel_h/debug/bl2/rebel_h_bl2_setup.o
LOAD /home/jongja.cho/Git/legacy/rebel_cds_collab_hw/bootloader/cp/tf-a/build/rebel_h/debug/bl2/rebel_h_image_load.o
LOAD /home/jongja.cho/Git/legacy/rebel_cds_collab_hw/bootloader/cp/tf-a/build/rebel_h/debug/bl2/rebel_h_pcie.o
LOAD /home/jongja.cho/Git/legacy/rebel_cds_collab_hw/bootloader/cp/tf-a/build/rebel_h/debug/bl2/rebel_h_plat.o
LOAD /home/jongja.cho/Git/legacy/rebel_cds_collab_hw/bootloader/cp/tf-a/build/rebel_h/debug/bl2/rebel_h_pmu.o
LOAD /home/jongja.cho/Git/legacy/rebel_cds_collab_hw/bootloader/cp/tf-a/build/rebel_h/debug/bl2/rebel_h_rbc.o
LOAD /home/jongja.cho/Git/legacy/rebel_cds_collab_hw/bootloader/cp/tf-a/build/rebel_h/debug/bl2/rebel_h_topology.o
LOAD /home/jongja.cho/Git/legacy/rebel_cds_collab_hw/bootloader/cp/tf-a/build/rebel_h/debug/bl2/bl2_entrypoint.o
LOAD /home/jongja.cho/Git/legacy/rebel_cds_collab_hw/bootloader/cp/tf-a/build/rebel_h/debug/bl2/debug.o
LOAD /home/jongja.cho/Git/legacy/rebel_cds_collab_hw/bootloader/cp/tf-a/build/rebel_h/debug/bl2/early_exceptions.o
LOAD /home/jongja.cho/Git/legacy/rebel_cds_collab_hw/bootloader/cp/tf-a/build/rebel_h/debug/bl2/16550_console.o
LOAD /home/jongja.cho/Git/legacy/rebel_cds_collab_hw/bootloader/cp/tf-a/build/rebel_h/debug/bl2/cache_helpers.o
LOAD /home/jongja.cho/Git/legacy/rebel_cds_collab_hw/bootloader/cp/tf-a/build/rebel_h/debug/bl2/misc_helpers.o
LOAD /home/jongja.cho/Git/legacy/rebel_cds_collab_hw/bootloader/cp/tf-a/build/rebel_h/debug/bl2/wa_cve_2017_5715_bpiall.o
LOAD /home/jongja.cho/Git/legacy/rebel_cds_collab_hw/bootloader/cp/tf-a/build/rebel_h/debug/bl2/spinlock.o
LOAD /home/jongja.cho/Git/legacy/rebel_cds_collab_hw/bootloader/cp/tf-a/build/rebel_h/debug/bl2/enable_mmu.o
LOAD /home/jongja.cho/Git/legacy/rebel_cds_collab_hw/bootloader/cp/tf-a/build/rebel_h/debug/bl2/platform_helpers.o
LOAD /home/jongja.cho/Git/legacy/rebel_cds_collab_hw/bootloader/cp/tf-a/build/rebel_h/debug/bl2/platform_mp_stack.o
LOAD /home/jongja.cho/Git/legacy/rebel_cds_collab_hw/bootloader/cp/tf-a/build/rebel_h/debug/bl2/platform_up_stack.o
LOAD /home/jongja.cho/Git/legacy/rebel_cds_collab_hw/bootloader/cp/tf-a/build/rebel_h/debug/bl2/plat_helper.o
LOAD /home/jongja.cho/Git/legacy/rebel_cds_collab_hw/bootloader/cp/tf-a/build/rebel_h/debug/lib/libc.a
END GROUP
OUTPUT(/home/jongja.cho/Git/legacy/rebel_cds_collab_hw/bootloader/cp/tf-a/build/rebel_h/debug/bl2/bl2.elf elf64-littleaarch64)
LOAD linker stubs

.debug_info     0x0000000000000000   0x10d456
 .debug_info    0x0000000000000000    0x2d75f /home/jongja.cho/Git/legacy/rebel_cds_collab_hw/bootloader/cp/tf-a/build/rebel_h/debug/bl2/hbm3.o
 .debug_info    0x000000000002d75f    0x2c0f5 /home/jongja.cho/Git/legacy/rebel_cds_collab_hw/bootloader/cp/tf-a/build/rebel_h/debug/bl2/icon.o
 .debug_info    0x0000000000059854     0x7fa8 /home/jongja.cho/Git/legacy/rebel_cds_collab_hw/bootloader/cp/tf-a/build/rebel_h/debug/bl2/tmrs.o
 .debug_info    0x00000000000617fc      0x1f7 /home/jongja.cho/Git/legacy/rebel_cds_collab_hw/bootloader/cp/tf-a/build/rebel_h/debug/bl2/bakery_lock.o
 .debug_info    0x00000000000619f3      0x14e /home/jongja.cho/Git/legacy/rebel_cds_collab_hw/bootloader/cp/tf-a/build/rebel_h/debug/bl2/bl2_arch_setup.o
 .debug_info    0x0000000000061b41      0x5c6 /home/jongja.cho/Git/legacy/rebel_cds_collab_hw/bootloader/cp/tf-a/build/rebel_h/debug/bl2/bl2_image_load_v2.o
 .debug_info    0x0000000000062107      0x531 /home/jongja.cho/Git/legacy/rebel_cds_collab_hw/bootloader/cp/tf-a/build/rebel_h/debug/bl2/bl2_main.o
 .debug_info    0x0000000000062638      0x843 /home/jongja.cho/Git/legacy/rebel_cds_collab_hw/bootloader/cp/tf-a/build/rebel_h/debug/bl2/backtrace.o
 .debug_info    0x0000000000062e7b      0x824 /home/jongja.cho/Git/legacy/rebel_cds_collab_hw/bootloader/cp/tf-a/build/rebel_h/debug/bl2/bl_common.o
 .debug_info    0x000000000006369f      0x98b /home/jongja.cho/Git/legacy/rebel_cds_collab_hw/bootloader/cp/tf-a/build/rebel_h/debug/bl2/desc_image_load.o
 .debug_info    0x000000000006402a      0x158 /home/jongja.cho/Git/legacy/rebel_cds_collab_hw/bootloader/cp/tf-a/build/rebel_h/debug/bl2/tf_crc32.o
 .debug_info    0x0000000000064182      0x303 /home/jongja.cho/Git/legacy/rebel_cds_collab_hw/bootloader/cp/tf-a/build/rebel_h/debug/bl2/tf_log.o
 .debug_info    0x0000000000064485     0x24b4 /home/jongja.cho/Git/legacy/rebel_cds_collab_hw/bootloader/cp/tf-a/build/rebel_h/debug/bl2/pl330.o
 .debug_info    0x0000000000066939    0x5b973 /home/jongja.cho/Git/legacy/rebel_cds_collab_hw/bootloader/cp/tf-a/build/rebel_h/debug/bl2/cmu.o
 .debug_info    0x00000000000c22ac      0x513 /home/jongja.cho/Git/legacy/rebel_cds_collab_hw/bootloader/cp/tf-a/build/rebel_h/debug/bl2/multi_console.o
 .debug_info    0x00000000000c27bf      0x37e /home/jongja.cho/Git/legacy/rebel_cds_collab_hw/bootloader/cp/tf-a/build/rebel_h/debug/bl2/delay_timer.o
 .debug_info    0x00000000000c2b3d      0x48d /home/jongja.cho/Git/legacy/rebel_cds_collab_hw/bootloader/cp/tf-a/build/rebel_h/debug/bl2/generic_delay_timer.o
 .debug_info    0x00000000000c2fca      0x407 /home/jongja.cho/Git/legacy/rebel_cds_collab_hw/bootloader/cp/tf-a/build/rebel_h/debug/bl2/hbm3_chipid.o
 .debug_info    0x00000000000c33d1    0x3c090 /home/jongja.cho/Git/legacy/rebel_cds_collab_hw/bootloader/cp/tf-a/build/rebel_h/debug/bl2/hbm3_init.o
 .debug_info    0x00000000000ff461      0xfef /home/jongja.cho/Git/legacy/rebel_cds_collab_hw/bootloader/cp/tf-a/build/rebel_h/debug/bl2/io_storage.o
 .debug_info    0x0000000000100450     0x1ab8 /home/jongja.cho/Git/legacy/rebel_cds_collab_hw/bootloader/cp/tf-a/build/rebel_h/debug/bl2/mailbox.o
 .debug_info    0x0000000000101f08      0x48e /home/jongja.cho/Git/legacy/rebel_cds_collab_hw/bootloader/cp/tf-a/build/rebel_h/debug/bl2/gpt.o
 .debug_info    0x0000000000102396      0xd34 /home/jongja.cho/Git/legacy/rebel_cds_collab_hw/bootloader/cp/tf-a/build/rebel_h/debug/bl2/partition_simple.o
 .debug_info    0x00000000001030ca     0x1a2f /home/jongja.cho/Git/legacy/rebel_cds_collab_hw/bootloader/cp/tf-a/build/rebel_h/debug/bl2/smmu.o
 .debug_info    0x0000000000104af9      0x4cb /home/jongja.cho/Git/legacy/rebel_cds_collab_hw/bootloader/cp/tf-a/build/rebel_h/debug/bl2/sic.o
 .debug_info    0x0000000000104fc4      0xdfa /home/jongja.cho/Git/legacy/rebel_cds_collab_hw/bootloader/cp/tf-a/build/rebel_h/debug/bl2/xlat_tables_arch.o
 .debug_info    0x0000000000105dbe      0xa16 /home/jongja.cho/Git/legacy/rebel_cds_collab_hw/bootloader/cp/tf-a/build/rebel_h/debug/bl2/xlat_tables_context.o
 .debug_info    0x00000000001067d4      0xf6d /home/jongja.cho/Git/legacy/rebel_cds_collab_hw/bootloader/cp/tf-a/build/rebel_h/debug/bl2/xlat_tables_core.o
 .debug_info    0x0000000000107741      0xa6e /home/jongja.cho/Git/legacy/rebel_cds_collab_hw/bootloader/cp/tf-a/build/rebel_h/debug/bl2/xlat_tables_utils.o
 .debug_info    0x00000000001081af      0x1eb /home/jongja.cho/Git/legacy/rebel_cds_collab_hw/bootloader/cp/tf-a/build/rebel_h/debug/bl2/plat_common.o
 .debug_info    0x000000000010839a      0x5a5 /home/jongja.cho/Git/legacy/rebel_cds_collab_hw/bootloader/cp/tf-a/build/rebel_h/debug/bl2/plat_bl_common.o
 .debug_info    0x000000000010893f      0x15d /home/jongja.cho/Git/legacy/rebel_cds_collab_hw/bootloader/cp/tf-a/build/rebel_h/debug/bl2/plat_log_common.o
 .debug_info    0x0000000000108a9c     0x19f8 /home/jongja.cho/Git/legacy/rebel_cds_collab_hw/bootloader/cp/tf-a/build/rebel_h/debug/bl2/rebel_h_bl2_setup.o
 .debug_info    0x000000000010a494      0x447 /home/jongja.cho/Git/legacy/rebel_cds_collab_hw/bootloader/cp/tf-a/build/rebel_h/debug/bl2/rebel_h_image_load.o
 .debug_info    0x000000000010a8db      0x6bb /home/jongja.cho/Git/legacy/rebel_cds_collab_hw/bootloader/cp/tf-a/build/rebel_h/debug/bl2/rebel_h_plat.o
 .debug_info    0x000000000010af96      0xb70 /home/jongja.cho/Git/legacy/rebel_cds_collab_hw/bootloader/cp/tf-a/build/rebel_h/debug/bl2/rebel_h_pmu.o
 .debug_info    0x000000000010bb06      0x19f /home/jongja.cho/Git/legacy/rebel_cds_collab_hw/bootloader/cp/tf-a/build/rebel_h/debug/bl2/rebel_h_topology.o
 .debug_info    0x000000000010bca5       0x3a /home/jongja.cho/Git/legacy/rebel_cds_collab_hw/bootloader/cp/tf-a/build/rebel_h/debug/bl2/bl2_entrypoint.o
 .debug_info    0x000000000010bcdf       0x7e /home/jongja.cho/Git/legacy/rebel_cds_collab_hw/bootloader/cp/tf-a/build/rebel_h/debug/bl2/debug.o
 .debug_info    0x000000000010bd5d       0x28 /home/jongja.cho/Git/legacy/rebel_cds_collab_hw/bootloader/cp/tf-a/build/rebel_h/debug/bl2/early_exceptions.o
 .debug_info    0x000000000010bd85       0xa4 /home/jongja.cho/Git/legacy/rebel_cds_collab_hw/bootloader/cp/tf-a/build/rebel_h/debug/bl2/16550_console.o
 .debug_info    0x000000000010be29       0xe0 /home/jongja.cho/Git/legacy/rebel_cds_collab_hw/bootloader/cp/tf-a/build/rebel_h/debug/bl2/cache_helpers.o
 .debug_info    0x000000000010bf09       0xbf /home/jongja.cho/Git/legacy/rebel_cds_collab_hw/bootloader/cp/tf-a/build/rebel_h/debug/bl2/misc_helpers.o
 .debug_info    0x000000000010bfc8       0x61 /home/jongja.cho/Git/legacy/rebel_cds_collab_hw/bootloader/cp/tf-a/build/rebel_h/debug/bl2/enable_mmu.o
 .debug_info    0x000000000010c029       0xc4 /home/jongja.cho/Git/legacy/rebel_cds_collab_hw/bootloader/cp/tf-a/build/rebel_h/debug/bl2/platform_helpers.o
 .debug_info    0x000000000010c0ed       0x42 /home/jongja.cho/Git/legacy/rebel_cds_collab_hw/bootloader/cp/tf-a/build/rebel_h/debug/bl2/platform_mp_stack.o
 .debug_info    0x000000000010c12f       0xb4 /home/jongja.cho/Git/legacy/rebel_cds_collab_hw/bootloader/cp/tf-a/build/rebel_h/debug/bl2/plat_helper.o
 .debug_info    0x000000000010c1e3      0x15a /home/jongja.cho/Git/legacy/rebel_cds_collab_hw/bootloader/cp/tf-a/build/rebel_h/debug/lib/libc.a(assert.o)
 .debug_info    0x000000000010c33d       0xdc /home/jongja.cho/Git/legacy/rebel_cds_collab_hw/bootloader/cp/tf-a/build/rebel_h/debug/lib/libc.a(memcpy.o)
 .debug_info    0x000000000010c419      0x134 /home/jongja.cho/Git/legacy/rebel_cds_collab_hw/bootloader/cp/tf-a/build/rebel_h/debug/lib/libc.a(memmove.o)
 .debug_info    0x000000000010c54d      0x793 /home/jongja.cho/Git/legacy/rebel_cds_collab_hw/bootloader/cp/tf-a/build/rebel_h/debug/lib/libc.a(printf.o)
 .debug_info    0x000000000010cce0      0x4ce /home/jongja.cho/Git/legacy/rebel_cds_collab_hw/bootloader/cp/tf-a/build/rebel_h/debug/lib/libc.a(snprintf.o)
 .debug_info    0x000000000010d1ae       0x9f /home/jongja.cho/Git/legacy/rebel_cds_collab_hw/bootloader/cp/tf-a/build/rebel_h/debug/lib/libc.a(strlen.o)
 .debug_info    0x000000000010d24d       0xb8 /home/jongja.cho/Git/legacy/rebel_cds_collab_hw/bootloader/cp/tf-a/build/rebel_h/debug/lib/libc.a(strncmp.o)
 .debug_info    0x000000000010d305      0x151 /home/jongja.cho/Git/legacy/rebel_cds_collab_hw/bootloader/cp/tf-a/build/rebel_h/debug/lib/libc.a(memset.o)

.debug_abbrev   0x0000000000000000     0x658d
 .debug_abbrev  0x0000000000000000      0x30f /home/jongja.cho/Git/legacy/rebel_cds_collab_hw/bootloader/cp/tf-a/build/rebel_h/debug/bl2/hbm3.o
 .debug_abbrev  0x000000000000030f      0x3b3 /home/jongja.cho/Git/legacy/rebel_cds_collab_hw/bootloader/cp/tf-a/build/rebel_h/debug/bl2/icon.o
 .debug_abbrev  0x00000000000006c2      0x276 /home/jongja.cho/Git/legacy/rebel_cds_collab_hw/bootloader/cp/tf-a/build/rebel_h/debug/bl2/tmrs.o
 .debug_abbrev  0x0000000000000938       0xeb /home/jongja.cho/Git/legacy/rebel_cds_collab_hw/bootloader/cp/tf-a/build/rebel_h/debug/bl2/bakery_lock.o
 .debug_abbrev  0x0000000000000a23       0xad /home/jongja.cho/Git/legacy/rebel_cds_collab_hw/bootloader/cp/tf-a/build/rebel_h/debug/bl2/bl2_arch_setup.o
 .debug_abbrev  0x0000000000000ad0      0x19a /home/jongja.cho/Git/legacy/rebel_cds_collab_hw/bootloader/cp/tf-a/build/rebel_h/debug/bl2/bl2_image_load_v2.o
 .debug_abbrev  0x0000000000000c6a      0x1f0 /home/jongja.cho/Git/legacy/rebel_cds_collab_hw/bootloader/cp/tf-a/build/rebel_h/debug/bl2/bl2_main.o
 .debug_abbrev  0x0000000000000e5a      0x2ea /home/jongja.cho/Git/legacy/rebel_cds_collab_hw/bootloader/cp/tf-a/build/rebel_h/debug/bl2/backtrace.o
 .debug_abbrev  0x0000000000001144      0x29d /home/jongja.cho/Git/legacy/rebel_cds_collab_hw/bootloader/cp/tf-a/build/rebel_h/debug/bl2/bl_common.o
 .debug_abbrev  0x00000000000013e1      0x29b /home/jongja.cho/Git/legacy/rebel_cds_collab_hw/bootloader/cp/tf-a/build/rebel_h/debug/bl2/desc_image_load.o
 .debug_abbrev  0x000000000000167c       0xc4 /home/jongja.cho/Git/legacy/rebel_cds_collab_hw/bootloader/cp/tf-a/build/rebel_h/debug/bl2/tf_crc32.o
 .debug_abbrev  0x0000000000001740      0x169 /home/jongja.cho/Git/legacy/rebel_cds_collab_hw/bootloader/cp/tf-a/build/rebel_h/debug/bl2/tf_log.o
 .debug_abbrev  0x00000000000018a9      0x4d0 /home/jongja.cho/Git/legacy/rebel_cds_collab_hw/bootloader/cp/tf-a/build/rebel_h/debug/bl2/pl330.o
 .debug_abbrev  0x0000000000001d79      0x463 /home/jongja.cho/Git/legacy/rebel_cds_collab_hw/bootloader/cp/tf-a/build/rebel_h/debug/bl2/cmu.o
 .debug_abbrev  0x00000000000021dc      0x257 /home/jongja.cho/Git/legacy/rebel_cds_collab_hw/bootloader/cp/tf-a/build/rebel_h/debug/bl2/multi_console.o
 .debug_abbrev  0x0000000000002433      0x179 /home/jongja.cho/Git/legacy/rebel_cds_collab_hw/bootloader/cp/tf-a/build/rebel_h/debug/bl2/delay_timer.o
 .debug_abbrev  0x00000000000025ac      0x253 /home/jongja.cho/Git/legacy/rebel_cds_collab_hw/bootloader/cp/tf-a/build/rebel_h/debug/bl2/generic_delay_timer.o
 .debug_abbrev  0x00000000000027ff      0x1e2 /home/jongja.cho/Git/legacy/rebel_cds_collab_hw/bootloader/cp/tf-a/build/rebel_h/debug/bl2/hbm3_chipid.o
 .debug_abbrev  0x00000000000029e1      0x6c6 /home/jongja.cho/Git/legacy/rebel_cds_collab_hw/bootloader/cp/tf-a/build/rebel_h/debug/bl2/hbm3_init.o
 .debug_abbrev  0x00000000000030a7      0x335 /home/jongja.cho/Git/legacy/rebel_cds_collab_hw/bootloader/cp/tf-a/build/rebel_h/debug/bl2/io_storage.o
 .debug_abbrev  0x00000000000033dc      0x23c /home/jongja.cho/Git/legacy/rebel_cds_collab_hw/bootloader/cp/tf-a/build/rebel_h/debug/bl2/mailbox.o
 .debug_abbrev  0x0000000000003618      0x1cc /home/jongja.cho/Git/legacy/rebel_cds_collab_hw/bootloader/cp/tf-a/build/rebel_h/debug/bl2/gpt.o
 .debug_abbrev  0x00000000000037e4      0x2ec /home/jongja.cho/Git/legacy/rebel_cds_collab_hw/bootloader/cp/tf-a/build/rebel_h/debug/bl2/partition_simple.o
 .debug_abbrev  0x0000000000003ad0      0x329 /home/jongja.cho/Git/legacy/rebel_cds_collab_hw/bootloader/cp/tf-a/build/rebel_h/debug/bl2/smmu.o
 .debug_abbrev  0x0000000000003df9      0x232 /home/jongja.cho/Git/legacy/rebel_cds_collab_hw/bootloader/cp/tf-a/build/rebel_h/debug/bl2/sic.o
 .debug_abbrev  0x000000000000402b      0x363 /home/jongja.cho/Git/legacy/rebel_cds_collab_hw/bootloader/cp/tf-a/build/rebel_h/debug/bl2/xlat_tables_arch.o
 .debug_abbrev  0x000000000000438e      0x25a /home/jongja.cho/Git/legacy/rebel_cds_collab_hw/bootloader/cp/tf-a/build/rebel_h/debug/bl2/xlat_tables_context.o
 .debug_abbrev  0x00000000000045e8      0x389 /home/jongja.cho/Git/legacy/rebel_cds_collab_hw/bootloader/cp/tf-a/build/rebel_h/debug/bl2/xlat_tables_core.o
 .debug_abbrev  0x0000000000004971      0x2c2 /home/jongja.cho/Git/legacy/rebel_cds_collab_hw/bootloader/cp/tf-a/build/rebel_h/debug/bl2/xlat_tables_utils.o
 .debug_abbrev  0x0000000000004c33      0x15a /home/jongja.cho/Git/legacy/rebel_cds_collab_hw/bootloader/cp/tf-a/build/rebel_h/debug/bl2/plat_common.o
 .debug_abbrev  0x0000000000004d8d      0x2ee /home/jongja.cho/Git/legacy/rebel_cds_collab_hw/bootloader/cp/tf-a/build/rebel_h/debug/bl2/plat_bl_common.o
 .debug_abbrev  0x000000000000507b       0xbf /home/jongja.cho/Git/legacy/rebel_cds_collab_hw/bootloader/cp/tf-a/build/rebel_h/debug/bl2/plat_log_common.o
 .debug_abbrev  0x000000000000513a      0x37b /home/jongja.cho/Git/legacy/rebel_cds_collab_hw/bootloader/cp/tf-a/build/rebel_h/debug/bl2/rebel_h_bl2_setup.o
 .debug_abbrev  0x00000000000054b5       0xf9 /home/jongja.cho/Git/legacy/rebel_cds_collab_hw/bootloader/cp/tf-a/build/rebel_h/debug/bl2/rebel_h_image_load.o
 .debug_abbrev  0x00000000000055ae      0x225 /home/jongja.cho/Git/legacy/rebel_cds_collab_hw/bootloader/cp/tf-a/build/rebel_h/debug/bl2/rebel_h_plat.o
 .debug_abbrev  0x00000000000057d3      0x2a6 /home/jongja.cho/Git/legacy/rebel_cds_collab_hw/bootloader/cp/tf-a/build/rebel_h/debug/bl2/rebel_h_pmu.o
 .debug_abbrev  0x0000000000005a79       0xdd /home/jongja.cho/Git/legacy/rebel_cds_collab_hw/bootloader/cp/tf-a/build/rebel_h/debug/bl2/rebel_h_topology.o
 .debug_abbrev  0x0000000000005b56       0x28 /home/jongja.cho/Git/legacy/rebel_cds_collab_hw/bootloader/cp/tf-a/build/rebel_h/debug/bl2/bl2_entrypoint.o
 .debug_abbrev  0x0000000000005b7e       0x26 /home/jongja.cho/Git/legacy/rebel_cds_collab_hw/bootloader/cp/tf-a/build/rebel_h/debug/bl2/debug.o
 .debug_abbrev  0x0000000000005ba4       0x14 /home/jongja.cho/Git/legacy/rebel_cds_collab_hw/bootloader/cp/tf-a/build/rebel_h/debug/bl2/early_exceptions.o
 .debug_abbrev  0x0000000000005bb8       0x26 /home/jongja.cho/Git/legacy/rebel_cds_collab_hw/bootloader/cp/tf-a/build/rebel_h/debug/bl2/16550_console.o
 .debug_abbrev  0x0000000000005bde       0x26 /home/jongja.cho/Git/legacy/rebel_cds_collab_hw/bootloader/cp/tf-a/build/rebel_h/debug/bl2/cache_helpers.o
 .debug_abbrev  0x0000000000005c04       0x26 /home/jongja.cho/Git/legacy/rebel_cds_collab_hw/bootloader/cp/tf-a/build/rebel_h/debug/bl2/misc_helpers.o
 .debug_abbrev  0x0000000000005c2a       0x26 /home/jongja.cho/Git/legacy/rebel_cds_collab_hw/bootloader/cp/tf-a/build/rebel_h/debug/bl2/enable_mmu.o
 .debug_abbrev  0x0000000000005c50       0x24 /home/jongja.cho/Git/legacy/rebel_cds_collab_hw/bootloader/cp/tf-a/build/rebel_h/debug/bl2/platform_helpers.o
 .debug_abbrev  0x0000000000005c74       0x24 /home/jongja.cho/Git/legacy/rebel_cds_collab_hw/bootloader/cp/tf-a/build/rebel_h/debug/bl2/platform_mp_stack.o
 .debug_abbrev  0x0000000000005c98       0x26 /home/jongja.cho/Git/legacy/rebel_cds_collab_hw/bootloader/cp/tf-a/build/rebel_h/debug/bl2/plat_helper.o
 .debug_abbrev  0x0000000000005cbe       0xde /home/jongja.cho/Git/legacy/rebel_cds_collab_hw/bootloader/cp/tf-a/build/rebel_h/debug/lib/libc.a(assert.o)
 .debug_abbrev  0x0000000000005d9c       0xa1 /home/jongja.cho/Git/legacy/rebel_cds_collab_hw/bootloader/cp/tf-a/build/rebel_h/debug/lib/libc.a(memcpy.o)
 .debug_abbrev  0x0000000000005e3d       0xc4 /home/jongja.cho/Git/legacy/rebel_cds_collab_hw/bootloader/cp/tf-a/build/rebel_h/debug/lib/libc.a(memmove.o)
 .debug_abbrev  0x0000000000005f01      0x260 /home/jongja.cho/Git/legacy/rebel_cds_collab_hw/bootloader/cp/tf-a/build/rebel_h/debug/lib/libc.a(printf.o)
 .debug_abbrev  0x0000000000006161      0x265 /home/jongja.cho/Git/legacy/rebel_cds_collab_hw/bootloader/cp/tf-a/build/rebel_h/debug/lib/libc.a(snprintf.o)
 .debug_abbrev  0x00000000000063c6       0x84 /home/jongja.cho/Git/legacy/rebel_cds_collab_hw/bootloader/cp/tf-a/build/rebel_h/debug/lib/libc.a(strlen.o)
 .debug_abbrev  0x000000000000644a       0x7b /home/jongja.cho/Git/legacy/rebel_cds_collab_hw/bootloader/cp/tf-a/build/rebel_h/debug/lib/libc.a(strncmp.o)
 .debug_abbrev  0x00000000000064c5       0xc8 /home/jongja.cho/Git/legacy/rebel_cds_collab_hw/bootloader/cp/tf-a/build/rebel_h/debug/lib/libc.a(memset.o)

.debug_loc      0x0000000000000000    0x24d5a
 .debug_loc     0x0000000000000000     0x12e1 /home/jongja.cho/Git/legacy/rebel_cds_collab_hw/bootloader/cp/tf-a/build/rebel_h/debug/bl2/hbm3.o
 .debug_loc     0x00000000000012e1     0x2eaf /home/jongja.cho/Git/legacy/rebel_cds_collab_hw/bootloader/cp/tf-a/build/rebel_h/debug/bl2/icon.o
 .debug_loc     0x0000000000004190      0x10b /home/jongja.cho/Git/legacy/rebel_cds_collab_hw/bootloader/cp/tf-a/build/rebel_h/debug/bl2/tmrs.o
 .debug_loc     0x000000000000429b      0x300 /home/jongja.cho/Git/legacy/rebel_cds_collab_hw/bootloader/cp/tf-a/build/rebel_h/debug/bl2/bakery_lock.o
 .debug_loc     0x000000000000459b       0x28 /home/jongja.cho/Git/legacy/rebel_cds_collab_hw/bootloader/cp/tf-a/build/rebel_h/debug/bl2/bl2_arch_setup.o
 .debug_loc     0x00000000000045c3      0x236 /home/jongja.cho/Git/legacy/rebel_cds_collab_hw/bootloader/cp/tf-a/build/rebel_h/debug/bl2/bl2_image_load_v2.o
 .debug_loc     0x00000000000047f9      0x12e /home/jongja.cho/Git/legacy/rebel_cds_collab_hw/bootloader/cp/tf-a/build/rebel_h/debug/bl2/bl2_main.o
 .debug_loc     0x0000000000004927      0x6a6 /home/jongja.cho/Git/legacy/rebel_cds_collab_hw/bootloader/cp/tf-a/build/rebel_h/debug/bl2/backtrace.o
 .debug_loc     0x0000000000004fcd      0x56f /home/jongja.cho/Git/legacy/rebel_cds_collab_hw/bootloader/cp/tf-a/build/rebel_h/debug/bl2/bl_common.o
 .debug_loc     0x000000000000553c      0xbaf /home/jongja.cho/Git/legacy/rebel_cds_collab_hw/bootloader/cp/tf-a/build/rebel_h/debug/bl2/desc_image_load.o
 .debug_loc     0x00000000000060eb      0x22e /home/jongja.cho/Git/legacy/rebel_cds_collab_hw/bootloader/cp/tf-a/build/rebel_h/debug/bl2/tf_crc32.o
 .debug_loc     0x0000000000006319      0x1fa /home/jongja.cho/Git/legacy/rebel_cds_collab_hw/bootloader/cp/tf-a/build/rebel_h/debug/bl2/tf_log.o
 .debug_loc     0x0000000000006513     0x2cb3 /home/jongja.cho/Git/legacy/rebel_cds_collab_hw/bootloader/cp/tf-a/build/rebel_h/debug/bl2/pl330.o
 .debug_loc     0x00000000000091c6     0x1053 /home/jongja.cho/Git/legacy/rebel_cds_collab_hw/bootloader/cp/tf-a/build/rebel_h/debug/bl2/cmu.o
 .debug_loc     0x000000000000a219      0x510 /home/jongja.cho/Git/legacy/rebel_cds_collab_hw/bootloader/cp/tf-a/build/rebel_h/debug/bl2/multi_console.o
 .debug_loc     0x000000000000a729      0x2de /home/jongja.cho/Git/legacy/rebel_cds_collab_hw/bootloader/cp/tf-a/build/rebel_h/debug/bl2/delay_timer.o
 .debug_loc     0x000000000000aa07      0x322 /home/jongja.cho/Git/legacy/rebel_cds_collab_hw/bootloader/cp/tf-a/build/rebel_h/debug/bl2/generic_delay_timer.o
 .debug_loc     0x000000000000ad29      0x2b3 /home/jongja.cho/Git/legacy/rebel_cds_collab_hw/bootloader/cp/tf-a/build/rebel_h/debug/bl2/hbm3_chipid.o
 .debug_loc     0x000000000000afdc     0xa2dc /home/jongja.cho/Git/legacy/rebel_cds_collab_hw/bootloader/cp/tf-a/build/rebel_h/debug/bl2/hbm3_init.o
 .debug_loc     0x00000000000152b8     0x1a9c /home/jongja.cho/Git/legacy/rebel_cds_collab_hw/bootloader/cp/tf-a/build/rebel_h/debug/bl2/io_storage.o
 .debug_loc     0x0000000000016d54      0x9d5 /home/jongja.cho/Git/legacy/rebel_cds_collab_hw/bootloader/cp/tf-a/build/rebel_h/debug/bl2/mailbox.o
 .debug_loc     0x0000000000017729      0x3a0 /home/jongja.cho/Git/legacy/rebel_cds_collab_hw/bootloader/cp/tf-a/build/rebel_h/debug/bl2/gpt.o
 .debug_loc     0x0000000000017ac9      0xa31 /home/jongja.cho/Git/legacy/rebel_cds_collab_hw/bootloader/cp/tf-a/build/rebel_h/debug/bl2/partition_simple.o
 .debug_loc     0x00000000000184fa     0x21ef /home/jongja.cho/Git/legacy/rebel_cds_collab_hw/bootloader/cp/tf-a/build/rebel_h/debug/bl2/smmu.o
 .debug_loc     0x000000000001a6e9      0x198 /home/jongja.cho/Git/legacy/rebel_cds_collab_hw/bootloader/cp/tf-a/build/rebel_h/debug/bl2/sic.o
 .debug_loc     0x000000000001a881      0xded /home/jongja.cho/Git/legacy/rebel_cds_collab_hw/bootloader/cp/tf-a/build/rebel_h/debug/bl2/xlat_tables_arch.o
 .debug_loc     0x000000000001b66e      0x6da /home/jongja.cho/Git/legacy/rebel_cds_collab_hw/bootloader/cp/tf-a/build/rebel_h/debug/bl2/xlat_tables_context.o
 .debug_loc     0x000000000001bd48     0x1e5e /home/jongja.cho/Git/legacy/rebel_cds_collab_hw/bootloader/cp/tf-a/build/rebel_h/debug/bl2/xlat_tables_core.o
 .debug_loc     0x000000000001dba6     0x112b /home/jongja.cho/Git/legacy/rebel_cds_collab_hw/bootloader/cp/tf-a/build/rebel_h/debug/bl2/xlat_tables_utils.o
 .debug_loc     0x000000000001ecd1       0xe1 /home/jongja.cho/Git/legacy/rebel_cds_collab_hw/bootloader/cp/tf-a/build/rebel_h/debug/bl2/plat_common.o
 .debug_loc     0x000000000001edb2      0x318 /home/jongja.cho/Git/legacy/rebel_cds_collab_hw/bootloader/cp/tf-a/build/rebel_h/debug/bl2/plat_bl_common.o
 .debug_loc     0x000000000001f0ca       0xd6 /home/jongja.cho/Git/legacy/rebel_cds_collab_hw/bootloader/cp/tf-a/build/rebel_h/debug/bl2/plat_log_common.o
 .debug_loc     0x000000000001f1a0     0x111a /home/jongja.cho/Git/legacy/rebel_cds_collab_hw/bootloader/cp/tf-a/build/rebel_h/debug/bl2/rebel_h_bl2_setup.o
 .debug_loc     0x00000000000202ba      0x7f3 /home/jongja.cho/Git/legacy/rebel_cds_collab_hw/bootloader/cp/tf-a/build/rebel_h/debug/bl2/rebel_h_plat.o
 .debug_loc     0x0000000000020aad      0x9e2 /home/jongja.cho/Git/legacy/rebel_cds_collab_hw/bootloader/cp/tf-a/build/rebel_h/debug/bl2/rebel_h_pmu.o
 .debug_loc     0x000000000002148f      0x129 /home/jongja.cho/Git/legacy/rebel_cds_collab_hw/bootloader/cp/tf-a/build/rebel_h/debug/bl2/rebel_h_topology.o
 .debug_loc     0x00000000000215b8      0x15e /home/jongja.cho/Git/legacy/rebel_cds_collab_hw/bootloader/cp/tf-a/build/rebel_h/debug/lib/libc.a(memcpy.o)
 .debug_loc     0x0000000000021716      0x1ff /home/jongja.cho/Git/legacy/rebel_cds_collab_hw/bootloader/cp/tf-a/build/rebel_h/debug/lib/libc.a(memmove.o)
 .debug_loc     0x0000000000021915     0x1ad1 /home/jongja.cho/Git/legacy/rebel_cds_collab_hw/bootloader/cp/tf-a/build/rebel_h/debug/lib/libc.a(printf.o)
 .debug_loc     0x00000000000233e6     0x138b /home/jongja.cho/Git/legacy/rebel_cds_collab_hw/bootloader/cp/tf-a/build/rebel_h/debug/lib/libc.a(snprintf.o)
 .debug_loc     0x0000000000024771       0x8c /home/jongja.cho/Git/legacy/rebel_cds_collab_hw/bootloader/cp/tf-a/build/rebel_h/debug/lib/libc.a(strlen.o)
 .debug_loc     0x00000000000247fd      0x1ae /home/jongja.cho/Git/legacy/rebel_cds_collab_hw/bootloader/cp/tf-a/build/rebel_h/debug/lib/libc.a(strncmp.o)
 .debug_loc     0x00000000000249ab      0x3af /home/jongja.cho/Git/legacy/rebel_cds_collab_hw/bootloader/cp/tf-a/build/rebel_h/debug/lib/libc.a(memset.o)

.debug_aranges  0x0000000000000000     0x1df0
 .debug_aranges
                0x0000000000000000      0x140 /home/jongja.cho/Git/legacy/rebel_cds_collab_hw/bootloader/cp/tf-a/build/rebel_h/debug/bl2/hbm3.o
 .debug_aranges
                0x0000000000000140      0x210 /home/jongja.cho/Git/legacy/rebel_cds_collab_hw/bootloader/cp/tf-a/build/rebel_h/debug/bl2/icon.o
 .debug_aranges
                0x0000000000000350       0x50 /home/jongja.cho/Git/legacy/rebel_cds_collab_hw/bootloader/cp/tf-a/build/rebel_h/debug/bl2/tmrs.o
 .debug_aranges
                0x00000000000003a0       0x50 /home/jongja.cho/Git/legacy/rebel_cds_collab_hw/bootloader/cp/tf-a/build/rebel_h/debug/bl2/bakery_lock.o
 .debug_aranges
                0x00000000000003f0       0x30 /home/jongja.cho/Git/legacy/rebel_cds_collab_hw/bootloader/cp/tf-a/build/rebel_h/debug/bl2/bl2_arch_setup.o
 .debug_aranges
                0x0000000000000420       0x30 /home/jongja.cho/Git/legacy/rebel_cds_collab_hw/bootloader/cp/tf-a/build/rebel_h/debug/bl2/bl2_image_load_v2.o
 .debug_aranges
                0x0000000000000450       0x30 /home/jongja.cho/Git/legacy/rebel_cds_collab_hw/bootloader/cp/tf-a/build/rebel_h/debug/bl2/bl2_main.o
 .debug_aranges
                0x0000000000000480       0x50 /home/jongja.cho/Git/legacy/rebel_cds_collab_hw/bootloader/cp/tf-a/build/rebel_h/debug/bl2/backtrace.o
 .debug_aranges
                0x00000000000004d0       0x70 /home/jongja.cho/Git/legacy/rebel_cds_collab_hw/bootloader/cp/tf-a/build/rebel_h/debug/bl2/bl_common.o
 .debug_aranges
                0x0000000000000540       0xa0 /home/jongja.cho/Git/legacy/rebel_cds_collab_hw/bootloader/cp/tf-a/build/rebel_h/debug/bl2/desc_image_load.o
 .debug_aranges
                0x00000000000005e0       0x30 /home/jongja.cho/Git/legacy/rebel_cds_collab_hw/bootloader/cp/tf-a/build/rebel_h/debug/bl2/tf_crc32.o
 .debug_aranges
                0x0000000000000610       0x50 /home/jongja.cho/Git/legacy/rebel_cds_collab_hw/bootloader/cp/tf-a/build/rebel_h/debug/bl2/tf_log.o
 .debug_aranges
                0x0000000000000660       0x80 /home/jongja.cho/Git/legacy/rebel_cds_collab_hw/bootloader/cp/tf-a/build/rebel_h/debug/bl2/pl330.o
 .debug_aranges
                0x00000000000006e0      0x100 /home/jongja.cho/Git/legacy/rebel_cds_collab_hw/bootloader/cp/tf-a/build/rebel_h/debug/bl2/cmu.o
 .debug_aranges
                0x00000000000007e0       0xa0 /home/jongja.cho/Git/legacy/rebel_cds_collab_hw/bootloader/cp/tf-a/build/rebel_h/debug/bl2/multi_console.o
 .debug_aranges
                0x0000000000000880       0x70 /home/jongja.cho/Git/legacy/rebel_cds_collab_hw/bootloader/cp/tf-a/build/rebel_h/debug/bl2/delay_timer.o
 .debug_aranges
                0x00000000000008f0       0x70 /home/jongja.cho/Git/legacy/rebel_cds_collab_hw/bootloader/cp/tf-a/build/rebel_h/debug/bl2/generic_delay_timer.o
 .debug_aranges
                0x0000000000000960       0x30 /home/jongja.cho/Git/legacy/rebel_cds_collab_hw/bootloader/cp/tf-a/build/rebel_h/debug/bl2/hbm3_chipid.o
 .debug_aranges
                0x0000000000000990      0x400 /home/jongja.cho/Git/legacy/rebel_cds_collab_hw/bootloader/cp/tf-a/build/rebel_h/debug/bl2/hbm3_init.o
 .debug_aranges
                0x0000000000000d90       0xf0 /home/jongja.cho/Git/legacy/rebel_cds_collab_hw/bootloader/cp/tf-a/build/rebel_h/debug/bl2/io_storage.o
 .debug_aranges
                0x0000000000000e80       0x50 /home/jongja.cho/Git/legacy/rebel_cds_collab_hw/bootloader/cp/tf-a/build/rebel_h/debug/bl2/mailbox.o
 .debug_aranges
                0x0000000000000ed0       0x30 /home/jongja.cho/Git/legacy/rebel_cds_collab_hw/bootloader/cp/tf-a/build/rebel_h/debug/bl2/gpt.o
 .debug_aranges
                0x0000000000000f00      0x120 /home/jongja.cho/Git/legacy/rebel_cds_collab_hw/bootloader/cp/tf-a/build/rebel_h/debug/bl2/partition_simple.o
 .debug_aranges
                0x0000000000001020       0x50 /home/jongja.cho/Git/legacy/rebel_cds_collab_hw/bootloader/cp/tf-a/build/rebel_h/debug/bl2/smmu.o
 .debug_aranges
                0x0000000000001070       0x40 /home/jongja.cho/Git/legacy/rebel_cds_collab_hw/bootloader/cp/tf-a/build/rebel_h/debug/bl2/sic.o
 .debug_aranges
                0x00000000000010b0      0x100 /home/jongja.cho/Git/legacy/rebel_cds_collab_hw/bootloader/cp/tf-a/build/rebel_h/debug/bl2/xlat_tables_arch.o
 .debug_aranges
                0x00000000000011b0       0xe0 /home/jongja.cho/Git/legacy/rebel_cds_collab_hw/bootloader/cp/tf-a/build/rebel_h/debug/bl2/xlat_tables_context.o
 .debug_aranges
                0x0000000000001290       0x80 /home/jongja.cho/Git/legacy/rebel_cds_collab_hw/bootloader/cp/tf-a/build/rebel_h/debug/bl2/xlat_tables_core.o
 .debug_aranges
                0x0000000000001310       0x80 /home/jongja.cho/Git/legacy/rebel_cds_collab_hw/bootloader/cp/tf-a/build/rebel_h/debug/bl2/xlat_tables_utils.o
 .debug_aranges
                0x0000000000001390       0x50 /home/jongja.cho/Git/legacy/rebel_cds_collab_hw/bootloader/cp/tf-a/build/rebel_h/debug/bl2/plat_common.o
 .debug_aranges
                0x00000000000013e0       0xe0 /home/jongja.cho/Git/legacy/rebel_cds_collab_hw/bootloader/cp/tf-a/build/rebel_h/debug/bl2/plat_bl_common.o
 .debug_aranges
                0x00000000000014c0       0x30 /home/jongja.cho/Git/legacy/rebel_cds_collab_hw/bootloader/cp/tf-a/build/rebel_h/debug/bl2/plat_log_common.o
 .debug_aranges
                0x00000000000014f0       0x70 /home/jongja.cho/Git/legacy/rebel_cds_collab_hw/bootloader/cp/tf-a/build/rebel_h/debug/bl2/rebel_h_bl2_setup.o
 .debug_aranges
                0x0000000000001560       0x50 /home/jongja.cho/Git/legacy/rebel_cds_collab_hw/bootloader/cp/tf-a/build/rebel_h/debug/bl2/rebel_h_image_load.o
 .debug_aranges
                0x00000000000015b0       0x90 /home/jongja.cho/Git/legacy/rebel_cds_collab_hw/bootloader/cp/tf-a/build/rebel_h/debug/bl2/rebel_h_plat.o
 .debug_aranges
                0x0000000000001640       0xa0 /home/jongja.cho/Git/legacy/rebel_cds_collab_hw/bootloader/cp/tf-a/build/rebel_h/debug/bl2/rebel_h_pmu.o
 .debug_aranges
                0x00000000000016e0       0x40 /home/jongja.cho/Git/legacy/rebel_cds_collab_hw/bootloader/cp/tf-a/build/rebel_h/debug/bl2/rebel_h_topology.o
 .debug_aranges
                0x0000000000001720       0x30 /home/jongja.cho/Git/legacy/rebel_cds_collab_hw/bootloader/cp/tf-a/build/rebel_h/debug/bl2/bl2_entrypoint.o
 .debug_aranges
                0x0000000000001750       0x80 /home/jongja.cho/Git/legacy/rebel_cds_collab_hw/bootloader/cp/tf-a/build/rebel_h/debug/bl2/debug.o
 .debug_aranges
                0x00000000000017d0       0x30 /home/jongja.cho/Git/legacy/rebel_cds_collab_hw/bootloader/cp/tf-a/build/rebel_h/debug/bl2/early_exceptions.o
 .debug_aranges
                0x0000000000001800       0xa0 /home/jongja.cho/Git/legacy/rebel_cds_collab_hw/bootloader/cp/tf-a/build/rebel_h/debug/bl2/16550_console.o
 .debug_aranges
                0x00000000000018a0       0xd0 /home/jongja.cho/Git/legacy/rebel_cds_collab_hw/bootloader/cp/tf-a/build/rebel_h/debug/bl2/cache_helpers.o
 .debug_aranges
                0x0000000000001970       0xb0 /home/jongja.cho/Git/legacy/rebel_cds_collab_hw/bootloader/cp/tf-a/build/rebel_h/debug/bl2/misc_helpers.o
 .debug_aranges
                0x0000000000001a20       0x60 /home/jongja.cho/Git/legacy/rebel_cds_collab_hw/bootloader/cp/tf-a/build/rebel_h/debug/bl2/enable_mmu.o
 .debug_aranges
                0x0000000000001a80       0xc0 /home/jongja.cho/Git/legacy/rebel_cds_collab_hw/bootloader/cp/tf-a/build/rebel_h/debug/bl2/platform_helpers.o
 .debug_aranges
                0x0000000000001b40       0x40 /home/jongja.cho/Git/legacy/rebel_cds_collab_hw/bootloader/cp/tf-a/build/rebel_h/debug/bl2/platform_mp_stack.o
 .debug_aranges
                0x0000000000001b80       0xb0 /home/jongja.cho/Git/legacy/rebel_cds_collab_hw/bootloader/cp/tf-a/build/rebel_h/debug/bl2/plat_helper.o
 .debug_aranges
                0x0000000000001c30       0x30 /home/jongja.cho/Git/legacy/rebel_cds_collab_hw/bootloader/cp/tf-a/build/rebel_h/debug/lib/libc.a(assert.o)
 .debug_aranges
                0x0000000000001c60       0x30 /home/jongja.cho/Git/legacy/rebel_cds_collab_hw/bootloader/cp/tf-a/build/rebel_h/debug/lib/libc.a(memcpy.o)
 .debug_aranges
                0x0000000000001c90       0x30 /home/jongja.cho/Git/legacy/rebel_cds_collab_hw/bootloader/cp/tf-a/build/rebel_h/debug/lib/libc.a(memmove.o)
 .debug_aranges
                0x0000000000001cc0       0x50 /home/jongja.cho/Git/legacy/rebel_cds_collab_hw/bootloader/cp/tf-a/build/rebel_h/debug/lib/libc.a(printf.o)
 .debug_aranges
                0x0000000000001d10       0x50 /home/jongja.cho/Git/legacy/rebel_cds_collab_hw/bootloader/cp/tf-a/build/rebel_h/debug/lib/libc.a(snprintf.o)
 .debug_aranges
                0x0000000000001d60       0x30 /home/jongja.cho/Git/legacy/rebel_cds_collab_hw/bootloader/cp/tf-a/build/rebel_h/debug/lib/libc.a(strlen.o)
 .debug_aranges
                0x0000000000001d90       0x30 /home/jongja.cho/Git/legacy/rebel_cds_collab_hw/bootloader/cp/tf-a/build/rebel_h/debug/lib/libc.a(strncmp.o)
 .debug_aranges
                0x0000000000001dc0       0x30 /home/jongja.cho/Git/legacy/rebel_cds_collab_hw/bootloader/cp/tf-a/build/rebel_h/debug/lib/libc.a(memset.o)

.debug_ranges   0x0000000000000000     0x4ee0
 .debug_ranges  0x0000000000000000      0x170 /home/jongja.cho/Git/legacy/rebel_cds_collab_hw/bootloader/cp/tf-a/build/rebel_h/debug/bl2/hbm3.o
 .debug_ranges  0x0000000000000170      0x260 /home/jongja.cho/Git/legacy/rebel_cds_collab_hw/bootloader/cp/tf-a/build/rebel_h/debug/bl2/icon.o
 .debug_ranges  0x00000000000003d0       0x40 /home/jongja.cho/Git/legacy/rebel_cds_collab_hw/bootloader/cp/tf-a/build/rebel_h/debug/bl2/tmrs.o
 .debug_ranges  0x0000000000000410       0xf0 /home/jongja.cho/Git/legacy/rebel_cds_collab_hw/bootloader/cp/tf-a/build/rebel_h/debug/bl2/bakery_lock.o
 .debug_ranges  0x0000000000000500       0x20 /home/jongja.cho/Git/legacy/rebel_cds_collab_hw/bootloader/cp/tf-a/build/rebel_h/debug/bl2/bl2_arch_setup.o
 .debug_ranges  0x0000000000000520       0x20 /home/jongja.cho/Git/legacy/rebel_cds_collab_hw/bootloader/cp/tf-a/build/rebel_h/debug/bl2/bl2_image_load_v2.o
 .debug_ranges  0x0000000000000540       0x20 /home/jongja.cho/Git/legacy/rebel_cds_collab_hw/bootloader/cp/tf-a/build/rebel_h/debug/bl2/bl2_main.o
 .debug_ranges  0x0000000000000560       0xa0 /home/jongja.cho/Git/legacy/rebel_cds_collab_hw/bootloader/cp/tf-a/build/rebel_h/debug/bl2/backtrace.o
 .debug_ranges  0x0000000000000600       0x60 /home/jongja.cho/Git/legacy/rebel_cds_collab_hw/bootloader/cp/tf-a/build/rebel_h/debug/bl2/bl_common.o
 .debug_ranges  0x0000000000000660       0xc0 /home/jongja.cho/Git/legacy/rebel_cds_collab_hw/bootloader/cp/tf-a/build/rebel_h/debug/bl2/desc_image_load.o
 .debug_ranges  0x0000000000000720       0x20 /home/jongja.cho/Git/legacy/rebel_cds_collab_hw/bootloader/cp/tf-a/build/rebel_h/debug/bl2/tf_crc32.o
 .debug_ranges  0x0000000000000740       0x40 /home/jongja.cho/Git/legacy/rebel_cds_collab_hw/bootloader/cp/tf-a/build/rebel_h/debug/bl2/tf_log.o
 .debug_ranges  0x0000000000000780      0x8b0 /home/jongja.cho/Git/legacy/rebel_cds_collab_hw/bootloader/cp/tf-a/build/rebel_h/debug/bl2/pl330.o
 .debug_ranges  0x0000000000001030      0x3f0 /home/jongja.cho/Git/legacy/rebel_cds_collab_hw/bootloader/cp/tf-a/build/rebel_h/debug/bl2/cmu.o
 .debug_ranges  0x0000000000001420       0xc0 /home/jongja.cho/Git/legacy/rebel_cds_collab_hw/bootloader/cp/tf-a/build/rebel_h/debug/bl2/multi_console.o
 .debug_ranges  0x00000000000014e0       0x60 /home/jongja.cho/Git/legacy/rebel_cds_collab_hw/bootloader/cp/tf-a/build/rebel_h/debug/bl2/delay_timer.o
 .debug_ranges  0x0000000000001540       0x90 /home/jongja.cho/Git/legacy/rebel_cds_collab_hw/bootloader/cp/tf-a/build/rebel_h/debug/bl2/generic_delay_timer.o
 .debug_ranges  0x00000000000015d0       0x90 /home/jongja.cho/Git/legacy/rebel_cds_collab_hw/bootloader/cp/tf-a/build/rebel_h/debug/bl2/hbm3_chipid.o
 .debug_ranges  0x0000000000001660     0x1330 /home/jongja.cho/Git/legacy/rebel_cds_collab_hw/bootloader/cp/tf-a/build/rebel_h/debug/bl2/hbm3_init.o
 .debug_ranges  0x0000000000002990      0x230 /home/jongja.cho/Git/legacy/rebel_cds_collab_hw/bootloader/cp/tf-a/build/rebel_h/debug/bl2/io_storage.o
 .debug_ranges  0x0000000000002bc0       0x40 /home/jongja.cho/Git/legacy/rebel_cds_collab_hw/bootloader/cp/tf-a/build/rebel_h/debug/bl2/mailbox.o
 .debug_ranges  0x0000000000002c00       0xd0 /home/jongja.cho/Git/legacy/rebel_cds_collab_hw/bootloader/cp/tf-a/build/rebel_h/debug/bl2/gpt.o
 .debug_ranges  0x0000000000002cd0      0x140 /home/jongja.cho/Git/legacy/rebel_cds_collab_hw/bootloader/cp/tf-a/build/rebel_h/debug/bl2/partition_simple.o
 .debug_ranges  0x0000000000002e10      0x4a0 /home/jongja.cho/Git/legacy/rebel_cds_collab_hw/bootloader/cp/tf-a/build/rebel_h/debug/bl2/smmu.o
 .debug_ranges  0x00000000000032b0      0x170 /home/jongja.cho/Git/legacy/rebel_cds_collab_hw/bootloader/cp/tf-a/build/rebel_h/debug/bl2/sic.o
 .debug_ranges  0x0000000000003420      0x210 /home/jongja.cho/Git/legacy/rebel_cds_collab_hw/bootloader/cp/tf-a/build/rebel_h/debug/bl2/xlat_tables_arch.o
 .debug_ranges  0x0000000000003630       0xd0 /home/jongja.cho/Git/legacy/rebel_cds_collab_hw/bootloader/cp/tf-a/build/rebel_h/debug/bl2/xlat_tables_context.o
 .debug_ranges  0x0000000000003700      0x3f0 /home/jongja.cho/Git/legacy/rebel_cds_collab_hw/bootloader/cp/tf-a/build/rebel_h/debug/bl2/xlat_tables_core.o
 .debug_ranges  0x0000000000003af0      0x1f0 /home/jongja.cho/Git/legacy/rebel_cds_collab_hw/bootloader/cp/tf-a/build/rebel_h/debug/bl2/xlat_tables_utils.o
 .debug_ranges  0x0000000000003ce0       0x40 /home/jongja.cho/Git/legacy/rebel_cds_collab_hw/bootloader/cp/tf-a/build/rebel_h/debug/bl2/plat_common.o
 .debug_ranges  0x0000000000003d20       0xd0 /home/jongja.cho/Git/legacy/rebel_cds_collab_hw/bootloader/cp/tf-a/build/rebel_h/debug/bl2/plat_bl_common.o
 .debug_ranges  0x0000000000003df0       0x20 /home/jongja.cho/Git/legacy/rebel_cds_collab_hw/bootloader/cp/tf-a/build/rebel_h/debug/bl2/plat_log_common.o
 .debug_ranges  0x0000000000003e10      0x440 /home/jongja.cho/Git/legacy/rebel_cds_collab_hw/bootloader/cp/tf-a/build/rebel_h/debug/bl2/rebel_h_bl2_setup.o
 .debug_ranges  0x0000000000004250       0x40 /home/jongja.cho/Git/legacy/rebel_cds_collab_hw/bootloader/cp/tf-a/build/rebel_h/debug/bl2/rebel_h_image_load.o
 .debug_ranges  0x0000000000004290      0x230 /home/jongja.cho/Git/legacy/rebel_cds_collab_hw/bootloader/cp/tf-a/build/rebel_h/debug/bl2/rebel_h_plat.o
 .debug_ranges  0x00000000000044c0      0x1c0 /home/jongja.cho/Git/legacy/rebel_cds_collab_hw/bootloader/cp/tf-a/build/rebel_h/debug/bl2/rebel_h_pmu.o
 .debug_ranges  0x0000000000004680       0x30 /home/jongja.cho/Git/legacy/rebel_cds_collab_hw/bootloader/cp/tf-a/build/rebel_h/debug/bl2/rebel_h_topology.o
 .debug_ranges  0x00000000000046b0       0x80 /home/jongja.cho/Git/legacy/rebel_cds_collab_hw/bootloader/cp/tf-a/build/rebel_h/debug/bl2/debug.o
 .debug_ranges  0x0000000000004730       0xa0 /home/jongja.cho/Git/legacy/rebel_cds_collab_hw/bootloader/cp/tf-a/build/rebel_h/debug/bl2/16550_console.o
 .debug_ranges  0x00000000000047d0       0xd0 /home/jongja.cho/Git/legacy/rebel_cds_collab_hw/bootloader/cp/tf-a/build/rebel_h/debug/bl2/cache_helpers.o
 .debug_ranges  0x00000000000048a0       0xb0 /home/jongja.cho/Git/legacy/rebel_cds_collab_hw/bootloader/cp/tf-a/build/rebel_h/debug/bl2/misc_helpers.o
 .debug_ranges  0x0000000000004950       0x60 /home/jongja.cho/Git/legacy/rebel_cds_collab_hw/bootloader/cp/tf-a/build/rebel_h/debug/bl2/enable_mmu.o
 .debug_ranges  0x00000000000049b0       0xc0 /home/jongja.cho/Git/legacy/rebel_cds_collab_hw/bootloader/cp/tf-a/build/rebel_h/debug/bl2/platform_helpers.o
 .debug_ranges  0x0000000000004a70       0x40 /home/jongja.cho/Git/legacy/rebel_cds_collab_hw/bootloader/cp/tf-a/build/rebel_h/debug/bl2/platform_mp_stack.o
 .debug_ranges  0x0000000000004ab0       0xb0 /home/jongja.cho/Git/legacy/rebel_cds_collab_hw/bootloader/cp/tf-a/build/rebel_h/debug/bl2/plat_helper.o
 .debug_ranges  0x0000000000004b60       0x20 /home/jongja.cho/Git/legacy/rebel_cds_collab_hw/bootloader/cp/tf-a/build/rebel_h/debug/lib/libc.a(assert.o)
 .debug_ranges  0x0000000000004b80       0x20 /home/jongja.cho/Git/legacy/rebel_cds_collab_hw/bootloader/cp/tf-a/build/rebel_h/debug/lib/libc.a(memcpy.o)
 .debug_ranges  0x0000000000004ba0       0x50 /home/jongja.cho/Git/legacy/rebel_cds_collab_hw/bootloader/cp/tf-a/build/rebel_h/debug/lib/libc.a(memmove.o)
 .debug_ranges  0x0000000000004bf0      0x1e0 /home/jongja.cho/Git/legacy/rebel_cds_collab_hw/bootloader/cp/tf-a/build/rebel_h/debug/lib/libc.a(printf.o)
 .debug_ranges  0x0000000000004dd0       0xb0 /home/jongja.cho/Git/legacy/rebel_cds_collab_hw/bootloader/cp/tf-a/build/rebel_h/debug/lib/libc.a(snprintf.o)
 .debug_ranges  0x0000000000004e80       0x20 /home/jongja.cho/Git/legacy/rebel_cds_collab_hw/bootloader/cp/tf-a/build/rebel_h/debug/lib/libc.a(strlen.o)
 .debug_ranges  0x0000000000004ea0       0x20 /home/jongja.cho/Git/legacy/rebel_cds_collab_hw/bootloader/cp/tf-a/build/rebel_h/debug/lib/libc.a(strncmp.o)
 .debug_ranges  0x0000000000004ec0       0x20 /home/jongja.cho/Git/legacy/rebel_cds_collab_hw/bootloader/cp/tf-a/build/rebel_h/debug/lib/libc.a(memset.o)

.debug_line     0x0000000000000000    0x1195c
 .debug_line    0x0000000000000000      0x6b3 /home/jongja.cho/Git/legacy/rebel_cds_collab_hw/bootloader/cp/tf-a/build/rebel_h/debug/bl2/hbm3.o
 .debug_line    0x00000000000006b3     0x1500 /home/jongja.cho/Git/legacy/rebel_cds_collab_hw/bootloader/cp/tf-a/build/rebel_h/debug/bl2/icon.o
 .debug_line    0x0000000000001bb3      0x1e2 /home/jongja.cho/Git/legacy/rebel_cds_collab_hw/bootloader/cp/tf-a/build/rebel_h/debug/bl2/tmrs.o
 .debug_line    0x0000000000001d95      0x2ca /home/jongja.cho/Git/legacy/rebel_cds_collab_hw/bootloader/cp/tf-a/build/rebel_h/debug/bl2/bakery_lock.o
 .debug_line    0x000000000000205f       0xc9 /home/jongja.cho/Git/legacy/rebel_cds_collab_hw/bootloader/cp/tf-a/build/rebel_h/debug/bl2/bl2_arch_setup.o
 .debug_line    0x0000000000002128      0x23f /home/jongja.cho/Git/legacy/rebel_cds_collab_hw/bootloader/cp/tf-a/build/rebel_h/debug/bl2/bl2_image_load_v2.o
 .debug_line    0x0000000000002367      0x21d /home/jongja.cho/Git/legacy/rebel_cds_collab_hw/bootloader/cp/tf-a/build/rebel_h/debug/bl2/bl2_main.o
 .debug_line    0x0000000000002584      0x398 /home/jongja.cho/Git/legacy/rebel_cds_collab_hw/bootloader/cp/tf-a/build/rebel_h/debug/bl2/backtrace.o
 .debug_line    0x000000000000291c      0x3f9 /home/jongja.cho/Git/legacy/rebel_cds_collab_hw/bootloader/cp/tf-a/build/rebel_h/debug/bl2/bl_common.o
 .debug_line    0x0000000000002d15      0x5b4 /home/jongja.cho/Git/legacy/rebel_cds_collab_hw/bootloader/cp/tf-a/build/rebel_h/debug/bl2/desc_image_load.o
 .debug_line    0x00000000000032c9       0xd3 /home/jongja.cho/Git/legacy/rebel_cds_collab_hw/bootloader/cp/tf-a/build/rebel_h/debug/bl2/tf_crc32.o
 .debug_line    0x000000000000339c      0x1b2 /home/jongja.cho/Git/legacy/rebel_cds_collab_hw/bootloader/cp/tf-a/build/rebel_h/debug/bl2/tf_log.o
 .debug_line    0x000000000000354e      0xc7c /home/jongja.cho/Git/legacy/rebel_cds_collab_hw/bootloader/cp/tf-a/build/rebel_h/debug/bl2/pl330.o
 .debug_line    0x00000000000041ca      0xc32 /home/jongja.cho/Git/legacy/rebel_cds_collab_hw/bootloader/cp/tf-a/build/rebel_h/debug/bl2/cmu.o
 .debug_line    0x0000000000004dfc      0x33b /home/jongja.cho/Git/legacy/rebel_cds_collab_hw/bootloader/cp/tf-a/build/rebel_h/debug/bl2/multi_console.o
 .debug_line    0x0000000000005137      0x1fb /home/jongja.cho/Git/legacy/rebel_cds_collab_hw/bootloader/cp/tf-a/build/rebel_h/debug/bl2/delay_timer.o
 .debug_line    0x0000000000005332      0x2b9 /home/jongja.cho/Git/legacy/rebel_cds_collab_hw/bootloader/cp/tf-a/build/rebel_h/debug/bl2/generic_delay_timer.o
 .debug_line    0x00000000000055eb      0x269 /home/jongja.cho/Git/legacy/rebel_cds_collab_hw/bootloader/cp/tf-a/build/rebel_h/debug/bl2/hbm3_chipid.o
 .debug_line    0x0000000000005854     0x4f33 /home/jongja.cho/Git/legacy/rebel_cds_collab_hw/bootloader/cp/tf-a/build/rebel_h/debug/bl2/hbm3_init.o
 .debug_line    0x000000000000a787      0x5e0 /home/jongja.cho/Git/legacy/rebel_cds_collab_hw/bootloader/cp/tf-a/build/rebel_h/debug/bl2/io_storage.o
 .debug_line    0x000000000000ad67      0x263 /home/jongja.cho/Git/legacy/rebel_cds_collab_hw/bootloader/cp/tf-a/build/rebel_h/debug/bl2/mailbox.o
 .debug_line    0x000000000000afca      0x263 /home/jongja.cho/Git/legacy/rebel_cds_collab_hw/bootloader/cp/tf-a/build/rebel_h/debug/bl2/gpt.o
 .debug_line    0x000000000000b22d      0x6d3 /home/jongja.cho/Git/legacy/rebel_cds_collab_hw/bootloader/cp/tf-a/build/rebel_h/debug/bl2/partition_simple.o
 .debug_line    0x000000000000b900      0xd11 /home/jongja.cho/Git/legacy/rebel_cds_collab_hw/bootloader/cp/tf-a/build/rebel_h/debug/bl2/smmu.o
 .debug_line    0x000000000000c611      0x25d /home/jongja.cho/Git/legacy/rebel_cds_collab_hw/bootloader/cp/tf-a/build/rebel_h/debug/bl2/sic.o
 .debug_line    0x000000000000c86e      0x6d3 /home/jongja.cho/Git/legacy/rebel_cds_collab_hw/bootloader/cp/tf-a/build/rebel_h/debug/bl2/xlat_tables_arch.o
 .debug_line    0x000000000000cf41      0x3ac /home/jongja.cho/Git/legacy/rebel_cds_collab_hw/bootloader/cp/tf-a/build/rebel_h/debug/bl2/xlat_tables_context.o
 .debug_line    0x000000000000d2ed      0x89b /home/jongja.cho/Git/legacy/rebel_cds_collab_hw/bootloader/cp/tf-a/build/rebel_h/debug/bl2/xlat_tables_core.o
 .debug_line    0x000000000000db88      0x5bd /home/jongja.cho/Git/legacy/rebel_cds_collab_hw/bootloader/cp/tf-a/build/rebel_h/debug/bl2/xlat_tables_utils.o
 .debug_line    0x000000000000e145      0x11b /home/jongja.cho/Git/legacy/rebel_cds_collab_hw/bootloader/cp/tf-a/build/rebel_h/debug/bl2/plat_common.o
 .debug_line    0x000000000000e260      0x304 /home/jongja.cho/Git/legacy/rebel_cds_collab_hw/bootloader/cp/tf-a/build/rebel_h/debug/bl2/plat_bl_common.o
 .debug_line    0x000000000000e564       0xa6 /home/jongja.cho/Git/legacy/rebel_cds_collab_hw/bootloader/cp/tf-a/build/rebel_h/debug/bl2/plat_log_common.o
 .debug_line    0x000000000000e60a      0xcab /home/jongja.cho/Git/legacy/rebel_cds_collab_hw/bootloader/cp/tf-a/build/rebel_h/debug/bl2/rebel_h_bl2_setup.o
 .debug_line    0x000000000000f2b5      0x15f /home/jongja.cho/Git/legacy/rebel_cds_collab_hw/bootloader/cp/tf-a/build/rebel_h/debug/bl2/rebel_h_image_load.o
 .debug_line    0x000000000000f414      0x407 /home/jongja.cho/Git/legacy/rebel_cds_collab_hw/bootloader/cp/tf-a/build/rebel_h/debug/bl2/rebel_h_plat.o
 .debug_line    0x000000000000f81b      0x64e /home/jongja.cho/Git/legacy/rebel_cds_collab_hw/bootloader/cp/tf-a/build/rebel_h/debug/bl2/rebel_h_pmu.o
 .debug_line    0x000000000000fe69       0xe8 /home/jongja.cho/Git/legacy/rebel_cds_collab_hw/bootloader/cp/tf-a/build/rebel_h/debug/bl2/rebel_h_topology.o
 .debug_line    0x000000000000ff51       0x7b /home/jongja.cho/Git/legacy/rebel_cds_collab_hw/bootloader/cp/tf-a/build/rebel_h/debug/bl2/bl2_entrypoint.o
 .debug_line    0x000000000000ffcc       0xcc /home/jongja.cho/Git/legacy/rebel_cds_collab_hw/bootloader/cp/tf-a/build/rebel_h/debug/bl2/debug.o
 .debug_line    0x0000000000010098       0x94 /home/jongja.cho/Git/legacy/rebel_cds_collab_hw/bootloader/cp/tf-a/build/rebel_h/debug/bl2/early_exceptions.o
 .debug_line    0x000000000001012c      0x132 /home/jongja.cho/Git/legacy/rebel_cds_collab_hw/bootloader/cp/tf-a/build/rebel_h/debug/bl2/16550_console.o
 .debug_line    0x000000000001025e      0x144 /home/jongja.cho/Git/legacy/rebel_cds_collab_hw/bootloader/cp/tf-a/build/rebel_h/debug/bl2/cache_helpers.o
 .debug_line    0x00000000000103a2      0x17d /home/jongja.cho/Git/legacy/rebel_cds_collab_hw/bootloader/cp/tf-a/build/rebel_h/debug/bl2/misc_helpers.o
 .debug_line    0x000000000001051f       0xc6 /home/jongja.cho/Git/legacy/rebel_cds_collab_hw/bootloader/cp/tf-a/build/rebel_h/debug/bl2/enable_mmu.o
 .debug_line    0x00000000000105e5      0x10d /home/jongja.cho/Git/legacy/rebel_cds_collab_hw/bootloader/cp/tf-a/build/rebel_h/debug/bl2/platform_helpers.o
 .debug_line    0x00000000000106f2       0x74 /home/jongja.cho/Git/legacy/rebel_cds_collab_hw/bootloader/cp/tf-a/build/rebel_h/debug/bl2/platform_mp_stack.o
 .debug_line    0x0000000000010766      0x100 /home/jongja.cho/Git/legacy/rebel_cds_collab_hw/bootloader/cp/tf-a/build/rebel_h/debug/bl2/plat_helper.o
 .debug_line    0x0000000000010866       0xda /home/jongja.cho/Git/legacy/rebel_cds_collab_hw/bootloader/cp/tf-a/build/rebel_h/debug/lib/libc.a(assert.o)
 .debug_line    0x0000000000010940       0x91 /home/jongja.cho/Git/legacy/rebel_cds_collab_hw/bootloader/cp/tf-a/build/rebel_h/debug/lib/libc.a(memcpy.o)
 .debug_line    0x00000000000109d1       0xc1 /home/jongja.cho/Git/legacy/rebel_cds_collab_hw/bootloader/cp/tf-a/build/rebel_h/debug/lib/libc.a(memmove.o)
 .debug_line    0x0000000000010a92      0x623 /home/jongja.cho/Git/legacy/rebel_cds_collab_hw/bootloader/cp/tf-a/build/rebel_h/debug/lib/libc.a(printf.o)
 .debug_line    0x00000000000110b5      0x651 /home/jongja.cho/Git/legacy/rebel_cds_collab_hw/bootloader/cp/tf-a/build/rebel_h/debug/lib/libc.a(snprintf.o)
 .debug_line    0x0000000000011706       0x8b /home/jongja.cho/Git/legacy/rebel_cds_collab_hw/bootloader/cp/tf-a/build/rebel_h/debug/lib/libc.a(strlen.o)
 .debug_line    0x0000000000011791       0xa6 /home/jongja.cho/Git/legacy/rebel_cds_collab_hw/bootloader/cp/tf-a/build/rebel_h/debug/lib/libc.a(strncmp.o)
 .debug_line    0x0000000000011837      0x125 /home/jongja.cho/Git/legacy/rebel_cds_collab_hw/bootloader/cp/tf-a/build/rebel_h/debug/lib/libc.a(memset.o)

.debug_str      0x0000000000000000    0x3c87c
 .debug_str     0x0000000000000000    0x3c87c /home/jongja.cho/Git/legacy/rebel_cds_collab_hw/bootloader/cp/tf-a/build/rebel_h/debug/bl2/hbm3.o
                                      0x24d93 (size before relaxing)
 .debug_str     0x000000000003c87c    0x1f2f2 /home/jongja.cho/Git/legacy/rebel_cds_collab_hw/bootloader/cp/tf-a/build/rebel_h/debug/bl2/icon.o
 .debug_str     0x000000000003c87c     0x4d01 /home/jongja.cho/Git/legacy/rebel_cds_collab_hw/bootloader/cp/tf-a/build/rebel_h/debug/bl2/tmrs.o
 .debug_str     0x000000000003c87c      0x308 /home/jongja.cho/Git/legacy/rebel_cds_collab_hw/bootloader/cp/tf-a/build/rebel_h/debug/bl2/bakery_lock.o
 .debug_str     0x000000000003c87c      0x293 /home/jongja.cho/Git/legacy/rebel_cds_collab_hw/bootloader/cp/tf-a/build/rebel_h/debug/bl2/bl2_arch_setup.o
 .debug_str     0x000000000003c87c      0x551 /home/jongja.cho/Git/legacy/rebel_cds_collab_hw/bootloader/cp/tf-a/build/rebel_h/debug/bl2/bl2_image_load_v2.o
 .debug_str     0x000000000003c87c      0x4b5 /home/jongja.cho/Git/legacy/rebel_cds_collab_hw/bootloader/cp/tf-a/build/rebel_h/debug/bl2/bl2_main.o
 .debug_str     0x000000000003c87c      0x41f /home/jongja.cho/Git/legacy/rebel_cds_collab_hw/bootloader/cp/tf-a/build/rebel_h/debug/bl2/backtrace.o
 .debug_str     0x000000000003c87c      0x56f /home/jongja.cho/Git/legacy/rebel_cds_collab_hw/bootloader/cp/tf-a/build/rebel_h/debug/bl2/bl_common.o
 .debug_str     0x000000000003c87c      0x74b /home/jongja.cho/Git/legacy/rebel_cds_collab_hw/bootloader/cp/tf-a/build/rebel_h/debug/bl2/desc_image_load.o
 .debug_str     0x000000000003c87c      0x246 /home/jongja.cho/Git/legacy/rebel_cds_collab_hw/bootloader/cp/tf-a/build/rebel_h/debug/bl2/tf_crc32.o
 .debug_str     0x000000000003c87c      0x331 /home/jongja.cho/Git/legacy/rebel_cds_collab_hw/bootloader/cp/tf-a/build/rebel_h/debug/bl2/tf_log.o
 .debug_str     0x000000000003c87c      0xb9f /home/jongja.cho/Git/legacy/rebel_cds_collab_hw/bootloader/cp/tf-a/build/rebel_h/debug/bl2/pl330.o
 .debug_str     0x000000000003c87c    0x2bc37 /home/jongja.cho/Git/legacy/rebel_cds_collab_hw/bootloader/cp/tf-a/build/rebel_h/debug/bl2/cmu.o
 .debug_str     0x000000000003c87c      0x380 /home/jongja.cho/Git/legacy/rebel_cds_collab_hw/bootloader/cp/tf-a/build/rebel_h/debug/bl2/multi_console.o
 .debug_str     0x000000000003c87c      0x33c /home/jongja.cho/Git/legacy/rebel_cds_collab_hw/bootloader/cp/tf-a/build/rebel_h/debug/bl2/delay_timer.o
 .debug_str     0x000000000003c87c      0x40e /home/jongja.cho/Git/legacy/rebel_cds_collab_hw/bootloader/cp/tf-a/build/rebel_h/debug/bl2/generic_delay_timer.o
 .debug_str     0x000000000003c87c      0x3ee /home/jongja.cho/Git/legacy/rebel_cds_collab_hw/bootloader/cp/tf-a/build/rebel_h/debug/bl2/hbm3_chipid.o
 .debug_str     0x000000000003c87c    0x2a8c1 /home/jongja.cho/Git/legacy/rebel_cds_collab_hw/bootloader/cp/tf-a/build/rebel_h/debug/bl2/hbm3_init.o
 .debug_str     0x000000000003c87c      0x5d8 /home/jongja.cho/Git/legacy/rebel_cds_collab_hw/bootloader/cp/tf-a/build/rebel_h/debug/bl2/io_storage.o
 .debug_str     0x000000000003c87c      0xc30 /home/jongja.cho/Git/legacy/rebel_cds_collab_hw/bootloader/cp/tf-a/build/rebel_h/debug/bl2/mailbox.o
 .debug_str     0x000000000003c87c      0x37a /home/jongja.cho/Git/legacy/rebel_cds_collab_hw/bootloader/cp/tf-a/build/rebel_h/debug/bl2/gpt.o
 .debug_str     0x000000000003c87c      0x72a /home/jongja.cho/Git/legacy/rebel_cds_collab_hw/bootloader/cp/tf-a/build/rebel_h/debug/bl2/partition_simple.o
 .debug_str     0x000000000003c87c      0x9b4 /home/jongja.cho/Git/legacy/rebel_cds_collab_hw/bootloader/cp/tf-a/build/rebel_h/debug/bl2/smmu.o
 .debug_str     0x000000000003c87c      0x33a /home/jongja.cho/Git/legacy/rebel_cds_collab_hw/bootloader/cp/tf-a/build/rebel_h/debug/bl2/sic.o
 .debug_str     0x000000000003c87c      0x682 /home/jongja.cho/Git/legacy/rebel_cds_collab_hw/bootloader/cp/tf-a/build/rebel_h/debug/bl2/xlat_tables_arch.o
 .debug_str     0x000000000003c87c      0x605 /home/jongja.cho/Git/legacy/rebel_cds_collab_hw/bootloader/cp/tf-a/build/rebel_h/debug/bl2/xlat_tables_context.o
 .debug_str     0x000000000003c87c      0x76b /home/jongja.cho/Git/legacy/rebel_cds_collab_hw/bootloader/cp/tf-a/build/rebel_h/debug/bl2/xlat_tables_core.o
 .debug_str     0x000000000003c87c      0x594 /home/jongja.cho/Git/legacy/rebel_cds_collab_hw/bootloader/cp/tf-a/build/rebel_h/debug/bl2/xlat_tables_utils.o
 .debug_str     0x000000000003c87c      0x2fa /home/jongja.cho/Git/legacy/rebel_cds_collab_hw/bootloader/cp/tf-a/build/rebel_h/debug/bl2/plat_common.o
 .debug_str     0x000000000003c87c      0x537 /home/jongja.cho/Git/legacy/rebel_cds_collab_hw/bootloader/cp/tf-a/build/rebel_h/debug/bl2/plat_bl_common.o
 .debug_str     0x000000000003c87c      0x2a2 /home/jongja.cho/Git/legacy/rebel_cds_collab_hw/bootloader/cp/tf-a/build/rebel_h/debug/bl2/plat_log_common.o
 .debug_str     0x000000000003c87c      0xcb3 /home/jongja.cho/Git/legacy/rebel_cds_collab_hw/bootloader/cp/tf-a/build/rebel_h/debug/bl2/rebel_h_bl2_setup.o
 .debug_str     0x000000000003c87c      0x4e0 /home/jongja.cho/Git/legacy/rebel_cds_collab_hw/bootloader/cp/tf-a/build/rebel_h/debug/bl2/rebel_h_image_load.o
 .debug_str     0x000000000003c87c      0x3ab /home/jongja.cho/Git/legacy/rebel_cds_collab_hw/bootloader/cp/tf-a/build/rebel_h/debug/bl2/rebel_h_plat.o
 .debug_str     0x000000000003c87c      0x4bc /home/jongja.cho/Git/legacy/rebel_cds_collab_hw/bootloader/cp/tf-a/build/rebel_h/debug/bl2/rebel_h_pmu.o
 .debug_str     0x000000000003c87c      0x2e9 /home/jongja.cho/Git/legacy/rebel_cds_collab_hw/bootloader/cp/tf-a/build/rebel_h/debug/bl2/rebel_h_topology.o
 .debug_str     0x000000000003c87c       0x7d /home/jongja.cho/Git/legacy/rebel_cds_collab_hw/bootloader/cp/tf-a/build/rebel_h/debug/bl2/bl2_entrypoint.o
 .debug_str     0x000000000003c87c       0xb5 /home/jongja.cho/Git/legacy/rebel_cds_collab_hw/bootloader/cp/tf-a/build/rebel_h/debug/bl2/debug.o
 .debug_str     0x000000000003c87c       0x73 /home/jongja.cho/Git/legacy/rebel_cds_collab_hw/bootloader/cp/tf-a/build/rebel_h/debug/bl2/early_exceptions.o
 .debug_str     0x000000000003c87c      0x12b /home/jongja.cho/Git/legacy/rebel_cds_collab_hw/bootloader/cp/tf-a/build/rebel_h/debug/bl2/16550_console.o
 .debug_str     0x000000000003c87c      0x131 /home/jongja.cho/Git/legacy/rebel_cds_collab_hw/bootloader/cp/tf-a/build/rebel_h/debug/bl2/cache_helpers.o
 .debug_str     0x000000000003c87c       0xed /home/jongja.cho/Git/legacy/rebel_cds_collab_hw/bootloader/cp/tf-a/build/rebel_h/debug/bl2/misc_helpers.o
 .debug_str     0x000000000003c87c       0xd6 /home/jongja.cho/Git/legacy/rebel_cds_collab_hw/bootloader/cp/tf-a/build/rebel_h/debug/bl2/enable_mmu.o
 .debug_str     0x000000000003c87c      0x14e /home/jongja.cho/Git/legacy/rebel_cds_collab_hw/bootloader/cp/tf-a/build/rebel_h/debug/bl2/platform_helpers.o
 .debug_str     0x000000000003c87c       0x9d /home/jongja.cho/Git/legacy/rebel_cds_collab_hw/bootloader/cp/tf-a/build/rebel_h/debug/bl2/platform_mp_stack.o
 .debug_str     0x000000000003c87c      0x142 /home/jongja.cho/Git/legacy/rebel_cds_collab_hw/bootloader/cp/tf-a/build/rebel_h/debug/bl2/plat_helper.o
 .debug_str     0x000000000003c87c      0x28a /home/jongja.cho/Git/legacy/rebel_cds_collab_hw/bootloader/cp/tf-a/build/rebel_h/debug/lib/libc.a(assert.o)
 .debug_str     0x000000000003c87c      0x187 /home/jongja.cho/Git/legacy/rebel_cds_collab_hw/bootloader/cp/tf-a/build/rebel_h/debug/lib/libc.a(memcpy.o)
 .debug_str     0x000000000003c87c      0x1a1 /home/jongja.cho/Git/legacy/rebel_cds_collab_hw/bootloader/cp/tf-a/build/rebel_h/debug/lib/libc.a(memmove.o)
 .debug_str     0x000000000003c87c      0x2d5 /home/jongja.cho/Git/legacy/rebel_cds_collab_hw/bootloader/cp/tf-a/build/rebel_h/debug/lib/libc.a(printf.o)
 .debug_str     0x000000000003c87c      0x2f4 /home/jongja.cho/Git/legacy/rebel_cds_collab_hw/bootloader/cp/tf-a/build/rebel_h/debug/lib/libc.a(snprintf.o)
 .debug_str     0x000000000003c87c      0x18e /home/jongja.cho/Git/legacy/rebel_cds_collab_hw/bootloader/cp/tf-a/build/rebel_h/debug/lib/libc.a(strlen.o)
 .debug_str     0x000000000003c87c      0x189 /home/jongja.cho/Git/legacy/rebel_cds_collab_hw/bootloader/cp/tf-a/build/rebel_h/debug/lib/libc.a(strncmp.o)
 .debug_str     0x000000000003c87c      0x232 /home/jongja.cho/Git/legacy/rebel_cds_collab_hw/bootloader/cp/tf-a/build/rebel_h/debug/lib/libc.a(memset.o)

.comment        0x0000000000000000       0x44
 .comment       0x0000000000000000       0x44 /home/jongja.cho/Git/legacy/rebel_cds_collab_hw/bootloader/cp/tf-a/build/rebel_h/debug/bl2/hbm3.o
                                         0x45 (size before relaxing)
 .comment       0x0000000000000044       0x45 /home/jongja.cho/Git/legacy/rebel_cds_collab_hw/bootloader/cp/tf-a/build/rebel_h/debug/bl2/icon.o
 .comment       0x0000000000000044       0x45 /home/jongja.cho/Git/legacy/rebel_cds_collab_hw/bootloader/cp/tf-a/build/rebel_h/debug/bl2/tmrs.o
 .comment       0x0000000000000044       0x45 /home/jongja.cho/Git/legacy/rebel_cds_collab_hw/bootloader/cp/tf-a/build/rebel_h/debug/bl2/bakery_lock.o
 .comment       0x0000000000000044       0x45 /home/jongja.cho/Git/legacy/rebel_cds_collab_hw/bootloader/cp/tf-a/build/rebel_h/debug/bl2/bl2_arch_setup.o
 .comment       0x0000000000000044       0x45 /home/jongja.cho/Git/legacy/rebel_cds_collab_hw/bootloader/cp/tf-a/build/rebel_h/debug/bl2/bl2_image_load_v2.o
 .comment       0x0000000000000044       0x45 /home/jongja.cho/Git/legacy/rebel_cds_collab_hw/bootloader/cp/tf-a/build/rebel_h/debug/bl2/bl2_main.o
 .comment       0x0000000000000044       0x45 /home/jongja.cho/Git/legacy/rebel_cds_collab_hw/bootloader/cp/tf-a/build/rebel_h/debug/bl2/backtrace.o
 .comment       0x0000000000000044       0x45 /home/jongja.cho/Git/legacy/rebel_cds_collab_hw/bootloader/cp/tf-a/build/rebel_h/debug/bl2/bl_common.o
 .comment       0x0000000000000044       0x45 /home/jongja.cho/Git/legacy/rebel_cds_collab_hw/bootloader/cp/tf-a/build/rebel_h/debug/bl2/desc_image_load.o
 .comment       0x0000000000000044       0x45 /home/jongja.cho/Git/legacy/rebel_cds_collab_hw/bootloader/cp/tf-a/build/rebel_h/debug/bl2/tf_crc32.o
 .comment       0x0000000000000044       0x45 /home/jongja.cho/Git/legacy/rebel_cds_collab_hw/bootloader/cp/tf-a/build/rebel_h/debug/bl2/tf_log.o
 .comment       0x0000000000000044       0x45 /home/jongja.cho/Git/legacy/rebel_cds_collab_hw/bootloader/cp/tf-a/build/rebel_h/debug/bl2/pl330.o
 .comment       0x0000000000000044       0x45 /home/jongja.cho/Git/legacy/rebel_cds_collab_hw/bootloader/cp/tf-a/build/rebel_h/debug/bl2/cmu.o
 .comment       0x0000000000000044       0x45 /home/jongja.cho/Git/legacy/rebel_cds_collab_hw/bootloader/cp/tf-a/build/rebel_h/debug/bl2/multi_console.o
 .comment       0x0000000000000044       0x45 /home/jongja.cho/Git/legacy/rebel_cds_collab_hw/bootloader/cp/tf-a/build/rebel_h/debug/bl2/delay_timer.o
 .comment       0x0000000000000044       0x45 /home/jongja.cho/Git/legacy/rebel_cds_collab_hw/bootloader/cp/tf-a/build/rebel_h/debug/bl2/generic_delay_timer.o
 .comment       0x0000000000000044       0x45 /home/jongja.cho/Git/legacy/rebel_cds_collab_hw/bootloader/cp/tf-a/build/rebel_h/debug/bl2/hbm3_chipid.o
 .comment       0x0000000000000044       0x45 /home/jongja.cho/Git/legacy/rebel_cds_collab_hw/bootloader/cp/tf-a/build/rebel_h/debug/bl2/hbm3_init.o
 .comment       0x0000000000000044       0x45 /home/jongja.cho/Git/legacy/rebel_cds_collab_hw/bootloader/cp/tf-a/build/rebel_h/debug/bl2/io_storage.o
 .comment       0x0000000000000044       0x45 /home/jongja.cho/Git/legacy/rebel_cds_collab_hw/bootloader/cp/tf-a/build/rebel_h/debug/bl2/mailbox.o
 .comment       0x0000000000000044       0x45 /home/jongja.cho/Git/legacy/rebel_cds_collab_hw/bootloader/cp/tf-a/build/rebel_h/debug/bl2/gpt.o
 .comment       0x0000000000000044       0x45 /home/jongja.cho/Git/legacy/rebel_cds_collab_hw/bootloader/cp/tf-a/build/rebel_h/debug/bl2/partition_simple.o
 .comment       0x0000000000000044       0x45 /home/jongja.cho/Git/legacy/rebel_cds_collab_hw/bootloader/cp/tf-a/build/rebel_h/debug/bl2/smmu.o
 .comment       0x0000000000000044       0x45 /home/jongja.cho/Git/legacy/rebel_cds_collab_hw/bootloader/cp/tf-a/build/rebel_h/debug/bl2/sic.o
 .comment       0x0000000000000044       0x45 /home/jongja.cho/Git/legacy/rebel_cds_collab_hw/bootloader/cp/tf-a/build/rebel_h/debug/bl2/xlat_tables_arch.o
 .comment       0x0000000000000044       0x45 /home/jongja.cho/Git/legacy/rebel_cds_collab_hw/bootloader/cp/tf-a/build/rebel_h/debug/bl2/xlat_tables_context.o
 .comment       0x0000000000000044       0x45 /home/jongja.cho/Git/legacy/rebel_cds_collab_hw/bootloader/cp/tf-a/build/rebel_h/debug/bl2/xlat_tables_core.o
 .comment       0x0000000000000044       0x45 /home/jongja.cho/Git/legacy/rebel_cds_collab_hw/bootloader/cp/tf-a/build/rebel_h/debug/bl2/xlat_tables_utils.o
 .comment       0x0000000000000044       0x45 /home/jongja.cho/Git/legacy/rebel_cds_collab_hw/bootloader/cp/tf-a/build/rebel_h/debug/bl2/plat_common.o
 .comment       0x0000000000000044       0x45 /home/jongja.cho/Git/legacy/rebel_cds_collab_hw/bootloader/cp/tf-a/build/rebel_h/debug/bl2/plat_bl_common.o
 .comment       0x0000000000000044       0x45 /home/jongja.cho/Git/legacy/rebel_cds_collab_hw/bootloader/cp/tf-a/build/rebel_h/debug/bl2/plat_log_common.o
 .comment       0x0000000000000044       0x45 /home/jongja.cho/Git/legacy/rebel_cds_collab_hw/bootloader/cp/tf-a/build/rebel_h/debug/bl2/rebel_h_bl2_setup.o
 .comment       0x0000000000000044       0x45 /home/jongja.cho/Git/legacy/rebel_cds_collab_hw/bootloader/cp/tf-a/build/rebel_h/debug/bl2/rebel_h_image_load.o
 .comment       0x0000000000000044       0x45 /home/jongja.cho/Git/legacy/rebel_cds_collab_hw/bootloader/cp/tf-a/build/rebel_h/debug/bl2/rebel_h_plat.o
 .comment       0x0000000000000044       0x45 /home/jongja.cho/Git/legacy/rebel_cds_collab_hw/bootloader/cp/tf-a/build/rebel_h/debug/bl2/rebel_h_pmu.o
 .comment       0x0000000000000044       0x45 /home/jongja.cho/Git/legacy/rebel_cds_collab_hw/bootloader/cp/tf-a/build/rebel_h/debug/bl2/rebel_h_topology.o
 .comment       0x0000000000000044       0x45 /home/jongja.cho/Git/legacy/rebel_cds_collab_hw/bootloader/cp/tf-a/build/rebel_h/debug/lib/libc.a(assert.o)
 .comment       0x0000000000000044       0x45 /home/jongja.cho/Git/legacy/rebel_cds_collab_hw/bootloader/cp/tf-a/build/rebel_h/debug/lib/libc.a(memcpy.o)
 .comment       0x0000000000000044       0x45 /home/jongja.cho/Git/legacy/rebel_cds_collab_hw/bootloader/cp/tf-a/build/rebel_h/debug/lib/libc.a(memmove.o)
 .comment       0x0000000000000044       0x45 /home/jongja.cho/Git/legacy/rebel_cds_collab_hw/bootloader/cp/tf-a/build/rebel_h/debug/lib/libc.a(printf.o)
 .comment       0x0000000000000044       0x45 /home/jongja.cho/Git/legacy/rebel_cds_collab_hw/bootloader/cp/tf-a/build/rebel_h/debug/lib/libc.a(snprintf.o)
 .comment       0x0000000000000044       0x45 /home/jongja.cho/Git/legacy/rebel_cds_collab_hw/bootloader/cp/tf-a/build/rebel_h/debug/lib/libc.a(strlen.o)
 .comment       0x0000000000000044       0x45 /home/jongja.cho/Git/legacy/rebel_cds_collab_hw/bootloader/cp/tf-a/build/rebel_h/debug/lib/libc.a(strncmp.o)
 .comment       0x0000000000000044       0x45 /home/jongja.cho/Git/legacy/rebel_cds_collab_hw/bootloader/cp/tf-a/build/rebel_h/debug/lib/libc.a(memset.o)

.debug_frame    0x0000000000000000     0x3c70
 .debug_frame   0x0000000000000000      0x258 /home/jongja.cho/Git/legacy/rebel_cds_collab_hw/bootloader/cp/tf-a/build/rebel_h/debug/bl2/hbm3.o
 .debug_frame   0x0000000000000258      0x690 /home/jongja.cho/Git/legacy/rebel_cds_collab_hw/bootloader/cp/tf-a/build/rebel_h/debug/bl2/icon.o
 .debug_frame   0x00000000000008e8       0x88 /home/jongja.cho/Git/legacy/rebel_cds_collab_hw/bootloader/cp/tf-a/build/rebel_h/debug/bl2/tmrs.o
 .debug_frame   0x0000000000000970       0x58 /home/jongja.cho/Git/legacy/rebel_cds_collab_hw/bootloader/cp/tf-a/build/rebel_h/debug/bl2/bakery_lock.o
 .debug_frame   0x00000000000009c8       0x28 /home/jongja.cho/Git/legacy/rebel_cds_collab_hw/bootloader/cp/tf-a/build/rebel_h/debug/bl2/bl2_arch_setup.o
 .debug_frame   0x00000000000009f0       0x48 /home/jongja.cho/Git/legacy/rebel_cds_collab_hw/bootloader/cp/tf-a/build/rebel_h/debug/bl2/bl2_image_load_v2.o
 .debug_frame   0x0000000000000a38       0x38 /home/jongja.cho/Git/legacy/rebel_cds_collab_hw/bootloader/cp/tf-a/build/rebel_h/debug/bl2/bl2_main.o
 .debug_frame   0x0000000000000a70       0x98 /home/jongja.cho/Git/legacy/rebel_cds_collab_hw/bootloader/cp/tf-a/build/rebel_h/debug/bl2/backtrace.o
 .debug_frame   0x0000000000000b08       0xc8 /home/jongja.cho/Git/legacy/rebel_cds_collab_hw/bootloader/cp/tf-a/build/rebel_h/debug/bl2/bl_common.o
 .debug_frame   0x0000000000000bd0      0x168 /home/jongja.cho/Git/legacy/rebel_cds_collab_hw/bootloader/cp/tf-a/build/rebel_h/debug/bl2/desc_image_load.o
 .debug_frame   0x0000000000000d38       0x38 /home/jongja.cho/Git/legacy/rebel_cds_collab_hw/bootloader/cp/tf-a/build/rebel_h/debug/bl2/tf_crc32.o
 .debug_frame   0x0000000000000d70       0x90 /home/jongja.cho/Git/legacy/rebel_cds_collab_hw/bootloader/cp/tf-a/build/rebel_h/debug/bl2/tf_log.o
 .debug_frame   0x0000000000000e00      0x118 /home/jongja.cho/Git/legacy/rebel_cds_collab_hw/bootloader/cp/tf-a/build/rebel_h/debug/bl2/pl330.o
 .debug_frame   0x0000000000000f18      0x1e0 /home/jongja.cho/Git/legacy/rebel_cds_collab_hw/bootloader/cp/tf-a/build/rebel_h/debug/bl2/cmu.o
 .debug_frame   0x00000000000010f8      0x158 /home/jongja.cho/Git/legacy/rebel_cds_collab_hw/bootloader/cp/tf-a/build/rebel_h/debug/bl2/multi_console.o
 .debug_frame   0x0000000000001250       0xe0 /home/jongja.cho/Git/legacy/rebel_cds_collab_hw/bootloader/cp/tf-a/build/rebel_h/debug/bl2/delay_timer.o
 .debug_frame   0x0000000000001330       0x98 /home/jongja.cho/Git/legacy/rebel_cds_collab_hw/bootloader/cp/tf-a/build/rebel_h/debug/bl2/generic_delay_timer.o
 .debug_frame   0x00000000000013c8       0x48 /home/jongja.cho/Git/legacy/rebel_cds_collab_hw/bootloader/cp/tf-a/build/rebel_h/debug/bl2/hbm3_chipid.o
 .debug_frame   0x0000000000001410      0xc48 /home/jongja.cho/Git/legacy/rebel_cds_collab_hw/bootloader/cp/tf-a/build/rebel_h/debug/bl2/hbm3_init.o
 .debug_frame   0x0000000000002058      0x2a8 /home/jongja.cho/Git/legacy/rebel_cds_collab_hw/bootloader/cp/tf-a/build/rebel_h/debug/bl2/io_storage.o
 .debug_frame   0x0000000000002300       0x58 /home/jongja.cho/Git/legacy/rebel_cds_collab_hw/bootloader/cp/tf-a/build/rebel_h/debug/bl2/mailbox.o
 .debug_frame   0x0000000000002358       0x40 /home/jongja.cho/Git/legacy/rebel_cds_collab_hw/bootloader/cp/tf-a/build/rebel_h/debug/bl2/gpt.o
 .debug_frame   0x0000000000002398      0x250 /home/jongja.cho/Git/legacy/rebel_cds_collab_hw/bootloader/cp/tf-a/build/rebel_h/debug/bl2/partition_simple.o
 .debug_frame   0x00000000000025e8       0x80 /home/jongja.cho/Git/legacy/rebel_cds_collab_hw/bootloader/cp/tf-a/build/rebel_h/debug/bl2/smmu.o
 .debug_frame   0x0000000000002668       0x58 /home/jongja.cho/Git/legacy/rebel_cds_collab_hw/bootloader/cp/tf-a/build/rebel_h/debug/bl2/sic.o
 .debug_frame   0x00000000000026c0      0x1f8 /home/jongja.cho/Git/legacy/rebel_cds_collab_hw/bootloader/cp/tf-a/build/rebel_h/debug/bl2/xlat_tables_arch.o
 .debug_frame   0x00000000000028b8      0x1a8 /home/jongja.cho/Git/legacy/rebel_cds_collab_hw/bootloader/cp/tf-a/build/rebel_h/debug/bl2/xlat_tables_context.o
 .debug_frame   0x0000000000002a60      0x168 /home/jongja.cho/Git/legacy/rebel_cds_collab_hw/bootloader/cp/tf-a/build/rebel_h/debug/bl2/xlat_tables_core.o
 .debug_frame   0x0000000000002bc8      0x108 /home/jongja.cho/Git/legacy/rebel_cds_collab_hw/bootloader/cp/tf-a/build/rebel_h/debug/bl2/xlat_tables_utils.o
 .debug_frame   0x0000000000002cd0       0x68 /home/jongja.cho/Git/legacy/rebel_cds_collab_hw/bootloader/cp/tf-a/build/rebel_h/debug/bl2/plat_common.o
 .debug_frame   0x0000000000002d38      0x160 /home/jongja.cho/Git/legacy/rebel_cds_collab_hw/bootloader/cp/tf-a/build/rebel_h/debug/bl2/plat_bl_common.o
 .debug_frame   0x0000000000002e98       0x28 /home/jongja.cho/Git/legacy/rebel_cds_collab_hw/bootloader/cp/tf-a/build/rebel_h/debug/bl2/plat_log_common.o
 .debug_frame   0x0000000000002ec0       0xc0 /home/jongja.cho/Git/legacy/rebel_cds_collab_hw/bootloader/cp/tf-a/build/rebel_h/debug/bl2/rebel_h_bl2_setup.o
 .debug_frame   0x0000000000002f80       0x58 /home/jongja.cho/Git/legacy/rebel_cds_collab_hw/bootloader/cp/tf-a/build/rebel_h/debug/bl2/rebel_h_image_load.o
 .debug_frame   0x0000000000002fd8       0xd0 /home/jongja.cho/Git/legacy/rebel_cds_collab_hw/bootloader/cp/tf-a/build/rebel_h/debug/bl2/rebel_h_plat.o
 .debug_frame   0x00000000000030a8      0x140 /home/jongja.cho/Git/legacy/rebel_cds_collab_hw/bootloader/cp/tf-a/build/rebel_h/debug/bl2/rebel_h_pmu.o
 .debug_frame   0x00000000000031e8       0x40 /home/jongja.cho/Git/legacy/rebel_cds_collab_hw/bootloader/cp/tf-a/build/rebel_h/debug/bl2/rebel_h_topology.o
 .debug_frame   0x0000000000003228       0x28 /home/jongja.cho/Git/legacy/rebel_cds_collab_hw/bootloader/cp/tf-a/build/rebel_h/debug/bl2/bl2_entrypoint.o
 .debug_frame   0x0000000000003250       0xa0 /home/jongja.cho/Git/legacy/rebel_cds_collab_hw/bootloader/cp/tf-a/build/rebel_h/debug/bl2/debug.o
 .debug_frame   0x00000000000032f0      0x190 /home/jongja.cho/Git/legacy/rebel_cds_collab_hw/bootloader/cp/tf-a/build/rebel_h/debug/bl2/early_exceptions.o
 .debug_frame   0x0000000000003480       0xd0 /home/jongja.cho/Git/legacy/rebel_cds_collab_hw/bootloader/cp/tf-a/build/rebel_h/debug/bl2/16550_console.o
 .debug_frame   0x0000000000003550      0x118 /home/jongja.cho/Git/legacy/rebel_cds_collab_hw/bootloader/cp/tf-a/build/rebel_h/debug/bl2/cache_helpers.o
 .debug_frame   0x0000000000003668       0xe8 /home/jongja.cho/Git/legacy/rebel_cds_collab_hw/bootloader/cp/tf-a/build/rebel_h/debug/bl2/misc_helpers.o
 .debug_frame   0x0000000000003750       0x70 /home/jongja.cho/Git/legacy/rebel_cds_collab_hw/bootloader/cp/tf-a/build/rebel_h/debug/bl2/enable_mmu.o
 .debug_frame   0x00000000000037c0      0x100 /home/jongja.cho/Git/legacy/rebel_cds_collab_hw/bootloader/cp/tf-a/build/rebel_h/debug/bl2/platform_helpers.o
 .debug_frame   0x00000000000038c0       0x40 /home/jongja.cho/Git/legacy/rebel_cds_collab_hw/bootloader/cp/tf-a/build/rebel_h/debug/bl2/platform_mp_stack.o
 .debug_frame   0x0000000000003900      0x118 /home/jongja.cho/Git/legacy/rebel_cds_collab_hw/bootloader/cp/tf-a/build/rebel_h/debug/bl2/plat_helper.o
 .debug_frame   0x0000000000003a18       0x30 /home/jongja.cho/Git/legacy/rebel_cds_collab_hw/bootloader/cp/tf-a/build/rebel_h/debug/lib/libc.a(assert.o)
 .debug_frame   0x0000000000003a48       0x28 /home/jongja.cho/Git/legacy/rebel_cds_collab_hw/bootloader/cp/tf-a/build/rebel_h/debug/lib/libc.a(memcpy.o)
 .debug_frame   0x0000000000003a70       0x28 /home/jongja.cho/Git/legacy/rebel_cds_collab_hw/bootloader/cp/tf-a/build/rebel_h/debug/lib/libc.a(memmove.o)
 .debug_frame   0x0000000000003a98       0xc8 /home/jongja.cho/Git/legacy/rebel_cds_collab_hw/bootloader/cp/tf-a/build/rebel_h/debug/lib/libc.a(printf.o)
 .debug_frame   0x0000000000003b60       0x98 /home/jongja.cho/Git/legacy/rebel_cds_collab_hw/bootloader/cp/tf-a/build/rebel_h/debug/lib/libc.a(snprintf.o)
 .debug_frame   0x0000000000003bf8       0x28 /home/jongja.cho/Git/legacy/rebel_cds_collab_hw/bootloader/cp/tf-a/build/rebel_h/debug/lib/libc.a(strlen.o)
 .debug_frame   0x0000000000003c20       0x28 /home/jongja.cho/Git/legacy/rebel_cds_collab_hw/bootloader/cp/tf-a/build/rebel_h/debug/lib/libc.a(strncmp.o)
 .debug_frame   0x0000000000003c48       0x28 /home/jongja.cho/Git/legacy/rebel_cds_collab_hw/bootloader/cp/tf-a/build/rebel_h/debug/lib/libc.a(memset.o)
