
/home/jongja.cho/Git/legacy/rebel_cds_collab_hw/bootloader/cp/tf-a/build/rebel_h/debug/bl2/bl2.elf:     file format elf64-littleaarch64
/home/jongja.cho/Git/legacy/rebel_cds_collab_hw/bootloader/cp/tf-a/build/rebel_h/debug/bl2/bl2.elf
architecture: aarch64, flags 0x00000112:
EXEC_P, HAS_SYMS, D_PAGED
start address 0x0000001e00030000

Program Header:
    LOAD off    0x0000000000001000 vaddr 0x0000001e00030000 paddr 0x0000001e00030000 align 2**12
         filesz 0x000000000000f000 memsz 0x000000000000f000 flags r-x
    LOAD off    0x0000000000010000 vaddr 0x0000001e0003f000 paddr 0x0000001e0003f000 align 2**12
         filesz 0x000000000000142a memsz 0x000000000000e000 flags rw-
   STACK off    0x0000000000000000 vaddr 0x0000000000000000 paddr 0x0000000000000000 align 2**4
         filesz 0x0000000000000000 memsz 0x0000000000000000 flags rw-
private flags = 0x0:

Sections:
Idx Name          Size      VMA               LMA               File off  Algn
  0 .ro           0000f000  0000001e00030000  0000001e00030000  00001000  2**11
                  CONTENTS, ALLOC, LOAD, READONLY, CODE
  1 .data         0000142a  0000001e0003f000  0000001e0003f000  00010000  2**3
                  CONTENTS, ALLOC, LOAD, DATA
  2 .stacks       00004000  0000001e00040440  0000001e00040440  0001142a  2**6
                  ALLOC
  3 .bss          00001750  0000001e00044440  0000001e00044440  0001142a  2**4
                  ALLOC
  4 .xlat_table   00007000  0000001e00046000  0000001e00046000  0001142a  2**12
                  ALLOC
  5 .coherent_ram 00000000  0000001e0004d000  0000001e0004d000  00012000  2**12
                  CONTENTS
  6 .debug_info   0010d456  0000000000000000  0000000000000000  00012000  2**0
                  CONTENTS, READONLY, DEBUGGING, OCTETS
  7 .debug_abbrev 0000658d  0000000000000000  0000000000000000  0011f456  2**0
                  CONTENTS, READONLY, DEBUGGING, OCTETS
  8 .debug_loc    00024d5a  0000000000000000  0000000000000000  001259e3  2**0
                  CONTENTS, READONLY, DEBUGGING, OCTETS
  9 .debug_aranges 00001df0  0000000000000000  0000000000000000  0014a740  2**4
                  CONTENTS, READONLY, DEBUGGING, OCTETS
 10 .debug_ranges 00004ee0  0000000000000000  0000000000000000  0014c530  2**4
                  CONTENTS, READONLY, DEBUGGING, OCTETS
 11 .debug_line   0001195c  0000000000000000  0000000000000000  00151410  2**0
                  CONTENTS, READONLY, DEBUGGING, OCTETS
 12 .debug_str    0003c87c  0000000000000000  0000000000000000  00162d6c  2**0
                  CONTENTS, READONLY, DEBUGGING, OCTETS
 13 .comment      00000044  0000000000000000  0000000000000000  0019f5e8  2**0
                  CONTENTS, READONLY
 14 .debug_frame  00003c70  0000000000000000  0000000000000000  0019f630  2**3
                  CONTENTS, READONLY, DEBUGGING, OCTETS
SYMBOL TABLE:
0000001e00030000 l    d  .ro	0000000000000000 .ro
0000001e0003f000 l    d  .data	0000000000000000 .data
0000001e00040440 l    d  .stacks	0000000000000000 .stacks
0000001e00044440 l    d  .bss	0000000000000000 .bss
0000001e00046000 l    d  .xlat_table	0000000000000000 .xlat_table
0000001e0004d000 l    d  .coherent_ram	0000000000000000 .coherent_ram
0000000000000000 l    d  .debug_info	0000000000000000 .debug_info
0000000000000000 l    d  .debug_abbrev	0000000000000000 .debug_abbrev
0000000000000000 l    d  .debug_loc	0000000000000000 .debug_loc
0000000000000000 l    d  .debug_aranges	0000000000000000 .debug_aranges
0000000000000000 l    d  .debug_ranges	0000000000000000 .debug_ranges
0000000000000000 l    d  .debug_line	0000000000000000 .debug_line
0000000000000000 l    d  .debug_str	0000000000000000 .debug_str
0000000000000000 l    d  .comment	0000000000000000 .comment
0000000000000000 l    d  .debug_frame	0000000000000000 .debug_frame
0000000000000000 l    df *ABS*	0000000000000000 bl2_entrypoint.o
0000000000000000 l    df *ABS*	0000000000000000 hbm3.c
0000001e00044840 l     O .bss	0000000000000440 hbm3_cfg
0000000000000000 l    df *ABS*	0000000000000000 icon.c
0000000000000000 l    df *ABS*	0000000000000000 tmrs.c
0000000000000000 l    df *ABS*	0000000000000000 bakery_lock.c
0000000000000000 l    df *ABS*	0000000000000000 bl2_arch_setup.c
0000000000000000 l    df *ABS*	0000000000000000 bl2_image_load_v2.c
0000000000000000 l    df *ABS*	0000000000000000 bl2_main.c
0000001e0003d938 l     O .ro	000000000000002e build_version_string
0000001e0003d966 l     O .ro	000000000000001e build_message
0000000000000000 l    df *ABS*	0000000000000000 backtrace.c
0000001e00031790 l     F .ro	0000000000000040 is_address_readable
0000001e000317d0 l     F .ro	000000000000005c is_valid_object.constprop.0
0000000000000000 l    df *ABS*	0000000000000000 bl_common.c
0000001e0003194c l     F .ro	0000000000000160 load_image
0000000000000000 l    df *ABS*	0000000000000000 desc_image_load.c
0000001e00044c80 l     O .bss	0000000000000010 next_bl_params
0000001e00044c90 l     O .bss	0000000000000010 bl_load_info
0000000000000000 l    df *ABS*	0000000000000000 tf_crc32.c
0000000000000000 l    df *ABS*	0000000000000000 tf_log.c
0000001e0003f3a8 l     O .data	0000000000000004 max_log_level
0000000000000000 l    df *ABS*	0000000000000000 pl330.c
0000001e00031e68 l     F .ro	0000000000000038 dma_pl330_gen_mov
0000001e00044ca0 l     O .bss	0000000000000090 pl330_data
0000001e0003d984 l     O .ro	000000000000000f __func__.0
0000000000000000 l    df *ABS*	0000000000000000 cmu.c
0000001e000324d8 l     F .ro	0000000000000034 cmu_find_pll_lvl
0000001e0003250c l     F .ro	00000000000001ac cmu_blk_cp_init
0000001e000326b8 l     F .ro	00000000000000f4 cmu_blk_pcie_init
0000001e000327ac l     F .ro	00000000000000d8 cmu_blk_rot_init
0000001e00032884 l     F .ro	0000000000000088 cmu_blk_peri_init
0000001e0003290c l     F .ro	0000000000000524 cmu_top_bus
0000001e0003c698 l     O .ro	00000000000000c8 pll_table_f0434
0000001e00032e30 l     F .ro	00000000000002b8 cmu_blk_dcl_init
0000001e0003c634 l     O .ro	0000000000000064 pll_table_f0435
0000000000000000 l    df *ABS*	0000000000000000 multi_console.c
0000001e0003f3ac l     O .data	0000000000000004 console_state
0000000000000000 l    df *ABS*	0000000000000000 delay_timer.c
0000001e00044d38 l     O .bss	0000000000000008 timer_ops
0000000000000000 l    df *ABS*	0000000000000000 generic_delay_timer.c
0000001e000339c0 l     F .ro	0000000000000024 generic_delay_timeout_init_us
0000001e000339e4 l     F .ro	0000000000000010 generic_delay_timeout_elapsed
0000001e000339f4 l     F .ro	000000000000000c generic_delay_get_timer_value
0000001e00044d40 l     O .bss	0000000000000020 ops
0000000000000000 l    df *ABS*	0000000000000000 hbm3_chipid.c
0000001e0003c400 l     O .ro	0000000000000018 old_lotid
0000000000000000 l    df *ABS*	0000000000000000 hbm3_init.c
0000001e00033bd0 l     F .ro	000000000000005c phy_post_training
0000001e00033c2c l     F .ro	0000000000000590 phy_find_read_training_fail_bit
0000001e000341bc l     F .ro	0000000000000598 phy_find_write_training_fail_bit
0000001e00034754 l     F .ro	0000000000000028 phy_acquire_vwm_buf
0000001e0003c7f4 l     O .ro	000000000000000a CSWTCH.192
0000001e00034b34 l     F .ro	0000000000000204 phy_pre_training
0000000000000000 l    df *ABS*	0000000000000000 io_storage.c
0000001e000389bc l     F .ro	0000000000000038 is_valid_dev
0000001e000389f4 l     F .ro	0000000000000030 is_valid_entity
0000001e00038a24 l     F .ro	0000000000000050 free_entity.isra.0
0000001e00044d60 l     O .bss	0000000000000020 entity_map
0000001e000455d0 l     O .bss	0000000000000004 entity_count
0000001e00044d80 l     O .bss	0000000000000040 entity_pool
0000000000000000 l    df *ABS*	0000000000000000 mailbox.c
0000001e0003c418 l     O .ro	00000000000000f0 mailbox_data
0000000000000000 l    df *ABS*	0000000000000000 gpt.c
0000000000000000 l    df *ABS*	0000000000000000 partition_simple.c
0000001e000455d4 l     O .bss	000000000000001c image_header
0000000000000000 l    df *ABS*	0000000000000000 smmu.c
0000001e000392d0 l     F .ro	0000000000000544 smmu_gen_pagetable
0000001e00045608 l     O .bss	0000000000000018 smmu_l1_pt_index
0000001e000455f4 l     O .bss	0000000000000014 smmu_l2_pt_index
0000001e000455f0 l     O .bss	0000000000000004 smmu_l3_pt_index
0000001e000451c0 l     O .bss	0000000000000030 smmu_l1_pt_base
0000001e00045198 l     O .bss	0000000000000028 smmu_l2_pt_base
0000001e00045190 l     O .bss	0000000000000008 smmu_l3_pt_base
0000001e0003f0e8 l     O .data	0000000000000028 region_info
0000001e0003f000 l     O .data	0000000000000028 region_info_cl3
0000001e0003f0c8 l     O .data	0000000000000020 pt_1g_region_info_cl3
0000001e0003f048 l     O .data	0000000000000080 pt_2m_region_info_cl3
0000001e0003f028 l     O .data	0000000000000020 pt_4k_region_info_cl3
0000001e0003f1b0 l     O .data	0000000000000020 pt_1g_region_info
0000001e0003f130 l     O .data	0000000000000080 pt_2m_region_info
0000001e0003f110 l     O .data	0000000000000020 pt_4k_region_info
0000000000000000 l    df *ABS*	0000000000000000 sic.c
0000001e00039bc8 l     F .ro	000000000000002c poll_reg_same_val.constprop.0.isra.0
0000000000000000 l    df *ABS*	0000000000000000 xlat_tables_arch.c
0000001e0003c774 l     O .ro	0000000000000020 pa_range_bits_arr
0000000000000000 l    df *ABS*	0000000000000000 xlat_tables_context.c
0000001e0003f1d0 l     O .data	0000000000000060 tf_xlat_ctx
0000001e000451f0 l     O .bss	0000000000000398 tf_mmap
0000001e00046000 l     O .xlat_table	0000000000007000 tf_xlat_tables
0000001e00045b80 l     O .bss	0000000000000010 tf_base_xlat_table
0000000000000000 l    df *ABS*	0000000000000000 xlat_tables_core.c
0000001e0003a130 l     F .ro	000000000000020c xlat_tables_map_region
0000001e0003d993 l     O .ro	0000000000000015 __func__.0
0000000000000000 l    df *ABS*	0000000000000000 xlat_tables_utils.c
0000000000000000 l    df *ABS*	0000000000000000 plat_common.c
0000001e0003c508 l     O .ro	0000000000000020 CSWTCH.3
0000000000000000 l    df *ABS*	0000000000000000 plat_bl_common.c
0000000000000000 l    df *ABS*	0000000000000000 plat_log_common.c
0000001e0003c528 l     O .ro	0000000000000028 plat_prefix_str
0000000000000000 l    df *ABS*	0000000000000000 rebel_h_bl2_setup.c
0000001e000455a8 l     O .bss	0000000000000028 rebel_console
0000001e0003f238 l     O .data	0000000000000170 bl2_mem_params_descs
0000000000000000 l    df *ABS*	0000000000000000 rebel_h_image_load.c
0000000000000000 l    df *ABS*	0000000000000000 rebel_h_plat.c
0000000000000000 l    df *ABS*	0000000000000000 rebel_h_pmu.c
0000000000000000 l    df *ABS*	0000000000000000 rebel_h_topology.c
0000000000000000 l    df *ABS*	0000000000000000 debug.o
0000001e0003d9a8 l       .ro	0000000000000000 panic_msg
0000001e0003b1f0 l       .ro	0000000000000000 panic_common
0000001e0003b218 l       .ro	0000000000000000 _panic_handler
0000000000000000 l    df *ABS*	0000000000000000 16550_console.o
0000001e0003b288 l       .ro	0000000000000000 init_fail
0000001e0003b2d8 l       .ro	0000000000000000 register_fail
0000001e0003b2ac l       .ro	0000000000000000 register_16550
0000000000000000 l    df *ABS*	0000000000000000 cache_helpers.o
0000001e0003b3bc l       .ro	0000000000000000 exit_loop_civac
0000001e0003b3a8 l       .ro	0000000000000000 loop_civac
0000001e0003b3f4 l       .ro	0000000000000000 exit_loop_ivac
0000001e0003b3e0 l       .ro	0000000000000000 loop_ivac
0000000000000000 l    df *ABS*	0000000000000000 misc_helpers.o
0000001e0003b404 l     F .ro	0000000000000114 zeromem_dczva
0000000000000000 l    df *ABS*	0000000000000000 enable_mmu.o
0000000000000000 l    df *ABS*	0000000000000000 platform_helpers.o
0000000000000000 l    df *ABS*	0000000000000000 platform_mp_stack.o
0000001e00040440 l       .stacks	0000000000000000 platform_normal_stacks
0000000000000006 l       *ABS*	0000000000000000 TZ_COUNT
0000000000000000 l    df *ABS*	0000000000000000 plat_helper.o
0000000000000000 l    df *ABS*	0000000000000000 assert.c
0000000000000000 l    df *ABS*	0000000000000000 memcpy.c
0000000000000000 l    df *ABS*	0000000000000000 memmove.c
0000000000000000 l    df *ABS*	0000000000000000 printf.c
0000001e0003b670 l     F .ro	00000000000000f4 unsigned_num_print.part.0
0000000000000000 l    df *ABS*	0000000000000000 snprintf.c
0000001e0003bc60 l     F .ro	0000000000000130 unsigned_num_print
0000000000000000 l    df *ABS*	0000000000000000 strlen.c
0000000000000000 l    df *ABS*	0000000000000000 strncmp.c
0000000000000000 l    df *ABS*	0000000000000000 memset.c
0000000000000000 l    df *ABS*	0000000000000000 early_exceptions.o
0000001e0003e000 l     F .ro	0000000000000000 SynchronousExceptionSP0
0000001e0003e080 l     F .ro	0000000000000000 IrqSP0
0000001e0003e100 l     F .ro	0000000000000000 FiqSP0
0000001e0003e180 l     F .ro	0000000000000000 SErrorSP0
0000001e0003e200 l     F .ro	0000000000000000 SynchronousExceptionSPx
0000001e0003e280 l     F .ro	0000000000000000 IrqSPx
0000001e0003e300 l     F .ro	0000000000000000 FiqSPx
0000001e0003e380 l     F .ro	0000000000000000 SErrorSPx
0000001e0003e400 l     F .ro	0000000000000000 SynchronousExceptionA64
0000001e0003e480 l     F .ro	0000000000000000 IrqA64
0000001e0003e500 l     F .ro	0000000000000000 FiqA64
0000001e0003e580 l     F .ro	0000000000000000 SErrorA64
0000001e0003e600 l     F .ro	0000000000000000 SynchronousExceptionA32
0000001e0003e680 l     F .ro	0000000000000000 IrqA32
0000001e0003e700 l     F .ro	0000000000000000 FiqA32
0000001e0003e780 l     F .ro	0000000000000000 SErrorA32
0000001e00033858 g     F .ro	0000000000000028 putchar
0000001e000314fc g     F .ro	0000000000000040 tmrs_gen_inst
0000001e00033788 g     F .ro	0000000000000028 console_set_scope
0000001e00033964 g     F .ro	0000000000000028 mdelay
0000001e00045b80 g       .bss	0000000000000000 __PMF_TIMESTAMP_START__
0000001e00039268 g     F .ro	0000000000000010 gpt_get_length_by_entry
0000001e00033724 g     F .ro	0000000000000064 console_register
0000001e00038f24 g     F .ro	00000000000000b0 load_partition_gpt
0000001e0004d000 g       .coherent_ram	0000000000000000 __COHERENT_RAM_END__
0000001e0003b36c g     F .ro	000000000000001c console_16550_flush
0000001e0003b3fc g     F .ro	0000000000000008 zeromem
0000001e0003b1e8 g     F .ro	0000000000000008 asm_print_newline
0000001e0003918c g     F .ro	0000000000000070 load_partition_table
0000001e0003bc0c g     F .ro	0000000000000054 printf
0000001e00045588 g     O .bss	0000000000000018 mmu_cfg_params
0000001e0003a6d8 g     F .ro	0000000000000004 xlat_tables_print
0000001e0003b15c g     F .ro	000000000000003c plat_core_pos_by_mpidr
0000001e0003f000 g       .ro	0000000000000000 __RW_START__
0000001e0003b2dc g     F .ro	000000000000004c console_16550_core_putc
0000001e00039fc8 g     F .ro	0000000000000048 enable_mmu_el1
0000001e0003f3b4 g     O .data	0000000000000700 rx_lane
0000001e0003b3f8 g     F .ro	0000000000000004 smc
0000001e00030868 g     F .ro	0000000000000124 icon_rx_lane_search
0000001e0003032c g     F .ro	0000000000000074 phy_dq_offset_control
0000001e0003a6dc g     F .ro	0000000000000024 get_el_str
0000001e00046000 g       .xlat_table	0000000000000000 __XLAT_TABLE_START__
0000001e0003b518 g     F .ro	0000000000000070 enable_mmu_direct_el1
0000001e0003a74c g     F .ro	0000000000000130 bl2_plat_arch_setup
0000001e0003b328 g     F .ro	000000000000001c console_16550_putc
0000001e0003b198 g     F .ro	0000000000000008 asm_assert
0000001e0003923c g     F .ro	000000000000002c gpt_get_address_by_entry
0000001e0003b63c g     F .ro	0000000000000034 memmove
0000001e00039e60 g     F .ro	00000000000000e0 setup_mmu_cfg
0000001e0003c2e4 g     F .ro	0000000000000050 snprintf
0000001e00044e18 g     O .bss	0000000000000378 list
0000001e00033328 g     F .ro	0000000000000240 cmu_blk_dram_init_evt1
0000001e0003a71c  w    F .ro	0000000000000030 plat_log_get_prefix
0000001e0003b588  w    F .ro	0000000000000004 plat_report_exception
0000001e0003778c g     F .ro	000000000000026c phy_dcm_init
0000001e00030618 g     F .ro	000000000000009c icon_test_instruction_req
0000001e0003b000 g     F .ro	0000000000000030 plat_set_cpu_rvbar
0000001e000350d8 g     F .ro	00000000000001f4 phy_find_min_result
0000001e000307cc g     F .ro	000000000000009c icon_lane_repair
0000001e00039f74 g     F .ro	0000000000000054 init_xlat_tables
0000001e000349e4 g     F .ro	0000000000000070 get_write_latency
0000001e0003f000 g       .data	0000000000000000 __DATA_START__
0000001e00045958 g     O .bss	0000000000000200 mbr_sector
0000001e000302e0 g     F .ro	0000000000000040 phy_set_read_vref
0000001e00034a54 g     F .ro	00000000000000e0 icon_mrs
0000001e00034d38 g     F .ro	00000000000001a0 tmrs_default_set
0000001e00035c40 g     F .ro	0000000000000024 phy_vwm_sum_margin
0000001e00039db0 g     F .ro	000000000000002c xlat_arch_regime_get_xn_desc
0000001e00030c74 g     F .ro	0000000000000154 icon_tx_lane_search
0000001e0003afe4 g     F .ro	0000000000000004 bl2_platform_setup
0000001e00038544 g     F .ro	0000000000000478 hbm3_init
0000001e0003b61c g     F .ro	0000000000000020 memcpy
0000001e00031f68 g     F .ro	0000000000000448 dma_start
0000001e00031b7c g     F .ro	000000000000001c flush_bl_params_desc
0000001e0003b404 g     F .ro	0000000000000114 zero_normalmem
0000001e0003bd90 g     F .ro	0000000000000554 vsnprintf
0000001e00044440 g     O .bss	0000000000000400 mcode
0000001e0003afe8 g     F .ro	000000000000000c plat_get_syscnt_freq2
0000001e00044dc8 g     O .bss	0000000000000050 binary_size
0000001e0003b58c  w    F .ro	0000000000000008 plat_panic_handler
0000001e0003aff4 g     F .ro	0000000000000004 plat_flush_next_bl_params
0000001e0003da28 g       .ro	0000000000000000 __RT_SVC_DESCS_START__
0000001e00044440 g       .stacks	0000000000000000 __STACKS_END__
0000001e00034ed8 g     F .ro	0000000000000070 set_tmrs
0000001e00038d48 g     F .ro	000000000000004c ipm_samsung_send
0000001e0003f230 g     O .data	0000000000000008 bl_mem_params_desc_ptr
0000001e00038ba8 g     F .ro	000000000000005c io_size
0000001e00030700 g     F .ro	00000000000000cc icon_hbm_reset
0000001e000357f0 g     F .ro	0000000000000104 phy_read_training_LFSR_seed
0000001e0003b5b0  w    F .ro	0000000000000010 plat_set_my_stack
0000001e0003da28 g       .ro	0000000000000000 __RT_SVC_DESCS_END__
0000001e00031b98 g     F .ro	0000000000000064 get_bl_params_node_index
0000001e00033a94 g     F .ro	000000000000013c get_lotid_for_hbm
0000001e0003b030 g     F .ro	0000000000000038 plat_pmu_cl_on
0000001e0003b1b8 g     F .ro	0000000000000030 asm_print_hex
0000001e0003636c g     F .ro	0000000000000164 phy_prbs_write_training
0000000000001750 g       *ABS*	0000000000000000 __BSS_SIZE__
0000001e0003b1a0 g     F .ro	0000000000000018 asm_print_str
0000001e00045818 g     O .bss	00000000000000a0 max_vwm_buf
0000001e0003489c g     F .ro	00000000000000c8 hbm3_dfi_init
0000001e0003e000 g       .ro	0000000000000000 early_exceptions
0000001e00037f34 g     F .ro	0000000000000114 set_errata_tmrs
0000001e0003b344 g     F .ro	0000000000000028 console_16550_core_flush
0000001e000335c8 g     F .ro	0000000000000120 cmu_init_bl2
0000001e0003b5f4 g     F .ro	000000000000000c plat_crash_console_flush
0000001e000364d0 g     F .ro	00000000000000b4 phy_wdqs2ck_training
0000001e0003b0d0 g     F .ro	000000000000008c pmu_reset_blk_dram
0000001e0003a700  w    F .ro	0000000000000008 plat_error_handler
0000001e00030dc8 g     F .ro	000000000000035c icon_tx_extest
0000001e0003a714  w    F .ro	0000000000000008 bl2_plat_handle_post_image_load
0000001e0003e800 g       .ro	0000000000000000 __RO_END_UNALIGNED__
0000001e00030000 g       .ro	0000000000000000 RAM_REGION_START
0000001e00038fd4 g     F .ro	00000000000000a8 load_gpt_header
0000001e000337b0 g     F .ro	00000000000000a8 console_putc
0000001e00035010 g     F .ro	00000000000000c8 phy_write_training_fail_check
0000001e00036584 g     F .ro	00000000000000a4 phy_prbs_training
0000001e0003b5c8 g     F .ro	0000000000000020 plat_crash_console_init
0000001e0003b388 g     F .ro	0000000000000038 flush_dcache_range
0000001e00038438 g     F .ro	000000000000010c hbm3_run_phy_training
0000001e00036628 g     F .ro	00000000000007f8 phy_recv_offset_calibration
0000001e00037c7c g     F .ro	0000000000000170 hbm3_phy_training_evt0
0000001e000401fa g     O .data	0000000000000038 dbi_lane
0000001e0003398c g     F .ro	0000000000000034 timer_init
0000001e00031c60 g     F .ro	000000000000011c get_next_bl_params_from_mem_params_desc
0000001e00036208 g     F .ro	0000000000000164 phy_prbs_read_training
0000001e0003da28 g       .ro	0000000000000000 __PMF_SVC_DESCS_END__
0000001e0003182c g     F .ro	0000000000000120 backtrace
0000001e00039d98 g     F .ro	0000000000000018 xlat_get_min_virt_addr_space_size
0000001e00038048 g     F .ro	00000000000003ac hbm3_ctrl_phy_init
0000001e0004d000 g       .xlat_table	0000000000000000 RAM_REGION_END
0000001e0003a87c g     F .ro	0000000000000090 tzpc_init_sysreg_bl2
0000001e00038efc g     F .ro	0000000000000028 load_gpt_entry
0000001e0003b764 g     F .ro	00000000000004a8 vprintf
0000001e00035b00 g     F .ro	0000000000000140 phy_write_training_LFSR
0000001e00037600 g     F .ro	000000000000018c phy_dca_training
0000001e00031438 g     F .ro	000000000000007c icon_rd_feedback
0000001e00037c2c g     F .ro	0000000000000050 hbm3_phy_training_step1
0000001e0003aff8 g     F .ro	0000000000000004 plat_get_bl_image_load_info
0000001e00037588 g     F .ro	0000000000000078 phy_rx_io_setting
0000001e00031590 g     F .ro	0000000000000034 rebel_bakery_lock_init
0000001e000312e8 g     F .ro	0000000000000104 icon_extest
0000001e00031aac g     F .ro	0000000000000090 load_auth_image
0000001e0004024e g     O .data	000000000000001c ecc_lane
0000001e0004d000 g       .xlat_table	0000000000000000 __BL2_END__
0000001e00034f48 g     F .ro	00000000000000c8 phy_read_training_fail_check
0000001e00039ddc g     F .ro	000000000000001c xlat_arch_current_el
0000001e0003098c g     F .ro	00000000000002e8 icon_rx_extest
0000001e000379f8 g     F .ro	00000000000000a0 phy_training_all
0000001e00033568 g     F .ro	0000000000000030 cmu_blk_dram_init_evt0_by_freq
0000001e00039cec g     F .ro	0000000000000014 xlat_arch_get_pas
0000001e000301f4 g     F .ro	00000000000000ec mrw_phy_direct_cmd
0000001e00030548 g     F .ro	0000000000000068 hbm3_config_init
0000001e00045b80 g       .bss	0000000000000000 __PMF_PERCPU_TIMESTAMP_END__
0000001e0003171c g     F .ro	0000000000000074 bl2_main
0000001e0003c350 g     F .ro	0000000000000038 strncmp
0000001e0004042a g       .data	0000000000000000 __DATA_END__
0000001e0003b1bc g       .ro	0000000000000000 asm_print_hex_bits
0000001e00045b80 g       .bss	0000000000000000 __BASE_XLAT_TABLE_START__
0000001e0003da28 g       .ro	0000000000000000 __CPU_OPS_START__
0000001e000338d4 g     F .ro	0000000000000090 udelay
0000001e000313ec g     F .ro	000000000000004c icon_mrs_ch
0000001e00039d00 g     F .ro	0000000000000064 tcr_physical_addr_size_bits
0000001e0003b3c0 g     F .ro	0000000000000038 inv_dcache_range
0000001e00030000 g     F .ro	0000000000000098 bl2_entrypoint
0000001e000305b0 g     F .ro	0000000000000034 wait_for_test_instruction_req_done
0000001e000303f4 g     F .ro	0000000000000054 phy_sev_offset_control
0000001e000314b4 g     F .ro	0000000000000048 tmrs_write
0000001e00033a38 g     F .ro	000000000000005c generic_delay_timer_init
0000001e0003153c g     F .ro	0000000000000054 tmrs_bypass
0000001e00033a00 g     F .ro	0000000000000038 generic_delay_timer_init_args
0000001e000300c8 g     F .ro	0000000000000064 phy_do_training
0000001e0003a010 g     F .ro	0000000000000120 xlat_desc
0000001e00030448 g     F .ro	0000000000000094 phy_dbi_offset_control
0000001e00045b80 g       .bss	0000000000000000 __BSS_END__
0000001e0003da28 g       .ro	0000000000000000 __CPU_OPS_END__
0000001e0004026a g     O .data	00000000000001c0 dq_lane
0000001e00038c78 g     F .ro	0000000000000058 io_close
0000001e000306b4 g     F .ro	000000000000004c icon_sw_instruction_req
0000001e00035638 g     F .ro	00000000000000c8 phy_read_training
0000001e0004d000 g       .coherent_ram	0000000000000000 __COHERENT_RAM_START__
0000001e00038ebc g     F .ro	0000000000000018 gpt_get_image_header
0000001e0003da28 g       .ro	0000000000000000 __GOT_END__
0000001e0003c388 g     F .ro	0000000000000074 memset
0000001e0003b290 g     F .ro	000000000000004c console_16550_register
0000001e0003da28 g       .ro	0000000000000000 __PARSER_LIB_DESCS_END__
0000001e000358f4 g     F .ro	00000000000000c4 phy_read_training_LFSR
0000000000000000 g       *ABS*	0000000000000000 __COHERENT_RAM_UNALIGNED_SIZE__
0000001e0003f3b0 g     O .data	0000000000000004 bl_mem_params_desc_num
0000001e000323b0 g     F .ro	0000000000000038 dma_init
0000001e00033598 g     F .ro	0000000000000030 cmu_blk_dram_init_evt1_by_freq
0000001e00038e98 g     F .ro	0000000000000024 gpt_32bit_memcpy
0000001e0003a708  w    F .ro	0000000000000004 bl2_plat_preload_setup
0000001e00039d64 g     F .ro	0000000000000034 xlat_arch_get_max_supported_pa
0000001e00035400 g     F .ro	0000000000000138 phy_update_ca_ra_deskew
0000001e000315d0 g     F .ro	000000000000014c bl2_load_images
0000001e000383f4 g     F .ro	0000000000000044 hbm_ecc_scrub_init
0000001e000315c4 g     F .ro	000000000000000c bl2_arch_setup
0000001e0003da28 g       .ro	0000000000000000 __GOT_START__
0000001e00034964 g     F .ro	0000000000000080 get_read_latency
0000000000000000 g       *ABS*	0000000000000000 __PERCPU_TIMESTAMP_SIZE__
0000001e000300b4 g     F .ro	0000000000000014 get_phy_lock_value
0000001e0003da28 g       .ro	0000000000000000 __FCONF_POPULATOR_END__
0000001e00031b3c g     F .ro	0000000000000040 flush_bl_params_desc_args
0000001e0003a90c g     F .ro	00000000000006d8 bl2_early_platform_setup2
0000001e000352cc g     F .ro	0000000000000134 phy_get_training_result
0000001e000305e4 g     F .ro	0000000000000034 wait_for_test_instruction_req_done_clear
0000001e00037dec g     F .ro	0000000000000148 hbm3_phy_training_evt1
0000001e00045b90 g       .bss	0000000000000000 __BASE_XLAT_TABLE_END__
0000001e0003b0a8 g     F .ro	0000000000000018 plat_set_secondary_chiplet_cnt
0000001e00039bf4 g     F .ro	00000000000000f8 request_to_cmrt
0000001e00038ed4 g     F .ro	0000000000000028 gpt_set_gpt_image_addr
0000001e0003b0c0 g     F .ro	0000000000000010 pmu_get_bootmode
0000001e00031ea0 g     F .ro	00000000000000c8 dma_configure
0000001e00033880 g     F .ro	0000000000000054 console_flush
0000001e0003f000 g       .ro	0000000000000000 __RO_END__
0000001e000390bc g     F .ro	00000000000000d0 load_mbr_header
0000001e00038c04 g     F .ro	0000000000000074 io_read
0000001e00035c88 g     F .ro	00000000000001e0 phy_write_vref_training
0000001e000323e8 g     F .ro	00000000000000f0 dma_load_image
0000001e000330e8 g     F .ro	0000000000000240 cmu_blk_dram_init_evt0
0000001e000391fc g     F .ro	0000000000000040 gpt_load_binary_length
0000001e00044440 g       .bss	0000000000000000 __BSS_START__
0000001e00035e68 g     F .ro	00000000000003a0 phy_read_vref_training_LFSR_vertical
0000001e000456d0 g     O .bss	0000000000000148 max_offset_buf
0000001e00030000 g       .ro	0000000000000000 __RO_START__
0000001e0003a33c g     F .ro	000000000000023c mmap_add_region_ctx
0000001e0003da28 g       .ro	0000000000000000 __PMF_SVC_DESCS_START__
0000001e0003b068 g     F .ro	0000000000000040 plat_pmu_cpu_on
0000001e0003b5e8 g     F .ro	000000000000000c plat_crash_console_putc
0000001e000359b8 g     F .ro	0000000000000148 phy_write_training_LFSR_seed
0000001e00038ac4 g     F .ro	00000000000000e4 io_open
0000001e0003907c g     F .ro	0000000000000040 load_primary_gpt
0000001e000336e8 g     F .ro	000000000000003c console_is_registered
0000001e00030320 g     F .ro	000000000000000c phy_set_write_vref
0000001e00039df8 g     F .ro	0000000000000068 is_mmu_enabled_ctx
0000001e0003b5c8 g     F .ro	0000000000000000 plat_get_image_source
0000001e000301a8 g     F .ro	000000000000004c phy_update_dll_code
0000001e00031db4 g     F .ro	00000000000000b4 tf_log
0000001e00036e20 g     F .ro	0000000000000768 phy_command_training
0000001e0003da28 g       .ro	0000000000000000 __FCONF_POPULATOR_START__
0000000000020000 g       *ABS*	0000000000000000 RAM_REGION_LENGTH
0000001e0004d000 g       .xlat_table	0000000000000000 __RW_END__
0000001e0004d000 g       .coherent_ram	0000000000000000 __COHERENT_RAM_END_UNALIGNED__
0000001e00035700 g     F .ro	00000000000000f0 phy_write_training
0000001e00031bfc g     F .ro	0000000000000064 get_bl_load_info_from_mem_params_desc
0000001e00040440 g       .stacks	0000000000000000 __STACKS_START__
0000001e00031d7c g     F .ro	0000000000000038 tf_crc32
0000001e00045b80 g       .bss	0000000000000000 __PMF_TIMESTAMP_END__
0000001e00038d94 g     F .ro	0000000000000104 parse_gpt_entry
0000001e0003a578 g     F .ro	000000000000015c init_xlat_tables_ctx
0000001e00035538 g     F .ro	0000000000000100 phy_search_ca_ra_deskew
0000001e0004d000 g       .xlat_table	0000000000000000 __XLAT_TABLE_END__
0000001e000458b8 g     O .bss	00000000000000a0 vwm_buf
0000001e0003b5c0 g     F .ro	0000000000000008 plat_my_core_pos
0000001e0003a70c  w    F .ro	0000000000000008 bl2_plat_handle_pre_image_load
0000001e0003c334 g     F .ro	000000000000001c strlen
0000001e00031124 g     F .ro	00000000000001c4 hbm3_lane_repair
0000001e0003012c g     F .ro	000000000000007c phy_gen_pattern
0000001e00039278 g     F .ro	0000000000000058 gpt_partition_init
0000001e00038a74 g     F .ro	0000000000000050 io_dev_close
0000001e0003b600 g     F .ro	000000000000001c __assert
0000001e0003b1f0 g     F .ro	0000000000000030 el3_panic
0000001e00044dc0 g     O .bss	0000000000000008 gpt_image_addr
0000001e0003a6d4 g     F .ro	0000000000000004 xlat_mmap_print
0000001e0003477c g     F .ro	0000000000000120 enable_hashing
0000001e0003b220 g     F .ro	0000000000000070 console_16550_core_init
0000001e00040232 g     O .data	000000000000001c sev_lane
0000001e00037a98 g     F .ro	0000000000000194 hbm3_phy_training_step2
0000001e000304dc g     F .ro	0000000000000034 phy_rdqs_offset_control
0000001e00044d30 g     O .bss	0000000000000008 console_list
0000001e0003affc g     F .ro	0000000000000004 plat_get_next_bl_params
0000001e00030098 g     F .ro	000000000000001c get_hbm_cfg
0000001e0003fab4 g     O .data	0000000000000746 tx_lane
0000001e000303a0 g     F .ro	0000000000000054 phy_ecc_offset_control
0000001e0003b594  w    F .ro	000000000000001c plat_get_my_stack
0000001e00038cd0 g     F .ro	0000000000000078 ipm_samsung_write
0000001e00039f40 g     F .ro	0000000000000034 mmap_add_region
0000001e000455a0 g     O .bss	0000000000000008 plat_try_img_ops
0000001e00039814 g     F .ro	00000000000003b4 smmu_early_init
0000001e0003da28 g       .ro	0000000000000000 __PARSER_LIB_DESCS_START__
0000001e000456c0 g     O .bss	0000000000000010 rep_status
0000001e00030510 g     F .ro	0000000000000038 phy_offset_update
0000001e00045620 g     O .bss	00000000000000a0 ch_rep_lane
0000001e00035c64 g     F .ro	0000000000000024 phy_vwm_shitf_window



Disassembly of section .ro:

0000001e00030000 <bl2_entrypoint>:
  1e00030000:	aa0003f4 	mov	x20, x0
  1e00030004:	aa0103f5 	mov	x21, x1
  1e00030008:	aa0203f6 	mov	x22, x2
  1e0003000c:	aa0303f7 	mov	x23, x3
  1e00030010:	1006ff80 	adr	x0, 1e0003e000 <SynchronousExceptionSP0>
  1e00030014:	d518c000 	msr	vbar_el1, x0
  1e00030018:	d5033fdf 	isb
  1e0003001c:	d50344ff 	msr	daifclr, #0x4
  1e00030020:	d2820141 	mov	x1, #0x100a                	// #4106
  1e00030024:	d5381000 	mrs	x0, sctlr_el1
  1e00030028:	aa010000 	orr	x0, x0, x1
  1e0003002c:	9253f800 	and	x0, x0, #0xffffefffffffffff
  1e00030030:	d5181000 	msr	sctlr_el1, x0
  1e00030034:	d5033fdf 	isb
  1e00030038:	10077e40 	adr	x0, 1e0003f000 <__RO_END__>
  1e0003003c:	100e7e21 	adr	x1, 1e0004d000 <RAM_REGION_END>
  1e00030040:	cb000021 	sub	x1, x1, x0
  1e00030044:	94002cdf 	bl	1e0003b3c0 <inv_dcache_range>
  1e00030048:	900000a0 	adrp	x0, 1e00044000 <__STACKS_START__+0x3bc0>
  1e0003004c:	91110000 	add	x0, x0, #0x440
  1e00030050:	b00000a1 	adrp	x1, 1e00045000 <list+0x1e8>
  1e00030054:	912e0021 	add	x1, x1, #0xb80
  1e00030058:	cb000021 	sub	x1, x1, x0
  1e0003005c:	94002ce8 	bl	1e0003b3fc <zeromem>
  1e00030060:	b00000e0 	adrp	x0, 1e0004d000 <RAM_REGION_END>
  1e00030064:	91000000 	add	x0, x0, #0x0
  1e00030068:	b00000e1 	adrp	x1, 1e0004d000 <RAM_REGION_END>
  1e0003006c:	91000021 	add	x1, x1, #0x0
  1e00030070:	cb000021 	sub	x1, x1, x0
  1e00030074:	94002ce2 	bl	1e0003b3fc <zeromem>
  1e00030078:	94002d4e 	bl	1e0003b5b0 <plat_set_my_stack>
  1e0003007c:	aa1403e0 	mov	x0, x20
  1e00030080:	aa1503e1 	mov	x1, x21
  1e00030084:	aa1603e2 	mov	x2, x22
  1e00030088:	aa1703e3 	mov	x3, x23
  1e0003008c:	940005a4 	bl	1e0003171c <bl2_main>
  1e00030090:	94002d3f 	bl	1e0003b58c <plat_panic_handler>
  1e00030094:	d503201f 	nop

0000001e00030098 <get_hbm_cfg>:
  1e00030098:	900000a2 	adrp	x2, 1e00044000 <__STACKS_START__+0x3bc0>
  1e0003009c:	91210042 	add	x2, x2, #0x840
  1e000300a0:	52802201 	mov	w1, #0x110                 	// #272
  1e000300a4:	7100101f 	cmp	w0, #0x4
  1e000300a8:	9ba10801 	umaddl	x1, w0, w1, x2
  1e000300ac:	9a9f3020 	csel	x0, x1, xzr, cc	// cc = lo, ul, last
  1e000300b0:	d65f03c0 	ret

0000001e000300b4 <get_phy_lock_value>:
  1e000300b4:	92401c21 	and	x1, x1, #0xff
  1e000300b8:	f8617800 	ldr	x0, [x0, x1, lsl #3]
  1e000300bc:	b940b000 	ldr	w0, [x0, #176]
  1e000300c0:	92402400 	and	x0, x0, #0x3ff
  1e000300c4:	d65f03c0 	ret

0000001e000300c8 <phy_do_training>:
  1e000300c8:	a9bd7bfd 	stp	x29, x30, [sp, #-48]!
  1e000300cc:	910003fd 	mov	x29, sp
  1e000300d0:	a90153f3 	stp	x19, x20, [sp, #16]
  1e000300d4:	d37d1c34 	ubfiz	x20, x1, #3, #8
  1e000300d8:	aa0003f3 	mov	x19, x0
  1e000300dc:	a9025bf5 	stp	x21, x22, [sp, #32]
  1e000300e0:	8b140016 	add	x22, x0, x20
  1e000300e4:	f8746801 	ldr	x1, [x0, x20]
  1e000300e8:	b9401420 	ldr	w0, [x1, #20]
  1e000300ec:	32000000 	orr	w0, w0, #0x1
  1e000300f0:	b9001420 	str	w0, [x1, #20]
  1e000300f4:	f94002c0 	ldr	x0, [x22]
  1e000300f8:	b9401415 	ldr	w21, [x0, #20]
  1e000300fc:	52800020 	mov	w0, #0x1                   	// #1
  1e00030100:	d3471eb5 	ubfx	x21, x21, #7, #1
  1e00030104:	94000df4 	bl	1e000338d4 <udelay>
  1e00030108:	34ffff75 	cbz	w21, 1e000300f4 <phy_do_training+0x2c>
  1e0003010c:	f8746a61 	ldr	x1, [x19, x20]
  1e00030110:	b9401420 	ldr	w0, [x1, #20]
  1e00030114:	121f7800 	and	w0, w0, #0xfffffffe
  1e00030118:	b9001420 	str	w0, [x1, #20]
  1e0003011c:	a94153f3 	ldp	x19, x20, [sp, #16]
  1e00030120:	a9425bf5 	ldp	x21, x22, [sp, #32]
  1e00030124:	a8c37bfd 	ldp	x29, x30, [sp], #48
  1e00030128:	d65f03c0 	ret

0000001e0003012c <phy_gen_pattern>:
  1e0003012c:	a9be7bfd 	stp	x29, x30, [sp, #-32]!
  1e00030130:	910003fd 	mov	x29, sp
  1e00030134:	a90153f3 	stp	x19, x20, [sp, #16]
  1e00030138:	d37d1c34 	ubfiz	x20, x1, #3, #8
  1e0003013c:	aa0003f3 	mov	x19, x0
  1e00030140:	f8746801 	ldr	x1, [x0, x20]
  1e00030144:	b9442020 	ldr	w0, [x1, #1056]
  1e00030148:	320d0000 	orr	w0, w0, #0x80000
  1e0003014c:	b9042020 	str	w0, [x1, #1056]
  1e00030150:	52800140 	mov	w0, #0xa                   	// #10
  1e00030154:	94000de0 	bl	1e000338d4 <udelay>
  1e00030158:	f8746a61 	ldr	x1, [x19, x20]
  1e0003015c:	b9442020 	ldr	w0, [x1, #1056]
  1e00030160:	120c7800 	and	w0, w0, #0xfff7ffff
  1e00030164:	b9042020 	str	w0, [x1, #1056]
  1e00030168:	52800140 	mov	w0, #0xa                   	// #10
  1e0003016c:	94000dda 	bl	1e000338d4 <udelay>
  1e00030170:	f8746a61 	ldr	x1, [x19, x20]
  1e00030174:	b9442020 	ldr	w0, [x1, #1056]
  1e00030178:	320d0000 	orr	w0, w0, #0x80000
  1e0003017c:	b9042020 	str	w0, [x1, #1056]
  1e00030180:	52800140 	mov	w0, #0xa                   	// #10
  1e00030184:	94000dd4 	bl	1e000338d4 <udelay>
  1e00030188:	f8746a61 	ldr	x1, [x19, x20]
  1e0003018c:	b9442020 	ldr	w0, [x1, #1056]
  1e00030190:	120c7800 	and	w0, w0, #0xfff7ffff
  1e00030194:	b9042020 	str	w0, [x1, #1056]
  1e00030198:	52800140 	mov	w0, #0xa                   	// #10
  1e0003019c:	a94153f3 	ldp	x19, x20, [sp, #16]
  1e000301a0:	a8c27bfd 	ldp	x29, x30, [sp], #32
  1e000301a4:	14000dcc 	b	1e000338d4 <udelay>

0000001e000301a8 <phy_update_dll_code>:
  1e000301a8:	a9be7bfd 	stp	x29, x30, [sp, #-32]!
  1e000301ac:	910003fd 	mov	x29, sp
  1e000301b0:	a90153f3 	stp	x19, x20, [sp, #16]
  1e000301b4:	92401c34 	and	x20, x1, #0xff
  1e000301b8:	aa0003f3 	mov	x19, x0
  1e000301bc:	f8747801 	ldr	x1, [x0, x20, lsl #3]
  1e000301c0:	b9403020 	ldr	w0, [x1, #48]
  1e000301c4:	32170000 	orr	w0, w0, #0x200
  1e000301c8:	b9003020 	str	w0, [x1, #48]
  1e000301cc:	52800020 	mov	w0, #0x1                   	// #1
  1e000301d0:	94000dc1 	bl	1e000338d4 <udelay>
  1e000301d4:	f8747a61 	ldr	x1, [x19, x20, lsl #3]
  1e000301d8:	b9403020 	ldr	w0, [x1, #48]
  1e000301dc:	12167800 	and	w0, w0, #0xfffffdff
  1e000301e0:	b9003020 	str	w0, [x1, #48]
  1e000301e4:	52800020 	mov	w0, #0x1                   	// #1
  1e000301e8:	a94153f3 	ldp	x19, x20, [sp, #16]
  1e000301ec:	a8c27bfd 	ldp	x29, x30, [sp], #32
  1e000301f0:	14000db9 	b	1e000338d4 <udelay>

0000001e000301f4 <mrw_phy_direct_cmd>:
  1e000301f4:	a9bd7bfd 	stp	x29, x30, [sp, #-48]!
  1e000301f8:	12001c63 	and	w3, w3, #0xff
  1e000301fc:	12001042 	and	w2, w2, #0x1f
  1e00030200:	910003fd 	mov	x29, sp
  1e00030204:	a90153f3 	stp	x19, x20, [sp, #16]
  1e00030208:	d37d1c34 	ubfiz	x20, x1, #3, #8
  1e0003020c:	aa0003f3 	mov	x19, x0
  1e00030210:	f8746801 	ldr	x1, [x0, x20]
  1e00030214:	f90013f5 	str	x21, [sp, #32]
  1e00030218:	8b140015 	add	x21, x0, x20
  1e0003021c:	b9441c20 	ldr	w0, [x1, #1052]
  1e00030220:	321b0000 	orr	w0, w0, #0x20
  1e00030224:	b9041c20 	str	w0, [x1, #1052]
  1e00030228:	f8746a61 	ldr	x1, [x19, x20]
  1e0003022c:	b9441c20 	ldr	w0, [x1, #1052]
  1e00030230:	32000000 	orr	w0, w0, #0x1
  1e00030234:	b9041c20 	str	w0, [x1, #1052]
  1e00030238:	d2820280 	mov	x0, #0x1014                	// #4116
  1e0003023c:	f2a004a0 	movk	x0, #0x25, lsl #16
  1e00030240:	f2c003c0 	movk	x0, #0x1e, lsl #32
  1e00030244:	b9400000 	ldr	w0, [x0]
  1e00030248:	72080c1f 	tst	w0, #0xf000000
  1e0003024c:	f8746a60 	ldr	x0, [x19, x20]
  1e00030250:	b9444001 	ldr	w1, [x0, #1088]
  1e00030254:	54000421 	b.ne	1e000302d8 <mrw_phy_direct_cmd+0xe4>  // b.any
  1e00030258:	330f1041 	bfi	w1, w2, #17, #5
  1e0003025c:	b9044001 	str	w1, [x0, #1088]
  1e00030260:	f8746a60 	ldr	x0, [x19, x20]
  1e00030264:	b9444801 	ldr	w1, [x0, #1096]
  1e00030268:	33081c61 	bfi	w1, w3, #24, #8
  1e0003026c:	b9044801 	str	w1, [x0, #1096]
  1e00030270:	f8746a61 	ldr	x1, [x19, x20]
  1e00030274:	b9442020 	ldr	w0, [x1, #1056]
  1e00030278:	32100000 	orr	w0, w0, #0x10000
  1e0003027c:	b9042020 	str	w0, [x1, #1056]
  1e00030280:	52800020 	mov	w0, #0x1                   	// #1
  1e00030284:	94000d94 	bl	1e000338d4 <udelay>
  1e00030288:	f8746a61 	ldr	x1, [x19, x20]
  1e0003028c:	b9442020 	ldr	w0, [x1, #1056]
  1e00030290:	120f7800 	and	w0, w0, #0xfffeffff
  1e00030294:	b9042020 	str	w0, [x1, #1056]
  1e00030298:	f8746a61 	ldr	x1, [x19, x20]
  1e0003029c:	b9441c20 	ldr	w0, [x1, #1052]
  1e000302a0:	321b0000 	orr	w0, w0, #0x20
  1e000302a4:	b9041c20 	str	w0, [x1, #1052]
  1e000302a8:	f94002a0 	ldr	x0, [x21]
  1e000302ac:	b9444c00 	ldr	w0, [x0, #1100]
  1e000302b0:	3627ffc0 	tbz	w0, #4, 1e000302a8 <mrw_phy_direct_cmd+0xb4>
  1e000302b4:	f8746a61 	ldr	x1, [x19, x20]
  1e000302b8:	b9441c20 	ldr	w0, [x1, #1052]
  1e000302bc:	121f7800 	and	w0, w0, #0xfffffffe
  1e000302c0:	b9041c20 	str	w0, [x1, #1052]
  1e000302c4:	52800140 	mov	w0, #0xa                   	// #10
  1e000302c8:	a94153f3 	ldp	x19, x20, [sp, #16]
  1e000302cc:	f94013f5 	ldr	x21, [sp, #32]
  1e000302d0:	a8c37bfd 	ldp	x29, x30, [sp], #48
  1e000302d4:	14000d80 	b	1e000338d4 <udelay>
  1e000302d8:	330d1041 	bfi	w1, w2, #19, #5
  1e000302dc:	17ffffe0 	b	1e0003025c <mrw_phy_direct_cmd+0x68>

0000001e000302e0 <phy_set_read_vref>:
  1e000302e0:	92401c21 	and	x1, x1, #0xff
  1e000302e4:	531a1444 	ubfiz	w4, w2, #6, #6
  1e000302e8:	12001442 	and	w2, w2, #0x3f
  1e000302ec:	2a020084 	orr	w4, w4, w2
  1e000302f0:	f8617805 	ldr	x5, [x0, x1, lsl #3]
  1e000302f4:	b94884a2 	ldr	w2, [x5, #2180]
  1e000302f8:	330e2c82 	bfi	w2, w4, #18, #12
  1e000302fc:	b90884a2 	str	w2, [x5, #2180]
  1e00030300:	f8617801 	ldr	x1, [x0, x1, lsl #3]
  1e00030304:	531a1460 	ubfiz	w0, w3, #6, #6
  1e00030308:	12001463 	and	w3, w3, #0x3f
  1e0003030c:	2a030000 	orr	w0, w0, w3
  1e00030310:	b9488822 	ldr	w2, [x1, #2184]
  1e00030314:	330e2c02 	bfi	w2, w0, #18, #12
  1e00030318:	b9088822 	str	w2, [x1, #2184]
  1e0003031c:	d65f03c0 	ret

0000001e00030320 <phy_set_write_vref>:
  1e00030320:	531f1843 	ubfiz	w3, w2, #1, #7
  1e00030324:	528001e2 	mov	w2, #0xf                   	// #15
  1e00030328:	17ffffb3 	b	1e000301f4 <mrw_phy_direct_cmd>

0000001e0003032c <phy_dq_offset_control>:
  1e0003032c:	12000842 	and	w2, w2, #0x7
  1e00030330:	531d0863 	ubfiz	w3, w3, #3, #3
  1e00030334:	2a020063 	orr	w3, w3, w2
  1e00030338:	d37d1c21 	ubfiz	x1, x1, #3, #8
  1e0003033c:	d2800002 	mov	x2, #0x0                   	// #0
  1e00030340:	531f7866 	lsl	w6, w3, #1
  1e00030344:	530f3863 	lsl	w3, w3, #17
  1e00030348:	f8616804 	ldr	x4, [x0, x1]
  1e0003034c:	911f5084 	add	x4, x4, #0x7d4
  1e00030350:	b8626884 	ldr	w4, [x4, x2]
  1e00030354:	f8616805 	ldr	x5, [x0, x1]
  1e00030358:	12196084 	and	w4, w4, #0xffffff80
  1e0003035c:	2a060084 	orr	w4, w4, w6
  1e00030360:	911f50a5 	add	x5, x5, #0x7d4
  1e00030364:	32000084 	orr	w4, w4, #0x1
  1e00030368:	b82268a4 	str	w4, [x5, x2]
  1e0003036c:	f8616804 	ldr	x4, [x0, x1]
  1e00030370:	911f5084 	add	x4, x4, #0x7d4
  1e00030374:	b8626884 	ldr	w4, [x4, x2]
  1e00030378:	f8616805 	ldr	x5, [x0, x1]
  1e0003037c:	12096084 	and	w4, w4, #0xff80ffff
  1e00030380:	2a030084 	orr	w4, w4, w3
  1e00030384:	911f50a5 	add	x5, x5, #0x7d4
  1e00030388:	32100084 	orr	w4, w4, #0x10000
  1e0003038c:	b82268a4 	str	w4, [x5, x2]
  1e00030390:	91001042 	add	x2, x2, #0x4
  1e00030394:	f101005f 	cmp	x2, #0x40
  1e00030398:	54fffd81 	b.ne	1e00030348 <phy_dq_offset_control+0x1c>  // b.any
  1e0003039c:	d65f03c0 	ret

0000001e000303a0 <phy_ecc_offset_control>:
  1e000303a0:	d37d1c21 	ubfiz	x1, x1, #3, #8
  1e000303a4:	12000842 	and	w2, w2, #0x7
  1e000303a8:	531d0863 	ubfiz	w3, w3, #3, #3
  1e000303ac:	2a020063 	orr	w3, w3, w2
  1e000303b0:	f8616804 	ldr	x4, [x0, x1]
  1e000303b4:	b9481484 	ldr	w4, [x4, #2068]
  1e000303b8:	f8616802 	ldr	x2, [x0, x1]
  1e000303bc:	12000084 	and	w4, w4, #0x1
  1e000303c0:	2a030484 	orr	w4, w4, w3, lsl #1
  1e000303c4:	b9481445 	ldr	w5, [x2, #2068]
  1e000303c8:	33001885 	bfxil	w5, w4, #0, #7
  1e000303cc:	b9081445 	str	w5, [x2, #2068]
  1e000303d0:	f8616802 	ldr	x2, [x0, x1]
  1e000303d4:	b9481442 	ldr	w2, [x2, #2068]
  1e000303d8:	f8616800 	ldr	x0, [x0, x1]
  1e000303dc:	d3504042 	ubfx	x2, x2, #16, #1
  1e000303e0:	2a030443 	orr	w3, w2, w3, lsl #1
  1e000303e4:	b9481401 	ldr	w1, [x0, #2068]
  1e000303e8:	33101861 	bfi	w1, w3, #16, #7
  1e000303ec:	b9081401 	str	w1, [x0, #2068]
  1e000303f0:	d65f03c0 	ret

0000001e000303f4 <phy_sev_offset_control>:
  1e000303f4:	d37d1c21 	ubfiz	x1, x1, #3, #8
  1e000303f8:	12000842 	and	w2, w2, #0x7
  1e000303fc:	531d0863 	ubfiz	w3, w3, #3, #3
  1e00030400:	2a020063 	orr	w3, w3, w2
  1e00030404:	f8616804 	ldr	x4, [x0, x1]
  1e00030408:	b9481884 	ldr	w4, [x4, #2072]
  1e0003040c:	f8616802 	ldr	x2, [x0, x1]
  1e00030410:	12000084 	and	w4, w4, #0x1
  1e00030414:	2a030484 	orr	w4, w4, w3, lsl #1
  1e00030418:	b9481845 	ldr	w5, [x2, #2072]
  1e0003041c:	33001885 	bfxil	w5, w4, #0, #7
  1e00030420:	b9081845 	str	w5, [x2, #2072]
  1e00030424:	f8616802 	ldr	x2, [x0, x1]
  1e00030428:	b9481842 	ldr	w2, [x2, #2072]
  1e0003042c:	f8616800 	ldr	x0, [x0, x1]
  1e00030430:	d3504042 	ubfx	x2, x2, #16, #1
  1e00030434:	2a030443 	orr	w3, w2, w3, lsl #1
  1e00030438:	b9481801 	ldr	w1, [x0, #2072]
  1e0003043c:	33101861 	bfi	w1, w3, #16, #7
  1e00030440:	b9081801 	str	w1, [x0, #2072]
  1e00030444:	d65f03c0 	ret

0000001e00030448 <phy_dbi_offset_control>:
  1e00030448:	d37d1c21 	ubfiz	x1, x1, #3, #8
  1e0003044c:	12000842 	and	w2, w2, #0x7
  1e00030450:	531d0863 	ubfiz	w3, w3, #3, #3
  1e00030454:	2a020063 	orr	w3, w3, w2
  1e00030458:	f8616804 	ldr	x4, [x0, x1]
  1e0003045c:	b9481c84 	ldr	w4, [x4, #2076]
  1e00030460:	f8616802 	ldr	x2, [x0, x1]
  1e00030464:	12000084 	and	w4, w4, #0x1
  1e00030468:	2a030484 	orr	w4, w4, w3, lsl #1
  1e0003046c:	b9481c45 	ldr	w5, [x2, #2076]
  1e00030470:	33001885 	bfxil	w5, w4, #0, #7
  1e00030474:	b9081c45 	str	w5, [x2, #2076]
  1e00030478:	f8616802 	ldr	x2, [x0, x1]
  1e0003047c:	b9481c42 	ldr	w2, [x2, #2076]
  1e00030480:	f8616804 	ldr	x4, [x0, x1]
  1e00030484:	d3504042 	ubfx	x2, x2, #16, #1
  1e00030488:	2a030442 	orr	w2, w2, w3, lsl #1
  1e0003048c:	b9481c85 	ldr	w5, [x4, #2076]
  1e00030490:	33101845 	bfi	w5, w2, #16, #7
  1e00030494:	b9081c85 	str	w5, [x4, #2076]
  1e00030498:	f8616802 	ldr	x2, [x0, x1]
  1e0003049c:	b9482042 	ldr	w2, [x2, #2080]
  1e000304a0:	f8616804 	ldr	x4, [x0, x1]
  1e000304a4:	12000042 	and	w2, w2, #0x1
  1e000304a8:	2a030442 	orr	w2, w2, w3, lsl #1
  1e000304ac:	b9482085 	ldr	w5, [x4, #2080]
  1e000304b0:	33001845 	bfxil	w5, w2, #0, #7
  1e000304b4:	b9082085 	str	w5, [x4, #2080]
  1e000304b8:	f8616802 	ldr	x2, [x0, x1]
  1e000304bc:	b9482042 	ldr	w2, [x2, #2080]
  1e000304c0:	f8616800 	ldr	x0, [x0, x1]
  1e000304c4:	d3504042 	ubfx	x2, x2, #16, #1
  1e000304c8:	2a030443 	orr	w3, w2, w3, lsl #1
  1e000304cc:	b9482001 	ldr	w1, [x0, #2080]
  1e000304d0:	33101861 	bfi	w1, w3, #16, #7
  1e000304d4:	b9082001 	str	w1, [x0, #2080]
  1e000304d8:	d65f03c0 	ret

0000001e000304dc <phy_rdqs_offset_control>:
  1e000304dc:	92401c21 	and	x1, x1, #0xff
  1e000304e0:	12000842 	and	w2, w2, #0x7
  1e000304e4:	531d0863 	ubfiz	w3, w3, #3, #3
  1e000304e8:	2a020063 	orr	w3, w3, w2
  1e000304ec:	f8617804 	ldr	x4, [x0, x1, lsl #3]
  1e000304f0:	b9482c84 	ldr	w4, [x4, #2092]
  1e000304f4:	f8617800 	ldr	x0, [x0, x1, lsl #3]
  1e000304f8:	12000084 	and	w4, w4, #0x1
  1e000304fc:	2a030483 	orr	w3, w4, w3, lsl #1
  1e00030500:	b9482c01 	ldr	w1, [x0, #2092]
  1e00030504:	33001861 	bfxil	w1, w3, #0, #7
  1e00030508:	b9082c01 	str	w1, [x0, #2092]
  1e0003050c:	d65f03c0 	ret

0000001e00030510 <phy_offset_update>:
  1e00030510:	d37d1c21 	ubfiz	x1, x1, #3, #8
  1e00030514:	8b010004 	add	x4, x0, x1
  1e00030518:	f8616803 	ldr	x3, [x0, x1]
  1e0003051c:	b947d062 	ldr	w2, [x3, #2000]
  1e00030520:	32000042 	orr	w2, w2, #0x1
  1e00030524:	b907d062 	str	w2, [x3, #2000]
  1e00030528:	f9400082 	ldr	x2, [x4]
  1e0003052c:	b947d042 	ldr	w2, [x2, #2000]
  1e00030530:	37ffffc2 	tbnz	w2, #31, 1e00030528 <phy_offset_update+0x18>
  1e00030534:	f8616801 	ldr	x1, [x0, x1]
  1e00030538:	b947d020 	ldr	w0, [x1, #2000]
  1e0003053c:	121f7800 	and	w0, w0, #0xfffffffe
  1e00030540:	b907d020 	str	w0, [x1, #2000]
  1e00030544:	d65f03c0 	ret

0000001e00030548 <hbm3_config_init>:
  1e00030548:	900000a1 	adrp	x1, 1e00044000 <__STACKS_START__+0x3bc0>
  1e0003054c:	d2bef000 	mov	x0, #0xf7800000            	// #4152360960
  1e00030550:	d2bef005 	mov	x5, #0xf7800000            	// #4152360960
  1e00030554:	91210021 	add	x1, x1, #0x840
  1e00030558:	f2c003e0 	movk	x0, #0x1f, lsl #32
  1e0003055c:	d2c00406 	mov	x6, #0x2000000000          	// #137438953472
  1e00030560:	f2c013e5 	movk	x5, #0x9f, lsl #32
  1e00030564:	9147c002 	add	x2, x0, #0x1f0, lsl #12
  1e00030568:	f9008022 	str	x2, [x1, #256]
  1e0003056c:	d15fc002 	sub	x2, x0, #0x7f0, lsl #12
  1e00030570:	aa0003e3 	mov	x3, x0
  1e00030574:	aa0103e4 	mov	x4, x1
  1e00030578:	f9008422 	str	x2, [x1, #264]
  1e0003057c:	d1500002 	sub	x2, x0, #0x400, lsl #12
  1e00030580:	f9004082 	str	x2, [x4, #128]
  1e00030584:	91410042 	add	x2, x2, #0x40, lsl #12
  1e00030588:	f8008483 	str	x3, [x4], #8
  1e0003058c:	91404063 	add	x3, x3, #0x10, lsl #12
  1e00030590:	eb00005f 	cmp	x2, x0
  1e00030594:	54ffff61 	b.ne	1e00030580 <hbm3_config_init+0x38>  // b.any
  1e00030598:	8b060040 	add	x0, x2, x6
  1e0003059c:	91044021 	add	x1, x1, #0x110
  1e000305a0:	eb05001f 	cmp	x0, x5
  1e000305a4:	54fffe01 	b.ne	1e00030564 <hbm3_config_init+0x1c>  // b.any
  1e000305a8:	52800000 	mov	w0, #0x0                   	// #0
  1e000305ac:	d65f03c0 	ret

0000001e000305b0 <wait_for_test_instruction_req_done>:
  1e000305b0:	a9be7bfd 	stp	x29, x30, [sp, #-32]!
  1e000305b4:	910003fd 	mov	x29, sp
  1e000305b8:	a90153f3 	stp	x19, x20, [sp, #16]
  1e000305bc:	aa0003f4 	mov	x20, x0
  1e000305c0:	f9408280 	ldr	x0, [x20, #256]
  1e000305c4:	b9400c13 	ldr	w19, [x0, #12]
  1e000305c8:	52800020 	mov	w0, #0x1                   	// #1
  1e000305cc:	d3451673 	ubfx	x19, x19, #5, #1
  1e000305d0:	94000cc1 	bl	1e000338d4 <udelay>
  1e000305d4:	34ffff73 	cbz	w19, 1e000305c0 <wait_for_test_instruction_req_done+0x10>
  1e000305d8:	a94153f3 	ldp	x19, x20, [sp, #16]
  1e000305dc:	a8c27bfd 	ldp	x29, x30, [sp], #32
  1e000305e0:	d65f03c0 	ret

0000001e000305e4 <wait_for_test_instruction_req_done_clear>:
  1e000305e4:	a9be7bfd 	stp	x29, x30, [sp, #-32]!
  1e000305e8:	910003fd 	mov	x29, sp
  1e000305ec:	a90153f3 	stp	x19, x20, [sp, #16]
  1e000305f0:	aa0003f4 	mov	x20, x0
  1e000305f4:	f9408280 	ldr	x0, [x20, #256]
  1e000305f8:	b9400c13 	ldr	w19, [x0, #12]
  1e000305fc:	52800020 	mov	w0, #0x1                   	// #1
  1e00030600:	d3451673 	ubfx	x19, x19, #5, #1
  1e00030604:	94000cb4 	bl	1e000338d4 <udelay>
  1e00030608:	35ffff73 	cbnz	w19, 1e000305f4 <wait_for_test_instruction_req_done_clear+0x10>
  1e0003060c:	a94153f3 	ldp	x19, x20, [sp, #16]
  1e00030610:	a8c27bfd 	ldp	x29, x30, [sp], #32
  1e00030614:	d65f03c0 	ret

0000001e00030618 <icon_test_instruction_req>:
  1e00030618:	a9bd7bfd 	stp	x29, x30, [sp, #-48]!
  1e0003061c:	910003fd 	mov	x29, sp
  1e00030620:	a90153f3 	stp	x19, x20, [sp, #16]
  1e00030624:	2a0203f3 	mov	w19, w2
  1e00030628:	aa0003f4 	mov	x20, x0
  1e0003062c:	f9408002 	ldr	x2, [x0, #256]
  1e00030630:	f90013f5 	str	x21, [sp, #32]
  1e00030634:	12001c35 	and	w21, w1, #0xff
  1e00030638:	b9400040 	ldr	w0, [x2]
  1e0003063c:	32000000 	orr	w0, w0, #0x1
  1e00030640:	b9000040 	str	w0, [x2]
  1e00030644:	52800020 	mov	w0, #0x1                   	// #1
  1e00030648:	94000ca3 	bl	1e000338d4 <udelay>
  1e0003064c:	f9408280 	ldr	x0, [x20, #256]
  1e00030650:	b9400c02 	ldr	w2, [x0, #12]
  1e00030654:	330012a2 	bfxil	w2, w21, #0, #5
  1e00030658:	b9000c02 	str	w2, [x0, #12]
  1e0003065c:	52800035 	mov	w21, #0x1                   	// #1
  1e00030660:	b9400801 	ldr	w1, [x0, #8]
  1e00030664:	1ad322b3 	lsl	w19, w21, w19
  1e00030668:	2a010261 	orr	w1, w19, w1
  1e0003066c:	b9000801 	str	w1, [x0, #8]
  1e00030670:	2a1503e0 	mov	w0, w21
  1e00030674:	94000c98 	bl	1e000338d4 <udelay>
  1e00030678:	aa1403e0 	mov	x0, x20
  1e0003067c:	97ffffcd 	bl	1e000305b0 <wait_for_test_instruction_req_done>
  1e00030680:	f9408280 	ldr	x0, [x20, #256]
  1e00030684:	b9400801 	ldr	w1, [x0, #8]
  1e00030688:	0a330033 	bic	w19, w1, w19
  1e0003068c:	b9000813 	str	w19, [x0, #8]
  1e00030690:	2a1503e0 	mov	w0, w21
  1e00030694:	94000c90 	bl	1e000338d4 <udelay>
  1e00030698:	aa1403e0 	mov	x0, x20
  1e0003069c:	97ffffd2 	bl	1e000305e4 <wait_for_test_instruction_req_done_clear>
  1e000306a0:	a94153f3 	ldp	x19, x20, [sp, #16]
  1e000306a4:	52800000 	mov	w0, #0x0                   	// #0
  1e000306a8:	f94013f5 	ldr	x21, [sp, #32]
  1e000306ac:	a8c37bfd 	ldp	x29, x30, [sp], #48
  1e000306b0:	d65f03c0 	ret

0000001e000306b4 <icon_sw_instruction_req>:
  1e000306b4:	a9be7bfd 	stp	x29, x30, [sp, #-32]!
  1e000306b8:	910003fd 	mov	x29, sp
  1e000306bc:	f9408002 	ldr	x2, [x0, #256]
  1e000306c0:	f9000bf3 	str	x19, [sp, #16]
  1e000306c4:	aa0003f3 	mov	x19, x0
  1e000306c8:	b9400041 	ldr	w1, [x2]
  1e000306cc:	32030021 	orr	w1, w1, #0x20000000
  1e000306d0:	b9000041 	str	w1, [x2]
  1e000306d4:	97ffffb7 	bl	1e000305b0 <wait_for_test_instruction_req_done>
  1e000306d8:	f9408261 	ldr	x1, [x19, #256]
  1e000306dc:	b9400020 	ldr	w0, [x1]
  1e000306e0:	12027800 	and	w0, w0, #0xdfffffff
  1e000306e4:	b9000020 	str	w0, [x1]
  1e000306e8:	aa1303e0 	mov	x0, x19
  1e000306ec:	97ffffbe 	bl	1e000305e4 <wait_for_test_instruction_req_done_clear>
  1e000306f0:	f9400bf3 	ldr	x19, [sp, #16]
  1e000306f4:	52800000 	mov	w0, #0x0                   	// #0
  1e000306f8:	a8c27bfd 	ldp	x29, x30, [sp], #32
  1e000306fc:	d65f03c0 	ret

0000001e00030700 <icon_hbm_reset>:
  1e00030700:	a9be7bfd 	stp	x29, x30, [sp, #-32]!
  1e00030704:	52800021 	mov	w1, #0x1                   	// #1
  1e00030708:	910003fd 	mov	x29, sp
  1e0003070c:	a90153f3 	stp	x19, x20, [sp, #16]
  1e00030710:	aa0003f3 	mov	x19, x0
  1e00030714:	f9408000 	ldr	x0, [x0, #256]
  1e00030718:	b9005801 	str	w1, [x0, #88]
  1e0003071c:	b9400801 	ldr	w1, [x0, #8]
  1e00030720:	321d0021 	orr	w1, w1, #0x8
  1e00030724:	b9000801 	str	w1, [x0, #8]
  1e00030728:	f9408260 	ldr	x0, [x19, #256]
  1e0003072c:	b9400c14 	ldr	w20, [x0, #12]
  1e00030730:	52800020 	mov	w0, #0x1                   	// #1
  1e00030734:	d3451694 	ubfx	x20, x20, #5, #1
  1e00030738:	94000c67 	bl	1e000338d4 <udelay>
  1e0003073c:	34ffff74 	cbz	w20, 1e00030728 <icon_hbm_reset+0x28>
  1e00030740:	f9408261 	ldr	x1, [x19, #256]
  1e00030744:	b9400820 	ldr	w0, [x1, #8]
  1e00030748:	121c7800 	and	w0, w0, #0xfffffff7
  1e0003074c:	b9000820 	str	w0, [x1, #8]
  1e00030750:	f9408260 	ldr	x0, [x19, #256]
  1e00030754:	b9400c14 	ldr	w20, [x0, #12]
  1e00030758:	52800020 	mov	w0, #0x1                   	// #1
  1e0003075c:	d3451694 	ubfx	x20, x20, #5, #1
  1e00030760:	94000c5d 	bl	1e000338d4 <udelay>
  1e00030764:	35ffff74 	cbnz	w20, 1e00030750 <icon_hbm_reset+0x50>
  1e00030768:	f9408260 	ldr	x0, [x19, #256]
  1e0003076c:	b900581f 	str	wzr, [x0, #88]
  1e00030770:	b9400801 	ldr	w1, [x0, #8]
  1e00030774:	321d0021 	orr	w1, w1, #0x8
  1e00030778:	b9000801 	str	w1, [x0, #8]
  1e0003077c:	f9408260 	ldr	x0, [x19, #256]
  1e00030780:	b9400c14 	ldr	w20, [x0, #12]
  1e00030784:	52800020 	mov	w0, #0x1                   	// #1
  1e00030788:	d3451694 	ubfx	x20, x20, #5, #1
  1e0003078c:	94000c52 	bl	1e000338d4 <udelay>
  1e00030790:	34ffff74 	cbz	w20, 1e0003077c <icon_hbm_reset+0x7c>
  1e00030794:	f9408261 	ldr	x1, [x19, #256]
  1e00030798:	b9400820 	ldr	w0, [x1, #8]
  1e0003079c:	121c7800 	and	w0, w0, #0xfffffff7
  1e000307a0:	b9000820 	str	w0, [x1, #8]
  1e000307a4:	f9408260 	ldr	x0, [x19, #256]
  1e000307a8:	b9400c14 	ldr	w20, [x0, #12]
  1e000307ac:	52800020 	mov	w0, #0x1                   	// #1
  1e000307b0:	d3451694 	ubfx	x20, x20, #5, #1
  1e000307b4:	94000c48 	bl	1e000338d4 <udelay>
  1e000307b8:	35ffff74 	cbnz	w20, 1e000307a4 <icon_hbm_reset+0xa4>
  1e000307bc:	a94153f3 	ldp	x19, x20, [sp, #16]
  1e000307c0:	52800000 	mov	w0, #0x0                   	// #0
  1e000307c4:	a8c27bfd 	ldp	x29, x30, [sp], #32
  1e000307c8:	d65f03c0 	ret

0000001e000307cc <icon_lane_repair>:
  1e000307cc:	a9bf7bfd 	stp	x29, x30, [sp, #-16]!
  1e000307d0:	12001c42 	and	w2, w2, #0xff
  1e000307d4:	7100045f 	cmp	w2, #0x1
  1e000307d8:	910003fd 	mov	x29, sp
  1e000307dc:	f9408005 	ldr	x5, [x0, #256]
  1e000307e0:	12001c63 	and	w3, w3, #0xff
  1e000307e4:	12001c27 	and	w7, w1, #0xff
  1e000307e8:	52800282 	mov	w2, #0x14                  	// #20
  1e000307ec:	b94000a6 	ldr	w6, [x5]
  1e000307f0:	320000c6 	orr	w6, w6, #0x1
  1e000307f4:	b90000a6 	str	w6, [x5]
  1e000307f8:	b94520a6 	ldr	w6, [x5, #1312]
  1e000307fc:	321d00c6 	orr	w6, w6, #0x8
  1e00030800:	b90520a6 	str	w6, [x5, #1312]
  1e00030804:	b9400ca6 	ldr	w6, [x5, #12]
  1e00030808:	33001026 	bfxil	w6, w1, #0, #5
  1e0003080c:	b9000ca6 	str	w6, [x5, #12]
  1e00030810:	528002c1 	mov	w1, #0x16                  	// #22
  1e00030814:	1a811042 	csel	w2, w2, w1, ne	// ne = any
  1e00030818:	71001c7f 	cmp	w3, #0x7
  1e0003081c:	54000208 	b.hi	1e0003085c <icon_lane_repair+0x90>  // b.pmore
  1e00030820:	531e7463 	lsl	w3, w3, #2
  1e00030824:	52801fe1 	mov	w1, #0xff                  	// #255
  1e00030828:	0a010084 	and	w4, w4, w1
  1e0003082c:	1ac32026 	lsl	w6, w1, w3
  1e00030830:	1ac32084 	lsl	w4, w4, w3
  1e00030834:	2a260083 	orn	w3, w4, w6
  1e00030838:	b90058a3 	str	w3, [x5, #88]
  1e0003083c:	b90054a1 	str	w1, [x5, #84]
  1e00030840:	2a0703e1 	mov	w1, w7
  1e00030844:	97ffff75 	bl	1e00030618 <icon_test_instruction_req>
  1e00030848:	52800140 	mov	w0, #0xa                   	// #10
  1e0003084c:	94000c22 	bl	1e000338d4 <udelay>
  1e00030850:	52800000 	mov	w0, #0x0                   	// #0
  1e00030854:	a8c17bfd 	ldp	x29, x30, [sp], #16
  1e00030858:	d65f03c0 	ret
  1e0003085c:	12001c81 	and	w1, w4, #0xff
  1e00030860:	12800003 	mov	w3, #0xffffffff            	// #-1
  1e00030864:	17fffff5 	b	1e00030838 <icon_lane_repair+0x6c>

0000001e00030868 <icon_rx_lane_search>:
  1e00030868:	a9bb7bfd 	stp	x29, x30, [sp, #-80]!
  1e0003086c:	f0000060 	adrp	x0, 1e0003f000 <__RO_END__>
  1e00030870:	910ed000 	add	x0, x0, #0x3b4
  1e00030874:	910003fd 	mov	x29, sp
  1e00030878:	a90363f7 	stp	x23, x24, [sp, #48]
  1e0003087c:	12001c38 	and	w24, w1, #0xff
  1e00030880:	52803801 	mov	w1, #0x1c0                 	// #448
  1e00030884:	a90153f3 	stp	x19, x20, [sp, #16]
  1e00030888:	2a0303f7 	mov	w23, w3
  1e0003088c:	9ba10053 	umaddl	x19, w2, w1, x0
  1e00030890:	a9025bf5 	stp	x21, x22, [sp, #32]
  1e00030894:	aa0403f6 	mov	x22, x4
  1e00030898:	52800015 	mov	w21, #0x0                   	// #0
  1e0003089c:	a9046bf9 	stp	x25, x26, [sp, #64]
  1e000308a0:	9000007a 	adrp	x26, 1e0003c000 <vsnprintf+0x270>
  1e000308a4:	531b0859 	ubfiz	w25, w2, #5, #3
  1e000308a8:	911ffb5a 	add	x26, x26, #0x7fe
  1e000308ac:	52800014 	mov	w20, #0x0                   	// #0
  1e000308b0:	1ad526e0 	lsr	w0, w23, w21
  1e000308b4:	360003c0 	tbz	w0, #0, 1e0003092c <icon_rx_lane_search+0xc4>
  1e000308b8:	79400261 	ldrh	w1, [x19]
  1e000308bc:	0b150320 	add	w0, w25, w21
  1e000308c0:	12001c02 	and	w2, w0, #0xff
  1e000308c4:	6b20003f 	cmp	w1, w0, uxtb
  1e000308c8:	54000321 	b.ne	1e0003092c <icon_rx_lane_search+0xc4>  // b.any
  1e000308cc:	39403265 	ldrb	w5, [x19, #12]
  1e000308d0:	2a1803e1 	mov	w1, w24
  1e000308d4:	79401664 	ldrh	w4, [x19, #10]
  1e000308d8:	91000a63 	add	x3, x19, #0x2
  1e000308dc:	aa1a03e0 	mov	x0, x26
  1e000308e0:	94002ccb 	bl	1e0003bc0c <printf>
  1e000308e4:	39403261 	ldrb	w1, [x19, #12]
  1e000308e8:	71002c3f 	cmp	w1, #0xb
  1e000308ec:	54000161 	b.ne	1e00030918 <icon_rx_lane_search+0xb0>  // b.any
  1e000308f0:	90000060 	adrp	x0, 1e0003c000 <vsnprintf+0x270>
  1e000308f4:	9120ec00 	add	x0, x0, #0x83b
  1e000308f8:	94002cc5 	bl	1e0003bc0c <printf>
  1e000308fc:	12800020 	mov	w0, #0xfffffffe            	// #-2
  1e00030900:	a94153f3 	ldp	x19, x20, [sp, #16]
  1e00030904:	a9425bf5 	ldp	x21, x22, [sp, #32]
  1e00030908:	a94363f7 	ldp	x23, x24, [sp, #48]
  1e0003090c:	a9446bf9 	ldp	x25, x26, [sp, #64]
  1e00030910:	a8c57bfd 	ldp	x29, x30, [sp], #80
  1e00030914:	d65f03c0 	ret
  1e00030918:	7100303f 	cmp	w1, #0xc
  1e0003091c:	54000141 	b.ne	1e00030944 <icon_rx_lane_search+0xdc>  // b.any
  1e00030920:	90000060 	adrp	x0, 1e0003c000 <vsnprintf+0x270>
  1e00030924:	91215000 	add	x0, x0, #0x854
  1e00030928:	94002cb9 	bl	1e0003bc0c <printf>
  1e0003092c:	110006b5 	add	w21, w21, #0x1
  1e00030930:	91003a73 	add	x19, x19, #0xe
  1e00030934:	710082bf 	cmp	w21, #0x20
  1e00030938:	54fffbc1 	b.ne	1e000308b0 <icon_rx_lane_search+0x48>  // b.any
  1e0003093c:	2a1403e0 	mov	w0, w20
  1e00030940:	17fffff0 	b	1e00030900 <icon_rx_lane_search+0x98>
  1e00030944:	7100283f 	cmp	w1, #0xa
  1e00030948:	54000081 	b.ne	1e00030958 <icon_rx_lane_search+0xf0>  // b.any
  1e0003094c:	90000060 	adrp	x0, 1e0003c000 <vsnprintf+0x270>
  1e00030950:	91219000 	add	x0, x0, #0x864
  1e00030954:	17fffff5 	b	1e00030928 <icon_rx_lane_search+0xc0>
  1e00030958:	38616ac2 	ldrb	w2, [x22, x1]
  1e0003095c:	79401660 	ldrh	w0, [x19, #10]
  1e00030960:	71003c5f 	cmp	w2, #0xf
  1e00030964:	540000c0 	b.eq	1e0003097c <icon_rx_lane_search+0x114>  // b.none
  1e00030968:	6b00005f 	cmp	w2, w0
  1e0003096c:	54000080 	b.eq	1e0003097c <icon_rx_lane_search+0x114>  // b.none
  1e00030970:	90000060 	adrp	x0, 1e0003c000 <vsnprintf+0x270>
  1e00030974:	9121ec00 	add	x0, x0, #0x87b
  1e00030978:	17ffffe0 	b	1e000308f8 <icon_rx_lane_search+0x90>
  1e0003097c:	12000c00 	and	w0, w0, #0xf
  1e00030980:	11000694 	add	w20, w20, #0x1
  1e00030984:	38216ac0 	strb	w0, [x22, x1]
  1e00030988:	17ffffe9 	b	1e0003092c <icon_rx_lane_search+0xc4>

0000001e0003098c <icon_rx_extest>:
  1e0003098c:	a9b27bfd 	stp	x29, x30, [sp, #-224]!
  1e00030990:	910003fd 	mov	x29, sp
  1e00030994:	f90037e3 	str	x3, [sp, #104]
  1e00030998:	910243e3 	add	x3, sp, #0x90
  1e0003099c:	a90153f3 	stp	x19, x20, [sp, #16]
  1e000309a0:	aa0003f4 	mov	x20, x0
  1e000309a4:	f9408013 	ldr	x19, [x0, #256]
  1e000309a8:	aa0303e0 	mov	x0, x3
  1e000309ac:	a9025bf5 	stp	x21, x22, [sp, #32]
  1e000309b0:	12001c35 	and	w21, w1, #0xff
  1e000309b4:	12001c56 	and	w22, w2, #0xff
  1e000309b8:	90000061 	adrp	x1, 1e0003c000 <vsnprintf+0x270>
  1e000309bc:	d2800982 	mov	x2, #0x4c                  	// #76
  1e000309c0:	91154021 	add	x1, x1, #0x550
  1e000309c4:	a90363f7 	stp	x23, x24, [sp, #48]
  1e000309c8:	d37d1eb7 	ubfiz	x23, x21, #3, #8
  1e000309cc:	a9046bf9 	stp	x25, x26, [sp, #64]
  1e000309d0:	a90573fb 	stp	x27, x28, [sp, #80]
  1e000309d4:	94002b12 	bl	1e0003b61c <memcpy>
  1e000309d8:	aa0003e3 	mov	x3, x0
  1e000309dc:	d2a80080 	mov	x0, #0x40040000            	// #1074003968
  1e000309e0:	f9003be0 	str	x0, [sp, #112]
  1e000309e4:	d2800080 	mov	x0, #0x4                   	// #4
  1e000309e8:	f2a08000 	movk	x0, #0x400, lsl #16
  1e000309ec:	f2c00800 	movk	x0, #0x40, lsl #32
  1e000309f0:	f9003fe0 	str	x0, [sp, #120]
  1e000309f4:	92a80080 	mov	x0, #0xffffffffbffbffff    	// #-1074003969
  1e000309f8:	f90043e0 	str	x0, [sp, #128]
  1e000309fc:	d29fff60 	mov	x0, #0xfffb                	// #65531
  1e00030a00:	f2bf7fe0 	movk	x0, #0xfbff, lsl #16
  1e00030a04:	f2dff7e0 	movk	x0, #0xffbf, lsl #32
  1e00030a08:	f2e01fe0 	movk	x0, #0xff, lsl #48
  1e00030a0c:	f90047e0 	str	x0, [sp, #136]
  1e00030a10:	b9400260 	ldr	w0, [x19]
  1e00030a14:	32020000 	orr	w0, w0, #0x40000000
  1e00030a18:	b9000260 	str	w0, [x19]
  1e00030a1c:	f8776a80 	ldr	x0, [x20, x23]
  1e00030a20:	b946c401 	ldr	w1, [x0, #1732]
  1e00030a24:	321f0021 	orr	w1, w1, #0x2
  1e00030a28:	b906c401 	str	w1, [x0, #1732]
  1e00030a2c:	b946c401 	ldr	w1, [x0, #1732]
  1e00030a30:	321d0021 	orr	w1, w1, #0x8
  1e00030a34:	b906c401 	str	w1, [x0, #1732]
  1e00030a38:	aa1303e0 	mov	x0, x19
  1e00030a3c:	b9400261 	ldr	w1, [x19]
  1e00030a40:	32000021 	orr	w1, w1, #0x1
  1e00030a44:	b8058401 	str	w1, [x0], #88
  1e00030a48:	d2800001 	mov	x1, #0x0                   	// #0
  1e00030a4c:	71000adf 	cmp	w22, #0x2
  1e00030a50:	54000ce1 	b.ne	1e00030bec <icon_rx_extest+0x260>  // b.any
  1e00030a54:	b900001f 	str	wzr, [x0]
  1e00030a58:	91000421 	add	x1, x1, #0x1
  1e00030a5c:	d1001000 	sub	x0, x0, #0x4
  1e00030a60:	f1004c3f 	cmp	x1, #0x13
  1e00030a64:	54ffff41 	b.ne	1e00030a4c <icon_rx_extest+0xc0>  // b.any
  1e00030a68:	b9400260 	ldr	w0, [x19]
  1e00030a6c:	52800041 	mov	w1, #0x2                   	// #2
  1e00030a70:	910203fb 	add	x27, sp, #0x80
  1e00030a74:	9101c3fc 	add	x28, sp, #0x70
  1e00030a78:	321f0000 	orr	w0, w0, #0x2
  1e00030a7c:	b9000260 	str	w0, [x19]
  1e00030a80:	d280001a 	mov	x26, #0x0                   	// #0
  1e00030a84:	52800019 	mov	w25, #0x0                   	// #0
  1e00030a88:	b9400660 	ldr	w0, [x19, #4]
  1e00030a8c:	33000c20 	bfxil	w0, w1, #0, #4
  1e00030a90:	b9000660 	str	w0, [x19, #4]
  1e00030a94:	52804921 	mov	w1, #0x249                 	// #585
  1e00030a98:	b9400260 	ldr	w0, [x19]
  1e00030a9c:	330e2820 	bfi	w0, w1, #18, #11
  1e00030aa0:	b9000260 	str	w0, [x19]
  1e00030aa4:	52800021 	mov	w1, #0x1                   	// #1
  1e00030aa8:	b9400260 	ldr	w0, [x19]
  1e00030aac:	331e0820 	bfi	w0, w1, #2, #3
  1e00030ab0:	b9000260 	str	w0, [x19]
  1e00030ab4:	528000a1 	mov	w1, #0x5                   	// #5
  1e00030ab8:	b9400260 	ldr	w0, [x19]
  1e00030abc:	331b3020 	bfi	w0, w1, #5, #13
  1e00030ac0:	b9000260 	str	w0, [x19]
  1e00030ac4:	b9400260 	ldr	w0, [x19]
  1e00030ac8:	32030000 	orr	w0, w0, #0x20000000
  1e00030acc:	b9000260 	str	w0, [x19]
  1e00030ad0:	aa1403e0 	mov	x0, x20
  1e00030ad4:	97fffeb7 	bl	1e000305b0 <wait_for_test_instruction_req_done>
  1e00030ad8:	f8776a81 	ldr	x1, [x20, x23]
  1e00030adc:	b946c420 	ldr	w0, [x1, #1732]
  1e00030ae0:	32000000 	orr	w0, w0, #0x1
  1e00030ae4:	b906c420 	str	w0, [x1, #1732]
  1e00030ae8:	f9408280 	ldr	x0, [x20, #256]
  1e00030aec:	b9400001 	ldr	w1, [x0]
  1e00030af0:	121e7821 	and	w1, w1, #0xfffffffd
  1e00030af4:	b9000001 	str	w1, [x0]
  1e00030af8:	b9400001 	ldr	w1, [x0]
  1e00030afc:	12027821 	and	w1, w1, #0xdfffffff
  1e00030b00:	b9000001 	str	w1, [x0]
  1e00030b04:	aa1403e0 	mov	x0, x20
  1e00030b08:	97fffeb7 	bl	1e000305e4 <wait_for_test_instruction_req_done_clear>
  1e00030b0c:	f9408280 	ldr	x0, [x20, #256]
  1e00030b10:	52800182 	mov	w2, #0xc                   	// #12
  1e00030b14:	b9400001 	ldr	w1, [x0]
  1e00030b18:	12017821 	and	w1, w1, #0xbfffffff
  1e00030b1c:	b9000001 	str	w1, [x0]
  1e00030b20:	b9400401 	ldr	w1, [x0, #4]
  1e00030b24:	33000c41 	bfxil	w1, w2, #0, #4
  1e00030b28:	b9000401 	str	w1, [x0, #4]
  1e00030b2c:	b9400801 	ldr	w1, [x0, #8]
  1e00030b30:	321f0021 	orr	w1, w1, #0x2
  1e00030b34:	b9000801 	str	w1, [x0, #8]
  1e00030b38:	52800140 	mov	w0, #0xa                   	// #10
  1e00030b3c:	94000b66 	bl	1e000338d4 <udelay>
  1e00030b40:	aa1403e0 	mov	x0, x20
  1e00030b44:	97fffe9b 	bl	1e000305b0 <wait_for_test_instruction_req_done>
  1e00030b48:	f9408281 	ldr	x1, [x20, #256]
  1e00030b4c:	b9400820 	ldr	w0, [x1, #8]
  1e00030b50:	121e7800 	and	w0, w0, #0xfffffffd
  1e00030b54:	b9000820 	str	w0, [x1, #8]
  1e00030b58:	52800140 	mov	w0, #0xa                   	// #10
  1e00030b5c:	94000b5e 	bl	1e000338d4 <udelay>
  1e00030b60:	aa1403e0 	mov	x0, x20
  1e00030b64:	97fffea0 	bl	1e000305e4 <wait_for_test_instruction_req_done_clear>
  1e00030b68:	52800980 	mov	w0, #0x4c                  	// #76
  1e00030b6c:	1b007ea0 	mul	w0, w21, w0
  1e00030b70:	11029000 	add	w0, w0, #0xa4
  1e00030b74:	8b204273 	add	x19, x19, w0, uxtw
  1e00030b78:	b9400278 	ldr	w24, [x19]
  1e00030b7c:	52800140 	mov	w0, #0xa                   	// #10
  1e00030b80:	94000b55 	bl	1e000338d4 <udelay>
  1e00030b84:	71000adf 	cmp	w22, #0x2
  1e00030b88:	54000381 	b.ne	1e00030bf8 <icon_rx_extest+0x26c>  // b.any
  1e00030b8c:	b87a7b80 	ldr	w0, [x28, x26, lsl #2]
  1e00030b90:	4a000303 	eor	w3, w24, w0
  1e00030b94:	34000383 	cbz	w3, 1e00030c04 <icon_rx_extest+0x278>
  1e00030b98:	f94037e4 	ldr	x4, [sp, #104]
  1e00030b9c:	2a1a03e2 	mov	w2, w26
  1e00030ba0:	2a1503e1 	mov	w1, w21
  1e00030ba4:	aa1403e0 	mov	x0, x20
  1e00030ba8:	97ffff30 	bl	1e00030868 <icon_rx_lane_search>
  1e00030bac:	2a0003f8 	mov	w24, w0
  1e00030bb0:	3100081f 	cmn	w0, #0x2
  1e00030bb4:	54000261 	b.ne	1e00030c00 <icon_rx_extest+0x274>  // b.any
  1e00030bb8:	2a1803f9 	mov	w25, w24
  1e00030bbc:	2a1503e1 	mov	w1, w21
  1e00030bc0:	90000060 	adrp	x0, 1e0003c000 <vsnprintf+0x270>
  1e00030bc4:	91229c00 	add	x0, x0, #0x8a7
  1e00030bc8:	94002c11 	bl	1e0003bc0c <printf>
  1e00030bcc:	a94153f3 	ldp	x19, x20, [sp, #16]
  1e00030bd0:	2a1903e0 	mov	w0, w25
  1e00030bd4:	a9425bf5 	ldp	x21, x22, [sp, #32]
  1e00030bd8:	a94363f7 	ldp	x23, x24, [sp, #48]
  1e00030bdc:	a9446bf9 	ldp	x25, x26, [sp, #64]
  1e00030be0:	a94573fb 	ldp	x27, x28, [sp, #80]
  1e00030be4:	a8ce7bfd 	ldp	x29, x30, [sp], #224
  1e00030be8:	d65f03c0 	ret
  1e00030bec:	b8617862 	ldr	w2, [x3, x1, lsl #2]
  1e00030bf0:	b9000002 	str	w2, [x0]
  1e00030bf4:	17ffff99 	b	1e00030a58 <icon_rx_extest+0xcc>
  1e00030bf8:	b87a7b60 	ldr	w0, [x27, x26, lsl #2]
  1e00030bfc:	17ffffe5 	b	1e00030b90 <icon_rx_extest+0x204>
  1e00030c00:	0b000339 	add	w25, w25, w0
  1e00030c04:	9100075a 	add	x26, x26, #0x1
  1e00030c08:	d1001273 	sub	x19, x19, #0x4
  1e00030c0c:	f100135f 	cmp	x26, #0x4
  1e00030c10:	54fffb41 	b.ne	1e00030b78 <icon_rx_extest+0x1ec>  // b.any
  1e00030c14:	f8776a80 	ldr	x0, [x20, x23]
  1e00030c18:	b946c401 	ldr	w1, [x0, #1732]
  1e00030c1c:	121c7821 	and	w1, w1, #0xfffffff7
  1e00030c20:	b906c401 	str	w1, [x0, #1732]
  1e00030c24:	b946c401 	ldr	w1, [x0, #1732]
  1e00030c28:	121e7821 	and	w1, w1, #0xfffffffd
  1e00030c2c:	b906c401 	str	w1, [x0, #1732]
  1e00030c30:	f9408281 	ldr	x1, [x20, #256]
  1e00030c34:	b9400022 	ldr	w2, [x1]
  1e00030c38:	12017842 	and	w2, w2, #0xbfffffff
  1e00030c3c:	b9000022 	str	w2, [x1]
  1e00030c40:	b946c402 	ldr	w2, [x0, #1732]
  1e00030c44:	121f7842 	and	w2, w2, #0xfffffffe
  1e00030c48:	b906c402 	str	w2, [x0, #1732]
  1e00030c4c:	b9400020 	ldr	w0, [x1]
  1e00030c50:	121e7800 	and	w0, w0, #0xfffffffd
  1e00030c54:	b9000020 	str	w0, [x1]
  1e00030c58:	34fffbb9 	cbz	w25, 1e00030bcc <icon_rx_extest+0x240>
  1e00030c5c:	2a1903e2 	mov	w2, w25
  1e00030c60:	51000ac1 	sub	w1, w22, #0x2
  1e00030c64:	90000060 	adrp	x0, 1e0003c000 <vsnprintf+0x270>
  1e00030c68:	91232000 	add	x0, x0, #0x8c8
  1e00030c6c:	94002be8 	bl	1e0003bc0c <printf>
  1e00030c70:	17ffffd7 	b	1e00030bcc <icon_rx_extest+0x240>

0000001e00030c74 <icon_tx_lane_search>:
  1e00030c74:	a9b97bfd 	stp	x29, x30, [sp, #-112]!
  1e00030c78:	12001c20 	and	w0, w1, #0xff
  1e00030c7c:	52800c41 	mov	w1, #0x62                  	// #98
  1e00030c80:	910003fd 	mov	x29, sp
  1e00030c84:	b90067e0 	str	w0, [sp, #100]
  1e00030c88:	f0000060 	adrp	x0, 1e0003f000 <__RO_END__>
  1e00030c8c:	912ad000 	add	x0, x0, #0xab4
  1e00030c90:	a9025bf5 	stp	x21, x22, [sp, #32]
  1e00030c94:	aa0403f6 	mov	x22, x4
  1e00030c98:	a90363f7 	stp	x23, x24, [sp, #48]
  1e00030c9c:	2a0303f8 	mov	w24, w3
  1e00030ca0:	a9046bf9 	stp	x25, x26, [sp, #64]
  1e00030ca4:	9000007a 	adrp	x26, 1e0003c000 <vsnprintf+0x270>
  1e00030ca8:	9123eb5a 	add	x26, x26, #0x8fa
  1e00030cac:	a90573fb 	stp	x27, x28, [sp, #80]
  1e00030cb0:	531b085b 	ubfiz	w27, w2, #5, #3
  1e00030cb4:	90000079 	adrp	x25, 1e0003c000 <vsnprintf+0x270>
  1e00030cb8:	5280001c 	mov	w28, #0x0                   	// #0
  1e00030cbc:	a90153f3 	stp	x19, x20, [sp, #16]
  1e00030cc0:	9ba10054 	umaddl	x20, w2, w1, x0
  1e00030cc4:	52800013 	mov	w19, #0x0                   	// #0
  1e00030cc8:	911ffb20 	add	x0, x25, #0x7fe
  1e00030ccc:	f90037e0 	str	x0, [sp, #104]
  1e00030cd0:	1adc2700 	lsr	w0, w24, w28
  1e00030cd4:	360004e0 	tbz	w0, #0, 1e00030d70 <icon_tx_lane_search+0xfc>
  1e00030cd8:	0b1c0377 	add	w23, w27, w28
  1e00030cdc:	aa1403f9 	mov	x25, x20
  1e00030ce0:	12001ef7 	and	w23, w23, #0xff
  1e00030ce4:	52800015 	mov	w21, #0x0                   	// #0
  1e00030ce8:	79400320 	ldrh	w0, [x25]
  1e00030cec:	6b0002ff 	cmp	w23, w0
  1e00030cf0:	54000361 	b.ne	1e00030d5c <icon_tx_lane_search+0xe8>  // b.any
  1e00030cf4:	f94037e0 	ldr	x0, [sp, #104]
  1e00030cf8:	91000b23 	add	x3, x25, #0x2
  1e00030cfc:	39403325 	ldrb	w5, [x25, #12]
  1e00030d00:	2a1703e2 	mov	w2, w23
  1e00030d04:	79401724 	ldrh	w4, [x25, #10]
  1e00030d08:	b94067e1 	ldr	w1, [sp, #100]
  1e00030d0c:	94002bc0 	bl	1e0003bc0c <printf>
  1e00030d10:	39403320 	ldrb	w0, [x25, #12]
  1e00030d14:	71002c1f 	cmp	w0, #0xb
  1e00030d18:	54000181 	b.ne	1e00030d48 <icon_tx_lane_search+0xd4>  // b.any
  1e00030d1c:	90000060 	adrp	x0, 1e0003c000 <vsnprintf+0x270>
  1e00030d20:	91238400 	add	x0, x0, #0x8e1
  1e00030d24:	94002bba 	bl	1e0003bc0c <printf>
  1e00030d28:	12800020 	mov	w0, #0xfffffffe            	// #-2
  1e00030d2c:	a94153f3 	ldp	x19, x20, [sp, #16]
  1e00030d30:	a9425bf5 	ldp	x21, x22, [sp, #32]
  1e00030d34:	a94363f7 	ldp	x23, x24, [sp, #48]
  1e00030d38:	a9446bf9 	ldp	x25, x26, [sp, #64]
  1e00030d3c:	a94573fb 	ldp	x27, x28, [sp, #80]
  1e00030d40:	a8c77bfd 	ldp	x29, x30, [sp], #112
  1e00030d44:	d65f03c0 	ret
  1e00030d48:	7100301f 	cmp	w0, #0xc
  1e00030d4c:	540001c1 	b.ne	1e00030d84 <icon_tx_lane_search+0x110>  // b.any
  1e00030d50:	90000060 	adrp	x0, 1e0003c000 <vsnprintf+0x270>
  1e00030d54:	91215000 	add	x0, x0, #0x854
  1e00030d58:	94002bad 	bl	1e0003bc0c <printf>
  1e00030d5c:	110006b5 	add	w21, w21, #0x1
  1e00030d60:	91003b39 	add	x25, x25, #0xe
  1e00030d64:	12001eb5 	and	w21, w21, #0xff
  1e00030d68:	71001ebf 	cmp	w21, #0x7
  1e00030d6c:	54fffbe1 	b.ne	1e00030ce8 <icon_tx_lane_search+0x74>  // b.any
  1e00030d70:	1100079c 	add	w28, w28, #0x1
  1e00030d74:	7100839f 	cmp	w28, #0x20
  1e00030d78:	54fffac1 	b.ne	1e00030cd0 <icon_tx_lane_search+0x5c>  // b.any
  1e00030d7c:	2a1303e0 	mov	w0, w19
  1e00030d80:	17ffffeb 	b	1e00030d2c <icon_tx_lane_search+0xb8>
  1e00030d84:	7100281f 	cmp	w0, #0xa
  1e00030d88:	54000061 	b.ne	1e00030d94 <icon_tx_lane_search+0x120>  // b.any
  1e00030d8c:	aa1a03e0 	mov	x0, x26
  1e00030d90:	17fffff2 	b	1e00030d58 <icon_tx_lane_search+0xe4>
  1e00030d94:	38606ac2 	ldrb	w2, [x22, x0]
  1e00030d98:	79401721 	ldrh	w1, [x25, #10]
  1e00030d9c:	71003c5f 	cmp	w2, #0xf
  1e00030da0:	540000c0 	b.eq	1e00030db8 <icon_tx_lane_search+0x144>  // b.none
  1e00030da4:	6b01005f 	cmp	w2, w1
  1e00030da8:	54000080 	b.eq	1e00030db8 <icon_tx_lane_search+0x144>  // b.none
  1e00030dac:	90000060 	adrp	x0, 1e0003c000 <vsnprintf+0x270>
  1e00030db0:	9121ec00 	add	x0, x0, #0x87b
  1e00030db4:	17ffffdc 	b	1e00030d24 <icon_tx_lane_search+0xb0>
  1e00030db8:	12000c21 	and	w1, w1, #0xf
  1e00030dbc:	11000673 	add	w19, w19, #0x1
  1e00030dc0:	38206ac1 	strb	w1, [x22, x0]
  1e00030dc4:	17ffffe6 	b	1e00030d5c <icon_tx_lane_search+0xe8>

0000001e00030dc8 <icon_tx_extest>:
  1e00030dc8:	a9b07bfd 	stp	x29, x30, [sp, #-256]!
  1e00030dcc:	910003fd 	mov	x29, sp
  1e00030dd0:	a90153f3 	stp	x19, x20, [sp, #16]
  1e00030dd4:	aa0003f3 	mov	x19, x0
  1e00030dd8:	a90363f7 	stp	x23, x24, [sp, #48]
  1e00030ddc:	90000077 	adrp	x23, 1e0003c000 <vsnprintf+0x270>
  1e00030de0:	911542f7 	add	x23, x23, #0x550
  1e00030de4:	f9408274 	ldr	x20, [x19, #256]
  1e00030de8:	a9046bf9 	stp	x25, x26, [sp, #64]
  1e00030dec:	910183fa 	add	x26, sp, #0x60
  1e00030df0:	aa0303f8 	mov	x24, x3
  1e00030df4:	aa1a03e0 	mov	x0, x26
  1e00030df8:	9102c3f9 	add	x25, sp, #0xb0
  1e00030dfc:	a9025bf5 	stp	x21, x22, [sp, #32]
  1e00030e00:	12001c35 	and	w21, w1, #0xff
  1e00030e04:	12001c56 	and	w22, w2, #0xff
  1e00030e08:	d2800982 	mov	x2, #0x4c                  	// #76
  1e00030e0c:	8b0202e1 	add	x1, x23, x2
  1e00030e10:	a90573fb 	stp	x27, x28, [sp, #80]
  1e00030e14:	94002a02 	bl	1e0003b61c <memcpy>
  1e00030e18:	910262e1 	add	x1, x23, #0x98
  1e00030e1c:	aa1903e0 	mov	x0, x25
  1e00030e20:	d2800982 	mov	x2, #0x4c                  	// #76
  1e00030e24:	940029fe 	bl	1e0003b61c <memcpy>
  1e00030e28:	b9400280 	ldr	w0, [x20]
  1e00030e2c:	d37d1eb7 	ubfiz	x23, x21, #3, #8
  1e00030e30:	32020000 	orr	w0, w0, #0x40000000
  1e00030e34:	b9000280 	str	w0, [x20]
  1e00030e38:	f8776a60 	ldr	x0, [x19, x23]
  1e00030e3c:	b946c401 	ldr	w1, [x0, #1732]
  1e00030e40:	321f0021 	orr	w1, w1, #0x2
  1e00030e44:	b906c401 	str	w1, [x0, #1732]
  1e00030e48:	b946c401 	ldr	w1, [x0, #1732]
  1e00030e4c:	321d0021 	orr	w1, w1, #0x8
  1e00030e50:	b906c401 	str	w1, [x0, #1732]
  1e00030e54:	aa1403e1 	mov	x1, x20
  1e00030e58:	b9400280 	ldr	w0, [x20]
  1e00030e5c:	32000000 	orr	w0, w0, #0x1
  1e00030e60:	b8058420 	str	w0, [x1], #88
  1e00030e64:	d2800000 	mov	x0, #0x0                   	// #0
  1e00030e68:	b8607b42 	ldr	w2, [x26, x0, lsl #2]
  1e00030e6c:	91000400 	add	x0, x0, #0x1
  1e00030e70:	b81fc422 	str	w2, [x1], #-4
  1e00030e74:	f1004c1f 	cmp	x0, #0x13
  1e00030e78:	54ffff81 	b.ne	1e00030e68 <icon_tx_extest+0xa0>  // b.any
  1e00030e7c:	b9400280 	ldr	w0, [x20]
  1e00030e80:	52800041 	mov	w1, #0x2                   	// #2
  1e00030e84:	321f0000 	orr	w0, w0, #0x2
  1e00030e88:	b9000280 	str	w0, [x20]
  1e00030e8c:	b9400680 	ldr	w0, [x20, #4]
  1e00030e90:	33000c20 	bfxil	w0, w1, #0, #4
  1e00030e94:	b9000680 	str	w0, [x20, #4]
  1e00030e98:	52804921 	mov	w1, #0x249                 	// #585
  1e00030e9c:	b9400280 	ldr	w0, [x20]
  1e00030ea0:	330e2820 	bfi	w0, w1, #18, #11
  1e00030ea4:	b9000280 	str	w0, [x20]
  1e00030ea8:	52800021 	mov	w1, #0x1                   	// #1
  1e00030eac:	b9400280 	ldr	w0, [x20]
  1e00030eb0:	331e0820 	bfi	w0, w1, #2, #3
  1e00030eb4:	b9000280 	str	w0, [x20]
  1e00030eb8:	528000a1 	mov	w1, #0x5                   	// #5
  1e00030ebc:	b9400280 	ldr	w0, [x20]
  1e00030ec0:	331b3020 	bfi	w0, w1, #5, #13
  1e00030ec4:	b9000280 	str	w0, [x20]
  1e00030ec8:	b9400280 	ldr	w0, [x20]
  1e00030ecc:	32030000 	orr	w0, w0, #0x20000000
  1e00030ed0:	b9000280 	str	w0, [x20]
  1e00030ed4:	aa1303e0 	mov	x0, x19
  1e00030ed8:	97fffdb6 	bl	1e000305b0 <wait_for_test_instruction_req_done>
  1e00030edc:	f8776a61 	ldr	x1, [x19, x23]
  1e00030ee0:	b946c420 	ldr	w0, [x1, #1732]
  1e00030ee4:	32000000 	orr	w0, w0, #0x1
  1e00030ee8:	b906c420 	str	w0, [x1, #1732]
  1e00030eec:	f9408260 	ldr	x0, [x19, #256]
  1e00030ef0:	b9400001 	ldr	w1, [x0]
  1e00030ef4:	121e7821 	and	w1, w1, #0xfffffffd
  1e00030ef8:	b9000001 	str	w1, [x0]
  1e00030efc:	b9400001 	ldr	w1, [x0]
  1e00030f00:	12027821 	and	w1, w1, #0xdfffffff
  1e00030f04:	b9000001 	str	w1, [x0]
  1e00030f08:	aa1303e0 	mov	x0, x19
  1e00030f0c:	97fffdb6 	bl	1e000305e4 <wait_for_test_instruction_req_done_clear>
  1e00030f10:	f9408260 	ldr	x0, [x19, #256]
  1e00030f14:	52800182 	mov	w2, #0xc                   	// #12
  1e00030f18:	b9400001 	ldr	w1, [x0]
  1e00030f1c:	12017821 	and	w1, w1, #0xbfffffff
  1e00030f20:	b9000001 	str	w1, [x0]
  1e00030f24:	b9400401 	ldr	w1, [x0, #4]
  1e00030f28:	33000c41 	bfxil	w1, w2, #0, #4
  1e00030f2c:	b9000401 	str	w1, [x0, #4]
  1e00030f30:	35000a56 	cbnz	w22, 1e00031078 <icon_tx_extest+0x2b0>
  1e00030f34:	52a80081 	mov	w1, #0x40040000            	// #1074003968
  1e00030f38:	b9005801 	str	w1, [x0, #88]
  1e00030f3c:	52800081 	mov	w1, #0x4                   	// #4
  1e00030f40:	b900541f 	str	wzr, [x0, #84]
  1e00030f44:	72a08001 	movk	w1, #0x400, lsl #16
  1e00030f48:	b9005001 	str	w1, [x0, #80]
  1e00030f4c:	52800801 	mov	w1, #0x40                  	// #64
  1e00030f50:	b9004c01 	str	w1, [x0, #76]
  1e00030f54:	d280001b 	mov	x27, #0x0                   	// #0
  1e00030f58:	5280001a 	mov	w26, #0x0                   	// #0
  1e00030f5c:	b9400801 	ldr	w1, [x0, #8]
  1e00030f60:	321e0021 	orr	w1, w1, #0x4
  1e00030f64:	b9000801 	str	w1, [x0, #8]
  1e00030f68:	52800140 	mov	w0, #0xa                   	// #10
  1e00030f6c:	94000a5a 	bl	1e000338d4 <udelay>
  1e00030f70:	aa1303e0 	mov	x0, x19
  1e00030f74:	97fffd8f 	bl	1e000305b0 <wait_for_test_instruction_req_done>
  1e00030f78:	f9408261 	ldr	x1, [x19, #256]
  1e00030f7c:	b9400820 	ldr	w0, [x1, #8]
  1e00030f80:	121d7800 	and	w0, w0, #0xfffffffb
  1e00030f84:	b9000820 	str	w0, [x1, #8]
  1e00030f88:	52800140 	mov	w0, #0xa                   	// #10
  1e00030f8c:	94000a52 	bl	1e000338d4 <udelay>
  1e00030f90:	aa1303e0 	mov	x0, x19
  1e00030f94:	97fffd94 	bl	1e000305e4 <wait_for_test_instruction_req_done_clear>
  1e00030f98:	f9408260 	ldr	x0, [x19, #256]
  1e00030f9c:	52800042 	mov	w2, #0x2                   	// #2
  1e00030fa0:	b9400001 	ldr	w1, [x0]
  1e00030fa4:	32020021 	orr	w1, w1, #0x40000000
  1e00030fa8:	b9000001 	str	w1, [x0]
  1e00030fac:	b9400401 	ldr	w1, [x0, #4]
  1e00030fb0:	33000c41 	bfxil	w1, w2, #0, #4
  1e00030fb4:	b9000401 	str	w1, [x0, #4]
  1e00030fb8:	b9400001 	ldr	w1, [x0]
  1e00030fbc:	2a020021 	orr	w1, w1, w2
  1e00030fc0:	b9000001 	str	w1, [x0]
  1e00030fc4:	52800082 	mov	w2, #0x4                   	// #4
  1e00030fc8:	b9400001 	ldr	w1, [x0]
  1e00030fcc:	331e0841 	bfi	w1, w2, #2, #3
  1e00030fd0:	b9000001 	str	w1, [x0]
  1e00030fd4:	52800140 	mov	w0, #0xa                   	// #10
  1e00030fd8:	94000a3f 	bl	1e000338d4 <udelay>
  1e00030fdc:	aa1303e0 	mov	x0, x19
  1e00030fe0:	97fffdb5 	bl	1e000306b4 <icon_sw_instruction_req>
  1e00030fe4:	f9408261 	ldr	x1, [x19, #256]
  1e00030fe8:	b9400020 	ldr	w0, [x1]
  1e00030fec:	121e7800 	and	w0, w0, #0xfffffffd
  1e00030ff0:	b9000020 	str	w0, [x1]
  1e00030ff4:	52800980 	mov	w0, #0x4c                  	// #76
  1e00030ff8:	1b007ea0 	mul	w0, w21, w0
  1e00030ffc:	11029000 	add	w0, w0, #0xa4
  1e00031000:	8b204294 	add	x20, x20, w0, uxtw
  1e00031004:	b940029c 	ldr	w28, [x20]
  1e00031008:	52800140 	mov	w0, #0xa                   	// #10
  1e0003100c:	94000a32 	bl	1e000338d4 <udelay>
  1e00031010:	34000076 	cbz	w22, 1e0003101c <icon_tx_extest+0x254>
  1e00031014:	b87b7b20 	ldr	w0, [x25, x27, lsl #2]
  1e00031018:	4a00039c 	eor	w28, w28, w0
  1e0003101c:	3400045c 	cbz	w28, 1e000310a4 <icon_tx_extest+0x2dc>
  1e00031020:	2a1c03e3 	mov	w3, w28
  1e00031024:	aa1803e4 	mov	x4, x24
  1e00031028:	2a1b03e2 	mov	w2, w27
  1e0003102c:	2a1503e1 	mov	w1, w21
  1e00031030:	aa1303e0 	mov	x0, x19
  1e00031034:	97ffff10 	bl	1e00030c74 <icon_tx_lane_search>
  1e00031038:	2a0003fc 	mov	w28, w0
  1e0003103c:	3100081f 	cmn	w0, #0x2
  1e00031040:	54000301 	b.ne	1e000310a0 <icon_tx_extest+0x2d8>  // b.any
  1e00031044:	2a1c03fa 	mov	w26, w28
  1e00031048:	2a1503e1 	mov	w1, w21
  1e0003104c:	f0000040 	adrp	x0, 1e0003c000 <vsnprintf+0x270>
  1e00031050:	91229c00 	add	x0, x0, #0x8a7
  1e00031054:	94002aee 	bl	1e0003bc0c <printf>
  1e00031058:	a94153f3 	ldp	x19, x20, [sp, #16]
  1e0003105c:	2a1a03e0 	mov	w0, w26
  1e00031060:	a9425bf5 	ldp	x21, x22, [sp, #32]
  1e00031064:	a94363f7 	ldp	x23, x24, [sp, #48]
  1e00031068:	a9446bf9 	ldp	x25, x26, [sp, #64]
  1e0003106c:	a94573fb 	ldp	x27, x28, [sp, #80]
  1e00031070:	a8d07bfd 	ldp	x29, x30, [sp], #256
  1e00031074:	d65f03c0 	ret
  1e00031078:	12a80081 	mov	w1, #0xbffbffff            	// #-1074003969
  1e0003107c:	b9005801 	str	w1, [x0, #88]
  1e00031080:	12800001 	mov	w1, #0xffffffff            	// #-1
  1e00031084:	b9005401 	str	w1, [x0, #84]
  1e00031088:	529fff61 	mov	w1, #0xfffb                	// #65531
  1e0003108c:	72bf7fe1 	movk	w1, #0xfbff, lsl #16
  1e00031090:	b9005001 	str	w1, [x0, #80]
  1e00031094:	529ff7e1 	mov	w1, #0xffbf                	// #65471
  1e00031098:	72a07fe1 	movk	w1, #0x3ff, lsl #16
  1e0003109c:	17ffffad 	b	1e00030f50 <icon_tx_extest+0x188>
  1e000310a0:	0b00035a 	add	w26, w26, w0
  1e000310a4:	9100077b 	add	x27, x27, #0x1
  1e000310a8:	d1001294 	sub	x20, x20, #0x4
  1e000310ac:	f1004f7f 	cmp	x27, #0x13
  1e000310b0:	54fffaa1 	b.ne	1e00031004 <icon_tx_extest+0x23c>  // b.any
  1e000310b4:	f9408260 	ldr	x0, [x19, #256]
  1e000310b8:	52800182 	mov	w2, #0xc                   	// #12
  1e000310bc:	b9400401 	ldr	w1, [x0, #4]
  1e000310c0:	33000c41 	bfxil	w1, w2, #0, #4
  1e000310c4:	b9000401 	str	w1, [x0, #4]
  1e000310c8:	f8776a61 	ldr	x1, [x19, x23]
  1e000310cc:	b946c422 	ldr	w2, [x1, #1732]
  1e000310d0:	121c7842 	and	w2, w2, #0xfffffff7
  1e000310d4:	b906c422 	str	w2, [x1, #1732]
  1e000310d8:	b946c422 	ldr	w2, [x1, #1732]
  1e000310dc:	121e7842 	and	w2, w2, #0xfffffffd
  1e000310e0:	b906c422 	str	w2, [x1, #1732]
  1e000310e4:	b9400002 	ldr	w2, [x0]
  1e000310e8:	12017842 	and	w2, w2, #0xbfffffff
  1e000310ec:	b9000002 	str	w2, [x0]
  1e000310f0:	b946c422 	ldr	w2, [x1, #1732]
  1e000310f4:	121f7842 	and	w2, w2, #0xfffffffe
  1e000310f8:	b906c422 	str	w2, [x1, #1732]
  1e000310fc:	b9400001 	ldr	w1, [x0]
  1e00031100:	121e7821 	and	w1, w1, #0xfffffffd
  1e00031104:	b9000001 	str	w1, [x0]
  1e00031108:	34fffa9a 	cbz	w26, 1e00031058 <icon_tx_extest+0x290>
  1e0003110c:	2a1a03e2 	mov	w2, w26
  1e00031110:	2a1603e1 	mov	w1, w22
  1e00031114:	f0000040 	adrp	x0, 1e0003c000 <vsnprintf+0x270>
  1e00031118:	91245800 	add	x0, x0, #0x916
  1e0003111c:	94002abc 	bl	1e0003bc0c <printf>
  1e00031120:	17ffffce 	b	1e00031058 <icon_tx_extest+0x290>

0000001e00031124 <hbm3_lane_repair>:
  1e00031124:	a9bb7bfd 	stp	x29, x30, [sp, #-80]!
  1e00031128:	910003fd 	mov	x29, sp
  1e0003112c:	a90153f3 	stp	x19, x20, [sp, #16]
  1e00031130:	aa0203f3 	mov	x19, x2
  1e00031134:	d2800014 	mov	x20, #0x0                   	// #0
  1e00031138:	a9025bf5 	stp	x21, x22, [sp, #32]
  1e0003113c:	aa0003f6 	mov	x22, x0
  1e00031140:	12001c35 	and	w21, w1, #0xff
  1e00031144:	a90363f7 	stp	x23, x24, [sp, #48]
  1e00031148:	f0000057 	adrp	x23, 1e0003c000 <vsnprintf+0x270>
  1e0003114c:	f0000058 	adrp	x24, 1e0003c000 <vsnprintf+0x270>
  1e00031150:	912512f7 	add	x23, x23, #0x944
  1e00031154:	9125db18 	add	x24, x24, #0x976
  1e00031158:	a9046bf9 	stp	x25, x26, [sp, #64]
  1e0003115c:	91000459 	add	x25, x2, #0x1
  1e00031160:	38746a63 	ldrb	w3, [x19, x20]
  1e00031164:	38746b26 	ldrb	w6, [x25, x20]
  1e00031168:	12001e9a 	and	w26, w20, #0xff
  1e0003116c:	71003c7f 	cmp	w3, #0xf
  1e00031170:	540001c0 	b.eq	1e000311a8 <hbm3_lane_repair+0x84>  // b.none
  1e00031174:	71003cdf 	cmp	w6, #0xf
  1e00031178:	540001c0 	b.eq	1e000311b0 <hbm3_lane_repair+0x8c>  // b.none
  1e0003117c:	2a1503e1 	mov	w1, w21
  1e00031180:	f0000040 	adrp	x0, 1e0003c000 <vsnprintf+0x270>
  1e00031184:	9124bc00 	add	x0, x0, #0x92f
  1e00031188:	94002aa1 	bl	1e0003bc0c <printf>
  1e0003118c:	12800020 	mov	w0, #0xfffffffe            	// #-2
  1e00031190:	a94153f3 	ldp	x19, x20, [sp, #16]
  1e00031194:	a9425bf5 	ldp	x21, x22, [sp, #32]
  1e00031198:	a94363f7 	ldp	x23, x24, [sp, #48]
  1e0003119c:	a9446bf9 	ldp	x25, x26, [sp, #64]
  1e000311a0:	a8c57bfd 	ldp	x29, x30, [sp], #80
  1e000311a4:	d65f03c0 	ret
  1e000311a8:	71003cdf 	cmp	w6, #0xf
  1e000311ac:	54000280 	b.eq	1e000311fc <hbm3_lane_repair+0xd8>  // b.none
  1e000311b0:	2a1503e4 	mov	w4, w21
  1e000311b4:	2a1403e2 	mov	w2, w20
  1e000311b8:	11000685 	add	w5, w20, #0x1
  1e000311bc:	2a1503e1 	mov	w1, w21
  1e000311c0:	aa1703e0 	mov	x0, x23
  1e000311c4:	94002a92 	bl	1e0003bc0c <printf>
  1e000311c8:	2a1503e1 	mov	w1, w21
  1e000311cc:	aa1803e0 	mov	x0, x24
  1e000311d0:	94002a8f 	bl	1e0003bc0c <printf>
  1e000311d4:	38746b24 	ldrb	w4, [x25, x20]
  1e000311d8:	2a1a03e3 	mov	w3, w26
  1e000311dc:	38746a60 	ldrb	w0, [x19, x20]
  1e000311e0:	2a1503e1 	mov	w1, w21
  1e000311e4:	52800002 	mov	w2, #0x0                   	// #0
  1e000311e8:	12000c00 	and	w0, w0, #0xf
  1e000311ec:	531c0c84 	ubfiz	w4, w4, #4, #4
  1e000311f0:	2a000084 	orr	w4, w4, w0
  1e000311f4:	aa1603e0 	mov	x0, x22
  1e000311f8:	97fffd75 	bl	1e000307cc <icon_lane_repair>
  1e000311fc:	91000a94 	add	x20, x20, #0x2
  1e00031200:	f1002a9f 	cmp	x20, #0xa
  1e00031204:	54fffae1 	b.ne	1e00031160 <hbm3_lane_repair+0x3c>  // b.any
  1e00031208:	d37d1eb5 	ubfiz	x21, x21, #3, #8
  1e0003120c:	39400261 	ldrb	w1, [x19]
  1e00031210:	f8756ac3 	ldr	x3, [x22, x21]
  1e00031214:	b940d860 	ldr	w0, [x3, #216]
  1e00031218:	33000c20 	bfxil	w0, w1, #0, #4
  1e0003121c:	b900d860 	str	w0, [x3, #216]
  1e00031220:	b940d860 	ldr	w0, [x3, #216]
  1e00031224:	39400661 	ldrb	w1, [x19, #1]
  1e00031228:	331c0c20 	bfi	w0, w1, #4, #4
  1e0003122c:	b900d860 	str	w0, [x3, #216]
  1e00031230:	b940d860 	ldr	w0, [x3, #216]
  1e00031234:	39400a61 	ldrb	w1, [x19, #2]
  1e00031238:	33180c20 	bfi	w0, w1, #8, #4
  1e0003123c:	b900d860 	str	w0, [x3, #216]
  1e00031240:	b940d860 	ldr	w0, [x3, #216]
  1e00031244:	39400e61 	ldrb	w1, [x19, #3]
  1e00031248:	33140c20 	bfi	w0, w1, #12, #4
  1e0003124c:	b900d860 	str	w0, [x3, #216]
  1e00031250:	b940d460 	ldr	w0, [x3, #212]
  1e00031254:	39401261 	ldrb	w1, [x19, #4]
  1e00031258:	33000c20 	bfxil	w0, w1, #0, #4
  1e0003125c:	b900d460 	str	w0, [x3, #212]
  1e00031260:	b940d460 	ldr	w0, [x3, #212]
  1e00031264:	39401661 	ldrb	w1, [x19, #5]
  1e00031268:	331c0c20 	bfi	w0, w1, #4, #4
  1e0003126c:	b900d460 	str	w0, [x3, #212]
  1e00031270:	b940d860 	ldr	w0, [x3, #216]
  1e00031274:	39401a61 	ldrb	w1, [x19, #6]
  1e00031278:	33100c20 	bfi	w0, w1, #16, #4
  1e0003127c:	b900d860 	str	w0, [x3, #216]
  1e00031280:	b940d860 	ldr	w0, [x3, #216]
  1e00031284:	39401e61 	ldrb	w1, [x19, #7]
  1e00031288:	330c0c20 	bfi	w0, w1, #20, #4
  1e0003128c:	b900d860 	str	w0, [x3, #216]
  1e00031290:	b940d860 	ldr	w0, [x3, #216]
  1e00031294:	39402261 	ldrb	w1, [x19, #8]
  1e00031298:	33080c20 	bfi	w0, w1, #24, #4
  1e0003129c:	b900d860 	str	w0, [x3, #216]
  1e000312a0:	39402661 	ldrb	w1, [x19, #9]
  1e000312a4:	b940d860 	ldr	w0, [x3, #216]
  1e000312a8:	33040c20 	bfi	w0, w1, #28, #4
  1e000312ac:	b900d860 	str	w0, [x3, #216]
  1e000312b0:	52800020 	mov	w0, #0x1                   	// #1
  1e000312b4:	940009ac 	bl	1e00033964 <mdelay>
  1e000312b8:	f8756ac1 	ldr	x1, [x22, x21]
  1e000312bc:	b9403020 	ldr	w0, [x1, #48]
  1e000312c0:	32170000 	orr	w0, w0, #0x200
  1e000312c4:	b9003020 	str	w0, [x1, #48]
  1e000312c8:	52800020 	mov	w0, #0x1                   	// #1
  1e000312cc:	94000982 	bl	1e000338d4 <udelay>
  1e000312d0:	f8756ac1 	ldr	x1, [x22, x21]
  1e000312d4:	b9403020 	ldr	w0, [x1, #48]
  1e000312d8:	12167800 	and	w0, w0, #0xfffffdff
  1e000312dc:	b9003020 	str	w0, [x1, #48]
  1e000312e0:	52800000 	mov	w0, #0x0                   	// #0
  1e000312e4:	17ffffab 	b	1e00031190 <hbm3_lane_repair+0x6c>

0000001e000312e8 <icon_extest>:
  1e000312e8:	a9bc7bfd 	stp	x29, x30, [sp, #-64]!
  1e000312ec:	aa0203e3 	mov	x3, x2
  1e000312f0:	910003fd 	mov	x29, sp
  1e000312f4:	f9001bf7 	str	x23, [sp, #48]
  1e000312f8:	12001c37 	and	w23, w1, #0xff
  1e000312fc:	2a1703e1 	mov	w1, w23
  1e00031300:	a90153f3 	stp	x19, x20, [sp, #16]
  1e00031304:	a9025bf5 	stp	x21, x22, [sp, #32]
  1e00031308:	aa0003f5 	mov	x21, x0
  1e0003130c:	aa0203f6 	mov	x22, x2
  1e00031310:	52800002 	mov	w2, #0x0                   	// #0
  1e00031314:	97fffead 	bl	1e00030dc8 <icon_tx_extest>
  1e00031318:	2a0003f3 	mov	w19, w0
  1e0003131c:	13001c00 	sxtb	w0, w0
  1e00031320:	3100081f 	cmn	w0, #0x2
  1e00031324:	540000e1 	b.ne	1e00031340 <icon_extest+0x58>  // b.any
  1e00031328:	12800020 	mov	w0, #0xfffffffe            	// #-2
  1e0003132c:	a94153f3 	ldp	x19, x20, [sp, #16]
  1e00031330:	a9425bf5 	ldp	x21, x22, [sp, #32]
  1e00031334:	f9401bf7 	ldr	x23, [sp, #48]
  1e00031338:	a8c47bfd 	ldp	x29, x30, [sp], #64
  1e0003133c:	d65f03c0 	ret
  1e00031340:	aa1503e0 	mov	x0, x21
  1e00031344:	97fffcef 	bl	1e00030700 <icon_hbm_reset>
  1e00031348:	52800140 	mov	w0, #0xa                   	// #10
  1e0003134c:	94000962 	bl	1e000338d4 <udelay>
  1e00031350:	2a1703e1 	mov	w1, w23
  1e00031354:	aa1603e3 	mov	x3, x22
  1e00031358:	aa1503e0 	mov	x0, x21
  1e0003135c:	52800022 	mov	w2, #0x1                   	// #1
  1e00031360:	97fffe9a 	bl	1e00030dc8 <icon_tx_extest>
  1e00031364:	13001c01 	sxtb	w1, w0
  1e00031368:	3100083f 	cmn	w1, #0x2
  1e0003136c:	54fffde0 	b.eq	1e00031328 <icon_extest+0x40>  // b.none
  1e00031370:	0b000260 	add	w0, w19, w0
  1e00031374:	12001c14 	and	w20, w0, #0xff
  1e00031378:	aa1503e0 	mov	x0, x21
  1e0003137c:	97fffce1 	bl	1e00030700 <icon_hbm_reset>
  1e00031380:	52800140 	mov	w0, #0xa                   	// #10
  1e00031384:	94000954 	bl	1e000338d4 <udelay>
  1e00031388:	2a1703e1 	mov	w1, w23
  1e0003138c:	aa1603e3 	mov	x3, x22
  1e00031390:	aa1503e0 	mov	x0, x21
  1e00031394:	52800042 	mov	w2, #0x2                   	// #2
  1e00031398:	97fffd7d 	bl	1e0003098c <icon_rx_extest>
  1e0003139c:	13001c01 	sxtb	w1, w0
  1e000313a0:	3100083f 	cmn	w1, #0x2
  1e000313a4:	54fffc20 	b.eq	1e00031328 <icon_extest+0x40>  // b.none
  1e000313a8:	12001c13 	and	w19, w0, #0xff
  1e000313ac:	aa1503e0 	mov	x0, x21
  1e000313b0:	97fffcd4 	bl	1e00030700 <icon_hbm_reset>
  1e000313b4:	52800140 	mov	w0, #0xa                   	// #10
  1e000313b8:	94000947 	bl	1e000338d4 <udelay>
  1e000313bc:	2a1703e1 	mov	w1, w23
  1e000313c0:	aa1603e3 	mov	x3, x22
  1e000313c4:	aa1503e0 	mov	x0, x21
  1e000313c8:	52800062 	mov	w2, #0x3                   	// #3
  1e000313cc:	97fffd70 	bl	1e0003098c <icon_rx_extest>
  1e000313d0:	13001c01 	sxtb	w1, w0
  1e000313d4:	3100083f 	cmn	w1, #0x2
  1e000313d8:	54fffa80 	b.eq	1e00031328 <icon_extest+0x40>  // b.none
  1e000313dc:	0b000260 	add	w0, w19, w0
  1e000313e0:	0b000280 	add	w0, w20, w0
  1e000313e4:	13001c00 	sxtb	w0, w0
  1e000313e8:	17ffffd1 	b	1e0003132c <icon_extest+0x44>

0000001e000313ec <icon_mrs_ch>:
  1e000313ec:	a9bf7bfd 	stp	x29, x30, [sp, #-16]!
  1e000313f0:	910003fd 	mov	x29, sp
  1e000313f4:	f9408003 	ldr	x3, [x0, #256]
  1e000313f8:	b9400064 	ldr	w4, [x3]
  1e000313fc:	32000084 	orr	w4, w4, #0x1
  1e00031400:	b9000064 	str	w4, [x3]
  1e00031404:	b9400044 	ldr	w4, [x2]
  1e00031408:	b9005864 	str	w4, [x3, #88]
  1e0003140c:	b9400444 	ldr	w4, [x2, #4]
  1e00031410:	b9005464 	str	w4, [x3, #84]
  1e00031414:	b9400844 	ldr	w4, [x2, #8]
  1e00031418:	b9005064 	str	w4, [x3, #80]
  1e0003141c:	b9400c42 	ldr	w2, [x2, #12]
  1e00031420:	b9004c62 	str	w2, [x3, #76]
  1e00031424:	52800222 	mov	w2, #0x11                  	// #17
  1e00031428:	97fffc7c 	bl	1e00030618 <icon_test_instruction_req>
  1e0003142c:	52800000 	mov	w0, #0x0                   	// #0
  1e00031430:	a8c17bfd 	ldp	x29, x30, [sp], #16
  1e00031434:	d65f03c0 	ret

0000001e00031438 <icon_rd_feedback>:
  1e00031438:	a9bd7bfd 	stp	x29, x30, [sp, #-48]!
  1e0003143c:	910003fd 	mov	x29, sp
  1e00031440:	a90153f3 	stp	x19, x20, [sp, #16]
  1e00031444:	12001c33 	and	w19, w1, #0xff
  1e00031448:	aa0003f4 	mov	x20, x0
  1e0003144c:	2a1303e1 	mov	w1, w19
  1e00031450:	a9025bf5 	stp	x21, x22, [sp, #32]
  1e00031454:	aa0303f5 	mov	x21, x3
  1e00031458:	aa0203f6 	mov	x22, x2
  1e0003145c:	52800142 	mov	w2, #0xa                   	// #10
  1e00031460:	97fffc6e 	bl	1e00030618 <icon_test_instruction_req>
  1e00031464:	2a1303e1 	mov	w1, w19
  1e00031468:	aa1403e0 	mov	x0, x20
  1e0003146c:	52800162 	mov	w2, #0xb                   	// #11
  1e00031470:	97fffc6a 	bl	1e00030618 <icon_test_instruction_req>
  1e00031474:	52800980 	mov	w0, #0x4c                  	// #76
  1e00031478:	f9408281 	ldr	x1, [x20, #256]
  1e0003147c:	1b007e73 	mul	w19, w19, w0
  1e00031480:	11029260 	add	w0, w19, #0xa4
  1e00031484:	11028273 	add	w19, w19, #0xa0
  1e00031488:	93407c00 	sxtw	x0, w0
  1e0003148c:	93407e73 	sxtw	x19, w19
  1e00031490:	b8616800 	ldr	w0, [x0, x1]
  1e00031494:	b90002c0 	str	w0, [x22]
  1e00031498:	b8616a60 	ldr	w0, [x19, x1]
  1e0003149c:	a94153f3 	ldp	x19, x20, [sp, #16]
  1e000314a0:	b90002a0 	str	w0, [x21]
  1e000314a4:	a9425bf5 	ldp	x21, x22, [sp, #32]
  1e000314a8:	52800000 	mov	w0, #0x0                   	// #0
  1e000314ac:	a8c37bfd 	ldp	x29, x30, [sp], #48
  1e000314b0:	d65f03c0 	ret

0000001e000314b4 <tmrs_write>:
  1e000314b4:	a9bf7bfd 	stp	x29, x30, [sp, #-16]!
  1e000314b8:	52800063 	mov	w3, #0x3                   	// #3
  1e000314bc:	910003fd 	mov	x29, sp
  1e000314c0:	f9408002 	ldr	x2, [x0, #256]
  1e000314c4:	b9005841 	str	w1, [x2, #88]
  1e000314c8:	b9400041 	ldr	w1, [x2]
  1e000314cc:	331e0861 	bfi	w1, w3, #2, #3
  1e000314d0:	b9000041 	str	w1, [x2]
  1e000314d4:	528003c3 	mov	w3, #0x1e                  	// #30
  1e000314d8:	b9400041 	ldr	w1, [x2]
  1e000314dc:	330e2861 	bfi	w1, w3, #18, #11
  1e000314e0:	b9000041 	str	w1, [x2]
  1e000314e4:	97fffc74 	bl	1e000306b4 <icon_sw_instruction_req>
  1e000314e8:	52800140 	mov	w0, #0xa                   	// #10
  1e000314ec:	940008fa 	bl	1e000338d4 <udelay>
  1e000314f0:	52800000 	mov	w0, #0x0                   	// #0
  1e000314f4:	a8c17bfd 	ldp	x29, x30, [sp], #16
  1e000314f8:	d65f03c0 	ret

0000001e000314fc <tmrs_gen_inst>:
  1e000314fc:	a9bf7bfd 	stp	x29, x30, [sp, #-16]!
  1e00031500:	5283f603 	mov	w3, #0x1fb0                	// #8112
  1e00031504:	910003fd 	mov	x29, sp
  1e00031508:	f9408001 	ldr	x1, [x0, #256]
  1e0003150c:	b9400022 	ldr	w2, [x1]
  1e00031510:	121b7042 	and	w2, w2, #0xffffffe3
  1e00031514:	b9000022 	str	w2, [x1]
  1e00031518:	b9400022 	ldr	w2, [x1]
  1e0003151c:	331b3062 	bfi	w2, w3, #5, #13
  1e00031520:	b9000022 	str	w2, [x1]
  1e00031524:	97fffc64 	bl	1e000306b4 <icon_sw_instruction_req>
  1e00031528:	52800140 	mov	w0, #0xa                   	// #10
  1e0003152c:	940008ea 	bl	1e000338d4 <udelay>
  1e00031530:	52800000 	mov	w0, #0x0                   	// #0
  1e00031534:	a8c17bfd 	ldp	x29, x30, [sp], #16
  1e00031538:	d65f03c0 	ret

0000001e0003153c <tmrs_bypass>:
  1e0003153c:	a9bf7bfd 	stp	x29, x30, [sp, #-16]!
  1e00031540:	52800022 	mov	w2, #0x1                   	// #1
  1e00031544:	910003fd 	mov	x29, sp
  1e00031548:	f9408001 	ldr	x1, [x0, #256]
  1e0003154c:	b9005822 	str	w2, [x1, #88]
  1e00031550:	b9400023 	ldr	w3, [x1]
  1e00031554:	331e0843 	bfi	w3, w2, #2, #3
  1e00031558:	b9000023 	str	w3, [x1]
  1e0003155c:	b9400023 	ldr	w3, [x1]
  1e00031560:	330e2843 	bfi	w3, w2, #18, #11
  1e00031564:	b9000023 	str	w3, [x1]
  1e00031568:	5283e003 	mov	w3, #0x1f00                	// #7936
  1e0003156c:	b9400022 	ldr	w2, [x1]
  1e00031570:	331b3062 	bfi	w2, w3, #5, #13
  1e00031574:	b9000022 	str	w2, [x1]
  1e00031578:	97fffc4f 	bl	1e000306b4 <icon_sw_instruction_req>
  1e0003157c:	52800140 	mov	w0, #0xa                   	// #10
  1e00031580:	940008d5 	bl	1e000338d4 <udelay>
  1e00031584:	52800000 	mov	w0, #0x0                   	// #0
  1e00031588:	a8c17bfd 	ldp	x29, x30, [sp], #16
  1e0003158c:	d65f03c0 	ret

0000001e00031590 <rebel_bakery_lock_init>:
  1e00031590:	d2810201 	mov	x1, #0x810                 	// #2064
  1e00031594:	f2a00461 	movk	x1, #0x23, lsl #16
  1e00031598:	f2c003c1 	movk	x1, #0x1e, lsl #32
  1e0003159c:	aa0103e0 	mov	x0, x1
  1e000315a0:	b804041f 	str	wzr, [x0], #64
  1e000315a4:	b900403f 	str	wzr, [x1, #64]
  1e000315a8:	b81c401f 	stur	wzr, [x0, #-60]
  1e000315ac:	b900041f 	str	wzr, [x0, #4]
  1e000315b0:	b81c801f 	stur	wzr, [x0, #-56]
  1e000315b4:	b900081f 	str	wzr, [x0, #8]
  1e000315b8:	b81cc01f 	stur	wzr, [x0, #-52]
  1e000315bc:	b9000c1f 	str	wzr, [x0, #12]
  1e000315c0:	d65f03c0 	ret

0000001e000315c4 <bl2_arch_setup>:
  1e000315c4:	d2a00600 	mov	x0, #0x300000              	// #3145728
  1e000315c8:	d5181040 	msr	cpacr_el1, x0
  1e000315cc:	d65f03c0 	ret

0000001e000315d0 <bl2_load_images>:
  1e000315d0:	a9bd7bfd 	stp	x29, x30, [sp, #-48]!
  1e000315d4:	910003fd 	mov	x29, sp
  1e000315d8:	a90153f3 	stp	x19, x20, [sp, #16]
  1e000315dc:	a9025bf5 	stp	x21, x22, [sp, #32]
  1e000315e0:	94002686 	bl	1e0003aff8 <plat_get_bl_image_load_info>
  1e000315e4:	b5000040 	cbnz	x0, 1e000315ec <bl2_load_images+0x1c>
  1e000315e8:	94002806 	bl	1e0003b600 <__assert>
  1e000315ec:	f9400413 	ldr	x19, [x0, #8]
  1e000315f0:	b4ffffd3 	cbz	x19, 1e000315e8 <bl2_load_images+0x18>
  1e000315f4:	39400001 	ldrb	w1, [x0]
  1e000315f8:	7100103f 	cmp	w1, #0x4
  1e000315fc:	54ffff61 	b.ne	1e000315e8 <bl2_load_images+0x18>  // b.any
  1e00031600:	39400400 	ldrb	w0, [x0, #1]
  1e00031604:	7100041f 	cmp	w0, #0x1
  1e00031608:	54ffff09 	b.ls	1e000315e8 <bl2_load_images+0x18>  // b.plast
  1e0003160c:	f0000055 	adrp	x21, 1e0003c000 <vsnprintf+0x270>
  1e00031610:	912626b5 	add	x21, x21, #0x989
  1e00031614:	52800016 	mov	w22, #0x0                   	// #0
  1e00031618:	f9400660 	ldr	x0, [x19, #8]
  1e0003161c:	b9400400 	ldr	w0, [x0, #4]
  1e00031620:	361000a0 	tbz	w0, #2, 1e00031634 <bl2_load_images+0x64>
  1e00031624:	340001b6 	cbz	w22, 1e00031658 <bl2_load_images+0x88>
  1e00031628:	aa1503e0 	mov	x0, x21
  1e0003162c:	940001e2 	bl	1e00031db4 <tf_log>
  1e00031630:	52800036 	mov	w22, #0x1                   	// #1
  1e00031634:	b9400260 	ldr	w0, [x19]
  1e00031638:	94002435 	bl	1e0003a70c <bl2_plat_handle_pre_image_load>
  1e0003163c:	2a0003f4 	mov	w20, w0
  1e00031640:	34000100 	cbz	w0, 1e00031660 <bl2_load_images+0x90>
  1e00031644:	2a0003e1 	mov	w1, w0
  1e00031648:	f0000040 	adrp	x0, 1e0003c000 <vsnprintf+0x270>
  1e0003164c:	9126b800 	add	x0, x0, #0x9ae
  1e00031650:	940001d9 	bl	1e00031db4 <tf_log>
  1e00031654:	1400000f 	b	1e00031690 <bl2_load_images+0xc0>
  1e00031658:	94002663 	bl	1e0003afe4 <bl2_platform_setup>
  1e0003165c:	17fffff5 	b	1e00031630 <bl2_load_images+0x60>
  1e00031660:	f9400661 	ldr	x1, [x19, #8]
  1e00031664:	b9400260 	ldr	w0, [x19]
  1e00031668:	b9400422 	ldr	w2, [x1, #4]
  1e0003166c:	37080162 	tbnz	w2, #1, 1e00031698 <bl2_load_images+0xc8>
  1e00031670:	9400010f 	bl	1e00031aac <load_auth_image>
  1e00031674:	2a0003f4 	mov	w20, w0
  1e00031678:	34000100 	cbz	w0, 1e00031698 <bl2_load_images+0xc8>
  1e0003167c:	b9400261 	ldr	w1, [x19]
  1e00031680:	2a0003e2 	mov	w2, w0
  1e00031684:	f0000040 	adrp	x0, 1e0003c000 <vsnprintf+0x270>
  1e00031688:	91277400 	add	x0, x0, #0x9dd
  1e0003168c:	940001ca 	bl	1e00031db4 <tf_log>
  1e00031690:	2a1403e0 	mov	w0, w20
  1e00031694:	9400241b 	bl	1e0003a700 <plat_error_handler>
  1e00031698:	b9400260 	ldr	w0, [x19]
  1e0003169c:	9400241e 	bl	1e0003a714 <bl2_plat_handle_post_image_load>
  1e000316a0:	2a0003f4 	mov	w20, w0
  1e000316a4:	340000a0 	cbz	w0, 1e000316b8 <bl2_load_images+0xe8>
  1e000316a8:	2a0003e1 	mov	w1, w0
  1e000316ac:	f0000040 	adrp	x0, 1e0003c000 <vsnprintf+0x270>
  1e000316b0:	91281000 	add	x0, x0, #0xa04
  1e000316b4:	17ffffe7 	b	1e00031650 <bl2_load_images+0x80>
  1e000316b8:	f9400a73 	ldr	x19, [x19, #16]
  1e000316bc:	b5fffaf3 	cbnz	x19, 1e00031618 <bl2_load_images+0x48>
  1e000316c0:	9400264f 	bl	1e0003affc <plat_get_next_bl_params>
  1e000316c4:	aa0003f3 	mov	x19, x0
  1e000316c8:	b4fff900 	cbz	x0, 1e000315e8 <bl2_load_images+0x18>
  1e000316cc:	f9400400 	ldr	x0, [x0, #8]
  1e000316d0:	b4fff8c0 	cbz	x0, 1e000315e8 <bl2_load_images+0x18>
  1e000316d4:	39400261 	ldrb	w1, [x19]
  1e000316d8:	7100143f 	cmp	w1, #0x5
  1e000316dc:	54fff861 	b.ne	1e000315e8 <bl2_load_images+0x18>  // b.any
  1e000316e0:	39400661 	ldrb	w1, [x19, #1]
  1e000316e4:	7100043f 	cmp	w1, #0x1
  1e000316e8:	54fff809 	b.ls	1e000315e8 <bl2_load_images+0x18>  // b.plast
  1e000316ec:	f9400800 	ldr	x0, [x0, #16]
  1e000316f0:	b4fff7c0 	cbz	x0, 1e000315e8 <bl2_load_images+0x18>
  1e000316f4:	f9400c01 	ldr	x1, [x0, #24]
  1e000316f8:	b5000041 	cbnz	x1, 1e00031700 <bl2_load_images+0x130>
  1e000316fc:	f9000c13 	str	x19, [x0, #24]
  1e00031700:	9400263d 	bl	1e0003aff4 <plat_flush_next_bl_params>
  1e00031704:	f9400660 	ldr	x0, [x19, #8]
  1e00031708:	a94153f3 	ldp	x19, x20, [sp, #16]
  1e0003170c:	f9400800 	ldr	x0, [x0, #16]
  1e00031710:	a9425bf5 	ldp	x21, x22, [sp, #32]
  1e00031714:	a8c37bfd 	ldp	x29, x30, [sp], #48
  1e00031718:	d65f03c0 	ret

0000001e0003171c <bl2_main>:
  1e0003171c:	a9be7bfd 	stp	x29, x30, [sp, #-32]!
  1e00031720:	910003fd 	mov	x29, sp
  1e00031724:	f9000bf3 	str	x19, [sp, #16]
  1e00031728:	94002479 	bl	1e0003a90c <bl2_early_platform_setup2>
  1e0003172c:	f0000053 	adrp	x19, 1e0003c000 <vsnprintf+0x270>
  1e00031730:	94002407 	bl	1e0003a74c <bl2_plat_arch_setup>
  1e00031734:	9128d273 	add	x19, x19, #0xa34
  1e00031738:	90000061 	adrp	x1, 1e0003d000 <CSWTCH.192+0x80c>
  1e0003173c:	aa1303e0 	mov	x0, x19
  1e00031740:	9124e021 	add	x1, x1, #0x938
  1e00031744:	9400019c 	bl	1e00031db4 <tf_log>
  1e00031748:	aa1303e0 	mov	x0, x19
  1e0003174c:	90000061 	adrp	x1, 1e0003d000 <CSWTCH.192+0x80c>
  1e00031750:	91259821 	add	x1, x1, #0x966
  1e00031754:	94000198 	bl	1e00031db4 <tf_log>
  1e00031758:	97ffff9b 	bl	1e000315c4 <bl2_arch_setup>
  1e0003175c:	940023eb 	bl	1e0003a708 <bl2_plat_preload_setup>
  1e00031760:	97ffff9c 	bl	1e000315d0 <bl2_load_images>
  1e00031764:	aa0003f3 	mov	x19, x0
  1e00031768:	94000846 	bl	1e00033880 <console_flush>
  1e0003176c:	aa1303e1 	mov	x1, x19
  1e00031770:	d2800007 	mov	x7, #0x0                   	// #0
  1e00031774:	d2800006 	mov	x6, #0x0                   	// #0
  1e00031778:	d2800005 	mov	x5, #0x0                   	// #0
  1e0003177c:	d2800004 	mov	x4, #0x0                   	// #0
  1e00031780:	d2800003 	mov	x3, #0x0                   	// #0
  1e00031784:	d2800002 	mov	x2, #0x0                   	// #0
  1e00031788:	d2800080 	mov	x0, #0x4                   	// #4
  1e0003178c:	9400271b 	bl	1e0003b3f8 <smc>

0000001e00031790 <is_address_readable>:
  1e00031790:	d5384241 	mrs	x1, currentel
  1e00031794:	53020c21 	ubfx	w1, w1, #2, #2
  1e00031798:	71000c3f 	cmp	w1, #0x3
  1e0003179c:	540000e1 	b.ne	1e000317b8 <is_address_readable+0x28>  // b.any
  1e000317a0:	d50e7800 	at	s1e3r, x0
  1e000317a4:	d5033fdf 	isb
  1e000317a8:	d5387400 	mrs	x0, par_el1
  1e000317ac:	aa2003e0 	mvn	x0, x0
  1e000317b0:	12000000 	and	w0, w0, #0x1
  1e000317b4:	d65f03c0 	ret
  1e000317b8:	7100083f 	cmp	w1, #0x2
  1e000317bc:	54000061 	b.ne	1e000317c8 <is_address_readable+0x38>  // b.any
  1e000317c0:	d50c7800 	at	s1e2r, x0
  1e000317c4:	17fffff8 	b	1e000317a4 <is_address_readable+0x14>
  1e000317c8:	d5087800 	at	s1e1r, x0
  1e000317cc:	17fffff6 	b	1e000317a4 <is_address_readable+0x14>

0000001e000317d0 <is_valid_object.constprop.0>:
  1e000317d0:	aa0003e2 	mov	x2, x0
  1e000317d4:	d1000400 	sub	x0, x0, #0x1
  1e000317d8:	b100481f 	cmn	x0, #0x12
  1e000317dc:	54000228 	b.hi	1e00031820 <is_valid_object.constprop.0+0x50>  // b.pmore
  1e000317e0:	f2400843 	ands	x3, x2, #0x7
  1e000317e4:	540001e1 	b.ne	1e00031820 <is_valid_object.constprop.0+0x50>  // b.any
  1e000317e8:	a9bf7bfd 	stp	x29, x30, [sp, #-16]!
  1e000317ec:	910003fd 	mov	x29, sp
  1e000317f0:	8b030040 	add	x0, x2, x3
  1e000317f4:	97ffffe7 	bl	1e00031790 <is_address_readable>
  1e000317f8:	12001c01 	and	w1, w0, #0xff
  1e000317fc:	360000e0 	tbz	w0, #0, 1e00031818 <is_valid_object.constprop.0+0x48>
  1e00031800:	91000463 	add	x3, x3, #0x1
  1e00031804:	f100407f 	cmp	x3, #0x10
  1e00031808:	54ffff41 	b.ne	1e000317f0 <is_valid_object.constprop.0+0x20>  // b.any
  1e0003180c:	2a0103e0 	mov	w0, w1
  1e00031810:	a8c17bfd 	ldp	x29, x30, [sp], #16
  1e00031814:	d65f03c0 	ret
  1e00031818:	52800001 	mov	w1, #0x0                   	// #0
  1e0003181c:	17fffffc 	b	1e0003180c <is_valid_object.constprop.0+0x3c>
  1e00031820:	52800001 	mov	w1, #0x0                   	// #0
  1e00031824:	2a0103e0 	mov	w0, w1
  1e00031828:	d65f03c0 	ret

0000001e0003182c <backtrace>:
  1e0003182c:	a9bc7bfd 	stp	x29, x30, [sp, #-64]!
  1e00031830:	d50320ff 	xpaclri
  1e00031834:	910003fd 	mov	x29, sp
  1e00031838:	a90153f3 	stp	x19, x20, [sp, #16]
  1e0003183c:	aa0003f3 	mov	x19, x0
  1e00031840:	aa1e03f4 	mov	x20, x30
  1e00031844:	a9025bf5 	stp	x21, x22, [sp, #32]
  1e00031848:	f9001bf7 	str	x23, [sp, #48]
  1e0003184c:	9400080d 	bl	1e00033880 <console_flush>
  1e00031850:	aa1303e1 	mov	x1, x19
  1e00031854:	f0000040 	adrp	x0, 1e0003c000 <vsnprintf+0x270>
  1e00031858:	9128f800 	add	x0, x0, #0xa3e
  1e0003185c:	940028ec 	bl	1e0003bc0c <printf>
  1e00031860:	d5384240 	mrs	x0, currentel
  1e00031864:	53020c00 	ubfx	w0, w0, #2, #2
  1e00031868:	9400239d 	bl	1e0003a6dc <get_el_str>
  1e0003186c:	aa0003f7 	mov	x23, x0
  1e00031870:	aa1d03e0 	mov	x0, x29
  1e00031874:	97ffffd7 	bl	1e000317d0 <is_valid_object.constprop.0>
  1e00031878:	370001a0 	tbnz	w0, #0, 1e000318ac <backtrace+0x80>
  1e0003187c:	f0000040 	adrp	x0, 1e0003c000 <vsnprintf+0x270>
  1e00031880:	aa1d03e1 	mov	x1, x29
  1e00031884:	91295000 	add	x0, x0, #0xa54
  1e00031888:	940028e1 	bl	1e0003bc0c <printf>
  1e0003188c:	a9425bf5 	ldp	x21, x22, [sp, #32]
  1e00031890:	aa1303e1 	mov	x1, x19
  1e00031894:	a94153f3 	ldp	x19, x20, [sp, #16]
  1e00031898:	f0000040 	adrp	x0, 1e0003c000 <vsnprintf+0x270>
  1e0003189c:	f9401bf7 	ldr	x23, [sp, #48]
  1e000318a0:	912bdc00 	add	x0, x0, #0xaf7
  1e000318a4:	a8c47bfd 	ldp	x29, x30, [sp], #64
  1e000318a8:	140028d9 	b	1e0003bc0c <printf>
  1e000318ac:	f94007a0 	ldr	x0, [x29, #8]
  1e000318b0:	eb00029f 	cmp	x20, x0
  1e000318b4:	540000a0 	b.eq	1e000318c8 <backtrace+0x9c>  // b.none
  1e000318b8:	f0000040 	adrp	x0, 1e0003c000 <vsnprintf+0x270>
  1e000318bc:	aa1d03e1 	mov	x1, x29
  1e000318c0:	912a4000 	add	x0, x0, #0xa90
  1e000318c4:	17fffff1 	b	1e00031888 <backtrace+0x5c>
  1e000318c8:	aa1d03f5 	mov	x21, x29
  1e000318cc:	52800034 	mov	w20, #0x1                   	// #1
  1e000318d0:	f0000056 	adrp	x22, 1e0003c000 <vsnprintf+0x270>
  1e000318d4:	912b12d6 	add	x22, x22, #0xac4
  1e000318d8:	aa1703e2 	mov	x2, x23
  1e000318dc:	aa1603e0 	mov	x0, x22
  1e000318e0:	90000003 	adrp	x3, 1e00031000 <icon_tx_extest+0x238>
  1e000318e4:	52800001 	mov	w1, #0x0                   	// #0
  1e000318e8:	9120b063 	add	x3, x3, #0x82c
  1e000318ec:	940028c8 	bl	1e0003bc0c <printf>
  1e000318f0:	aa1503e0 	mov	x0, x21
  1e000318f4:	97ffffb7 	bl	1e000317d0 <is_valid_object.constprop.0>
  1e000318f8:	3607fca0 	tbz	w0, #0, 1e0003188c <backtrace+0x60>
  1e000318fc:	f94006a3 	ldr	x3, [x21, #8]
  1e00031900:	f1001063 	subs	x3, x3, #0x4
  1e00031904:	54fffc40 	b.eq	1e0003188c <backtrace+0x60>  // b.none
  1e00031908:	f240047f 	tst	x3, #0x3
  1e0003190c:	54fffc01 	b.ne	1e0003188c <backtrace+0x60>  // b.any
  1e00031910:	aa0303e0 	mov	x0, x3
  1e00031914:	97ffff9f 	bl	1e00031790 <is_address_readable>
  1e00031918:	3607fba0 	tbz	w0, #0, 1e0003188c <backtrace+0x60>
  1e0003191c:	2a1403e1 	mov	w1, w20
  1e00031920:	aa1703e2 	mov	x2, x23
  1e00031924:	aa1603e0 	mov	x0, x22
  1e00031928:	11000694 	add	w20, w20, #0x1
  1e0003192c:	940028b8 	bl	1e0003bc0c <printf>
  1e00031930:	f94002b5 	ldr	x21, [x21]
  1e00031934:	7100529f 	cmp	w20, #0x14
  1e00031938:	54fffdc1 	b.ne	1e000318f0 <backtrace+0xc4>  // b.any
  1e0003193c:	f0000040 	adrp	x0, 1e0003c000 <vsnprintf+0x270>
  1e00031940:	912b4c00 	add	x0, x0, #0xad3
  1e00031944:	940028b2 	bl	1e0003bc0c <printf>
  1e00031948:	17ffffd1 	b	1e0003188c <backtrace+0x60>

0000001e0003194c <load_image>:
  1e0003194c:	a9ba7bfd 	stp	x29, x30, [sp, #-96]!
  1e00031950:	910003fd 	mov	x29, sp
  1e00031954:	a90153f3 	stp	x19, x20, [sp, #16]
  1e00031958:	a9025bf5 	stp	x21, x22, [sp, #32]
  1e0003195c:	a903ffff 	stp	xzr, xzr, [sp, #56]
  1e00031960:	a904ffff 	stp	xzr, xzr, [sp, #72]
  1e00031964:	f9002fff 	str	xzr, [sp, #88]
  1e00031968:	b5000041 	cbnz	x1, 1e00031970 <load_image+0x24>
  1e0003196c:	94002725 	bl	1e0003b600 <__assert>
  1e00031970:	aa0103f5 	mov	x21, x1
  1e00031974:	39400421 	ldrb	w1, [x1, #1]
  1e00031978:	7100043f 	cmp	w1, #0x1
  1e0003197c:	54ffff89 	b.ls	1e0003196c <load_image+0x20>  // b.plast
  1e00031980:	f94006b6 	ldr	x22, [x21, #8]
  1e00031984:	2a0003f4 	mov	w20, w0
  1e00031988:	910123e2 	add	x2, sp, #0x48
  1e0003198c:	9100e3e1 	add	x1, sp, #0x38
  1e00031990:	9400270e 	bl	1e0003b5c8 <plat_crash_console_init>
  1e00031994:	2a0003f3 	mov	w19, w0
  1e00031998:	34000160 	cbz	w0, 1e000319c4 <load_image+0x78>
  1e0003199c:	2a0003e2 	mov	w2, w0
  1e000319a0:	2a1403e1 	mov	w1, w20
  1e000319a4:	f0000040 	adrp	x0, 1e0003c000 <vsnprintf+0x270>
  1e000319a8:	912c2c00 	add	x0, x0, #0xb0b
  1e000319ac:	94000102 	bl	1e00031db4 <tf_log>
  1e000319b0:	a9425bf5 	ldp	x21, x22, [sp, #32]
  1e000319b4:	2a1303e0 	mov	w0, w19
  1e000319b8:	a94153f3 	ldp	x19, x20, [sp, #16]
  1e000319bc:	a8c67bfd 	ldp	x29, x30, [sp], #96
  1e000319c0:	d65f03c0 	ret
  1e000319c4:	f9401fe0 	ldr	x0, [sp, #56]
  1e000319c8:	910103e2 	add	x2, sp, #0x40
  1e000319cc:	f94027e1 	ldr	x1, [sp, #72]
  1e000319d0:	94001c3d 	bl	1e00038ac4 <io_open>
  1e000319d4:	2a0003f3 	mov	w19, w0
  1e000319d8:	340000c0 	cbz	w0, 1e000319f0 <load_image+0xa4>
  1e000319dc:	2a0003e2 	mov	w2, w0
  1e000319e0:	2a1403e1 	mov	w1, w20
  1e000319e4:	f0000040 	adrp	x0, 1e0003c000 <vsnprintf+0x270>
  1e000319e8:	912cf000 	add	x0, x0, #0xb3c
  1e000319ec:	17fffff0 	b	1e000319ac <load_image+0x60>
  1e000319f0:	f94023e0 	ldr	x0, [sp, #64]
  1e000319f4:	910143e1 	add	x1, sp, #0x50
  1e000319f8:	94001c6c 	bl	1e00038ba8 <io_size>
  1e000319fc:	2a0003f3 	mov	w19, w0
  1e00031a00:	340000e0 	cbz	w0, 1e00031a1c <load_image+0xd0>
  1e00031a04:	2a0003e2 	mov	w2, w0
  1e00031a08:	2a1403e1 	mov	w1, w20
  1e00031a0c:	f0000040 	adrp	x0, 1e0003c000 <vsnprintf+0x270>
  1e00031a10:	912d8000 	add	x0, x0, #0xb60
  1e00031a14:	940000e8 	bl	1e00031db4 <tf_log>
  1e00031a18:	14000008 	b	1e00031a38 <load_image+0xec>
  1e00031a1c:	f9402be2 	ldr	x2, [sp, #80]
  1e00031a20:	b5000162 	cbnz	x2, 1e00031a4c <load_image+0x100>
  1e00031a24:	12800093 	mov	w19, #0xfffffffb            	// #-5
  1e00031a28:	2a1403e1 	mov	w1, w20
  1e00031a2c:	f0000040 	adrp	x0, 1e0003c000 <vsnprintf+0x270>
  1e00031a30:	912e5c00 	add	x0, x0, #0xb97
  1e00031a34:	940000e0 	bl	1e00031db4 <tf_log>
  1e00031a38:	f94023e0 	ldr	x0, [sp, #64]
  1e00031a3c:	94001c8f 	bl	1e00038c78 <io_close>
  1e00031a40:	f9401fe0 	ldr	x0, [sp, #56]
  1e00031a44:	94001c0c 	bl	1e00038a74 <io_dev_close>
  1e00031a48:	17ffffda 	b	1e000319b0 <load_image+0x64>
  1e00031a4c:	b94016a0 	ldr	w0, [x21, #20]
  1e00031a50:	eb00005f 	cmp	x2, x0
  1e00031a54:	540000e9 	b.ls	1e00031a70 <load_image+0x124>  // b.plast
  1e00031a58:	2a1403e1 	mov	w1, w20
  1e00031a5c:	f0000040 	adrp	x0, 1e0003c000 <vsnprintf+0x270>
  1e00031a60:	12800353 	mov	w19, #0xffffffe5            	// #-27
  1e00031a64:	912ec800 	add	x0, x0, #0xbb2
  1e00031a68:	940000d3 	bl	1e00031db4 <tf_log>
  1e00031a6c:	17fffff3 	b	1e00031a38 <load_image+0xec>
  1e00031a70:	f94023e0 	ldr	x0, [sp, #64]
  1e00031a74:	b90012a2 	str	w2, [x21, #16]
  1e00031a78:	910163e3 	add	x3, sp, #0x58
  1e00031a7c:	aa1603e1 	mov	x1, x22
  1e00031a80:	94001c61 	bl	1e00038c04 <io_read>
  1e00031a84:	2a0003f3 	mov	w19, w0
  1e00031a88:	35000080 	cbnz	w0, 1e00031a98 <load_image+0x14c>
  1e00031a8c:	a94507e0 	ldp	x0, x1, [sp, #80]
  1e00031a90:	eb00003f 	cmp	x1, x0
  1e00031a94:	54fffd22 	b.cs	1e00031a38 <load_image+0xec>  // b.hs, b.nlast
  1e00031a98:	f0000040 	adrp	x0, 1e0003c000 <vsnprintf+0x270>
  1e00031a9c:	2a1303e2 	mov	w2, w19
  1e00031aa0:	2a1403e1 	mov	w1, w20
  1e00031aa4:	912f4c00 	add	x0, x0, #0xbd3
  1e00031aa8:	17ffffdb 	b	1e00031a14 <load_image+0xc8>

0000001e00031aac <load_auth_image>:
  1e00031aac:	a9bd7bfd 	stp	x29, x30, [sp, #-48]!
  1e00031ab0:	910003fd 	mov	x29, sp
  1e00031ab4:	a9025bf5 	stp	x21, x22, [sp, #32]
  1e00031ab8:	900000b6 	adrp	x22, 1e00045000 <list+0x1e8>
  1e00031abc:	2a0003f5 	mov	w21, w0
  1e00031ac0:	f942d2c0 	ldr	x0, [x22, #1440]
  1e00031ac4:	a90153f3 	stp	x19, x20, [sp, #16]
  1e00031ac8:	aa0103f4 	mov	x20, x1
  1e00031acc:	b4000060 	cbz	x0, 1e00031ad8 <load_auth_image+0x2c>
  1e00031ad0:	f9400000 	ldr	x0, [x0]
  1e00031ad4:	b5000160 	cbnz	x0, 1e00031b00 <load_auth_image+0x54>
  1e00031ad8:	aa1403e1 	mov	x1, x20
  1e00031adc:	2a1503e0 	mov	w0, w21
  1e00031ae0:	97ffff9b 	bl	1e0003194c <load_image>
  1e00031ae4:	2a0003f3 	mov	w19, w0
  1e00031ae8:	35000200 	cbnz	w0, 1e00031b28 <load_auth_image+0x7c>
  1e00031aec:	f9400680 	ldr	x0, [x20, #8]
  1e00031af0:	52800013 	mov	w19, #0x0                   	// #0
  1e00031af4:	b9401281 	ldr	w1, [x20, #16]
  1e00031af8:	94002624 	bl	1e0003b388 <flush_dcache_range>
  1e00031afc:	1400000b 	b	1e00031b28 <load_auth_image+0x7c>
  1e00031b00:	aa1403e1 	mov	x1, x20
  1e00031b04:	2a1503e0 	mov	w0, w21
  1e00031b08:	97ffff91 	bl	1e0003194c <load_image>
  1e00031b0c:	2a0003f3 	mov	w19, w0
  1e00031b10:	34fffee0 	cbz	w0, 1e00031aec <load_auth_image+0x40>
  1e00031b14:	f942d2c0 	ldr	x0, [x22, #1440]
  1e00031b18:	f9400001 	ldr	x1, [x0]
  1e00031b1c:	2a1503e0 	mov	w0, w21
  1e00031b20:	d63f0020 	blr	x1
  1e00031b24:	34fffee0 	cbz	w0, 1e00031b00 <load_auth_image+0x54>
  1e00031b28:	a9425bf5 	ldp	x21, x22, [sp, #32]
  1e00031b2c:	2a1303e0 	mov	w0, w19
  1e00031b30:	a94153f3 	ldp	x19, x20, [sp, #16]
  1e00031b34:	a8c37bfd 	ldp	x29, x30, [sp], #48
  1e00031b38:	d65f03c0 	ret

0000001e00031b3c <flush_bl_params_desc_args>:
  1e00031b3c:	a9be7bfd 	stp	x29, x30, [sp, #-32]!
  1e00031b40:	910003fd 	mov	x29, sp
  1e00031b44:	f9000bf3 	str	x19, [sp, #16]
  1e00031b48:	b5000040 	cbnz	x0, 1e00031b50 <flush_bl_params_desc_args+0x14>
  1e00031b4c:	940026ad 	bl	1e0003b600 <__assert>
  1e00031b50:	34ffffe1 	cbz	w1, 1e00031b4c <flush_bl_params_desc_args+0x10>
  1e00031b54:	aa0203f3 	mov	x19, x2
  1e00031b58:	b4ffffa2 	cbz	x2, 1e00031b4c <flush_bl_params_desc_args+0x10>
  1e00031b5c:	52801702 	mov	w2, #0xb8                  	// #184
  1e00031b60:	9ba27c21 	umull	x1, w1, w2
  1e00031b64:	94002609 	bl	1e0003b388 <flush_dcache_range>
  1e00031b68:	aa1303e0 	mov	x0, x19
  1e00031b6c:	d2800201 	mov	x1, #0x10                  	// #16
  1e00031b70:	f9400bf3 	ldr	x19, [sp, #16]
  1e00031b74:	a8c27bfd 	ldp	x29, x30, [sp], #32
  1e00031b78:	14002604 	b	1e0003b388 <flush_dcache_range>

0000001e00031b7c <flush_bl_params_desc>:
  1e00031b7c:	d0000060 	adrp	x0, 1e0003f000 <__RO_END__>
  1e00031b80:	f0000082 	adrp	x2, 1e00044000 <__STACKS_START__+0x3bc0>
  1e00031b84:	91320042 	add	x2, x2, #0xc80
  1e00031b88:	b943b001 	ldr	w1, [x0, #944]
  1e00031b8c:	d0000060 	adrp	x0, 1e0003f000 <__RO_END__>
  1e00031b90:	f9411800 	ldr	x0, [x0, #560]
  1e00031b94:	17ffffea 	b	1e00031b3c <flush_bl_params_desc_args>

0000001e00031b98 <get_bl_params_node_index>:
  1e00031b98:	3100041f 	cmn	w0, #0x1
  1e00031b9c:	54000180 	b.eq	1e00031bcc <get_bl_params_node_index+0x34>  // b.none
  1e00031ba0:	d0000061 	adrp	x1, 1e0003f000 <__RO_END__>
  1e00031ba4:	d2801703 	mov	x3, #0xb8                  	// #184
  1e00031ba8:	b943b024 	ldr	w4, [x1, #944]
  1e00031bac:	d0000061 	adrp	x1, 1e0003f000 <__RO_END__>
  1e00031bb0:	f9411822 	ldr	x2, [x1, #560]
  1e00031bb4:	d2800001 	mov	x1, #0x0                   	// #0
  1e00031bb8:	d102e042 	sub	x2, x2, #0xb8
  1e00031bbc:	6b01009f 	cmp	w4, w1
  1e00031bc0:	540000c8 	b.hi	1e00031bd8 <get_bl_params_node_index+0x40>  // b.pmore
  1e00031bc4:	12800000 	mov	w0, #0xffffffff            	// #-1
  1e00031bc8:	d65f03c0 	ret
  1e00031bcc:	a9bf7bfd 	stp	x29, x30, [sp, #-16]!
  1e00031bd0:	910003fd 	mov	x29, sp
  1e00031bd4:	9400268b 	bl	1e0003b600 <__assert>
  1e00031bd8:	9b030c26 	madd	x6, x1, x3, x3
  1e00031bdc:	91000425 	add	x5, x1, #0x1
  1e00031be0:	b8666846 	ldr	w6, [x2, x6]
  1e00031be4:	6b06001f 	cmp	w0, w6
  1e00031be8:	54000061 	b.ne	1e00031bf4 <get_bl_params_node_index+0x5c>  // b.any
  1e00031bec:	2a0103e0 	mov	w0, w1
  1e00031bf0:	d65f03c0 	ret
  1e00031bf4:	aa0503e1 	mov	x1, x5
  1e00031bf8:	17fffff1 	b	1e00031bbc <get_bl_params_node_index+0x24>

0000001e00031bfc <get_bl_load_info_from_mem_params_desc>:
  1e00031bfc:	d0000060 	adrp	x0, 1e0003f000 <__RO_END__>
  1e00031c00:	b943b004 	ldr	w4, [x0, #944]
  1e00031c04:	340002a4 	cbz	w4, 1e00031c58 <get_bl_load_info_from_mem_params_desc+0x5c>
  1e00031c08:	d0000060 	adrp	x0, 1e0003f000 <__RO_END__>
  1e00031c0c:	f0000082 	adrp	x2, 1e00044000 <__STACKS_START__+0x3bc0>
  1e00031c10:	d2804083 	mov	x3, #0x204                 	// #516
  1e00031c14:	f9411801 	ldr	x1, [x0, #560]
  1e00031c18:	91324040 	add	x0, x2, #0xc90
  1e00031c1c:	f2a00203 	movk	x3, #0x10, lsl #16
  1e00031c20:	f9064843 	str	x3, [x2, #3216]
  1e00031c24:	91020021 	add	x1, x1, #0x80
  1e00031c28:	52800002 	mov	w2, #0x0                   	// #0
  1e00031c2c:	f9000401 	str	x1, [x0, #8]
  1e00031c30:	aa0103e3 	mov	x3, x1
  1e00031c34:	b8580025 	ldur	w5, [x1, #-128]
  1e00031c38:	11000442 	add	w2, w2, #0x1
  1e00031c3c:	b8188465 	str	w5, [x3], #-120
  1e00031c40:	f9000423 	str	x3, [x1, #8]
  1e00031c44:	6b02009f 	cmp	w4, w2
  1e00031c48:	540000a0 	b.eq	1e00031c5c <get_bl_load_info_from_mem_params_desc+0x60>  // b.none
  1e00031c4c:	9102e021 	add	x1, x1, #0xb8
  1e00031c50:	f8158021 	stur	x1, [x1, #-168]
  1e00031c54:	17fffff7 	b	1e00031c30 <get_bl_load_info_from_mem_params_desc+0x34>
  1e00031c58:	d2800000 	mov	x0, #0x0                   	// #0
  1e00031c5c:	d65f03c0 	ret

0000001e00031c60 <get_next_bl_params_from_mem_params_desc>:
  1e00031c60:	a9bc7bfd 	stp	x29, x30, [sp, #-64]!
  1e00031c64:	d0000060 	adrp	x0, 1e0003f000 <__RO_END__>
  1e00031c68:	910003fd 	mov	x29, sp
  1e00031c6c:	a90153f3 	stp	x19, x20, [sp, #16]
  1e00031c70:	b943b014 	ldr	w20, [x0, #944]
  1e00031c74:	a9025bf5 	stp	x21, x22, [sp, #32]
  1e00031c78:	a90363f7 	stp	x23, x24, [sp, #48]
  1e00031c7c:	34000714 	cbz	w20, 1e00031d5c <get_next_bl_params_from_mem_params_desc+0xfc>
  1e00031c80:	d0000060 	adrp	x0, 1e0003f000 <__RO_END__>
  1e00031c84:	d2c00303 	mov	x3, #0x1800000000          	// #103079215104
  1e00031c88:	f9411817 	ldr	x23, [x0, #560]
  1e00031c8c:	52800000 	mov	w0, #0x0                   	// #0
  1e00031c90:	aa1703e1 	mov	x1, x23
  1e00031c94:	f9401022 	ldr	x2, [x1, #32]
  1e00031c98:	925d0442 	and	x2, x2, #0x1800000000
  1e00031c9c:	eb03005f 	cmp	x2, x3
  1e00031ca0:	540004c1 	b.ne	1e00031d38 <get_next_bl_params_from_mem_params_desc+0xd8>  // b.any
  1e00031ca4:	f0000082 	adrp	x2, 1e00044000 <__STACKS_START__+0x3bc0>
  1e00031ca8:	91026021 	add	x1, x1, #0x98
  1e00031cac:	f9064441 	str	x1, [x2, #3208]
  1e00031cb0:	f0000093 	adrp	x19, 1e00044000 <__STACKS_START__+0x3bc0>
  1e00031cb4:	d28040a1 	mov	x1, #0x205                 	// #517
  1e00031cb8:	f2a00201 	movk	x1, #0x10, lsl #16
  1e00031cbc:	d2800002 	mov	x2, #0x0                   	// #0
  1e00031cc0:	f9064261 	str	x1, [x19, #3200]
  1e00031cc4:	52800016 	mov	w22, #0x0                   	// #0
  1e00031cc8:	52801718 	mov	w24, #0xb8                  	// #184
  1e00031ccc:	9bb87c00 	umull	x0, w0, w24
  1e00031cd0:	8b0002e1 	add	x1, x23, x0
  1e00031cd4:	b9402423 	ldr	w3, [x1, #36]
  1e00031cd8:	36180403 	tbz	w3, #3, 1e00031d58 <get_next_bl_params_from_mem_params_desc+0xf8>
  1e00031cdc:	91026035 	add	x21, x1, #0x98
  1e00031ce0:	b8606ae0 	ldr	w0, [x23, x0]
  1e00031ce4:	b9009820 	str	w0, [x1, #152]
  1e00031ce8:	91002020 	add	x0, x1, #0x8
  1e00031cec:	f90006a0 	str	x0, [x21, #8]
  1e00031cf0:	91008020 	add	x0, x1, #0x20
  1e00031cf4:	f9000aa0 	str	x0, [x21, #16]
  1e00031cf8:	b4000082 	cbz	x2, 1e00031d08 <get_next_bl_params_from_mem_params_desc+0xa8>
  1e00031cfc:	f9400c40 	ldr	x0, [x2, #24]
  1e00031d00:	b50002c0 	cbnz	x0, 1e00031d58 <get_next_bl_params_from_mem_params_desc+0xf8>
  1e00031d04:	f9000c55 	str	x21, [x2, #24]
  1e00031d08:	b9407820 	ldr	w0, [x1, #120]
  1e00031d0c:	3100041f 	cmn	w0, #0x1
  1e00031d10:	54000320 	b.eq	1e00031d74 <get_next_bl_params_from_mem_params_desc+0x114>  // b.none
  1e00031d14:	97ffffa1 	bl	1e00031b98 <get_bl_params_node_index>
  1e00031d18:	34000200 	cbz	w0, 1e00031d58 <get_next_bl_params_from_mem_params_desc+0xf8>
  1e00031d1c:	6b00029f 	cmp	w20, w0
  1e00031d20:	540001c9 	b.ls	1e00031d58 <get_next_bl_params_from_mem_params_desc+0xf8>  // b.plast
  1e00031d24:	110006d6 	add	w22, w22, #0x1
  1e00031d28:	6b16029f 	cmp	w20, w22
  1e00031d2c:	54000160 	b.eq	1e00031d58 <get_next_bl_params_from_mem_params_desc+0xf8>  // b.none
  1e00031d30:	aa1503e2 	mov	x2, x21
  1e00031d34:	17ffffe6 	b	1e00031ccc <get_next_bl_params_from_mem_params_desc+0x6c>
  1e00031d38:	11000400 	add	w0, w0, #0x1
  1e00031d3c:	9102e021 	add	x1, x1, #0xb8
  1e00031d40:	6b00029f 	cmp	w20, w0
  1e00031d44:	54fffa81 	b.ne	1e00031c94 <get_next_bl_params_from_mem_params_desc+0x34>  // b.any
  1e00031d48:	f0000080 	adrp	x0, 1e00044000 <__STACKS_START__+0x3bc0>
  1e00031d4c:	f9464401 	ldr	x1, [x0, #3208]
  1e00031d50:	52800000 	mov	w0, #0x0                   	// #0
  1e00031d54:	b5fffae1 	cbnz	x1, 1e00031cb0 <get_next_bl_params_from_mem_params_desc+0x50>
  1e00031d58:	9400262a 	bl	1e0003b600 <__assert>
  1e00031d5c:	d2800000 	mov	x0, #0x0                   	// #0
  1e00031d60:	a94153f3 	ldp	x19, x20, [sp, #16]
  1e00031d64:	a9425bf5 	ldp	x21, x22, [sp, #32]
  1e00031d68:	a94363f7 	ldp	x23, x24, [sp, #48]
  1e00031d6c:	a8c47bfd 	ldp	x29, x30, [sp], #64
  1e00031d70:	d65f03c0 	ret
  1e00031d74:	91320260 	add	x0, x19, #0xc80
  1e00031d78:	17fffffa 	b	1e00031d60 <get_next_bl_params_from_mem_params_desc+0x100>

0000001e00031d7c <tf_crc32>:
  1e00031d7c:	b5000081 	cbnz	x1, 1e00031d8c <tf_crc32+0x10>
  1e00031d80:	a9bf7bfd 	stp	x29, x30, [sp, #-16]!
  1e00031d84:	910003fd 	mov	x29, sp
  1e00031d88:	9400261e 	bl	1e0003b600 <__assert>
  1e00031d8c:	2a2003e0 	mvn	w0, w0
  1e00031d90:	d2800003 	mov	x3, #0x0                   	// #0
  1e00031d94:	eb03005f 	cmp	x2, x3
  1e00031d98:	54000061 	b.ne	1e00031da4 <tf_crc32+0x28>  // b.any
  1e00031d9c:	2a2003e0 	mvn	w0, w0
  1e00031da0:	d65f03c0 	ret
  1e00031da4:	38636824 	ldrb	w4, [x1, x3]
  1e00031da8:	91000463 	add	x3, x3, #0x1
  1e00031dac:	1ac44000 	crc32b	w0, w0, w4
  1e00031db0:	17fffff9 	b	1e00031d94 <tf_crc32+0x18>

0000001e00031db4 <tf_log>:
  1e00031db4:	a9b67bfd 	stp	x29, x30, [sp, #-160]!
  1e00031db8:	910003fd 	mov	x29, sp
  1e00031dbc:	a90153f3 	stp	x19, x20, [sp, #16]
  1e00031dc0:	aa0003f4 	mov	x20, x0
  1e00031dc4:	a9068be1 	stp	x1, x2, [sp, #104]
  1e00031dc8:	a90793e3 	stp	x3, x4, [sp, #120]
  1e00031dcc:	a9089be5 	stp	x5, x6, [sp, #136]
  1e00031dd0:	f9004fe7 	str	x7, [sp, #152]
  1e00031dd4:	39400000 	ldrb	w0, [x0]
  1e00031dd8:	51000401 	sub	w1, w0, #0x1
  1e00031ddc:	7100c43f 	cmp	w1, #0x31
  1e00031de0:	54000049 	b.ls	1e00031de8 <tf_log+0x34>  // b.plast
  1e00031de4:	94002607 	bl	1e0003b600 <__assert>
  1e00031de8:	52800142 	mov	w2, #0xa                   	// #10
  1e00031dec:	1ac20801 	udiv	w1, w0, w2
  1e00031df0:	1b028021 	msub	w1, w1, w2, w0
  1e00031df4:	35ffff81 	cbnz	w1, 1e00031de4 <tf_log+0x30>
  1e00031df8:	d0000061 	adrp	x1, 1e0003f000 <__RO_END__>
  1e00031dfc:	b943a821 	ldr	w1, [x1, #936]
  1e00031e00:	6b00003f 	cmp	w1, w0
  1e00031e04:	54000263 	b.cc	1e00031e50 <tf_log+0x9c>  // b.lo, b.ul, b.last
  1e00031e08:	94002245 	bl	1e0003a71c <plat_log_get_prefix>
  1e00031e0c:	aa0003f3 	mov	x19, x0
  1e00031e10:	39400260 	ldrb	w0, [x19]
  1e00031e14:	35000240 	cbnz	w0, 1e00031e5c <tf_log+0xa8>
  1e00031e18:	910283e0 	add	x0, sp, #0xa0
  1e00031e1c:	a90403e0 	stp	x0, x0, [sp, #64]
  1e00031e20:	910183e0 	add	x0, sp, #0x60
  1e00031e24:	f9002be0 	str	x0, [sp, #80]
  1e00031e28:	128006e0 	mov	w0, #0xffffffc8            	// #-56
  1e00031e2c:	b9005be0 	str	w0, [sp, #88]
  1e00031e30:	b9005fff 	str	wzr, [sp, #92]
  1e00031e34:	a94407e0 	ldp	x0, x1, [sp, #64]
  1e00031e38:	a90207e0 	stp	x0, x1, [sp, #32]
  1e00031e3c:	a94507e0 	ldp	x0, x1, [sp, #80]
  1e00031e40:	a90307e0 	stp	x0, x1, [sp, #48]
  1e00031e44:	910083e1 	add	x1, sp, #0x20
  1e00031e48:	91000680 	add	x0, x20, #0x1
  1e00031e4c:	94002646 	bl	1e0003b764 <vprintf>
  1e00031e50:	a94153f3 	ldp	x19, x20, [sp, #16]
  1e00031e54:	a8ca7bfd 	ldp	x29, x30, [sp], #160
  1e00031e58:	d65f03c0 	ret
  1e00031e5c:	91000673 	add	x19, x19, #0x1
  1e00031e60:	9400067e 	bl	1e00033858 <putchar>
  1e00031e64:	17ffffeb 	b	1e00031e10 <tf_log+0x5c>

0000001e00031e68 <dma_pl330_gen_mov>:
  1e00031e68:	12800863 	mov	w3, #0xffffffbc            	// #-68
  1e00031e6c:	39000003 	strb	w3, [x0]
  1e00031e70:	12001c21 	and	w1, w1, #0xff
  1e00031e74:	39000401 	strb	w1, [x0, #1]
  1e00031e78:	12001c41 	and	w1, w2, #0xff
  1e00031e7c:	39000801 	strb	w1, [x0, #2]
  1e00031e80:	d3483c41 	ubfx	x1, x2, #8, #8
  1e00031e84:	39000c01 	strb	w1, [x0, #3]
  1e00031e88:	d3505c41 	ubfx	x1, x2, #16, #8
  1e00031e8c:	39001001 	strb	w1, [x0, #4]
  1e00031e90:	53187c42 	lsr	w2, w2, #24
  1e00031e94:	39001402 	strb	w2, [x0, #5]
  1e00031e98:	528000c0 	mov	w0, #0x6                   	// #6
  1e00031e9c:	d65f03c0 	ret

0000001e00031ea0 <dma_configure>:
  1e00031ea0:	35000600 	cbnz	w0, 1e00031f60 <dma_configure+0xc0>
  1e00031ea4:	a9bd7bfd 	stp	x29, x30, [sp, #-48]!
  1e00031ea8:	52800020 	mov	w0, #0x1                   	// #1
  1e00031eac:	910003fd 	mov	x29, sp
  1e00031eb0:	a90153f3 	stp	x19, x20, [sp, #16]
  1e00031eb4:	aa0103f4 	mov	x20, x1
  1e00031eb8:	f90013f5 	str	x21, [sp, #32]
  1e00031ebc:	f0000095 	adrp	x21, 1e00044000 <__STACKS_START__+0x3bc0>
  1e00031ec0:	913282b3 	add	x19, x21, #0xca0
  1e00031ec4:	b9004260 	str	w0, [x19, #64]
  1e00031ec8:	f9400020 	ldr	x0, [x1]
  1e00031ecc:	f278081f 	tst	x0, #0x700
  1e00031ed0:	540000c0 	b.eq	1e00031ee8 <dma_configure+0x48>  // b.none
  1e00031ed4:	12800580 	mov	w0, #0xffffffd3            	// #-45
  1e00031ed8:	a94153f3 	ldp	x19, x20, [sp, #16]
  1e00031edc:	f94013f5 	ldr	x21, [sp, #32]
  1e00031ee0:	a8c37bfd 	ldp	x29, x30, [sp], #48
  1e00031ee4:	d65f03c0 	ret
  1e00031ee8:	52800001 	mov	w1, #0x0                   	// #0
  1e00031eec:	d2800902 	mov	x2, #0x48                  	// #72
  1e00031ef0:	f0000080 	adrp	x0, 1e00044000 <__STACKS_START__+0x3bc0>
  1e00031ef4:	9133a000 	add	x0, x0, #0xce8
  1e00031ef8:	94002924 	bl	1e0003c388 <memset>
  1e00031efc:	f9400280 	ldr	x0, [x20]
  1e00031f00:	53082800 	ubfx	w0, w0, #8, #3
  1e00031f04:	b9001e60 	str	w0, [x19, #28]
  1e00031f08:	f9400a80 	ldr	x0, [x20, #16]
  1e00031f0c:	f9401401 	ldr	x1, [x0, #40]
  1e00031f10:	53041421 	ubfx	w1, w1, #4, #2
  1e00031f14:	b9001a61 	str	w1, [x19, #24]
  1e00031f18:	f9400001 	ldr	x1, [x0]
  1e00031f1c:	f90652a1 	str	x1, [x21, #3232]
  1e00031f20:	f9400401 	ldr	x1, [x0, #8]
  1e00031f24:	f9000a61 	str	x1, [x19, #16]
  1e00031f28:	b9401c01 	ldr	w1, [x0, #28]
  1e00031f2c:	b9002261 	str	w1, [x19, #32]
  1e00031f30:	f9401281 	ldr	x1, [x20, #32]
  1e00031f34:	f9001a61 	str	x1, [x19, #48]
  1e00031f38:	f9400e81 	ldr	x1, [x20, #24]
  1e00031f3c:	f9001661 	str	x1, [x19, #40]
  1e00031f40:	79405001 	ldrh	w1, [x0, #40]
  1e00031f44:	f9401400 	ldr	x0, [x0, #40]
  1e00031f48:	3717fc61 	tbnz	w1, #2, 1e00031ed4 <dma_configure+0x34>
  1e00031f4c:	53020c00 	ubfx	w0, w0, #2, #2
  1e00031f50:	b9000a60 	str	w0, [x19, #8]
  1e00031f54:	3727fc01 	tbnz	w1, #4, 1e00031ed4 <dma_configure+0x34>
  1e00031f58:	52800000 	mov	w0, #0x0                   	// #0
  1e00031f5c:	17ffffdf 	b	1e00031ed8 <dma_configure+0x38>
  1e00031f60:	128002a0 	mov	w0, #0xffffffea            	// #-22
  1e00031f64:	d65f03c0 	ret

0000001e00031f68 <dma_start>:
  1e00031f68:	35002160 	cbnz	w0, 1e00032394 <dma_start+0x42c>
  1e00031f6c:	d2be0580 	mov	x0, #0xf02c0000            	// #4029415424
  1e00031f70:	a9be7bfd 	stp	x29, x30, [sp, #-32]!
  1e00031f74:	f2c003e0 	movk	x0, #0x1f, lsl #32
  1e00031f78:	910003fd 	mov	x29, sp
  1e00031f7c:	b9402001 	ldr	w1, [x0, #32]
  1e00031f80:	52800027 	mov	w7, #0x1                   	// #1
  1e00031f84:	f9000bf3 	str	x19, [sp, #16]
  1e00031f88:	32000021 	orr	w1, w1, #0x1
  1e00031f8c:	b9002001 	str	w1, [x0, #32]
  1e00031f90:	f0000081 	adrp	x1, 1e00044000 <__STACKS_START__+0x3bc0>
  1e00031f94:	91328033 	add	x19, x1, #0xca0
  1e00031f98:	d1427c00 	sub	x0, x0, #0x9f, lsl #12
  1e00031f9c:	f9465022 	ldr	x2, [x1, #3232]
  1e00031fa0:	d1339000 	sub	x0, x0, #0xce4
  1e00031fa4:	f9400a65 	ldr	x5, [x19, #16]
  1e00031fa8:	d3609c41 	ubfx	x1, x2, #32, #8
  1e00031fac:	b9402263 	ldr	w3, [x19, #32]
  1e00031fb0:	d350fca4 	lsr	x4, x5, #16
  1e00031fb4:	12101c84 	and	w4, w4, #0xff0000
  1e00031fb8:	2a040021 	orr	w1, w1, w4
  1e00031fbc:	b9000001 	str	w1, [x0]
  1e00031fc0:	320083e1 	mov	w1, #0x10001               	// #65537
  1e00031fc4:	b9007001 	str	w1, [x0, #112]
  1e00031fc8:	b81ec01f 	stur	wzr, [x0, #-20]
  1e00031fcc:	52802024 	mov	w4, #0x101                 	// #257
  1e00031fd0:	b9006c01 	str	w1, [x0, #108]
  1e00031fd4:	b9001004 	str	w4, [x0, #16]
  1e00031fd8:	52800084 	mov	w4, #0x4                   	// #4
  1e00031fdc:	b9008001 	str	w1, [x0, #128]
  1e00031fe0:	aa0200a1 	orr	x1, x5, x2
  1e00031fe4:	2a0303e0 	mov	w0, w3
  1e00031fe8:	aa000021 	orr	x1, x1, x0
  1e00031fec:	1ac420e6 	lsl	w6, w7, w4
  1e00031ff0:	510004c0 	sub	w0, w6, #0x1
  1e00031ff4:	93407c00 	sxtw	x0, w0
  1e00031ff8:	ea00003f 	tst	x1, x0
  1e00031ffc:	540018a1 	b.ne	1e00032310 <dma_start+0x3a8>  // b.any
  1e00032000:	52800200 	mov	w0, #0x10                  	// #16
  1e00032004:	528001e1 	mov	w1, #0xf                   	// #15
  1e00032008:	1ac62000 	lsl	w0, w0, w6
  1e0003200c:	51000400 	sub	w0, w0, #0x1
  1e00032010:	6a03001f 	tst	w0, w3
  1e00032014:	54000100 	b.eq	1e00032034 <dma_start+0xcc>  // b.none
  1e00032018:	2a0103e0 	mov	w0, w1
  1e0003201c:	71000421 	subs	w1, w1, #0x1
  1e00032020:	540000a0 	b.eq	1e00032034 <dma_start+0xcc>  // b.none
  1e00032024:	1ac62000 	lsl	w0, w0, w6
  1e00032028:	1ac00867 	udiv	w7, w3, w0
  1e0003202c:	1b008ce0 	msub	w0, w7, w0, w3
  1e00032030:	35ffff40 	cbnz	w0, 1e00032018 <dma_start+0xb0>
  1e00032034:	52a00020 	mov	w0, #0x10000               	// #65536
  1e00032038:	290b0664 	stp	w4, w1, [x19, #88]
  1e0003203c:	1ac42000 	lsl	w0, w0, w4
  1e00032040:	290c0664 	stp	w4, w1, [x19, #96]
  1e00032044:	a9049662 	stp	x2, x5, [x19, #72]
  1e00032048:	1b000020 	madd	w0, w1, w0, w0
  1e0003204c:	b9400a61 	ldr	w1, [x19, #8]
  1e00032050:	6b03001f 	cmp	w0, w3
  1e00032054:	1a839000 	csel	w0, w0, w3, ls	// ls = plast
  1e00032058:	b9006a60 	str	w0, [x19, #104]
  1e0003205c:	52800020 	mov	w0, #0x1                   	// #1
  1e00032060:	b9008e60 	str	w0, [x19, #140]
  1e00032064:	35000041 	cbnz	w1, 1e0003206c <dma_start+0x104>
  1e00032068:	b9008a60 	str	w0, [x19, #136]
  1e0003206c:	b9401a60 	ldr	w0, [x19, #24]
  1e00032070:	35000060 	cbnz	w0, 1e0003207c <dma_start+0x114>
  1e00032074:	52800020 	mov	w0, #0x1                   	// #1
  1e00032078:	b9008660 	str	w0, [x19, #132]
  1e0003207c:	f9401e64 	ldr	x4, [x19, #56]
  1e00032080:	52800001 	mov	w1, #0x0                   	// #0
  1e00032084:	aa0403e0 	mov	x0, x4
  1e00032088:	97ffff78 	bl	1e00031e68 <dma_pl330_gen_mov>
  1e0003208c:	b9405262 	ldr	w2, [x19, #80]
  1e00032090:	2a0003e5 	mov	w5, w0
  1e00032094:	52800041 	mov	w1, #0x2                   	// #2
  1e00032098:	8b204080 	add	x0, x4, w0, uxtw
  1e0003209c:	97ffff73 	bl	1e00031e68 <dma_pl330_gen_mov>
  1e000320a0:	b9408e67 	ldr	w7, [x19, #140]
  1e000320a4:	29508e62 	ldp	w2, w3, [x19, #132]
  1e000320a8:	710000ff 	cmp	w7, #0x0
  1e000320ac:	b9406661 	ldr	w1, [x19, #100]
  1e000320b0:	0b0000a6 	add	w6, w5, w0
  1e000320b4:	0b0000a0 	add	w0, w5, w0
  1e000320b8:	53124442 	lsl	w2, w2, #14
  1e000320bc:	8b040000 	add	x0, x0, x4
  1e000320c0:	0b014841 	add	w1, w2, w1, lsl #18
  1e000320c4:	b9405e62 	ldr	w2, [x19, #92]
  1e000320c8:	0b021062 	add	w2, w3, w2, lsl #4
  1e000320cc:	0b020021 	add	w1, w1, w2
  1e000320d0:	294f8a63 	ldp	w3, w2, [x19, #124]
  1e000320d4:	53070842 	ubfiz	w2, w2, #25, #3
  1e000320d8:	53150863 	ubfiz	w3, w3, #11, #3
  1e000320dc:	0b075c42 	add	w2, w2, w7, lsl #23
  1e000320e0:	0b020021 	add	w1, w1, w2
  1e000320e4:	b9406262 	ldr	w2, [x19, #96]
  1e000320e8:	0b023c62 	add	w2, w3, w2, lsl #15
  1e000320ec:	b9405a63 	ldr	w3, [x19, #88]
  1e000320f0:	0b020021 	add	w1, w1, w2
  1e000320f4:	1a9f07e2 	cset	w2, ne	// ne = any
  1e000320f8:	531f7863 	lsl	w3, w3, #1
  1e000320fc:	0b022462 	add	w2, w3, w2, lsl #9
  1e00032100:	0b020022 	add	w2, w1, w2
  1e00032104:	52800021 	mov	w1, #0x1                   	// #1
  1e00032108:	97ffff58 	bl	1e00031e68 <dma_pl330_gen_mov>
  1e0003210c:	0b0000c5 	add	w5, w6, w0
  1e00032110:	294b1a60 	ldp	w0, w6, [x19, #88]
  1e00032114:	b9406a61 	ldr	w1, [x19, #104]
  1e00032118:	110004c6 	add	w6, w6, #0x1
  1e0003211c:	1ac020c6 	lsl	w6, w6, w0
  1e00032120:	1ac60820 	udiv	w0, w1, w6
  1e00032124:	1b068406 	msub	w6, w0, w6, w1
  1e00032128:	7103fc1f 	cmp	w0, #0xff
  1e0003212c:	540004c9 	b.ls	1e000321c4 <dma_start+0x25c>  // b.plast
  1e00032130:	2a0503e1 	mov	w1, w5
  1e00032134:	8b254082 	add	x2, x4, w5, uxtw
  1e00032138:	52800443 	mov	w3, #0x22                  	// #34
  1e0003213c:	52800088 	mov	w8, #0x4                   	// #4
  1e00032140:	38246823 	strb	w3, [x1, x4]
  1e00032144:	53087c01 	lsr	w1, w0, #8
  1e00032148:	51000421 	sub	w1, w1, #0x1
  1e0003214c:	52800403 	mov	w3, #0x20                  	// #32
  1e00032150:	12001c21 	and	w1, w1, #0xff
  1e00032154:	39000441 	strb	w1, [x2, #1]
  1e00032158:	110008a1 	add	w1, w5, #0x2
  1e0003215c:	8b040022 	add	x2, x1, x4
  1e00032160:	38246823 	strb	w3, [x1, x4]
  1e00032164:	12800001 	mov	w1, #0xffffffff            	// #-1
  1e00032168:	39000441 	strb	w1, [x2, #1]
  1e0003216c:	110010a2 	add	w2, w5, #0x4
  1e00032170:	8b040047 	add	x7, x2, x4
  1e00032174:	38246848 	strb	w8, [x2, x4]
  1e00032178:	52800102 	mov	w2, #0x8                   	// #8
  1e0003217c:	390004e2 	strb	w2, [x7, #1]
  1e00032180:	110018a2 	add	w2, w5, #0x6
  1e00032184:	8b040047 	add	x7, x2, x4
  1e00032188:	52800708 	mov	w8, #0x38                  	// #56
  1e0003218c:	38246848 	strb	w8, [x2, x4]
  1e00032190:	52800042 	mov	w2, #0x2                   	// #2
  1e00032194:	390004e2 	strb	w2, [x7, #1]
  1e00032198:	110020a2 	add	w2, w5, #0x8
  1e0003219c:	8b040047 	add	x7, x2, x4
  1e000321a0:	38246843 	strb	w3, [x2, x4]
  1e000321a4:	52800783 	mov	w3, #0x3c                  	// #60
  1e000321a8:	390004e1 	strb	w1, [x7, #1]
  1e000321ac:	110028a1 	add	w1, w5, #0xa
  1e000321b0:	8b040022 	add	x2, x1, x4
  1e000321b4:	110030a5 	add	w5, w5, #0xc
  1e000321b8:	38246823 	strb	w3, [x1, x4]
  1e000321bc:	528000c1 	mov	w1, #0x6                   	// #6
  1e000321c0:	39000441 	strb	w1, [x2, #1]
  1e000321c4:	72001c1f 	tst	w0, #0xff
  1e000321c8:	540002a0 	b.eq	1e0003221c <dma_start+0x2b4>  // b.none
  1e000321cc:	2a0503e2 	mov	w2, w5
  1e000321d0:	8b254081 	add	x1, x4, w5, uxtw
  1e000321d4:	51000400 	sub	w0, w0, #0x1
  1e000321d8:	52800403 	mov	w3, #0x20                  	// #32
  1e000321dc:	12001c00 	and	w0, w0, #0xff
  1e000321e0:	38246843 	strb	w3, [x2, x4]
  1e000321e4:	52800082 	mov	w2, #0x4                   	// #4
  1e000321e8:	39000420 	strb	w0, [x1, #1]
  1e000321ec:	110008a0 	add	w0, w5, #0x2
  1e000321f0:	8b040001 	add	x1, x0, x4
  1e000321f4:	38246802 	strb	w2, [x0, x4]
  1e000321f8:	52800100 	mov	w0, #0x8                   	// #8
  1e000321fc:	39000420 	strb	w0, [x1, #1]
  1e00032200:	110010a0 	add	w0, w5, #0x4
  1e00032204:	8b040001 	add	x1, x0, x4
  1e00032208:	52800702 	mov	w2, #0x38                  	// #56
  1e0003220c:	110018a5 	add	w5, w5, #0x6
  1e00032210:	38246802 	strb	w2, [x0, x4]
  1e00032214:	52800040 	mov	w0, #0x2                   	// #2
  1e00032218:	39000420 	strb	w0, [x1, #1]
  1e0003221c:	34000406 	cbz	w6, 1e0003229c <dma_start+0x334>
  1e00032220:	b9408660 	ldr	w0, [x19, #132]
  1e00032224:	52800021 	mov	w1, #0x1                   	// #1
  1e00032228:	b9408e62 	ldr	w2, [x19, #140]
  1e0003222c:	510004c6 	sub	w6, w6, #0x1
  1e00032230:	12001cc6 	and	w6, w6, #0xff
  1e00032234:	53124400 	lsl	w0, w0, #14
  1e00032238:	0b025c02 	add	w2, w0, w2, lsl #23
  1e0003223c:	b9408a60 	ldr	w0, [x19, #136]
  1e00032240:	11080000 	add	w0, w0, #0x200
  1e00032244:	0b000042 	add	w2, w2, w0
  1e00032248:	8b254080 	add	x0, x4, w5, uxtw
  1e0003224c:	97ffff07 	bl	1e00031e68 <dma_pl330_gen_mov>
  1e00032250:	0b0000a1 	add	w1, w5, w0
  1e00032254:	0b0000a0 	add	w0, w5, w0
  1e00032258:	52800403 	mov	w3, #0x20                  	// #32
  1e0003225c:	8b040002 	add	x2, x0, x4
  1e00032260:	11001825 	add	w5, w1, #0x6
  1e00032264:	38246803 	strb	w3, [x0, x4]
  1e00032268:	11000820 	add	w0, w1, #0x2
  1e0003226c:	39000446 	strb	w6, [x2, #1]
  1e00032270:	8b040002 	add	x2, x0, x4
  1e00032274:	52800083 	mov	w3, #0x4                   	// #4
  1e00032278:	38246803 	strb	w3, [x0, x4]
  1e0003227c:	52800100 	mov	w0, #0x8                   	// #8
  1e00032280:	39000440 	strb	w0, [x2, #1]
  1e00032284:	11001020 	add	w0, w1, #0x4
  1e00032288:	8b040002 	add	x2, x0, x4
  1e0003228c:	52800703 	mov	w3, #0x38                  	// #56
  1e00032290:	38246803 	strb	w3, [x0, x4]
  1e00032294:	52800040 	mov	w0, #0x2                   	// #2
  1e00032298:	39000440 	strb	w0, [x2, #1]
  1e0003229c:	f9401a60 	ldr	x0, [x19, #48]
  1e000322a0:	b40000e0 	cbz	x0, 1e000322bc <dma_start+0x354>
  1e000322a4:	2a0503e1 	mov	w1, w5
  1e000322a8:	8b254080 	add	x0, x4, w5, uxtw
  1e000322ac:	52800682 	mov	w2, #0x34                  	// #52
  1e000322b0:	110008a5 	add	w5, w5, #0x2
  1e000322b4:	38246822 	strb	w2, [x1, x4]
  1e000322b8:	3900041f 	strb	wzr, [x0, #1]
  1e000322bc:	2a0503e0 	mov	w0, w5
  1e000322c0:	8b254085 	add	x5, x4, w5, uxtw
  1e000322c4:	529c2022 	mov	w2, #0xe101                	// #57601
  1e000322c8:	d2be0581 	mov	x1, #0xf02c0000            	// #4029415424
  1e000322cc:	72a0bea2 	movk	w2, #0x5f5, lsl #16
  1e000322d0:	f2c003e1 	movk	x1, #0x1f, lsl #32
  1e000322d4:	3824681f 	strb	wzr, [x0, x4]
  1e000322d8:	390004bf 	strb	wzr, [x5, #1]
  1e000322dc:	390008bf 	strb	wzr, [x5, #2]
  1e000322e0:	39000cbf 	strb	wzr, [x5, #3]
  1e000322e4:	b9408e60 	ldr	w0, [x19, #140]
  1e000322e8:	b94d0023 	ldr	w3, [x1, #3328]
  1e000322ec:	71000442 	subs	w2, w2, #0x1
  1e000322f0:	54000141 	b.ne	1e00032318 <dma_start+0x3b0>  // b.any
  1e000322f4:	f0000041 	adrp	x1, 1e0003d000 <CSWTCH.192+0x80c>
  1e000322f8:	d0000040 	adrp	x0, 1e0003c000 <vsnprintf+0x270>
  1e000322fc:	91261021 	add	x1, x1, #0x984
  1e00032300:	912fd400 	add	x0, x0, #0xbf5
  1e00032304:	97fffeac 	bl	1e00031db4 <tf_log>
  1e00032308:	12800760 	mov	w0, #0xffffffc4            	// #-60
  1e0003230c:	1400001e 	b	1e00032384 <dma_start+0x41c>
  1e00032310:	51000484 	sub	w4, w4, #0x1
  1e00032314:	17ffff36 	b	1e00031fec <dma_start+0x84>
  1e00032318:	f2400c7f 	tst	x3, #0xf
  1e0003231c:	54fffe61 	b.ne	1e000322e8 <dma_start+0x380>  // b.any
  1e00032320:	530f3800 	lsl	w0, w0, #17
  1e00032324:	d2be0582 	mov	x2, #0xf02c0000            	// #4029415424
  1e00032328:	11680000 	add	w0, w0, #0xa00, lsl #12
  1e0003232c:	b90d0820 	str	w0, [x1, #3336]
  1e00032330:	f2c003e2 	movk	x2, #0x1f, lsl #32
  1e00032334:	f9401e60 	ldr	x0, [x19, #56]
  1e00032338:	b90d0c20 	str	w0, [x1, #3340]
  1e0003233c:	529c2020 	mov	w0, #0xe101                	// #57601
  1e00032340:	b90d043f 	str	wzr, [x1, #3332]
  1e00032344:	72a0bea0 	movk	w0, #0x5f5, lsl #16
  1e00032348:	b94d0441 	ldr	w1, [x2, #3332]
  1e0003234c:	71000400 	subs	w0, w0, #0x1
  1e00032350:	54fffd20 	b.eq	1e000322f4 <dma_start+0x38c>  // b.none
  1e00032354:	f2400c3f 	tst	x1, #0xf
  1e00032358:	54ffff81 	b.ne	1e00032348 <dma_start+0x3e0>  // b.any
  1e0003235c:	529c2020 	mov	w0, #0xe101                	// #57601
  1e00032360:	d2be0582 	mov	x2, #0xf02c0000            	// #4029415424
  1e00032364:	72a0bea0 	movk	w0, #0x5f5, lsl #16
  1e00032368:	f2c003e2 	movk	x2, #0x1f, lsl #32
  1e0003236c:	71000400 	subs	w0, w0, #0x1
  1e00032370:	54000160 	b.eq	1e0003239c <dma_start+0x434>  // b.none
  1e00032374:	b9410041 	ldr	w1, [x2, #256]
  1e00032378:	f2400c3f 	tst	x1, #0xf
  1e0003237c:	54ffff81 	b.ne	1e0003236c <dma_start+0x404>  // b.any
  1e00032380:	52800000 	mov	w0, #0x0                   	// #0
  1e00032384:	b900427f 	str	wzr, [x19, #64]
  1e00032388:	f9400bf3 	ldr	x19, [sp, #16]
  1e0003238c:	a8c27bfd 	ldp	x29, x30, [sp], #32
  1e00032390:	d65f03c0 	ret
  1e00032394:	128002a0 	mov	w0, #0xffffffea            	// #-22
  1e00032398:	d65f03c0 	ret
  1e0003239c:	f0000041 	adrp	x1, 1e0003d000 <CSWTCH.192+0x80c>
  1e000323a0:	d0000040 	adrp	x0, 1e0003c000 <vsnprintf+0x270>
  1e000323a4:	91261021 	add	x1, x1, #0x984
  1e000323a8:	91305c00 	add	x0, x0, #0xc17
  1e000323ac:	17ffffd6 	b	1e00032304 <dma_start+0x39c>

0000001e000323b0 <dma_init>:
  1e000323b0:	d0000081 	adrp	x1, 1e00044000 <__STACKS_START__+0x3bc0>
  1e000323b4:	91110021 	add	x1, x1, #0x440
  1e000323b8:	925f1803 	and	x3, x0, #0xfe00000000
  1e000323bc:	92407c21 	and	x1, x1, #0xffffffff
  1e000323c0:	92601c00 	and	x0, x0, #0xff00000000
  1e000323c4:	b2642021 	orr	x1, x1, #0x1ff0000000
  1e000323c8:	d2c003c2 	mov	x2, #0x1e00000000          	// #128849018880
  1e000323cc:	b2630400 	orr	x0, x0, #0x60000000
  1e000323d0:	eb02007f 	cmp	x3, x2
  1e000323d4:	9a811000 	csel	x0, x0, x1, ne	// ne = any
  1e000323d8:	d0000081 	adrp	x1, 1e00044000 <__STACKS_START__+0x3bc0>
  1e000323dc:	f9066c20 	str	x0, [x1, #3288]
  1e000323e0:	52800000 	mov	w0, #0x0                   	// #0
  1e000323e4:	d65f03c0 	ret

0000001e000323e8 <dma_load_image>:
  1e000323e8:	a9b57bfd 	stp	x29, x30, [sp, #-176]!
  1e000323ec:	910003fd 	mov	x29, sp
  1e000323f0:	a90153f3 	stp	x19, x20, [sp, #16]
  1e000323f4:	aa0103f3 	mov	x19, x1
  1e000323f8:	a9025bf5 	stp	x21, x22, [sp, #32]
  1e000323fc:	aa0003f5 	mov	x21, x0
  1e00032400:	2a0203f6 	mov	w22, w2
  1e00032404:	a90363f7 	stp	x23, x24, [sp, #48]
  1e00032408:	f90023f9 	str	x25, [sp, #64]
  1e0003240c:	a9087fff 	stp	xzr, xzr, [sp, #128]
  1e00032410:	a9097fff 	stp	xzr, xzr, [sp, #144]
  1e00032414:	a90a7fff 	stp	xzr, xzr, [sp, #160]
  1e00032418:	d53be020 	mrs	x0, cntpct_el0
  1e0003241c:	aa0103e0 	mov	x0, x1
  1e00032420:	97ffffe4 	bl	1e000323b0 <dma_init>
  1e00032424:	320d83e0 	mov	w0, #0x80008               	// #524296
  1e00032428:	aa1303f4 	mov	x20, x19
  1e0003242c:	2a1603e5 	mov	w5, w22
  1e00032430:	cb1302b8 	sub	x24, x21, x19
  1e00032434:	f9002fff 	str	xzr, [sp, #88]
  1e00032438:	12bfff99 	mov	w25, #0x3ffff               	// #262143
  1e0003243c:	b9005fe0 	str	w0, [sp, #92]
  1e00032440:	910203e0 	add	x0, sp, #0x80
  1e00032444:	f90033ff 	str	xzr, [sp, #96]
  1e00032448:	f90037e0 	str	x0, [sp, #104]
  1e0003244c:	a9077fff 	stp	xzr, xzr, [sp, #112]
  1e00032450:	8b140300 	add	x0, x24, x20
  1e00032454:	35000105 	cbnz	w5, 1e00032474 <dma_load_image+0x8c>
  1e00032458:	d53be020 	mrs	x0, cntpct_el0
  1e0003245c:	a94153f3 	ldp	x19, x20, [sp, #16]
  1e00032460:	a9425bf5 	ldp	x21, x22, [sp, #32]
  1e00032464:	a94363f7 	ldp	x23, x24, [sp, #48]
  1e00032468:	f94023f9 	ldr	x25, [sp, #64]
  1e0003246c:	a8cb7bfd 	ldp	x29, x30, [sp], #176
  1e00032470:	d65f03c0 	ret
  1e00032474:	6b1900bf 	cmp	w5, w25
  1e00032478:	54000269 	b.ls	1e000324c4 <dma_load_image+0xdc>  // b.plast
  1e0003247c:	514100b7 	sub	w23, w5, #0x40, lsl #12
  1e00032480:	52a00085 	mov	w5, #0x40000               	// #262144
  1e00032484:	910163e1 	add	x1, sp, #0x58
  1e00032488:	a90803f4 	stp	x20, x0, [sp, #128]
  1e0003248c:	52800000 	mov	w0, #0x0                   	// #0
  1e00032490:	b9009fe5 	str	w5, [sp, #156]
  1e00032494:	97fffe83 	bl	1e00031ea0 <dma_configure>
  1e00032498:	52800000 	mov	w0, #0x0                   	// #0
  1e0003249c:	97fffeb3 	bl	1e00031f68 <dma_start>
  1e000324a0:	2a0003e1 	mov	w1, w0
  1e000324a4:	34000140 	cbz	w0, 1e000324cc <dma_load_image+0xe4>
  1e000324a8:	2a1603e4 	mov	w4, w22
  1e000324ac:	aa1503e3 	mov	x3, x21
  1e000324b0:	aa1303e2 	mov	x2, x19
  1e000324b4:	d0000040 	adrp	x0, 1e0003c000 <vsnprintf+0x270>
  1e000324b8:	9130e000 	add	x0, x0, #0xc38
  1e000324bc:	97fffe3e 	bl	1e00031db4 <tf_log>
  1e000324c0:	94002450 	bl	1e0003b600 <__assert>
  1e000324c4:	52800017 	mov	w23, #0x0                   	// #0
  1e000324c8:	17ffffef 	b	1e00032484 <dma_load_image+0x9c>
  1e000324cc:	91410294 	add	x20, x20, #0x40, lsl #12
  1e000324d0:	2a1703e5 	mov	w5, w23
  1e000324d4:	17ffffdf 	b	1e00032450 <dma_load_image+0x68>

0000001e000324d8 <cmu_find_pll_lvl>:
  1e000324d8:	d2800002 	mov	x2, #0x0                   	// #0
  1e000324dc:	d2800283 	mov	x3, #0x14                  	// #20
  1e000324e0:	9b037c44 	mul	x4, x2, x3
  1e000324e4:	b8646804 	ldr	w4, [x0, x4]
  1e000324e8:	6b01009f 	cmp	w4, w1
  1e000324ec:	540000c0 	b.eq	1e00032504 <cmu_find_pll_lvl+0x2c>  // b.none
  1e000324f0:	91000442 	add	x2, x2, #0x1
  1e000324f4:	f100285f 	cmp	x2, #0xa
  1e000324f8:	54ffff41 	b.ne	1e000324e0 <cmu_find_pll_lvl+0x8>  // b.any
  1e000324fc:	12800580 	mov	w0, #0xffffffd3            	// #-45
  1e00032500:	d65f03c0 	ret
  1e00032504:	2a0203e0 	mov	w0, w2
  1e00032508:	17fffffe 	b	1e00032500 <cmu_find_pll_lvl+0x28>

0000001e0003250c <cmu_blk_cp_init>:
  1e0003250c:	b9400001 	ldr	w1, [x0]
  1e00032510:	52803e82 	mov	w2, #0x1f4                 	// #500
  1e00032514:	52800c83 	mov	w3, #0x64                  	// #100
  1e00032518:	33004c41 	bfxil	w1, w2, #0, #20
  1e0003251c:	b9000001 	str	w1, [x0]
  1e00032520:	52800022 	mov	w2, #0x1                   	// #1
  1e00032524:	b9410c01 	ldr	w1, [x0, #268]
  1e00032528:	12103c21 	and	w1, w1, #0xffff0000
  1e0003252c:	b9010c01 	str	w1, [x0, #268]
  1e00032530:	b9410001 	ldr	w1, [x0, #256]
  1e00032534:	33181441 	bfi	w1, w2, #8, #6
  1e00032538:	b9010001 	str	w1, [x0, #256]
  1e0003253c:	b9410001 	ldr	w1, [x0, #256]
  1e00032540:	33102461 	bfi	w1, w3, #16, #10
  1e00032544:	b9010001 	str	w1, [x0, #256]
  1e00032548:	b9410001 	ldr	w1, [x0, #256]
  1e0003254c:	33000841 	bfxil	w1, w2, #0, #3
  1e00032550:	b9010001 	str	w1, [x0, #256]
  1e00032554:	b9410001 	ldr	w1, [x0, #256]
  1e00032558:	32010021 	orr	w1, w1, #0x80000000
  1e0003255c:	b9010001 	str	w1, [x0, #256]
  1e00032560:	b9410001 	ldr	w1, [x0, #256]
  1e00032564:	36efffe1 	tbz	w1, #29, 1e00032560 <cmu_blk_cp_init+0x54>
  1e00032568:	b9400401 	ldr	w1, [x0, #4]
  1e0003256c:	52807d02 	mov	w2, #0x3e8                 	// #1000
  1e00032570:	33004c41 	bfxil	w1, w2, #0, #20
  1e00032574:	b9000401 	str	w1, [x0, #4]
  1e00032578:	52800042 	mov	w2, #0x2                   	// #2
  1e0003257c:	b9412001 	ldr	w1, [x0, #288]
  1e00032580:	12103c21 	and	w1, w1, #0xffff0000
  1e00032584:	b9012001 	str	w1, [x0, #288]
  1e00032588:	b9411401 	ldr	w1, [x0, #276]
  1e0003258c:	33181441 	bfi	w1, w2, #8, #6
  1e00032590:	b9011401 	str	w1, [x0, #276]
  1e00032594:	52800e62 	mov	w2, #0x73                  	// #115
  1e00032598:	b9411401 	ldr	w1, [x0, #276]
  1e0003259c:	33102441 	bfi	w1, w2, #16, #10
  1e000325a0:	b9011401 	str	w1, [x0, #276]
  1e000325a4:	b9411401 	ldr	w1, [x0, #276]
  1e000325a8:	121d7021 	and	w1, w1, #0xfffffff8
  1e000325ac:	b9011401 	str	w1, [x0, #276]
  1e000325b0:	b9411401 	ldr	w1, [x0, #276]
  1e000325b4:	32010021 	orr	w1, w1, #0x80000000
  1e000325b8:	b9011401 	str	w1, [x0, #276]
  1e000325bc:	b9411401 	ldr	w1, [x0, #276]
  1e000325c0:	36efffe1 	tbz	w1, #29, 1e000325bc <cmu_blk_cp_init+0xb0>
  1e000325c4:	b9580001 	ldr	w1, [x0, #6144]
  1e000325c8:	52800022 	mov	w2, #0x1                   	// #1
  1e000325cc:	33000c41 	bfxil	w1, w2, #0, #4
  1e000325d0:	b9180001 	str	w1, [x0, #6144]
  1e000325d4:	52800061 	mov	w1, #0x3                   	// #3
  1e000325d8:	b9570003 	ldr	w3, [x0, #5888]
  1e000325dc:	33000c23 	bfxil	w3, w1, #0, #4
  1e000325e0:	b9170003 	str	w3, [x0, #5888]
  1e000325e4:	b9580403 	ldr	w3, [x0, #6148]
  1e000325e8:	121c6c63 	and	w3, w3, #0xfffffff0
  1e000325ec:	b9180403 	str	w3, [x0, #6148]
  1e000325f0:	b9570403 	ldr	w3, [x0, #5892]
  1e000325f4:	33000c43 	bfxil	w3, w2, #0, #4
  1e000325f8:	b9170403 	str	w3, [x0, #5892]
  1e000325fc:	b9580803 	ldr	w3, [x0, #6152]
  1e00032600:	33000c43 	bfxil	w3, w2, #0, #4
  1e00032604:	b9180803 	str	w3, [x0, #6152]
  1e00032608:	b9570802 	ldr	w2, [x0, #5896]
  1e0003260c:	33000c22 	bfxil	w2, w1, #0, #4
  1e00032610:	b9170802 	str	w2, [x0, #5896]
  1e00032614:	b9581402 	ldr	w2, [x0, #6164]
  1e00032618:	33000c22 	bfxil	w2, w1, #0, #4
  1e0003261c:	b9181402 	str	w2, [x0, #6164]
  1e00032620:	528000e2 	mov	w2, #0x7                   	// #7
  1e00032624:	b9571003 	ldr	w3, [x0, #5904]
  1e00032628:	33000c43 	bfxil	w3, w2, #0, #4
  1e0003262c:	b9171003 	str	w3, [x0, #5904]
  1e00032630:	b9580c03 	ldr	w3, [x0, #6156]
  1e00032634:	33000c23 	bfxil	w3, w1, #0, #4
  1e00032638:	b9180c03 	str	w3, [x0, #6156]
  1e0003263c:	b9570c01 	ldr	w1, [x0, #5900]
  1e00032640:	33000c41 	bfxil	w1, w2, #0, #4
  1e00032644:	b9170c01 	str	w1, [x0, #5900]
  1e00032648:	52800082 	mov	w2, #0x4                   	// #4
  1e0003264c:	b9581801 	ldr	w1, [x0, #6168]
  1e00032650:	121a6421 	and	w1, w1, #0xffffffc0
  1e00032654:	b9181801 	str	w1, [x0, #6168]
  1e00032658:	b9581001 	ldr	w1, [x0, #6160]
  1e0003265c:	33000c41 	bfxil	w1, w2, #0, #4
  1e00032660:	b9181001 	str	w1, [x0, #6160]
  1e00032664:	b9500001 	ldr	w1, [x0, #4096]
  1e00032668:	121f7821 	and	w1, w1, #0xfffffffe
  1e0003266c:	b9100001 	str	w1, [x0, #4096]
  1e00032670:	b9500001 	ldr	w1, [x0, #4096]
  1e00032674:	3787ffe1 	tbnz	w1, #16, 1e00032670 <cmu_blk_cp_init+0x164>
  1e00032678:	b9500401 	ldr	w1, [x0, #4100]
  1e0003267c:	121f7821 	and	w1, w1, #0xfffffffe
  1e00032680:	b9100401 	str	w1, [x0, #4100]
  1e00032684:	b9500401 	ldr	w1, [x0, #4100]
  1e00032688:	3787ffe1 	tbnz	w1, #16, 1e00032684 <cmu_blk_cp_init+0x178>
  1e0003268c:	b9410001 	ldr	w1, [x0, #256]
  1e00032690:	321c0021 	orr	w1, w1, #0x10
  1e00032694:	b9010001 	str	w1, [x0, #256]
  1e00032698:	b9410001 	ldr	w1, [x0, #256]
  1e0003269c:	373fffe1 	tbnz	w1, #7, 1e00032698 <cmu_blk_cp_init+0x18c>
  1e000326a0:	b9411401 	ldr	w1, [x0, #276]
  1e000326a4:	321c0021 	orr	w1, w1, #0x10
  1e000326a8:	b9011401 	str	w1, [x0, #276]
  1e000326ac:	b9411401 	ldr	w1, [x0, #276]
  1e000326b0:	373fffe1 	tbnz	w1, #7, 1e000326ac <cmu_blk_cp_init+0x1a0>
  1e000326b4:	d65f03c0 	ret

0000001e000326b8 <cmu_blk_pcie_init>:
  1e000326b8:	b9400001 	ldr	w1, [x0]
  1e000326bc:	52803e82 	mov	w2, #0x1f4                 	// #500
  1e000326c0:	52800c83 	mov	w3, #0x64                  	// #100
  1e000326c4:	33004c41 	bfxil	w1, w2, #0, #20
  1e000326c8:	b9000001 	str	w1, [x0]
  1e000326cc:	52800022 	mov	w2, #0x1                   	// #1
  1e000326d0:	b9410c01 	ldr	w1, [x0, #268]
  1e000326d4:	12103c21 	and	w1, w1, #0xffff0000
  1e000326d8:	b9010c01 	str	w1, [x0, #268]
  1e000326dc:	b9410001 	ldr	w1, [x0, #256]
  1e000326e0:	33181441 	bfi	w1, w2, #8, #6
  1e000326e4:	b9010001 	str	w1, [x0, #256]
  1e000326e8:	b9410001 	ldr	w1, [x0, #256]
  1e000326ec:	33102461 	bfi	w1, w3, #16, #10
  1e000326f0:	b9010001 	str	w1, [x0, #256]
  1e000326f4:	b9410001 	ldr	w1, [x0, #256]
  1e000326f8:	33000841 	bfxil	w1, w2, #0, #3
  1e000326fc:	b9010001 	str	w1, [x0, #256]
  1e00032700:	b9410001 	ldr	w1, [x0, #256]
  1e00032704:	32010021 	orr	w1, w1, #0x80000000
  1e00032708:	b9010001 	str	w1, [x0, #256]
  1e0003270c:	b9410001 	ldr	w1, [x0, #256]
  1e00032710:	36efffe1 	tbz	w1, #29, 1e0003270c <cmu_blk_pcie_init+0x54>
  1e00032714:	b9580401 	ldr	w1, [x0, #6148]
  1e00032718:	52800262 	mov	w2, #0x13                  	// #19
  1e0003271c:	33001041 	bfxil	w1, w2, #0, #5
  1e00032720:	b9180401 	str	w1, [x0, #6148]
  1e00032724:	52800022 	mov	w2, #0x1                   	// #1
  1e00032728:	b9580001 	ldr	w1, [x0, #6144]
  1e0003272c:	33000c41 	bfxil	w1, w2, #0, #4
  1e00032730:	b9180001 	str	w1, [x0, #6144]
  1e00032734:	52800062 	mov	w2, #0x3                   	// #3
  1e00032738:	b9580801 	ldr	w1, [x0, #6152]
  1e0003273c:	33000c41 	bfxil	w1, w2, #0, #4
  1e00032740:	b9180801 	str	w1, [x0, #6152]
  1e00032744:	52800122 	mov	w2, #0x9                   	// #9
  1e00032748:	b9583801 	ldr	w1, [x0, #6200]
  1e0003274c:	121a6421 	and	w1, w1, #0xffffffc0
  1e00032750:	b9183801 	str	w1, [x0, #6200]
  1e00032754:	b9581001 	ldr	w1, [x0, #6160]
  1e00032758:	32000c21 	orr	w1, w1, #0xf
  1e0003275c:	b9181001 	str	w1, [x0, #6160]
  1e00032760:	b9581401 	ldr	w1, [x0, #6164]
  1e00032764:	33000c41 	bfxil	w1, w2, #0, #4
  1e00032768:	b9181401 	str	w1, [x0, #6164]
  1e0003276c:	b9500401 	ldr	w1, [x0, #4100]
  1e00032770:	121f7821 	and	w1, w1, #0xfffffffe
  1e00032774:	b9100401 	str	w1, [x0, #4100]
  1e00032778:	b9500401 	ldr	w1, [x0, #4100]
  1e0003277c:	3787ffe1 	tbnz	w1, #16, 1e00032778 <cmu_blk_pcie_init+0xc0>
  1e00032780:	b9500001 	ldr	w1, [x0, #4096]
  1e00032784:	32000021 	orr	w1, w1, #0x1
  1e00032788:	b9100001 	str	w1, [x0, #4096]
  1e0003278c:	b9500001 	ldr	w1, [x0, #4096]
  1e00032790:	3787ffe1 	tbnz	w1, #16, 1e0003278c <cmu_blk_pcie_init+0xd4>
  1e00032794:	b9410001 	ldr	w1, [x0, #256]
  1e00032798:	321c0021 	orr	w1, w1, #0x10
  1e0003279c:	b9010001 	str	w1, [x0, #256]
  1e000327a0:	b9410001 	ldr	w1, [x0, #256]
  1e000327a4:	373fffe1 	tbnz	w1, #7, 1e000327a0 <cmu_blk_pcie_init+0xe8>
  1e000327a8:	d65f03c0 	ret

0000001e000327ac <cmu_blk_rot_init>:
  1e000327ac:	b9400001 	ldr	w1, [x0]
  1e000327b0:	52803e82 	mov	w2, #0x1f4                 	// #500
  1e000327b4:	52800963 	mov	w3, #0x4b                  	// #75
  1e000327b8:	33004c41 	bfxil	w1, w2, #0, #20
  1e000327bc:	b9000001 	str	w1, [x0]
  1e000327c0:	52800022 	mov	w2, #0x1                   	// #1
  1e000327c4:	b9410c01 	ldr	w1, [x0, #268]
  1e000327c8:	12103c21 	and	w1, w1, #0xffff0000
  1e000327cc:	b9010c01 	str	w1, [x0, #268]
  1e000327d0:	b9410001 	ldr	w1, [x0, #256]
  1e000327d4:	33181441 	bfi	w1, w2, #8, #6
  1e000327d8:	b9010001 	str	w1, [x0, #256]
  1e000327dc:	b9410001 	ldr	w1, [x0, #256]
  1e000327e0:	33102461 	bfi	w1, w3, #16, #10
  1e000327e4:	b9010001 	str	w1, [x0, #256]
  1e000327e8:	b9410001 	ldr	w1, [x0, #256]
  1e000327ec:	33000841 	bfxil	w1, w2, #0, #3
  1e000327f0:	b9010001 	str	w1, [x0, #256]
  1e000327f4:	b9410001 	ldr	w1, [x0, #256]
  1e000327f8:	32010021 	orr	w1, w1, #0x80000000
  1e000327fc:	b9010001 	str	w1, [x0, #256]
  1e00032800:	b9410001 	ldr	w1, [x0, #256]
  1e00032804:	36efffe1 	tbz	w1, #29, 1e00032800 <cmu_blk_rot_init+0x54>
  1e00032808:	b9580c01 	ldr	w1, [x0, #6156]
  1e0003280c:	52800062 	mov	w2, #0x3                   	// #3
  1e00032810:	33000c41 	bfxil	w1, w2, #0, #4
  1e00032814:	b9180c01 	str	w1, [x0, #6156]
  1e00032818:	52800022 	mov	w2, #0x1                   	// #1
  1e0003281c:	b9580001 	ldr	w1, [x0, #6144]
  1e00032820:	33000c41 	bfxil	w1, w2, #0, #4
  1e00032824:	b9180001 	str	w1, [x0, #6144]
  1e00032828:	528000c2 	mov	w2, #0x6                   	// #6
  1e0003282c:	b9580801 	ldr	w1, [x0, #6152]
  1e00032830:	33000c41 	bfxil	w1, w2, #0, #4
  1e00032834:	b9180801 	str	w1, [x0, #6152]
  1e00032838:	52800041 	mov	w1, #0x2                   	// #2
  1e0003283c:	b9580402 	ldr	w2, [x0, #6148]
  1e00032840:	33000c22 	bfxil	w2, w1, #0, #4
  1e00032844:	b9180402 	str	w2, [x0, #6148]
  1e00032848:	b9581002 	ldr	w2, [x0, #6160]
  1e0003284c:	121a6442 	and	w2, w2, #0xffffffc0
  1e00032850:	b9181002 	str	w2, [x0, #6160]
  1e00032854:	b9581402 	ldr	w2, [x0, #6164]
  1e00032858:	33000c22 	bfxil	w2, w1, #0, #4
  1e0003285c:	b9181402 	str	w2, [x0, #6164]
  1e00032860:	b9581802 	ldr	w2, [x0, #6168]
  1e00032864:	33000c22 	bfxil	w2, w1, #0, #4
  1e00032868:	b9181802 	str	w2, [x0, #6168]
  1e0003286c:	b9410001 	ldr	w1, [x0, #256]
  1e00032870:	321c0021 	orr	w1, w1, #0x10
  1e00032874:	b9010001 	str	w1, [x0, #256]
  1e00032878:	b9410001 	ldr	w1, [x0, #256]
  1e0003287c:	373fffe1 	tbnz	w1, #7, 1e00032878 <cmu_blk_rot_init+0xcc>
  1e00032880:	d65f03c0 	ret

0000001e00032884 <cmu_blk_peri_init>:
  1e00032884:	b9400001 	ldr	w1, [x0]
  1e00032888:	52803e82 	mov	w2, #0x1f4                 	// #500
  1e0003288c:	33004c41 	bfxil	w1, w2, #0, #20
  1e00032890:	b9000001 	str	w1, [x0]
  1e00032894:	52800022 	mov	w2, #0x1                   	// #1
  1e00032898:	b9410c01 	ldr	w1, [x0, #268]
  1e0003289c:	12103c21 	and	w1, w1, #0xffff0000
  1e000328a0:	b9010c01 	str	w1, [x0, #268]
  1e000328a4:	b9410001 	ldr	w1, [x0, #256]
  1e000328a8:	33181441 	bfi	w1, w2, #8, #6
  1e000328ac:	b9010001 	str	w1, [x0, #256]
  1e000328b0:	52800c82 	mov	w2, #0x64                  	// #100
  1e000328b4:	b9410001 	ldr	w1, [x0, #256]
  1e000328b8:	33102441 	bfi	w1, w2, #16, #10
  1e000328bc:	b9010001 	str	w1, [x0, #256]
  1e000328c0:	52800042 	mov	w2, #0x2                   	// #2
  1e000328c4:	b9410001 	ldr	w1, [x0, #256]
  1e000328c8:	33000841 	bfxil	w1, w2, #0, #3
  1e000328cc:	b9010001 	str	w1, [x0, #256]
  1e000328d0:	b9410001 	ldr	w1, [x0, #256]
  1e000328d4:	32010021 	orr	w1, w1, #0x80000000
  1e000328d8:	b9010001 	str	w1, [x0, #256]
  1e000328dc:	b9410001 	ldr	w1, [x0, #256]
  1e000328e0:	36efffe1 	tbz	w1, #29, 1e000328dc <cmu_blk_peri_init+0x58>
  1e000328e4:	b9580001 	ldr	w1, [x0, #6144]
  1e000328e8:	52800062 	mov	w2, #0x3                   	// #3
  1e000328ec:	33000c41 	bfxil	w1, w2, #0, #4
  1e000328f0:	b9180001 	str	w1, [x0, #6144]
  1e000328f4:	b9410001 	ldr	w1, [x0, #256]
  1e000328f8:	321c0021 	orr	w1, w1, #0x10
  1e000328fc:	b9010001 	str	w1, [x0, #256]
  1e00032900:	b9410001 	ldr	w1, [x0, #256]
  1e00032904:	373fffe1 	tbnz	w1, #7, 1e00032900 <cmu_blk_peri_init+0x7c>
  1e00032908:	d65f03c0 	ret

0000001e0003290c <cmu_top_bus>:
  1e0003290c:	d2be9403 	mov	x3, #0xf4a00000            	// #4104126464
  1e00032910:	52807d05 	mov	w5, #0x3e8                 	// #1000
  1e00032914:	f2c003e3 	movk	x3, #0x1f, lsl #32
  1e00032918:	8b030002 	add	x2, x0, x3
  1e0003291c:	b8636804 	ldr	w4, [x0, x3]
  1e00032920:	33004ca4 	bfxil	w4, w5, #0, #20
  1e00032924:	b8236804 	str	w4, [x0, x3]
  1e00032928:	52800044 	mov	w4, #0x2                   	// #2
  1e0003292c:	b9411843 	ldr	w3, [x2, #280]
  1e00032930:	12103c63 	and	w3, w3, #0xffff0000
  1e00032934:	b9011843 	str	w3, [x2, #280]
  1e00032938:	b9410c43 	ldr	w3, [x2, #268]
  1e0003293c:	33181483 	bfi	w3, w4, #8, #6
  1e00032940:	b9010c43 	str	w3, [x2, #268]
  1e00032944:	52800f04 	mov	w4, #0x78                  	// #120
  1e00032948:	b9410c43 	ldr	w3, [x2, #268]
  1e0003294c:	33102483 	bfi	w3, w4, #16, #10
  1e00032950:	b9010c43 	str	w3, [x2, #268]
  1e00032954:	52800024 	mov	w4, #0x1                   	// #1
  1e00032958:	b9410c43 	ldr	w3, [x2, #268]
  1e0003295c:	33000883 	bfxil	w3, w4, #0, #3
  1e00032960:	b9010c43 	str	w3, [x2, #268]
  1e00032964:	b9410c43 	ldr	w3, [x2, #268]
  1e00032968:	32010063 	orr	w3, w3, #0x80000000
  1e0003296c:	b9010c43 	str	w3, [x2, #268]
  1e00032970:	b9410c43 	ldr	w3, [x2, #268]
  1e00032974:	36efffe3 	tbz	w3, #29, 1e00032970 <cmu_top_bus+0x64>
  1e00032978:	b9580043 	ldr	w3, [x2, #6144]
  1e0003297c:	52800044 	mov	w4, #0x2                   	// #2
  1e00032980:	121c6c63 	and	w3, w3, #0xfffffff0
  1e00032984:	b9180043 	str	w3, [x2, #6144]
  1e00032988:	b9580443 	ldr	w3, [x2, #6148]
  1e0003298c:	33000c83 	bfxil	w3, w4, #0, #4
  1e00032990:	b9180443 	str	w3, [x2, #6148]
  1e00032994:	b9580c43 	ldr	w3, [x2, #6156]
  1e00032998:	121c6c63 	and	w3, w3, #0xfffffff0
  1e0003299c:	b9180c43 	str	w3, [x2, #6156]
  1e000329a0:	b9410043 	ldr	w3, [x2, #256]
  1e000329a4:	321c0063 	orr	w3, w3, #0x10
  1e000329a8:	b9010043 	str	w3, [x2, #256]
  1e000329ac:	b9410043 	ldr	w3, [x2, #256]
  1e000329b0:	373fffe3 	tbnz	w3, #7, 1e000329ac <cmu_top_bus+0xa0>
  1e000329b4:	b9410c43 	ldr	w3, [x2, #268]
  1e000329b8:	321c0063 	orr	w3, w3, #0x10
  1e000329bc:	b9010c43 	str	w3, [x2, #268]
  1e000329c0:	b9410c43 	ldr	w3, [x2, #268]
  1e000329c4:	373fffe3 	tbnz	w3, #7, 1e000329c0 <cmu_top_bus+0xb4>
  1e000329c8:	d2be9802 	mov	x2, #0xf4c00000            	// #4106223616
  1e000329cc:	52800044 	mov	w4, #0x2                   	// #2
  1e000329d0:	f2c003e2 	movk	x2, #0x1f, lsl #32
  1e000329d4:	8b020002 	add	x2, x0, x2
  1e000329d8:	b9580043 	ldr	w3, [x2, #6144]
  1e000329dc:	121c6c63 	and	w3, w3, #0xfffffff0
  1e000329e0:	b9180043 	str	w3, [x2, #6144]
  1e000329e4:	b9580443 	ldr	w3, [x2, #6148]
  1e000329e8:	33000c83 	bfxil	w3, w4, #0, #4
  1e000329ec:	b9180443 	str	w3, [x2, #6148]
  1e000329f0:	b9410043 	ldr	w3, [x2, #256]
  1e000329f4:	321c0063 	orr	w3, w3, #0x10
  1e000329f8:	b9010043 	str	w3, [x2, #256]
  1e000329fc:	b9410043 	ldr	w3, [x2, #256]
  1e00032a00:	373fffe3 	tbnz	w3, #7, 1e000329fc <cmu_top_bus+0xf0>
  1e00032a04:	2a0103e1 	mov	w1, w1
  1e00032a08:	d0000043 	adrp	x3, 1e0003c000 <vsnprintf+0x270>
  1e00032a0c:	911a6063 	add	x3, x3, #0x698
  1e00032a10:	d2800284 	mov	x4, #0x14                  	// #20
  1e00032a14:	d2be9005 	mov	x5, #0xf4800000            	// #4102029312
  1e00032a18:	f2c003e5 	movk	x5, #0x1f, lsl #32
  1e00032a1c:	8b050002 	add	x2, x0, x5
  1e00032a20:	9b040c21 	madd	x1, x1, x4, x3
  1e00032a24:	52803e83 	mov	w3, #0x1f4                 	// #500
  1e00032a28:	b8656806 	ldr	w6, [x0, x5]
  1e00032a2c:	b9400424 	ldr	w4, [x1, #4]
  1e00032a30:	79402027 	ldrh	w7, [x1, #16]
  1e00032a34:	1b037c83 	mul	w3, w4, w3
  1e00032a38:	12001484 	and	w4, w4, #0x3f
  1e00032a3c:	121e4463 	and	w3, w3, #0xffffc
  1e00032a40:	33004c66 	bfxil	w6, w3, #0, #20
  1e00032a44:	b8256806 	str	w6, [x0, x5]
  1e00032a48:	b9400826 	ldr	w6, [x1, #8]
  1e00032a4c:	b9410c45 	ldr	w5, [x2, #268]
  1e00032a50:	120024c6 	and	w6, w6, #0x3ff
  1e00032a54:	33003ce5 	bfxil	w5, w7, #0, #16
  1e00032a58:	b9010c45 	str	w5, [x2, #268]
  1e00032a5c:	b9410045 	ldr	w5, [x2, #256]
  1e00032a60:	33181485 	bfi	w5, w4, #8, #6
  1e00032a64:	b9010045 	str	w5, [x2, #256]
  1e00032a68:	b9410045 	ldr	w5, [x2, #256]
  1e00032a6c:	331024c5 	bfi	w5, w6, #16, #10
  1e00032a70:	b9010045 	str	w5, [x2, #256]
  1e00032a74:	b9400c25 	ldr	w5, [x1, #12]
  1e00032a78:	b9410041 	ldr	w1, [x2, #256]
  1e00032a7c:	120008a5 	and	w5, w5, #0x7
  1e00032a80:	330008a1 	bfxil	w1, w5, #0, #3
  1e00032a84:	b9010041 	str	w1, [x2, #256]
  1e00032a88:	b9410041 	ldr	w1, [x2, #256]
  1e00032a8c:	32010021 	orr	w1, w1, #0x80000000
  1e00032a90:	b9010041 	str	w1, [x2, #256]
  1e00032a94:	b9410041 	ldr	w1, [x2, #256]
  1e00032a98:	36efffe1 	tbz	w1, #29, 1e00032a94 <cmu_top_bus+0x188>
  1e00032a9c:	b9580441 	ldr	w1, [x2, #6148]
  1e00032aa0:	52800048 	mov	w8, #0x2                   	// #2
  1e00032aa4:	121c6c21 	and	w1, w1, #0xfffffff0
  1e00032aa8:	b9180441 	str	w1, [x2, #6148]
  1e00032aac:	b9581041 	ldr	w1, [x2, #6160]
  1e00032ab0:	33000d01 	bfxil	w1, w8, #0, #4
  1e00032ab4:	b9181041 	str	w1, [x2, #6160]
  1e00032ab8:	528000e8 	mov	w8, #0x7                   	// #7
  1e00032abc:	b9580041 	ldr	w1, [x2, #6144]
  1e00032ac0:	33000d01 	bfxil	w1, w8, #0, #4
  1e00032ac4:	b9180041 	str	w1, [x2, #6144]
  1e00032ac8:	b9580841 	ldr	w1, [x2, #6152]
  1e00032acc:	33000d01 	bfxil	w1, w8, #0, #4
  1e00032ad0:	b9180841 	str	w1, [x2, #6152]
  1e00032ad4:	b9581441 	ldr	w1, [x2, #6164]
  1e00032ad8:	121c6c21 	and	w1, w1, #0xfffffff0
  1e00032adc:	b9181441 	str	w1, [x2, #6164]
  1e00032ae0:	b9411441 	ldr	w1, [x2, #276]
  1e00032ae4:	321c0021 	orr	w1, w1, #0x10
  1e00032ae8:	b9011441 	str	w1, [x2, #276]
  1e00032aec:	b9411441 	ldr	w1, [x2, #276]
  1e00032af0:	373fffe1 	tbnz	w1, #7, 1e00032aec <cmu_top_bus+0x1e0>
  1e00032af4:	b9410041 	ldr	w1, [x2, #256]
  1e00032af8:	321c0021 	orr	w1, w1, #0x10
  1e00032afc:	b9010041 	str	w1, [x2, #256]
  1e00032b00:	b9410041 	ldr	w1, [x2, #256]
  1e00032b04:	373fffe1 	tbnz	w1, #7, 1e00032b00 <cmu_top_bus+0x1f4>
  1e00032b08:	d2be6602 	mov	x2, #0xf3300000            	// #4080009216
  1e00032b0c:	f2c003e2 	movk	x2, #0x1f, lsl #32
  1e00032b10:	8b020001 	add	x1, x0, x2
  1e00032b14:	b8626808 	ldr	w8, [x0, x2]
  1e00032b18:	33004c68 	bfxil	w8, w3, #0, #20
  1e00032b1c:	b8226808 	str	w8, [x0, x2]
  1e00032b20:	b9410c22 	ldr	w2, [x1, #268]
  1e00032b24:	33003ce2 	bfxil	w2, w7, #0, #16
  1e00032b28:	b9010c22 	str	w2, [x1, #268]
  1e00032b2c:	b9410022 	ldr	w2, [x1, #256]
  1e00032b30:	33181482 	bfi	w2, w4, #8, #6
  1e00032b34:	b9010022 	str	w2, [x1, #256]
  1e00032b38:	b9410022 	ldr	w2, [x1, #256]
  1e00032b3c:	331024c2 	bfi	w2, w6, #16, #10
  1e00032b40:	b9010022 	str	w2, [x1, #256]
  1e00032b44:	b9410022 	ldr	w2, [x1, #256]
  1e00032b48:	330008a2 	bfxil	w2, w5, #0, #3
  1e00032b4c:	b9010022 	str	w2, [x1, #256]
  1e00032b50:	b9410022 	ldr	w2, [x1, #256]
  1e00032b54:	32010042 	orr	w2, w2, #0x80000000
  1e00032b58:	b9010022 	str	w2, [x1, #256]
  1e00032b5c:	b9410022 	ldr	w2, [x1, #256]
  1e00032b60:	36efffe2 	tbz	w2, #29, 1e00032b5c <cmu_top_bus+0x250>
  1e00032b64:	b9580022 	ldr	w2, [x1, #6144]
  1e00032b68:	52800048 	mov	w8, #0x2                   	// #2
  1e00032b6c:	121c6c42 	and	w2, w2, #0xfffffff0
  1e00032b70:	b9180022 	str	w2, [x1, #6144]
  1e00032b74:	b9580422 	ldr	w2, [x1, #6148]
  1e00032b78:	33000d02 	bfxil	w2, w8, #0, #4
  1e00032b7c:	b9180422 	str	w2, [x1, #6148]
  1e00032b80:	528000e8 	mov	w8, #0x7                   	// #7
  1e00032b84:	b9581022 	ldr	w2, [x1, #6160]
  1e00032b88:	33000d02 	bfxil	w2, w8, #0, #4
  1e00032b8c:	b9181022 	str	w2, [x1, #6160]
  1e00032b90:	b9581422 	ldr	w2, [x1, #6164]
  1e00032b94:	33000d02 	bfxil	w2, w8, #0, #4
  1e00032b98:	b9181422 	str	w2, [x1, #6164]
  1e00032b9c:	b9410022 	ldr	w2, [x1, #256]
  1e00032ba0:	321c0042 	orr	w2, w2, #0x10
  1e00032ba4:	b9010022 	str	w2, [x1, #256]
  1e00032ba8:	b9410022 	ldr	w2, [x1, #256]
  1e00032bac:	373fffe2 	tbnz	w2, #7, 1e00032ba8 <cmu_top_bus+0x29c>
  1e00032bb0:	d2be6a01 	mov	x1, #0xf3500000            	// #4082106368
  1e00032bb4:	52800048 	mov	w8, #0x2                   	// #2
  1e00032bb8:	f2c003e1 	movk	x1, #0x1f, lsl #32
  1e00032bbc:	8b010001 	add	x1, x0, x1
  1e00032bc0:	b9580022 	ldr	w2, [x1, #6144]
  1e00032bc4:	121c6c42 	and	w2, w2, #0xfffffff0
  1e00032bc8:	b9180022 	str	w2, [x1, #6144]
  1e00032bcc:	b9580422 	ldr	w2, [x1, #6148]
  1e00032bd0:	33000d02 	bfxil	w2, w8, #0, #4
  1e00032bd4:	b9180422 	str	w2, [x1, #6148]
  1e00032bd8:	52800028 	mov	w8, #0x1                   	// #1
  1e00032bdc:	b9580822 	ldr	w2, [x1, #6152]
  1e00032be0:	33000d02 	bfxil	w2, w8, #0, #4
  1e00032be4:	b9180822 	str	w2, [x1, #6152]
  1e00032be8:	b9410022 	ldr	w2, [x1, #256]
  1e00032bec:	321c0042 	orr	w2, w2, #0x10
  1e00032bf0:	b9010022 	str	w2, [x1, #256]
  1e00032bf4:	b9410022 	ldr	w2, [x1, #256]
  1e00032bf8:	373fffe2 	tbnz	w2, #7, 1e00032bf4 <cmu_top_bus+0x2e8>
  1e00032bfc:	d2be6001 	mov	x1, #0xf3000000            	// #4076863488
  1e00032c00:	52800048 	mov	w8, #0x2                   	// #2
  1e00032c04:	f2c003e1 	movk	x1, #0x1f, lsl #32
  1e00032c08:	8b010001 	add	x1, x0, x1
  1e00032c0c:	b9580022 	ldr	w2, [x1, #6144]
  1e00032c10:	121c6c42 	and	w2, w2, #0xfffffff0
  1e00032c14:	b9180022 	str	w2, [x1, #6144]
  1e00032c18:	b9580c22 	ldr	w2, [x1, #6156]
  1e00032c1c:	33000d02 	bfxil	w2, w8, #0, #4
  1e00032c20:	b9180c22 	str	w2, [x1, #6156]
  1e00032c24:	b9580422 	ldr	w2, [x1, #6148]
  1e00032c28:	121a6442 	and	w2, w2, #0xffffffc0
  1e00032c2c:	b9180422 	str	w2, [x1, #6148]
  1e00032c30:	b9410022 	ldr	w2, [x1, #256]
  1e00032c34:	321c0042 	orr	w2, w2, #0x10
  1e00032c38:	b9010022 	str	w2, [x1, #256]
  1e00032c3c:	b9410022 	ldr	w2, [x1, #256]
  1e00032c40:	373fffe2 	tbnz	w2, #7, 1e00032c3c <cmu_top_bus+0x330>
  1e00032c44:	d2be7801 	mov	x1, #0xf3c00000            	// #4089446400
  1e00032c48:	52800048 	mov	w8, #0x2                   	// #2
  1e00032c4c:	f2c003e1 	movk	x1, #0x1f, lsl #32
  1e00032c50:	8b010001 	add	x1, x0, x1
  1e00032c54:	b9580022 	ldr	w2, [x1, #6144]
  1e00032c58:	121c6c42 	and	w2, w2, #0xfffffff0
  1e00032c5c:	b9180022 	str	w2, [x1, #6144]
  1e00032c60:	b9580422 	ldr	w2, [x1, #6148]
  1e00032c64:	33000d02 	bfxil	w2, w8, #0, #4
  1e00032c68:	b9180422 	str	w2, [x1, #6148]
  1e00032c6c:	b9410022 	ldr	w2, [x1, #256]
  1e00032c70:	321c0042 	orr	w2, w2, #0x10
  1e00032c74:	b9010022 	str	w2, [x1, #256]
  1e00032c78:	b9410022 	ldr	w2, [x1, #256]
  1e00032c7c:	373fffe2 	tbnz	w2, #7, 1e00032c78 <cmu_top_bus+0x36c>
  1e00032c80:	d2be7c01 	mov	x1, #0xf3e00000            	// #4091543552
  1e00032c84:	52800048 	mov	w8, #0x2                   	// #2
  1e00032c88:	f2c003e1 	movk	x1, #0x1f, lsl #32
  1e00032c8c:	8b010001 	add	x1, x0, x1
  1e00032c90:	b9580022 	ldr	w2, [x1, #6144]
  1e00032c94:	121c6c42 	and	w2, w2, #0xfffffff0
  1e00032c98:	b9180022 	str	w2, [x1, #6144]
  1e00032c9c:	b9580422 	ldr	w2, [x1, #6148]
  1e00032ca0:	33000d02 	bfxil	w2, w8, #0, #4
  1e00032ca4:	b9180422 	str	w2, [x1, #6148]
  1e00032ca8:	b9410022 	ldr	w2, [x1, #256]
  1e00032cac:	321c0042 	orr	w2, w2, #0x10
  1e00032cb0:	b9010022 	str	w2, [x1, #256]
  1e00032cb4:	b9410022 	ldr	w2, [x1, #256]
  1e00032cb8:	373fffe2 	tbnz	w2, #7, 1e00032cb4 <cmu_top_bus+0x3a8>
  1e00032cbc:	d2be7402 	mov	x2, #0xf3a00000            	// #4087349248
  1e00032cc0:	f2c003e2 	movk	x2, #0x1f, lsl #32
  1e00032cc4:	8b020001 	add	x1, x0, x2
  1e00032cc8:	b8626808 	ldr	w8, [x0, x2]
  1e00032ccc:	33004c68 	bfxil	w8, w3, #0, #20
  1e00032cd0:	b8226808 	str	w8, [x0, x2]
  1e00032cd4:	b9410c22 	ldr	w2, [x1, #268]
  1e00032cd8:	33003ce2 	bfxil	w2, w7, #0, #16
  1e00032cdc:	b9010c22 	str	w2, [x1, #268]
  1e00032ce0:	b9410022 	ldr	w2, [x1, #256]
  1e00032ce4:	33181482 	bfi	w2, w4, #8, #6
  1e00032ce8:	b9010022 	str	w2, [x1, #256]
  1e00032cec:	b9410022 	ldr	w2, [x1, #256]
  1e00032cf0:	331024c2 	bfi	w2, w6, #16, #10
  1e00032cf4:	b9010022 	str	w2, [x1, #256]
  1e00032cf8:	b9410022 	ldr	w2, [x1, #256]
  1e00032cfc:	330008a2 	bfxil	w2, w5, #0, #3
  1e00032d00:	b9010022 	str	w2, [x1, #256]
  1e00032d04:	b9410022 	ldr	w2, [x1, #256]
  1e00032d08:	32010042 	orr	w2, w2, #0x80000000
  1e00032d0c:	b9010022 	str	w2, [x1, #256]
  1e00032d10:	b9410022 	ldr	w2, [x1, #256]
  1e00032d14:	36efffe2 	tbz	w2, #29, 1e00032d10 <cmu_top_bus+0x404>
  1e00032d18:	b9580022 	ldr	w2, [x1, #6144]
  1e00032d1c:	52800048 	mov	w8, #0x2                   	// #2
  1e00032d20:	121c6c42 	and	w2, w2, #0xfffffff0
  1e00032d24:	b9180022 	str	w2, [x1, #6144]
  1e00032d28:	b9580422 	ldr	w2, [x1, #6148]
  1e00032d2c:	33000d02 	bfxil	w2, w8, #0, #4
  1e00032d30:	b9180422 	str	w2, [x1, #6148]
  1e00032d34:	528000e8 	mov	w8, #0x7                   	// #7
  1e00032d38:	b9580822 	ldr	w2, [x1, #6152]
  1e00032d3c:	33000d02 	bfxil	w2, w8, #0, #4
  1e00032d40:	b9180822 	str	w2, [x1, #6152]
  1e00032d44:	b9580c22 	ldr	w2, [x1, #6156]
  1e00032d48:	33000d02 	bfxil	w2, w8, #0, #4
  1e00032d4c:	b9180c22 	str	w2, [x1, #6156]
  1e00032d50:	b9410022 	ldr	w2, [x1, #256]
  1e00032d54:	321c0042 	orr	w2, w2, #0x10
  1e00032d58:	b9010022 	str	w2, [x1, #256]
  1e00032d5c:	b9410022 	ldr	w2, [x1, #256]
  1e00032d60:	373fffe2 	tbnz	w2, #7, 1e00032d5c <cmu_top_bus+0x450>
  1e00032d64:	d2be8c01 	mov	x1, #0xf4600000            	// #4099932160
  1e00032d68:	52800048 	mov	w8, #0x2                   	// #2
  1e00032d6c:	f2c003e1 	movk	x1, #0x1f, lsl #32
  1e00032d70:	8b010001 	add	x1, x0, x1
  1e00032d74:	b9580022 	ldr	w2, [x1, #6144]
  1e00032d78:	121c6c42 	and	w2, w2, #0xfffffff0
  1e00032d7c:	b9180022 	str	w2, [x1, #6144]
  1e00032d80:	b9580422 	ldr	w2, [x1, #6148]
  1e00032d84:	33000d02 	bfxil	w2, w8, #0, #4
  1e00032d88:	b9180422 	str	w2, [x1, #6148]
  1e00032d8c:	b9410022 	ldr	w2, [x1, #256]
  1e00032d90:	321c0042 	orr	w2, w2, #0x10
  1e00032d94:	b9010022 	str	w2, [x1, #256]
  1e00032d98:	b9410022 	ldr	w2, [x1, #256]
  1e00032d9c:	373fffe2 	tbnz	w2, #7, 1e00032d98 <cmu_top_bus+0x48c>
  1e00032da0:	d2be8002 	mov	x2, #0xf4000000            	// #4093640704
  1e00032da4:	f2c003e2 	movk	x2, #0x1f, lsl #32
  1e00032da8:	8b020001 	add	x1, x0, x2
  1e00032dac:	b8626808 	ldr	w8, [x0, x2]
  1e00032db0:	33004c68 	bfxil	w8, w3, #0, #20
  1e00032db4:	b8226808 	str	w8, [x0, x2]
  1e00032db8:	b9410c20 	ldr	w0, [x1, #268]
  1e00032dbc:	33003ce0 	bfxil	w0, w7, #0, #16
  1e00032dc0:	b9010c20 	str	w0, [x1, #268]
  1e00032dc4:	b9410020 	ldr	w0, [x1, #256]
  1e00032dc8:	33181480 	bfi	w0, w4, #8, #6
  1e00032dcc:	b9010020 	str	w0, [x1, #256]
  1e00032dd0:	b9410020 	ldr	w0, [x1, #256]
  1e00032dd4:	331024c0 	bfi	w0, w6, #16, #10
  1e00032dd8:	b9010020 	str	w0, [x1, #256]
  1e00032ddc:	b9410020 	ldr	w0, [x1, #256]
  1e00032de0:	330008a0 	bfxil	w0, w5, #0, #3
  1e00032de4:	b9010020 	str	w0, [x1, #256]
  1e00032de8:	b9410020 	ldr	w0, [x1, #256]
  1e00032dec:	32010000 	orr	w0, w0, #0x80000000
  1e00032df0:	b9010020 	str	w0, [x1, #256]
  1e00032df4:	b9410020 	ldr	w0, [x1, #256]
  1e00032df8:	36efffe0 	tbz	w0, #29, 1e00032df4 <cmu_top_bus+0x4e8>
  1e00032dfc:	b9580020 	ldr	w0, [x1, #6144]
  1e00032e00:	52800042 	mov	w2, #0x2                   	// #2
  1e00032e04:	121c6c00 	and	w0, w0, #0xfffffff0
  1e00032e08:	b9180020 	str	w0, [x1, #6144]
  1e00032e0c:	b9580420 	ldr	w0, [x1, #6148]
  1e00032e10:	33000c40 	bfxil	w0, w2, #0, #4
  1e00032e14:	b9180420 	str	w0, [x1, #6148]
  1e00032e18:	b9410020 	ldr	w0, [x1, #256]
  1e00032e1c:	321c0000 	orr	w0, w0, #0x10
  1e00032e20:	b9010020 	str	w0, [x1, #256]
  1e00032e24:	b9410020 	ldr	w0, [x1, #256]
  1e00032e28:	373fffe0 	tbnz	w0, #7, 1e00032e24 <cmu_top_bus+0x518>
  1e00032e2c:	d65f03c0 	ret

0000001e00032e30 <cmu_blk_dcl_init>:
  1e00032e30:	a9bf7bfd 	stp	x29, x30, [sp, #-16]!
  1e00032e34:	d0000046 	adrp	x6, 1e0003c000 <vsnprintf+0x270>
  1e00032e38:	911a60c6 	add	x6, x6, #0x698
  1e00032e3c:	910003fd 	mov	x29, sp
  1e00032e40:	aa0003e5 	mov	x5, x0
  1e00032e44:	52800021 	mov	w1, #0x1                   	// #1
  1e00032e48:	aa0603e0 	mov	x0, x6
  1e00032e4c:	97fffda3 	bl	1e000324d8 <cmu_find_pll_lvl>
  1e00032e50:	36f80040 	tbz	w0, #31, 1e00032e58 <cmu_blk_dcl_init+0x28>
  1e00032e54:	940021eb 	bl	1e0003b600 <__assert>
  1e00032e58:	93407c00 	sxtw	x0, w0
  1e00032e5c:	d2800281 	mov	x1, #0x14                  	// #20
  1e00032e60:	b94000a3 	ldr	w3, [x5]
  1e00032e64:	9b011800 	madd	x0, x0, x1, x6
  1e00032e68:	52803e81 	mov	w1, #0x1f4                 	// #500
  1e00032e6c:	b9400402 	ldr	w2, [x0, #4]
  1e00032e70:	79402006 	ldrh	w6, [x0, #16]
  1e00032e74:	1b017c41 	mul	w1, w2, w1
  1e00032e78:	12001442 	and	w2, w2, #0x3f
  1e00032e7c:	121e4421 	and	w1, w1, #0xffffc
  1e00032e80:	33004c23 	bfxil	w3, w1, #0, #20
  1e00032e84:	b90000a3 	str	w3, [x5]
  1e00032e88:	b9410ca3 	ldr	w3, [x5, #268]
  1e00032e8c:	33003cc3 	bfxil	w3, w6, #0, #16
  1e00032e90:	b9010ca3 	str	w3, [x5, #268]
  1e00032e94:	b94100a3 	ldr	w3, [x5, #256]
  1e00032e98:	33181443 	bfi	w3, w2, #8, #6
  1e00032e9c:	b90100a3 	str	w3, [x5, #256]
  1e00032ea0:	29410003 	ldp	w3, w0, [x0, #8]
  1e00032ea4:	b94100a4 	ldr	w4, [x5, #256]
  1e00032ea8:	12002463 	and	w3, w3, #0x3ff
  1e00032eac:	12000800 	and	w0, w0, #0x7
  1e00032eb0:	33102464 	bfi	w4, w3, #16, #10
  1e00032eb4:	b90100a4 	str	w4, [x5, #256]
  1e00032eb8:	b94100a4 	ldr	w4, [x5, #256]
  1e00032ebc:	33000804 	bfxil	w4, w0, #0, #3
  1e00032ec0:	b90100a4 	str	w4, [x5, #256]
  1e00032ec4:	b94100a4 	ldr	w4, [x5, #256]
  1e00032ec8:	32010084 	orr	w4, w4, #0x80000000
  1e00032ecc:	b90100a4 	str	w4, [x5, #256]
  1e00032ed0:	b94100a4 	ldr	w4, [x5, #256]
  1e00032ed4:	36efffe4 	tbz	w4, #29, 1e00032ed0 <cmu_blk_dcl_init+0xa0>
  1e00032ed8:	b94004a4 	ldr	w4, [x5, #4]
  1e00032edc:	33004c24 	bfxil	w4, w1, #0, #20
  1e00032ee0:	b90004a4 	str	w4, [x5, #4]
  1e00032ee4:	b94120a1 	ldr	w1, [x5, #288]
  1e00032ee8:	33003cc1 	bfxil	w1, w6, #0, #16
  1e00032eec:	b90120a1 	str	w1, [x5, #288]
  1e00032ef0:	b94114a1 	ldr	w1, [x5, #276]
  1e00032ef4:	33181441 	bfi	w1, w2, #8, #6
  1e00032ef8:	b90114a1 	str	w1, [x5, #276]
  1e00032efc:	b94114a1 	ldr	w1, [x5, #276]
  1e00032f00:	33102461 	bfi	w1, w3, #16, #10
  1e00032f04:	b90114a1 	str	w1, [x5, #276]
  1e00032f08:	b94114a1 	ldr	w1, [x5, #276]
  1e00032f0c:	33000801 	bfxil	w1, w0, #0, #3
  1e00032f10:	b90114a1 	str	w1, [x5, #276]
  1e00032f14:	b94114a0 	ldr	w0, [x5, #276]
  1e00032f18:	32010000 	orr	w0, w0, #0x80000000
  1e00032f1c:	b90114a0 	str	w0, [x5, #276]
  1e00032f20:	b94114a0 	ldr	w0, [x5, #276]
  1e00032f24:	36efffe0 	tbz	w0, #29, 1e00032f20 <cmu_blk_dcl_init+0xf0>
  1e00032f28:	b9581ca1 	ldr	w1, [x5, #6172]
  1e00032f2c:	52800020 	mov	w0, #0x1                   	// #1
  1e00032f30:	528000e3 	mov	w3, #0x7                   	// #7
  1e00032f34:	33000c01 	bfxil	w1, w0, #0, #4
  1e00032f38:	b9181ca1 	str	w1, [x5, #6172]
  1e00032f3c:	52800061 	mov	w1, #0x3                   	// #3
  1e00032f40:	b95700a2 	ldr	w2, [x5, #5888]
  1e00032f44:	33000c22 	bfxil	w2, w1, #0, #4
  1e00032f48:	b91700a2 	str	w2, [x5, #5888]
  1e00032f4c:	b95800a2 	ldr	w2, [x5, #6144]
  1e00032f50:	121c6c42 	and	w2, w2, #0xfffffff0
  1e00032f54:	b91800a2 	str	w2, [x5, #6144]
  1e00032f58:	b95704a2 	ldr	w2, [x5, #5892]
  1e00032f5c:	33000c02 	bfxil	w2, w0, #0, #4
  1e00032f60:	b91704a2 	str	w2, [x5, #5892]
  1e00032f64:	b95808a2 	ldr	w2, [x5, #6152]
  1e00032f68:	121c6c42 	and	w2, w2, #0xfffffff0
  1e00032f6c:	b91808a2 	str	w2, [x5, #6152]
  1e00032f70:	b95708a2 	ldr	w2, [x5, #5896]
  1e00032f74:	33000c02 	bfxil	w2, w0, #0, #4
  1e00032f78:	b91708a2 	str	w2, [x5, #5896]
  1e00032f7c:	b9580ca2 	ldr	w2, [x5, #6156]
  1e00032f80:	121c6c42 	and	w2, w2, #0xfffffff0
  1e00032f84:	b9180ca2 	str	w2, [x5, #6156]
  1e00032f88:	b9570ca2 	ldr	w2, [x5, #5900]
  1e00032f8c:	33000c02 	bfxil	w2, w0, #0, #4
  1e00032f90:	b9170ca2 	str	w2, [x5, #5900]
  1e00032f94:	b95810a2 	ldr	w2, [x5, #6160]
  1e00032f98:	121c6c42 	and	w2, w2, #0xfffffff0
  1e00032f9c:	b91810a2 	str	w2, [x5, #6160]
  1e00032fa0:	b95710a2 	ldr	w2, [x5, #5904]
  1e00032fa4:	33000c02 	bfxil	w2, w0, #0, #4
  1e00032fa8:	b91710a2 	str	w2, [x5, #5904]
  1e00032fac:	b95814a2 	ldr	w2, [x5, #6164]
  1e00032fb0:	121c6c42 	and	w2, w2, #0xfffffff0
  1e00032fb4:	b91814a2 	str	w2, [x5, #6164]
  1e00032fb8:	b95714a2 	ldr	w2, [x5, #5908]
  1e00032fbc:	33000c02 	bfxil	w2, w0, #0, #4
  1e00032fc0:	b91714a2 	str	w2, [x5, #5908]
  1e00032fc4:	b95818a2 	ldr	w2, [x5, #6168]
  1e00032fc8:	121c6c42 	and	w2, w2, #0xfffffff0
  1e00032fcc:	b91818a2 	str	w2, [x5, #6168]
  1e00032fd0:	b95718a2 	ldr	w2, [x5, #5912]
  1e00032fd4:	33000c02 	bfxil	w2, w0, #0, #4
  1e00032fd8:	b91718a2 	str	w2, [x5, #5912]
  1e00032fdc:	b9582ca2 	ldr	w2, [x5, #6188]
  1e00032fe0:	121c6c42 	and	w2, w2, #0xfffffff0
  1e00032fe4:	b9182ca2 	str	w2, [x5, #6188]
  1e00032fe8:	b95724a2 	ldr	w2, [x5, #5924]
  1e00032fec:	33000c02 	bfxil	w2, w0, #0, #4
  1e00032ff0:	b91724a2 	str	w2, [x5, #5924]
  1e00032ff4:	b95830a2 	ldr	w2, [x5, #6192]
  1e00032ff8:	121c6c42 	and	w2, w2, #0xfffffff0
  1e00032ffc:	b91830a2 	str	w2, [x5, #6192]
  1e00033000:	b95728a2 	ldr	w2, [x5, #5928]
  1e00033004:	33000c02 	bfxil	w2, w0, #0, #4
  1e00033008:	b91728a2 	str	w2, [x5, #5928]
  1e0003300c:	b95834a2 	ldr	w2, [x5, #6196]
  1e00033010:	121c6c42 	and	w2, w2, #0xfffffff0
  1e00033014:	b91834a2 	str	w2, [x5, #6196]
  1e00033018:	b9572ca2 	ldr	w2, [x5, #5932]
  1e0003301c:	33000c02 	bfxil	w2, w0, #0, #4
  1e00033020:	b9172ca2 	str	w2, [x5, #5932]
  1e00033024:	b95838a2 	ldr	w2, [x5, #6200]
  1e00033028:	121c6c42 	and	w2, w2, #0xfffffff0
  1e0003302c:	b91838a2 	str	w2, [x5, #6200]
  1e00033030:	b95730a2 	ldr	w2, [x5, #5936]
  1e00033034:	33000c02 	bfxil	w2, w0, #0, #4
  1e00033038:	b91730a2 	str	w2, [x5, #5936]
  1e0003303c:	b9583ca2 	ldr	w2, [x5, #6204]
  1e00033040:	121c6c42 	and	w2, w2, #0xfffffff0
  1e00033044:	b9183ca2 	str	w2, [x5, #6204]
  1e00033048:	b95734a2 	ldr	w2, [x5, #5940]
  1e0003304c:	33000c02 	bfxil	w2, w0, #0, #4
  1e00033050:	b91734a2 	str	w2, [x5, #5940]
  1e00033054:	b95804a2 	ldr	w2, [x5, #6148]
  1e00033058:	33000c22 	bfxil	w2, w1, #0, #4
  1e0003305c:	b91804a2 	str	w2, [x5, #6148]
  1e00033060:	b9571ca2 	ldr	w2, [x5, #5916]
  1e00033064:	33000c62 	bfxil	w2, w3, #0, #4
  1e00033068:	b9171ca2 	str	w2, [x5, #5916]
  1e0003306c:	b95824a2 	ldr	w2, [x5, #6180]
  1e00033070:	33000c02 	bfxil	w2, w0, #0, #4
  1e00033074:	b91824a2 	str	w2, [x5, #6180]
  1e00033078:	b95720a0 	ldr	w0, [x5, #5920]
  1e0003307c:	33000c20 	bfxil	w0, w1, #0, #4
  1e00033080:	b91720a0 	str	w0, [x5, #5920]
  1e00033084:	52800101 	mov	w1, #0x8                   	// #8
  1e00033088:	b95828a0 	ldr	w0, [x5, #6184]
  1e0003308c:	33001020 	bfxil	w0, w1, #0, #5
  1e00033090:	b91828a0 	str	w0, [x5, #6184]
  1e00033094:	52800081 	mov	w1, #0x4                   	// #4
  1e00033098:	b95820a0 	ldr	w0, [x5, #6176]
  1e0003309c:	33000c20 	bfxil	w0, w1, #0, #4
  1e000330a0:	b91820a0 	str	w0, [x5, #6176]
  1e000330a4:	b95000a0 	ldr	w0, [x5, #4096]
  1e000330a8:	121f7800 	and	w0, w0, #0xfffffffe
  1e000330ac:	b91000a0 	str	w0, [x5, #4096]
  1e000330b0:	b95000a0 	ldr	w0, [x5, #4096]
  1e000330b4:	3787ffe0 	tbnz	w0, #16, 1e000330b0 <cmu_blk_dcl_init+0x280>
  1e000330b8:	b94100a0 	ldr	w0, [x5, #256]
  1e000330bc:	321c0000 	orr	w0, w0, #0x10
  1e000330c0:	b90100a0 	str	w0, [x5, #256]
  1e000330c4:	b94100a0 	ldr	w0, [x5, #256]
  1e000330c8:	373fffe0 	tbnz	w0, #7, 1e000330c4 <cmu_blk_dcl_init+0x294>
  1e000330cc:	b94114a0 	ldr	w0, [x5, #276]
  1e000330d0:	321c0000 	orr	w0, w0, #0x10
  1e000330d4:	b90114a0 	str	w0, [x5, #276]
  1e000330d8:	b94114a0 	ldr	w0, [x5, #276]
  1e000330dc:	373fffe0 	tbnz	w0, #7, 1e000330d8 <cmu_blk_dcl_init+0x2a8>
  1e000330e0:	a8c17bfd 	ldp	x29, x30, [sp], #16
  1e000330e4:	d65f03c0 	ret

0000001e000330e8 <cmu_blk_dram_init_evt0>:
  1e000330e8:	2a0103e1 	mov	w1, w1
  1e000330ec:	b0000042 	adrp	x2, 1e0003c000 <vsnprintf+0x270>
  1e000330f0:	9118d042 	add	x2, x2, #0x634
  1e000330f4:	d2800283 	mov	x3, #0x14                  	// #20
  1e000330f8:	b9400004 	ldr	w4, [x0]
  1e000330fc:	9b030821 	madd	x1, x1, x3, x2
  1e00033100:	52803e82 	mov	w2, #0x1f4                 	// #500
  1e00033104:	b9400423 	ldr	w3, [x1, #4]
  1e00033108:	79402026 	ldrh	w6, [x1, #16]
  1e0003310c:	1b027c62 	mul	w2, w3, w2
  1e00033110:	12001463 	and	w3, w3, #0x3f
  1e00033114:	121e4442 	and	w2, w2, #0xffffc
  1e00033118:	33004c44 	bfxil	w4, w2, #0, #20
  1e0003311c:	b9000004 	str	w4, [x0]
  1e00033120:	b9410c04 	ldr	w4, [x0, #268]
  1e00033124:	33003cc4 	bfxil	w4, w6, #0, #16
  1e00033128:	b9010c04 	str	w4, [x0, #268]
  1e0003312c:	b9410004 	ldr	w4, [x0, #256]
  1e00033130:	33181464 	bfi	w4, w3, #8, #6
  1e00033134:	b9010004 	str	w4, [x0, #256]
  1e00033138:	29410424 	ldp	w4, w1, [x1, #8]
  1e0003313c:	b9410005 	ldr	w5, [x0, #256]
  1e00033140:	12002484 	and	w4, w4, #0x3ff
  1e00033144:	12000821 	and	w1, w1, #0x7
  1e00033148:	33102485 	bfi	w5, w4, #16, #10
  1e0003314c:	b9010005 	str	w5, [x0, #256]
  1e00033150:	b9410005 	ldr	w5, [x0, #256]
  1e00033154:	33000825 	bfxil	w5, w1, #0, #3
  1e00033158:	b9010005 	str	w5, [x0, #256]
  1e0003315c:	b9410005 	ldr	w5, [x0, #256]
  1e00033160:	320100a5 	orr	w5, w5, #0x80000000
  1e00033164:	b9010005 	str	w5, [x0, #256]
  1e00033168:	b9410005 	ldr	w5, [x0, #256]
  1e0003316c:	36efffe5 	tbz	w5, #29, 1e00033168 <cmu_blk_dram_init_evt0+0x80>
  1e00033170:	b9400405 	ldr	w5, [x0, #4]
  1e00033174:	33004c45 	bfxil	w5, w2, #0, #20
  1e00033178:	b9000405 	str	w5, [x0, #4]
  1e0003317c:	b9412005 	ldr	w5, [x0, #288]
  1e00033180:	33003cc5 	bfxil	w5, w6, #0, #16
  1e00033184:	b9012005 	str	w5, [x0, #288]
  1e00033188:	b9411405 	ldr	w5, [x0, #276]
  1e0003318c:	33181465 	bfi	w5, w3, #8, #6
  1e00033190:	b9011405 	str	w5, [x0, #276]
  1e00033194:	b9411405 	ldr	w5, [x0, #276]
  1e00033198:	33102485 	bfi	w5, w4, #16, #10
  1e0003319c:	b9011405 	str	w5, [x0, #276]
  1e000331a0:	b9411405 	ldr	w5, [x0, #276]
  1e000331a4:	33000825 	bfxil	w5, w1, #0, #3
  1e000331a8:	b9011405 	str	w5, [x0, #276]
  1e000331ac:	b9411405 	ldr	w5, [x0, #276]
  1e000331b0:	320100a5 	orr	w5, w5, #0x80000000
  1e000331b4:	b9011405 	str	w5, [x0, #276]
  1e000331b8:	b9411405 	ldr	w5, [x0, #276]
  1e000331bc:	36efffe5 	tbz	w5, #29, 1e000331b8 <cmu_blk_dram_init_evt0+0xd0>
  1e000331c0:	b9400805 	ldr	w5, [x0, #8]
  1e000331c4:	33004c45 	bfxil	w5, w2, #0, #20
  1e000331c8:	b9000805 	str	w5, [x0, #8]
  1e000331cc:	b9413405 	ldr	w5, [x0, #308]
  1e000331d0:	33003cc5 	bfxil	w5, w6, #0, #16
  1e000331d4:	b9013405 	str	w5, [x0, #308]
  1e000331d8:	b9412805 	ldr	w5, [x0, #296]
  1e000331dc:	33181465 	bfi	w5, w3, #8, #6
  1e000331e0:	b9012805 	str	w5, [x0, #296]
  1e000331e4:	b9412805 	ldr	w5, [x0, #296]
  1e000331e8:	33102485 	bfi	w5, w4, #16, #10
  1e000331ec:	b9012805 	str	w5, [x0, #296]
  1e000331f0:	b9412805 	ldr	w5, [x0, #296]
  1e000331f4:	33000825 	bfxil	w5, w1, #0, #3
  1e000331f8:	b9012805 	str	w5, [x0, #296]
  1e000331fc:	b9412805 	ldr	w5, [x0, #296]
  1e00033200:	320100a5 	orr	w5, w5, #0x80000000
  1e00033204:	b9012805 	str	w5, [x0, #296]
  1e00033208:	b9412805 	ldr	w5, [x0, #296]
  1e0003320c:	36efffe5 	tbz	w5, #29, 1e00033208 <cmu_blk_dram_init_evt0+0x120>
  1e00033210:	b9400c05 	ldr	w5, [x0, #12]
  1e00033214:	33004c45 	bfxil	w5, w2, #0, #20
  1e00033218:	b9000c05 	str	w5, [x0, #12]
  1e0003321c:	b9414802 	ldr	w2, [x0, #328]
  1e00033220:	33003cc2 	bfxil	w2, w6, #0, #16
  1e00033224:	b9014802 	str	w2, [x0, #328]
  1e00033228:	b9413c02 	ldr	w2, [x0, #316]
  1e0003322c:	33181462 	bfi	w2, w3, #8, #6
  1e00033230:	b9013c02 	str	w2, [x0, #316]
  1e00033234:	b9413c02 	ldr	w2, [x0, #316]
  1e00033238:	33102482 	bfi	w2, w4, #16, #10
  1e0003323c:	b9013c02 	str	w2, [x0, #316]
  1e00033240:	b9413c02 	ldr	w2, [x0, #316]
  1e00033244:	33000822 	bfxil	w2, w1, #0, #3
  1e00033248:	b9013c02 	str	w2, [x0, #316]
  1e0003324c:	b9413c01 	ldr	w1, [x0, #316]
  1e00033250:	32010021 	orr	w1, w1, #0x80000000
  1e00033254:	b9013c01 	str	w1, [x0, #316]
  1e00033258:	b9413c01 	ldr	w1, [x0, #316]
  1e0003325c:	36efffe1 	tbz	w1, #29, 1e00033258 <cmu_blk_dram_init_evt0+0x170>
  1e00033260:	b9580002 	ldr	w2, [x0, #6144]
  1e00033264:	52800021 	mov	w1, #0x1                   	// #1
  1e00033268:	33000c22 	bfxil	w2, w1, #0, #4
  1e0003326c:	b9180002 	str	w2, [x0, #6144]
  1e00033270:	b9580802 	ldr	w2, [x0, #6152]
  1e00033274:	33000c22 	bfxil	w2, w1, #0, #4
  1e00033278:	b9180802 	str	w2, [x0, #6152]
  1e0003327c:	b9581002 	ldr	w2, [x0, #6160]
  1e00033280:	33000c22 	bfxil	w2, w1, #0, #4
  1e00033284:	b9181002 	str	w2, [x0, #6160]
  1e00033288:	b9581802 	ldr	w2, [x0, #6168]
  1e0003328c:	33000c22 	bfxil	w2, w1, #0, #4
  1e00033290:	b9181802 	str	w2, [x0, #6168]
  1e00033294:	528000e2 	mov	w2, #0x7                   	// #7
  1e00033298:	b9580403 	ldr	w3, [x0, #6148]
  1e0003329c:	33000c43 	bfxil	w3, w2, #0, #4
  1e000332a0:	b9180403 	str	w3, [x0, #6148]
  1e000332a4:	b9580c03 	ldr	w3, [x0, #6156]
  1e000332a8:	33000c43 	bfxil	w3, w2, #0, #4
  1e000332ac:	b9180c03 	str	w3, [x0, #6156]
  1e000332b0:	b9581403 	ldr	w3, [x0, #6164]
  1e000332b4:	33000c43 	bfxil	w3, w2, #0, #4
  1e000332b8:	b9181403 	str	w3, [x0, #6164]
  1e000332bc:	b9581c03 	ldr	w3, [x0, #6172]
  1e000332c0:	33000c43 	bfxil	w3, w2, #0, #4
  1e000332c4:	b9181c03 	str	w3, [x0, #6172]
  1e000332c8:	b9586002 	ldr	w2, [x0, #6240]
  1e000332cc:	33000c22 	bfxil	w2, w1, #0, #4
  1e000332d0:	b9186002 	str	w2, [x0, #6240]
  1e000332d4:	b9410001 	ldr	w1, [x0, #256]
  1e000332d8:	321c0021 	orr	w1, w1, #0x10
  1e000332dc:	b9010001 	str	w1, [x0, #256]
  1e000332e0:	b9410001 	ldr	w1, [x0, #256]
  1e000332e4:	373fffe1 	tbnz	w1, #7, 1e000332e0 <cmu_blk_dram_init_evt0+0x1f8>
  1e000332e8:	b9411401 	ldr	w1, [x0, #276]
  1e000332ec:	321c0021 	orr	w1, w1, #0x10
  1e000332f0:	b9011401 	str	w1, [x0, #276]
  1e000332f4:	b9411401 	ldr	w1, [x0, #276]
  1e000332f8:	373fffe1 	tbnz	w1, #7, 1e000332f4 <cmu_blk_dram_init_evt0+0x20c>
  1e000332fc:	b9412801 	ldr	w1, [x0, #296]
  1e00033300:	321c0021 	orr	w1, w1, #0x10
  1e00033304:	b9012801 	str	w1, [x0, #296]
  1e00033308:	b9412801 	ldr	w1, [x0, #296]
  1e0003330c:	373fffe1 	tbnz	w1, #7, 1e00033308 <cmu_blk_dram_init_evt0+0x220>
  1e00033310:	b9413c01 	ldr	w1, [x0, #316]
  1e00033314:	321c0021 	orr	w1, w1, #0x10
  1e00033318:	b9013c01 	str	w1, [x0, #316]
  1e0003331c:	b9413c01 	ldr	w1, [x0, #316]
  1e00033320:	373fffe1 	tbnz	w1, #7, 1e0003331c <cmu_blk_dram_init_evt0+0x234>
  1e00033324:	d65f03c0 	ret

0000001e00033328 <cmu_blk_dram_init_evt1>:
  1e00033328:	2a0103e1 	mov	w1, w1
  1e0003332c:	b0000042 	adrp	x2, 1e0003c000 <vsnprintf+0x270>
  1e00033330:	9118d042 	add	x2, x2, #0x634
  1e00033334:	d2800283 	mov	x3, #0x14                  	// #20
  1e00033338:	b9400004 	ldr	w4, [x0]
  1e0003333c:	9b030821 	madd	x1, x1, x3, x2
  1e00033340:	52803e82 	mov	w2, #0x1f4                 	// #500
  1e00033344:	b9400423 	ldr	w3, [x1, #4]
  1e00033348:	79402026 	ldrh	w6, [x1, #16]
  1e0003334c:	1b027c62 	mul	w2, w3, w2
  1e00033350:	12001463 	and	w3, w3, #0x3f
  1e00033354:	121e4442 	and	w2, w2, #0xffffc
  1e00033358:	33004c44 	bfxil	w4, w2, #0, #20
  1e0003335c:	b9000004 	str	w4, [x0]
  1e00033360:	b9410c04 	ldr	w4, [x0, #268]
  1e00033364:	33003cc4 	bfxil	w4, w6, #0, #16
  1e00033368:	b9010c04 	str	w4, [x0, #268]
  1e0003336c:	b9410004 	ldr	w4, [x0, #256]
  1e00033370:	33181464 	bfi	w4, w3, #8, #6
  1e00033374:	b9010004 	str	w4, [x0, #256]
  1e00033378:	29410424 	ldp	w4, w1, [x1, #8]
  1e0003337c:	b9410005 	ldr	w5, [x0, #256]
  1e00033380:	12002484 	and	w4, w4, #0x3ff
  1e00033384:	12000821 	and	w1, w1, #0x7
  1e00033388:	33102485 	bfi	w5, w4, #16, #10
  1e0003338c:	b9010005 	str	w5, [x0, #256]
  1e00033390:	b9410005 	ldr	w5, [x0, #256]
  1e00033394:	33000825 	bfxil	w5, w1, #0, #3
  1e00033398:	b9010005 	str	w5, [x0, #256]
  1e0003339c:	b9410005 	ldr	w5, [x0, #256]
  1e000333a0:	320100a5 	orr	w5, w5, #0x80000000
  1e000333a4:	b9010005 	str	w5, [x0, #256]
  1e000333a8:	b9410005 	ldr	w5, [x0, #256]
  1e000333ac:	36efffe5 	tbz	w5, #29, 1e000333a8 <cmu_blk_dram_init_evt1+0x80>
  1e000333b0:	b9400405 	ldr	w5, [x0, #4]
  1e000333b4:	33004c45 	bfxil	w5, w2, #0, #20
  1e000333b8:	b9000405 	str	w5, [x0, #4]
  1e000333bc:	b9412005 	ldr	w5, [x0, #288]
  1e000333c0:	33003cc5 	bfxil	w5, w6, #0, #16
  1e000333c4:	b9012005 	str	w5, [x0, #288]
  1e000333c8:	b9411405 	ldr	w5, [x0, #276]
  1e000333cc:	33181465 	bfi	w5, w3, #8, #6
  1e000333d0:	b9011405 	str	w5, [x0, #276]
  1e000333d4:	b9411405 	ldr	w5, [x0, #276]
  1e000333d8:	33102485 	bfi	w5, w4, #16, #10
  1e000333dc:	b9011405 	str	w5, [x0, #276]
  1e000333e0:	b9411405 	ldr	w5, [x0, #276]
  1e000333e4:	33000825 	bfxil	w5, w1, #0, #3
  1e000333e8:	b9011405 	str	w5, [x0, #276]
  1e000333ec:	b9411405 	ldr	w5, [x0, #276]
  1e000333f0:	320100a5 	orr	w5, w5, #0x80000000
  1e000333f4:	b9011405 	str	w5, [x0, #276]
  1e000333f8:	b9411405 	ldr	w5, [x0, #276]
  1e000333fc:	36efffe5 	tbz	w5, #29, 1e000333f8 <cmu_blk_dram_init_evt1+0xd0>
  1e00033400:	b9400805 	ldr	w5, [x0, #8]
  1e00033404:	33004c45 	bfxil	w5, w2, #0, #20
  1e00033408:	b9000805 	str	w5, [x0, #8]
  1e0003340c:	b9413405 	ldr	w5, [x0, #308]
  1e00033410:	33003cc5 	bfxil	w5, w6, #0, #16
  1e00033414:	b9013405 	str	w5, [x0, #308]
  1e00033418:	b9412805 	ldr	w5, [x0, #296]
  1e0003341c:	33181465 	bfi	w5, w3, #8, #6
  1e00033420:	b9012805 	str	w5, [x0, #296]
  1e00033424:	b9412805 	ldr	w5, [x0, #296]
  1e00033428:	33102485 	bfi	w5, w4, #16, #10
  1e0003342c:	b9012805 	str	w5, [x0, #296]
  1e00033430:	b9412805 	ldr	w5, [x0, #296]
  1e00033434:	33000825 	bfxil	w5, w1, #0, #3
  1e00033438:	b9012805 	str	w5, [x0, #296]
  1e0003343c:	b9412805 	ldr	w5, [x0, #296]
  1e00033440:	320100a5 	orr	w5, w5, #0x80000000
  1e00033444:	b9012805 	str	w5, [x0, #296]
  1e00033448:	b9412805 	ldr	w5, [x0, #296]
  1e0003344c:	36efffe5 	tbz	w5, #29, 1e00033448 <cmu_blk_dram_init_evt1+0x120>
  1e00033450:	b9400c05 	ldr	w5, [x0, #12]
  1e00033454:	33004c45 	bfxil	w5, w2, #0, #20
  1e00033458:	b9000c05 	str	w5, [x0, #12]
  1e0003345c:	b9414802 	ldr	w2, [x0, #328]
  1e00033460:	33003cc2 	bfxil	w2, w6, #0, #16
  1e00033464:	b9014802 	str	w2, [x0, #328]
  1e00033468:	b9413c02 	ldr	w2, [x0, #316]
  1e0003346c:	33181462 	bfi	w2, w3, #8, #6
  1e00033470:	b9013c02 	str	w2, [x0, #316]
  1e00033474:	b9413c02 	ldr	w2, [x0, #316]
  1e00033478:	33102482 	bfi	w2, w4, #16, #10
  1e0003347c:	b9013c02 	str	w2, [x0, #316]
  1e00033480:	b9413c02 	ldr	w2, [x0, #316]
  1e00033484:	33000822 	bfxil	w2, w1, #0, #3
  1e00033488:	b9013c02 	str	w2, [x0, #316]
  1e0003348c:	b9413c01 	ldr	w1, [x0, #316]
  1e00033490:	32010021 	orr	w1, w1, #0x80000000
  1e00033494:	b9013c01 	str	w1, [x0, #316]
  1e00033498:	b9413c01 	ldr	w1, [x0, #316]
  1e0003349c:	36efffe1 	tbz	w1, #29, 1e00033498 <cmu_blk_dram_init_evt1+0x170>
  1e000334a0:	b9580001 	ldr	w1, [x0, #6144]
  1e000334a4:	121c6c21 	and	w1, w1, #0xfffffff0
  1e000334a8:	b9180001 	str	w1, [x0, #6144]
  1e000334ac:	b9580801 	ldr	w1, [x0, #6152]
  1e000334b0:	121c6c21 	and	w1, w1, #0xfffffff0
  1e000334b4:	b9180801 	str	w1, [x0, #6152]
  1e000334b8:	b9581001 	ldr	w1, [x0, #6160]
  1e000334bc:	121c6c21 	and	w1, w1, #0xfffffff0
  1e000334c0:	b9181001 	str	w1, [x0, #6160]
  1e000334c4:	b9581801 	ldr	w1, [x0, #6168]
  1e000334c8:	121c6c21 	and	w1, w1, #0xfffffff0
  1e000334cc:	b9181801 	str	w1, [x0, #6168]
  1e000334d0:	52800061 	mov	w1, #0x3                   	// #3
  1e000334d4:	b9580402 	ldr	w2, [x0, #6148]
  1e000334d8:	33000c22 	bfxil	w2, w1, #0, #4
  1e000334dc:	b9180402 	str	w2, [x0, #6148]
  1e000334e0:	b9580c02 	ldr	w2, [x0, #6156]
  1e000334e4:	33000c22 	bfxil	w2, w1, #0, #4
  1e000334e8:	b9180c02 	str	w2, [x0, #6156]
  1e000334ec:	b9581402 	ldr	w2, [x0, #6164]
  1e000334f0:	33000c22 	bfxil	w2, w1, #0, #4
  1e000334f4:	b9181402 	str	w2, [x0, #6164]
  1e000334f8:	b9581c02 	ldr	w2, [x0, #6172]
  1e000334fc:	33000c22 	bfxil	w2, w1, #0, #4
  1e00033500:	b9181c02 	str	w2, [x0, #6172]
  1e00033504:	52800022 	mov	w2, #0x1                   	// #1
  1e00033508:	b9586001 	ldr	w1, [x0, #6240]
  1e0003350c:	33000c41 	bfxil	w1, w2, #0, #4
  1e00033510:	b9186001 	str	w1, [x0, #6240]
  1e00033514:	b9410001 	ldr	w1, [x0, #256]
  1e00033518:	321c0021 	orr	w1, w1, #0x10
  1e0003351c:	b9010001 	str	w1, [x0, #256]
  1e00033520:	b9410001 	ldr	w1, [x0, #256]
  1e00033524:	373fffe1 	tbnz	w1, #7, 1e00033520 <cmu_blk_dram_init_evt1+0x1f8>
  1e00033528:	b9411401 	ldr	w1, [x0, #276]
  1e0003352c:	321c0021 	orr	w1, w1, #0x10
  1e00033530:	b9011401 	str	w1, [x0, #276]
  1e00033534:	b9411401 	ldr	w1, [x0, #276]
  1e00033538:	373fffe1 	tbnz	w1, #7, 1e00033534 <cmu_blk_dram_init_evt1+0x20c>
  1e0003353c:	b9412801 	ldr	w1, [x0, #296]
  1e00033540:	321c0021 	orr	w1, w1, #0x10
  1e00033544:	b9012801 	str	w1, [x0, #296]
  1e00033548:	b9412801 	ldr	w1, [x0, #296]
  1e0003354c:	373fffe1 	tbnz	w1, #7, 1e00033548 <cmu_blk_dram_init_evt1+0x220>
  1e00033550:	b9413c01 	ldr	w1, [x0, #316]
  1e00033554:	321c0021 	orr	w1, w1, #0x10
  1e00033558:	b9013c01 	str	w1, [x0, #316]
  1e0003355c:	b9413c01 	ldr	w1, [x0, #316]
  1e00033560:	373fffe1 	tbnz	w1, #7, 1e0003355c <cmu_blk_dram_init_evt1+0x234>
  1e00033564:	d65f03c0 	ret

0000001e00033568 <cmu_blk_dram_init_evt0_by_freq>:
  1e00033568:	a9bf7bfd 	stp	x29, x30, [sp, #-16]!
  1e0003356c:	aa0003e5 	mov	x5, x0
  1e00033570:	b0000040 	adrp	x0, 1e0003c000 <vsnprintf+0x270>
  1e00033574:	910003fd 	mov	x29, sp
  1e00033578:	9118d000 	add	x0, x0, #0x634
  1e0003357c:	97fffbd7 	bl	1e000324d8 <cmu_find_pll_lvl>
  1e00033580:	36f80040 	tbz	w0, #31, 1e00033588 <cmu_blk_dram_init_evt0_by_freq+0x20>
  1e00033584:	9400201f 	bl	1e0003b600 <__assert>
  1e00033588:	a8c17bfd 	ldp	x29, x30, [sp], #16
  1e0003358c:	2a0003e1 	mov	w1, w0
  1e00033590:	aa0503e0 	mov	x0, x5
  1e00033594:	17fffed5 	b	1e000330e8 <cmu_blk_dram_init_evt0>

0000001e00033598 <cmu_blk_dram_init_evt1_by_freq>:
  1e00033598:	a9bf7bfd 	stp	x29, x30, [sp, #-16]!
  1e0003359c:	aa0003e5 	mov	x5, x0
  1e000335a0:	b0000040 	adrp	x0, 1e0003c000 <vsnprintf+0x270>
  1e000335a4:	910003fd 	mov	x29, sp
  1e000335a8:	9118d000 	add	x0, x0, #0x634
  1e000335ac:	97fffbcb 	bl	1e000324d8 <cmu_find_pll_lvl>
  1e000335b0:	36f80040 	tbz	w0, #31, 1e000335b8 <cmu_blk_dram_init_evt1_by_freq+0x20>
  1e000335b4:	94002013 	bl	1e0003b600 <__assert>
  1e000335b8:	a8c17bfd 	ldp	x29, x30, [sp], #16
  1e000335bc:	2a0003e1 	mov	w1, w0
  1e000335c0:	aa0503e0 	mov	x0, x5
  1e000335c4:	17ffff59 	b	1e00033328 <cmu_blk_dram_init_evt1>

0000001e000335c8 <cmu_init_bl2>:
  1e000335c8:	a9be7bfd 	stp	x29, x30, [sp, #-32]!
  1e000335cc:	d2820289 	mov	x9, #0x1014                	// #4116
  1e000335d0:	f2a004a9 	movk	x9, #0x25, lsl #16
  1e000335d4:	910003fd 	mov	x29, sp
  1e000335d8:	a90153f3 	stp	x19, x20, [sp, #16]
  1e000335dc:	f2c003c9 	movk	x9, #0x1e, lsl #32
  1e000335e0:	aa0003f3 	mov	x19, x0
  1e000335e4:	b4000400 	cbz	x0, 1e00033664 <cmu_init_bl2+0x9c>
  1e000335e8:	d2be2004 	mov	x4, #0xf1000000            	// #4043309056
  1e000335ec:	f2c003e4 	movk	x4, #0x1f, lsl #32
  1e000335f0:	8b040000 	add	x0, x0, x4
  1e000335f4:	97fffbc6 	bl	1e0003250c <cmu_blk_cp_init>
  1e000335f8:	d1780080 	sub	x0, x4, #0xe00, lsl #12
  1e000335fc:	8b000260 	add	x0, x19, x0
  1e00033600:	97fffc6b 	bl	1e000327ac <cmu_blk_rot_init>
  1e00033604:	d2bf2000 	mov	x0, #0xf9000000            	// #4177526784
  1e00033608:	f2c003e0 	movk	x0, #0x1f, lsl #32
  1e0003360c:	8b000260 	add	x0, x19, x0
  1e00033610:	97fffc9d 	bl	1e00032884 <cmu_blk_peri_init>
  1e00033614:	b0000040 	adrp	x0, 1e0003c000 <vsnprintf+0x270>
  1e00033618:	52800021 	mov	w1, #0x1                   	// #1
  1e0003361c:	911a6000 	add	x0, x0, #0x698
  1e00033620:	97fffbae 	bl	1e000324d8 <cmu_find_pll_lvl>
  1e00033624:	2a0003e1 	mov	w1, w0
  1e00033628:	36f80040 	tbz	w0, #31, 1e00033630 <cmu_init_bl2+0x68>
  1e0003362c:	94001ff5 	bl	1e0003b600 <__assert>
  1e00033630:	aa1303e0 	mov	x0, x19
  1e00033634:	97fffcb6 	bl	1e0003290c <cmu_top_bus>
  1e00033638:	b9400120 	ldr	w0, [x9]
  1e0003363c:	52a02001 	mov	w1, #0x1000000             	// #16777216
  1e00033640:	12080c00 	and	w0, w0, #0xf000000
  1e00033644:	6b01001f 	cmp	w0, w1
  1e00033648:	540000e1 	b.ne	1e00033664 <cmu_init_bl2+0x9c>  // b.any
  1e0003364c:	d2c00c00 	mov	x0, #0x6000000000          	// #412316860416
  1e00033650:	eb00027f 	cmp	x19, x0
  1e00033654:	54000081 	b.ne	1e00033664 <cmu_init_bl2+0x9c>  // b.any
  1e00033658:	d2bf0200 	mov	x0, #0xf8100000            	// #4161798144
  1e0003365c:	f2c00fe0 	movk	x0, #0x7f, lsl #32
  1e00033660:	97fffc16 	bl	1e000326b8 <cmu_blk_pcie_init>
  1e00033664:	52800021 	mov	w1, #0x1                   	// #1
  1e00033668:	b0000040 	adrp	x0, 1e0003c000 <vsnprintf+0x270>
  1e0003366c:	9118d000 	add	x0, x0, #0x634
  1e00033670:	97fffb9a 	bl	1e000324d8 <cmu_find_pll_lvl>
  1e00033674:	2a0003e4 	mov	w4, w0
  1e00033678:	37fffda0 	tbnz	w0, #31, 1e0003362c <cmu_init_bl2+0x64>
  1e0003367c:	d2be3000 	mov	x0, #0xf1800000            	// #4051697664
  1e00033680:	f2c003e0 	movk	x0, #0x1f, lsl #32
  1e00033684:	8b000260 	add	x0, x19, x0
  1e00033688:	97fffba1 	bl	1e0003250c <cmu_blk_cp_init>
  1e0003368c:	d2bf3000 	mov	x0, #0xf9800000            	// #4185915392
  1e00033690:	f2c003e0 	movk	x0, #0x1f, lsl #32
  1e00033694:	8b000260 	add	x0, x19, x0
  1e00033698:	97fffc7b 	bl	1e00032884 <cmu_blk_peri_init>
  1e0003369c:	d2bee000 	mov	x0, #0xf7000000            	// #4143972352
  1e000336a0:	b9400121 	ldr	w1, [x9]
  1e000336a4:	f2c003e0 	movk	x0, #0x1f, lsl #32
  1e000336a8:	8b000260 	add	x0, x19, x0
  1e000336ac:	72080c3f 	tst	w1, #0xf000000
  1e000336b0:	2a0403e1 	mov	w1, w4
  1e000336b4:	54000161 	b.ne	1e000336e0 <cmu_init_bl2+0x118>  // b.any
  1e000336b8:	97fffe8c 	bl	1e000330e8 <cmu_blk_dram_init_evt0>
  1e000336bc:	d2be4214 	mov	x20, #0xf2100000            	// #4061134848
  1e000336c0:	f2c003f4 	movk	x20, #0x1f, lsl #32
  1e000336c4:	8b140260 	add	x0, x19, x20
  1e000336c8:	97fffdda 	bl	1e00032e30 <cmu_blk_dcl_init>
  1e000336cc:	91600280 	add	x0, x20, #0x800, lsl #12
  1e000336d0:	8b000260 	add	x0, x19, x0
  1e000336d4:	a94153f3 	ldp	x19, x20, [sp, #16]
  1e000336d8:	a8c27bfd 	ldp	x29, x30, [sp], #32
  1e000336dc:	17fffdd5 	b	1e00032e30 <cmu_blk_dcl_init>
  1e000336e0:	97ffff12 	bl	1e00033328 <cmu_blk_dram_init_evt1>
  1e000336e4:	17fffff6 	b	1e000336bc <cmu_init_bl2+0xf4>

0000001e000336e8 <console_is_registered>:
  1e000336e8:	b5000080 	cbnz	x0, 1e000336f8 <console_is_registered+0x10>
  1e000336ec:	a9bf7bfd 	stp	x29, x30, [sp, #-16]!
  1e000336f0:	910003fd 	mov	x29, sp
  1e000336f4:	94001fc3 	bl	1e0003b600 <__assert>
  1e000336f8:	b0000081 	adrp	x1, 1e00044000 <__STACKS_START__+0x3bc0>
  1e000336fc:	f9469821 	ldr	x1, [x1, #3376]
  1e00033700:	b5000061 	cbnz	x1, 1e0003370c <console_is_registered+0x24>
  1e00033704:	52800000 	mov	w0, #0x0                   	// #0
  1e00033708:	d65f03c0 	ret
  1e0003370c:	eb00003f 	cmp	x1, x0
  1e00033710:	54000060 	b.eq	1e0003371c <console_is_registered+0x34>  // b.none
  1e00033714:	f9400021 	ldr	x1, [x1]
  1e00033718:	17fffffa 	b	1e00033700 <console_is_registered+0x18>
  1e0003371c:	52800020 	mov	w0, #0x1                   	// #1
  1e00033720:	d65f03c0 	ret

0000001e00033724 <console_register>:
  1e00033724:	a9be7bfd 	stp	x29, x30, [sp, #-32]!
  1e00033728:	910003fd 	mov	x29, sp
  1e0003372c:	f9000bf3 	str	x19, [sp, #16]
  1e00033730:	aa0003f3 	mov	x19, x0
  1e00033734:	b0000060 	adrp	x0, 1e00040000 <tx_lane+0x54c>
  1e00033738:	91110000 	add	x0, x0, #0x440
  1e0003373c:	eb00027f 	cmp	x19, x0
  1e00033740:	540000c3 	b.cc	1e00033758 <console_register+0x34>  // b.lo, b.ul, b.last
  1e00033744:	b0000080 	adrp	x0, 1e00044000 <__STACKS_START__+0x3bc0>
  1e00033748:	91110000 	add	x0, x0, #0x440
  1e0003374c:	eb00027f 	cmp	x19, x0
  1e00033750:	54000042 	b.cs	1e00033758 <console_register+0x34>  // b.hs, b.nlast
  1e00033754:	94001fab 	bl	1e0003b600 <__assert>
  1e00033758:	aa1303e0 	mov	x0, x19
  1e0003375c:	97ffffe3 	bl	1e000336e8 <console_is_registered>
  1e00033760:	7100041f 	cmp	w0, #0x1
  1e00033764:	540000a0 	b.eq	1e00033778 <console_register+0x54>  // b.none
  1e00033768:	b0000080 	adrp	x0, 1e00044000 <__STACKS_START__+0x3bc0>
  1e0003376c:	f9469801 	ldr	x1, [x0, #3376]
  1e00033770:	f9000261 	str	x1, [x19]
  1e00033774:	f9069813 	str	x19, [x0, #3376]
  1e00033778:	f9400bf3 	ldr	x19, [sp, #16]
  1e0003377c:	52800020 	mov	w0, #0x1                   	// #1
  1e00033780:	a8c27bfd 	ldp	x29, x30, [sp], #32
  1e00033784:	d65f03c0 	ret

0000001e00033788 <console_set_scope>:
  1e00033788:	b5000080 	cbnz	x0, 1e00033798 <console_set_scope+0x10>
  1e0003378c:	a9bf7bfd 	stp	x29, x30, [sp, #-16]!
  1e00033790:	910003fd 	mov	x29, sp
  1e00033794:	94001f9b 	bl	1e0003b600 <__assert>
  1e00033798:	f9400402 	ldr	x2, [x0, #8]
  1e0003379c:	2a0103e1 	mov	w1, w1
  1e000337a0:	9278dc42 	and	x2, x2, #0xffffffffffffff00
  1e000337a4:	aa010041 	orr	x1, x2, x1
  1e000337a8:	f9000401 	str	x1, [x0, #8]
  1e000337ac:	d65f03c0 	ret

0000001e000337b0 <console_putc>:
  1e000337b0:	a9bd7bfd 	stp	x29, x30, [sp, #-48]!
  1e000337b4:	910003fd 	mov	x29, sp
  1e000337b8:	a9025bf5 	stp	x21, x22, [sp, #32]
  1e000337bc:	2a0003f5 	mov	w21, w0
  1e000337c0:	b0000080 	adrp	x0, 1e00044000 <__STACKS_START__+0x3bc0>
  1e000337c4:	a90153f3 	stp	x19, x20, [sp, #16]
  1e000337c8:	90000076 	adrp	x22, 1e0003f000 <__RO_END__>
  1e000337cc:	910eb2d6 	add	x22, x22, #0x3ac
  1e000337d0:	f9469813 	ldr	x19, [x0, #3376]
  1e000337d4:	12800ff4 	mov	w20, #0xffffff80            	// #-128
  1e000337d8:	b50000d3 	cbnz	x19, 1e000337f0 <console_putc+0x40>
  1e000337dc:	a9425bf5 	ldp	x21, x22, [sp, #32]
  1e000337e0:	2a1403e0 	mov	w0, w20
  1e000337e4:	a94153f3 	ldp	x19, x20, [sp, #16]
  1e000337e8:	a8c37bfd 	ldp	x29, x30, [sp], #48
  1e000337ec:	d65f03c0 	ret
  1e000337f0:	f9400660 	ldr	x0, [x19, #8]
  1e000337f4:	b94002c1 	ldr	w1, [x22]
  1e000337f8:	ea00003f 	tst	x1, x0
  1e000337fc:	54000060 	b.eq	1e00033808 <console_putc+0x58>  // b.none
  1e00033800:	f9400a62 	ldr	x2, [x19, #16]
  1e00033804:	b50000a2 	cbnz	x2, 1e00033818 <console_putc+0x68>
  1e00033808:	2a1403e0 	mov	w0, w20
  1e0003380c:	f9400273 	ldr	x19, [x19]
  1e00033810:	2a0003f4 	mov	w20, w0
  1e00033814:	17fffff1 	b	1e000337d8 <console_putc+0x28>
  1e00033818:	71002abf 	cmp	w21, #0xa
  1e0003381c:	54000120 	b.eq	1e00033840 <console_putc+0x90>  // b.none
  1e00033820:	f9400a62 	ldr	x2, [x19, #16]
  1e00033824:	aa1303e1 	mov	x1, x19
  1e00033828:	2a1503e0 	mov	w0, w21
  1e0003382c:	d63f0040 	blr	x2
  1e00033830:	3102029f 	cmn	w20, #0x80
  1e00033834:	7a401280 	ccmp	w20, w0, #0x0, ne	// ne = any
  1e00033838:	54fffe8d 	b.le	1e00033808 <console_putc+0x58>
  1e0003383c:	17fffff4 	b	1e0003380c <console_putc+0x5c>
  1e00033840:	3647ff00 	tbz	w0, #8, 1e00033820 <console_putc+0x70>
  1e00033844:	aa1303e1 	mov	x1, x19
  1e00033848:	528001a0 	mov	w0, #0xd                   	// #13
  1e0003384c:	d63f0040 	blr	x2
  1e00033850:	36fffe80 	tbz	w0, #31, 1e00033820 <console_putc+0x70>
  1e00033854:	17fffff7 	b	1e00033830 <console_putc+0x80>

0000001e00033858 <putchar>:
  1e00033858:	a9be7bfd 	stp	x29, x30, [sp, #-32]!
  1e0003385c:	910003fd 	mov	x29, sp
  1e00033860:	f9000bf3 	str	x19, [sp, #16]
  1e00033864:	2a0003f3 	mov	w19, w0
  1e00033868:	97ffffd2 	bl	1e000337b0 <console_putc>
  1e0003386c:	7100001f 	cmp	w0, #0x0
  1e00033870:	5a9f0260 	csinv	w0, w19, wzr, eq	// eq = none
  1e00033874:	f9400bf3 	ldr	x19, [sp, #16]
  1e00033878:	a8c27bfd 	ldp	x29, x30, [sp], #32
  1e0003387c:	d65f03c0 	ret

0000001e00033880 <console_flush>:
  1e00033880:	a9be7bfd 	stp	x29, x30, [sp, #-32]!
  1e00033884:	b0000080 	adrp	x0, 1e00044000 <__STACKS_START__+0x3bc0>
  1e00033888:	910003fd 	mov	x29, sp
  1e0003388c:	a90153f3 	stp	x19, x20, [sp, #16]
  1e00033890:	90000074 	adrp	x20, 1e0003f000 <__RO_END__>
  1e00033894:	910eb294 	add	x20, x20, #0x3ac
  1e00033898:	f9469813 	ldr	x19, [x0, #3376]
  1e0003389c:	b5000093 	cbnz	x19, 1e000338ac <console_flush+0x2c>
  1e000338a0:	a94153f3 	ldp	x19, x20, [sp, #16]
  1e000338a4:	a8c27bfd 	ldp	x29, x30, [sp], #32
  1e000338a8:	d65f03c0 	ret
  1e000338ac:	f9400660 	ldr	x0, [x19, #8]
  1e000338b0:	b9400281 	ldr	w1, [x20]
  1e000338b4:	ea00003f 	tst	x1, x0
  1e000338b8:	540000a0 	b.eq	1e000338cc <console_flush+0x4c>  // b.none
  1e000338bc:	f9400e61 	ldr	x1, [x19, #24]
  1e000338c0:	b4000061 	cbz	x1, 1e000338cc <console_flush+0x4c>
  1e000338c4:	aa1303e0 	mov	x0, x19
  1e000338c8:	d63f0020 	blr	x1
  1e000338cc:	f9400273 	ldr	x19, [x19]
  1e000338d0:	17fffff3 	b	1e0003389c <console_flush+0x1c>

0000001e000338d4 <udelay>:
  1e000338d4:	a9bd7bfd 	stp	x29, x30, [sp, #-48]!
  1e000338d8:	910003fd 	mov	x29, sp
  1e000338dc:	f90013f5 	str	x21, [sp, #32]
  1e000338e0:	b0000095 	adrp	x21, 1e00044000 <__STACKS_START__+0x3bc0>
  1e000338e4:	a90153f3 	stp	x19, x20, [sp, #16]
  1e000338e8:	2a0003f3 	mov	w19, w0
  1e000338ec:	f9469ea0 	ldr	x0, [x21, #3384]
  1e000338f0:	b40000e0 	cbz	x0, 1e0003390c <udelay+0x38>
  1e000338f4:	b9400801 	ldr	w1, [x0, #8]
  1e000338f8:	340000a1 	cbz	w1, 1e0003390c <udelay+0x38>
  1e000338fc:	b9400c01 	ldr	w1, [x0, #12]
  1e00033900:	34000061 	cbz	w1, 1e0003390c <udelay+0x38>
  1e00033904:	f9400000 	ldr	x0, [x0]
  1e00033908:	b5000040 	cbnz	x0, 1e00033910 <udelay+0x3c>
  1e0003390c:	94001f3d 	bl	1e0003b600 <__assert>
  1e00033910:	d63f0000 	blr	x0
  1e00033914:	2a0003f4 	mov	w20, w0
  1e00033918:	f9469ea1 	ldr	x1, [x21, #3384]
  1e0003391c:	29410420 	ldp	w0, w1, [x1, #8]
  1e00033920:	d1000402 	sub	x2, x0, #0x1
  1e00033924:	9ba10a73 	umaddl	x19, w19, w1, x2
  1e00033928:	9ac00a73 	udiv	x19, x19, x0
  1e0003392c:	12807d20 	mov	w0, #0xfffffc16            	// #-1002
  1e00033930:	91000673 	add	x19, x19, #0x1
  1e00033934:	eb00027f 	cmp	x19, x0
  1e00033938:	54fffea8 	b.hi	1e0003390c <udelay+0x38>  // b.pmore
  1e0003393c:	f9469ea0 	ldr	x0, [x21, #3384]
  1e00033940:	f9400000 	ldr	x0, [x0]
  1e00033944:	d63f0000 	blr	x0
  1e00033948:	4b000281 	sub	w1, w20, w0
  1e0003394c:	eb13003f 	cmp	x1, x19
  1e00033950:	54ffff63 	b.cc	1e0003393c <udelay+0x68>  // b.lo, b.ul, b.last
  1e00033954:	a94153f3 	ldp	x19, x20, [sp, #16]
  1e00033958:	f94013f5 	ldr	x21, [sp, #32]
  1e0003395c:	a8c37bfd 	ldp	x29, x30, [sp], #48
  1e00033960:	d65f03c0 	ret

0000001e00033964 <mdelay>:
  1e00033964:	52807d01 	mov	w1, #0x3e8                 	// #1000
  1e00033968:	b27f7be2 	mov	x2, #0xfffffffe            	// #4294967294
  1e0003396c:	9ba17c03 	umull	x3, w0, w1
  1e00033970:	eb02007f 	cmp	x3, x2
  1e00033974:	54000089 	b.ls	1e00033984 <mdelay+0x20>  // b.plast
  1e00033978:	a9bf7bfd 	stp	x29, x30, [sp, #-16]!
  1e0003397c:	910003fd 	mov	x29, sp
  1e00033980:	94001f20 	bl	1e0003b600 <__assert>
  1e00033984:	1b017c00 	mul	w0, w0, w1
  1e00033988:	17ffffd3 	b	1e000338d4 <udelay>

0000001e0003398c <timer_init>:
  1e0003398c:	b40000e0 	cbz	x0, 1e000339a8 <timer_init+0x1c>
  1e00033990:	b9400801 	ldr	w1, [x0, #8]
  1e00033994:	340000a1 	cbz	w1, 1e000339a8 <timer_init+0x1c>
  1e00033998:	b9400c01 	ldr	w1, [x0, #12]
  1e0003399c:	34000061 	cbz	w1, 1e000339a8 <timer_init+0x1c>
  1e000339a0:	f9400001 	ldr	x1, [x0]
  1e000339a4:	b5000081 	cbnz	x1, 1e000339b4 <timer_init+0x28>
  1e000339a8:	a9bf7bfd 	stp	x29, x30, [sp, #-16]!
  1e000339ac:	910003fd 	mov	x29, sp
  1e000339b0:	94001f14 	bl	1e0003b600 <__assert>
  1e000339b4:	b0000081 	adrp	x1, 1e00044000 <__STACKS_START__+0x3bc0>
  1e000339b8:	f9069c20 	str	x0, [x1, #3384]
  1e000339bc:	d65f03c0 	ret

0000001e000339c0 <generic_delay_timeout_init_us>:
  1e000339c0:	d53be002 	mrs	x2, cntfrq_el0
  1e000339c4:	d53be021 	mrs	x1, cntpct_el0
  1e000339c8:	2a0003e0 	mov	w0, w0
  1e000339cc:	9b027c00 	mul	x0, x0, x2
  1e000339d0:	d2884802 	mov	x2, #0x4240                	// #16960
  1e000339d4:	f2a001e2 	movk	x2, #0xf, lsl #16
  1e000339d8:	9ac20800 	udiv	x0, x0, x2
  1e000339dc:	8b010000 	add	x0, x0, x1
  1e000339e0:	d65f03c0 	ret

0000001e000339e4 <generic_delay_timeout_elapsed>:
  1e000339e4:	d53be021 	mrs	x1, cntpct_el0
  1e000339e8:	eb01001f 	cmp	x0, x1
  1e000339ec:	1a9f27e0 	cset	w0, cc	// cc = lo, ul, last
  1e000339f0:	d65f03c0 	ret

0000001e000339f4 <generic_delay_get_timer_value>:
  1e000339f4:	d53be020 	mrs	x0, cntpct_el0
  1e000339f8:	2a2003e0 	mvn	w0, w0
  1e000339fc:	d65f03c0 	ret

0000001e00033a00 <generic_delay_timer_init_args>:
  1e00033a00:	2a0003e4 	mov	w4, w0
  1e00033a04:	b0000083 	adrp	x3, 1e00044000 <__STACKS_START__+0x3bc0>
  1e00033a08:	91350060 	add	x0, x3, #0xd40
  1e00033a0c:	90000002 	adrp	x2, 1e00033000 <cmu_blk_dcl_init+0x1d0>
  1e00033a10:	9127d042 	add	x2, x2, #0x9f4
  1e00033a14:	f906a062 	str	x2, [x3, #3392]
  1e00033a18:	29010404 	stp	w4, w1, [x0, #8]
  1e00033a1c:	90000001 	adrp	x1, 1e00033000 <cmu_blk_dcl_init+0x1d0>
  1e00033a20:	91270021 	add	x1, x1, #0x9c0
  1e00033a24:	f9000801 	str	x1, [x0, #16]
  1e00033a28:	90000001 	adrp	x1, 1e00033000 <cmu_blk_dcl_init+0x1d0>
  1e00033a2c:	91279021 	add	x1, x1, #0x9e4
  1e00033a30:	f9000c01 	str	x1, [x0, #24]
  1e00033a34:	17ffffd6 	b	1e0003398c <timer_init>

0000001e00033a38 <generic_delay_timer_init>:
  1e00033a38:	a9bf7bfd 	stp	x29, x30, [sp, #-16]!
  1e00033a3c:	910003fd 	mov	x29, sp
  1e00033a40:	94001d6a 	bl	1e0003afe8 <plat_get_syscnt_freq2>
  1e00033a44:	2a0003e1 	mov	w1, w0
  1e00033a48:	52800142 	mov	w2, #0xa                   	// #10
  1e00033a4c:	1ac20800 	udiv	w0, w0, w2
  1e00033a50:	1b028400 	msub	w0, w0, w2, w1
  1e00033a54:	350001a0 	cbnz	w0, 1e00033a88 <generic_delay_timer_init+0x50>
  1e00033a58:	52884800 	mov	w0, #0x4240                	// #16960
  1e00033a5c:	72a001e0 	movk	w0, #0xf, lsl #16
  1e00033a60:	1ac20800 	udiv	w0, w0, w2
  1e00033a64:	1ac20821 	udiv	w1, w1, w2
  1e00033a68:	1ac20803 	udiv	w3, w0, w2
  1e00033a6c:	1ac20824 	udiv	w4, w1, w2
  1e00033a70:	1b028063 	msub	w3, w3, w2, w0
  1e00033a74:	1b028484 	msub	w4, w4, w2, w1
  1e00033a78:	2a040063 	orr	w3, w3, w4
  1e00033a7c:	34ffff23 	cbz	w3, 1e00033a60 <generic_delay_timer_init+0x28>
  1e00033a80:	a8c17bfd 	ldp	x29, x30, [sp], #16
  1e00033a84:	17ffffdf 	b	1e00033a00 <generic_delay_timer_init_args>
  1e00033a88:	52884800 	mov	w0, #0x4240                	// #16960
  1e00033a8c:	72a001e0 	movk	w0, #0xf, lsl #16
  1e00033a90:	17fffffc 	b	1e00033a80 <generic_delay_timer_init+0x48>

0000001e00033a94 <get_lotid_for_hbm>:
  1e00033a94:	a9bc7bfd 	stp	x29, x30, [sp, #-64]!
  1e00033a98:	d2820180 	mov	x0, #0x100c                	// #4108
  1e00033a9c:	f2a004a0 	movk	x0, #0x25, lsl #16
  1e00033aa0:	910003fd 	mov	x29, sp
  1e00033aa4:	f2c003c0 	movk	x0, #0x1e, lsl #32
  1e00033aa8:	b9003bff 	str	wzr, [sp, #56]
  1e00033aac:	79007bff 	strh	wzr, [sp, #60]
  1e00033ab0:	52800001 	mov	w1, #0x0                   	// #0
  1e00033ab4:	52800286 	mov	w6, #0x14                  	// #20
  1e00033ab8:	a90153f3 	stp	x19, x20, [sp, #16]
  1e00033abc:	297f8c04 	ldp	w4, w3, [x0, #-4]
  1e00033ac0:	52800000 	mov	w0, #0x0                   	// #0
  1e00033ac4:	f90013f5 	str	x21, [sp, #32]
  1e00033ac8:	12005084 	and	w4, w4, #0x1fffff
  1e00033acc:	4b0000c5 	sub	w5, w6, w0
  1e00033ad0:	1ac02482 	lsr	w2, w4, w0
  1e00033ad4:	12000042 	and	w2, w2, #0x1
  1e00033ad8:	11000400 	add	w0, w0, #0x1
  1e00033adc:	1ac52042 	lsl	w2, w2, w5
  1e00033ae0:	0b020021 	add	w1, w1, w2
  1e00033ae4:	7100541f 	cmp	w0, #0x15
  1e00033ae8:	54ffff21 	b.ne	1e00033acc <get_lotid_for_hbm+0x38>  // b.any
  1e00033aec:	d2800004 	mov	x4, #0x0                   	// #0
  1e00033af0:	2a0103e2 	mov	w2, w1
  1e00033af4:	52800001 	mov	w1, #0x0                   	// #0
  1e00033af8:	14000003 	b	1e00033b04 <get_lotid_for_hbm+0x70>
  1e00033afc:	51009042 	sub	w2, w2, #0x24
  1e00033b00:	11000421 	add	w1, w1, #0x1
  1e00033b04:	71008c5f 	cmp	w2, #0x23
  1e00033b08:	54ffffa8 	b.hi	1e00033afc <get_lotid_for_hbm+0x68>  // b.pmore
  1e00033b0c:	12001c40 	and	w0, w2, #0xff
  1e00033b10:	7100245f 	cmp	w2, #0x9
  1e00033b14:	9100e3e2 	add	x2, sp, #0x38
  1e00033b18:	1100c005 	add	w5, w0, #0x30
  1e00033b1c:	8b020082 	add	x2, x4, x2
  1e00033b20:	1100dc00 	add	w0, w0, #0x37
  1e00033b24:	12001ca5 	and	w5, w5, #0xff
  1e00033b28:	12001c00 	and	w0, w0, #0xff
  1e00033b2c:	1a858000 	csel	w0, w0, w5, hi	// hi = pmore
  1e00033b30:	d1000484 	sub	x4, x4, #0x1
  1e00033b34:	39001040 	strb	w0, [x2, #4]
  1e00033b38:	b100109f 	cmn	x4, #0x4
  1e00033b3c:	54fffda1 	b.ne	1e00033af0 <get_lotid_for_hbm+0x5c>  // b.any
  1e00033b40:	12160460 	and	w0, w3, #0xc00
  1e00033b44:	3900f7ff 	strb	wzr, [sp, #61]
  1e00033b48:	7120001f 	cmp	w0, #0x800
  1e00033b4c:	540003a0 	b.eq	1e00033bc0 <get_lotid_for_hbm+0x12c>  // b.none
  1e00033b50:	7130001f 	cmp	w0, #0xc00
  1e00033b54:	528008c1 	mov	w1, #0x46                  	// #70
  1e00033b58:	52800400 	mov	w0, #0x20                  	// #32
  1e00033b5c:	1a811000 	csel	w0, w0, w1, ne	// ne = any
  1e00033b60:	b0000054 	adrp	x20, 1e0003c000 <vsnprintf+0x270>
  1e00033b64:	91100294 	add	x20, x20, #0x400
  1e00033b68:	d2800013 	mov	x19, #0x0                   	// #0
  1e00033b6c:	9100e3e1 	add	x1, sp, #0x38
  1e00033b70:	3900e3e0 	strb	w0, [sp, #56]
  1e00033b74:	b0000040 	adrp	x0, 1e0003c000 <vsnprintf+0x270>
  1e00033b78:	9131f400 	add	x0, x0, #0xc7d
  1e00033b7c:	94002024 	bl	1e0003bc0c <printf>
  1e00033b80:	f8737a95 	ldr	x21, [x20, x19, lsl #3]
  1e00033b84:	aa1503e0 	mov	x0, x21
  1e00033b88:	940021eb 	bl	1e0003c334 <strlen>
  1e00033b8c:	aa1503e1 	mov	x1, x21
  1e00033b90:	aa0003e2 	mov	x2, x0
  1e00033b94:	9100e3e0 	add	x0, sp, #0x38
  1e00033b98:	940021ee 	bl	1e0003c350 <strncmp>
  1e00033b9c:	34000160 	cbz	w0, 1e00033bc8 <get_lotid_for_hbm+0x134>
  1e00033ba0:	91000673 	add	x19, x19, #0x1
  1e00033ba4:	f1000e7f 	cmp	x19, #0x3
  1e00033ba8:	54fffec1 	b.ne	1e00033b80 <get_lotid_for_hbm+0xec>  // b.any
  1e00033bac:	52800000 	mov	w0, #0x0                   	// #0
  1e00033bb0:	a94153f3 	ldp	x19, x20, [sp, #16]
  1e00033bb4:	f94013f5 	ldr	x21, [sp, #32]
  1e00033bb8:	a8c47bfd 	ldp	x29, x30, [sp], #64
  1e00033bbc:	d65f03c0 	ret
  1e00033bc0:	52800820 	mov	w0, #0x41                  	// #65
  1e00033bc4:	17ffffe7 	b	1e00033b60 <get_lotid_for_hbm+0xcc>
  1e00033bc8:	52800020 	mov	w0, #0x1                   	// #1
  1e00033bcc:	17fffff9 	b	1e00033bb0 <get_lotid_for_hbm+0x11c>

0000001e00033bd0 <phy_post_training>:
  1e00033bd0:	d37d1c21 	ubfiz	x1, x1, #3, #8
  1e00033bd4:	8b010002 	add	x2, x0, x1
  1e00033bd8:	f8616800 	ldr	x0, [x0, x1]
  1e00033bdc:	b9439401 	ldr	w1, [x0, #916]
  1e00033be0:	320b0021 	orr	w1, w1, #0x200000
  1e00033be4:	b9039401 	str	w1, [x0, #916]
  1e00033be8:	b940ac01 	ldr	w1, [x0, #172]
  1e00033bec:	120d7821 	and	w1, w1, #0xfffbffff
  1e00033bf0:	b900ac01 	str	w1, [x0, #172]
  1e00033bf4:	b9400401 	ldr	w1, [x0, #4]
  1e00033bf8:	32160021 	orr	w1, w1, #0x400
  1e00033bfc:	b9000401 	str	w1, [x0, #4]
  1e00033c00:	f9404040 	ldr	x0, [x2, #128]
  1e00033c04:	91401000 	add	x0, x0, #0x4, lsl #12
  1e00033c08:	b9505801 	ldr	w1, [x0, #4184]
  1e00033c0c:	32000021 	orr	w1, w1, #0x1
  1e00033c10:	b9105801 	str	w1, [x0, #4184]
  1e00033c14:	b9440001 	ldr	w1, [x0, #1024]
  1e00033c18:	32000021 	orr	w1, w1, #0x1
  1e00033c1c:	b9040001 	str	w1, [x0, #1024]
  1e00033c20:	b9442c01 	ldr	w1, [x0, #1068]
  1e00033c24:	3607ffe1 	tbz	w1, #0, 1e00033c20 <phy_post_training+0x50>
  1e00033c28:	d65f03c0 	ret

0000001e00033c2c <phy_find_read_training_fail_bit>:
  1e00033c2c:	92401c46 	and	x6, x2, #0xff
  1e00033c30:	d37d1c42 	ubfiz	x2, x2, #3, #8
  1e00033c34:	a9bf7bfd 	stp	x29, x30, [sp, #-16]!
  1e00033c38:	aa0003e7 	mov	x7, x0
  1e00033c3c:	910003fd 	mov	x29, sp
  1e00033c40:	f8626800 	ldr	x0, [x0, x2]
  1e00033c44:	b9465004 	ldr	w4, [x0, #1616]
  1e00033c48:	340007a4 	cbz	w4, 1e00033d3c <phy_find_read_training_fail_bit+0x110>
  1e00033c4c:	93407cc9 	sxtw	x9, w6
  1e00033c50:	d0000085 	adrp	x5, 1e00045000 <list+0x1e8>
  1e00033c54:	911880a5 	add	x5, x5, #0x620
  1e00033c58:	d280014a 	mov	x10, #0xa                   	// #10
  1e00033c5c:	b0000068 	adrp	x8, 1e00040000 <tx_lane+0x54c>
  1e00033c60:	9109a908 	add	x8, x8, #0x26a
  1e00033c64:	52800003 	mov	w3, #0x0                   	// #0
  1e00033c68:	52800000 	mov	w0, #0x0                   	// #0
  1e00033c6c:	9b0a1529 	madd	x9, x9, x10, x5
  1e00033c70:	1ac32485 	lsr	w5, w4, w3
  1e00033c74:	36000245 	tbz	w5, #0, 1e00033cbc <phy_find_read_training_fail_bit+0x90>
  1e00033c78:	3940310a 	ldrb	w10, [x8, #12]
  1e00033c7c:	7940150b 	ldrh	w11, [x8, #10]
  1e00033c80:	386a6925 	ldrb	w5, [x9, x10]
  1e00033c84:	71003cbf 	cmp	w5, #0xf
  1e00033c88:	54000160 	b.eq	1e00033cb4 <phy_find_read_training_fail_bit+0x88>  // b.none
  1e00033c8c:	6b0b00bf 	cmp	w5, w11
  1e00033c90:	54000120 	b.eq	1e00033cb4 <phy_find_read_training_fail_bit+0x88>  // b.none
  1e00033c94:	3100049f 	cmn	w4, #0x1
  1e00033c98:	54001641 	b.ne	1e00033f60 <phy_find_read_training_fail_bit+0x334>  // b.any
  1e00033c9c:	b0000040 	adrp	x0, 1e0003c000 <vsnprintf+0x270>
  1e00033ca0:	2a0403e3 	mov	w3, w4
  1e00033ca4:	2a0603e2 	mov	w2, w6
  1e00033ca8:	91326c00 	add	x0, x0, #0xc9b
  1e00033cac:	97fff842 	bl	1e00031db4 <tf_log>
  1e00033cb0:	14000020 	b	1e00033d30 <phy_find_read_training_fail_bit+0x104>
  1e00033cb4:	11000400 	add	w0, w0, #0x1
  1e00033cb8:	382a692b 	strb	w11, [x9, x10]
  1e00033cbc:	11000463 	add	w3, w3, #0x1
  1e00033cc0:	91003908 	add	x8, x8, #0xe
  1e00033cc4:	7100807f 	cmp	w3, #0x20
  1e00033cc8:	54fffd41 	b.ne	1e00033c70 <phy_find_read_training_fail_bit+0x44>  // b.any
  1e00033ccc:	f86268e3 	ldr	x3, [x7, x2]
  1e00033cd0:	b9465864 	ldr	w4, [x3, #1624]
  1e00033cd4:	d3482c84 	ubfx	x4, x4, #8, #4
  1e00033cd8:	34000424 	cbz	w4, 1e00033d5c <phy_find_read_training_fail_bit+0x130>
  1e00033cdc:	93407cc9 	sxtw	x9, w6
  1e00033ce0:	d0000085 	adrp	x5, 1e00045000 <list+0x1e8>
  1e00033ce4:	911880a5 	add	x5, x5, #0x620
  1e00033ce8:	d280014a 	mov	x10, #0xa                   	// #10
  1e00033cec:	b0000068 	adrp	x8, 1e00040000 <tx_lane+0x54c>
  1e00033cf0:	9107e908 	add	x8, x8, #0x1fa
  1e00033cf4:	52800003 	mov	w3, #0x0                   	// #0
  1e00033cf8:	9b0a1529 	madd	x9, x9, x10, x5
  1e00033cfc:	1ac32485 	lsr	w5, w4, w3
  1e00033d00:	36000265 	tbz	w5, #0, 1e00033d4c <phy_find_read_training_fail_bit+0x120>
  1e00033d04:	3940310a 	ldrb	w10, [x8, #12]
  1e00033d08:	7940150b 	ldrh	w11, [x8, #10]
  1e00033d0c:	386a6925 	ldrb	w5, [x9, x10]
  1e00033d10:	71003cbf 	cmp	w5, #0xf
  1e00033d14:	54000180 	b.eq	1e00033d44 <phy_find_read_training_fail_bit+0x118>  // b.none
  1e00033d18:	6b0b00bf 	cmp	w5, w11
  1e00033d1c:	54000140 	b.eq	1e00033d44 <phy_find_read_training_fail_bit+0x118>  // b.none
  1e00033d20:	b0000040 	adrp	x0, 1e0003c000 <vsnprintf+0x270>
  1e00033d24:	2a0603e2 	mov	w2, w6
  1e00033d28:	91346800 	add	x0, x0, #0xd1a
  1e00033d2c:	97fff822 	bl	1e00031db4 <tf_log>
  1e00033d30:	12800020 	mov	w0, #0xfffffffe            	// #-2
  1e00033d34:	a8c17bfd 	ldp	x29, x30, [sp], #16
  1e00033d38:	d65f03c0 	ret
  1e00033d3c:	52800000 	mov	w0, #0x0                   	// #0
  1e00033d40:	17ffffe3 	b	1e00033ccc <phy_find_read_training_fail_bit+0xa0>
  1e00033d44:	11000400 	add	w0, w0, #0x1
  1e00033d48:	382a692b 	strb	w11, [x9, x10]
  1e00033d4c:	11000463 	add	w3, w3, #0x1
  1e00033d50:	91003908 	add	x8, x8, #0xe
  1e00033d54:	7100107f 	cmp	w3, #0x4
  1e00033d58:	54fffd21 	b.ne	1e00033cfc <phy_find_read_training_fail_bit+0xd0>  // b.any
  1e00033d5c:	f86268e3 	ldr	x3, [x7, x2]
  1e00033d60:	b9465864 	ldr	w4, [x3, #1624]
  1e00033d64:	d3441484 	ubfx	x4, x4, #4, #2
  1e00033d68:	340005e4 	cbz	w4, 1e00033e24 <phy_find_read_training_fail_bit+0x1f8>
  1e00033d6c:	36000224 	tbz	w4, #0, 1e00033db0 <phy_find_read_training_fail_bit+0x184>
  1e00033d70:	93407cc8 	sxtw	x8, w6
  1e00033d74:	b0000069 	adrp	x9, 1e00040000 <tx_lane+0x54c>
  1e00033d78:	d0000083 	adrp	x3, 1e00045000 <list+0x1e8>
  1e00033d7c:	91093929 	add	x9, x9, #0x24e
  1e00033d80:	91188063 	add	x3, x3, #0x620
  1e00033d84:	d2800145 	mov	x5, #0xa                   	// #10
  1e00033d88:	3940312a 	ldrb	w10, [x9, #12]
  1e00033d8c:	9b050d05 	madd	x5, x8, x5, x3
  1e00033d90:	79401529 	ldrh	w9, [x9, #10]
  1e00033d94:	386a68a5 	ldrb	w5, [x5, x10]
  1e00033d98:	71003cbf 	cmp	w5, #0xf
  1e00033d9c:	54000341 	b.ne	1e00033e04 <phy_find_read_training_fail_bit+0x1d8>  // b.any
  1e00033da0:	d2800145 	mov	x5, #0xa                   	// #10
  1e00033da4:	11000400 	add	w0, w0, #0x1
  1e00033da8:	9b050d08 	madd	x8, x8, x5, x3
  1e00033dac:	382a6909 	strb	w9, [x8, x10]
  1e00033db0:	6b4407ff 	cmp	wzr, w4, lsr #1
  1e00033db4:	54000380 	b.eq	1e00033e24 <phy_find_read_training_fail_bit+0x1f8>  // b.none
  1e00033db8:	93407cc3 	sxtw	x3, w6
  1e00033dbc:	b0000069 	adrp	x9, 1e00040000 <tx_lane+0x54c>
  1e00033dc0:	d0000088 	adrp	x8, 1e00045000 <list+0x1e8>
  1e00033dc4:	91093929 	add	x9, x9, #0x24e
  1e00033dc8:	91188108 	add	x8, x8, #0x620
  1e00033dcc:	d2800145 	mov	x5, #0xa                   	// #10
  1e00033dd0:	3940692a 	ldrb	w10, [x9, #26]
  1e00033dd4:	9b052065 	madd	x5, x3, x5, x8
  1e00033dd8:	79403129 	ldrh	w9, [x9, #24]
  1e00033ddc:	386a68a5 	ldrb	w5, [x5, x10]
  1e00033de0:	71003cbf 	cmp	w5, #0xf
  1e00033de4:	54000180 	b.eq	1e00033e14 <phy_find_read_training_fail_bit+0x1e8>  // b.none
  1e00033de8:	6b0900bf 	cmp	w5, w9
  1e00033dec:	54000140 	b.eq	1e00033e14 <phy_find_read_training_fail_bit+0x1e8>  // b.none
  1e00033df0:	52800023 	mov	w3, #0x1                   	// #1
  1e00033df4:	b0000040 	adrp	x0, 1e0003c000 <vsnprintf+0x270>
  1e00033df8:	2a0603e2 	mov	w2, w6
  1e00033dfc:	91358000 	add	x0, x0, #0xd60
  1e00033e00:	17ffffcb 	b	1e00033d2c <phy_find_read_training_fail_bit+0x100>
  1e00033e04:	6b05013f 	cmp	w9, w5
  1e00033e08:	54fffcc0 	b.eq	1e00033da0 <phy_find_read_training_fail_bit+0x174>  // b.none
  1e00033e0c:	52800003 	mov	w3, #0x0                   	// #0
  1e00033e10:	17fffff9 	b	1e00033df4 <phy_find_read_training_fail_bit+0x1c8>
  1e00033e14:	d2800144 	mov	x4, #0xa                   	// #10
  1e00033e18:	11000400 	add	w0, w0, #0x1
  1e00033e1c:	9b042063 	madd	x3, x3, x4, x8
  1e00033e20:	382a6869 	strb	w9, [x3, x10]
  1e00033e24:	f86268e3 	ldr	x3, [x7, x2]
  1e00033e28:	b9465864 	ldr	w4, [x3, #1624]
  1e00033e2c:	72000484 	ands	w4, w4, #0x3
  1e00033e30:	540005e0 	b.eq	1e00033eec <phy_find_read_training_fail_bit+0x2c0>  // b.none
  1e00033e34:	36000224 	tbz	w4, #0, 1e00033e78 <phy_find_read_training_fail_bit+0x24c>
  1e00033e38:	93407cc8 	sxtw	x8, w6
  1e00033e3c:	b0000069 	adrp	x9, 1e00040000 <tx_lane+0x54c>
  1e00033e40:	d0000083 	adrp	x3, 1e00045000 <list+0x1e8>
  1e00033e44:	9108c929 	add	x9, x9, #0x232
  1e00033e48:	91188063 	add	x3, x3, #0x620
  1e00033e4c:	d2800145 	mov	x5, #0xa                   	// #10
  1e00033e50:	3940312a 	ldrb	w10, [x9, #12]
  1e00033e54:	9b050d05 	madd	x5, x8, x5, x3
  1e00033e58:	79401529 	ldrh	w9, [x9, #10]
  1e00033e5c:	386a68a5 	ldrb	w5, [x5, x10]
  1e00033e60:	71003cbf 	cmp	w5, #0xf
  1e00033e64:	54000341 	b.ne	1e00033ecc <phy_find_read_training_fail_bit+0x2a0>  // b.any
  1e00033e68:	d2800145 	mov	x5, #0xa                   	// #10
  1e00033e6c:	11000400 	add	w0, w0, #0x1
  1e00033e70:	9b050d08 	madd	x8, x8, x5, x3
  1e00033e74:	382a6909 	strb	w9, [x8, x10]
  1e00033e78:	6b4407ff 	cmp	wzr, w4, lsr #1
  1e00033e7c:	54000380 	b.eq	1e00033eec <phy_find_read_training_fail_bit+0x2c0>  // b.none
  1e00033e80:	93407cc3 	sxtw	x3, w6
  1e00033e84:	b0000069 	adrp	x9, 1e00040000 <tx_lane+0x54c>
  1e00033e88:	d0000088 	adrp	x8, 1e00045000 <list+0x1e8>
  1e00033e8c:	9108c929 	add	x9, x9, #0x232
  1e00033e90:	91188108 	add	x8, x8, #0x620
  1e00033e94:	d2800145 	mov	x5, #0xa                   	// #10
  1e00033e98:	3940692a 	ldrb	w10, [x9, #26]
  1e00033e9c:	9b052065 	madd	x5, x3, x5, x8
  1e00033ea0:	79403129 	ldrh	w9, [x9, #24]
  1e00033ea4:	386a68a5 	ldrb	w5, [x5, x10]
  1e00033ea8:	71003cbf 	cmp	w5, #0xf
  1e00033eac:	54000180 	b.eq	1e00033edc <phy_find_read_training_fail_bit+0x2b0>  // b.none
  1e00033eb0:	6b0900bf 	cmp	w5, w9
  1e00033eb4:	54000140 	b.eq	1e00033edc <phy_find_read_training_fail_bit+0x2b0>  // b.none
  1e00033eb8:	52800023 	mov	w3, #0x1                   	// #1
  1e00033ebc:	b0000040 	adrp	x0, 1e0003c000 <vsnprintf+0x270>
  1e00033ec0:	2a0603e2 	mov	w2, w6
  1e00033ec4:	91369800 	add	x0, x0, #0xda6
  1e00033ec8:	17ffff99 	b	1e00033d2c <phy_find_read_training_fail_bit+0x100>
  1e00033ecc:	6b05013f 	cmp	w9, w5
  1e00033ed0:	54fffcc0 	b.eq	1e00033e68 <phy_find_read_training_fail_bit+0x23c>  // b.none
  1e00033ed4:	52800003 	mov	w3, #0x0                   	// #0
  1e00033ed8:	17fffff9 	b	1e00033ebc <phy_find_read_training_fail_bit+0x290>
  1e00033edc:	d2800144 	mov	x4, #0xa                   	// #10
  1e00033ee0:	11000400 	add	w0, w0, #0x1
  1e00033ee4:	9b042063 	madd	x3, x3, x4, x8
  1e00033ee8:	382a6869 	strb	w9, [x3, x10]
  1e00033eec:	f86268e3 	ldr	x3, [x7, x2]
  1e00033ef0:	b9465463 	ldr	w3, [x3, #1620]
  1e00033ef4:	340004a3 	cbz	w3, 1e00033f88 <phy_find_read_training_fail_bit+0x35c>
  1e00033ef8:	93407cc9 	sxtw	x9, w6
  1e00033efc:	d0000084 	adrp	x4, 1e00045000 <list+0x1e8>
  1e00033f00:	91188084 	add	x4, x4, #0x620
  1e00033f04:	d2800145 	mov	x5, #0xa                   	// #10
  1e00033f08:	b0000068 	adrp	x8, 1e00040000 <tx_lane+0x54c>
  1e00033f0c:	9109a908 	add	x8, x8, #0x26a
  1e00033f10:	5280000a 	mov	w10, #0x0                   	// #0
  1e00033f14:	9b051129 	madd	x9, x9, x5, x4
  1e00033f18:	1aca2464 	lsr	w4, w3, w10
  1e00033f1c:	360002e4 	tbz	w4, #0, 1e00033f78 <phy_find_read_training_fail_bit+0x34c>
  1e00033f20:	39403104 	ldrb	w4, [x8, #12]
  1e00033f24:	7940150b 	ldrh	w11, [x8, #10]
  1e00033f28:	91001884 	add	x4, x4, #0x6
  1e00033f2c:	38646925 	ldrb	w5, [x9, x4]
  1e00033f30:	71003cbf 	cmp	w5, #0xf
  1e00033f34:	540001e0 	b.eq	1e00033f70 <phy_find_read_training_fail_bit+0x344>  // b.none
  1e00033f38:	6b0b00bf 	cmp	w5, w11
  1e00033f3c:	540001a0 	b.eq	1e00033f70 <phy_find_read_training_fail_bit+0x344>  // b.none
  1e00033f40:	3100047f 	cmn	w3, #0x1
  1e00033f44:	540000a1 	b.ne	1e00033f58 <phy_find_read_training_fail_bit+0x32c>  // b.any
  1e00033f48:	b0000040 	adrp	x0, 1e0003c000 <vsnprintf+0x270>
  1e00033f4c:	2a0603e2 	mov	w2, w6
  1e00033f50:	9137b000 	add	x0, x0, #0xdec
  1e00033f54:	17ffff56 	b	1e00033cac <phy_find_read_training_fail_bit+0x80>
  1e00033f58:	2a0303e4 	mov	w4, w3
  1e00033f5c:	11008143 	add	w3, w10, #0x20
  1e00033f60:	b0000040 	adrp	x0, 1e0003c000 <vsnprintf+0x270>
  1e00033f64:	2a0603e2 	mov	w2, w6
  1e00033f68:	91335400 	add	x0, x0, #0xcd5
  1e00033f6c:	17ffff70 	b	1e00033d2c <phy_find_read_training_fail_bit+0x100>
  1e00033f70:	11000400 	add	w0, w0, #0x1
  1e00033f74:	3824692b 	strb	w11, [x9, x4]
  1e00033f78:	1100054a 	add	w10, w10, #0x1
  1e00033f7c:	91003908 	add	x8, x8, #0xe
  1e00033f80:	7100815f 	cmp	w10, #0x20
  1e00033f84:	54fffca1 	b.ne	1e00033f18 <phy_find_read_training_fail_bit+0x2ec>  // b.any
  1e00033f88:	f86268e3 	ldr	x3, [x7, x2]
  1e00033f8c:	b9465864 	ldr	w4, [x3, #1624]
  1e00033f90:	d34c3c84 	ubfx	x4, x4, #12, #4
  1e00033f94:	34000364 	cbz	w4, 1e00034000 <phy_find_read_training_fail_bit+0x3d4>
  1e00033f98:	93407cc8 	sxtw	x8, w6
  1e00033f9c:	d0000085 	adrp	x5, 1e00045000 <list+0x1e8>
  1e00033fa0:	911880a5 	add	x5, x5, #0x620
  1e00033fa4:	d280014a 	mov	x10, #0xa                   	// #10
  1e00033fa8:	b0000063 	adrp	x3, 1e00040000 <tx_lane+0x54c>
  1e00033fac:	9107e863 	add	x3, x3, #0x1fa
  1e00033fb0:	52800009 	mov	w9, #0x0                   	// #0
  1e00033fb4:	9b0a1508 	madd	x8, x8, x10, x5
  1e00033fb8:	1ac92485 	lsr	w5, w4, w9
  1e00033fbc:	360001a5 	tbz	w5, #0, 1e00033ff0 <phy_find_read_training_fail_bit+0x3c4>
  1e00033fc0:	3940306a 	ldrb	w10, [x3, #12]
  1e00033fc4:	7940146b 	ldrh	w11, [x3, #10]
  1e00033fc8:	9100194a 	add	x10, x10, #0x6
  1e00033fcc:	386a6905 	ldrb	w5, [x8, x10]
  1e00033fd0:	71003cbf 	cmp	w5, #0xf
  1e00033fd4:	540000a0 	b.eq	1e00033fe8 <phy_find_read_training_fail_bit+0x3bc>  // b.none
  1e00033fd8:	6b0b00bf 	cmp	w5, w11
  1e00033fdc:	54000060 	b.eq	1e00033fe8 <phy_find_read_training_fail_bit+0x3bc>  // b.none
  1e00033fe0:	52800083 	mov	w3, #0x4                   	// #4
  1e00033fe4:	17ffff4f 	b	1e00033d20 <phy_find_read_training_fail_bit+0xf4>
  1e00033fe8:	11000400 	add	w0, w0, #0x1
  1e00033fec:	382a690b 	strb	w11, [x8, x10]
  1e00033ff0:	11000529 	add	w9, w9, #0x1
  1e00033ff4:	91003863 	add	x3, x3, #0xe
  1e00033ff8:	7100113f 	cmp	w9, #0x4
  1e00033ffc:	54fffde1 	b.ne	1e00033fb8 <phy_find_read_training_fail_bit+0x38c>  // b.any
  1e00034000:	f86268e3 	ldr	x3, [x7, x2]
  1e00034004:	b9465864 	ldr	w4, [x3, #1624]
  1e00034008:	d3461c84 	ubfx	x4, x4, #6, #2
  1e0003400c:	340005e4 	cbz	w4, 1e000340c8 <phy_find_read_training_fail_bit+0x49c>
  1e00034010:	36000244 	tbz	w4, #0, 1e00034058 <phy_find_read_training_fail_bit+0x42c>
  1e00034014:	9000006a 	adrp	x10, 1e00040000 <tx_lane+0x54c>
  1e00034018:	9109394a 	add	x10, x10, #0x24e
  1e0003401c:	93407cc9 	sxtw	x9, w6
  1e00034020:	b0000083 	adrp	x3, 1e00045000 <list+0x1e8>
  1e00034024:	91188063 	add	x3, x3, #0x620
  1e00034028:	d2800145 	mov	x5, #0xa                   	// #10
  1e0003402c:	39403148 	ldrb	w8, [x10, #12]
  1e00034030:	7940154a 	ldrh	w10, [x10, #10]
  1e00034034:	9b050d25 	madd	x5, x9, x5, x3
  1e00034038:	91001908 	add	x8, x8, #0x6
  1e0003403c:	386868a5 	ldrb	w5, [x5, x8]
  1e00034040:	71003cbf 	cmp	w5, #0xf
  1e00034044:	54000321 	b.ne	1e000340a8 <phy_find_read_training_fail_bit+0x47c>  // b.any
  1e00034048:	d2800145 	mov	x5, #0xa                   	// #10
  1e0003404c:	11000400 	add	w0, w0, #0x1
  1e00034050:	9b050d29 	madd	x9, x9, x5, x3
  1e00034054:	3828692a 	strb	w10, [x9, x8]
  1e00034058:	6b4407ff 	cmp	wzr, w4, lsr #1
  1e0003405c:	54000360 	b.eq	1e000340c8 <phy_find_read_training_fail_bit+0x49c>  // b.none
  1e00034060:	9000006a 	adrp	x10, 1e00040000 <tx_lane+0x54c>
  1e00034064:	9109394a 	add	x10, x10, #0x24e
  1e00034068:	93407cc8 	sxtw	x8, w6
  1e0003406c:	b0000089 	adrp	x9, 1e00045000 <list+0x1e8>
  1e00034070:	91188129 	add	x9, x9, #0x620
  1e00034074:	d2800145 	mov	x5, #0xa                   	// #10
  1e00034078:	39406943 	ldrb	w3, [x10, #26]
  1e0003407c:	7940314a 	ldrh	w10, [x10, #24]
  1e00034080:	9b052505 	madd	x5, x8, x5, x9
  1e00034084:	91001863 	add	x3, x3, #0x6
  1e00034088:	386368a5 	ldrb	w5, [x5, x3]
  1e0003408c:	71003cbf 	cmp	w5, #0xf
  1e00034090:	54000140 	b.eq	1e000340b8 <phy_find_read_training_fail_bit+0x48c>  // b.none
  1e00034094:	6b0a00bf 	cmp	w5, w10
  1e00034098:	54000100 	b.eq	1e000340b8 <phy_find_read_training_fail_bit+0x48c>  // b.none
  1e0003409c:	52800023 	mov	w3, #0x1                   	// #1
  1e000340a0:	11000863 	add	w3, w3, #0x2
  1e000340a4:	17ffff54 	b	1e00033df4 <phy_find_read_training_fail_bit+0x1c8>
  1e000340a8:	6b05015f 	cmp	w10, w5
  1e000340ac:	54fffce0 	b.eq	1e00034048 <phy_find_read_training_fail_bit+0x41c>  // b.none
  1e000340b0:	52800003 	mov	w3, #0x0                   	// #0
  1e000340b4:	17fffffb 	b	1e000340a0 <phy_find_read_training_fail_bit+0x474>
  1e000340b8:	d2800144 	mov	x4, #0xa                   	// #10
  1e000340bc:	11000400 	add	w0, w0, #0x1
  1e000340c0:	9b042508 	madd	x8, x8, x4, x9
  1e000340c4:	3823690a 	strb	w10, [x8, x3]
  1e000340c8:	f86268e2 	ldr	x2, [x7, x2]
  1e000340cc:	b9465844 	ldr	w4, [x2, #1624]
  1e000340d0:	d3420c84 	ubfx	x4, x4, #2, #2
  1e000340d4:	34000644 	cbz	w4, 1e0003419c <phy_find_read_training_fail_bit+0x570>
  1e000340d8:	36000244 	tbz	w4, #0, 1e00034120 <phy_find_read_training_fail_bit+0x4f4>
  1e000340dc:	90000068 	adrp	x8, 1e00040000 <tx_lane+0x54c>
  1e000340e0:	9108c908 	add	x8, x8, #0x232
  1e000340e4:	93407cc7 	sxtw	x7, w6
  1e000340e8:	b0000082 	adrp	x2, 1e00045000 <list+0x1e8>
  1e000340ec:	91188042 	add	x2, x2, #0x620
  1e000340f0:	d2800145 	mov	x5, #0xa                   	// #10
  1e000340f4:	39403103 	ldrb	w3, [x8, #12]
  1e000340f8:	79401508 	ldrh	w8, [x8, #10]
  1e000340fc:	9b0508e5 	madd	x5, x7, x5, x2
  1e00034100:	91001863 	add	x3, x3, #0x6
  1e00034104:	386368a5 	ldrb	w5, [x5, x3]
  1e00034108:	71003cbf 	cmp	w5, #0xf
  1e0003410c:	54000381 	b.ne	1e0003417c <phy_find_read_training_fail_bit+0x550>  // b.any
  1e00034110:	d2800145 	mov	x5, #0xa                   	// #10
  1e00034114:	11000400 	add	w0, w0, #0x1
  1e00034118:	9b0508e7 	madd	x7, x7, x5, x2
  1e0003411c:	382368e8 	strb	w8, [x7, x3]
  1e00034120:	6b4407ff 	cmp	wzr, w4, lsr #1
  1e00034124:	540003c0 	b.eq	1e0003419c <phy_find_read_training_fail_bit+0x570>  // b.none
  1e00034128:	90000068 	adrp	x8, 1e00040000 <tx_lane+0x54c>
  1e0003412c:	9108c908 	add	x8, x8, #0x232
  1e00034130:	93407cc3 	sxtw	x3, w6
  1e00034134:	b0000087 	adrp	x7, 1e00045000 <list+0x1e8>
  1e00034138:	911880e7 	add	x7, x7, #0x620
  1e0003413c:	d2800145 	mov	x5, #0xa                   	// #10
  1e00034140:	39406902 	ldrb	w2, [x8, #26]
  1e00034144:	79403108 	ldrh	w8, [x8, #24]
  1e00034148:	9b051c65 	madd	x5, x3, x5, x7
  1e0003414c:	91001842 	add	x2, x2, #0x6
  1e00034150:	386268a5 	ldrb	w5, [x5, x2]
  1e00034154:	71003cbf 	cmp	w5, #0xf
  1e00034158:	540001a0 	b.eq	1e0003418c <phy_find_read_training_fail_bit+0x560>  // b.none
  1e0003415c:	6b0800bf 	cmp	w5, w8
  1e00034160:	54000160 	b.eq	1e0003418c <phy_find_read_training_fail_bit+0x560>  // b.none
  1e00034164:	52800023 	mov	w3, #0x1                   	// #1
  1e00034168:	90000040 	adrp	x0, 1e0003c000 <vsnprintf+0x270>
  1e0003416c:	11000863 	add	w3, w3, #0x2
  1e00034170:	2a0603e2 	mov	w2, w6
  1e00034174:	91389800 	add	x0, x0, #0xe26
  1e00034178:	17fffeed 	b	1e00033d2c <phy_find_read_training_fail_bit+0x100>
  1e0003417c:	6b05011f 	cmp	w8, w5
  1e00034180:	54fffc80 	b.eq	1e00034110 <phy_find_read_training_fail_bit+0x4e4>  // b.none
  1e00034184:	52800003 	mov	w3, #0x0                   	// #0
  1e00034188:	17fffff8 	b	1e00034168 <phy_find_read_training_fail_bit+0x53c>
  1e0003418c:	d2800141 	mov	x1, #0xa                   	// #10
  1e00034190:	11000400 	add	w0, w0, #0x1
  1e00034194:	9b011c63 	madd	x3, x3, x1, x7
  1e00034198:	38226868 	strb	w8, [x3, x2]
  1e0003419c:	34ffdcc0 	cbz	w0, 1e00033d34 <phy_find_read_training_fail_bit+0x108>
  1e000341a0:	b0000081 	adrp	x1, 1e00045000 <list+0x1e8>
  1e000341a4:	911b0021 	add	x1, x1, #0x6c0
  1e000341a8:	38666822 	ldrb	w2, [x1, x6]
  1e000341ac:	0b020002 	add	w2, w0, w2
  1e000341b0:	52800040 	mov	w0, #0x2                   	// #2
  1e000341b4:	38266822 	strb	w2, [x1, x6]
  1e000341b8:	17fffedf 	b	1e00033d34 <phy_find_read_training_fail_bit+0x108>

0000001e000341bc <phy_find_write_training_fail_bit>:
  1e000341bc:	d37d1c48 	ubfiz	x8, x2, #3, #8
  1e000341c0:	a9bf7bfd 	stp	x29, x30, [sp, #-16]!
  1e000341c4:	aa0003e7 	mov	x7, x0
  1e000341c8:	910003fd 	mov	x29, sp
  1e000341cc:	f8686800 	ldr	x0, [x0, x8]
  1e000341d0:	92401c46 	and	x6, x2, #0xff
  1e000341d4:	b9484c04 	ldr	w4, [x0, #2124]
  1e000341d8:	340007a4 	cbz	w4, 1e000342cc <phy_find_write_training_fail_bit+0x110>
  1e000341dc:	93407cc9 	sxtw	x9, w6
  1e000341e0:	b0000085 	adrp	x5, 1e00045000 <list+0x1e8>
  1e000341e4:	911880a5 	add	x5, x5, #0x620
  1e000341e8:	d280014a 	mov	x10, #0xa                   	// #10
  1e000341ec:	90000062 	adrp	x2, 1e00040000 <tx_lane+0x54c>
  1e000341f0:	9109a842 	add	x2, x2, #0x26a
  1e000341f4:	52800003 	mov	w3, #0x0                   	// #0
  1e000341f8:	52800000 	mov	w0, #0x0                   	// #0
  1e000341fc:	9b0a1529 	madd	x9, x9, x10, x5
  1e00034200:	1ac32485 	lsr	w5, w4, w3
  1e00034204:	36000245 	tbz	w5, #0, 1e0003424c <phy_find_write_training_fail_bit+0x90>
  1e00034208:	3940304a 	ldrb	w10, [x2, #12]
  1e0003420c:	7940144b 	ldrh	w11, [x2, #10]
  1e00034210:	386a6925 	ldrb	w5, [x9, x10]
  1e00034214:	71003cbf 	cmp	w5, #0xf
  1e00034218:	54000160 	b.eq	1e00034244 <phy_find_write_training_fail_bit+0x88>  // b.none
  1e0003421c:	6b0b00bf 	cmp	w5, w11
  1e00034220:	54000120 	b.eq	1e00034244 <phy_find_write_training_fail_bit+0x88>  // b.none
  1e00034224:	3100049f 	cmn	w4, #0x1
  1e00034228:	54001621 	b.ne	1e000344ec <phy_find_write_training_fail_bit+0x330>  // b.any
  1e0003422c:	90000040 	adrp	x0, 1e0003c000 <vsnprintf+0x270>
  1e00034230:	2a0403e3 	mov	w3, w4
  1e00034234:	2a0603e2 	mov	w2, w6
  1e00034238:	91326c00 	add	x0, x0, #0xc9b
  1e0003423c:	97fff6de 	bl	1e00031db4 <tf_log>
  1e00034240:	14000020 	b	1e000342c0 <phy_find_write_training_fail_bit+0x104>
  1e00034244:	11000400 	add	w0, w0, #0x1
  1e00034248:	382a692b 	strb	w11, [x9, x10]
  1e0003424c:	11000463 	add	w3, w3, #0x1
  1e00034250:	91003842 	add	x2, x2, #0xe
  1e00034254:	7100807f 	cmp	w3, #0x20
  1e00034258:	54fffd41 	b.ne	1e00034200 <phy_find_write_training_fail_bit+0x44>  // b.any
  1e0003425c:	f86868e2 	ldr	x2, [x7, x8]
  1e00034260:	b9485444 	ldr	w4, [x2, #2132]
  1e00034264:	d3482c84 	ubfx	x4, x4, #8, #4
  1e00034268:	34000424 	cbz	w4, 1e000342ec <phy_find_write_training_fail_bit+0x130>
  1e0003426c:	93407cc9 	sxtw	x9, w6
  1e00034270:	b0000085 	adrp	x5, 1e00045000 <list+0x1e8>
  1e00034274:	911880a5 	add	x5, x5, #0x620
  1e00034278:	d280014a 	mov	x10, #0xa                   	// #10
  1e0003427c:	90000062 	adrp	x2, 1e00040000 <tx_lane+0x54c>
  1e00034280:	9107e842 	add	x2, x2, #0x1fa
  1e00034284:	52800003 	mov	w3, #0x0                   	// #0
  1e00034288:	9b0a1529 	madd	x9, x9, x10, x5
  1e0003428c:	1ac32485 	lsr	w5, w4, w3
  1e00034290:	36000265 	tbz	w5, #0, 1e000342dc <phy_find_write_training_fail_bit+0x120>
  1e00034294:	3940304a 	ldrb	w10, [x2, #12]
  1e00034298:	7940144b 	ldrh	w11, [x2, #10]
  1e0003429c:	386a6925 	ldrb	w5, [x9, x10]
  1e000342a0:	71003cbf 	cmp	w5, #0xf
  1e000342a4:	54000180 	b.eq	1e000342d4 <phy_find_write_training_fail_bit+0x118>  // b.none
  1e000342a8:	6b0b00bf 	cmp	w5, w11
  1e000342ac:	54000140 	b.eq	1e000342d4 <phy_find_write_training_fail_bit+0x118>  // b.none
  1e000342b0:	90000040 	adrp	x0, 1e0003c000 <vsnprintf+0x270>
  1e000342b4:	2a0603e2 	mov	w2, w6
  1e000342b8:	91346800 	add	x0, x0, #0xd1a
  1e000342bc:	97fff6be 	bl	1e00031db4 <tf_log>
  1e000342c0:	12800020 	mov	w0, #0xfffffffe            	// #-2
  1e000342c4:	a8c17bfd 	ldp	x29, x30, [sp], #16
  1e000342c8:	d65f03c0 	ret
  1e000342cc:	52800000 	mov	w0, #0x0                   	// #0
  1e000342d0:	17ffffe3 	b	1e0003425c <phy_find_write_training_fail_bit+0xa0>
  1e000342d4:	11000400 	add	w0, w0, #0x1
  1e000342d8:	382a692b 	strb	w11, [x9, x10]
  1e000342dc:	11000463 	add	w3, w3, #0x1
  1e000342e0:	91003842 	add	x2, x2, #0xe
  1e000342e4:	7100107f 	cmp	w3, #0x4
  1e000342e8:	54fffd21 	b.ne	1e0003428c <phy_find_write_training_fail_bit+0xd0>  // b.any
  1e000342ec:	f86868e2 	ldr	x2, [x7, x8]
  1e000342f0:	b9485444 	ldr	w4, [x2, #2132]
  1e000342f4:	d3441484 	ubfx	x4, x4, #4, #2
  1e000342f8:	340005e4 	cbz	w4, 1e000343b4 <phy_find_write_training_fail_bit+0x1f8>
  1e000342fc:	36000224 	tbz	w4, #0, 1e00034340 <phy_find_write_training_fail_bit+0x184>
  1e00034300:	93407cc3 	sxtw	x3, w6
  1e00034304:	90000069 	adrp	x9, 1e00040000 <tx_lane+0x54c>
  1e00034308:	b0000082 	adrp	x2, 1e00045000 <list+0x1e8>
  1e0003430c:	91093929 	add	x9, x9, #0x24e
  1e00034310:	91188042 	add	x2, x2, #0x620
  1e00034314:	d2800145 	mov	x5, #0xa                   	// #10
  1e00034318:	3940312a 	ldrb	w10, [x9, #12]
  1e0003431c:	9b050865 	madd	x5, x3, x5, x2
  1e00034320:	79401529 	ldrh	w9, [x9, #10]
  1e00034324:	386a68a5 	ldrb	w5, [x5, x10]
  1e00034328:	71003cbf 	cmp	w5, #0xf
  1e0003432c:	54000341 	b.ne	1e00034394 <phy_find_write_training_fail_bit+0x1d8>  // b.any
  1e00034330:	d2800145 	mov	x5, #0xa                   	// #10
  1e00034334:	11000400 	add	w0, w0, #0x1
  1e00034338:	9b050863 	madd	x3, x3, x5, x2
  1e0003433c:	382a6869 	strb	w9, [x3, x10]
  1e00034340:	6b4407ff 	cmp	wzr, w4, lsr #1
  1e00034344:	54000380 	b.eq	1e000343b4 <phy_find_write_training_fail_bit+0x1f8>  // b.none
  1e00034348:	93407cc2 	sxtw	x2, w6
  1e0003434c:	90000069 	adrp	x9, 1e00040000 <tx_lane+0x54c>
  1e00034350:	b0000083 	adrp	x3, 1e00045000 <list+0x1e8>
  1e00034354:	91093929 	add	x9, x9, #0x24e
  1e00034358:	91188063 	add	x3, x3, #0x620
  1e0003435c:	d2800145 	mov	x5, #0xa                   	// #10
  1e00034360:	3940692a 	ldrb	w10, [x9, #26]
  1e00034364:	9b050c45 	madd	x5, x2, x5, x3
  1e00034368:	79403129 	ldrh	w9, [x9, #24]
  1e0003436c:	386a68a5 	ldrb	w5, [x5, x10]
  1e00034370:	71003cbf 	cmp	w5, #0xf
  1e00034374:	54000180 	b.eq	1e000343a4 <phy_find_write_training_fail_bit+0x1e8>  // b.none
  1e00034378:	6b0900bf 	cmp	w5, w9
  1e0003437c:	54000140 	b.eq	1e000343a4 <phy_find_write_training_fail_bit+0x1e8>  // b.none
  1e00034380:	52800023 	mov	w3, #0x1                   	// #1
  1e00034384:	90000040 	adrp	x0, 1e0003c000 <vsnprintf+0x270>
  1e00034388:	2a0603e2 	mov	w2, w6
  1e0003438c:	91358000 	add	x0, x0, #0xd60
  1e00034390:	17ffffcb 	b	1e000342bc <phy_find_write_training_fail_bit+0x100>
  1e00034394:	6b05013f 	cmp	w9, w5
  1e00034398:	54fffcc0 	b.eq	1e00034330 <phy_find_write_training_fail_bit+0x174>  // b.none
  1e0003439c:	52800003 	mov	w3, #0x0                   	// #0
  1e000343a0:	17fffff9 	b	1e00034384 <phy_find_write_training_fail_bit+0x1c8>
  1e000343a4:	d2800144 	mov	x4, #0xa                   	// #10
  1e000343a8:	11000400 	add	w0, w0, #0x1
  1e000343ac:	9b040c42 	madd	x2, x2, x4, x3
  1e000343b0:	382a6849 	strb	w9, [x2, x10]
  1e000343b4:	f86868e2 	ldr	x2, [x7, x8]
  1e000343b8:	b9485444 	ldr	w4, [x2, #2132]
  1e000343bc:	72000484 	ands	w4, w4, #0x3
  1e000343c0:	540005e0 	b.eq	1e0003447c <phy_find_write_training_fail_bit+0x2c0>  // b.none
  1e000343c4:	36000224 	tbz	w4, #0, 1e00034408 <phy_find_write_training_fail_bit+0x24c>
  1e000343c8:	93407cc3 	sxtw	x3, w6
  1e000343cc:	90000069 	adrp	x9, 1e00040000 <tx_lane+0x54c>
  1e000343d0:	b0000082 	adrp	x2, 1e00045000 <list+0x1e8>
  1e000343d4:	9108c929 	add	x9, x9, #0x232
  1e000343d8:	91188042 	add	x2, x2, #0x620
  1e000343dc:	d2800145 	mov	x5, #0xa                   	// #10
  1e000343e0:	3940312a 	ldrb	w10, [x9, #12]
  1e000343e4:	9b050865 	madd	x5, x3, x5, x2
  1e000343e8:	79401529 	ldrh	w9, [x9, #10]
  1e000343ec:	386a68a5 	ldrb	w5, [x5, x10]
  1e000343f0:	71003cbf 	cmp	w5, #0xf
  1e000343f4:	54000341 	b.ne	1e0003445c <phy_find_write_training_fail_bit+0x2a0>  // b.any
  1e000343f8:	d2800145 	mov	x5, #0xa                   	// #10
  1e000343fc:	11000400 	add	w0, w0, #0x1
  1e00034400:	9b050863 	madd	x3, x3, x5, x2
  1e00034404:	382a6869 	strb	w9, [x3, x10]
  1e00034408:	6b4407ff 	cmp	wzr, w4, lsr #1
  1e0003440c:	54000380 	b.eq	1e0003447c <phy_find_write_training_fail_bit+0x2c0>  // b.none
  1e00034410:	93407cc2 	sxtw	x2, w6
  1e00034414:	90000069 	adrp	x9, 1e00040000 <tx_lane+0x54c>
  1e00034418:	b0000083 	adrp	x3, 1e00045000 <list+0x1e8>
  1e0003441c:	9108c929 	add	x9, x9, #0x232
  1e00034420:	91188063 	add	x3, x3, #0x620
  1e00034424:	d2800145 	mov	x5, #0xa                   	// #10
  1e00034428:	3940692a 	ldrb	w10, [x9, #26]
  1e0003442c:	9b050c45 	madd	x5, x2, x5, x3
  1e00034430:	79403129 	ldrh	w9, [x9, #24]
  1e00034434:	386a68a5 	ldrb	w5, [x5, x10]
  1e00034438:	71003cbf 	cmp	w5, #0xf
  1e0003443c:	54000180 	b.eq	1e0003446c <phy_find_write_training_fail_bit+0x2b0>  // b.none
  1e00034440:	6b0900bf 	cmp	w5, w9
  1e00034444:	54000140 	b.eq	1e0003446c <phy_find_write_training_fail_bit+0x2b0>  // b.none
  1e00034448:	52800023 	mov	w3, #0x1                   	// #1
  1e0003444c:	90000040 	adrp	x0, 1e0003c000 <vsnprintf+0x270>
  1e00034450:	2a0603e2 	mov	w2, w6
  1e00034454:	91369800 	add	x0, x0, #0xda6
  1e00034458:	17ffff99 	b	1e000342bc <phy_find_write_training_fail_bit+0x100>
  1e0003445c:	6b05013f 	cmp	w9, w5
  1e00034460:	54fffcc0 	b.eq	1e000343f8 <phy_find_write_training_fail_bit+0x23c>  // b.none
  1e00034464:	52800003 	mov	w3, #0x0                   	// #0
  1e00034468:	17fffff9 	b	1e0003444c <phy_find_write_training_fail_bit+0x290>
  1e0003446c:	d2800144 	mov	x4, #0xa                   	// #10
  1e00034470:	11000400 	add	w0, w0, #0x1
  1e00034474:	9b040c42 	madd	x2, x2, x4, x3
  1e00034478:	382a6849 	strb	w9, [x2, x10]
  1e0003447c:	f86868e2 	ldr	x2, [x7, x8]
  1e00034480:	b9485043 	ldr	w3, [x2, #2128]
  1e00034484:	34000483 	cbz	w3, 1e00034514 <phy_find_write_training_fail_bit+0x358>
  1e00034488:	93407cca 	sxtw	x10, w6
  1e0003448c:	b0000084 	adrp	x4, 1e00045000 <list+0x1e8>
  1e00034490:	91188084 	add	x4, x4, #0x620
  1e00034494:	d2800145 	mov	x5, #0xa                   	// #10
  1e00034498:	90000069 	adrp	x9, 1e00040000 <tx_lane+0x54c>
  1e0003449c:	9109a929 	add	x9, x9, #0x26a
  1e000344a0:	52800002 	mov	w2, #0x0                   	// #0
  1e000344a4:	9b05114a 	madd	x10, x10, x5, x4
  1e000344a8:	1ac22464 	lsr	w4, w3, w2
  1e000344ac:	360002c4 	tbz	w4, #0, 1e00034504 <phy_find_write_training_fail_bit+0x348>
  1e000344b0:	39403124 	ldrb	w4, [x9, #12]
  1e000344b4:	7940152b 	ldrh	w11, [x9, #10]
  1e000344b8:	91001884 	add	x4, x4, #0x6
  1e000344bc:	38646945 	ldrb	w5, [x10, x4]
  1e000344c0:	71003cbf 	cmp	w5, #0xf
  1e000344c4:	540001c0 	b.eq	1e000344fc <phy_find_write_training_fail_bit+0x340>  // b.none
  1e000344c8:	6b0b00bf 	cmp	w5, w11
  1e000344cc:	54000180 	b.eq	1e000344fc <phy_find_write_training_fail_bit+0x340>  // b.none
  1e000344d0:	3100047f 	cmn	w3, #0x1
  1e000344d4:	54000081 	b.ne	1e000344e4 <phy_find_write_training_fail_bit+0x328>  // b.any
  1e000344d8:	90000040 	adrp	x0, 1e0003c000 <vsnprintf+0x270>
  1e000344dc:	9137b000 	add	x0, x0, #0xdec
  1e000344e0:	17ffff57 	b	1e0003423c <phy_find_write_training_fail_bit+0x80>
  1e000344e4:	2a0303e4 	mov	w4, w3
  1e000344e8:	11008043 	add	w3, w2, #0x20
  1e000344ec:	90000040 	adrp	x0, 1e0003c000 <vsnprintf+0x270>
  1e000344f0:	2a0603e2 	mov	w2, w6
  1e000344f4:	91335400 	add	x0, x0, #0xcd5
  1e000344f8:	17ffff71 	b	1e000342bc <phy_find_write_training_fail_bit+0x100>
  1e000344fc:	11000400 	add	w0, w0, #0x1
  1e00034500:	3824694b 	strb	w11, [x10, x4]
  1e00034504:	11000442 	add	w2, w2, #0x1
  1e00034508:	91003929 	add	x9, x9, #0xe
  1e0003450c:	7100805f 	cmp	w2, #0x20
  1e00034510:	54fffcc1 	b.ne	1e000344a8 <phy_find_write_training_fail_bit+0x2ec>  // b.any
  1e00034514:	f86868e2 	ldr	x2, [x7, x8]
  1e00034518:	b9485444 	ldr	w4, [x2, #2132]
  1e0003451c:	d34c3c84 	ubfx	x4, x4, #12, #4
  1e00034520:	340003c4 	cbz	w4, 1e00034598 <phy_find_write_training_fail_bit+0x3dc>
  1e00034524:	93407cc9 	sxtw	x9, w6
  1e00034528:	b0000085 	adrp	x5, 1e00045000 <list+0x1e8>
  1e0003452c:	911880a5 	add	x5, x5, #0x620
  1e00034530:	d280014a 	mov	x10, #0xa                   	// #10
  1e00034534:	90000062 	adrp	x2, 1e00040000 <tx_lane+0x54c>
  1e00034538:	9107e842 	add	x2, x2, #0x1fa
  1e0003453c:	52800003 	mov	w3, #0x0                   	// #0
  1e00034540:	9b0a1529 	madd	x9, x9, x10, x5
  1e00034544:	1ac32485 	lsr	w5, w4, w3
  1e00034548:	36000205 	tbz	w5, #0, 1e00034588 <phy_find_write_training_fail_bit+0x3cc>
  1e0003454c:	3940304a 	ldrb	w10, [x2, #12]
  1e00034550:	7940144b 	ldrh	w11, [x2, #10]
  1e00034554:	9100194a 	add	x10, x10, #0x6
  1e00034558:	386a6925 	ldrb	w5, [x9, x10]
  1e0003455c:	71003cbf 	cmp	w5, #0xf
  1e00034560:	54000100 	b.eq	1e00034580 <phy_find_write_training_fail_bit+0x3c4>  // b.none
  1e00034564:	6b0b00bf 	cmp	w5, w11
  1e00034568:	540000c0 	b.eq	1e00034580 <phy_find_write_training_fail_bit+0x3c4>  // b.none
  1e0003456c:	90000040 	adrp	x0, 1e0003c000 <vsnprintf+0x270>
  1e00034570:	11001063 	add	w3, w3, #0x4
  1e00034574:	2a0603e2 	mov	w2, w6
  1e00034578:	9139b000 	add	x0, x0, #0xe6c
  1e0003457c:	17ffff50 	b	1e000342bc <phy_find_write_training_fail_bit+0x100>
  1e00034580:	11000400 	add	w0, w0, #0x1
  1e00034584:	382a692b 	strb	w11, [x9, x10]
  1e00034588:	11000463 	add	w3, w3, #0x1
  1e0003458c:	91003842 	add	x2, x2, #0xe
  1e00034590:	7100107f 	cmp	w3, #0x4
  1e00034594:	54fffd81 	b.ne	1e00034544 <phy_find_write_training_fail_bit+0x388>  // b.any
  1e00034598:	f86868e2 	ldr	x2, [x7, x8]
  1e0003459c:	b9485444 	ldr	w4, [x2, #2132]
  1e000345a0:	d3461c84 	ubfx	x4, x4, #6, #2
  1e000345a4:	340005e4 	cbz	w4, 1e00034660 <phy_find_write_training_fail_bit+0x4a4>
  1e000345a8:	36000244 	tbz	w4, #0, 1e000345f0 <phy_find_write_training_fail_bit+0x434>
  1e000345ac:	9000006a 	adrp	x10, 1e00040000 <tx_lane+0x54c>
  1e000345b0:	9109394a 	add	x10, x10, #0x24e
  1e000345b4:	93407cc9 	sxtw	x9, w6
  1e000345b8:	b0000082 	adrp	x2, 1e00045000 <list+0x1e8>
  1e000345bc:	91188042 	add	x2, x2, #0x620
  1e000345c0:	d2800145 	mov	x5, #0xa                   	// #10
  1e000345c4:	39403143 	ldrb	w3, [x10, #12]
  1e000345c8:	7940154a 	ldrh	w10, [x10, #10]
  1e000345cc:	9b050925 	madd	x5, x9, x5, x2
  1e000345d0:	91001863 	add	x3, x3, #0x6
  1e000345d4:	386368a5 	ldrb	w5, [x5, x3]
  1e000345d8:	71003cbf 	cmp	w5, #0xf
  1e000345dc:	54000321 	b.ne	1e00034640 <phy_find_write_training_fail_bit+0x484>  // b.any
  1e000345e0:	d2800145 	mov	x5, #0xa                   	// #10
  1e000345e4:	11000400 	add	w0, w0, #0x1
