Archive member included to satisfy reference by file (symbol)

/home/jongja.cho/Git/legacy/rebel_cds_collab_hw/bootloader/cp/tf-a/build/rebel_h/debug/lib/libc.a(assert.o)
                              /home/jongja.cho/Git/legacy/rebel_cds_collab_hw/bootloader/cp/tf-a/build/rebel_h/debug/bl31/bl31_context_mgmt.o (__assert)
/home/jongja.cho/Git/legacy/rebel_cds_collab_hw/bootloader/cp/tf-a/build/rebel_h/debug/lib/libc.a(memcpy.o)
                              /home/jongja.cho/Git/legacy/rebel_cds_collab_hw/bootloader/cp/tf-a/build/rebel_h/debug/bl31/context_mgmt.o (memcpy)
/home/jongja.cho/Git/legacy/rebel_cds_collab_hw/bootloader/cp/tf-a/build/rebel_h/debug/lib/libc.a(memmove.o)
                              /home/jongja.cho/Git/legacy/rebel_cds_collab_hw/bootloader/cp/tf-a/build/rebel_h/debug/bl31/xlat_tables_core.o (memmove)
/home/jongja.cho/Git/legacy/rebel_cds_collab_hw/bootloader/cp/tf-a/build/rebel_h/debug/lib/libc.a(printf.o)
                              /home/jongja.cho/Git/legacy/rebel_cds_collab_hw/bootloader/cp/tf-a/build/rebel_h/debug/bl31/tf_log.o (vprintf)
/home/jongja.cho/Git/legacy/rebel_cds_collab_hw/bootloader/cp/tf-a/build/rebel_h/debug/lib/libc.a(memset.o)
                              /home/jongja.cho/Git/legacy/rebel_cds_collab_hw/bootloader/cp/tf-a/build/rebel_h/debug/bl31/runtime_svc.o (memset)

Discarded input sections

 .text          0x0000000000000000        0x0 /home/jongja.cho/Git/legacy/rebel_cds_collab_hw/bootloader/cp/tf-a/build/rebel_h/debug/bl31/bakery_lock.o
 .data          0x0000000000000000        0x0 /home/jongja.cho/Git/legacy/rebel_cds_collab_hw/bootloader/cp/tf-a/build/rebel_h/debug/bl31/bakery_lock.o
 .bss           0x0000000000000000        0x0 /home/jongja.cho/Git/legacy/rebel_cds_collab_hw/bootloader/cp/tf-a/build/rebel_h/debug/bl31/bakery_lock.o
 .text.rebel_bakery_lock_init
                0x0000000000000000       0x34 /home/jongja.cho/Git/legacy/rebel_cds_collab_hw/bootloader/cp/tf-a/build/rebel_h/debug/bl31/bakery_lock.o
 .text          0x0000000000000000        0x0 /home/jongja.cho/Git/legacy/rebel_cds_collab_hw/bootloader/cp/tf-a/build/rebel_h/debug/bl31/bl31_context_mgmt.o
 .data          0x0000000000000000        0x0 /home/jongja.cho/Git/legacy/rebel_cds_collab_hw/bootloader/cp/tf-a/build/rebel_h/debug/bl31/bl31_context_mgmt.o
 .bss           0x0000000000000000        0x0 /home/jongja.cho/Git/legacy/rebel_cds_collab_hw/bootloader/cp/tf-a/build/rebel_h/debug/bl31/bl31_context_mgmt.o
 .text.cm_set_context
                0x0000000000000000       0x3c /home/jongja.cho/Git/legacy/rebel_cds_collab_hw/bootloader/cp/tf-a/build/rebel_h/debug/bl31/bl31_context_mgmt.o
 .text.cm_get_context_by_index
                0x0000000000000000       0x38 /home/jongja.cho/Git/legacy/rebel_cds_collab_hw/bootloader/cp/tf-a/build/rebel_h/debug/bl31/bl31_context_mgmt.o
 .text          0x0000000000000000        0x0 /home/jongja.cho/Git/legacy/rebel_cds_collab_hw/bootloader/cp/tf-a/build/rebel_h/debug/bl31/bl31_main.o
 .data          0x0000000000000000        0x0 /home/jongja.cho/Git/legacy/rebel_cds_collab_hw/bootloader/cp/tf-a/build/rebel_h/debug/bl31/bl31_main.o
 .bss           0x0000000000000000        0x0 /home/jongja.cho/Git/legacy/rebel_cds_collab_hw/bootloader/cp/tf-a/build/rebel_h/debug/bl31/bl31_main.o
 .text.bl31_set_next_image_type
                0x0000000000000000       0x20 /home/jongja.cho/Git/legacy/rebel_cds_collab_hw/bootloader/cp/tf-a/build/rebel_h/debug/bl31/bl31_main.o
 .text.bl31_register_bl32_init
                0x0000000000000000        0xc /home/jongja.cho/Git/legacy/rebel_cds_collab_hw/bootloader/cp/tf-a/build/rebel_h/debug/bl31/bl31_main.o
 .text          0x0000000000000000        0x0 /home/jongja.cho/Git/legacy/rebel_cds_collab_hw/bootloader/cp/tf-a/build/rebel_h/debug/bl31/bl31_traps.o
 .data          0x0000000000000000        0x0 /home/jongja.cho/Git/legacy/rebel_cds_collab_hw/bootloader/cp/tf-a/build/rebel_h/debug/bl31/bl31_traps.o
 .bss           0x0000000000000000        0x0 /home/jongja.cho/Git/legacy/rebel_cds_collab_hw/bootloader/cp/tf-a/build/rebel_h/debug/bl31/bl31_traps.o
 .text          0x0000000000000000        0x0 /home/jongja.cho/Git/legacy/rebel_cds_collab_hw/bootloader/cp/tf-a/build/rebel_h/debug/bl31/interrupt_mgmt.o
 .data          0x0000000000000000        0x0 /home/jongja.cho/Git/legacy/rebel_cds_collab_hw/bootloader/cp/tf-a/build/rebel_h/debug/bl31/interrupt_mgmt.o
 .bss           0x0000000000000000        0x0 /home/jongja.cho/Git/legacy/rebel_cds_collab_hw/bootloader/cp/tf-a/build/rebel_h/debug/bl31/interrupt_mgmt.o
 .text.set_scr_el3_from_rm
                0x0000000000000000       0x84 /home/jongja.cho/Git/legacy/rebel_cds_collab_hw/bootloader/cp/tf-a/build/rebel_h/debug/bl31/interrupt_mgmt.o
 .text.set_routing_model
                0x0000000000000000       0x94 /home/jongja.cho/Git/legacy/rebel_cds_collab_hw/bootloader/cp/tf-a/build/rebel_h/debug/bl31/interrupt_mgmt.o
 .text.disable_intr_rm_local
                0x0000000000000000       0x4c /home/jongja.cho/Git/legacy/rebel_cds_collab_hw/bootloader/cp/tf-a/build/rebel_h/debug/bl31/interrupt_mgmt.o
 .text.enable_intr_rm_local
                0x0000000000000000       0x5c /home/jongja.cho/Git/legacy/rebel_cds_collab_hw/bootloader/cp/tf-a/build/rebel_h/debug/bl31/interrupt_mgmt.o
 .text.register_interrupt_type_handler
                0x0000000000000000       0x68 /home/jongja.cho/Git/legacy/rebel_cds_collab_hw/bootloader/cp/tf-a/build/rebel_h/debug/bl31/interrupt_mgmt.o
 .text          0x0000000000000000        0x0 /home/jongja.cho/Git/legacy/rebel_cds_collab_hw/bootloader/cp/tf-a/build/rebel_h/debug/bl31/backtrace.o
 .data          0x0000000000000000        0x0 /home/jongja.cho/Git/legacy/rebel_cds_collab_hw/bootloader/cp/tf-a/build/rebel_h/debug/bl31/backtrace.o
 .bss           0x0000000000000000        0x0 /home/jongja.cho/Git/legacy/rebel_cds_collab_hw/bootloader/cp/tf-a/build/rebel_h/debug/bl31/backtrace.o
 .text          0x0000000000000000        0x0 /home/jongja.cho/Git/legacy/rebel_cds_collab_hw/bootloader/cp/tf-a/build/rebel_h/debug/bl31/bl_common.o
 .data          0x0000000000000000        0x0 /home/jongja.cho/Git/legacy/rebel_cds_collab_hw/bootloader/cp/tf-a/build/rebel_h/debug/bl31/bl_common.o
 .bss           0x0000000000000000        0x0 /home/jongja.cho/Git/legacy/rebel_cds_collab_hw/bootloader/cp/tf-a/build/rebel_h/debug/bl31/bl_common.o
 .rodata.load_image.str1.1
                0x0000000000000000       0xea /home/jongja.cho/Git/legacy/rebel_cds_collab_hw/bootloader/cp/tf-a/build/rebel_h/debug/bl31/bl_common.o
 .text.load_image
                0x0000000000000000      0x160 /home/jongja.cho/Git/legacy/rebel_cds_collab_hw/bootloader/cp/tf-a/build/rebel_h/debug/bl31/bl_common.o
 .text.page_align
                0x0000000000000000       0x1c /home/jongja.cho/Git/legacy/rebel_cds_collab_hw/bootloader/cp/tf-a/build/rebel_h/debug/bl31/bl_common.o
 .text.load_auth_image
                0x0000000000000000       0x90 /home/jongja.cho/Git/legacy/rebel_cds_collab_hw/bootloader/cp/tf-a/build/rebel_h/debug/bl31/bl_common.o
 .text.get_version
                0x0000000000000000        0xc /home/jongja.cho/Git/legacy/rebel_cds_collab_hw/bootloader/cp/tf-a/build/rebel_h/debug/bl31/bl_common.o
 .rodata.build_version
                0x0000000000000000        0x7 /home/jongja.cho/Git/legacy/rebel_cds_collab_hw/bootloader/cp/tf-a/build/rebel_h/debug/bl31/bl_common.o
 .text          0x0000000000000000        0x0 /home/jongja.cho/Git/legacy/rebel_cds_collab_hw/bootloader/cp/tf-a/build/rebel_h/debug/bl31/runtime_svc.o
 .data          0x0000000000000000        0x0 /home/jongja.cho/Git/legacy/rebel_cds_collab_hw/bootloader/cp/tf-a/build/rebel_h/debug/bl31/runtime_svc.o
 .bss           0x0000000000000000        0x0 /home/jongja.cho/Git/legacy/rebel_cds_collab_hw/bootloader/cp/tf-a/build/rebel_h/debug/bl31/runtime_svc.o
 .text.handle_runtime_svc
                0x0000000000000000       0x7c /home/jongja.cho/Git/legacy/rebel_cds_collab_hw/bootloader/cp/tf-a/build/rebel_h/debug/bl31/runtime_svc.o
 .text          0x0000000000000000        0x0 /home/jongja.cho/Git/legacy/rebel_cds_collab_hw/bootloader/cp/tf-a/build/rebel_h/debug/bl31/tf_log.o
 .data          0x0000000000000000        0x0 /home/jongja.cho/Git/legacy/rebel_cds_collab_hw/bootloader/cp/tf-a/build/rebel_h/debug/bl31/tf_log.o
 .bss           0x0000000000000000        0x0 /home/jongja.cho/Git/legacy/rebel_cds_collab_hw/bootloader/cp/tf-a/build/rebel_h/debug/bl31/tf_log.o
 .text.tf_log_newline
                0x0000000000000000       0x44 /home/jongja.cho/Git/legacy/rebel_cds_collab_hw/bootloader/cp/tf-a/build/rebel_h/debug/bl31/tf_log.o
 .text.tf_log_set_max_level
                0x0000000000000000       0x38 /home/jongja.cho/Git/legacy/rebel_cds_collab_hw/bootloader/cp/tf-a/build/rebel_h/debug/bl31/tf_log.o
 .text          0x0000000000000000        0x0 /home/jongja.cho/Git/legacy/rebel_cds_collab_hw/bootloader/cp/tf-a/build/rebel_h/debug/bl31/arm_gicv3_common.o
 .data          0x0000000000000000        0x0 /home/jongja.cho/Git/legacy/rebel_cds_collab_hw/bootloader/cp/tf-a/build/rebel_h/debug/bl31/arm_gicv3_common.o
 .bss           0x0000000000000000        0x0 /home/jongja.cho/Git/legacy/rebel_cds_collab_hw/bootloader/cp/tf-a/build/rebel_h/debug/bl31/arm_gicv3_common.o
 .text.arm_gicv3_distif_pre_save
                0x0000000000000000       0x80 /home/jongja.cho/Git/legacy/rebel_cds_collab_hw/bootloader/cp/tf-a/build/rebel_h/debug/bl31/arm_gicv3_common.o
 .text.arm_gicv3_distif_post_restore
                0x0000000000000000       0x54 /home/jongja.cho/Git/legacy/rebel_cds_collab_hw/bootloader/cp/tf-a/build/rebel_h/debug/bl31/arm_gicv3_common.o
 .debug_info    0x0000000000000000      0x796 /home/jongja.cho/Git/legacy/rebel_cds_collab_hw/bootloader/cp/tf-a/build/rebel_h/debug/bl31/arm_gicv3_common.o
 .debug_abbrev  0x0000000000000000      0x22f /home/jongja.cho/Git/legacy/rebel_cds_collab_hw/bootloader/cp/tf-a/build/rebel_h/debug/bl31/arm_gicv3_common.o
 .debug_loc     0x0000000000000000      0x606 /home/jongja.cho/Git/legacy/rebel_cds_collab_hw/bootloader/cp/tf-a/build/rebel_h/debug/bl31/arm_gicv3_common.o
 .debug_aranges
                0x0000000000000000       0x40 /home/jongja.cho/Git/legacy/rebel_cds_collab_hw/bootloader/cp/tf-a/build/rebel_h/debug/bl31/arm_gicv3_common.o
 .debug_ranges  0x0000000000000000       0x90 /home/jongja.cho/Git/legacy/rebel_cds_collab_hw/bootloader/cp/tf-a/build/rebel_h/debug/bl31/arm_gicv3_common.o
 .debug_line    0x0000000000000000      0x366 /home/jongja.cho/Git/legacy/rebel_cds_collab_hw/bootloader/cp/tf-a/build/rebel_h/debug/bl31/arm_gicv3_common.o
 .debug_str     0x0000000000000000      0x3c8 /home/jongja.cho/Git/legacy/rebel_cds_collab_hw/bootloader/cp/tf-a/build/rebel_h/debug/bl31/arm_gicv3_common.o
 .comment       0x0000000000000000       0x45 /home/jongja.cho/Git/legacy/rebel_cds_collab_hw/bootloader/cp/tf-a/build/rebel_h/debug/bl31/arm_gicv3_common.o
 .debug_frame   0x0000000000000000       0x60 /home/jongja.cho/Git/legacy/rebel_cds_collab_hw/bootloader/cp/tf-a/build/rebel_h/debug/bl31/arm_gicv3_common.o
 .text          0x0000000000000000        0x0 /home/jongja.cho/Git/legacy/rebel_cds_collab_hw/bootloader/cp/tf-a/build/rebel_h/debug/bl31/gic-x00.o
 .data          0x0000000000000000        0x0 /home/jongja.cho/Git/legacy/rebel_cds_collab_hw/bootloader/cp/tf-a/build/rebel_h/debug/bl31/gic-x00.o
 .bss           0x0000000000000000        0x0 /home/jongja.cho/Git/legacy/rebel_cds_collab_hw/bootloader/cp/tf-a/build/rebel_h/debug/bl31/gic-x00.o
 .text.gicv3_distif_pre_save
                0x0000000000000000        0x4 /home/jongja.cho/Git/legacy/rebel_cds_collab_hw/bootloader/cp/tf-a/build/rebel_h/debug/bl31/gic-x00.o
 .text.gicv3_distif_post_restore
                0x0000000000000000        0x4 /home/jongja.cho/Git/legacy/rebel_cds_collab_hw/bootloader/cp/tf-a/build/rebel_h/debug/bl31/gic-x00.o
 .text.gicv3_rdistif_off
                0x0000000000000000       0x40 /home/jongja.cho/Git/legacy/rebel_cds_collab_hw/bootloader/cp/tf-a/build/rebel_h/debug/bl31/gic-x00.o
 .text          0x0000000000000000        0x0 /home/jongja.cho/Git/legacy/rebel_cds_collab_hw/bootloader/cp/tf-a/build/rebel_h/debug/bl31/gicdv3_helpers.o
 .data          0x0000000000000000        0x0 /home/jongja.cho/Git/legacy/rebel_cds_collab_hw/bootloader/cp/tf-a/build/rebel_h/debug/bl31/gicdv3_helpers.o
 .bss           0x0000000000000000        0x0 /home/jongja.cho/Git/legacy/rebel_cds_collab_hw/bootloader/cp/tf-a/build/rebel_h/debug/bl31/gicdv3_helpers.o
 .text.gicd_get_igroupr
                0x0000000000000000       0x1c /home/jongja.cho/Git/legacy/rebel_cds_collab_hw/bootloader/cp/tf-a/build/rebel_h/debug/bl31/gicdv3_helpers.o
 .text.gicd_set_igroupr
                0x0000000000000000       0x24 /home/jongja.cho/Git/legacy/rebel_cds_collab_hw/bootloader/cp/tf-a/build/rebel_h/debug/bl31/gicdv3_helpers.o
 .text.gicd_get_igrpmodr
                0x0000000000000000       0x1c /home/jongja.cho/Git/legacy/rebel_cds_collab_hw/bootloader/cp/tf-a/build/rebel_h/debug/bl31/gicdv3_helpers.o
 .text.gicd_set_icenabler
                0x0000000000000000       0x1c /home/jongja.cho/Git/legacy/rebel_cds_collab_hw/bootloader/cp/tf-a/build/rebel_h/debug/bl31/gicdv3_helpers.o
 .text.gicd_set_icpendr
                0x0000000000000000       0x1c /home/jongja.cho/Git/legacy/rebel_cds_collab_hw/bootloader/cp/tf-a/build/rebel_h/debug/bl31/gicdv3_helpers.o
 .text.gicd_get_isactiver
                0x0000000000000000       0x1c /home/jongja.cho/Git/legacy/rebel_cds_collab_hw/bootloader/cp/tf-a/build/rebel_h/debug/bl31/gicdv3_helpers.o
 .text.gicd_set_isactiver
                0x0000000000000000       0x1c /home/jongja.cho/Git/legacy/rebel_cds_collab_hw/bootloader/cp/tf-a/build/rebel_h/debug/bl31/gicdv3_helpers.o
 .text.gicd_set_ispendr
                0x0000000000000000       0x1c /home/jongja.cho/Git/legacy/rebel_cds_collab_hw/bootloader/cp/tf-a/build/rebel_h/debug/bl31/gicdv3_helpers.o
 .text.gicd_read_icfgr
                0x0000000000000000       0x14 /home/jongja.cho/Git/legacy/rebel_cds_collab_hw/bootloader/cp/tf-a/build/rebel_h/debug/bl31/gicdv3_helpers.o
 .text.gicd_read_igroupr
                0x0000000000000000       0x14 /home/jongja.cho/Git/legacy/rebel_cds_collab_hw/bootloader/cp/tf-a/build/rebel_h/debug/bl31/gicdv3_helpers.o
 .text.gicd_read_igrpmodr
                0x0000000000000000       0x14 /home/jongja.cho/Git/legacy/rebel_cds_collab_hw/bootloader/cp/tf-a/build/rebel_h/debug/bl31/gicdv3_helpers.o
 .text.gicd_write_igrpmodr
                0x0000000000000000       0x14 /home/jongja.cho/Git/legacy/rebel_cds_collab_hw/bootloader/cp/tf-a/build/rebel_h/debug/bl31/gicdv3_helpers.o
 .text.gicd_read_ipriorityr
                0x0000000000000000       0x10 /home/jongja.cho/Git/legacy/rebel_cds_collab_hw/bootloader/cp/tf-a/build/rebel_h/debug/bl31/gicdv3_helpers.o
 .text.gicd_read_isactiver
                0x0000000000000000       0x14 /home/jongja.cho/Git/legacy/rebel_cds_collab_hw/bootloader/cp/tf-a/build/rebel_h/debug/bl31/gicdv3_helpers.o
 .text.gicd_write_isactiver
                0x0000000000000000       0x14 /home/jongja.cho/Git/legacy/rebel_cds_collab_hw/bootloader/cp/tf-a/build/rebel_h/debug/bl31/gicdv3_helpers.o
 .text.gicd_read_isenabler
                0x0000000000000000       0x14 /home/jongja.cho/Git/legacy/rebel_cds_collab_hw/bootloader/cp/tf-a/build/rebel_h/debug/bl31/gicdv3_helpers.o
 .text.gicd_write_isenabler
                0x0000000000000000       0x14 /home/jongja.cho/Git/legacy/rebel_cds_collab_hw/bootloader/cp/tf-a/build/rebel_h/debug/bl31/gicdv3_helpers.o
 .text.gicd_read_ispendr
                0x0000000000000000       0x14 /home/jongja.cho/Git/legacy/rebel_cds_collab_hw/bootloader/cp/tf-a/build/rebel_h/debug/bl31/gicdv3_helpers.o
 .text.gicd_write_ispendr
                0x0000000000000000       0x14 /home/jongja.cho/Git/legacy/rebel_cds_collab_hw/bootloader/cp/tf-a/build/rebel_h/debug/bl31/gicdv3_helpers.o
 .text.gicd_read_nsacr
                0x0000000000000000       0x14 /home/jongja.cho/Git/legacy/rebel_cds_collab_hw/bootloader/cp/tf-a/build/rebel_h/debug/bl31/gicdv3_helpers.o
 .text.gicd_write_nsacr
                0x0000000000000000       0x14 /home/jongja.cho/Git/legacy/rebel_cds_collab_hw/bootloader/cp/tf-a/build/rebel_h/debug/bl31/gicdv3_helpers.o
 .text          0x0000000000000000        0x0 /home/jongja.cho/Git/legacy/rebel_cds_collab_hw/bootloader/cp/tf-a/build/rebel_h/debug/bl31/gicrv3_helpers.o
 .data          0x0000000000000000        0x0 /home/jongja.cho/Git/legacy/rebel_cds_collab_hw/bootloader/cp/tf-a/build/rebel_h/debug/bl31/gicrv3_helpers.o
 .bss           0x0000000000000000        0x0 /home/jongja.cho/Git/legacy/rebel_cds_collab_hw/bootloader/cp/tf-a/build/rebel_h/debug/bl31/gicrv3_helpers.o
 .text.gicr_read_ipriorityr
                0x0000000000000000       0x14 /home/jongja.cho/Git/legacy/rebel_cds_collab_hw/bootloader/cp/tf-a/build/rebel_h/debug/bl31/gicrv3_helpers.o
 .text.gicr_get_igroupr
                0x0000000000000000       0x20 /home/jongja.cho/Git/legacy/rebel_cds_collab_hw/bootloader/cp/tf-a/build/rebel_h/debug/bl31/gicrv3_helpers.o
 .text.gicr_set_igroupr
                0x0000000000000000       0x28 /home/jongja.cho/Git/legacy/rebel_cds_collab_hw/bootloader/cp/tf-a/build/rebel_h/debug/bl31/gicrv3_helpers.o
 .text.gicr_get_igrpmodr
                0x0000000000000000       0x20 /home/jongja.cho/Git/legacy/rebel_cds_collab_hw/bootloader/cp/tf-a/build/rebel_h/debug/bl31/gicrv3_helpers.o
 .text.gicr_set_icenabler
                0x0000000000000000       0x20 /home/jongja.cho/Git/legacy/rebel_cds_collab_hw/bootloader/cp/tf-a/build/rebel_h/debug/bl31/gicrv3_helpers.o
 .text.gicr_get_isactiver
                0x0000000000000000       0x20 /home/jongja.cho/Git/legacy/rebel_cds_collab_hw/bootloader/cp/tf-a/build/rebel_h/debug/bl31/gicrv3_helpers.o
 .text.gicr_set_icpendr
                0x0000000000000000       0x20 /home/jongja.cho/Git/legacy/rebel_cds_collab_hw/bootloader/cp/tf-a/build/rebel_h/debug/bl31/gicrv3_helpers.o
 .text.gicr_set_ispendr
                0x0000000000000000       0x20 /home/jongja.cho/Git/legacy/rebel_cds_collab_hw/bootloader/cp/tf-a/build/rebel_h/debug/bl31/gicrv3_helpers.o
 .text          0x0000000000000000        0x0 /home/jongja.cho/Git/legacy/rebel_cds_collab_hw/bootloader/cp/tf-a/build/rebel_h/debug/bl31/gicv3_helpers.o
 .data          0x0000000000000000        0x0 /home/jongja.cho/Git/legacy/rebel_cds_collab_hw/bootloader/cp/tf-a/build/rebel_h/debug/bl31/gicv3_helpers.o
 .bss           0x0000000000000000        0x0 /home/jongja.cho/Git/legacy/rebel_cds_collab_hw/bootloader/cp/tf-a/build/rebel_h/debug/bl31/gicv3_helpers.o
 .text.gicv3_get_multichip_base
                0x0000000000000000        0x8 /home/jongja.cho/Git/legacy/rebel_cds_collab_hw/bootloader/cp/tf-a/build/rebel_h/debug/bl31/gicv3_helpers.o
 .text.gicv3_rdistif_get_number_frames
                0x0000000000000000       0x24 /home/jongja.cho/Git/legacy/rebel_cds_collab_hw/bootloader/cp/tf-a/build/rebel_h/debug/bl31/gicv3_helpers.o
 .text.gicv3_get_component_partnum
                0x0000000000000000       0x20 /home/jongja.cho/Git/legacy/rebel_cds_collab_hw/bootloader/cp/tf-a/build/rebel_h/debug/bl31/gicv3_helpers.o
 .text          0x0000000000000000        0x0 /home/jongja.cho/Git/legacy/rebel_cds_collab_hw/bootloader/cp/tf-a/build/rebel_h/debug/bl31/gicv3_main.o
 .data          0x0000000000000000        0x0 /home/jongja.cho/Git/legacy/rebel_cds_collab_hw/bootloader/cp/tf-a/build/rebel_h/debug/bl31/gicv3_main.o
 .bss           0x0000000000000000        0x0 /home/jongja.cho/Git/legacy/rebel_cds_collab_hw/bootloader/cp/tf-a/build/rebel_h/debug/bl31/gicv3_main.o
 .text.gicr_wait_for_pending_write
                0x0000000000000000        0xc /home/jongja.cho/Git/legacy/rebel_cds_collab_hw/bootloader/cp/tf-a/build/rebel_h/debug/bl31/gicv3_main.o
 .text.gicv3_rdistif_off
                0x0000000000000000        0x4 /home/jongja.cho/Git/legacy/rebel_cds_collab_hw/bootloader/cp/tf-a/build/rebel_h/debug/bl31/gicv3_main.o
 .text.gicv3_rdistif_on
                0x0000000000000000        0x4 /home/jongja.cho/Git/legacy/rebel_cds_collab_hw/bootloader/cp/tf-a/build/rebel_h/debug/bl31/gicv3_main.o
 .text.gicv3_get_pending_interrupt_id
                0x0000000000000000       0x3c /home/jongja.cho/Git/legacy/rebel_cds_collab_hw/bootloader/cp/tf-a/build/rebel_h/debug/bl31/gicv3_main.o
 .text.gicv3_get_interrupt_group
                0x0000000000000000       0xdc /home/jongja.cho/Git/legacy/rebel_cds_collab_hw/bootloader/cp/tf-a/build/rebel_h/debug/bl31/gicv3_main.o
 .text.gicv3_its_save_disable
                0x0000000000000000       0x88 /home/jongja.cho/Git/legacy/rebel_cds_collab_hw/bootloader/cp/tf-a/build/rebel_h/debug/bl31/gicv3_main.o
 .text.gicv3_its_restore
                0x0000000000000000       0x80 /home/jongja.cho/Git/legacy/rebel_cds_collab_hw/bootloader/cp/tf-a/build/rebel_h/debug/bl31/gicv3_main.o
 .text.gicv3_rdistif_save
                0x0000000000000000      0x108 /home/jongja.cho/Git/legacy/rebel_cds_collab_hw/bootloader/cp/tf-a/build/rebel_h/debug/bl31/gicv3_main.o
 .text.gicv3_rdistif_init_restore
                0x0000000000000000      0x148 /home/jongja.cho/Git/legacy/rebel_cds_collab_hw/bootloader/cp/tf-a/build/rebel_h/debug/bl31/gicv3_main.o
 .text.gicv3_distif_save
                0x0000000000000000      0x214 /home/jongja.cho/Git/legacy/rebel_cds_collab_hw/bootloader/cp/tf-a/build/rebel_h/debug/bl31/gicv3_main.o
 .text.gicv3_distif_init_restore
                0x0000000000000000      0x230 /home/jongja.cho/Git/legacy/rebel_cds_collab_hw/bootloader/cp/tf-a/build/rebel_h/debug/bl31/gicv3_main.o
 .text.gicv3_get_running_priority
                0x0000000000000000        0x8 /home/jongja.cho/Git/legacy/rebel_cds_collab_hw/bootloader/cp/tf-a/build/rebel_h/debug/bl31/gicv3_main.o
 .text.gicv3_get_interrupt_active
                0x0000000000000000       0x8c /home/jongja.cho/Git/legacy/rebel_cds_collab_hw/bootloader/cp/tf-a/build/rebel_h/debug/bl31/gicv3_main.o
 .text.gicv3_enable_interrupt
                0x0000000000000000       0x9c /home/jongja.cho/Git/legacy/rebel_cds_collab_hw/bootloader/cp/tf-a/build/rebel_h/debug/bl31/gicv3_main.o
 .text.gicv3_disable_interrupt
                0x0000000000000000       0xb8 /home/jongja.cho/Git/legacy/rebel_cds_collab_hw/bootloader/cp/tf-a/build/rebel_h/debug/bl31/gicv3_main.o
 .text.gicv3_set_interrupt_priority
                0x0000000000000000       0x94 /home/jongja.cho/Git/legacy/rebel_cds_collab_hw/bootloader/cp/tf-a/build/rebel_h/debug/bl31/gicv3_main.o
 .text.gicv3_set_interrupt_group
                0x0000000000000000      0x148 /home/jongja.cho/Git/legacy/rebel_cds_collab_hw/bootloader/cp/tf-a/build/rebel_h/debug/bl31/gicv3_main.o
 .text.gicv3_raise_sgi
                0x0000000000000000       0x88 /home/jongja.cho/Git/legacy/rebel_cds_collab_hw/bootloader/cp/tf-a/build/rebel_h/debug/bl31/gicv3_main.o
 .rodata.gicv3_set_spi_routing.str1.1
                0x0000000000000000       0x33 /home/jongja.cho/Git/legacy/rebel_cds_collab_hw/bootloader/cp/tf-a/build/rebel_h/debug/bl31/gicv3_main.o
 .text.gicv3_set_spi_routing
                0x0000000000000000       0xa4 /home/jongja.cho/Git/legacy/rebel_cds_collab_hw/bootloader/cp/tf-a/build/rebel_h/debug/bl31/gicv3_main.o
 .text.gicv3_clear_interrupt_pending
                0x0000000000000000       0x90 /home/jongja.cho/Git/legacy/rebel_cds_collab_hw/bootloader/cp/tf-a/build/rebel_h/debug/bl31/gicv3_main.o
 .text.gicv3_set_interrupt_pending
                0x0000000000000000       0x9c /home/jongja.cho/Git/legacy/rebel_cds_collab_hw/bootloader/cp/tf-a/build/rebel_h/debug/bl31/gicv3_main.o
 .text.gicv3_set_pmr
                0x0000000000000000       0x14 /home/jongja.cho/Git/legacy/rebel_cds_collab_hw/bootloader/cp/tf-a/build/rebel_h/debug/bl31/gicv3_main.o
 .text.gicv3_deactivate_priority
                0x0000000000000000       0x50 /home/jongja.cho/Git/legacy/rebel_cds_collab_hw/bootloader/cp/tf-a/build/rebel_h/debug/bl31/gicv3_main.o
 .rodata.CSWTCH.210
                0x0000000000000000        0x3 /home/jongja.cho/Git/legacy/rebel_cds_collab_hw/bootloader/cp/tf-a/build/rebel_h/debug/bl31/gicv3_main.o
 .rodata.CSWTCH.209
                0x0000000000000000        0x3 /home/jongja.cho/Git/legacy/rebel_cds_collab_hw/bootloader/cp/tf-a/build/rebel_h/debug/bl31/gicv3_main.o
 .rodata.__func__.0
                0x0000000000000000       0x1c /home/jongja.cho/Git/legacy/rebel_cds_collab_hw/bootloader/cp/tf-a/build/rebel_h/debug/bl31/gicv3_main.o
 .rodata.__func__.1
                0x0000000000000000       0x1e /home/jongja.cho/Git/legacy/rebel_cds_collab_hw/bootloader/cp/tf-a/build/rebel_h/debug/bl31/gicv3_main.o
 .rodata.__func__.2
                0x0000000000000000       0x16 /home/jongja.cho/Git/legacy/rebel_cds_collab_hw/bootloader/cp/tf-a/build/rebel_h/debug/bl31/gicv3_main.o
 .rodata.__func__.3
                0x0000000000000000       0x1a /home/jongja.cho/Git/legacy/rebel_cds_collab_hw/bootloader/cp/tf-a/build/rebel_h/debug/bl31/gicv3_main.o
 .rodata.__func__.4
                0x0000000000000000       0x1d /home/jongja.cho/Git/legacy/rebel_cds_collab_hw/bootloader/cp/tf-a/build/rebel_h/debug/bl31/gicv3_main.o
 .rodata.__func__.5
                0x0000000000000000       0x18 /home/jongja.cho/Git/legacy/rebel_cds_collab_hw/bootloader/cp/tf-a/build/rebel_h/debug/bl31/gicv3_main.o
 .rodata.__func__.6
                0x0000000000000000       0x17 /home/jongja.cho/Git/legacy/rebel_cds_collab_hw/bootloader/cp/tf-a/build/rebel_h/debug/bl31/gicv3_main.o
 .rodata.__func__.7
                0x0000000000000000       0x1b /home/jongja.cho/Git/legacy/rebel_cds_collab_hw/bootloader/cp/tf-a/build/rebel_h/debug/bl31/gicv3_main.o
 .bss.gic_lock  0x0000000000000000        0x4 /home/jongja.cho/Git/legacy/rebel_cds_collab_hw/bootloader/cp/tf-a/build/rebel_h/debug/bl31/gicv3_main.o
 .text          0x0000000000000000        0x0 /home/jongja.cho/Git/legacy/rebel_cds_collab_hw/bootloader/cp/tf-a/build/rebel_h/debug/bl31/multi_console.o
 .data          0x0000000000000000        0x0 /home/jongja.cho/Git/legacy/rebel_cds_collab_hw/bootloader/cp/tf-a/build/rebel_h/debug/bl31/multi_console.o
 .bss           0x0000000000000000        0x0 /home/jongja.cho/Git/legacy/rebel_cds_collab_hw/bootloader/cp/tf-a/build/rebel_h/debug/bl31/multi_console.o
 .text.console_unregister
                0x0000000000000000       0x48 /home/jongja.cho/Git/legacy/rebel_cds_collab_hw/bootloader/cp/tf-a/build/rebel_h/debug/bl31/multi_console.o
 .text          0x0000000000000000        0x0 /home/jongja.cho/Git/legacy/rebel_cds_collab_hw/bootloader/cp/tf-a/build/rebel_h/debug/bl31/delay_timer.o
 .data          0x0000000000000000        0x0 /home/jongja.cho/Git/legacy/rebel_cds_collab_hw/bootloader/cp/tf-a/build/rebel_h/debug/bl31/delay_timer.o
 .bss           0x0000000000000000        0x0 /home/jongja.cho/Git/legacy/rebel_cds_collab_hw/bootloader/cp/tf-a/build/rebel_h/debug/bl31/delay_timer.o
 .text.udelay   0x0000000000000000       0x90 /home/jongja.cho/Git/legacy/rebel_cds_collab_hw/bootloader/cp/tf-a/build/rebel_h/debug/bl31/delay_timer.o
 .text.mdelay   0x0000000000000000       0x28 /home/jongja.cho/Git/legacy/rebel_cds_collab_hw/bootloader/cp/tf-a/build/rebel_h/debug/bl31/delay_timer.o
 .text.timer_init
                0x0000000000000000       0x34 /home/jongja.cho/Git/legacy/rebel_cds_collab_hw/bootloader/cp/tf-a/build/rebel_h/debug/bl31/delay_timer.o
 .text.timeout_init_us
                0x0000000000000000       0x28 /home/jongja.cho/Git/legacy/rebel_cds_collab_hw/bootloader/cp/tf-a/build/rebel_h/debug/bl31/delay_timer.o
 .text.timeout_elapsed
                0x0000000000000000       0x28 /home/jongja.cho/Git/legacy/rebel_cds_collab_hw/bootloader/cp/tf-a/build/rebel_h/debug/bl31/delay_timer.o
 .bss.timer_ops
                0x0000000000000000        0x8 /home/jongja.cho/Git/legacy/rebel_cds_collab_hw/bootloader/cp/tf-a/build/rebel_h/debug/bl31/delay_timer.o
 .debug_info    0x0000000000000000      0x3c6 /home/jongja.cho/Git/legacy/rebel_cds_collab_hw/bootloader/cp/tf-a/build/rebel_h/debug/bl31/delay_timer.o
 .debug_abbrev  0x0000000000000000      0x179 /home/jongja.cho/Git/legacy/rebel_cds_collab_hw/bootloader/cp/tf-a/build/rebel_h/debug/bl31/delay_timer.o
 .debug_loc     0x0000000000000000      0x2de /home/jongja.cho/Git/legacy/rebel_cds_collab_hw/bootloader/cp/tf-a/build/rebel_h/debug/bl31/delay_timer.o
 .debug_aranges
                0x0000000000000000       0x70 /home/jongja.cho/Git/legacy/rebel_cds_collab_hw/bootloader/cp/tf-a/build/rebel_h/debug/bl31/delay_timer.o
 .debug_ranges  0x0000000000000000       0x60 /home/jongja.cho/Git/legacy/rebel_cds_collab_hw/bootloader/cp/tf-a/build/rebel_h/debug/bl31/delay_timer.o
 .debug_line    0x0000000000000000      0x1fb /home/jongja.cho/Git/legacy/rebel_cds_collab_hw/bootloader/cp/tf-a/build/rebel_h/debug/bl31/delay_timer.o
 .debug_str     0x0000000000000000      0x39a /home/jongja.cho/Git/legacy/rebel_cds_collab_hw/bootloader/cp/tf-a/build/rebel_h/debug/bl31/delay_timer.o
 .comment       0x0000000000000000       0x45 /home/jongja.cho/Git/legacy/rebel_cds_collab_hw/bootloader/cp/tf-a/build/rebel_h/debug/bl31/delay_timer.o
 .debug_frame   0x0000000000000000       0xe0 /home/jongja.cho/Git/legacy/rebel_cds_collab_hw/bootloader/cp/tf-a/build/rebel_h/debug/bl31/delay_timer.o
 .text          0x0000000000000000        0x0 /home/jongja.cho/Git/legacy/rebel_cds_collab_hw/bootloader/cp/tf-a/build/rebel_h/debug/bl31/generic_delay_timer.o
 .data          0x0000000000000000        0x0 /home/jongja.cho/Git/legacy/rebel_cds_collab_hw/bootloader/cp/tf-a/build/rebel_h/debug/bl31/generic_delay_timer.o
 .bss           0x0000000000000000        0x0 /home/jongja.cho/Git/legacy/rebel_cds_collab_hw/bootloader/cp/tf-a/build/rebel_h/debug/bl31/generic_delay_timer.o
 .text.generic_delay_timeout_init_us
                0x0000000000000000       0x24 /home/jongja.cho/Git/legacy/rebel_cds_collab_hw/bootloader/cp/tf-a/build/rebel_h/debug/bl31/generic_delay_timer.o
 .text.generic_delay_timeout_elapsed
                0x0000000000000000       0x10 /home/jongja.cho/Git/legacy/rebel_cds_collab_hw/bootloader/cp/tf-a/build/rebel_h/debug/bl31/generic_delay_timer.o
 .text.generic_delay_get_timer_value
                0x0000000000000000        0xc /home/jongja.cho/Git/legacy/rebel_cds_collab_hw/bootloader/cp/tf-a/build/rebel_h/debug/bl31/generic_delay_timer.o
 .text.generic_delay_timer_init_args
                0x0000000000000000       0x38 /home/jongja.cho/Git/legacy/rebel_cds_collab_hw/bootloader/cp/tf-a/build/rebel_h/debug/bl31/generic_delay_timer.o
 .text.generic_delay_timer_init
                0x0000000000000000       0x5c /home/jongja.cho/Git/legacy/rebel_cds_collab_hw/bootloader/cp/tf-a/build/rebel_h/debug/bl31/generic_delay_timer.o
 .bss.ops       0x0000000000000000       0x20 /home/jongja.cho/Git/legacy/rebel_cds_collab_hw/bootloader/cp/tf-a/build/rebel_h/debug/bl31/generic_delay_timer.o
 .debug_info    0x0000000000000000      0x4d5 /home/jongja.cho/Git/legacy/rebel_cds_collab_hw/bootloader/cp/tf-a/build/rebel_h/debug/bl31/generic_delay_timer.o
 .debug_abbrev  0x0000000000000000      0x253 /home/jongja.cho/Git/legacy/rebel_cds_collab_hw/bootloader/cp/tf-a/build/rebel_h/debug/bl31/generic_delay_timer.o
 .debug_loc     0x0000000000000000      0x322 /home/jongja.cho/Git/legacy/rebel_cds_collab_hw/bootloader/cp/tf-a/build/rebel_h/debug/bl31/generic_delay_timer.o
 .debug_aranges
                0x0000000000000000       0x70 /home/jongja.cho/Git/legacy/rebel_cds_collab_hw/bootloader/cp/tf-a/build/rebel_h/debug/bl31/generic_delay_timer.o
 .debug_ranges  0x0000000000000000       0x90 /home/jongja.cho/Git/legacy/rebel_cds_collab_hw/bootloader/cp/tf-a/build/rebel_h/debug/bl31/generic_delay_timer.o
 .debug_line    0x0000000000000000      0x2b9 /home/jongja.cho/Git/legacy/rebel_cds_collab_hw/bootloader/cp/tf-a/build/rebel_h/debug/bl31/generic_delay_timer.o
 .debug_str     0x0000000000000000      0x46c /home/jongja.cho/Git/legacy/rebel_cds_collab_hw/bootloader/cp/tf-a/build/rebel_h/debug/bl31/generic_delay_timer.o
 .comment       0x0000000000000000       0x45 /home/jongja.cho/Git/legacy/rebel_cds_collab_hw/bootloader/cp/tf-a/build/rebel_h/debug/bl31/generic_delay_timer.o
 .debug_frame   0x0000000000000000       0x98 /home/jongja.cho/Git/legacy/rebel_cds_collab_hw/bootloader/cp/tf-a/build/rebel_h/debug/bl31/generic_delay_timer.o
 .text          0x0000000000000000        0x0 /home/jongja.cho/Git/legacy/rebel_cds_collab_hw/bootloader/cp/tf-a/build/rebel_h/debug/bl31/mt25q_flash.o
 .data          0x0000000000000000        0x0 /home/jongja.cho/Git/legacy/rebel_cds_collab_hw/bootloader/cp/tf-a/build/rebel_h/debug/bl31/mt25q_flash.o
 .bss           0x0000000000000000        0x0 /home/jongja.cho/Git/legacy/rebel_cds_collab_hw/bootloader/cp/tf-a/build/rebel_h/debug/bl31/mt25q_flash.o
 .text          0x0000000000000000        0x0 /home/jongja.cho/Git/legacy/rebel_cds_collab_hw/bootloader/cp/tf-a/build/rebel_h/debug/bl31/qspi_boot.o
 .data          0x0000000000000000        0x0 /home/jongja.cho/Git/legacy/rebel_cds_collab_hw/bootloader/cp/tf-a/build/rebel_h/debug/bl31/qspi_boot.o
 .bss           0x0000000000000000        0x0 /home/jongja.cho/Git/legacy/rebel_cds_collab_hw/bootloader/cp/tf-a/build/rebel_h/debug/bl31/qspi_boot.o
 .text.qspi_boot_enhance_rx_i_d_two
                0x0000000000000000       0x4c /home/jongja.cho/Git/legacy/rebel_cds_collab_hw/bootloader/cp/tf-a/build/rebel_h/debug/bl31/qspi_boot.o
 .text.qspi_boot_enhance_tx_i_a_d_once
                0x0000000000000000       0x38 /home/jongja.cho/Git/legacy/rebel_cds_collab_hw/bootloader/cp/tf-a/build/rebel_h/debug/bl31/qspi_boot.o
 .text.qspi_boot_enhance_rx_i_a_d_once
                0x0000000000000000       0x4c /home/jongja.cho/Git/legacy/rebel_cds_collab_hw/bootloader/cp/tf-a/build/rebel_h/debug/bl31/qspi_boot.o
 .text          0x0000000000000000        0x0 /home/jongja.cho/Git/legacy/rebel_cds_collab_hw/bootloader/cp/tf-a/build/rebel_h/debug/bl31/dw_wdt.o
 .data          0x0000000000000000        0x0 /home/jongja.cho/Git/legacy/rebel_cds_collab_hw/bootloader/cp/tf-a/build/rebel_h/debug/bl31/dw_wdt.o
 .bss           0x0000000000000000        0x0 /home/jongja.cho/Git/legacy/rebel_cds_collab_hw/bootloader/cp/tf-a/build/rebel_h/debug/bl31/dw_wdt.o
 .text.dw_wdt_init
                0x0000000000000000       0x1c /home/jongja.cho/Git/legacy/rebel_cds_collab_hw/bootloader/cp/tf-a/build/rebel_h/debug/bl31/dw_wdt.o
 .text.dw_wdt_kick
                0x0000000000000000       0x10 /home/jongja.cho/Git/legacy/rebel_cds_collab_hw/bootloader/cp/tf-a/build/rebel_h/debug/bl31/dw_wdt.o
 .debug_info    0x0000000000000000      0x320 /home/jongja.cho/Git/legacy/rebel_cds_collab_hw/bootloader/cp/tf-a/build/rebel_h/debug/bl31/dw_wdt.o
 .debug_abbrev  0x0000000000000000      0x145 /home/jongja.cho/Git/legacy/rebel_cds_collab_hw/bootloader/cp/tf-a/build/rebel_h/debug/bl31/dw_wdt.o
 .debug_loc     0x0000000000000000      0x213 /home/jongja.cho/Git/legacy/rebel_cds_collab_hw/bootloader/cp/tf-a/build/rebel_h/debug/bl31/dw_wdt.o
 .debug_aranges
                0x0000000000000000       0x40 /home/jongja.cho/Git/legacy/rebel_cds_collab_hw/bootloader/cp/tf-a/build/rebel_h/debug/bl31/dw_wdt.o
 .debug_ranges  0x0000000000000000       0x60 /home/jongja.cho/Git/legacy/rebel_cds_collab_hw/bootloader/cp/tf-a/build/rebel_h/debug/bl31/dw_wdt.o
 .debug_line    0x0000000000000000      0x165 /home/jongja.cho/Git/legacy/rebel_cds_collab_hw/bootloader/cp/tf-a/build/rebel_h/debug/bl31/dw_wdt.o
 .debug_str     0x0000000000000000      0x2c8 /home/jongja.cho/Git/legacy/rebel_cds_collab_hw/bootloader/cp/tf-a/build/rebel_h/debug/bl31/dw_wdt.o
 .comment       0x0000000000000000       0x45 /home/jongja.cho/Git/legacy/rebel_cds_collab_hw/bootloader/cp/tf-a/build/rebel_h/debug/bl31/dw_wdt.o
 .debug_frame   0x0000000000000000       0x40 /home/jongja.cho/Git/legacy/rebel_cds_collab_hw/bootloader/cp/tf-a/build/rebel_h/debug/bl31/dw_wdt.o
 .text          0x0000000000000000        0x0 /home/jongja.cho/Git/legacy/rebel_cds_collab_hw/bootloader/cp/tf-a/build/rebel_h/debug/bl31/popcountdi2.o
 .data          0x0000000000000000        0x0 /home/jongja.cho/Git/legacy/rebel_cds_collab_hw/bootloader/cp/tf-a/build/rebel_h/debug/bl31/popcountdi2.o
 .bss           0x0000000000000000        0x0 /home/jongja.cho/Git/legacy/rebel_cds_collab_hw/bootloader/cp/tf-a/build/rebel_h/debug/bl31/popcountdi2.o
 .text.__popcountdi2
                0x0000000000000000       0x38 /home/jongja.cho/Git/legacy/rebel_cds_collab_hw/bootloader/cp/tf-a/build/rebel_h/debug/bl31/popcountdi2.o
 .debug_info    0x0000000000000000      0x146 /home/jongja.cho/Git/legacy/rebel_cds_collab_hw/bootloader/cp/tf-a/build/rebel_h/debug/bl31/popcountdi2.o
 .debug_abbrev  0x0000000000000000       0x7d /home/jongja.cho/Git/legacy/rebel_cds_collab_hw/bootloader/cp/tf-a/build/rebel_h/debug/bl31/popcountdi2.o
 .debug_loc     0x0000000000000000      0x13b /home/jongja.cho/Git/legacy/rebel_cds_collab_hw/bootloader/cp/tf-a/build/rebel_h/debug/bl31/popcountdi2.o
 .debug_aranges
                0x0000000000000000       0x30 /home/jongja.cho/Git/legacy/rebel_cds_collab_hw/bootloader/cp/tf-a/build/rebel_h/debug/bl31/popcountdi2.o
 .debug_ranges  0x0000000000000000       0x20 /home/jongja.cho/Git/legacy/rebel_cds_collab_hw/bootloader/cp/tf-a/build/rebel_h/debug/bl31/popcountdi2.o
 .debug_line    0x0000000000000000       0xf4 /home/jongja.cho/Git/legacy/rebel_cds_collab_hw/bootloader/cp/tf-a/build/rebel_h/debug/bl31/popcountdi2.o
 .debug_str     0x0000000000000000      0x294 /home/jongja.cho/Git/legacy/rebel_cds_collab_hw/bootloader/cp/tf-a/build/rebel_h/debug/bl31/popcountdi2.o
 .comment       0x0000000000000000       0x45 /home/jongja.cho/Git/legacy/rebel_cds_collab_hw/bootloader/cp/tf-a/build/rebel_h/debug/bl31/popcountdi2.o
 .debug_frame   0x0000000000000000       0x28 /home/jongja.cho/Git/legacy/rebel_cds_collab_hw/bootloader/cp/tf-a/build/rebel_h/debug/bl31/popcountdi2.o
 .text          0x0000000000000000        0x0 /home/jongja.cho/Git/legacy/rebel_cds_collab_hw/bootloader/cp/tf-a/build/rebel_h/debug/bl31/popcountsi2.o
 .data          0x0000000000000000        0x0 /home/jongja.cho/Git/legacy/rebel_cds_collab_hw/bootloader/cp/tf-a/build/rebel_h/debug/bl31/popcountsi2.o
 .bss           0x0000000000000000        0x0 /home/jongja.cho/Git/legacy/rebel_cds_collab_hw/bootloader/cp/tf-a/build/rebel_h/debug/bl31/popcountsi2.o
 .text.__popcountsi2
                0x0000000000000000       0x30 /home/jongja.cho/Git/legacy/rebel_cds_collab_hw/bootloader/cp/tf-a/build/rebel_h/debug/bl31/popcountsi2.o
 .debug_info    0x0000000000000000      0x11b /home/jongja.cho/Git/legacy/rebel_cds_collab_hw/bootloader/cp/tf-a/build/rebel_h/debug/bl31/popcountsi2.o
 .debug_abbrev  0x0000000000000000       0x7d /home/jongja.cho/Git/legacy/rebel_cds_collab_hw/bootloader/cp/tf-a/build/rebel_h/debug/bl31/popcountsi2.o
 .debug_loc     0x0000000000000000      0x18b /home/jongja.cho/Git/legacy/rebel_cds_collab_hw/bootloader/cp/tf-a/build/rebel_h/debug/bl31/popcountsi2.o
 .debug_aranges
                0x0000000000000000       0x30 /home/jongja.cho/Git/legacy/rebel_cds_collab_hw/bootloader/cp/tf-a/build/rebel_h/debug/bl31/popcountsi2.o
 .debug_ranges  0x0000000000000000       0x20 /home/jongja.cho/Git/legacy/rebel_cds_collab_hw/bootloader/cp/tf-a/build/rebel_h/debug/bl31/popcountsi2.o
 .debug_line    0x0000000000000000       0xc3 /home/jongja.cho/Git/legacy/rebel_cds_collab_hw/bootloader/cp/tf-a/build/rebel_h/debug/bl31/popcountsi2.o
 .debug_str     0x0000000000000000      0x284 /home/jongja.cho/Git/legacy/rebel_cds_collab_hw/bootloader/cp/tf-a/build/rebel_h/debug/bl31/popcountsi2.o
 .comment       0x0000000000000000       0x45 /home/jongja.cho/Git/legacy/rebel_cds_collab_hw/bootloader/cp/tf-a/build/rebel_h/debug/bl31/popcountsi2.o
 .debug_frame   0x0000000000000000       0x28 /home/jongja.cho/Git/legacy/rebel_cds_collab_hw/bootloader/cp/tf-a/build/rebel_h/debug/bl31/popcountsi2.o
 .text          0x0000000000000000        0x0 /home/jongja.cho/Git/legacy/rebel_cds_collab_hw/bootloader/cp/tf-a/build/rebel_h/debug/bl31/errata_common.o
 .data          0x0000000000000000        0x0 /home/jongja.cho/Git/legacy/rebel_cds_collab_hw/bootloader/cp/tf-a/build/rebel_h/debug/bl31/errata_common.o
 .bss           0x0000000000000000        0x0 /home/jongja.cho/Git/legacy/rebel_cds_collab_hw/bootloader/cp/tf-a/build/rebel_h/debug/bl31/errata_common.o
 .text.check_if_trbe_disable_affected_core
                0x0000000000000000        0x8 /home/jongja.cho/Git/legacy/rebel_cds_collab_hw/bootloader/cp/tf-a/build/rebel_h/debug/bl31/errata_common.o
 .text.errata_ich_vmcr_el2_applies
                0x0000000000000000        0x8 /home/jongja.cho/Git/legacy/rebel_cds_collab_hw/bootloader/cp/tf-a/build/rebel_h/debug/bl31/errata_common.o
 .text          0x0000000000000000        0x0 /home/jongja.cho/Git/legacy/rebel_cds_collab_hw/bootloader/cp/tf-a/build/rebel_h/debug/bl31/errata_report.o
 .data          0x0000000000000000        0x0 /home/jongja.cho/Git/legacy/rebel_cds_collab_hw/bootloader/cp/tf-a/build/rebel_h/debug/bl31/errata_report.o
 .bss           0x0000000000000000        0x0 /home/jongja.cho/Git/legacy/rebel_cds_collab_hw/bootloader/cp/tf-a/build/rebel_h/debug/bl31/errata_report.o
 .text          0x0000000000000000        0x0 /home/jongja.cho/Git/legacy/rebel_cds_collab_hw/bootloader/cp/tf-a/build/rebel_h/debug/bl31/context_mgmt.o
 .data          0x0000000000000000        0x0 /home/jongja.cho/Git/legacy/rebel_cds_collab_hw/bootloader/cp/tf-a/build/rebel_h/debug/bl31/context_mgmt.o
 .bss           0x0000000000000000        0x0 /home/jongja.cho/Git/legacy/rebel_cds_collab_hw/bootloader/cp/tf-a/build/rebel_h/debug/bl31/context_mgmt.o
 .text.amu_enable
                0x0000000000000000        0x4 /home/jongja.cho/Git/legacy/rebel_cds_collab_hw/bootloader/cp/tf-a/build/rebel_h/debug/bl31/context_mgmt.o
 .text.amu_init_el3
                0x0000000000000000        0x4 /home/jongja.cho/Git/legacy/rebel_cds_collab_hw/bootloader/cp/tf-a/build/rebel_h/debug/bl31/context_mgmt.o
 .text.amu_init_el2_unused
                0x0000000000000000        0x4 /home/jongja.cho/Git/legacy/rebel_cds_collab_hw/bootloader/cp/tf-a/build/rebel_h/debug/bl31/context_mgmt.o
 .text.amu_enable_per_world
                0x0000000000000000        0x4 /home/jongja.cho/Git/legacy/rebel_cds_collab_hw/bootloader/cp/tf-a/build/rebel_h/debug/bl31/context_mgmt.o
 .text.cm_el1_sysregs_context_save
                0x0000000000000000      0x17c /home/jongja.cho/Git/legacy/rebel_cds_collab_hw/bootloader/cp/tf-a/build/rebel_h/debug/bl31/context_mgmt.o
 .text.cm_set_elr_el3
                0x0000000000000000       0x30 /home/jongja.cho/Git/legacy/rebel_cds_collab_hw/bootloader/cp/tf-a/build/rebel_h/debug/bl31/context_mgmt.o
 .text.cm_set_elr_spsr_el3
                0x0000000000000000       0x34 /home/jongja.cho/Git/legacy/rebel_cds_collab_hw/bootloader/cp/tf-a/build/rebel_h/debug/bl31/context_mgmt.o
 .text.cm_write_scr_el3_bit
                0x0000000000000000       0x64 /home/jongja.cho/Git/legacy/rebel_cds_collab_hw/bootloader/cp/tf-a/build/rebel_h/debug/bl31/context_mgmt.o
 .text.cm_get_scr_el3
                0x0000000000000000       0x24 /home/jongja.cho/Git/legacy/rebel_cds_collab_hw/bootloader/cp/tf-a/build/rebel_h/debug/bl31/context_mgmt.o
 .text          0x0000000000000000        0x0 /home/jongja.cho/Git/legacy/rebel_cds_collab_hw/bootloader/cp/tf-a/build/rebel_h/debug/bl31/cpu_data_array.o
 .data          0x0000000000000000        0x0 /home/jongja.cho/Git/legacy/rebel_cds_collab_hw/bootloader/cp/tf-a/build/rebel_h/debug/bl31/cpu_data_array.o
 .bss           0x0000000000000000        0x0 /home/jongja.cho/Git/legacy/rebel_cds_collab_hw/bootloader/cp/tf-a/build/rebel_h/debug/bl31/cpu_data_array.o
 .text          0x0000000000000000        0x0 /home/jongja.cho/Git/legacy/rebel_cds_collab_hw/bootloader/cp/tf-a/build/rebel_h/debug/bl31/simd_ctx.o
 .data          0x0000000000000000        0x0 /home/jongja.cho/Git/legacy/rebel_cds_collab_hw/bootloader/cp/tf-a/build/rebel_h/debug/bl31/simd_ctx.o
 .bss           0x0000000000000000        0x0 /home/jongja.cho/Git/legacy/rebel_cds_collab_hw/bootloader/cp/tf-a/build/rebel_h/debug/bl31/simd_ctx.o
 .debug_info    0x0000000000000000      0x121 /home/jongja.cho/Git/legacy/rebel_cds_collab_hw/bootloader/cp/tf-a/build/rebel_h/debug/bl31/simd_ctx.o
 .debug_abbrev  0x0000000000000000       0x4b /home/jongja.cho/Git/legacy/rebel_cds_collab_hw/bootloader/cp/tf-a/build/rebel_h/debug/bl31/simd_ctx.o
 .debug_aranges
                0x0000000000000000       0x20 /home/jongja.cho/Git/legacy/rebel_cds_collab_hw/bootloader/cp/tf-a/build/rebel_h/debug/bl31/simd_ctx.o
 .debug_line    0x0000000000000000       0x77 /home/jongja.cho/Git/legacy/rebel_cds_collab_hw/bootloader/cp/tf-a/build/rebel_h/debug/bl31/simd_ctx.o
 .debug_str     0x0000000000000000      0x2c9 /home/jongja.cho/Git/legacy/rebel_cds_collab_hw/bootloader/cp/tf-a/build/rebel_h/debug/bl31/simd_ctx.o
 .comment       0x0000000000000000       0x45 /home/jongja.cho/Git/legacy/rebel_cds_collab_hw/bootloader/cp/tf-a/build/rebel_h/debug/bl31/simd_ctx.o
 .text          0x0000000000000000        0x0 /home/jongja.cho/Git/legacy/rebel_cds_collab_hw/bootloader/cp/tf-a/build/rebel_h/debug/bl31/mpam.o
 .data          0x0000000000000000        0x0 /home/jongja.cho/Git/legacy/rebel_cds_collab_hw/bootloader/cp/tf-a/build/rebel_h/debug/bl31/mpam.o
 .bss           0x0000000000000000        0x0 /home/jongja.cho/Git/legacy/rebel_cds_collab_hw/bootloader/cp/tf-a/build/rebel_h/debug/bl31/mpam.o
 .text.mpam_init_el2_unused
                0x0000000000000000       0x18 /home/jongja.cho/Git/legacy/rebel_cds_collab_hw/bootloader/cp/tf-a/build/rebel_h/debug/bl31/mpam.o
 .text          0x0000000000000000        0x0 /home/jongja.cho/Git/legacy/rebel_cds_collab_hw/bootloader/cp/tf-a/build/rebel_h/debug/bl31/pmuv3.o
 .data          0x0000000000000000        0x0 /home/jongja.cho/Git/legacy/rebel_cds_collab_hw/bootloader/cp/tf-a/build/rebel_h/debug/bl31/pmuv3.o
 .bss           0x0000000000000000        0x0 /home/jongja.cho/Git/legacy/rebel_cds_collab_hw/bootloader/cp/tf-a/build/rebel_h/debug/bl31/pmuv3.o
 .text.pmuv3_init_el2_unused
                0x0000000000000000       0x2c /home/jongja.cho/Git/legacy/rebel_cds_collab_hw/bootloader/cp/tf-a/build/rebel_h/debug/bl31/pmuv3.o
 .text          0x0000000000000000        0x0 /home/jongja.cho/Git/legacy/rebel_cds_collab_hw/bootloader/cp/tf-a/build/rebel_h/debug/bl31/spe.o
 .data          0x0000000000000000        0x0 /home/jongja.cho/Git/legacy/rebel_cds_collab_hw/bootloader/cp/tf-a/build/rebel_h/debug/bl31/spe.o
 .bss           0x0000000000000000        0x0 /home/jongja.cho/Git/legacy/rebel_cds_collab_hw/bootloader/cp/tf-a/build/rebel_h/debug/bl31/spe.o
 .text.spe_disable_realm
                0x0000000000000000       0x1c /home/jongja.cho/Git/legacy/rebel_cds_collab_hw/bootloader/cp/tf-a/build/rebel_h/debug/bl31/spe.o
 .text.spe_init_el2_unused
                0x0000000000000000       0x14 /home/jongja.cho/Git/legacy/rebel_cds_collab_hw/bootloader/cp/tf-a/build/rebel_h/debug/bl31/spe.o
 .text          0x0000000000000000        0x0 /home/jongja.cho/Git/legacy/rebel_cds_collab_hw/bootloader/cp/tf-a/build/rebel_h/debug/bl31/sve.o
 .data          0x0000000000000000        0x0 /home/jongja.cho/Git/legacy/rebel_cds_collab_hw/bootloader/cp/tf-a/build/rebel_h/debug/bl31/sve.o
 .bss           0x0000000000000000        0x0 /home/jongja.cho/Git/legacy/rebel_cds_collab_hw/bootloader/cp/tf-a/build/rebel_h/debug/bl31/sve.o
 .text.sve_init_el2_unused
                0x0000000000000000       0x14 /home/jongja.cho/Git/legacy/rebel_cds_collab_hw/bootloader/cp/tf-a/build/rebel_h/debug/bl31/sve.o
 .text          0x0000000000000000        0x0 /home/jongja.cho/Git/legacy/rebel_cds_collab_hw/bootloader/cp/tf-a/build/rebel_h/debug/bl31/bakery_lock_coherent.o
 .data          0x0000000000000000        0x0 /home/jongja.cho/Git/legacy/rebel_cds_collab_hw/bootloader/cp/tf-a/build/rebel_h/debug/bl31/bakery_lock_coherent.o
 .bss           0x0000000000000000        0x0 /home/jongja.cho/Git/legacy/rebel_cds_collab_hw/bootloader/cp/tf-a/build/rebel_h/debug/bl31/bakery_lock_coherent.o
 .text          0x0000000000000000        0x0 /home/jongja.cho/Git/legacy/rebel_cds_collab_hw/bootloader/cp/tf-a/build/rebel_h/debug/bl31/per_cpu.o
 .data          0x0000000000000000        0x0 /home/jongja.cho/Git/legacy/rebel_cds_collab_hw/bootloader/cp/tf-a/build/rebel_h/debug/bl31/per_cpu.o
 .bss           0x0000000000000000        0x0 /home/jongja.cho/Git/legacy/rebel_cds_collab_hw/bootloader/cp/tf-a/build/rebel_h/debug/bl31/per_cpu.o
 .text          0x0000000000000000        0x0 /home/jongja.cho/Git/legacy/rebel_cds_collab_hw/bootloader/cp/tf-a/build/rebel_h/debug/bl31/psci_common.o
 .data          0x0000000000000000        0x0 /home/jongja.cho/Git/legacy/rebel_cds_collab_hw/bootloader/cp/tf-a/build/rebel_h/debug/bl31/psci_common.o
 .bss           0x0000000000000000        0x0 /home/jongja.cho/Git/legacy/rebel_cds_collab_hw/bootloader/cp/tf-a/build/rebel_h/debug/bl31/psci_common.o
 .text.psci_register_spd_pm_hook
                0x0000000000000000       0x4c /home/jongja.cho/Git/legacy/rebel_cds_collab_hw/bootloader/cp/tf-a/build/rebel_h/debug/bl31/psci_common.o
 .text.psci_secondaries_brought_up
                0x0000000000000000       0x68 /home/jongja.cho/Git/legacy/rebel_cds_collab_hw/bootloader/cp/tf-a/build/rebel_h/debug/bl31/psci_common.o
 .rodata.psci_stop_other_cores.str1.1
                0x0000000000000000       0x1c /home/jongja.cho/Git/legacy/rebel_cds_collab_hw/bootloader/cp/tf-a/build/rebel_h/debug/bl31/psci_common.o
 .text.psci_stop_other_cores
                0x0000000000000000       0xe0 /home/jongja.cho/Git/legacy/rebel_cds_collab_hw/bootloader/cp/tf-a/build/rebel_h/debug/bl31/psci_common.o
 .text.psci_is_last_on_cpu_safe
                0x0000000000000000       0x54 /home/jongja.cho/Git/legacy/rebel_cds_collab_hw/bootloader/cp/tf-a/build/rebel_h/debug/bl31/psci_common.o
 .text.psci_are_all_cpus_on_safe
                0x0000000000000000       0x98 /home/jongja.cho/Git/legacy/rebel_cds_collab_hw/bootloader/cp/tf-a/build/rebel_h/debug/bl31/psci_common.o
 .text.psci_num_cpus_running_on_safe
                0x0000000000000000       0x8c /home/jongja.cho/Git/legacy/rebel_cds_collab_hw/bootloader/cp/tf-a/build/rebel_h/debug/bl31/psci_common.o
 .text          0x0000000000000000        0x0 /home/jongja.cho/Git/legacy/rebel_cds_collab_hw/bootloader/cp/tf-a/build/rebel_h/debug/bl31/psci_main.o
 .data          0x0000000000000000        0x0 /home/jongja.cho/Git/legacy/rebel_cds_collab_hw/bootloader/cp/tf-a/build/rebel_h/debug/bl31/psci_main.o
 .bss           0x0000000000000000        0x0 /home/jongja.cho/Git/legacy/rebel_cds_collab_hw/bootloader/cp/tf-a/build/rebel_h/debug/bl31/psci_main.o
 .text.psci_version
                0x0000000000000000        0x8 /home/jongja.cho/Git/legacy/rebel_cds_collab_hw/bootloader/cp/tf-a/build/rebel_h/debug/bl31/psci_main.o
 .text          0x0000000000000000        0x0 /home/jongja.cho/Git/legacy/rebel_cds_collab_hw/bootloader/cp/tf-a/build/rebel_h/debug/bl31/psci_mem_protect.o
 .data          0x0000000000000000        0x0 /home/jongja.cho/Git/legacy/rebel_cds_collab_hw/bootloader/cp/tf-a/build/rebel_h/debug/bl31/psci_mem_protect.o
 .bss           0x0000000000000000        0x0 /home/jongja.cho/Git/legacy/rebel_cds_collab_hw/bootloader/cp/tf-a/build/rebel_h/debug/bl31/psci_mem_protect.o
 .text          0x0000000000000000        0x0 /home/jongja.cho/Git/legacy/rebel_cds_collab_hw/bootloader/cp/tf-a/build/rebel_h/debug/bl31/psci_off.o
 .data          0x0000000000000000        0x0 /home/jongja.cho/Git/legacy/rebel_cds_collab_hw/bootloader/cp/tf-a/build/rebel_h/debug/bl31/psci_off.o
 .bss           0x0000000000000000        0x0 /home/jongja.cho/Git/legacy/rebel_cds_collab_hw/bootloader/cp/tf-a/build/rebel_h/debug/bl31/psci_off.o
 .text          0x0000000000000000        0x0 /home/jongja.cho/Git/legacy/rebel_cds_collab_hw/bootloader/cp/tf-a/build/rebel_h/debug/bl31/psci_on.o
 .data          0x0000000000000000        0x0 /home/jongja.cho/Git/legacy/rebel_cds_collab_hw/bootloader/cp/tf-a/build/rebel_h/debug/bl31/psci_on.o
 .bss           0x0000000000000000        0x0 /home/jongja.cho/Git/legacy/rebel_cds_collab_hw/bootloader/cp/tf-a/build/rebel_h/debug/bl31/psci_on.o
 .text          0x0000000000000000        0x0 /home/jongja.cho/Git/legacy/rebel_cds_collab_hw/bootloader/cp/tf-a/build/rebel_h/debug/bl31/psci_setup.o
 .data          0x0000000000000000        0x0 /home/jongja.cho/Git/legacy/rebel_cds_collab_hw/bootloader/cp/tf-a/build/rebel_h/debug/bl31/psci_setup.o
 .bss           0x0000000000000000        0x0 /home/jongja.cho/Git/legacy/rebel_cds_collab_hw/bootloader/cp/tf-a/build/rebel_h/debug/bl31/psci_setup.o
 .text.psci_prepare_next_non_secure_ctx
                0x0000000000000000       0x30 /home/jongja.cho/Git/legacy/rebel_cds_collab_hw/bootloader/cp/tf-a/build/rebel_h/debug/bl31/psci_setup.o
 .text          0x0000000000000000        0x0 /home/jongja.cho/Git/legacy/rebel_cds_collab_hw/bootloader/cp/tf-a/build/rebel_h/debug/bl31/psci_suspend.o
 .data          0x0000000000000000        0x0 /home/jongja.cho/Git/legacy/rebel_cds_collab_hw/bootloader/cp/tf-a/build/rebel_h/debug/bl31/psci_suspend.o
 .bss           0x0000000000000000        0x0 /home/jongja.cho/Git/legacy/rebel_cds_collab_hw/bootloader/cp/tf-a/build/rebel_h/debug/bl31/psci_suspend.o
 .text          0x0000000000000000        0x0 /home/jongja.cho/Git/legacy/rebel_cds_collab_hw/bootloader/cp/tf-a/build/rebel_h/debug/bl31/psci_system_off.o
 .data          0x0000000000000000        0x0 /home/jongja.cho/Git/legacy/rebel_cds_collab_hw/bootloader/cp/tf-a/build/rebel_h/debug/bl31/psci_system_off.o
 .bss           0x0000000000000000        0x0 /home/jongja.cho/Git/legacy/rebel_cds_collab_hw/bootloader/cp/tf-a/build/rebel_h/debug/bl31/psci_system_off.o
 .text          0x0000000000000000        0x0 /home/jongja.cho/Git/legacy/rebel_cds_collab_hw/bootloader/cp/tf-a/build/rebel_h/debug/bl31/xlat_tables_arch.o
 .data          0x0000000000000000        0x0 /home/jongja.cho/Git/legacy/rebel_cds_collab_hw/bootloader/cp/tf-a/build/rebel_h/debug/bl31/xlat_tables_arch.o
 .bss           0x0000000000000000        0x0 /home/jongja.cho/Git/legacy/rebel_cds_collab_hw/bootloader/cp/tf-a/build/rebel_h/debug/bl31/xlat_tables_arch.o
 .text.xlat_arch_is_granule_size_supported
                0x0000000000000000       0x50 /home/jongja.cho/Git/legacy/rebel_cds_collab_hw/bootloader/cp/tf-a/build/rebel_h/debug/bl31/xlat_tables_arch.o
 .text.xlat_arch_get_max_supported_granule_size
                0x0000000000000000       0x4c /home/jongja.cho/Git/legacy/rebel_cds_collab_hw/bootloader/cp/tf-a/build/rebel_h/debug/bl31/xlat_tables_arch.o
 .text.xlat_arch_get_pas
                0x0000000000000000       0x14 /home/jongja.cho/Git/legacy/rebel_cds_collab_hw/bootloader/cp/tf-a/build/rebel_h/debug/bl31/xlat_tables_arch.o
 .text.tcr_physical_addr_size_bits
                0x0000000000000000       0x64 /home/jongja.cho/Git/legacy/rebel_cds_collab_hw/bootloader/cp/tf-a/build/rebel_h/debug/bl31/xlat_tables_arch.o
 .text.xlat_arch_get_max_supported_pa
                0x0000000000000000       0x34 /home/jongja.cho/Git/legacy/rebel_cds_collab_hw/bootloader/cp/tf-a/build/rebel_h/debug/bl31/xlat_tables_arch.o
 .text.xlat_get_min_virt_addr_space_size
                0x0000000000000000       0x18 /home/jongja.cho/Git/legacy/rebel_cds_collab_hw/bootloader/cp/tf-a/build/rebel_h/debug/bl31/xlat_tables_arch.o
 .text.is_dcache_enabled
                0x0000000000000000        0xc /home/jongja.cho/Git/legacy/rebel_cds_collab_hw/bootloader/cp/tf-a/build/rebel_h/debug/bl31/xlat_tables_arch.o
 .text.xlat_arch_regime_get_xn_desc
                0x0000000000000000       0x2c /home/jongja.cho/Git/legacy/rebel_cds_collab_hw/bootloader/cp/tf-a/build/rebel_h/debug/bl31/xlat_tables_arch.o
 .text.xlat_arch_tlbi_va_sync
                0x0000000000000000        0xc /home/jongja.cho/Git/legacy/rebel_cds_collab_hw/bootloader/cp/tf-a/build/rebel_h/debug/bl31/xlat_tables_arch.o
 .text.xlat_arch_current_el
                0x0000000000000000       0x1c /home/jongja.cho/Git/legacy/rebel_cds_collab_hw/bootloader/cp/tf-a/build/rebel_h/debug/bl31/xlat_tables_arch.o
 .text.is_mmu_enabled_ctx
                0x0000000000000000       0x68 /home/jongja.cho/Git/legacy/rebel_cds_collab_hw/bootloader/cp/tf-a/build/rebel_h/debug/bl31/xlat_tables_arch.o
 .text.xlat_arch_tlbi_va
                0x0000000000000000       0x7c /home/jongja.cho/Git/legacy/rebel_cds_collab_hw/bootloader/cp/tf-a/build/rebel_h/debug/bl31/xlat_tables_arch.o
 .text.setup_mmu_cfg
                0x0000000000000000       0xe0 /home/jongja.cho/Git/legacy/rebel_cds_collab_hw/bootloader/cp/tf-a/build/rebel_h/debug/bl31/xlat_tables_arch.o
 .rodata.pa_range_bits_arr
                0x0000000000000000       0x20 /home/jongja.cho/Git/legacy/rebel_cds_collab_hw/bootloader/cp/tf-a/build/rebel_h/debug/bl31/xlat_tables_arch.o
 .text          0x0000000000000000        0x0 /home/jongja.cho/Git/legacy/rebel_cds_collab_hw/bootloader/cp/tf-a/build/rebel_h/debug/bl31/xlat_tables_context.o
 .data          0x0000000000000000        0x0 /home/jongja.cho/Git/legacy/rebel_cds_collab_hw/bootloader/cp/tf-a/build/rebel_h/debug/bl31/xlat_tables_context.o
 .bss           0x0000000000000000        0x0 /home/jongja.cho/Git/legacy/rebel_cds_collab_hw/bootloader/cp/tf-a/build/rebel_h/debug/bl31/xlat_tables_context.o
 .text.mmap_add_region
                0x0000000000000000       0x34 /home/jongja.cho/Git/legacy/rebel_cds_collab_hw/bootloader/cp/tf-a/build/rebel_h/debug/bl31/xlat_tables_context.o
 .text.mmap_add
                0x0000000000000000       0x10 /home/jongja.cho/Git/legacy/rebel_cds_collab_hw/bootloader/cp/tf-a/build/rebel_h/debug/bl31/xlat_tables_context.o
 .text.mmap_add_region_alloc_va
                0x0000000000000000       0x48 /home/jongja.cho/Git/legacy/rebel_cds_collab_hw/bootloader/cp/tf-a/build/rebel_h/debug/bl31/xlat_tables_context.o
 .text.mmap_add_alloc_va
                0x0000000000000000       0x4c /home/jongja.cho/Git/legacy/rebel_cds_collab_hw/bootloader/cp/tf-a/build/rebel_h/debug/bl31/xlat_tables_context.o
 .text.init_xlat_tables
                0x0000000000000000       0x54 /home/jongja.cho/Git/legacy/rebel_cds_collab_hw/bootloader/cp/tf-a/build/rebel_h/debug/bl31/xlat_tables_context.o
 .text.xlat_get_mem_attributes
                0x0000000000000000       0x18 /home/jongja.cho/Git/legacy/rebel_cds_collab_hw/bootloader/cp/tf-a/build/rebel_h/debug/bl31/xlat_tables_context.o
 .text.xlat_change_mem_attributes
                0x0000000000000000       0x18 /home/jongja.cho/Git/legacy/rebel_cds_collab_hw/bootloader/cp/tf-a/build/rebel_h/debug/bl31/xlat_tables_context.o
 .text.enable_mmu_el1
                0x0000000000000000       0x48 /home/jongja.cho/Git/legacy/rebel_cds_collab_hw/bootloader/cp/tf-a/build/rebel_h/debug/bl31/xlat_tables_context.o
 .text.enable_mmu_el2
                0x0000000000000000       0x48 /home/jongja.cho/Git/legacy/rebel_cds_collab_hw/bootloader/cp/tf-a/build/rebel_h/debug/bl31/xlat_tables_context.o
 .text.enable_mmu_el3
                0x0000000000000000       0x48 /home/jongja.cho/Git/legacy/rebel_cds_collab_hw/bootloader/cp/tf-a/build/rebel_h/debug/bl31/xlat_tables_context.o
 .text.enable_mmu
                0x0000000000000000        0x4 /home/jongja.cho/Git/legacy/rebel_cds_collab_hw/bootloader/cp/tf-a/build/rebel_h/debug/bl31/xlat_tables_context.o
 .text          0x0000000000000000        0x0 /home/jongja.cho/Git/legacy/rebel_cds_collab_hw/bootloader/cp/tf-a/build/rebel_h/debug/bl31/xlat_tables_core.o
 .data          0x0000000000000000        0x0 /home/jongja.cho/Git/legacy/rebel_cds_collab_hw/bootloader/cp/tf-a/build/rebel_h/debug/bl31/xlat_tables_core.o
 .bss           0x0000000000000000        0x0 /home/jongja.cho/Git/legacy/rebel_cds_collab_hw/bootloader/cp/tf-a/build/rebel_h/debug/bl31/xlat_tables_core.o
 .text.xlat_desc
                0x0000000000000000      0x120 /home/jongja.cho/Git/legacy/rebel_cds_collab_hw/bootloader/cp/tf-a/build/rebel_h/debug/bl31/xlat_tables_core.o
 .text.xlat_tables_map_region
                0x0000000000000000      0x20c /home/jongja.cho/Git/legacy/rebel_cds_collab_hw/bootloader/cp/tf-a/build/rebel_h/debug/bl31/xlat_tables_core.o
 .rodata.mmap_add_region_ctx.str1.1
                0x0000000000000000       0x2b /home/jongja.cho/Git/legacy/rebel_cds_collab_hw/bootloader/cp/tf-a/build/rebel_h/debug/bl31/xlat_tables_core.o
 .text.mmap_add_region_ctx
                0x0000000000000000      0x23c /home/jongja.cho/Git/legacy/rebel_cds_collab_hw/bootloader/cp/tf-a/build/rebel_h/debug/bl31/xlat_tables_core.o
 .text.mmap_add_region_alloc_va_ctx
                0x0000000000000000       0x80 /home/jongja.cho/Git/legacy/rebel_cds_collab_hw/bootloader/cp/tf-a/build/rebel_h/debug/bl31/xlat_tables_core.o
 .text.mmap_add_ctx
                0x0000000000000000       0x3c /home/jongja.cho/Git/legacy/rebel_cds_collab_hw/bootloader/cp/tf-a/build/rebel_h/debug/bl31/xlat_tables_core.o
 .rodata.init_xlat_tables_ctx.str1.1
                0x0000000000000000       0x4f /home/jongja.cho/Git/legacy/rebel_cds_collab_hw/bootloader/cp/tf-a/build/rebel_h/debug/bl31/xlat_tables_core.o
 .text.init_xlat_tables_ctx
                0x0000000000000000      0x15c /home/jongja.cho/Git/legacy/rebel_cds_collab_hw/bootloader/cp/tf-a/build/rebel_h/debug/bl31/xlat_tables_core.o
 .rodata.__func__.0
                0x0000000000000000       0x15 /home/jongja.cho/Git/legacy/rebel_cds_collab_hw/bootloader/cp/tf-a/build/rebel_h/debug/bl31/xlat_tables_core.o
 .debug_info    0x0000000000000000      0xfb5 /home/jongja.cho/Git/legacy/rebel_cds_collab_hw/bootloader/cp/tf-a/build/rebel_h/debug/bl31/xlat_tables_core.o
 .debug_abbrev  0x0000000000000000      0x389 /home/jongja.cho/Git/legacy/rebel_cds_collab_hw/bootloader/cp/tf-a/build/rebel_h/debug/bl31/xlat_tables_core.o
 .debug_loc     0x0000000000000000     0x1e5e /home/jongja.cho/Git/legacy/rebel_cds_collab_hw/bootloader/cp/tf-a/build/rebel_h/debug/bl31/xlat_tables_core.o
 .debug_aranges
                0x0000000000000000       0x80 /home/jongja.cho/Git/legacy/rebel_cds_collab_hw/bootloader/cp/tf-a/build/rebel_h/debug/bl31/xlat_tables_core.o
 .debug_ranges  0x0000000000000000      0x3f0 /home/jongja.cho/Git/legacy/rebel_cds_collab_hw/bootloader/cp/tf-a/build/rebel_h/debug/bl31/xlat_tables_core.o
 .debug_line    0x0000000000000000      0x89b /home/jongja.cho/Git/legacy/rebel_cds_collab_hw/bootloader/cp/tf-a/build/rebel_h/debug/bl31/xlat_tables_core.o
 .debug_str     0x0000000000000000      0x7c9 /home/jongja.cho/Git/legacy/rebel_cds_collab_hw/bootloader/cp/tf-a/build/rebel_h/debug/bl31/xlat_tables_core.o
 .comment       0x0000000000000000       0x45 /home/jongja.cho/Git/legacy/rebel_cds_collab_hw/bootloader/cp/tf-a/build/rebel_h/debug/bl31/xlat_tables_core.o
 .debug_frame   0x0000000000000000      0x168 /home/jongja.cho/Git/legacy/rebel_cds_collab_hw/bootloader/cp/tf-a/build/rebel_h/debug/bl31/xlat_tables_core.o
 .text          0x0000000000000000        0x0 /home/jongja.cho/Git/legacy/rebel_cds_collab_hw/bootloader/cp/tf-a/build/rebel_h/debug/bl31/xlat_tables_utils.o
 .data          0x0000000000000000        0x0 /home/jongja.cho/Git/legacy/rebel_cds_collab_hw/bootloader/cp/tf-a/build/rebel_h/debug/bl31/xlat_tables_utils.o
 .bss           0x0000000000000000        0x0 /home/jongja.cho/Git/legacy/rebel_cds_collab_hw/bootloader/cp/tf-a/build/rebel_h/debug/bl31/xlat_tables_utils.o
 .rodata.find_xlat_table_entry.str1.1
                0x0000000000000000       0x2c /home/jongja.cho/Git/legacy/rebel_cds_collab_hw/bootloader/cp/tf-a/build/rebel_h/debug/bl31/xlat_tables_utils.o
 .text.find_xlat_table_entry
                0x0000000000000000       0xcc /home/jongja.cho/Git/legacy/rebel_cds_collab_hw/bootloader/cp/tf-a/build/rebel_h/debug/bl31/xlat_tables_utils.o
 .rodata.xlat_get_mem_attributes_internal.str1.1
                0x0000000000000000       0x1f /home/jongja.cho/Git/legacy/rebel_cds_collab_hw/bootloader/cp/tf-a/build/rebel_h/debug/bl31/xlat_tables_utils.o
 .text.xlat_get_mem_attributes_internal
                0x0000000000000000      0x15c /home/jongja.cho/Git/legacy/rebel_cds_collab_hw/bootloader/cp/tf-a/build/rebel_h/debug/bl31/xlat_tables_utils.o
 .text.xlat_mmap_print
                0x0000000000000000        0x4 /home/jongja.cho/Git/legacy/rebel_cds_collab_hw/bootloader/cp/tf-a/build/rebel_h/debug/bl31/xlat_tables_utils.o
 .text.xlat_tables_print
                0x0000000000000000        0x4 /home/jongja.cho/Git/legacy/rebel_cds_collab_hw/bootloader/cp/tf-a/build/rebel_h/debug/bl31/xlat_tables_utils.o
 .text.xlat_get_mem_attributes_ctx
                0x0000000000000000       0x10 /home/jongja.cho/Git/legacy/rebel_cds_collab_hw/bootloader/cp/tf-a/build/rebel_h/debug/bl31/xlat_tables_utils.o
 .rodata.xlat_change_mem_attributes_ctx.str1.1
                0x0000000000000000      0x152 /home/jongja.cho/Git/legacy/rebel_cds_collab_hw/bootloader/cp/tf-a/build/rebel_h/debug/bl31/xlat_tables_utils.o
 .text.xlat_change_mem_attributes_ctx
                0x0000000000000000      0x238 /home/jongja.cho/Git/legacy/rebel_cds_collab_hw/bootloader/cp/tf-a/build/rebel_h/debug/bl31/xlat_tables_utils.o
 .rodata.__func__.0
                0x0000000000000000       0x1f /home/jongja.cho/Git/legacy/rebel_cds_collab_hw/bootloader/cp/tf-a/build/rebel_h/debug/bl31/xlat_tables_utils.o
 .debug_info    0x0000000000000000      0xab6 /home/jongja.cho/Git/legacy/rebel_cds_collab_hw/bootloader/cp/tf-a/build/rebel_h/debug/bl31/xlat_tables_utils.o
 .debug_abbrev  0x0000000000000000      0x2c2 /home/jongja.cho/Git/legacy/rebel_cds_collab_hw/bootloader/cp/tf-a/build/rebel_h/debug/bl31/xlat_tables_utils.o
 .debug_loc     0x0000000000000000     0x112b /home/jongja.cho/Git/legacy/rebel_cds_collab_hw/bootloader/cp/tf-a/build/rebel_h/debug/bl31/xlat_tables_utils.o
 .debug_aranges
                0x0000000000000000       0x80 /home/jongja.cho/Git/legacy/rebel_cds_collab_hw/bootloader/cp/tf-a/build/rebel_h/debug/bl31/xlat_tables_utils.o
 .debug_ranges  0x0000000000000000      0x1f0 /home/jongja.cho/Git/legacy/rebel_cds_collab_hw/bootloader/cp/tf-a/build/rebel_h/debug/bl31/xlat_tables_utils.o
 .debug_line    0x0000000000000000      0x5bd /home/jongja.cho/Git/legacy/rebel_cds_collab_hw/bootloader/cp/tf-a/build/rebel_h/debug/bl31/xlat_tables_utils.o
 .debug_str     0x0000000000000000      0x5f2 /home/jongja.cho/Git/legacy/rebel_cds_collab_hw/bootloader/cp/tf-a/build/rebel_h/debug/bl31/xlat_tables_utils.o
 .comment       0x0000000000000000       0x45 /home/jongja.cho/Git/legacy/rebel_cds_collab_hw/bootloader/cp/tf-a/build/rebel_h/debug/bl31/xlat_tables_utils.o
 .debug_frame   0x0000000000000000      0x108 /home/jongja.cho/Git/legacy/rebel_cds_collab_hw/bootloader/cp/tf-a/build/rebel_h/debug/bl31/xlat_tables_utils.o
 .text          0x0000000000000000        0x0 /home/jongja.cho/Git/legacy/rebel_cds_collab_hw/bootloader/cp/tf-a/build/rebel_h/debug/bl31/arm_gicv3.o
 .data          0x0000000000000000        0x0 /home/jongja.cho/Git/legacy/rebel_cds_collab_hw/bootloader/cp/tf-a/build/rebel_h/debug/bl31/arm_gicv3.o
 .bss           0x0000000000000000        0x0 /home/jongja.cho/Git/legacy/rebel_cds_collab_hw/bootloader/cp/tf-a/build/rebel_h/debug/bl31/arm_gicv3.o
 .text.plat_arm_override_gicr_frames
                0x0000000000000000       0x1c /home/jongja.cho/Git/legacy/rebel_cds_collab_hw/bootloader/cp/tf-a/build/rebel_h/debug/bl31/arm_gicv3.o
 .text.plat_arm_gic_redistif_on
                0x0000000000000000       0x14 /home/jongja.cho/Git/legacy/rebel_cds_collab_hw/bootloader/cp/tf-a/build/rebel_h/debug/bl31/arm_gicv3.o
 .text.plat_arm_gic_redistif_off
                0x0000000000000000       0x14 /home/jongja.cho/Git/legacy/rebel_cds_collab_hw/bootloader/cp/tf-a/build/rebel_h/debug/bl31/arm_gicv3.o
 .rodata.plat_arm_gic_save.str1.1
                0x0000000000000000       0x13 /home/jongja.cho/Git/legacy/rebel_cds_collab_hw/bootloader/cp/tf-a/build/rebel_h/debug/bl31/arm_gicv3.o
 .text.plat_arm_gic_save
                0x0000000000000000       0x40 /home/jongja.cho/Git/legacy/rebel_cds_collab_hw/bootloader/cp/tf-a/build/rebel_h/debug/bl31/arm_gicv3.o
 .text.plat_arm_gic_resume
                0x0000000000000000       0x40 /home/jongja.cho/Git/legacy/rebel_cds_collab_hw/bootloader/cp/tf-a/build/rebel_h/debug/bl31/arm_gicv3.o
 .arm_el3_tzc_dram
                0x0000000000000000     0x2778 /home/jongja.cho/Git/legacy/rebel_cds_collab_hw/bootloader/cp/tf-a/build/rebel_h/debug/bl31/arm_gicv3.o
 .text          0x0000000000000000        0x0 /home/jongja.cho/Git/legacy/rebel_cds_collab_hw/bootloader/cp/tf-a/build/rebel_h/debug/bl31/plat_common.o
 .data          0x0000000000000000        0x0 /home/jongja.cho/Git/legacy/rebel_cds_collab_hw/bootloader/cp/tf-a/build/rebel_h/debug/bl31/plat_common.o
 .bss           0x0000000000000000        0x0 /home/jongja.cho/Git/legacy/rebel_cds_collab_hw/bootloader/cp/tf-a/build/rebel_h/debug/bl31/plat_common.o
 .text.plat_setup_try_img_ops
                0x0000000000000000        0xc /home/jongja.cho/Git/legacy/rebel_cds_collab_hw/bootloader/cp/tf-a/build/rebel_h/debug/bl31/plat_common.o
 .bss.plat_try_img_ops
                0x0000000000000000        0x8 /home/jongja.cho/Git/legacy/rebel_cds_collab_hw/bootloader/cp/tf-a/build/rebel_h/debug/bl31/plat_common.o
 .text          0x0000000000000000        0x0 /home/jongja.cho/Git/legacy/rebel_cds_collab_hw/bootloader/cp/tf-a/build/rebel_h/debug/bl31/plat_bl_common.o
 .data          0x0000000000000000        0x0 /home/jongja.cho/Git/legacy/rebel_cds_collab_hw/bootloader/cp/tf-a/build/rebel_h/debug/bl31/plat_bl_common.o
 .bss           0x0000000000000000        0x0 /home/jongja.cho/Git/legacy/rebel_cds_collab_hw/bootloader/cp/tf-a/build/rebel_h/debug/bl31/plat_bl_common.o
 .text.plat_setup_log_gpt_corrupted
                0x0000000000000000        0xc /home/jongja.cho/Git/legacy/rebel_cds_collab_hw/bootloader/cp/tf-a/build/rebel_h/debug/bl31/plat_bl_common.o
 .text.bl2_el3_plat_prepare_exit
                0x0000000000000000        0x4 /home/jongja.cho/Git/legacy/rebel_cds_collab_hw/bootloader/cp/tf-a/build/rebel_h/debug/bl31/plat_bl_common.o
 .text.plat_error_handler
                0x0000000000000000        0x8 /home/jongja.cho/Git/legacy/rebel_cds_collab_hw/bootloader/cp/tf-a/build/rebel_h/debug/bl31/plat_bl_common.o
 .text.bl2_plat_preload_setup
                0x0000000000000000        0x4 /home/jongja.cho/Git/legacy/rebel_cds_collab_hw/bootloader/cp/tf-a/build/rebel_h/debug/bl31/plat_bl_common.o
 .text.bl2_plat_handle_pre_image_load
                0x0000000000000000        0x8 /home/jongja.cho/Git/legacy/rebel_cds_collab_hw/bootloader/cp/tf-a/build/rebel_h/debug/bl31/plat_bl_common.o
 .text.bl2_plat_handle_post_image_load
                0x0000000000000000        0x8 /home/jongja.cho/Git/legacy/rebel_cds_collab_hw/bootloader/cp/tf-a/build/rebel_h/debug/bl31/plat_bl_common.o
 .text.plat_get_enc_key_info
                0x0000000000000000       0x70 /home/jongja.cho/Git/legacy/rebel_cds_collab_hw/bootloader/cp/tf-a/build/rebel_h/debug/bl31/plat_bl_common.o
 .rodata.plat_get_enc_key_info.str1.1
                0x0000000000000000       0x21 /home/jongja.cho/Git/legacy/rebel_cds_collab_hw/bootloader/cp/tf-a/build/rebel_h/debug/bl31/plat_bl_common.o
 .text.setup_page_tables
                0x0000000000000000       0x28 /home/jongja.cho/Git/legacy/rebel_cds_collab_hw/bootloader/cp/tf-a/build/rebel_h/debug/bl31/plat_bl_common.o
 .bss.plat_log_gpt_ptr
                0x0000000000000000        0x8 /home/jongja.cho/Git/legacy/rebel_cds_collab_hw/bootloader/cp/tf-a/build/rebel_h/debug/bl31/plat_bl_common.o
 .text          0x0000000000000000        0x0 /home/jongja.cho/Git/legacy/rebel_cds_collab_hw/bootloader/cp/tf-a/build/rebel_h/debug/bl31/plat_gicv3.o
 .data          0x0000000000000000        0x0 /home/jongja.cho/Git/legacy/rebel_cds_collab_hw/bootloader/cp/tf-a/build/rebel_h/debug/bl31/plat_gicv3.o
 .bss           0x0000000000000000        0x0 /home/jongja.cho/Git/legacy/rebel_cds_collab_hw/bootloader/cp/tf-a/build/rebel_h/debug/bl31/plat_gicv3.o
 .text.plat_ic_get_pending_interrupt_id
                0x0000000000000000       0x34 /home/jongja.cho/Git/legacy/rebel_cds_collab_hw/bootloader/cp/tf-a/build/rebel_h/debug/bl31/plat_gicv3.o
 .text.plat_ic_acknowledge_interrupt
                0x0000000000000000       0x28 /home/jongja.cho/Git/legacy/rebel_cds_collab_hw/bootloader/cp/tf-a/build/rebel_h/debug/bl31/plat_gicv3.o
 .text.plat_ic_get_interrupt_type
                0x0000000000000000       0x48 /home/jongja.cho/Git/legacy/rebel_cds_collab_hw/bootloader/cp/tf-a/build/rebel_h/debug/bl31/plat_gicv3.o
 .text.plat_ic_end_of_interrupt
                0x0000000000000000       0x2c /home/jongja.cho/Git/legacy/rebel_cds_collab_hw/bootloader/cp/tf-a/build/rebel_h/debug/bl31/plat_gicv3.o
 .text.plat_interrupt_type_to_line
                0x0000000000000000       0x60 /home/jongja.cho/Git/legacy/rebel_cds_collab_hw/bootloader/cp/tf-a/build/rebel_h/debug/bl31/plat_gicv3.o
 .text.plat_ic_get_running_priority
                0x0000000000000000        0x4 /home/jongja.cho/Git/legacy/rebel_cds_collab_hw/bootloader/cp/tf-a/build/rebel_h/debug/bl31/plat_gicv3.o
 .text.plat_ic_is_spi
                0x0000000000000000       0x10 /home/jongja.cho/Git/legacy/rebel_cds_collab_hw/bootloader/cp/tf-a/build/rebel_h/debug/bl31/plat_gicv3.o
 .text.plat_ic_is_ppi
                0x0000000000000000       0x10 /home/jongja.cho/Git/legacy/rebel_cds_collab_hw/bootloader/cp/tf-a/build/rebel_h/debug/bl31/plat_gicv3.o
 .text.plat_ic_is_sgi
                0x0000000000000000        0xc /home/jongja.cho/Git/legacy/rebel_cds_collab_hw/bootloader/cp/tf-a/build/rebel_h/debug/bl31/plat_gicv3.o
 .text.plat_ic_get_interrupt_active
                0x0000000000000000       0x28 /home/jongja.cho/Git/legacy/rebel_cds_collab_hw/bootloader/cp/tf-a/build/rebel_h/debug/bl31/plat_gicv3.o
 .text.plat_ic_enable_interrupt
                0x0000000000000000       0x28 /home/jongja.cho/Git/legacy/rebel_cds_collab_hw/bootloader/cp/tf-a/build/rebel_h/debug/bl31/plat_gicv3.o
 .text.plat_ic_disable_interrupt
                0x0000000000000000       0x28 /home/jongja.cho/Git/legacy/rebel_cds_collab_hw/bootloader/cp/tf-a/build/rebel_h/debug/bl31/plat_gicv3.o
 .text.plat_ic_set_interrupt_priority
                0x0000000000000000       0x30 /home/jongja.cho/Git/legacy/rebel_cds_collab_hw/bootloader/cp/tf-a/build/rebel_h/debug/bl31/plat_gicv3.o
 .text.plat_ic_set_interrupt_type
                0x0000000000000000       0x3c /home/jongja.cho/Git/legacy/rebel_cds_collab_hw/bootloader/cp/tf-a/build/rebel_h/debug/bl31/plat_gicv3.o
 .text.plat_ic_raise_el3_sgi
                0x0000000000000000       0x4c /home/jongja.cho/Git/legacy/rebel_cds_collab_hw/bootloader/cp/tf-a/build/rebel_h/debug/bl31/plat_gicv3.o
 .text.plat_ic_raise_ns_sgi
                0x0000000000000000       0x4c /home/jongja.cho/Git/legacy/rebel_cds_collab_hw/bootloader/cp/tf-a/build/rebel_h/debug/bl31/plat_gicv3.o
 .text.plat_ic_raise_s_el1_sgi
                0x0000000000000000       0x48 /home/jongja.cho/Git/legacy/rebel_cds_collab_hw/bootloader/cp/tf-a/build/rebel_h/debug/bl31/plat_gicv3.o
 .text.plat_ic_set_spi_routing
                0x0000000000000000       0x54 /home/jongja.cho/Git/legacy/rebel_cds_collab_hw/bootloader/cp/tf-a/build/rebel_h/debug/bl31/plat_gicv3.o
 .text.plat_ic_set_interrupt_pending
                0x0000000000000000       0x34 /home/jongja.cho/Git/legacy/rebel_cds_collab_hw/bootloader/cp/tf-a/build/rebel_h/debug/bl31/plat_gicv3.o
 .text.plat_ic_clear_interrupt_pending
                0x0000000000000000       0x34 /home/jongja.cho/Git/legacy/rebel_cds_collab_hw/bootloader/cp/tf-a/build/rebel_h/debug/bl31/plat_gicv3.o
 .text.plat_ic_set_priority_mask
                0x0000000000000000        0x4 /home/jongja.cho/Git/legacy/rebel_cds_collab_hw/bootloader/cp/tf-a/build/rebel_h/debug/bl31/plat_gicv3.o
 .text.plat_ic_deactivate_priority
                0x0000000000000000        0x4 /home/jongja.cho/Git/legacy/rebel_cds_collab_hw/bootloader/cp/tf-a/build/rebel_h/debug/bl31/plat_gicv3.o
 .text.plat_ic_get_interrupt_id
                0x0000000000000000       0x14 /home/jongja.cho/Git/legacy/rebel_cds_collab_hw/bootloader/cp/tf-a/build/rebel_h/debug/bl31/plat_gicv3.o
 .text          0x0000000000000000        0x0 /home/jongja.cho/Git/legacy/rebel_cds_collab_hw/bootloader/cp/tf-a/build/rebel_h/debug/bl31/plat_log_common.o
 .data          0x0000000000000000        0x0 /home/jongja.cho/Git/legacy/rebel_cds_collab_hw/bootloader/cp/tf-a/build/rebel_h/debug/bl31/plat_log_common.o
 .bss           0x0000000000000000        0x0 /home/jongja.cho/Git/legacy/rebel_cds_collab_hw/bootloader/cp/tf-a/build/rebel_h/debug/bl31/plat_log_common.o
 .text          0x0000000000000000        0x0 /home/jongja.cho/Git/legacy/rebel_cds_collab_hw/bootloader/cp/tf-a/build/rebel_h/debug/bl31/plat_psci_common.o
 .data          0x0000000000000000        0x0 /home/jongja.cho/Git/legacy/rebel_cds_collab_hw/bootloader/cp/tf-a/build/rebel_h/debug/bl31/plat_psci_common.o
 .bss           0x0000000000000000        0x0 /home/jongja.cho/Git/legacy/rebel_cds_collab_hw/bootloader/cp/tf-a/build/rebel_h/debug/bl31/plat_psci_common.o
 .text          0x0000000000000000        0x0 /home/jongja.cho/Git/legacy/rebel_cds_collab_hw/bootloader/cp/tf-a/build/rebel_h/debug/bl31/rebel_sip_svc.o
 .data          0x0000000000000000        0x0 /home/jongja.cho/Git/legacy/rebel_cds_collab_hw/bootloader/cp/tf-a/build/rebel_h/debug/bl31/rebel_sip_svc.o
 .bss           0x0000000000000000        0x0 /home/jongja.cho/Git/legacy/rebel_cds_collab_hw/bootloader/cp/tf-a/build/rebel_h/debug/bl31/rebel_sip_svc.o
 .rodata.rebel_plat_sip_handler.str1.1
                0x0000000000000000       0x1b /home/jongja.cho/Git/legacy/rebel_cds_collab_hw/bootloader/cp/tf-a/build/rebel_h/debug/bl31/rebel_sip_svc.o
 .text.rebel_plat_sip_handler
                0x0000000000000000       0x40 /home/jongja.cho/Git/legacy/rebel_cds_collab_hw/bootloader/cp/tf-a/build/rebel_h/debug/bl31/rebel_sip_svc.o
 .rodata.__func__.0
                0x0000000000000000       0x17 /home/jongja.cho/Git/legacy/rebel_cds_collab_hw/bootloader/cp/tf-a/build/rebel_h/debug/bl31/rebel_sip_svc.o
 .text          0x0000000000000000        0x0 /home/jongja.cho/Git/legacy/rebel_cds_collab_hw/bootloader/cp/tf-a/build/rebel_h/debug/bl31/rebel_h_bl31_setup.o
 .data          0x0000000000000000        0x0 /home/jongja.cho/Git/legacy/rebel_cds_collab_hw/bootloader/cp/tf-a/build/rebel_h/debug/bl31/rebel_h_bl31_setup.o
 .bss           0x0000000000000000        0x0 /home/jongja.cho/Git/legacy/rebel_cds_collab_hw/bootloader/cp/tf-a/build/rebel_h/debug/bl31/rebel_h_bl31_setup.o
 .rodata.bl31_coherent_area
                0x0000000000000000       0x18 /home/jongja.cho/Git/legacy/rebel_cds_collab_hw/bootloader/cp/tf-a/build/rebel_h/debug/bl31/rebel_h_bl31_setup.o
 .text          0x0000000000000000        0x0 /home/jongja.cho/Git/legacy/rebel_cds_collab_hw/bootloader/cp/tf-a/build/rebel_h/debug/bl31/rebel_h_plat.o
 .data          0x0000000000000000        0x0 /home/jongja.cho/Git/legacy/rebel_cds_collab_hw/bootloader/cp/tf-a/build/rebel_h/debug/bl31/rebel_h_plat.o
 .bss           0x0000000000000000        0x0 /home/jongja.cho/Git/legacy/rebel_cds_collab_hw/bootloader/cp/tf-a/build/rebel_h/debug/bl31/rebel_h_plat.o
 .text.plat_set_cpu_rvbar
                0x0000000000000000       0x30 /home/jongja.cho/Git/legacy/rebel_cds_collab_hw/bootloader/cp/tf-a/build/rebel_h/debug/bl31/rebel_h_plat.o
 .text.plat_pmu_cl_on
                0x0000000000000000       0x38 /home/jongja.cho/Git/legacy/rebel_cds_collab_hw/bootloader/cp/tf-a/build/rebel_h/debug/bl31/rebel_h_plat.o
 .text.plat_pmu_cpu_on
                0x0000000000000000       0x40 /home/jongja.cho/Git/legacy/rebel_cds_collab_hw/bootloader/cp/tf-a/build/rebel_h/debug/bl31/rebel_h_plat.o
 .text.plat_pmu_cpu_off
                0x0000000000000000       0x38 /home/jongja.cho/Git/legacy/rebel_cds_collab_hw/bootloader/cp/tf-a/build/rebel_h/debug/bl31/rebel_h_plat.o
 .text.plat_set_secondary_chiplet_cnt
                0x0000000000000000       0x18 /home/jongja.cho/Git/legacy/rebel_cds_collab_hw/bootloader/cp/tf-a/build/rebel_h/debug/bl31/rebel_h_plat.o
 .text.plat_get_secondary_chiplet_cnt
                0x0000000000000000       0x74 /home/jongja.cho/Git/legacy/rebel_cds_collab_hw/bootloader/cp/tf-a/build/rebel_h/debug/bl31/rebel_h_plat.o
 .rodata.plat_pmu_reset_rot.str1.1
                0x0000000000000000       0x1a /home/jongja.cho/Git/legacy/rebel_cds_collab_hw/bootloader/cp/tf-a/build/rebel_h/debug/bl31/rebel_h_plat.o
 .text.plat_pmu_reset_rot
                0x0000000000000000       0x2c /home/jongja.cho/Git/legacy/rebel_cds_collab_hw/bootloader/cp/tf-a/build/rebel_h/debug/bl31/rebel_h_plat.o
 .debug_info    0x0000000000000000      0x703 /home/jongja.cho/Git/legacy/rebel_cds_collab_hw/bootloader/cp/tf-a/build/rebel_h/debug/bl31/rebel_h_plat.o
 .debug_abbrev  0x0000000000000000      0x225 /home/jongja.cho/Git/legacy/rebel_cds_collab_hw/bootloader/cp/tf-a/build/rebel_h/debug/bl31/rebel_h_plat.o
 .debug_loc     0x0000000000000000      0x7f3 /home/jongja.cho/Git/legacy/rebel_cds_collab_hw/bootloader/cp/tf-a/build/rebel_h/debug/bl31/rebel_h_plat.o
 .debug_aranges
                0x0000000000000000       0x90 /home/jongja.cho/Git/legacy/rebel_cds_collab_hw/bootloader/cp/tf-a/build/rebel_h/debug/bl31/rebel_h_plat.o
 .debug_ranges  0x0000000000000000      0x230 /home/jongja.cho/Git/legacy/rebel_cds_collab_hw/bootloader/cp/tf-a/build/rebel_h/debug/bl31/rebel_h_plat.o
 .debug_line    0x0000000000000000      0x407 /home/jongja.cho/Git/legacy/rebel_cds_collab_hw/bootloader/cp/tf-a/build/rebel_h/debug/bl31/rebel_h_plat.o
 .debug_str     0x0000000000000000      0x409 /home/jongja.cho/Git/legacy/rebel_cds_collab_hw/bootloader/cp/tf-a/build/rebel_h/debug/bl31/rebel_h_plat.o
 .comment       0x0000000000000000       0x45 /home/jongja.cho/Git/legacy/rebel_cds_collab_hw/bootloader/cp/tf-a/build/rebel_h/debug/bl31/rebel_h_plat.o
 .debug_frame   0x0000000000000000       0xd0 /home/jongja.cho/Git/legacy/rebel_cds_collab_hw/bootloader/cp/tf-a/build/rebel_h/debug/bl31/rebel_h_plat.o
 .text          0x0000000000000000        0x0 /home/jongja.cho/Git/legacy/rebel_cds_collab_hw/bootloader/cp/tf-a/build/rebel_h/debug/bl31/rebel_h_pm.o
 .data          0x0000000000000000        0x0 /home/jongja.cho/Git/legacy/rebel_cds_collab_hw/bootloader/cp/tf-a/build/rebel_h/debug/bl31/rebel_h_pm.o
 .bss           0x0000000000000000        0x0 /home/jongja.cho/Git/legacy/rebel_cds_collab_hw/bootloader/cp/tf-a/build/rebel_h/debug/bl31/rebel_h_pm.o
 .text          0x0000000000000000        0x0 /home/jongja.cho/Git/legacy/rebel_cds_collab_hw/bootloader/cp/tf-a/build/rebel_h/debug/bl31/rebel_h_pmu.o
 .data          0x0000000000000000        0x0 /home/jongja.cho/Git/legacy/rebel_cds_collab_hw/bootloader/cp/tf-a/build/rebel_h/debug/bl31/rebel_h_pmu.o
 .bss           0x0000000000000000        0x0 /home/jongja.cho/Git/legacy/rebel_cds_collab_hw/bootloader/cp/tf-a/build/rebel_h/debug/bl31/rebel_h_pmu.o
 .rodata.pmu_release_cm7.str1.1
                0x0000000000000000       0x25 /home/jongja.cho/Git/legacy/rebel_cds_collab_hw/bootloader/cp/tf-a/build/rebel_h/debug/bl31/rebel_h_pmu.o
 .text.pmu_release_cm7
                0x0000000000000000       0x4c /home/jongja.cho/Git/legacy/rebel_cds_collab_hw/bootloader/cp/tf-a/build/rebel_h/debug/bl31/rebel_h_pmu.o
 .text.pmu_get_bootmode_str
                0x0000000000000000       0x28 /home/jongja.cho/Git/legacy/rebel_cds_collab_hw/bootloader/cp/tf-a/build/rebel_h/debug/bl31/rebel_h_pmu.o
 .text.pmu_get_bootmode
                0x0000000000000000       0x10 /home/jongja.cho/Git/legacy/rebel_cds_collab_hw/bootloader/cp/tf-a/build/rebel_h/debug/bl31/rebel_h_pmu.o
 .rodata.pmu_enable_blk_rbc.str1.1
                0x0000000000000000       0x2c /home/jongja.cho/Git/legacy/rebel_cds_collab_hw/bootloader/cp/tf-a/build/rebel_h/debug/bl31/rebel_h_pmu.o
 .text.pmu_enable_blk_rbc
                0x0000000000000000      0x174 /home/jongja.cho/Git/legacy/rebel_cds_collab_hw/bootloader/cp/tf-a/build/rebel_h/debug/bl31/rebel_h_pmu.o
 .rodata.pmu_reset_blk_dram.str1.1
                0x0000000000000000       0x3b /home/jongja.cho/Git/legacy/rebel_cds_collab_hw/bootloader/cp/tf-a/build/rebel_h/debug/bl31/rebel_h_pmu.o
 .text.pmu_reset_blk_dram
                0x0000000000000000       0x8c /home/jongja.cho/Git/legacy/rebel_cds_collab_hw/bootloader/cp/tf-a/build/rebel_h/debug/bl31/rebel_h_pmu.o
 .text.pmu_reset_secondary_chiplet
                0x0000000000000000      0x170 /home/jongja.cho/Git/legacy/rebel_cds_collab_hw/bootloader/cp/tf-a/build/rebel_h/debug/bl31/rebel_h_pmu.o
 .rodata.str1.1
                0x0000000000000000       0x35 /home/jongja.cho/Git/legacy/rebel_cds_collab_hw/bootloader/cp/tf-a/build/rebel_h/debug/bl31/rebel_h_pmu.o
 .rodata.CSWTCH.6
                0x0000000000000000       0x28 /home/jongja.cho/Git/legacy/rebel_cds_collab_hw/bootloader/cp/tf-a/build/rebel_h/debug/bl31/rebel_h_pmu.o
 .rodata        0x0000000000000000       0x80 /home/jongja.cho/Git/legacy/rebel_cds_collab_hw/bootloader/cp/tf-a/build/rebel_h/debug/bl31/rebel_h_pmu.o
 .text          0x0000000000000000        0x0 /home/jongja.cho/Git/legacy/rebel_cds_collab_hw/bootloader/cp/tf-a/build/rebel_h/debug/bl31/rebel_h_sip_svc.o
 .data          0x0000000000000000        0x0 /home/jongja.cho/Git/legacy/rebel_cds_collab_hw/bootloader/cp/tf-a/build/rebel_h/debug/bl31/rebel_h_sip_svc.o
 .bss           0x0000000000000000        0x0 /home/jongja.cho/Git/legacy/rebel_cds_collab_hw/bootloader/cp/tf-a/build/rebel_h/debug/bl31/rebel_h_sip_svc.o
 .text          0x0000000000000000        0x0 /home/jongja.cho/Git/legacy/rebel_cds_collab_hw/bootloader/cp/tf-a/build/rebel_h/debug/bl31/rebel_h_topology.o
 .data          0x0000000000000000        0x0 /home/jongja.cho/Git/legacy/rebel_cds_collab_hw/bootloader/cp/tf-a/build/rebel_h/debug/bl31/rebel_h_topology.o
 .bss           0x0000000000000000        0x0 /home/jongja.cho/Git/legacy/rebel_cds_collab_hw/bootloader/cp/tf-a/build/rebel_h/debug/bl31/rebel_h_topology.o
 .text          0x0000000000000000        0x0 /home/jongja.cho/Git/legacy/rebel_cds_collab_hw/bootloader/cp/tf-a/build/rebel_h/debug/bl31/arm_arch_svc_setup.o
 .data          0x0000000000000000        0x0 /home/jongja.cho/Git/legacy/rebel_cds_collab_hw/bootloader/cp/tf-a/build/rebel_h/debug/bl31/arm_arch_svc_setup.o
 .bss           0x0000000000000000        0x0 /home/jongja.cho/Git/legacy/rebel_cds_collab_hw/bootloader/cp/tf-a/build/rebel_h/debug/bl31/arm_arch_svc_setup.o
 .text          0x0000000000000000        0x0 /home/jongja.cho/Git/legacy/rebel_cds_collab_hw/bootloader/cp/tf-a/build/rebel_h/debug/bl31/std_svc_setup.o
 .data          0x0000000000000000        0x0 /home/jongja.cho/Git/legacy/rebel_cds_collab_hw/bootloader/cp/tf-a/build/rebel_h/debug/bl31/std_svc_setup.o
 .bss           0x0000000000000000        0x0 /home/jongja.cho/Git/legacy/rebel_cds_collab_hw/bootloader/cp/tf-a/build/rebel_h/debug/bl31/std_svc_setup.o
 .text          0x0000000000000000        0x0 /home/jongja.cho/Git/legacy/rebel_cds_collab_hw/bootloader/cp/tf-a/build/rebel_h/debug/bl31/bl31_entrypoint.o
 .data          0x0000000000000000        0x0 /home/jongja.cho/Git/legacy/rebel_cds_collab_hw/bootloader/cp/tf-a/build/rebel_h/debug/bl31/bl31_entrypoint.o
 .bss           0x0000000000000000        0x0 /home/jongja.cho/Git/legacy/rebel_cds_collab_hw/bootloader/cp/tf-a/build/rebel_h/debug/bl31/bl31_entrypoint.o
 .text          0x0000000000000000        0x0 /home/jongja.cho/Git/legacy/rebel_cds_collab_hw/bootloader/cp/tf-a/build/rebel_h/debug/bl31/crash_reporting.o
 .data          0x0000000000000000        0x0 /home/jongja.cho/Git/legacy/rebel_cds_collab_hw/bootloader/cp/tf-a/build/rebel_h/debug/bl31/crash_reporting.o
 .bss           0x0000000000000000        0x0 /home/jongja.cho/Git/legacy/rebel_cds_collab_hw/bootloader/cp/tf-a/build/rebel_h/debug/bl31/crash_reporting.o
 .text.asm.str_in_crash_buf_print_128
                0x0000000000000000       0x18 /home/jongja.cho/Git/legacy/rebel_cds_collab_hw/bootloader/cp/tf-a/build/rebel_h/debug/bl31/crash_reporting.o
 .text          0x0000000000000000        0x0 /home/jongja.cho/Git/legacy/rebel_cds_collab_hw/bootloader/cp/tf-a/build/rebel_h/debug/bl31/runtime_exceptions.o
 .data          0x0000000000000000        0x0 /home/jongja.cho/Git/legacy/rebel_cds_collab_hw/bootloader/cp/tf-a/build/rebel_h/debug/bl31/runtime_exceptions.o
 .bss           0x0000000000000000        0x0 /home/jongja.cho/Git/legacy/rebel_cds_collab_hw/bootloader/cp/tf-a/build/rebel_h/debug/bl31/runtime_exceptions.o
 .text          0x0000000000000000        0x0 /home/jongja.cho/Git/legacy/rebel_cds_collab_hw/bootloader/cp/tf-a/build/rebel_h/debug/bl31/debug.o
 .data          0x0000000000000000        0x0 /home/jongja.cho/Git/legacy/rebel_cds_collab_hw/bootloader/cp/tf-a/build/rebel_h/debug/bl31/debug.o
 .bss           0x0000000000000000        0x0 /home/jongja.cho/Git/legacy/rebel_cds_collab_hw/bootloader/cp/tf-a/build/rebel_h/debug/bl31/debug.o
 .rodata.assert_str
                0x0000000000000000       0x15 /home/jongja.cho/Git/legacy/rebel_cds_collab_hw/bootloader/cp/tf-a/build/rebel_h/debug/bl31/debug.o
 .text          0x0000000000000000        0x0 /home/jongja.cho/Git/legacy/rebel_cds_collab_hw/bootloader/cp/tf-a/build/rebel_h/debug/bl31/16550_console.o
 .data          0x0000000000000000        0x0 /home/jongja.cho/Git/legacy/rebel_cds_collab_hw/bootloader/cp/tf-a/build/rebel_h/debug/bl31/16550_console.o
 .bss           0x0000000000000000        0x0 /home/jongja.cho/Git/legacy/rebel_cds_collab_hw/bootloader/cp/tf-a/build/rebel_h/debug/bl31/16550_console.o
 .text.asm.console_16550_core_getc
                0x0000000000000000       0x2c /home/jongja.cho/Git/legacy/rebel_cds_collab_hw/bootloader/cp/tf-a/build/rebel_h/debug/bl31/16550_console.o
 .text.asm.console_16550_getc
                0x0000000000000000       0x1c /home/jongja.cho/Git/legacy/rebel_cds_collab_hw/bootloader/cp/tf-a/build/rebel_h/debug/bl31/16550_console.o
 .text          0x0000000000000000        0x0 /home/jongja.cho/Git/legacy/rebel_cds_collab_hw/bootloader/cp/tf-a/build/rebel_h/debug/bl31/cache_helpers.o
 .data          0x0000000000000000        0x0 /home/jongja.cho/Git/legacy/rebel_cds_collab_hw/bootloader/cp/tf-a/build/rebel_h/debug/bl31/cache_helpers.o
 .bss           0x0000000000000000        0x0 /home/jongja.cho/Git/legacy/rebel_cds_collab_hw/bootloader/cp/tf-a/build/rebel_h/debug/bl31/cache_helpers.o
 .text.asm.flush_dcache_to_popa_range
                0x0000000000000000       0x38 /home/jongja.cho/Git/legacy/rebel_cds_collab_hw/bootloader/cp/tf-a/build/rebel_h/debug/bl31/cache_helpers.o
 .text.asm.flush_dcache_to_popa_range_mte2
                0x0000000000000000       0x38 /home/jongja.cho/Git/legacy/rebel_cds_collab_hw/bootloader/cp/tf-a/build/rebel_h/debug/bl31/cache_helpers.o
 .text.asm.dcsw_op_louis
                0x0000000000000000       0x14 /home/jongja.cho/Git/legacy/rebel_cds_collab_hw/bootloader/cp/tf-a/build/rebel_h/debug/bl31/cache_helpers.o
 .text.asm.dcsw_op_all
                0x0000000000000000       0x14 /home/jongja.cho/Git/legacy/rebel_cds_collab_hw/bootloader/cp/tf-a/build/rebel_h/debug/bl31/cache_helpers.o
 .text.asm.dcsw_op_level3
                0x0000000000000000       0x10 /home/jongja.cho/Git/legacy/rebel_cds_collab_hw/bootloader/cp/tf-a/build/rebel_h/debug/bl31/cache_helpers.o
 .text          0x0000000000000000        0x0 /home/jongja.cho/Git/legacy/rebel_cds_collab_hw/bootloader/cp/tf-a/build/rebel_h/debug/bl31/misc_helpers.o
 .data          0x0000000000000000        0x0 /home/jongja.cho/Git/legacy/rebel_cds_collab_hw/bootloader/cp/tf-a/build/rebel_h/debug/bl31/misc_helpers.o
 .bss           0x0000000000000000        0x0 /home/jongja.cho/Git/legacy/rebel_cds_collab_hw/bootloader/cp/tf-a/build/rebel_h/debug/bl31/misc_helpers.o
 .text.asm.smc  0x0000000000000000        0x4 /home/jongja.cho/Git/legacy/rebel_cds_collab_hw/bootloader/cp/tf-a/build/rebel_h/debug/bl31/misc_helpers.o
 .text.asm.memcpy16
                0x0000000000000000       0x48 /home/jongja.cho/Git/legacy/rebel_cds_collab_hw/bootloader/cp/tf-a/build/rebel_h/debug/bl31/misc_helpers.o
 .text.asm.disable_mmu_el3
                0x0000000000000000       0x1c /home/jongja.cho/Git/legacy/rebel_cds_collab_hw/bootloader/cp/tf-a/build/rebel_h/debug/bl31/misc_helpers.o
 .text.asm.disable_mmu_icache_el3
                0x0000000000000000        0x8 /home/jongja.cho/Git/legacy/rebel_cds_collab_hw/bootloader/cp/tf-a/build/rebel_h/debug/bl31/misc_helpers.o
 .text.asm.disable_mmu_el1
                0x0000000000000000       0x1c /home/jongja.cho/Git/legacy/rebel_cds_collab_hw/bootloader/cp/tf-a/build/rebel_h/debug/bl31/misc_helpers.o
 .text.asm.disable_mmu_icache_el1
                0x0000000000000000        0x8 /home/jongja.cho/Git/legacy/rebel_cds_collab_hw/bootloader/cp/tf-a/build/rebel_h/debug/bl31/misc_helpers.o
 .text.asm.fixup_gdt_reloc
                0x0000000000000000       0xc4 /home/jongja.cho/Git/legacy/rebel_cds_collab_hw/bootloader/cp/tf-a/build/rebel_h/debug/bl31/misc_helpers.o
 .text          0x0000000000000000        0x0 /home/jongja.cho/Git/legacy/rebel_cds_collab_hw/bootloader/cp/tf-a/build/rebel_h/debug/bl31/cortex_a73.o
 .bss           0x0000000000000000        0x0 /home/jongja.cho/Git/legacy/rebel_cds_collab_hw/bootloader/cp/tf-a/build/rebel_h/debug/bl31/cortex_a73.o
 .text.asm.erratum_cortex_a73_5715_wa
                0x0000000000000000       0x18 /home/jongja.cho/Git/legacy/rebel_cds_collab_hw/bootloader/cp/tf-a/build/rebel_h/debug/bl31/cortex_a73.o
 .text          0x0000000000000000        0x0 /home/jongja.cho/Git/legacy/rebel_cds_collab_hw/bootloader/cp/tf-a/build/rebel_h/debug/bl31/cpu_helpers.o
 .data          0x0000000000000000        0x0 /home/jongja.cho/Git/legacy/rebel_cds_collab_hw/bootloader/cp/tf-a/build/rebel_h/debug/bl31/cpu_helpers.o
 .bss           0x0000000000000000        0x0 /home/jongja.cho/Git/legacy/rebel_cds_collab_hw/bootloader/cp/tf-a/build/rebel_h/debug/bl31/cpu_helpers.o
 .text          0x0000000000000000        0x0 /home/jongja.cho/Git/legacy/rebel_cds_collab_hw/bootloader/cp/tf-a/build/rebel_h/debug/bl31/wa_cve_2017_5715_bpiall.o
 .data          0x0000000000000000        0x0 /home/jongja.cho/Git/legacy/rebel_cds_collab_hw/bootloader/cp/tf-a/build/rebel_h/debug/bl31/wa_cve_2017_5715_bpiall.o
 .bss           0x0000000000000000        0x0 /home/jongja.cho/Git/legacy/rebel_cds_collab_hw/bootloader/cp/tf-a/build/rebel_h/debug/bl31/wa_cve_2017_5715_bpiall.o
 .text          0x0000000000000000        0x0 /home/jongja.cho/Git/legacy/rebel_cds_collab_hw/bootloader/cp/tf-a/build/rebel_h/debug/bl31/context.o
 .data          0x0000000000000000        0x0 /home/jongja.cho/Git/legacy/rebel_cds_collab_hw/bootloader/cp/tf-a/build/rebel_h/debug/bl31/context.o
 .bss           0x0000000000000000        0x0 /home/jongja.cho/Git/legacy/rebel_cds_collab_hw/bootloader/cp/tf-a/build/rebel_h/debug/bl31/context.o
 .text          0x0000000000000000        0x0 /home/jongja.cho/Git/legacy/rebel_cds_collab_hw/bootloader/cp/tf-a/build/rebel_h/debug/bl31/spinlock.o
 .data          0x0000000000000000        0x0 /home/jongja.cho/Git/legacy/rebel_cds_collab_hw/bootloader/cp/tf-a/build/rebel_h/debug/bl31/spinlock.o
 .bss           0x0000000000000000        0x0 /home/jongja.cho/Git/legacy/rebel_cds_collab_hw/bootloader/cp/tf-a/build/rebel_h/debug/bl31/spinlock.o
 .text.asm.spin_trylock
                0x0000000000000000       0x24 /home/jongja.cho/Git/legacy/rebel_cds_collab_hw/bootloader/cp/tf-a/build/rebel_h/debug/bl31/spinlock.o
 .text          0x0000000000000000        0x0 /home/jongja.cho/Git/legacy/rebel_cds_collab_hw/bootloader/cp/tf-a/build/rebel_h/debug/bl31/per_cpu_asm.o
 .data          0x0000000000000000        0x0 /home/jongja.cho/Git/legacy/rebel_cds_collab_hw/bootloader/cp/tf-a/build/rebel_h/debug/bl31/per_cpu_asm.o
 .bss           0x0000000000000000        0x0 /home/jongja.cho/Git/legacy/rebel_cds_collab_hw/bootloader/cp/tf-a/build/rebel_h/debug/bl31/per_cpu_asm.o
 .text          0x0000000000000000        0x0 /home/jongja.cho/Git/legacy/rebel_cds_collab_hw/bootloader/cp/tf-a/build/rebel_h/debug/bl31/psci_helpers.o
 .data          0x0000000000000000        0x0 /home/jongja.cho/Git/legacy/rebel_cds_collab_hw/bootloader/cp/tf-a/build/rebel_h/debug/bl31/psci_helpers.o
 .bss           0x0000000000000000        0x0 /home/jongja.cho/Git/legacy/rebel_cds_collab_hw/bootloader/cp/tf-a/build/rebel_h/debug/bl31/psci_helpers.o
 .text.asm.psci_do_pwrup_cache_maintenance
                0x0000000000000000       0x34 /home/jongja.cho/Git/legacy/rebel_cds_collab_hw/bootloader/cp/tf-a/build/rebel_h/debug/bl31/psci_helpers.o
 .text          0x0000000000000000        0x0 /home/jongja.cho/Git/legacy/rebel_cds_collab_hw/bootloader/cp/tf-a/build/rebel_h/debug/bl31/enable_mmu.o
 .data          0x0000000000000000        0x0 /home/jongja.cho/Git/legacy/rebel_cds_collab_hw/bootloader/cp/tf-a/build/rebel_h/debug/bl31/enable_mmu.o
 .bss           0x0000000000000000        0x0 /home/jongja.cho/Git/legacy/rebel_cds_collab_hw/bootloader/cp/tf-a/build/rebel_h/debug/bl31/enable_mmu.o
 .text.asm.enable_mmu_direct_el1
                0x0000000000000000       0x70 /home/jongja.cho/Git/legacy/rebel_cds_collab_hw/bootloader/cp/tf-a/build/rebel_h/debug/bl31/enable_mmu.o
 .text.asm.enable_mmu_direct_el2
                0x0000000000000000       0x70 /home/jongja.cho/Git/legacy/rebel_cds_collab_hw/bootloader/cp/tf-a/build/rebel_h/debug/bl31/enable_mmu.o
 .text.asm.enable_mmu_direct_el3_bl31
                0x0000000000000000       0xe0 /home/jongja.cho/Git/legacy/rebel_cds_collab_hw/bootloader/cp/tf-a/build/rebel_h/debug/bl31/enable_mmu.o
 .text          0x0000000000000000        0x0 /home/jongja.cho/Git/legacy/rebel_cds_collab_hw/bootloader/cp/tf-a/build/rebel_h/debug/bl31/platform_helpers.o
 .data          0x0000000000000000        0x0 /home/jongja.cho/Git/legacy/rebel_cds_collab_hw/bootloader/cp/tf-a/build/rebel_h/debug/bl31/platform_helpers.o
 .bss           0x0000000000000000        0x0 /home/jongja.cho/Git/legacy/rebel_cds_collab_hw/bootloader/cp/tf-a/build/rebel_h/debug/bl31/platform_helpers.o
 .text.asm.plat_report_exception
                0x0000000000000000        0x4 /home/jongja.cho/Git/legacy/rebel_cds_collab_hw/bootloader/cp/tf-a/build/rebel_h/debug/bl31/platform_helpers.o
 .text.asm.plat_reset_handler
                0x0000000000000000        0x4 /home/jongja.cho/Git/legacy/rebel_cds_collab_hw/bootloader/cp/tf-a/build/rebel_h/debug/bl31/platform_helpers.o
 .text.asm.bl1_plat_prepare_exit
                0x0000000000000000        0x4 /home/jongja.cho/Git/legacy/rebel_cds_collab_hw/bootloader/cp/tf-a/build/rebel_h/debug/bl31/platform_helpers.o
 .text.asm.bl32_plat_enable_mmu
                0x0000000000000000        0x4 /home/jongja.cho/Git/legacy/rebel_cds_collab_hw/bootloader/cp/tf-a/build/rebel_h/debug/bl31/platform_helpers.o
 .text.asm.plat_handle_uncontainable_ea
                0x0000000000000000        0x4 /home/jongja.cho/Git/legacy/rebel_cds_collab_hw/bootloader/cp/tf-a/build/rebel_h/debug/bl31/platform_helpers.o
 .text.asm.plat_handle_double_fault
                0x0000000000000000        0x4 /home/jongja.cho/Git/legacy/rebel_cds_collab_hw/bootloader/cp/tf-a/build/rebel_h/debug/bl31/platform_helpers.o
 .text          0x0000000000000000        0x0 /home/jongja.cho/Git/legacy/rebel_cds_collab_hw/bootloader/cp/tf-a/build/rebel_h/debug/bl31/platform_mp_stack.o
 .data          0x0000000000000000        0x0 /home/jongja.cho/Git/legacy/rebel_cds_collab_hw/bootloader/cp/tf-a/build/rebel_h/debug/bl31/platform_mp_stack.o
 .bss           0x0000000000000000        0x0 /home/jongja.cho/Git/legacy/rebel_cds_collab_hw/bootloader/cp/tf-a/build/rebel_h/debug/bl31/platform_mp_stack.o
 .text          0x0000000000000000        0x0 /home/jongja.cho/Git/legacy/rebel_cds_collab_hw/bootloader/cp/tf-a/build/rebel_h/debug/bl31/plat_helper.o
 .data          0x0000000000000000        0x0 /home/jongja.cho/Git/legacy/rebel_cds_collab_hw/bootloader/cp/tf-a/build/rebel_h/debug/bl31/plat_helper.o
 .bss           0x0000000000000000        0x0 /home/jongja.cho/Git/legacy/rebel_cds_collab_hw/bootloader/cp/tf-a/build/rebel_h/debug/bl31/plat_helper.o
 .text.asm.plat_get_my_entrypoint
                0x0000000000000000        0x8 /home/jongja.cho/Git/legacy/rebel_cds_collab_hw/bootloader/cp/tf-a/build/rebel_h/debug/bl31/plat_helper.o
 .text.asm.plat_is_my_cpu_primary
                0x0000000000000000       0x14 /home/jongja.cho/Git/legacy/rebel_cds_collab_hw/bootloader/cp/tf-a/build/rebel_h/debug/bl31/plat_helper.o
 .text.asm.plat_secondary_cold_boot_setup
                0x0000000000000000        0x4 /home/jongja.cho/Git/legacy/rebel_cds_collab_hw/bootloader/cp/tf-a/build/rebel_h/debug/bl31/plat_helper.o
 .text.asm.plat_get_image_source
                0x0000000000000000        0x0 /home/jongja.cho/Git/legacy/rebel_cds_collab_hw/bootloader/cp/tf-a/build/rebel_h/debug/bl31/plat_helper.o
 .text          0x0000000000000000        0x0 /home/jongja.cho/Git/legacy/rebel_cds_collab_hw/bootloader/cp/tf-a/build/rebel_h/debug/lib/libc.a(assert.o)
 .data          0x0000000000000000        0x0 /home/jongja.cho/Git/legacy/rebel_cds_collab_hw/bootloader/cp/tf-a/build/rebel_h/debug/lib/libc.a(assert.o)
 .bss           0x0000000000000000        0x0 /home/jongja.cho/Git/legacy/rebel_cds_collab_hw/bootloader/cp/tf-a/build/rebel_h/debug/lib/libc.a(assert.o)
 .text          0x0000000000000000        0x0 /home/jongja.cho/Git/legacy/rebel_cds_collab_hw/bootloader/cp/tf-a/build/rebel_h/debug/lib/libc.a(memcpy.o)
 .data          0x0000000000000000        0x0 /home/jongja.cho/Git/legacy/rebel_cds_collab_hw/bootloader/cp/tf-a/build/rebel_h/debug/lib/libc.a(memcpy.o)
 .bss           0x0000000000000000        0x0 /home/jongja.cho/Git/legacy/rebel_cds_collab_hw/bootloader/cp/tf-a/build/rebel_h/debug/lib/libc.a(memcpy.o)
 .text          0x0000000000000000        0x0 /home/jongja.cho/Git/legacy/rebel_cds_collab_hw/bootloader/cp/tf-a/build/rebel_h/debug/lib/libc.a(memmove.o)
 .data          0x0000000000000000        0x0 /home/jongja.cho/Git/legacy/rebel_cds_collab_hw/bootloader/cp/tf-a/build/rebel_h/debug/lib/libc.a(memmove.o)
 .bss           0x0000000000000000        0x0 /home/jongja.cho/Git/legacy/rebel_cds_collab_hw/bootloader/cp/tf-a/build/rebel_h/debug/lib/libc.a(memmove.o)
 .text.memmove  0x0000000000000000       0x34 /home/jongja.cho/Git/legacy/rebel_cds_collab_hw/bootloader/cp/tf-a/build/rebel_h/debug/lib/libc.a(memmove.o)
 .debug_info    0x0000000000000000      0x134 /home/jongja.cho/Git/legacy/rebel_cds_collab_hw/bootloader/cp/tf-a/build/rebel_h/debug/lib/libc.a(memmove.o)
 .debug_abbrev  0x0000000000000000       0xc4 /home/jongja.cho/Git/legacy/rebel_cds_collab_hw/bootloader/cp/tf-a/build/rebel_h/debug/lib/libc.a(memmove.o)
 .debug_loc     0x0000000000000000      0x1ff /home/jongja.cho/Git/legacy/rebel_cds_collab_hw/bootloader/cp/tf-a/build/rebel_h/debug/lib/libc.a(memmove.o)
 .debug_aranges
                0x0000000000000000       0x30 /home/jongja.cho/Git/legacy/rebel_cds_collab_hw/bootloader/cp/tf-a/build/rebel_h/debug/lib/libc.a(memmove.o)
 .debug_ranges  0x0000000000000000       0x50 /home/jongja.cho/Git/legacy/rebel_cds_collab_hw/bootloader/cp/tf-a/build/rebel_h/debug/lib/libc.a(memmove.o)
 .debug_line    0x0000000000000000       0xc1 /home/jongja.cho/Git/legacy/rebel_cds_collab_hw/bootloader/cp/tf-a/build/rebel_h/debug/lib/libc.a(memmove.o)
 .debug_str     0x0000000000000000      0x1a1 /home/jongja.cho/Git/legacy/rebel_cds_collab_hw/bootloader/cp/tf-a/build/rebel_h/debug/lib/libc.a(memmove.o)
 .comment       0x0000000000000000       0x45 /home/jongja.cho/Git/legacy/rebel_cds_collab_hw/bootloader/cp/tf-a/build/rebel_h/debug/lib/libc.a(memmove.o)
 .debug_frame   0x0000000000000000       0x28 /home/jongja.cho/Git/legacy/rebel_cds_collab_hw/bootloader/cp/tf-a/build/rebel_h/debug/lib/libc.a(memmove.o)
 .text          0x0000000000000000        0x0 /home/jongja.cho/Git/legacy/rebel_cds_collab_hw/bootloader/cp/tf-a/build/rebel_h/debug/lib/libc.a(printf.o)
 .data          0x0000000000000000        0x0 /home/jongja.cho/Git/legacy/rebel_cds_collab_hw/bootloader/cp/tf-a/build/rebel_h/debug/lib/libc.a(printf.o)
 .bss           0x0000000000000000        0x0 /home/jongja.cho/Git/legacy/rebel_cds_collab_hw/bootloader/cp/tf-a/build/rebel_h/debug/lib/libc.a(printf.o)
 .text          0x0000000000000000        0x0 /home/jongja.cho/Git/legacy/rebel_cds_collab_hw/bootloader/cp/tf-a/build/rebel_h/debug/lib/libc.a(memset.o)
 .data          0x0000000000000000        0x0 /home/jongja.cho/Git/legacy/rebel_cds_collab_hw/bootloader/cp/tf-a/build/rebel_h/debug/lib/libc.a(memset.o)
 .bss           0x0000000000000000        0x0 /home/jongja.cho/Git/legacy/rebel_cds_collab_hw/bootloader/cp/tf-a/build/rebel_h/debug/lib/libc.a(memset.o)

Memory Configuration

Name             Origin             Length             Attributes
RAM              0x0000000014100000 0x0000000000100000 xrw
*default*        0x0000000000000000 0xffffffffffffffff

Linker script and memory map

                0x0000000014100000                RAM_REGION_START = ORIGIN (RAM)
                0x0000000000100000                RAM_REGION_LENGTH = LENGTH (RAM)
                0x0000000014100000                . = 0x14100000
                0x0000000000000001                ASSERT ((. == ALIGN (0x1000)), BL31_BASE address is not aligned on a page boundary.)
                0x0000000014100000                __BL31_START__ = .

.ro             0x0000000014100000     0xa000
                0x0000000000000001                ASSERT ((. == ALIGN (0x1000)), .ro is not aligned on a page boundary.)
                0x0000000014100000                __RO_START__ = .
 *bl31_entrypoint.o(SORT_BY_ALIGNMENT(.text*))
 .text.asm.bl31_entrypoint
                0x0000000014100000      0x184 /home/jongja.cho/Git/legacy/rebel_cds_collab_hw/bootloader/cp/tf-a/build/rebel_h/debug/bl31/bl31_entrypoint.o
                0x0000000014100000                bl31_entrypoint
 .text.asm.bl31_warm_entrypoint
                0x0000000014100184       0xb8 /home/jongja.cho/Git/legacy/rebel_cds_collab_hw/bootloader/cp/tf-a/build/rebel_h/debug/bl31/bl31_entrypoint.o
                0x0000000014100184                bl31_warm_entrypoint
 *(SORT_BY_ALIGNMENT(.text*))
 .text.rebel_bakery_lock_acquire
                0x000000001410023c       0xcc /home/jongja.cho/Git/legacy/rebel_cds_collab_hw/bootloader/cp/tf-a/build/rebel_h/debug/bl31/bakery_lock.o
                0x000000001410023c                rebel_bakery_lock_acquire
 .text.rebel_bakery_lock_release
                0x0000000014100308       0x28 /home/jongja.cho/Git/legacy/rebel_cds_collab_hw/bootloader/cp/tf-a/build/rebel_h/debug/bl31/bakery_lock.o
                0x0000000014100308                rebel_bakery_lock_release
 .text.cm_get_context
                0x0000000014100330       0x38 /home/jongja.cho/Git/legacy/rebel_cds_collab_hw/bootloader/cp/tf-a/build/rebel_h/debug/bl31/bl31_context_mgmt.o
                0x0000000014100330                cm_get_context
 .text.cm_set_context_by_index
                0x0000000014100368       0x3c /home/jongja.cho/Git/legacy/rebel_cds_collab_hw/bootloader/cp/tf-a/build/rebel_h/debug/bl31/bl31_context_mgmt.o
                0x0000000014100368                cm_set_context_by_index
 .text.get_arm_std_svc_args
                0x00000000141003a4       0x24 /home/jongja.cho/Git/legacy/rebel_cds_collab_hw/bootloader/cp/tf-a/build/rebel_h/debug/bl31/bl31_main.o
                0x00000000141003a4                get_arm_std_svc_args
 .text.bl31_warmboot
                0x00000000141003c8       0x34 /home/jongja.cho/Git/legacy/rebel_cds_collab_hw/bootloader/cp/tf-a/build/rebel_h/debug/bl31/bl31_main.o
                0x00000000141003c8                bl31_warmboot
 .text.bl31_prepare_next_image_entry
                0x00000000141003fc       0xa8 /home/jongja.cho/Git/legacy/rebel_cds_collab_hw/bootloader/cp/tf-a/build/rebel_h/debug/bl31/bl31_main.o
                0x00000000141003fc                bl31_prepare_next_image_entry
 .text.bl31_main
                0x00000000141004a4       0xd0 /home/jongja.cho/Git/legacy/rebel_cds_collab_hw/bootloader/cp/tf-a/build/rebel_h/debug/bl31/bl31_main.o
                0x00000000141004a4                bl31_main
 .text.is_tge_enabled
                0x0000000014100574       0x18 /home/jongja.cho/Git/legacy/rebel_cds_collab_hw/bootloader/cp/tf-a/build/rebel_h/debug/bl31/bl31_traps.o
 .text.handle_sysreg_trap
                0x000000001410058c        0x8 /home/jongja.cho/Git/legacy/rebel_cds_collab_hw/bootloader/cp/tf-a/build/rebel_h/debug/bl31/bl31_traps.o
                0x000000001410058c                handle_sysreg_trap
 .text.create_spsr
                0x0000000014100594      0x284 /home/jongja.cho/Git/legacy/rebel_cds_collab_hw/bootloader/cp/tf-a/build/rebel_h/debug/bl31/bl31_traps.o
                0x0000000014100594                create_spsr
 .text.inject_undef64
                0x0000000014100818       0xb8 /home/jongja.cho/Git/legacy/rebel_cds_collab_hw/bootloader/cp/tf-a/build/rebel_h/debug/bl31/bl31_traps.o
                0x0000000014100818                inject_undef64
 .text.get_scr_el3_from_routing_model
                0x00000000141008d0       0x40 /home/jongja.cho/Git/legacy/rebel_cds_collab_hw/bootloader/cp/tf-a/build/rebel_h/debug/bl31/interrupt_mgmt.o
                0x00000000141008d0                get_scr_el3_from_routing_model
 .text.get_interrupt_type_handler
                0x0000000014100910       0x3c /home/jongja.cho/Git/legacy/rebel_cds_collab_hw/bootloader/cp/tf-a/build/rebel_h/debug/bl31/interrupt_mgmt.o
                0x0000000014100910                get_interrupt_type_handler
 .text.is_address_readable
                0x000000001410094c       0x40 /home/jongja.cho/Git/legacy/rebel_cds_collab_hw/bootloader/cp/tf-a/build/rebel_h/debug/bl31/backtrace.o
 .text.is_valid_object.constprop.0
                0x000000001410098c       0x5c /home/jongja.cho/Git/legacy/rebel_cds_collab_hw/bootloader/cp/tf-a/build/rebel_h/debug/bl31/backtrace.o
 .text.backtrace
                0x00000000141009e8      0x120 /home/jongja.cho/Git/legacy/rebel_cds_collab_hw/bootloader/cp/tf-a/build/rebel_h/debug/bl31/backtrace.o
                0x00000000141009e8                backtrace
 .text.print_entry_point_info
                0x0000000014100b08        0x4 /home/jongja.cho/Git/legacy/rebel_cds_collab_hw/bootloader/cp/tf-a/build/rebel_h/debug/bl31/bl_common.o
                0x0000000014100b08                print_entry_point_info
 .text.runtime_svc_init
                0x0000000014100b0c      0x15c /home/jongja.cho/Git/legacy/rebel_cds_collab_hw/bootloader/cp/tf-a/build/rebel_h/debug/bl31/runtime_svc.o
                0x0000000014100b0c                runtime_svc_init
 .text.tf_log   0x0000000014100c68       0xb4 /home/jongja.cho/Git/legacy/rebel_cds_collab_hw/bootloader/cp/tf-a/build/rebel_h/debug/bl31/tf_log.o
                0x0000000014100c68                tf_log
 .text.gicr_wait_group_not_in_transit
                0x0000000014100d1c       0x14 /home/jongja.cho/Git/legacy/rebel_cds_collab_hw/bootloader/cp/tf-a/build/rebel_h/debug/bl31/gic-x00.o
 .text.gicv3_redists_need_power_mgmt
                0x0000000014100d30       0x48 /home/jongja.cho/Git/legacy/rebel_cds_collab_hw/bootloader/cp/tf-a/build/rebel_h/debug/bl31/gic-x00.o
 .text.get_gicr_base
                0x0000000014100d78       0x38 /home/jongja.cho/Git/legacy/rebel_cds_collab_hw/bootloader/cp/tf-a/build/rebel_h/debug/bl31/gic-x00.o
 .text.gicv3_rdistif_on
                0x0000000014100db0       0x34 /home/jongja.cho/Git/legacy/rebel_cds_collab_hw/bootloader/cp/tf-a/build/rebel_h/debug/bl31/gic-x00.o
                0x0000000014100db0                gicv3_rdistif_on
 .text.gicv3_apply_errata_wa_2384374
                0x0000000014100de4       0x24 /home/jongja.cho/Git/legacy/rebel_cds_collab_hw/bootloader/cp/tf-a/build/rebel_h/debug/bl31/gic-x00.o
                0x0000000014100de4                gicv3_apply_errata_wa_2384374
 .text.gicv3_check_erratas_applies
                0x0000000014100e08       0x5c /home/jongja.cho/Git/legacy/rebel_cds_collab_hw/bootloader/cp/tf-a/build/rebel_h/debug/bl31/gic-x00.o
                0x0000000014100e08                gicv3_check_erratas_applies
 .text.gicd_set_icfgr
                0x0000000014100e64       0x34 /home/jongja.cho/Git/legacy/rebel_cds_collab_hw/bootloader/cp/tf-a/build/rebel_h/debug/bl31/gicdv3_helpers.o
                0x0000000014100e64                gicd_set_icfgr
 .text.gicd_clr_igroupr
                0x0000000014100e98       0x24 /home/jongja.cho/Git/legacy/rebel_cds_collab_hw/bootloader/cp/tf-a/build/rebel_h/debug/bl31/gicdv3_helpers.o
                0x0000000014100e98                gicd_clr_igroupr
 .text.gicd_set_igrpmodr
                0x0000000014100ebc       0x24 /home/jongja.cho/Git/legacy/rebel_cds_collab_hw/bootloader/cp/tf-a/build/rebel_h/debug/bl31/gicdv3_helpers.o
                0x0000000014100ebc                gicd_set_igrpmodr
 .text.gicd_clr_igrpmodr
                0x0000000014100ee0       0x24 /home/jongja.cho/Git/legacy/rebel_cds_collab_hw/bootloader/cp/tf-a/build/rebel_h/debug/bl31/gicdv3_helpers.o
                0x0000000014100ee0                gicd_clr_igrpmodr
 .text.gicd_set_isenabler
                0x0000000014100f04       0x1c /home/jongja.cho/Git/legacy/rebel_cds_collab_hw/bootloader/cp/tf-a/build/rebel_h/debug/bl31/gicdv3_helpers.o
                0x0000000014100f04                gicd_set_isenabler
 .text.gicd_set_ipriorityr
                0x0000000014100f20       0x14 /home/jongja.cho/Git/legacy/rebel_cds_collab_hw/bootloader/cp/tf-a/build/rebel_h/debug/bl31/gicdv3_helpers.o
                0x0000000014100f20                gicd_set_ipriorityr
 .text.gicd_write_icfgr
                0x0000000014100f34       0x14 /home/jongja.cho/Git/legacy/rebel_cds_collab_hw/bootloader/cp/tf-a/build/rebel_h/debug/bl31/gicdv3_helpers.o
                0x0000000014100f34                gicd_write_icfgr
 .text.gicd_write_igroupr
                0x0000000014100f48       0x14 /home/jongja.cho/Git/legacy/rebel_cds_collab_hw/bootloader/cp/tf-a/build/rebel_h/debug/bl31/gicdv3_helpers.o
                0x0000000014100f48                gicd_write_igroupr
 .text.gicd_write_ipriorityr
                0x0000000014100f5c       0x10 /home/jongja.cho/Git/legacy/rebel_cds_collab_hw/bootloader/cp/tf-a/build/rebel_h/debug/bl31/gicdv3_helpers.o
                0x0000000014100f5c                gicd_write_ipriorityr
 .text.gicr_write_ipriorityr
                0x0000000014100f6c       0x14 /home/jongja.cho/Git/legacy/rebel_cds_collab_hw/bootloader/cp/tf-a/build/rebel_h/debug/bl31/gicrv3_helpers.o
                0x0000000014100f6c                gicr_write_ipriorityr
 .text.gicr_set_ipriorityr
                0x0000000014100f80       0x18 /home/jongja.cho/Git/legacy/rebel_cds_collab_hw/bootloader/cp/tf-a/build/rebel_h/debug/bl31/gicrv3_helpers.o
                0x0000000014100f80                gicr_set_ipriorityr
 .text.gicr_clr_igroupr
                0x0000000014100f98       0x28 /home/jongja.cho/Git/legacy/rebel_cds_collab_hw/bootloader/cp/tf-a/build/rebel_h/debug/bl31/gicrv3_helpers.o
                0x0000000014100f98                gicr_clr_igroupr
 .text.gicr_set_igrpmodr
                0x0000000014100fc0       0x28 /home/jongja.cho/Git/legacy/rebel_cds_collab_hw/bootloader/cp/tf-a/build/rebel_h/debug/bl31/gicrv3_helpers.o
                0x0000000014100fc0                gicr_set_igrpmodr
 .text.gicr_clr_igrpmodr
                0x0000000014100fe8       0x28 /home/jongja.cho/Git/legacy/rebel_cds_collab_hw/bootloader/cp/tf-a/build/rebel_h/debug/bl31/gicrv3_helpers.o
                0x0000000014100fe8                gicr_clr_igrpmodr
 .text.gicr_set_isenabler
                0x0000000014101010       0x20 /home/jongja.cho/Git/legacy/rebel_cds_collab_hw/bootloader/cp/tf-a/build/rebel_h/debug/bl31/gicrv3_helpers.o
                0x0000000014101010                gicr_set_isenabler
 .text.gicr_set_icfgr
                0x0000000014101030       0x38 /home/jongja.cho/Git/legacy/rebel_cds_collab_hw/bootloader/cp/tf-a/build/rebel_h/debug/bl31/gicrv3_helpers.o
                0x0000000014101030                gicr_set_icfgr
 .text.gicv3_rdistif_mark_core_awake
                0x0000000014101068       0x54 /home/jongja.cho/Git/legacy/rebel_cds_collab_hw/bootloader/cp/tf-a/build/rebel_h/debug/bl31/gicv3_helpers.o
                0x0000000014101068                gicv3_rdistif_mark_core_awake
 .text.gicv3_rdistif_mark_core_asleep
                0x00000000141010bc       0x1c /home/jongja.cho/Git/legacy/rebel_cds_collab_hw/bootloader/cp/tf-a/build/rebel_h/debug/bl31/gicv3_helpers.o
                0x00000000141010bc                gicv3_rdistif_mark_core_asleep
 .text.gicv3_rdistif_base_addrs_probe
                0x00000000141010d8       0x74 /home/jongja.cho/Git/legacy/rebel_cds_collab_hw/bootloader/cp/tf-a/build/rebel_h/debug/bl31/gicv3_helpers.o
                0x00000000141010d8                gicv3_rdistif_base_addrs_probe
 .text.gicv3_get_spi_limit
                0x000000001410114c       0x1c /home/jongja.cho/Git/legacy/rebel_cds_collab_hw/bootloader/cp/tf-a/build/rebel_h/debug/bl31/gicv3_helpers.o
                0x000000001410114c                gicv3_get_spi_limit
 .text.gicv3_spis_config_defaults
                0x0000000014101168       0x98 /home/jongja.cho/Git/legacy/rebel_cds_collab_hw/bootloader/cp/tf-a/build/rebel_h/debug/bl31/gicv3_helpers.o
                0x0000000014101168                gicv3_spis_config_defaults
 .text.gicv3_secure_spis_config_props
                0x0000000014101200      0x104 /home/jongja.cho/Git/legacy/rebel_cds_collab_hw/bootloader/cp/tf-a/build/rebel_h/debug/bl31/gicv3_helpers.o
                0x0000000014101200                gicv3_secure_spis_config_props
 .text.gicv3_ppi_sgi_config_defaults
                0x0000000014101304       0x70 /home/jongja.cho/Git/legacy/rebel_cds_collab_hw/bootloader/cp/tf-a/build/rebel_h/debug/bl31/gicv3_helpers.o
                0x0000000014101304                gicv3_ppi_sgi_config_defaults
 .text.gicv3_secure_ppi_sgi_config_props
                0x0000000014101374       0xe4 /home/jongja.cho/Git/legacy/rebel_cds_collab_hw/bootloader/cp/tf-a/build/rebel_h/debug/bl31/gicv3_helpers.o
                0x0000000014101374                gicv3_secure_ppi_sgi_config_props
 .text.gicv3_get_component_prodid_rev
                0x0000000014101458       0x18 /home/jongja.cho/Git/legacy/rebel_cds_collab_hw/bootloader/cp/tf-a/build/rebel_h/debug/bl31/gicv3_helpers.o
                0x0000000014101458                gicv3_get_component_prodid_rev
 .text.gicd_wait_for_pending_write
                0x0000000014101470        0xc /home/jongja.cho/Git/legacy/rebel_cds_collab_hw/bootloader/cp/tf-a/build/rebel_h/debug/bl31/gicv3_main.o
 .text.gicv3_driver_init
                0x000000001410147c       0xc4 /home/jongja.cho/Git/legacy/rebel_cds_collab_hw/bootloader/cp/tf-a/build/rebel_h/debug/bl31/gicv3_main.o
                0x000000001410147c                gicv3_driver_init
 .text.gicv3_distif_init
                0x0000000014101540       0x90 /home/jongja.cho/Git/legacy/rebel_cds_collab_hw/bootloader/cp/tf-a/build/rebel_h/debug/bl31/gicv3_main.o
                0x0000000014101540                gicv3_distif_init
 .text.gicv3_rdistif_init
                0x00000000141015d0       0xc8 /home/jongja.cho/Git/legacy/rebel_cds_collab_hw/bootloader/cp/tf-a/build/rebel_h/debug/bl31/gicv3_main.o
                0x00000000141015d0                gicv3_rdistif_init
 .text.gicv3_cpuif_enable
                0x0000000014101698       0xb8 /home/jongja.cho/Git/legacy/rebel_cds_collab_hw/bootloader/cp/tf-a/build/rebel_h/debug/bl31/gicv3_main.o
                0x0000000014101698                gicv3_cpuif_enable
 .text.gicv3_cpuif_disable
                0x0000000014101750       0x94 /home/jongja.cho/Git/legacy/rebel_cds_collab_hw/bootloader/cp/tf-a/build/rebel_h/debug/bl31/gicv3_main.o
                0x0000000014101750                gicv3_cpuif_disable
 .text.gicv3_get_pending_interrupt_type
                0x00000000141017e4       0x28 /home/jongja.cho/Git/legacy/rebel_cds_collab_hw/bootloader/cp/tf-a/build/rebel_h/debug/bl31/gicv3_main.o
                0x00000000141017e4                gicv3_get_pending_interrupt_type
 .text.gicv3_rdistif_probe
                0x000000001410180c       0xc0 /home/jongja.cho/Git/legacy/rebel_cds_collab_hw/bootloader/cp/tf-a/build/rebel_h/debug/bl31/gicv3_main.o
                0x000000001410180c                gicv3_rdistif_probe
 .text.console_is_registered
                0x00000000141018cc       0x3c /home/jongja.cho/Git/legacy/rebel_cds_collab_hw/bootloader/cp/tf-a/build/rebel_h/debug/bl31/multi_console.o
                0x00000000141018cc                console_is_registered
 .text.console_register
                0x0000000014101908       0x64 /home/jongja.cho/Git/legacy/rebel_cds_collab_hw/bootloader/cp/tf-a/build/rebel_h/debug/bl31/multi_console.o
                0x0000000014101908                console_register
 .text.console_switch_state
                0x000000001410196c        0xc /home/jongja.cho/Git/legacy/rebel_cds_collab_hw/bootloader/cp/tf-a/build/rebel_h/debug/bl31/multi_console.o
                0x000000001410196c                console_switch_state
 .text.console_set_scope
                0x0000000014101978       0x28 /home/jongja.cho/Git/legacy/rebel_cds_collab_hw/bootloader/cp/tf-a/build/rebel_h/debug/bl31/multi_console.o
                0x0000000014101978                console_set_scope
 .text.console_putc
                0x00000000141019a0       0xa8 /home/jongja.cho/Git/legacy/rebel_cds_collab_hw/bootloader/cp/tf-a/build/rebel_h/debug/bl31/multi_console.o
                0x00000000141019a0                console_putc
 .text.putchar  0x0000000014101a48       0x28 /home/jongja.cho/Git/legacy/rebel_cds_collab_hw/bootloader/cp/tf-a/build/rebel_h/debug/bl31/multi_console.o
                0x0000000014101a48                putchar
 .text.console_flush
                0x0000000014101a70       0x54 /home/jongja.cho/Git/legacy/rebel_cds_collab_hw/bootloader/cp/tf-a/build/rebel_h/debug/bl31/multi_console.o
                0x0000000014101a70                console_flush
 .text.flash_spi_set_quad_mode
                0x0000000014101ac4       0xa0 /home/jongja.cho/Git/legacy/rebel_cds_collab_hw/bootloader/cp/tf-a/build/rebel_h/debug/bl31/mt25q_flash.o
 .text.flash_read_one_register
                0x0000000014101b64       0x44 /home/jongja.cho/Git/legacy/rebel_cds_collab_hw/bootloader/cp/tf-a/build/rebel_h/debug/bl31/mt25q_flash.o
                0x0000000014101b64                flash_read_one_register
 .text.flash_check_ready
                0x0000000014101ba8       0x1c /home/jongja.cho/Git/legacy/rebel_cds_collab_hw/bootloader/cp/tf-a/build/rebel_h/debug/bl31/mt25q_flash.o
                0x0000000014101ba8                flash_check_ready
 .text.flash_write_mode
                0x0000000014101bc4       0x44 /home/jongja.cho/Git/legacy/rebel_cds_collab_hw/bootloader/cp/tf-a/build/rebel_h/debug/bl31/mt25q_flash.o
                0x0000000014101bc4                flash_write_mode
 .text.flash_write_mode_i_a
                0x0000000014101c08       0x4c /home/jongja.cho/Git/legacy/rebel_cds_collab_hw/bootloader/cp/tf-a/build/rebel_h/debug/bl31/mt25q_flash.o
                0x0000000014101c08                flash_write_mode_i_a
 .text.write_flash_fast_256_data
                0x0000000014101c54       0x5c /home/jongja.cho/Git/legacy/rebel_cds_collab_hw/bootloader/cp/tf-a/build/rebel_h/debug/bl31/mt25q_flash.o
                0x0000000014101c54                write_flash_fast_256_data
 .text.write_flash_fast_size_data
                0x0000000014101cb0       0x64 /home/jongja.cho/Git/legacy/rebel_cds_collab_hw/bootloader/cp/tf-a/build/rebel_h/debug/bl31/mt25q_flash.o
                0x0000000014101cb0                write_flash_fast_size_data
 .text.enable_write
                0x0000000014101d14       0x5c /home/jongja.cho/Git/legacy/rebel_cds_collab_hw/bootloader/cp/tf-a/build/rebel_h/debug/bl31/mt25q_flash.o
                0x0000000014101d14                enable_write
 .text.erase_flash
                0x0000000014101d70      0x150 /home/jongja.cho/Git/legacy/rebel_cds_collab_hw/bootloader/cp/tf-a/build/rebel_h/debug/bl31/mt25q_flash.o
                0x0000000014101d70                erase_flash
 .text.read_flash
                0x0000000014101ec0       0x68 /home/jongja.cho/Git/legacy/rebel_cds_collab_hw/bootloader/cp/tf-a/build/rebel_h/debug/bl31/mt25q_flash.o
                0x0000000014101ec0                read_flash
 .text.write_flash
                0x0000000014101f28       0xf0 /home/jongja.cho/Git/legacy/rebel_cds_collab_hw/bootloader/cp/tf-a/build/rebel_h/debug/bl31/mt25q_flash.o
                0x0000000014101f28                write_flash
 .text.qspi_boot_wait_busy_state
                0x0000000014102018       0x20 /home/jongja.cho/Git/legacy/rebel_cds_collab_hw/bootloader/cp/tf-a/build/rebel_h/debug/bl31/qspi_boot.o
 .text.qspi_boot_wait_idle
                0x0000000014102038       0x14 /home/jongja.cho/Git/legacy/rebel_cds_collab_hw/bootloader/cp/tf-a/build/rebel_h/debug/bl31/qspi_boot.o
 .text.qspi_boot_ser_enable
                0x000000001410204c       0x28 /home/jongja.cho/Git/legacy/rebel_cds_collab_hw/bootloader/cp/tf-a/build/rebel_h/debug/bl31/qspi_boot.o
 .text.qspi_boot_ser_disable
                0x0000000014102074       0x18 /home/jongja.cho/Git/legacy/rebel_cds_collab_hw/bootloader/cp/tf-a/build/rebel_h/debug/bl31/qspi_boot.o
 .text.qspi_boot_enable
                0x000000001410208c       0x18 /home/jongja.cho/Git/legacy/rebel_cds_collab_hw/bootloader/cp/tf-a/build/rebel_h/debug/bl31/qspi_boot.o
                0x000000001410208c                qspi_boot_enable
 .text.qspi_boot_config
                0x00000000141020a4       0xf8 /home/jongja.cho/Git/legacy/rebel_cds_collab_hw/bootloader/cp/tf-a/build/rebel_h/debug/bl31/qspi_boot.o
                0x00000000141020a4                qspi_boot_config
 .text.qspi_boot_std_tx_d_multiple
                0x000000001410219c       0x48 /home/jongja.cho/Git/legacy/rebel_cds_collab_hw/bootloader/cp/tf-a/build/rebel_h/debug/bl31/qspi_boot.o
                0x000000001410219c                qspi_boot_std_tx_d_multiple
 .text.qspi_boot_enhance_rx_i_d_once
                0x00000000141021e4       0x44 /home/jongja.cho/Git/legacy/rebel_cds_collab_hw/bootloader/cp/tf-a/build/rebel_h/debug/bl31/qspi_boot.o
                0x00000000141021e4                qspi_boot_enhance_rx_i_d_once
 .text.qspi_boot_std_tx_rx_d_multiple
                0x0000000014102228       0xcc /home/jongja.cho/Git/legacy/rebel_cds_collab_hw/bootloader/cp/tf-a/build/rebel_h/debug/bl31/qspi_boot.o
                0x0000000014102228                qspi_boot_std_tx_rx_d_multiple
 .text.qspi_boot_config_controller
                0x00000000141022f4       0xb0 /home/jongja.cho/Git/legacy/rebel_cds_collab_hw/bootloader/cp/tf-a/build/rebel_h/debug/bl31/qspi_boot.o
                0x00000000141022f4                qspi_boot_config_controller
 .text.qspi_boot_config_for_flash
                0x00000000141023a4        0x4 /home/jongja.cho/Git/legacy/rebel_cds_collab_hw/bootloader/cp/tf-a/build/rebel_h/debug/bl31/qspi_boot.o
                0x00000000141023a4                qspi_boot_config_for_flash
 .text.qspi_boot_enhance_tx_i_once
                0x00000000141023a8       0x2c /home/jongja.cho/Git/legacy/rebel_cds_collab_hw/bootloader/cp/tf-a/build/rebel_h/debug/bl31/qspi_boot.o
                0x00000000141023a8                qspi_boot_enhance_tx_i_once
 .text.qspi_boot_enhance_tx_i_a_once
                0x00000000141023d4       0x34 /home/jongja.cho/Git/legacy/rebel_cds_collab_hw/bootloader/cp/tf-a/build/rebel_h/debug/bl31/qspi_boot.o
                0x00000000141023d4                qspi_boot_enhance_tx_i_a_once
 .text.qspi_boot_enhance_tx_i_a_d_256
                0x0000000014102408       0x5c /home/jongja.cho/Git/legacy/rebel_cds_collab_hw/bootloader/cp/tf-a/build/rebel_h/debug/bl31/qspi_boot.o
                0x0000000014102408                qspi_boot_enhance_tx_i_a_d_256
 .text.qspi_boot_enhance_tx_i_a_d_size
                0x0000000014102464       0x64 /home/jongja.cho/Git/legacy/rebel_cds_collab_hw/bootloader/cp/tf-a/build/rebel_h/debug/bl31/qspi_boot.o
                0x0000000014102464                qspi_boot_enhance_tx_i_a_d_size
 .text.find_erratum_entry
                0x00000000141024c8       0x78 /home/jongja.cho/Git/legacy/rebel_cds_collab_hw/bootloader/cp/tf-a/build/rebel_h/debug/bl31/errata_common.o
                0x00000000141024c8                find_erratum_entry
 .text.check_erratum_applies
                0x0000000014102540       0xa4 /home/jongja.cho/Git/legacy/rebel_cds_collab_hw/bootloader/cp/tf-a/build/rebel_h/debug/bl31/errata_common.o
                0x0000000014102540                check_erratum_applies
 .text.generic_errata_report
                0x00000000141025e4      0x130 /home/jongja.cho/Git/legacy/rebel_cds_collab_hw/bootloader/cp/tf-a/build/rebel_h/debug/bl31/errata_report.o
                0x00000000141025e4                generic_errata_report
 .text.print_errata_status
                0x0000000014102714       0x78 /home/jongja.cho/Git/legacy/rebel_cds_collab_hw/bootloader/cp/tf-a/build/rebel_h/debug/bl31/errata_report.o
                0x0000000014102714                print_errata_status
 .text.cm_init  0x000000001410278c        0x4 /home/jongja.cho/Git/legacy/rebel_cds_collab_hw/bootloader/cp/tf-a/build/rebel_h/debug/bl31/context_mgmt.o
                0x000000001410278c                cm_init
 .text.cm_setup_context
                0x0000000014102790      0x1d0 /home/jongja.cho/Git/legacy/rebel_cds_collab_hw/bootloader/cp/tf-a/build/rebel_h/debug/bl31/context_mgmt.o
                0x0000000014102790                cm_setup_context
 .text.cm_manage_extensions_el3
                0x0000000014102960       0x40 /home/jongja.cho/Git/legacy/rebel_cds_collab_hw/bootloader/cp/tf-a/build/rebel_h/debug/bl31/context_mgmt.o
                0x0000000014102960                cm_manage_extensions_el3
 .text.cm_manage_extensions_per_world
                0x00000000141029a0       0x9c /home/jongja.cho/Git/legacy/rebel_cds_collab_hw/bootloader/cp/tf-a/build/rebel_h/debug/bl31/context_mgmt.o
                0x00000000141029a0                cm_manage_extensions_per_world
 .text.cm_init_percpu_once_regs
                0x0000000014102a3c        0x4 /home/jongja.cho/Git/legacy/rebel_cds_collab_hw/bootloader/cp/tf-a/build/rebel_h/debug/bl31/context_mgmt.o
                0x0000000014102a3c                cm_init_percpu_once_regs
 .text.cm_init_my_context
                0x0000000014102a40       0x30 /home/jongja.cho/Git/legacy/rebel_cds_collab_hw/bootloader/cp/tf-a/build/rebel_h/debug/bl31/context_mgmt.o
                0x0000000014102a40                cm_init_my_context
 .text.cm_el1_sysregs_context_restore
                0x0000000014102a70      0x17c /home/jongja.cho/Git/legacy/rebel_cds_collab_hw/bootloader/cp/tf-a/build/rebel_h/debug/bl31/context_mgmt.o
                0x0000000014102a70                cm_el1_sysregs_context_restore
 .text.cm_set_next_eret_context
                0x0000000014102bec       0x34 /home/jongja.cho/Git/legacy/rebel_cds_collab_hw/bootloader/cp/tf-a/build/rebel_h/debug/bl31/context_mgmt.o
                0x0000000014102bec                cm_set_next_eret_context
 .text.cm_prepare_el3_exit
                0x0000000014102c20       0x5c /home/jongja.cho/Git/legacy/rebel_cds_collab_hw/bootloader/cp/tf-a/build/rebel_h/debug/bl31/context_mgmt.o
                0x0000000014102c20                cm_prepare_el3_exit
 .text.cm_prepare_el3_exit_ns
                0x0000000014102c7c        0x8 /home/jongja.cho/Git/legacy/rebel_cds_collab_hw/bootloader/cp/tf-a/build/rebel_h/debug/bl31/context_mgmt.o
                0x0000000014102c7c                cm_prepare_el3_exit_ns
 .text.cpu_data_init_cpu_ops
                0x0000000014102c84       0x44 /home/jongja.cho/Git/legacy/rebel_cds_collab_hw/bootloader/cp/tf-a/build/rebel_h/debug/bl31/cpu_data_array.o
                0x0000000014102c84                cpu_data_init_cpu_ops
 .text.mpam_enable_per_world
                0x0000000014102cc8       0x14 /home/jongja.cho/Git/legacy/rebel_cds_collab_hw/bootloader/cp/tf-a/build/rebel_h/debug/bl31/mpam.o
                0x0000000014102cc8                mpam_enable_per_world
 .text.mpam_init_el3
                0x0000000014102cdc        0x4 /home/jongja.cho/Git/legacy/rebel_cds_collab_hw/bootloader/cp/tf-a/build/rebel_h/debug/bl31/mpam.o
                0x0000000014102cdc                mpam_init_el3
 .text.pmuv3_enable
                0x0000000014102ce0       0x28 /home/jongja.cho/Git/legacy/rebel_cds_collab_hw/bootloader/cp/tf-a/build/rebel_h/debug/bl31/pmuv3.o
                0x0000000014102ce0                pmuv3_enable
 .text.pmuv3_init_el3
                0x0000000014102d08       0x1c /home/jongja.cho/Git/legacy/rebel_cds_collab_hw/bootloader/cp/tf-a/build/rebel_h/debug/bl31/pmuv3.o
                0x0000000014102d08                pmuv3_init_el3
 .text.spe_enable_ns
                0x0000000014102d24       0x1c /home/jongja.cho/Git/legacy/rebel_cds_collab_hw/bootloader/cp/tf-a/build/rebel_h/debug/bl31/spe.o
                0x0000000014102d24                spe_enable_ns
 .text.spe_disable_secure
                0x0000000014102d40       0x1c /home/jongja.cho/Git/legacy/rebel_cds_collab_hw/bootloader/cp/tf-a/build/rebel_h/debug/bl31/spe.o
                0x0000000014102d40                spe_disable_secure
 .text.sve_init_el3
                0x0000000014102d5c        0xc /home/jongja.cho/Git/legacy/rebel_cds_collab_hw/bootloader/cp/tf-a/build/rebel_h/debug/bl31/sve.o
                0x0000000014102d5c                sve_init_el3
 .text.sve_enable_per_world
                0x0000000014102d68       0x10 /home/jongja.cho/Git/legacy/rebel_cds_collab_hw/bootloader/cp/tf-a/build/rebel_h/debug/bl31/sve.o
                0x0000000014102d68                sve_enable_per_world
 .text.sve_disable_per_world
                0x0000000014102d78       0x14 /home/jongja.cho/Git/legacy/rebel_cds_collab_hw/bootloader/cp/tf-a/build/rebel_h/debug/bl31/sve.o
                0x0000000014102d78                sve_disable_per_world
 .text.bakery_lock_get
                0x0000000014102d8c       0xd4 /home/jongja.cho/Git/legacy/rebel_cds_collab_hw/bootloader/cp/tf-a/build/rebel_h/debug/bl31/bakery_lock_coherent.o
                0x0000000014102d8c                bakery_lock_get
 .text.bakery_lock_release
                0x0000000014102e60       0x50 /home/jongja.cho/Git/legacy/rebel_cds_collab_hw/bootloader/cp/tf-a/build/rebel_h/debug/bl31/bakery_lock_coherent.o
                0x0000000014102e60                bakery_lock_release
 .text.per_cpu_by_index_compute
                0x0000000014102eb0       0x30 /home/jongja.cho/Git/legacy/rebel_cds_collab_hw/bootloader/cp/tf-a/build/rebel_h/debug/bl31/per_cpu.o
                0x0000000014102eb0                per_cpu_by_index_compute
 .text.per_cpu_cur_compute
                0x0000000014102ee0       0x18 /home/jongja.cho/Git/legacy/rebel_cds_collab_hw/bootloader/cp/tf-a/build/rebel_h/debug/bl31/per_cpu.o
                0x0000000014102ee0                per_cpu_cur_compute
 .text.psci_validate_power_state
                0x0000000014102ef8       0x38 /home/jongja.cho/Git/legacy/rebel_cds_collab_hw/bootloader/cp/tf-a/build/rebel_h/debug/bl31/psci_common.o
                0x0000000014102ef8                psci_validate_power_state
 .text.psci_query_sys_suspend_pwrstate
                0x0000000014102f30       0x24 /home/jongja.cho/Git/legacy/rebel_cds_collab_hw/bootloader/cp/tf-a/build/rebel_h/debug/bl31/psci_common.o
                0x0000000014102f30                psci_query_sys_suspend_pwrstate
 .text.psci_is_last_on_cpu
                0x0000000014102f54       0x88 /home/jongja.cho/Git/legacy/rebel_cds_collab_hw/bootloader/cp/tf-a/build/rebel_h/debug/bl31/psci_common.o
                0x0000000014102f54                psci_is_last_on_cpu
 .text.psci_init_req_local_pwr_states
                0x0000000014102fdc       0x30 /home/jongja.cho/Git/legacy/rebel_cds_collab_hw/bootloader/cp/tf-a/build/rebel_h/debug/bl31/psci_common.o
                0x0000000014102fdc                psci_init_req_local_pwr_states
 .text.psci_get_target_local_pwr_states
                0x000000001410300c       0x8c /home/jongja.cho/Git/legacy/rebel_cds_collab_hw/bootloader/cp/tf-a/build/rebel_h/debug/bl31/psci_common.o
                0x000000001410300c                psci_get_target_local_pwr_states
 .text.psci_set_target_local_pwr_states
                0x0000000014103098       0xa0 /home/jongja.cho/Git/legacy/rebel_cds_collab_hw/bootloader/cp/tf-a/build/rebel_h/debug/bl31/psci_common.o
                0x0000000014103098                psci_set_target_local_pwr_states
 .text.psci_get_parent_pwr_domain_nodes
                0x0000000014103138       0x5c /home/jongja.cho/Git/legacy/rebel_cds_collab_hw/bootloader/cp/tf-a/build/rebel_h/debug/bl31/psci_common.o
                0x0000000014103138                psci_get_parent_pwr_domain_nodes
 .text.psci_set_pwr_domains_to_run
                0x0000000014103194       0xc0 /home/jongja.cho/Git/legacy/rebel_cds_collab_hw/bootloader/cp/tf-a/build/rebel_h/debug/bl31/psci_common.o
                0x0000000014103194                psci_set_pwr_domains_to_run
 .text.psci_do_state_coordination
                0x0000000014103254       0xa4 /home/jongja.cho/Git/legacy/rebel_cds_collab_hw/bootloader/cp/tf-a/build/rebel_h/debug/bl31/psci_common.o
                0x0000000014103254                psci_do_state_coordination
 .text.psci_find_max_off_lvl
                0x00000000141032f8       0x2c /home/jongja.cho/Git/legacy/rebel_cds_collab_hw/bootloader/cp/tf-a/build/rebel_h/debug/bl31/psci_common.o
                0x00000000141032f8                psci_find_max_off_lvl
 .text.psci_find_target_suspend_lvl
                0x0000000014103324       0x24 /home/jongja.cho/Git/legacy/rebel_cds_collab_hw/bootloader/cp/tf-a/build/rebel_h/debug/bl31/psci_common.o
                0x0000000014103324                psci_find_target_suspend_lvl
 .text.psci_validate_suspend_req
                0x0000000014103348       0x9c /home/jongja.cho/Git/legacy/rebel_cds_collab_hw/bootloader/cp/tf-a/build/rebel_h/debug/bl31/psci_common.o
                0x0000000014103348                psci_validate_suspend_req
 .text.psci_acquire_pwr_domain_locks
                0x00000000141033e4       0x6c /home/jongja.cho/Git/legacy/rebel_cds_collab_hw/bootloader/cp/tf-a/build/rebel_h/debug/bl31/psci_common.o
                0x00000000141033e4                psci_acquire_pwr_domain_locks
 .text.psci_release_pwr_domain_locks
                0x0000000014103450       0x58 /home/jongja.cho/Git/legacy/rebel_cds_collab_hw/bootloader/cp/tf-a/build/rebel_h/debug/bl31/psci_common.o
                0x0000000014103450                psci_release_pwr_domain_locks
 .text.psci_validate_entry_point
                0x00000000141034a8       0xf4 /home/jongja.cho/Git/legacy/rebel_cds_collab_hw/bootloader/cp/tf-a/build/rebel_h/debug/bl31/psci_common.o
                0x00000000141034a8                psci_validate_entry_point
 .text.psci_warmboot_entrypoint
                0x000000001410359c      0x118 /home/jongja.cho/Git/legacy/rebel_cds_collab_hw/bootloader/cp/tf-a/build/rebel_h/debug/bl31/psci_common.o
                0x000000001410359c                psci_warmboot_entrypoint
 .text.psci_spd_migrate_info
                0x00000000141036b4       0x40 /home/jongja.cho/Git/legacy/rebel_cds_collab_hw/bootloader/cp/tf-a/build/rebel_h/debug/bl31/psci_common.o
                0x00000000141036b4                psci_spd_migrate_info
 .text.psci_print_power_domain_map
                0x00000000141036f4        0x4 /home/jongja.cho/Git/legacy/rebel_cds_collab_hw/bootloader/cp/tf-a/build/rebel_h/debug/bl31/psci_common.o
                0x00000000141036f4                psci_print_power_domain_map
 .text.psci_pwrdown_cpu_start
                0x00000000141036f8       0x50 /home/jongja.cho/Git/legacy/rebel_cds_collab_hw/bootloader/cp/tf-a/build/rebel_h/debug/bl31/psci_common.o
                0x00000000141036f8                psci_pwrdown_cpu_start
 .text.psci_pwrdown_cpu_end_terminal
                0x0000000014103748       0x3c /home/jongja.cho/Git/legacy/rebel_cds_collab_hw/bootloader/cp/tf-a/build/rebel_h/debug/bl31/psci_common.o
                0x0000000014103748                psci_pwrdown_cpu_end_terminal
 .text.psci_pwrdown_cpu_end_wakeup
                0x0000000014103784       0x30 /home/jongja.cho/Git/legacy/rebel_cds_collab_hw/bootloader/cp/tf-a/build/rebel_h/debug/bl31/psci_common.o
                0x0000000014103784                psci_pwrdown_cpu_end_wakeup
 .text.is_valid_mpidr
                0x00000000141037b4       0x1c /home/jongja.cho/Git/legacy/rebel_cds_collab_hw/bootloader/cp/tf-a/build/rebel_h/debug/bl31/psci_main.o
 .text.psci_cpu_on
                0x00000000141037d0       0x84 /home/jongja.cho/Git/legacy/rebel_cds_collab_hw/bootloader/cp/tf-a/build/rebel_h/debug/bl31/psci_main.o
                0x00000000141037d0                psci_cpu_on
 .text.psci_cpu_suspend
                0x0000000014103854      0x144 /home/jongja.cho/Git/legacy/rebel_cds_collab_hw/bootloader/cp/tf-a/build/rebel_h/debug/bl31/psci_main.o
                0x0000000014103854                psci_cpu_suspend
 .text.psci_system_suspend
                0x0000000014103998       0xb0 /home/jongja.cho/Git/legacy/rebel_cds_collab_hw/bootloader/cp/tf-a/build/rebel_h/debug/bl31/psci_main.o
                0x0000000014103998                psci_system_suspend
 .text.psci_cpu_off
                0x0000000014103a48       0x24 /home/jongja.cho/Git/legacy/rebel_cds_collab_hw/bootloader/cp/tf-a/build/rebel_h/debug/bl31/psci_main.o
                0x0000000014103a48                psci_cpu_off
 .text.psci_affinity_info
                0x0000000014103a6c       0x6c /home/jongja.cho/Git/legacy/rebel_cds_collab_hw/bootloader/cp/tf-a/build/rebel_h/debug/bl31/psci_main.o
                0x0000000014103a6c                psci_affinity_info
 .text.psci_migrate
                0x0000000014103ad8       0xa0 /home/jongja.cho/Git/legacy/rebel_cds_collab_hw/bootloader/cp/tf-a/build/rebel_h/debug/bl31/psci_main.o
                0x0000000014103ad8                psci_migrate
 .text.psci_migrate_info_type
                0x0000000014103b78       0x1c /home/jongja.cho/Git/legacy/rebel_cds_collab_hw/bootloader/cp/tf-a/build/rebel_h/debug/bl31/psci_main.o
                0x0000000014103b78                psci_migrate_info_type
 .text.psci_migrate_info_up_cpu
                0x0000000014103b94       0x2c /home/jongja.cho/Git/legacy/rebel_cds_collab_hw/bootloader/cp/tf-a/build/rebel_h/debug/bl31/psci_main.o
                0x0000000014103b94                psci_migrate_info_up_cpu
 .text.psci_node_hw_state
                0x0000000014103bc0       0x68 /home/jongja.cho/Git/legacy/rebel_cds_collab_hw/bootloader/cp/tf-a/build/rebel_h/debug/bl31/psci_main.o
                0x0000000014103bc0                psci_node_hw_state
 .text.psci_features
                0x0000000014103c28       0x64 /home/jongja.cho/Git/legacy/rebel_cds_collab_hw/bootloader/cp/tf-a/build/rebel_h/debug/bl31/psci_main.o
                0x0000000014103c28                psci_features
 .text.psci_smc_handler
                0x0000000014103c8c      0x15c /home/jongja.cho/Git/legacy/rebel_cds_collab_hw/bootloader/cp/tf-a/build/rebel_h/debug/bl31/psci_main.o
                0x0000000014103c8c                psci_smc_handler
 .text.psci_mem_protect
                0x0000000014103de8       0x70 /home/jongja.cho/Git/legacy/rebel_cds_collab_hw/bootloader/cp/tf-a/build/rebel_h/debug/bl31/psci_mem_protect.o
                0x0000000014103de8                psci_mem_protect
 .text.psci_mem_chk_range
                0x0000000014103e58       0x48 /home/jongja.cho/Git/legacy/rebel_cds_collab_hw/bootloader/cp/tf-a/build/rebel_h/debug/bl31/psci_mem_protect.o
                0x0000000014103e58                psci_mem_chk_range
 .text.psci_do_cpu_off
                0x0000000014103ea0      0x158 /home/jongja.cho/Git/legacy/rebel_cds_collab_hw/bootloader/cp/tf-a/build/rebel_h/debug/bl31/psci_off.o
                0x0000000014103ea0                psci_do_cpu_off
 .text.psci_cpu_on_start
                0x0000000014103ff8      0x1c4 /home/jongja.cho/Git/legacy/rebel_cds_collab_hw/bootloader/cp/tf-a/build/rebel_h/debug/bl31/psci_on.o
                0x0000000014103ff8                psci_cpu_on_start
 .text.psci_cpu_on_finish
                0x00000000141041bc      0x100 /home/jongja.cho/Git/legacy/rebel_cds_collab_hw/bootloader/cp/tf-a/build/rebel_h/debug/bl31/psci_on.o
                0x00000000141041bc                psci_cpu_on_finish
 .text.psci_arch_setup
                0x00000000141042bc       0x24 /home/jongja.cho/Git/legacy/rebel_cds_collab_hw/bootloader/cp/tf-a/build/rebel_h/debug/bl31/psci_setup.o
                0x00000000141042bc                psci_arch_setup
 .text.psci_setup
                0x00000000141042e0      0x3e4 /home/jongja.cho/Git/legacy/rebel_cds_collab_hw/bootloader/cp/tf-a/build/rebel_h/debug/bl31/psci_setup.o
                0x00000000141042e0                psci_setup
 .text.psci_cpu_suspend_to_powerdown_finish
                0x00000000141046c4       0xd4 /home/jongja.cho/Git/legacy/rebel_cds_collab_hw/bootloader/cp/tf-a/build/rebel_h/debug/bl31/psci_suspend.o
                0x00000000141046c4                psci_cpu_suspend_to_powerdown_finish
 .text.psci_cpu_suspend_start
                0x0000000014104798      0x1fc /home/jongja.cho/Git/legacy/rebel_cds_collab_hw/bootloader/cp/tf-a/build/rebel_h/debug/bl31/psci_suspend.o
                0x0000000014104798                psci_cpu_suspend_start
 .text.psci_system_off
                0x0000000014104994       0x50 /home/jongja.cho/Git/legacy/rebel_cds_collab_hw/bootloader/cp/tf-a/build/rebel_h/debug/bl31/psci_system_off.o
                0x0000000014104994                psci_system_off
 .text.psci_system_reset
                0x00000000141049e4       0x50 /home/jongja.cho/Git/legacy/rebel_cds_collab_hw/bootloader/cp/tf-a/build/rebel_h/debug/bl31/psci_system_off.o
                0x00000000141049e4                psci_system_reset
 .text.psci_system_reset2
                0x0000000014104a34       0xb4 /home/jongja.cho/Git/legacy/rebel_cds_collab_hw/bootloader/cp/tf-a/build/rebel_h/debug/bl31/psci_system_off.o
                0x0000000014104a34                psci_system_reset2
 .text.touch_dummy_mmu_cfg
                0x0000000014104ae8        0x8 /home/jongja.cho/Git/legacy/rebel_cds_collab_hw/bootloader/cp/tf-a/build/rebel_h/debug/bl31/xlat_tables_arch.o
                0x0000000014104ae8                touch_dummy_mmu_cfg
 .text.touch_dummy_mmu_cfg_el3
                0x0000000014104af0       0x14 /home/jongja.cho/Git/legacy/rebel_cds_collab_hw/bootloader/cp/tf-a/build/rebel_h/debug/bl31/xlat_tables_context.o
                0x0000000014104af0                touch_dummy_mmu_cfg_el3
 .text.arm_gicv3_mpidr_hash
                0x0000000014104b04       0x10 /home/jongja.cho/Git/legacy/rebel_cds_collab_hw/bootloader/cp/tf-a/build/rebel_h/debug/bl31/arm_gicv3.o
 .text.plat_arm_gic_driver_init
                0x0000000014104b14       0x50 /home/jongja.cho/Git/legacy/rebel_cds_collab_hw/bootloader/cp/tf-a/build/rebel_h/debug/bl31/arm_gicv3.o
                0x0000000014104b14                plat_arm_gic_driver_init
 .text.plat_arm_gic_init
                0x0000000014104b64       0x20 /home/jongja.cho/Git/legacy/rebel_cds_collab_hw/bootloader/cp/tf-a/build/rebel_h/debug/bl31/arm_gicv3.o
                0x0000000014104b64                plat_arm_gic_init
 .text.plat_arm_gic_cpuif_enable
                0x0000000014104b84       0x14 /home/jongja.cho/Git/legacy/rebel_cds_collab_hw/bootloader/cp/tf-a/build/rebel_h/debug/bl31/arm_gicv3.o
                0x0000000014104b84                plat_arm_gic_cpuif_enable
 .text.plat_arm_gic_cpuif_disable
                0x0000000014104b98       0x14 /home/jongja.cho/Git/legacy/rebel_cds_collab_hw/bootloader/cp/tf-a/build/rebel_h/debug/bl31/arm_gicv3.o
                0x0000000014104b98                plat_arm_gic_cpuif_disable
 .text.plat_arm_gic_pcpu_init
                0x0000000014104bac       0x64 /home/jongja.cho/Git/legacy/rebel_cds_collab_hw/bootloader/cp/tf-a/build/rebel_h/debug/bl31/arm_gicv3.o
                0x0000000014104bac                plat_arm_gic_pcpu_init
 .text.bl31_plat_runtime_setup
                0x0000000014104c10        0x4 /home/jongja.cho/Git/legacy/rebel_cds_collab_hw/bootloader/cp/tf-a/build/rebel_h/debug/bl31/plat_common.o
                0x0000000014104c10                bl31_plat_runtime_setup
 .text.get_el_str
                0x0000000014104c14       0x24 /home/jongja.cho/Git/legacy/rebel_cds_collab_hw/bootloader/cp/tf-a/build/rebel_h/debug/bl31/plat_common.o
                0x0000000014104c14                get_el_str
 .text.plat_get_soc_version
                0x0000000014104c38        0x8 /home/jongja.cho/Git/legacy/rebel_cds_collab_hw/bootloader/cp/tf-a/build/rebel_h/debug/bl31/plat_bl_common.o
                0x0000000014104c38                plat_get_soc_version
 .text.plat_get_soc_revision
                0x0000000014104c40        0x8 /home/jongja.cho/Git/legacy/rebel_cds_collab_hw/bootloader/cp/tf-a/build/rebel_h/debug/bl31/plat_bl_common.o
                0x0000000014104c40                plat_get_soc_revision
 .text.plat_get_soc_name
                0x0000000014104c48        0x8 /home/jongja.cho/Git/legacy/rebel_cds_collab_hw/bootloader/cp/tf-a/build/rebel_h/debug/bl31/plat_bl_common.o
                0x0000000014104c48                plat_get_soc_name
 .text.plat_is_smccc_feature_available
                0x0000000014104c50        0x8 /home/jongja.cho/Git/legacy/rebel_cds_collab_hw/bootloader/cp/tf-a/build/rebel_h/debug/bl31/plat_bl_common.o
                0x0000000014104c50                plat_is_smccc_feature_available
 .text.plat_ic_get_pending_interrupt_type
                0x0000000014104c58       0x48 /home/jongja.cho/Git/legacy/rebel_cds_collab_hw/bootloader/cp/tf-a/build/rebel_h/debug/bl31/plat_gicv3.o
                0x0000000014104c58                plat_ic_get_pending_interrupt_type
 .text.plat_ic_has_interrupt_type
                0x0000000014104ca0        0xc /home/jongja.cho/Git/legacy/rebel_cds_collab_hw/bootloader/cp/tf-a/build/rebel_h/debug/bl31/plat_gicv3.o
                0x0000000014104ca0                plat_ic_has_interrupt_type
 .text.plat_log_get_prefix
                0x0000000014104cac       0x30 /home/jongja.cho/Git/legacy/rebel_cds_collab_hw/bootloader/cp/tf-a/build/rebel_h/debug/bl31/plat_log_common.o
                0x0000000014104cac                plat_log_get_prefix
 .text.plat_get_target_pwr_state
                0x0000000014104cdc       0x38 /home/jongja.cho/Git/legacy/rebel_cds_collab_hw/bootloader/cp/tf-a/build/rebel_h/debug/bl31/plat_psci_common.o
                0x0000000014104cdc                plat_get_target_pwr_state
 .text.rebel_sip_smc_handler
                0x0000000014104d14       0x18 /home/jongja.cho/Git/legacy/rebel_cds_collab_hw/bootloader/cp/tf-a/build/rebel_h/debug/bl31/rebel_sip_svc.o
                0x0000000014104d14                rebel_sip_smc_handler
 .text.bl31_early_platform_setup2
                0x0000000014104d2c      0x110 /home/jongja.cho/Git/legacy/rebel_cds_collab_hw/bootloader/cp/tf-a/build/rebel_h/debug/bl31/rebel_h_bl31_setup.o
                0x0000000014104d2c                bl31_early_platform_setup2
 .text.bl31_plat_arch_setup
                0x0000000014104e3c        0x4 /home/jongja.cho/Git/legacy/rebel_cds_collab_hw/bootloader/cp/tf-a/build/rebel_h/debug/bl31/rebel_h_bl31_setup.o
                0x0000000014104e3c                bl31_plat_arch_setup
 .text.tzpc_init_sysreg
                0x0000000014104e40      0x2e8 /home/jongja.cho/Git/legacy/rebel_cds_collab_hw/bootloader/cp/tf-a/build/rebel_h/debug/bl31/rebel_h_bl31_setup.o
                0x0000000014104e40                tzpc_init_sysreg
 .text.tzpc_init_gpio
                0x0000000014105128      0x158 /home/jongja.cho/Git/legacy/rebel_cds_collab_hw/bootloader/cp/tf-a/build/rebel_h/debug/bl31/rebel_h_bl31_setup.o
                0x0000000014105128                tzpc_init_gpio
 .text.bl31_platform_setup
                0x0000000014105280       0x44 /home/jongja.cho/Git/legacy/rebel_cds_collab_hw/bootloader/cp/tf-a/build/rebel_h/debug/bl31/rebel_h_bl31_setup.o
                0x0000000014105280                bl31_platform_setup
 .text.bl31_plat_get_next_image_ep_info
                0x00000000141052c4       0x14 /home/jongja.cho/Git/legacy/rebel_cds_collab_hw/bootloader/cp/tf-a/build/rebel_h/debug/bl31/rebel_h_bl31_setup.o
                0x00000000141052c4                bl31_plat_get_next_image_ep_info
 .text.plat_get_syscnt_freq2
                0x00000000141052d8        0xc /home/jongja.cho/Git/legacy/rebel_cds_collab_hw/bootloader/cp/tf-a/build/rebel_h/debug/bl31/rebel_h_bl31_setup.o
                0x00000000141052d8                plat_get_syscnt_freq2
 .text.rebel_h_validate_power_state
                0x00000000141052e4        0x8 /home/jongja.cho/Git/legacy/rebel_cds_collab_hw/bootloader/cp/tf-a/build/rebel_h/debug/bl31/rebel_h_pm.o
 .text.rebel_h_cpu_standby
                0x00000000141052ec        0x4 /home/jongja.cho/Git/legacy/rebel_cds_collab_hw/bootloader/cp/tf-a/build/rebel_h/debug/bl31/rebel_h_pm.o
 .text.rebel_h_pwr_domain_on_finish
                0x00000000141052f0        0x4 /home/jongja.cho/Git/legacy/rebel_cds_collab_hw/bootloader/cp/tf-a/build/rebel_h/debug/bl31/rebel_h_pm.o
 .text.rebel_h_pwr_domain_on_finish_late
                0x00000000141052f4       0x14 /home/jongja.cho/Git/legacy/rebel_cds_collab_hw/bootloader/cp/tf-a/build/rebel_h/debug/bl31/rebel_h_pm.o
 .text.rebel_h_pwr_domain_off
                0x0000000014105308       0x3c /home/jongja.cho/Git/legacy/rebel_cds_collab_hw/bootloader/cp/tf-a/build/rebel_h/debug/bl31/rebel_h_pm.o
 .text.rebel_h_pwr_domain_on
                0x0000000014105344       0x74 /home/jongja.cho/Git/legacy/rebel_cds_collab_hw/bootloader/cp/tf-a/build/rebel_h/debug/bl31/rebel_h_pm.o
 .text.plat_setup_psci_ops
                0x00000000141053b8       0x1c /home/jongja.cho/Git/legacy/rebel_cds_collab_hw/bootloader/cp/tf-a/build/rebel_h/debug/bl31/rebel_h_pm.o
                0x00000000141053b8                plat_setup_psci_ops
 .text.pmu_get_bootreason_str
                0x00000000141053d4       0xdc /home/jongja.cho/Git/legacy/rebel_cds_collab_hw/bootloader/cp/tf-a/build/rebel_h/debug/bl31/rebel_h_pmu.o
                0x00000000141053d4                pmu_get_bootreason_str
 .text.pmu_get_bootreason
                0x00000000141054b0       0x14 /home/jongja.cho/Git/legacy/rebel_cds_collab_hw/bootloader/cp/tf-a/build/rebel_h/debug/bl31/rebel_h_pmu.o
                0x00000000141054b0                pmu_get_bootreason
 .text.rebel_plat_sip_handler
                0x00000000141054c4       0xc4 /home/jongja.cho/Git/legacy/rebel_cds_collab_hw/bootloader/cp/tf-a/build/rebel_h/debug/bl31/rebel_h_sip_svc.o
                0x00000000141054c4                rebel_plat_sip_handler
 .text.plat_get_power_domain_tree_desc
                0x0000000014105588        0xc /home/jongja.cho/Git/legacy/rebel_cds_collab_hw/bootloader/cp/tf-a/build/rebel_h/debug/bl31/rebel_h_topology.o
                0x0000000014105588                plat_get_power_domain_tree_desc
 .text.plat_core_pos_by_mpidr
                0x0000000014105594       0x3c /home/jongja.cho/Git/legacy/rebel_cds_collab_hw/bootloader/cp/tf-a/build/rebel_h/debug/bl31/rebel_h_topology.o
                0x0000000014105594                plat_core_pos_by_mpidr
 .text.arm_arch_svc_smc_handler
                0x00000000141055d0      0x244 /home/jongja.cho/Git/legacy/rebel_cds_collab_hw/bootloader/cp/tf-a/build/rebel_h/debug/bl31/arm_arch_svc_setup.o
 .text.std_svc_smc_handler
                0x0000000014105814       0xb8 /home/jongja.cho/Git/legacy/rebel_cds_collab_hw/bootloader/cp/tf-a/build/rebel_h/debug/bl31/std_svc_setup.o
 .text.std_svc_setup
                0x00000000141058cc       0x2c /home/jongja.cho/Git/legacy/rebel_cds_collab_hw/bootloader/cp/tf-a/build/rebel_h/debug/bl31/std_svc_setup.o
 .text.asm.size_controlled_print_helper
                0x00000000141058f8       0x4c /home/jongja.cho/Git/legacy/rebel_cds_collab_hw/bootloader/cp/tf-a/build/rebel_h/debug/bl31/crash_reporting.o
 .text.asm.print_alignment
                0x0000000014105944        0xc /home/jongja.cho/Git/legacy/rebel_cds_collab_hw/bootloader/cp/tf-a/build/rebel_h/debug/bl31/crash_reporting.o
 .text.asm.str_in_crash_buf_print
                0x0000000014105950       0x18 /home/jongja.cho/Git/legacy/rebel_cds_collab_hw/bootloader/cp/tf-a/build/rebel_h/debug/bl31/crash_reporting.o
 .text.asm.report_unhandled_exception
                0x0000000014105968       0x40 /home/jongja.cho/Git/legacy/rebel_cds_collab_hw/bootloader/cp/tf-a/build/rebel_h/debug/bl31/crash_reporting.o
                0x0000000014105968                report_unhandled_exception
 .text.asm.report_unhandled_interrupt
                0x00000000141059a8       0x40 /home/jongja.cho/Git/legacy/rebel_cds_collab_hw/bootloader/cp/tf-a/build/rebel_h/debug/bl31/crash_reporting.o
                0x00000000141059a8                report_unhandled_interrupt
 .text.asm.report_elx_panic
                0x00000000141059e8       0xc0 /home/jongja.cho/Git/legacy/rebel_cds_collab_hw/bootloader/cp/tf-a/build/rebel_h/debug/bl31/crash_reporting.o
                0x00000000141059e8                report_elx_panic
 .text.asm.report_el3_panic
                0x0000000014105aa8      0x128 /home/jongja.cho/Git/legacy/rebel_cds_collab_hw/bootloader/cp/tf-a/build/rebel_h/debug/bl31/crash_reporting.o
                0x0000000014105aa8                report_el3_panic
 .text.asm.crash_panic
                0x0000000014105bd0        0x8 /home/jongja.cho/Git/legacy/rebel_cds_collab_hw/bootloader/cp/tf-a/build/rebel_h/debug/bl31/crash_reporting.o
 .text.asm.sync_exception_handler
                0x0000000014105bd8      0x110 /home/jongja.cho/Git/legacy/rebel_cds_collab_hw/bootloader/cp/tf-a/build/rebel_h/debug/bl31/runtime_exceptions.o
 .text.asm.handle_interrupt_exception
                0x0000000014105ce8       0x54 /home/jongja.cho/Git/legacy/rebel_cds_collab_hw/bootloader/cp/tf-a/build/rebel_h/debug/bl31/runtime_exceptions.o
 .text.asm.imp_def_el3_handler
                0x0000000014105d3c       0x3c /home/jongja.cho/Git/legacy/rebel_cds_collab_hw/bootloader/cp/tf-a/build/rebel_h/debug/bl31/runtime_exceptions.o
 .text.asm.reflect_pending_async_ea_to_lower_el
                0x0000000014105d78       0x80 /home/jongja.cho/Git/legacy/rebel_cds_collab_hw/bootloader/cp/tf-a/build/rebel_h/debug/bl31/runtime_exceptions.o
 .text.asm.asm_assert
                0x0000000014105df8        0x8 /home/jongja.cho/Git/legacy/rebel_cds_collab_hw/bootloader/cp/tf-a/build/rebel_h/debug/bl31/debug.o
                0x0000000014105df8                asm_assert
 .text.asm.asm_print_str
                0x0000000014105e00       0x18 /home/jongja.cho/Git/legacy/rebel_cds_collab_hw/bootloader/cp/tf-a/build/rebel_h/debug/bl31/debug.o
                0x0000000014105e00                asm_print_str
 .text.asm.asm_print_hex
                0x0000000014105e18       0x30 /home/jongja.cho/Git/legacy/rebel_cds_collab_hw/bootloader/cp/tf-a/build/rebel_h/debug/bl31/debug.o
                0x0000000014105e18                asm_print_hex
                0x0000000014105e1c                asm_print_hex_bits
 .text.asm.asm_print_newline
                0x0000000014105e48        0x8 /home/jongja.cho/Git/legacy/rebel_cds_collab_hw/bootloader/cp/tf-a/build/rebel_h/debug/bl31/debug.o
                0x0000000014105e48                asm_print_newline
 .text.asm.elx_panic
                0x0000000014105e50        0x8 /home/jongja.cho/Git/legacy/rebel_cds_collab_hw/bootloader/cp/tf-a/build/rebel_h/debug/bl31/debug.o
                0x0000000014105e50                elx_panic
 .text.asm.el3_panic
                0x0000000014105e58       0x34 /home/jongja.cho/Git/legacy/rebel_cds_collab_hw/bootloader/cp/tf-a/build/rebel_h/debug/bl31/debug.o
                0x0000000014105e58                el3_panic
 .text.asm.console_16550_core_init
                0x0000000014105e8c       0x70 /home/jongja.cho/Git/legacy/rebel_cds_collab_hw/bootloader/cp/tf-a/build/rebel_h/debug/bl31/16550_console.o
                0x0000000014105e8c                console_16550_core_init
 .text.asm.console_16550_register
                0x0000000014105efc       0x4c /home/jongja.cho/Git/legacy/rebel_cds_collab_hw/bootloader/cp/tf-a/build/rebel_h/debug/bl31/16550_console.o
                0x0000000014105efc                console_16550_register
 .text.asm.console_16550_core_putc
                0x0000000014105f48       0x4c /home/jongja.cho/Git/legacy/rebel_cds_collab_hw/bootloader/cp/tf-a/build/rebel_h/debug/bl31/16550_console.o
                0x0000000014105f48                console_16550_core_putc
 .text.asm.console_16550_putc
                0x0000000014105f94       0x1c /home/jongja.cho/Git/legacy/rebel_cds_collab_hw/bootloader/cp/tf-a/build/rebel_h/debug/bl31/16550_console.o
                0x0000000014105f94                console_16550_putc
 .text.asm.console_16550_core_flush
                0x0000000014105fb0       0x28 /home/jongja.cho/Git/legacy/rebel_cds_collab_hw/bootloader/cp/tf-a/build/rebel_h/debug/bl31/16550_console.o
                0x0000000014105fb0                console_16550_core_flush
 .text.asm.console_16550_flush
                0x0000000014105fd8       0x1c /home/jongja.cho/Git/legacy/rebel_cds_collab_hw/bootloader/cp/tf-a/build/rebel_h/debug/bl31/16550_console.o
                0x0000000014105fd8                console_16550_flush
 .text.asm.flush_dcache_range
                0x0000000014105ff4       0x38 /home/jongja.cho/Git/legacy/rebel_cds_collab_hw/bootloader/cp/tf-a/build/rebel_h/debug/bl31/cache_helpers.o
                0x0000000014105ff4                flush_dcache_range
 .text.asm.clean_dcache_range
                0x000000001410602c       0x38 /home/jongja.cho/Git/legacy/rebel_cds_collab_hw/bootloader/cp/tf-a/build/rebel_h/debug/bl31/cache_helpers.o
                0x000000001410602c                clean_dcache_range
 .text.asm.inv_dcache_range
                0x0000000014106064       0x38 /home/jongja.cho/Git/legacy/rebel_cds_collab_hw/bootloader/cp/tf-a/build/rebel_h/debug/bl31/cache_helpers.o
                0x0000000014106064                inv_dcache_range
 .text.asm.do_dcsw_op
                0x000000001410609c       0xfc /home/jongja.cho/Git/legacy/rebel_cds_collab_hw/bootloader/cp/tf-a/build/rebel_h/debug/bl31/cache_helpers.o
 .text.asm.dcsw_op_level1
                0x0000000014106198       0x10 /home/jongja.cho/Git/legacy/rebel_cds_collab_hw/bootloader/cp/tf-a/build/rebel_h/debug/bl31/cache_helpers.o
                0x0000000014106198                dcsw_op_level1
 .text.asm.dcsw_op_level2
                0x00000000141061a8       0x10 /home/jongja.cho/Git/legacy/rebel_cds_collab_hw/bootloader/cp/tf-a/build/rebel_h/debug/bl31/cache_helpers.o
                0x00000000141061a8                dcsw_op_level2
 .text.asm.zeromem
                0x00000000141061b8        0x8 /home/jongja.cho/Git/legacy/rebel_cds_collab_hw/bootloader/cp/tf-a/build/rebel_h/debug/bl31/misc_helpers.o
                0x00000000141061b8                zeromem
 .text.asm.zeromem_dczva
                0x00000000141061c0      0x114 /home/jongja.cho/Git/legacy/rebel_cds_collab_hw/bootloader/cp/tf-a/build/rebel_h/debug/bl31/misc_helpers.o
                0x00000000141061c0                zero_normalmem
 .text.asm.cortex_a73_reset_func
                0x00000000141062d4       0x9c /home/jongja.cho/Git/legacy/rebel_cds_collab_hw/bootloader/cp/tf-a/build/rebel_h/debug/bl31/cortex_a73.o
 .text.asm.cortex_a73_disable_smp
                0x0000000014106370       0x18 /home/jongja.cho/Git/legacy/rebel_cds_collab_hw/bootloader/cp/tf-a/build/rebel_h/debug/bl31/cortex_a73.o
 .text.asm.check_erratum_cortex_a73_3
                0x0000000014106388        0x8 /home/jongja.cho/Git/legacy/rebel_cds_collab_hw/bootloader/cp/tf-a/build/rebel_h/debug/bl31/cortex_a73.o
 .text.asm.check_erratum_cortex_a73_852427
                0x0000000014106390        0xc /home/jongja.cho/Git/legacy/rebel_cds_collab_hw/bootloader/cp/tf-a/build/rebel_h/debug/bl31/cortex_a73.o
 .text.asm.check_erratum_cortex_a73_855423
                0x000000001410639c        0xc /home/jongja.cho/Git/legacy/rebel_cds_collab_hw/bootloader/cp/tf-a/build/rebel_h/debug/bl31/cortex_a73.o
 .text.asm.check_erratum_cortex_a73_5715
                0x00000000141063a8       0x34 /home/jongja.cho/Git/legacy/rebel_cds_collab_hw/bootloader/cp/tf-a/build/rebel_h/debug/bl31/cortex_a73.o
 .text.asm.check_erratum_cortex_a73_3639
                0x00000000141063dc        0x8 /home/jongja.cho/Git/legacy/rebel_cds_collab_hw/bootloader/cp/tf-a/build/rebel_h/debug/bl31/cortex_a73.o
 .text.asm.check_erratum_cortex_a73_23960
                0x00000000141063e4       0x3c /home/jongja.cho/Git/legacy/rebel_cds_collab_hw/bootloader/cp/tf-a/build/rebel_h/debug/bl31/cortex_a73.o
 .text.asm.cortex_a73_core_pwr_dwn
                0x0000000014106420       0x14 /home/jongja.cho/Git/legacy/rebel_cds_collab_hw/bootloader/cp/tf-a/build/rebel_h/debug/bl31/cortex_a73.o
 .text.asm.cortex_a73_cluster_pwr_dwn
                0x0000000014106434       0x20 /home/jongja.cho/Git/legacy/rebel_cds_collab_hw/bootloader/cp/tf-a/build/rebel_h/debug/bl31/cortex_a73.o
 .text.asm.cortex_a73_cpu_reg_dump
                0x0000000014106454       0x10 /home/jongja.cho/Git/legacy/rebel_cds_collab_hw/bootloader/cp/tf-a/build/rebel_h/debug/bl31/cortex_a73.o
 .text.asm.do_cpu_reg_dump
                0x0000000014106464       0x20 /home/jongja.cho/Git/legacy/rebel_cds_collab_hw/bootloader/cp/tf-a/build/rebel_h/debug/bl31/cpu_helpers.o
                0x0000000014106464                do_cpu_reg_dump
 .text.asm.get_cpu_ops_ptr
                0x0000000014106484       0x70 /home/jongja.cho/Git/legacy/rebel_cds_collab_hw/bootloader/cp/tf-a/build/rebel_h/debug/bl31/cpu_helpers.o
                0x0000000014106484                get_cpu_ops_ptr
 .text.asm.cpu_get_rev_var
                0x00000000141064f4       0x10 /home/jongja.cho/Git/legacy/rebel_cds_collab_hw/bootloader/cp/tf-a/build/rebel_h/debug/bl31/cpu_helpers.o
                0x00000000141064f4                cpu_get_rev_var
 .text.asm.bpiall_ret_sync_exception_aarch32_tail
                0x0000000014106504        0x8 /home/jongja.cho/Git/legacy/rebel_cds_collab_hw/bootloader/cp/tf-a/build/rebel_h/debug/bl31/wa_cve_2017_5715_bpiall.o
 .text.asm.prepare_el3_entry
                0x000000001410650c       0x9c /home/jongja.cho/Git/legacy/rebel_cds_collab_hw/bootloader/cp/tf-a/build/rebel_h/debug/bl31/context.o
                0x000000001410650c                prepare_el3_entry
 .text.asm.restore_gp_pmcr_pauth_regs
                0x00000000141065a8       0x50 /home/jongja.cho/Git/legacy/rebel_cds_collab_hw/bootloader/cp/tf-a/build/rebel_h/debug/bl31/context.o
                0x00000000141065a8                restore_gp_pmcr_pauth_regs
 .text.asm.el3_exit
                0x00000000141065f8       0xc4 /home/jongja.cho/Git/legacy/rebel_cds_collab_hw/bootloader/cp/tf-a/build/rebel_h/debug/bl31/context.o
                0x00000000141065f8                el3_exit
 .text.asm.spin_lock
                0x00000000141066bc       0x20 /home/jongja.cho/Git/legacy/rebel_cds_collab_hw/bootloader/cp/tf-a/build/rebel_h/debug/bl31/spinlock.o
                0x00000000141066bc                spin_lock
 .text.asm.spin_unlock
                0x00000000141066dc        0x8 /home/jongja.cho/Git/legacy/rebel_cds_collab_hw/bootloader/cp/tf-a/build/rebel_h/debug/bl31/spinlock.o
                0x00000000141066dc                spin_unlock
 .text.asm.per_cpu_base
                0x00000000141066e4       0x1c /home/jongja.cho/Git/legacy/rebel_cds_collab_hw/bootloader/cp/tf-a/build/rebel_h/debug/bl31/per_cpu_asm.o
                0x00000000141066e4                per_cpu_base
 .text.asm.psci_do_pwrdown_cache_maintenance
                0x0000000014106700       0x48 /home/jongja.cho/Git/legacy/rebel_cds_collab_hw/bootloader/cp/tf-a/build/rebel_h/debug/bl31/psci_helpers.o
                0x0000000014106700                psci_do_pwrdown_cache_maintenance
 .text.asm.enable_mmu_direct_el3
                0x0000000014106748       0x70 /home/jongja.cho/Git/legacy/rebel_cds_collab_hw/bootloader/cp/tf-a/build/rebel_h/debug/bl31/enable_mmu.o
                0x0000000014106748                enable_mmu_direct_el3
 .text.asm.plat_disable_acp
                0x00000000141067b8        0x4 /home/jongja.cho/Git/legacy/rebel_cds_collab_hw/bootloader/cp/tf-a/build/rebel_h/debug/bl31/platform_helpers.o
                0x00000000141067b8                plat_disable_acp
 .text.asm.plat_panic_handler
                0x00000000141067bc        0x8 /home/jongja.cho/Git/legacy/rebel_cds_collab_hw/bootloader/cp/tf-a/build/rebel_h/debug/bl31/platform_helpers.o
                0x00000000141067bc                plat_panic_handler
 .text.asm.bl31_plat_enable_mmu
                0x00000000141067c4        0x4 /home/jongja.cho/Git/legacy/rebel_cds_collab_hw/bootloader/cp/tf-a/build/rebel_h/debug/bl31/platform_helpers.o
                0x00000000141067c4                bl31_plat_enable_mmu
 .text.asm.plat_handle_el3_ea
                0x00000000141067c8        0x4 /home/jongja.cho/Git/legacy/rebel_cds_collab_hw/bootloader/cp/tf-a/build/rebel_h/debug/bl31/platform_helpers.o
                0x00000000141067c8                plat_handle_el3_ea
 .text.asm.plat_get_my_stack
                0x00000000141067cc       0x1c /home/jongja.cho/Git/legacy/rebel_cds_collab_hw/bootloader/cp/tf-a/build/rebel_h/debug/bl31/platform_mp_stack.o
                0x00000000141067cc                plat_get_my_stack
 .text.asm.plat_set_my_stack
                0x00000000141067e8       0x10 /home/jongja.cho/Git/legacy/rebel_cds_collab_hw/bootloader/cp/tf-a/build/rebel_h/debug/bl31/platform_mp_stack.o
                0x00000000141067e8                plat_set_my_stack
 .text.asm.plat_my_core_pos
                0x00000000141067f8        0x8 /home/jongja.cho/Git/legacy/rebel_cds_collab_hw/bootloader/cp/tf-a/build/rebel_h/debug/bl31/plat_helper.o
                0x00000000141067f8                plat_my_core_pos
 .text.asm.plat_arm_calc_core_pos
                0x0000000014106800        0x8 /home/jongja.cho/Git/legacy/rebel_cds_collab_hw/bootloader/cp/tf-a/build/rebel_h/debug/bl31/plat_helper.o
                0x0000000014106800                plat_arm_calc_core_pos
 .text.asm.platform_mem_init
                0x0000000014106808        0x4 /home/jongja.cho/Git/legacy/rebel_cds_collab_hw/bootloader/cp/tf-a/build/rebel_h/debug/bl31/plat_helper.o
                0x0000000014106808                platform_mem_init
 .text.asm.plat_reset_handler
                0x000000001410680c        0x0 /home/jongja.cho/Git/legacy/rebel_cds_collab_hw/bootloader/cp/tf-a/build/rebel_h/debug/bl31/plat_helper.o
                0x000000001410680c                plat_reset_handler
 .text.asm.plat_crash_console_init
                0x000000001410680c       0x20 /home/jongja.cho/Git/legacy/rebel_cds_collab_hw/bootloader/cp/tf-a/build/rebel_h/debug/bl31/plat_helper.o
                0x000000001410680c                plat_crash_console_init
 .text.asm.plat_crash_console_putc
                0x000000001410682c        0xc /home/jongja.cho/Git/legacy/rebel_cds_collab_hw/bootloader/cp/tf-a/build/rebel_h/debug/bl31/plat_helper.o
                0x000000001410682c                plat_crash_console_putc
 .text.asm.plat_crash_console_flush
                0x0000000014106838        0xc /home/jongja.cho/Git/legacy/rebel_cds_collab_hw/bootloader/cp/tf-a/build/rebel_h/debug/bl31/plat_helper.o
                0x0000000014106838                plat_crash_console_flush
 .text.__assert
                0x0000000014106844       0x1c /home/jongja.cho/Git/legacy/rebel_cds_collab_hw/bootloader/cp/tf-a/build/rebel_h/debug/lib/libc.a(assert.o)
                0x0000000014106844                __assert
 .text.memcpy   0x0000000014106860       0x20 /home/jongja.cho/Git/legacy/rebel_cds_collab_hw/bootloader/cp/tf-a/build/rebel_h/debug/lib/libc.a(memcpy.o)
                0x0000000014106860                memcpy
 .text.unsigned_num_print.part.0
                0x0000000014106880       0xf4 /home/jongja.cho/Git/legacy/rebel_cds_collab_hw/bootloader/cp/tf-a/build/rebel_h/debug/lib/libc.a(printf.o)
 .text.vprintf  0x0000000014106974      0x4a8 /home/jongja.cho/Git/legacy/rebel_cds_collab_hw/bootloader/cp/tf-a/build/rebel_h/debug/lib/libc.a(printf.o)
                0x0000000014106974                vprintf
 .text.printf   0x0000000014106e1c       0x54 /home/jongja.cho/Git/legacy/rebel_cds_collab_hw/bootloader/cp/tf-a/build/rebel_h/debug/lib/libc.a(printf.o)
                0x0000000014106e1c                printf
 .text.memset   0x0000000014106e70       0x74 /home/jongja.cho/Git/legacy/rebel_cds_collab_hw/bootloader/cp/tf-a/build/rebel_h/debug/lib/libc.a(memset.o)
                0x0000000014106e70                memset
 *(SORT_BY_ALIGNMENT(.rodata*))
 *fill*         0x0000000014106ee4        0x4 
 .rodata.psci_args.1
                0x0000000014106ee8       0x10 /home/jongja.cho/Git/legacy/rebel_cds_collab_hw/bootloader/cp/tf-a/build/rebel_h/debug/bl31/bl31_main.o
 .rodata.arm_gic_data
                0x0000000014106ef8       0x30 /home/jongja.cho/Git/legacy/rebel_cds_collab_hw/bootloader/cp/tf-a/build/rebel_h/debug/bl31/arm_gicv3.o
 .rodata.gicr_base_addrs
                0x0000000014106f28       0x10 /home/jongja.cho/Git/legacy/rebel_cds_collab_hw/bootloader/cp/tf-a/build/rebel_h/debug/bl31/arm_gicv3.o
 .rodata.CSWTCH.3
                0x0000000014106f38       0x20 /home/jongja.cho/Git/legacy/rebel_cds_collab_hw/bootloader/cp/tf-a/build/rebel_h/debug/bl31/plat_common.o
 .rodata.plat_prefix_str
                0x0000000014106f58       0x28 /home/jongja.cho/Git/legacy/rebel_cds_collab_hw/bootloader/cp/tf-a/build/rebel_h/debug/bl31/plat_log_common.o
 .rodata.plat_rebel_h_psci_pm_ops
                0x0000000014106f80       0xb0 /home/jongja.cho/Git/legacy/rebel_cds_collab_hw/bootloader/cp/tf-a/build/rebel_h/debug/bl31/rebel_h_pm.o
 .rodata.errata_entries
                0x0000000014107030       0x60 /home/jongja.cho/Git/legacy/rebel_cds_collab_hw/bootloader/cp/tf-a/build/rebel_h/debug/bl31/cortex_a73.o
 .rodata.psci_smc_handler
                0x0000000014107090       0x2c /home/jongja.cho/Git/legacy/rebel_cds_collab_hw/bootloader/cp/tf-a/build/rebel_h/debug/bl31/psci_main.o
 .rodata.arm_interrupt_props
                0x00000000141070bc        0x8 /home/jongja.cho/Git/legacy/rebel_cds_collab_hw/bootloader/cp/tf-a/build/rebel_h/debug/bl31/arm_gicv3.o
 .rodata.vprintf
                0x00000000141070c4       0x30 /home/jongja.cho/Git/legacy/rebel_cds_collab_hw/bootloader/cp/tf-a/build/rebel_h/debug/lib/libc.a(printf.o)
 .rodata.bl31_prepare_next_image_entry.str1.1
                0x00000000141070f4      0x675 /home/jongja.cho/Git/legacy/rebel_cds_collab_hw/bootloader/cp/tf-a/build/rebel_h/debug/bl31/bl31_main.o
                                         0x50 (size before relaxing)
 .rodata.bl31_main.str1.1
                0x0000000014107769       0x2e /home/jongja.cho/Git/legacy/rebel_cds_collab_hw/bootloader/cp/tf-a/build/rebel_h/debug/bl31/bl31_main.o
 .rodata.__func__.0
                0x0000000014107769       0x1e /home/jongja.cho/Git/legacy/rebel_cds_collab_hw/bootloader/cp/tf-a/build/rebel_h/debug/bl31/bl31_main.o
 .rodata.build_version_string
                0x0000000014107787       0x2e /home/jongja.cho/Git/legacy/rebel_cds_collab_hw/bootloader/cp/tf-a/build/rebel_h/debug/bl31/bl31_main.o
 .rodata.build_message
                0x00000000141077b5       0x1e /home/jongja.cho/Git/legacy/rebel_cds_collab_hw/bootloader/cp/tf-a/build/rebel_h/debug/bl31/bl31_main.o
 .rodata.backtrace.str1.1
                0x00000000141077d3       0xcd /home/jongja.cho/Git/legacy/rebel_cds_collab_hw/bootloader/cp/tf-a/build/rebel_h/debug/bl31/backtrace.o
 .rodata.runtime_svc_init.str1.1
                0x00000000141077d3       0x50 /home/jongja.cho/Git/legacy/rebel_cds_collab_hw/bootloader/cp/tf-a/build/rebel_h/debug/bl31/runtime_svc.o
 .rodata.__func__.0
                0x00000000141077d3       0x11 /home/jongja.cho/Git/legacy/rebel_cds_collab_hw/bootloader/cp/tf-a/build/rebel_h/debug/bl31/runtime_svc.o
 .rodata.gicv3_rdistif_mark_core_awake.str1.1
                0x00000000141077e4       0x39 /home/jongja.cho/Git/legacy/rebel_cds_collab_hw/bootloader/cp/tf-a/build/rebel_h/debug/bl31/gicv3_helpers.o
 .rodata.flash_spi_set_quad_mode.str1.1
                0x00000000141077e4       0x28 /home/jongja.cho/Git/legacy/rebel_cds_collab_hw/bootloader/cp/tf-a/build/rebel_h/debug/bl31/mt25q_flash.o
 .rodata.enable_write.str1.1
                0x00000000141077e4       0x34 /home/jongja.cho/Git/legacy/rebel_cds_collab_hw/bootloader/cp/tf-a/build/rebel_h/debug/bl31/mt25q_flash.o
 .rodata.erase_flash.str1.1
                0x00000000141077e4       0x8d /home/jongja.cho/Git/legacy/rebel_cds_collab_hw/bootloader/cp/tf-a/build/rebel_h/debug/bl31/mt25q_flash.o
 .rodata.write_flash.str1.1
                0x00000000141077e4       0x70 /home/jongja.cho/Git/legacy/rebel_cds_collab_hw/bootloader/cp/tf-a/build/rebel_h/debug/bl31/mt25q_flash.o
 .rodata.generic_errata_report.str1.1
                0x00000000141077e4       0x6d /home/jongja.cho/Git/legacy/rebel_cds_collab_hw/bootloader/cp/tf-a/build/rebel_h/debug/bl31/errata_report.o
 .rodata.cm_setup_context.str1.1
                0x00000000141077e4       0x19 /home/jongja.cho/Git/legacy/rebel_cds_collab_hw/bootloader/cp/tf-a/build/rebel_h/debug/bl31/context_mgmt.o
 .rodata.__func__.0
                0x00000000141077e4       0x11 /home/jongja.cho/Git/legacy/rebel_cds_collab_hw/bootloader/cp/tf-a/build/rebel_h/debug/bl31/context_mgmt.o
 .rodata.psci_warmboot_entrypoint.str1.1
                0x00000000141077f5       0x22 /home/jongja.cho/Git/legacy/rebel_cds_collab_hw/bootloader/cp/tf-a/build/rebel_h/debug/bl31/psci_common.o
 .rodata.psci_pwrdown_cpu_end_terminal.str1.1
                0x00000000141077f5       0x1b /home/jongja.cho/Git/legacy/rebel_cds_collab_hw/bootloader/cp/tf-a/build/rebel_h/debug/bl31/psci_common.o
 .rodata.psci_pwrdown_cpu_end_wakeup.str1.1
                0x00000000141077f5       0x25 /home/jongja.cho/Git/legacy/rebel_cds_collab_hw/bootloader/cp/tf-a/build/rebel_h/debug/bl31/psci_common.o
 .rodata.__func__.0
                0x00000000141077f5       0x1c /home/jongja.cho/Git/legacy/rebel_cds_collab_hw/bootloader/cp/tf-a/build/rebel_h/debug/bl31/psci_common.o
 .rodata.__func__.1
                0x0000000014107811       0x1e /home/jongja.cho/Git/legacy/rebel_cds_collab_hw/bootloader/cp/tf-a/build/rebel_h/debug/bl31/psci_common.o
 .rodata.__func__.2
                0x000000001410782f       0x19 /home/jongja.cho/Git/legacy/rebel_cds_collab_hw/bootloader/cp/tf-a/build/rebel_h/debug/bl31/psci_common.o
 .rodata.psci_cpu_suspend.str1.1
                0x0000000014107848       0x33 /home/jongja.cho/Git/legacy/rebel_cds_collab_hw/bootloader/cp/tf-a/build/rebel_h/debug/bl31/psci_main.o
 .rodata.psci_smc_handler.str1.1
                0x0000000014107848       0x20 /home/jongja.cho/Git/legacy/rebel_cds_collab_hw/bootloader/cp/tf-a/build/rebel_h/debug/bl31/psci_main.o
 .rodata.__func__.0
                0x0000000014107848       0x11 /home/jongja.cho/Git/legacy/rebel_cds_collab_hw/bootloader/cp/tf-a/build/rebel_h/debug/bl31/psci_main.o
 .rodata.plat_arm_gic_driver_init.str1.1
                0x0000000014107859       0x2b /home/jongja.cho/Git/legacy/rebel_cds_collab_hw/bootloader/cp/tf-a/build/rebel_h/debug/bl31/arm_gicv3.o
 .rodata.plat_arm_gic_pcpu_init.str1.1
                0x0000000014107859       0x29 /home/jongja.cho/Git/legacy/rebel_cds_collab_hw/bootloader/cp/tf-a/build/rebel_h/debug/bl31/arm_gicv3.o
 .rodata.__func__.0
                0x0000000014107859       0x17 /home/jongja.cho/Git/legacy/rebel_cds_collab_hw/bootloader/cp/tf-a/build/rebel_h/debug/bl31/arm_gicv3.o
 .rodata.__func__.1
                0x0000000014107870       0x19 /home/jongja.cho/Git/legacy/rebel_cds_collab_hw/bootloader/cp/tf-a/build/rebel_h/debug/bl31/arm_gicv3.o
 .rodata.str1.1
                0x0000000014107889       0x10 /home/jongja.cho/Git/legacy/rebel_cds_collab_hw/bootloader/cp/tf-a/build/rebel_h/debug/bl31/plat_common.o
 .rodata.CSWTCH.17
                0x0000000014107889        0x4 /home/jongja.cho/Git/legacy/rebel_cds_collab_hw/bootloader/cp/tf-a/build/rebel_h/debug/bl31/plat_gicv3.o
 .rodata.str1.1
                0x000000001410788d       0x32 /home/jongja.cho/Git/legacy/rebel_cds_collab_hw/bootloader/cp/tf-a/build/rebel_h/debug/bl31/plat_log_common.o
 .rodata.str1.1
                0x000000001410788d        0xe /home/jongja.cho/Git/legacy/rebel_cds_collab_hw/bootloader/cp/tf-a/build/rebel_h/debug/bl31/rebel_sip_svc.o
 .rodata.bl31_early_platform_setup2.str1.1
                0x000000001410788d       0x25 /home/jongja.cho/Git/legacy/rebel_cds_collab_hw/bootloader/cp/tf-a/build/rebel_h/debug/bl31/rebel_h_bl31_setup.o
 .rodata.pmu_get_bootmode_str.str1.1
                0x000000001410788d        0x8 /home/jongja.cho/Git/legacy/rebel_cds_collab_hw/bootloader/cp/tf-a/build/rebel_h/debug/bl31/rebel_h_pmu.o
 .rodata.pmu_get_bootreason_str.str1.1
                0x000000001410788d       0xcd /home/jongja.cho/Git/legacy/rebel_cds_collab_hw/bootloader/cp/tf-a/build/rebel_h/debug/bl31/rebel_h_pmu.o
 .rodata.rebel_plat_sip_handler.str1.1
                0x000000001410788d       0x1b /home/jongja.cho/Git/legacy/rebel_cds_collab_hw/bootloader/cp/tf-a/build/rebel_h/debug/bl31/rebel_h_sip_svc.o
 .rodata.__func__.0
                0x000000001410788d       0x17 /home/jongja.cho/Git/legacy/rebel_cds_collab_hw/bootloader/cp/tf-a/build/rebel_h/debug/bl31/rebel_h_sip_svc.o
 .rodata.arm_arch_svc_smc_handler.str1.1
                0x00000000141078a4       0x35 /home/jongja.cho/Git/legacy/rebel_cds_collab_hw/bootloader/cp/tf-a/build/rebel_h/debug/bl31/arm_arch_svc_setup.o
 .rodata.str1.1
                0x00000000141078a4        0xd /home/jongja.cho/Git/legacy/rebel_cds_collab_hw/bootloader/cp/tf-a/build/rebel_h/debug/bl31/arm_arch_svc_setup.o
 .rodata.str1.1
                0x00000000141078a4        0x8 /home/jongja.cho/Git/legacy/rebel_cds_collab_hw/bootloader/cp/tf-a/build/rebel_h/debug/bl31/std_svc_setup.o
 .rodata.crash_prints
                0x00000000141078a4      0x18f /home/jongja.cho/Git/legacy/rebel_cds_collab_hw/bootloader/cp/tf-a/build/rebel_h/debug/bl31/crash_reporting.o
 .rodata.panic_str
                0x0000000014107a33       0x11 /home/jongja.cho/Git/legacy/rebel_cds_collab_hw/bootloader/cp/tf-a/build/rebel_h/debug/bl31/debug.o
 .rodata.str1.1
                0x0000000014107a44       0x28 /home/jongja.cho/Git/legacy/rebel_cds_collab_hw/bootloader/cp/tf-a/build/rebel_h/debug/bl31/16550_console.o
 .rodata.str1.1
                0x0000000014107a6c       0x1b /home/jongja.cho/Git/legacy/rebel_cds_collab_hw/bootloader/cp/tf-a/build/rebel_h/debug/bl31/misc_helpers.o
 .rodata.str1.1
                0x0000000014107a87       0x26 /home/jongja.cho/Git/legacy/rebel_cds_collab_hw/bootloader/cp/tf-a/build/rebel_h/debug/bl31/cortex_a73.o
 .rodata.cortex_a73_regs
                0x0000000014107aad       0x1b /home/jongja.cho/Git/legacy/rebel_cds_collab_hw/bootloader/cp/tf-a/build/rebel_h/debug/bl31/cortex_a73.o
 .rodata        0x0000000014107ac8        0xb /home/jongja.cho/Git/legacy/rebel_cds_collab_hw/bootloader/cp/tf-a/build/rebel_h/debug/bl31/cortex_a73.o
 .rodata.str1.1
                0x0000000014107ad3       0x1f /home/jongja.cho/Git/legacy/rebel_cds_collab_hw/bootloader/cp/tf-a/build/rebel_h/debug/bl31/cpu_helpers.o
 .rodata.str1.1
                0x0000000014107af2       0x22 /home/jongja.cho/Git/legacy/rebel_cds_collab_hw/bootloader/cp/tf-a/build/rebel_h/debug/bl31/context.o
 .rodata.str1.1
                0x0000000014107b14       0x28 /home/jongja.cho/Git/legacy/rebel_cds_collab_hw/bootloader/cp/tf-a/build/rebel_h/debug/bl31/enable_mmu.o
 .rodata.__assert.str1.1
                0x0000000014107b3c        0x7 /home/jongja.cho/Git/legacy/rebel_cds_collab_hw/bootloader/cp/tf-a/build/rebel_h/debug/lib/libc.a(assert.o)
 .rodata.vprintf.str1.1
                0x0000000014107b3c        0x3 /home/jongja.cho/Git/legacy/rebel_cds_collab_hw/bootloader/cp/tf-a/build/rebel_h/debug/lib/libc.a(printf.o)
                0x0000000014107b48                . = ALIGN (0x8)
 *fill*         0x0000000014107b3c        0x4 
                0x0000000014107b40                __RT_SVC_DESCS_START__ = .
 *(SORT_BY_ALIGNMENT(.rt_svc_descs))
 .rt_svc_descs  0x0000000014107b40       0x20 /home/jongja.cho/Git/legacy/rebel_cds_collab_hw/bootloader/cp/tf-a/build/rebel_h/debug/bl31/rebel_sip_svc.o
 .rt_svc_descs  0x0000000014107b60       0x20 /home/jongja.cho/Git/legacy/rebel_cds_collab_hw/bootloader/cp/tf-a/build/rebel_h/debug/bl31/arm_arch_svc_setup.o
 .rt_svc_descs  0x0000000014107b80       0x20 /home/jongja.cho/Git/legacy/rebel_cds_collab_hw/bootloader/cp/tf-a/build/rebel_h/debug/bl31/std_svc_setup.o
                0x0000000014107ba0                __RT_SVC_DESCS_END__ = .
                0x0000000014107ba0                . = ALIGN (0x8)
                0x0000000014107ba0                __FCONF_POPULATOR_START__ = .
 *(SORT_BY_ALIGNMENT(.fconf_populator))
                0x0000000014107ba0                __FCONF_POPULATOR_END__ = .
                0x0000000014107ba0                . = ALIGN (0x8)
                0x0000000014107ba0                __PMF_SVC_DESCS_START__ = .
 *(SORT_BY_ALIGNMENT(.pmf_svc_descs))
                0x0000000014107ba0                __PMF_SVC_DESCS_END__ = .
                0x0000000014107ba0                . = ALIGN (0x8)
                0x0000000014107ba0                __PARSER_LIB_DESCS_START__ = .
 *(SORT_BY_ALIGNMENT(.img_parser_lib_descs))
                0x0000000014107ba0                __PARSER_LIB_DESCS_END__ = .
                0x0000000014107ba0                . = ALIGN (0x8)
                0x0000000014107ba0                __CPU_OPS_START__ = .
 *(SORT_BY_ALIGNMENT(.cpu_ops))
 .cpu_ops       0x0000000014107ba0       0x58 /home/jongja.cho/Git/legacy/rebel_cds_collab_hw/bootloader/cp/tf-a/build/rebel_h/debug/bl31/cortex_a73.o
                0x0000000014107bf8                __CPU_OPS_END__ = .
                0x0000000014107bf8                . = ALIGN (0x8)
                0x0000000014107bf8                __GOT_START__ = .
 *(SORT_BY_ALIGNMENT(.got))
                0x0000000014107bf8                __GOT_END__ = .
                0x0000000014107bf8                . = ALIGN (0x8)
                0x0000000014107bf8                __pubsub_psci_cpu_on_finish_start = .
 *(SORT_BY_ALIGNMENT(.__pubsub_psci_cpu_on_finish))
                0x0000000014107bf8                __pubsub_psci_cpu_on_finish_end = .
                0x0000000014107bf8                __pubsub_psci_suspend_pwrdown_start_start = .
 *(SORT_BY_ALIGNMENT(.__pubsub_psci_suspend_pwrdown_start))
                0x0000000014107bf8                __pubsub_psci_suspend_pwrdown_start_end = .
                0x0000000014107bf8                __pubsub_psci_suspend_pwrdown_finish_start = .
 *(SORT_BY_ALIGNMENT(.__pubsub_psci_suspend_pwrdown_finish))
                0x0000000014107bf8                __pubsub_psci_suspend_pwrdown_finish_end = .
                0x0000000014107bf8                __pubsub_cm_entering_secure_world_start = .
 *(SORT_BY_ALIGNMENT(.__pubsub_cm_entering_secure_world))
                0x0000000014107bf8                __pubsub_cm_entering_secure_world_end = .
                0x0000000014107bf8                __pubsub_cm_exited_secure_world_start = .
 *(SORT_BY_ALIGNMENT(.__pubsub_cm_exited_secure_world))
                0x0000000014107bf8                __pubsub_cm_exited_secure_world_end = .
                0x0000000014107bf8                __pubsub_cm_entering_normal_world_start = .
 *(SORT_BY_ALIGNMENT(.__pubsub_cm_entering_normal_world))
                0x0000000014107bf8                __pubsub_cm_entering_normal_world_end = .
                0x0000000014107bf8                __pubsub_cm_exited_normal_world_start = .
 *(SORT_BY_ALIGNMENT(.__pubsub_cm_exited_normal_world))
                0x0000000014107bf8                __pubsub_cm_exited_normal_world_end = .
 *(SORT_BY_ALIGNMENT(.vectors))
 *fill*         0x0000000014107bf8      0x408 
 .vectors       0x0000000014108000      0x800 /home/jongja.cho/Git/legacy/rebel_cds_collab_hw/bootloader/cp/tf-a/build/rebel_h/debug/bl31/runtime_exceptions.o
                0x0000000014108000                sync_exception_sp_el0
                0x0000000014108000                runtime_exceptions
                0x0000000014108080                irq_sp_el0
                0x0000000014108100                fiq_sp_el0
                0x0000000014108180                serror_sp_el0
                0x0000000014108200                sync_exception_sp_elx
                0x0000000014108280                irq_sp_elx
                0x0000000014108300                fiq_sp_elx
                0x0000000014108380                serror_sp_elx
                0x0000000014108400                sync_exception_aarch64
                0x0000000014108480                irq_aarch64
                0x0000000014108500                fiq_aarch64
                0x0000000014108580                serror_aarch64
                0x0000000014108600                sync_exception_aarch32
                0x0000000014108680                irq_aarch32
                0x0000000014108700                fiq_aarch32
                0x0000000014108780                serror_aarch32
 .vectors       0x0000000014108800     0x1000 /home/jongja.cho/Git/legacy/rebel_cds_collab_hw/bootloader/cp/tf-a/build/rebel_h/debug/bl31/wa_cve_2017_5715_bpiall.o
                0x0000000014108800                wa_cve_2017_5715_bpiall_vbar
                0x0000000014109800                __RO_END_UNALIGNED__ = .
                0x000000001410a000                . = ALIGN (0x1000)
 *fill*         0x0000000014109800      0x800 
                0x000000001410a000                __RO_END__ = .
                0x0000000000000001                ASSERT ((__CPU_OPS_END__ > __CPU_OPS_START__), cpu_ops not defined for this platform.)
                0x000000001410a000                __RW_START__ = .

.iplt           0x000000001410a000        0x0
 .iplt          0x000000001410a000        0x0 /home/jongja.cho/Git/legacy/rebel_cds_collab_hw/bootloader/cp/tf-a/build/rebel_h/debug/bl31/bl31_context_mgmt.o

.data           0x000000001410a000       0x7e
                0x000000001410a000                __DATA_START__ = .
 *(SORT_BY_ALIGNMENT(.data*))
 .data.tf_xlat_ctx
                0x000000001410a000       0x60 /home/jongja.cho/Git/legacy/rebel_cds_collab_hw/bootloader/cp/tf-a/build/rebel_h/debug/bl31/xlat_tables_context.o
 .data.gicr_frames
                0x000000001410a060        0x8 /home/jongja.cho/Git/legacy/rebel_cds_collab_hw/bootloader/cp/tf-a/build/rebel_h/debug/bl31/arm_gicv3.o
 .data.next_image_type
                0x000000001410a068        0x4 /home/jongja.cho/Git/legacy/rebel_cds_collab_hw/bootloader/cp/tf-a/build/rebel_h/debug/bl31/bl31_main.o
 .data.max_log_level
                0x000000001410a06c        0x4 /home/jongja.cho/Git/legacy/rebel_cds_collab_hw/bootloader/cp/tf-a/build/rebel_h/debug/bl31/tf_log.o
 .data.console_state
                0x000000001410a070        0x4 /home/jongja.cho/Git/legacy/rebel_cds_collab_hw/bootloader/cp/tf-a/build/rebel_h/debug/bl31/multi_console.o
 .data          0x000000001410a074        0x8 /home/jongja.cho/Git/legacy/rebel_cds_collab_hw/bootloader/cp/tf-a/build/rebel_h/debug/bl31/cortex_a73.o
 .data.power_domain_tree_desc
                0x000000001410a07c        0x2 /home/jongja.cho/Git/legacy/rebel_cds_collab_hw/bootloader/cp/tf-a/build/rebel_h/debug/bl31/rebel_h_topology.o
                0x000000001410a07e                __DATA_END__ = .

.igot.plt       0x000000001410a080        0x0
 .igot.plt      0x000000001410a080        0x0 /home/jongja.cho/Git/legacy/rebel_cds_collab_hw/bootloader/cp/tf-a/build/rebel_h/debug/bl31/bl31_context_mgmt.o

.rela.dyn       0x000000001410a080        0x0
                0x000000001410a080                __RELA_START__ = .
 *(SORT_BY_ALIGNMENT(.rela*))
 .rela.iplt     0x000000001410a080        0x0 /home/jongja.cho/Git/legacy/rebel_cds_collab_hw/bootloader/cp/tf-a/build/rebel_h/debug/bl31/bl31_context_mgmt.o
 .rela.text.runtime_svc_init
                0x000000001410a080        0x0 /home/jongja.cho/Git/legacy/rebel_cds_collab_hw/bootloader/cp/tf-a/build/rebel_h/debug/bl31/bl31_context_mgmt.o
 .rela.text.console_register
                0x000000001410a080        0x0 /home/jongja.cho/Git/legacy/rebel_cds_collab_hw/bootloader/cp/tf-a/build/rebel_h/debug/bl31/bl31_context_mgmt.o
 .rela.text.cm_el1_sysregs_context_restore
                0x000000001410a080        0x0 /home/jongja.cho/Git/legacy/rebel_cds_collab_hw/bootloader/cp/tf-a/build/rebel_h/debug/bl31/bl31_context_mgmt.o
 .rela.text.per_cpu_by_index_compute
                0x000000001410a080        0x0 /home/jongja.cho/Git/legacy/rebel_cds_collab_hw/bootloader/cp/tf-a/build/rebel_h/debug/bl31/bl31_context_mgmt.o
 .rela.text.per_cpu_cur_compute
                0x000000001410a080        0x0 /home/jongja.cho/Git/legacy/rebel_cds_collab_hw/bootloader/cp/tf-a/build/rebel_h/debug/bl31/bl31_context_mgmt.o
 .rela.text.psci_cpu_on_finish
                0x000000001410a080        0x0 /home/jongja.cho/Git/legacy/rebel_cds_collab_hw/bootloader/cp/tf-a/build/rebel_h/debug/bl31/bl31_context_mgmt.o
 .rela.text.psci_cpu_suspend_to_powerdown_finish
                0x000000001410a080        0x0 /home/jongja.cho/Git/legacy/rebel_cds_collab_hw/bootloader/cp/tf-a/build/rebel_h/debug/bl31/bl31_context_mgmt.o
 .rela.text.psci_cpu_suspend_start
                0x000000001410a080        0x0 /home/jongja.cho/Git/legacy/rebel_cds_collab_hw/bootloader/cp/tf-a/build/rebel_h/debug/bl31/bl31_context_mgmt.o
 .rela.text.asm.bl31_entrypoint
                0x000000001410a080        0x0 /home/jongja.cho/Git/legacy/rebel_cds_collab_hw/bootloader/cp/tf-a/build/rebel_h/debug/bl31/bl31_context_mgmt.o
 .rela.text.asm.report_unhandled_exception
                0x000000001410a080        0x0 /home/jongja.cho/Git/legacy/rebel_cds_collab_hw/bootloader/cp/tf-a/build/rebel_h/debug/bl31/bl31_context_mgmt.o
 .rela.text.asm.report_unhandled_interrupt
                0x000000001410a080        0x0 /home/jongja.cho/Git/legacy/rebel_cds_collab_hw/bootloader/cp/tf-a/build/rebel_h/debug/bl31/bl31_context_mgmt.o
 .rela.text.asm.report_elx_panic
                0x000000001410a080        0x0 /home/jongja.cho/Git/legacy/rebel_cds_collab_hw/bootloader/cp/tf-a/build/rebel_h/debug/bl31/bl31_context_mgmt.o
 .rela.text.asm.report_el3_panic
                0x000000001410a080        0x0 /home/jongja.cho/Git/legacy/rebel_cds_collab_hw/bootloader/cp/tf-a/build/rebel_h/debug/bl31/bl31_context_mgmt.o
 .rela.text.asm.sync_exception_handler
                0x000000001410a080        0x0 /home/jongja.cho/Git/legacy/rebel_cds_collab_hw/bootloader/cp/tf-a/build/rebel_h/debug/bl31/bl31_context_mgmt.o
 .rela.text.asm.get_cpu_ops_ptr
                0x000000001410a080        0x0 /home/jongja.cho/Git/legacy/rebel_cds_collab_hw/bootloader/cp/tf-a/build/rebel_h/debug/bl31/bl31_context_mgmt.o
 .rela.text.asm.per_cpu_base
                0x000000001410a080        0x0 /home/jongja.cho/Git/legacy/rebel_cds_collab_hw/bootloader/cp/tf-a/build/rebel_h/debug/bl31/bl31_context_mgmt.o
                0x000000001410a080                __RELA_END__ = .
                0x0000000000000001                ASSERT ((. <= 0x14200000), BL31 progbits has exceeded its limit. Consider disabling some features.)

.stacks         0x000000001410a080     0x4000
                0x000000001410a080                __STACKS_START__ = .
 *(SORT_BY_ALIGNMENT(.tzfw_normal_stacks))
 .tzfw_normal_stacks
                0x000000001410a080     0x4000 /home/jongja.cho/Git/legacy/rebel_cds_collab_hw/bootloader/cp/tf-a/build/rebel_h/debug/bl31/platform_mp_stack.o
                0x000000001410e080                __STACKS_END__ = .

.bss            0x000000001410e080      0x750
                0x000000001410e080                __BSS_START__ = .
 *(SORT_BY_ALIGNMENT(.bss*))
 .bss.bl32_init
                0x000000001410e080        0x8 /home/jongja.cho/Git/legacy/rebel_cds_collab_hw/bootloader/cp/tf-a/build/rebel_h/debug/bl31/bl31_main.o
 .bss.intr_type_descs
                0x000000001410e088       0x80 /home/jongja.cho/Git/legacy/rebel_cds_collab_hw/bootloader/cp/tf-a/build/rebel_h/debug/bl31/interrupt_mgmt.o
 .bss.gicv3_driver_data
                0x000000001410e108        0x8 /home/jongja.cho/Git/legacy/rebel_cds_collab_hw/bootloader/cp/tf-a/build/rebel_h/debug/bl31/gicv3_main.o
                0x000000001410e108                gicv3_driver_data
 .bss.console_list
                0x000000001410e110        0x8 /home/jongja.cho/Git/legacy/rebel_cds_collab_hw/bootloader/cp/tf-a/build/rebel_h/debug/bl31/multi_console.o
                0x000000001410e110                console_list
 .bss.per_world_context
                0x000000001410e118       0x20 /home/jongja.cho/Git/legacy/rebel_cds_collab_hw/bootloader/cp/tf-a/build/rebel_h/debug/bl31/context_mgmt.o
                0x000000001410e118                per_world_context
 .bss.psci_plat_pm_ops
                0x000000001410e138        0x8 /home/jongja.cho/Git/legacy/rebel_cds_collab_hw/bootloader/cp/tf-a/build/rebel_h/debug/bl31/psci_common.o
                0x000000001410e138                psci_plat_pm_ops
 .bss.psci_spd_pm
                0x000000001410e140        0x8 /home/jongja.cho/Git/legacy/rebel_cds_collab_hw/bootloader/cp/tf-a/build/rebel_h/debug/bl31/psci_common.o
                0x000000001410e140                psci_spd_pm
 .bss.warmboot_ep_info
                0x000000001410e148      0x160 /home/jongja.cho/Git/legacy/rebel_cds_collab_hw/bootloader/cp/tf-a/build/rebel_h/debug/bl31/psci_setup.o
 .bss.tf_mmap   0x000000001410e2a8      0x398 /home/jongja.cho/Git/legacy/rebel_cds_collab_hw/bootloader/cp/tf-a/build/rebel_h/debug/bl31/xlat_tables_context.o
 .bss.mmu_cfg_params
                0x000000001410e640       0x18 /home/jongja.cho/Git/legacy/rebel_cds_collab_hw/bootloader/cp/tf-a/build/rebel_h/debug/bl31/xlat_tables_context.o
                0x000000001410e640                mmu_cfg_params
 .bss.rdistif_base_addrs
                0x000000001410e658       0x20 /home/jongja.cho/Git/legacy/rebel_cds_collab_hw/bootloader/cp/tf-a/build/rebel_h/debug/bl31/arm_gicv3.o
 .bss.rebel_console
                0x000000001410e678       0x28 /home/jongja.cho/Git/legacy/rebel_cds_collab_hw/bootloader/cp/tf-a/build/rebel_h/debug/bl31/rebel_h_bl31_setup.o
 .bss.bl33_image_ep_info
                0x000000001410e6a0       0x58 /home/jongja.cho/Git/legacy/rebel_cds_collab_hw/bootloader/cp/tf-a/build/rebel_h/debug/bl31/rebel_h_bl31_setup.o
 .bss.plat_sec_entrypoint
                0x000000001410e6f8        0x8 /home/jongja.cho/Git/legacy/rebel_cds_collab_hw/bootloader/cp/tf-a/build/rebel_h/debug/bl31/rebel_h_pm.o
 .bss.flash_spi_mode
                0x000000001410e700        0x4 /home/jongja.cho/Git/legacy/rebel_cds_collab_hw/bootloader/cp/tf-a/build/rebel_h/debug/bl31/mt25q_flash.o
 .bss.psci_plat_core_count
                0x000000001410e704        0x4 /home/jongja.cho/Git/legacy/rebel_cds_collab_hw/bootloader/cp/tf-a/build/rebel_h/debug/bl31/psci_common.o
                0x000000001410e704                psci_plat_core_count
 .bss.psci_caps
                0x000000001410e708        0x4 /home/jongja.cho/Git/legacy/rebel_cds_collab_hw/bootloader/cp/tf-a/build/rebel_h/debug/bl31/psci_setup.o
                0x000000001410e708                psci_caps
 .bss.rt_svc_descs_indices
                0x000000001410e70c       0x80 /home/jongja.cho/Git/legacy/rebel_cds_collab_hw/bootloader/cp/tf-a/build/rebel_h/debug/bl31/runtime_svc.o
                0x000000001410e70c                rt_svc_descs_indices
 .bss.gic600_errata_wa_2384374
                0x000000001410e78c        0x1 /home/jongja.cho/Git/legacy/rebel_cds_collab_hw/bootloader/cp/tf-a/build/rebel_h/debug/bl31/gic-x00.o
 .bss.psci_req_local_pwr_states
                0x000000001410e78d        0x4 /home/jongja.cho/Git/legacy/rebel_cds_collab_hw/bootloader/cp/tf-a/build/rebel_h/debug/bl31/psci_common.o
 *(SORT_BY_ALIGNMENT(COMMON))
                0x000000001410e7c0                . = ALIGN (0x40)
 *fill*         0x000000001410e791       0x2f 
                0x000000001410e7c0                __PMF_TIMESTAMP_START__ = .
 *(SORT_BY_ALIGNMENT(.pmf_timestamp_array))
                0x000000001410e7c0                . = ALIGN (0x40)
                0x000000001410e7c0                __PMF_PERCPU_TIMESTAMP_END__ = .
                0x0000000000000000                __PERCPU_TIMESTAMP_SIZE__ = ABSOLUTE ((. - __PMF_TIMESTAMP_START__))
                0x000000001410e7c0                . = (. + (__PERCPU_TIMESTAMP_SIZE__ * 0x3))
                0x000000001410e7c0                __PMF_TIMESTAMP_END__ = .
                0x000000001410e7c0                __BSS_END__ = .
                0x000000001410e7c0                . = ALIGN (0x10)
                0x000000001410e7c0                __BASE_XLAT_TABLE_START__ = .
 *(SORT_BY_ALIGNMENT(.base_xlat_table))
 .base_xlat_table
                0x000000001410e7c0       0x10 /home/jongja.cho/Git/legacy/rebel_cds_collab_hw/bootloader/cp/tf-a/build/rebel_h/debug/bl31/xlat_tables_context.o
                0x000000001410e7d0                __BASE_XLAT_TABLE_END__ = .

.per_cpu        0x000000001410e800      0xd00
                0x000000001410e800                __PER_CPU_START__ = .
                0x000000001410e800                __PER_CPU_UNIT_START__ = .
 *(SORT_BY_ALIGNMENT(.per_cpu*))
 .per_cpu       0x000000001410e800       0x80 /home/jongja.cho/Git/legacy/rebel_cds_collab_hw/bootloader/cp/tf-a/build/rebel_h/debug/bl31/cpu_data_array.o
                0x000000001410e800                percpu_data
 .per_cpu       0x000000001410e880      0x280 /home/jongja.cho/Git/legacy/rebel_cds_collab_hw/bootloader/cp/tf-a/build/rebel_h/debug/bl31/psci_setup.o
 .per_cpu       0x000000001410eb00       0x10 /home/jongja.cho/Git/legacy/rebel_cds_collab_hw/bootloader/cp/tf-a/build/rebel_h/debug/bl31/psci_common.o
                0x000000001410eb00                psci_cpu_pd_nodes
                0x000000001410eb10                __PER_CPU_UNIT_UNALIGNED_END_UNIT__ = .
                0x000000001410eb40                . = ALIGN (0x40)
 *fill*         0x000000001410eb10       0x30 
                0x000000001410eb40                __PER_CPU_UNIT_END__ = .
                0x0000000000000340                __PER_CPU_UNIT_SECTION_SIZE__ = ABSOLUTE ((__PER_CPU_UNIT_END__ - __PER_CPU_UNIT_START__))
                0x000000001410f500                . = (. + (0x3 * __PER_CPU_UNIT_SECTION_SIZE__))
 *fill*         0x000000001410eb40      0x9c0 
                0x000000001410f500                __PER_CPU_END__ = .

.xlat_table     0x0000000014110000    0x13000
                0x0000000014110000                __XLAT_TABLE_START__ = .
 *(SORT_BY_ALIGNMENT(.xlat_table))
 .xlat_table    0x0000000014110000    0x13000 /home/jongja.cho/Git/legacy/rebel_cds_collab_hw/bootloader/cp/tf-a/build/rebel_h/debug/bl31/xlat_tables_context.o
                0x0000000014123000                __XLAT_TABLE_END__ = .

.coherent_ram   0x0000000014123000     0x1000
                0x0000000014123000                __COHERENT_RAM_START__ = .
 *(SORT_BY_ALIGNMENT(.bakery_lock))
 .bakery_lock   0x0000000014123000       0x10 /home/jongja.cho/Git/legacy/rebel_cds_collab_hw/bootloader/cp/tf-a/build/rebel_h/debug/bl31/psci_common.o
                0x0000000014123000                psci_locks
 *(SORT_BY_ALIGNMENT(.tzfw_coherent_mem))
 .tzfw_coherent_mem
                0x0000000014123010       0x20 /home/jongja.cho/Git/legacy/rebel_cds_collab_hw/bootloader/cp/tf-a/build/rebel_h/debug/bl31/psci_common.o
                0x0000000014123010                psci_non_cpu_pd_nodes
                0x0000000014123030                __COHERENT_RAM_END_UNALIGNED__ = .
                0x0000000014124000                . = ALIGN (0x1000)
 *fill*         0x0000000014123030      0xfd0 
                0x0000000014124000                __COHERENT_RAM_END__ = .
                0x0000000014124000                __RW_END__ = .
                0x0000000014124000                __BL31_END__ = .
                0x0000000000000001                ASSERT ((. <= 0x14200000), BL31 image has exceeded its limit.)
                0x0000000014124000                RAM_REGION_END = .

/DISCARD/
 *(SORT_BY_ALIGNMENT(.dynsym) SORT_BY_ALIGNMENT(.dynstr) SORT_BY_ALIGNMENT(.hash) SORT_BY_ALIGNMENT(.gnu.hash))
START GROUP
LOAD /home/jongja.cho/Git/legacy/rebel_cds_collab_hw/bootloader/cp/tf-a/build/rebel_h/debug/bl31/bakery_lock.o
LOAD /home/jongja.cho/Git/legacy/rebel_cds_collab_hw/bootloader/cp/tf-a/build/rebel_h/debug/bl31/bl31_context_mgmt.o
LOAD /home/jongja.cho/Git/legacy/rebel_cds_collab_hw/bootloader/cp/tf-a/build/rebel_h/debug/bl31/bl31_main.o
LOAD /home/jongja.cho/Git/legacy/rebel_cds_collab_hw/bootloader/cp/tf-a/build/rebel_h/debug/bl31/bl31_traps.o
LOAD /home/jongja.cho/Git/legacy/rebel_cds_collab_hw/bootloader/cp/tf-a/build/rebel_h/debug/bl31/interrupt_mgmt.o
LOAD /home/jongja.cho/Git/legacy/rebel_cds_collab_hw/bootloader/cp/tf-a/build/rebel_h/debug/bl31/backtrace.o
LOAD /home/jongja.cho/Git/legacy/rebel_cds_collab_hw/bootloader/cp/tf-a/build/rebel_h/debug/bl31/bl_common.o
LOAD /home/jongja.cho/Git/legacy/rebel_cds_collab_hw/bootloader/cp/tf-a/build/rebel_h/debug/bl31/runtime_svc.o
LOAD /home/jongja.cho/Git/legacy/rebel_cds_collab_hw/bootloader/cp/tf-a/build/rebel_h/debug/bl31/tf_log.o
LOAD /home/jongja.cho/Git/legacy/rebel_cds_collab_hw/bootloader/cp/tf-a/build/rebel_h/debug/bl31/arm_gicv3_common.o
LOAD /home/jongja.cho/Git/legacy/rebel_cds_collab_hw/bootloader/cp/tf-a/build/rebel_h/debug/bl31/gic-x00.o
LOAD /home/jongja.cho/Git/legacy/rebel_cds_collab_hw/bootloader/cp/tf-a/build/rebel_h/debug/bl31/gicdv3_helpers.o
LOAD /home/jongja.cho/Git/legacy/rebel_cds_collab_hw/bootloader/cp/tf-a/build/rebel_h/debug/bl31/gicrv3_helpers.o
LOAD /home/jongja.cho/Git/legacy/rebel_cds_collab_hw/bootloader/cp/tf-a/build/rebel_h/debug/bl31/gicv3_helpers.o
LOAD /home/jongja.cho/Git/legacy/rebel_cds_collab_hw/bootloader/cp/tf-a/build/rebel_h/debug/bl31/gicv3_main.o
LOAD /home/jongja.cho/Git/legacy/rebel_cds_collab_hw/bootloader/cp/tf-a/build/rebel_h/debug/bl31/multi_console.o
LOAD /home/jongja.cho/Git/legacy/rebel_cds_collab_hw/bootloader/cp/tf-a/build/rebel_h/debug/bl31/delay_timer.o
LOAD /home/jongja.cho/Git/legacy/rebel_cds_collab_hw/bootloader/cp/tf-a/build/rebel_h/debug/bl31/generic_delay_timer.o
LOAD /home/jongja.cho/Git/legacy/rebel_cds_collab_hw/bootloader/cp/tf-a/build/rebel_h/debug/bl31/mt25q_flash.o
LOAD /home/jongja.cho/Git/legacy/rebel_cds_collab_hw/bootloader/cp/tf-a/build/rebel_h/debug/bl31/qspi_boot.o
LOAD /home/jongja.cho/Git/legacy/rebel_cds_collab_hw/bootloader/cp/tf-a/build/rebel_h/debug/bl31/dw_wdt.o
LOAD /home/jongja.cho/Git/legacy/rebel_cds_collab_hw/bootloader/cp/tf-a/build/rebel_h/debug/bl31/popcountdi2.o
LOAD /home/jongja.cho/Git/legacy/rebel_cds_collab_hw/bootloader/cp/tf-a/build/rebel_h/debug/bl31/popcountsi2.o
LOAD /home/jongja.cho/Git/legacy/rebel_cds_collab_hw/bootloader/cp/tf-a/build/rebel_h/debug/bl31/errata_common.o
LOAD /home/jongja.cho/Git/legacy/rebel_cds_collab_hw/bootloader/cp/tf-a/build/rebel_h/debug/bl31/errata_report.o
LOAD /home/jongja.cho/Git/legacy/rebel_cds_collab_hw/bootloader/cp/tf-a/build/rebel_h/debug/bl31/context_mgmt.o
LOAD /home/jongja.cho/Git/legacy/rebel_cds_collab_hw/bootloader/cp/tf-a/build/rebel_h/debug/bl31/cpu_data_array.o
LOAD /home/jongja.cho/Git/legacy/rebel_cds_collab_hw/bootloader/cp/tf-a/build/rebel_h/debug/bl31/simd_ctx.o
LOAD /home/jongja.cho/Git/legacy/rebel_cds_collab_hw/bootloader/cp/tf-a/build/rebel_h/debug/bl31/mpam.o
LOAD /home/jongja.cho/Git/legacy/rebel_cds_collab_hw/bootloader/cp/tf-a/build/rebel_h/debug/bl31/pmuv3.o
LOAD /home/jongja.cho/Git/legacy/rebel_cds_collab_hw/bootloader/cp/tf-a/build/rebel_h/debug/bl31/spe.o
LOAD /home/jongja.cho/Git/legacy/rebel_cds_collab_hw/bootloader/cp/tf-a/build/rebel_h/debug/bl31/sve.o
LOAD /home/jongja.cho/Git/legacy/rebel_cds_collab_hw/bootloader/cp/tf-a/build/rebel_h/debug/bl31/bakery_lock_coherent.o
LOAD /home/jongja.cho/Git/legacy/rebel_cds_collab_hw/bootloader/cp/tf-a/build/rebel_h/debug/bl31/per_cpu.o
LOAD /home/jongja.cho/Git/legacy/rebel_cds_collab_hw/bootloader/cp/tf-a/build/rebel_h/debug/bl31/psci_common.o
LOAD /home/jongja.cho/Git/legacy/rebel_cds_collab_hw/bootloader/cp/tf-a/build/rebel_h/debug/bl31/psci_main.o
LOAD /home/jongja.cho/Git/legacy/rebel_cds_collab_hw/bootloader/cp/tf-a/build/rebel_h/debug/bl31/psci_mem_protect.o
LOAD /home/jongja.cho/Git/legacy/rebel_cds_collab_hw/bootloader/cp/tf-a/build/rebel_h/debug/bl31/psci_off.o
LOAD /home/jongja.cho/Git/legacy/rebel_cds_collab_hw/bootloader/cp/tf-a/build/rebel_h/debug/bl31/psci_on.o
LOAD /home/jongja.cho/Git/legacy/rebel_cds_collab_hw/bootloader/cp/tf-a/build/rebel_h/debug/bl31/psci_setup.o
LOAD /home/jongja.cho/Git/legacy/rebel_cds_collab_hw/bootloader/cp/tf-a/build/rebel_h/debug/bl31/psci_suspend.o
LOAD /home/jongja.cho/Git/legacy/rebel_cds_collab_hw/bootloader/cp/tf-a/build/rebel_h/debug/bl31/psci_system_off.o
LOAD /home/jongja.cho/Git/legacy/rebel_cds_collab_hw/bootloader/cp/tf-a/build/rebel_h/debug/bl31/xlat_tables_arch.o
LOAD /home/jongja.cho/Git/legacy/rebel_cds_collab_hw/bootloader/cp/tf-a/build/rebel_h/debug/bl31/xlat_tables_context.o
LOAD /home/jongja.cho/Git/legacy/rebel_cds_collab_hw/bootloader/cp/tf-a/build/rebel_h/debug/bl31/xlat_tables_core.o
LOAD /home/jongja.cho/Git/legacy/rebel_cds_collab_hw/bootloader/cp/tf-a/build/rebel_h/debug/bl31/xlat_tables_utils.o
LOAD /home/jongja.cho/Git/legacy/rebel_cds_collab_hw/bootloader/cp/tf-a/build/rebel_h/debug/bl31/arm_gicv3.o
LOAD /home/jongja.cho/Git/legacy/rebel_cds_collab_hw/bootloader/cp/tf-a/build/rebel_h/debug/bl31/plat_common.o
LOAD /home/jongja.cho/Git/legacy/rebel_cds_collab_hw/bootloader/cp/tf-a/build/rebel_h/debug/bl31/plat_bl_common.o
LOAD /home/jongja.cho/Git/legacy/rebel_cds_collab_hw/bootloader/cp/tf-a/build/rebel_h/debug/bl31/plat_gicv3.o
LOAD /home/jongja.cho/Git/legacy/rebel_cds_collab_hw/bootloader/cp/tf-a/build/rebel_h/debug/bl31/plat_log_common.o
LOAD /home/jongja.cho/Git/legacy/rebel_cds_collab_hw/bootloader/cp/tf-a/build/rebel_h/debug/bl31/plat_psci_common.o
LOAD /home/jongja.cho/Git/legacy/rebel_cds_collab_hw/bootloader/cp/tf-a/build/rebel_h/debug/bl31/rebel_sip_svc.o
LOAD /home/jongja.cho/Git/legacy/rebel_cds_collab_hw/bootloader/cp/tf-a/build/rebel_h/debug/bl31/rebel_h_bl31_setup.o
LOAD /home/jongja.cho/Git/legacy/rebel_cds_collab_hw/bootloader/cp/tf-a/build/rebel_h/debug/bl31/rebel_h_plat.o
LOAD /home/jongja.cho/Git/legacy/rebel_cds_collab_hw/bootloader/cp/tf-a/build/rebel_h/debug/bl31/rebel_h_pm.o
LOAD /home/jongja.cho/Git/legacy/rebel_cds_collab_hw/bootloader/cp/tf-a/build/rebel_h/debug/bl31/rebel_h_pmu.o
LOAD /home/jongja.cho/Git/legacy/rebel_cds_collab_hw/bootloader/cp/tf-a/build/rebel_h/debug/bl31/rebel_h_sip_svc.o
LOAD /home/jongja.cho/Git/legacy/rebel_cds_collab_hw/bootloader/cp/tf-a/build/rebel_h/debug/bl31/rebel_h_topology.o
LOAD /home/jongja.cho/Git/legacy/rebel_cds_collab_hw/bootloader/cp/tf-a/build/rebel_h/debug/bl31/arm_arch_svc_setup.o
LOAD /home/jongja.cho/Git/legacy/rebel_cds_collab_hw/bootloader/cp/tf-a/build/rebel_h/debug/bl31/std_svc_setup.o
LOAD /home/jongja.cho/Git/legacy/rebel_cds_collab_hw/bootloader/cp/tf-a/build/rebel_h/debug/bl31/bl31_entrypoint.o
LOAD /home/jongja.cho/Git/legacy/rebel_cds_collab_hw/bootloader/cp/tf-a/build/rebel_h/debug/bl31/crash_reporting.o
LOAD /home/jongja.cho/Git/legacy/rebel_cds_collab_hw/bootloader/cp/tf-a/build/rebel_h/debug/bl31/runtime_exceptions.o
LOAD /home/jongja.cho/Git/legacy/rebel_cds_collab_hw/bootloader/cp/tf-a/build/rebel_h/debug/bl31/debug.o
LOAD /home/jongja.cho/Git/legacy/rebel_cds_collab_hw/bootloader/cp/tf-a/build/rebel_h/debug/bl31/16550_console.o
LOAD /home/jongja.cho/Git/legacy/rebel_cds_collab_hw/bootloader/cp/tf-a/build/rebel_h/debug/bl31/cache_helpers.o
LOAD /home/jongja.cho/Git/legacy/rebel_cds_collab_hw/bootloader/cp/tf-a/build/rebel_h/debug/bl31/misc_helpers.o
LOAD /home/jongja.cho/Git/legacy/rebel_cds_collab_hw/bootloader/cp/tf-a/build/rebel_h/debug/bl31/cortex_a73.o
LOAD /home/jongja.cho/Git/legacy/rebel_cds_collab_hw/bootloader/cp/tf-a/build/rebel_h/debug/bl31/cpu_helpers.o
LOAD /home/jongja.cho/Git/legacy/rebel_cds_collab_hw/bootloader/cp/tf-a/build/rebel_h/debug/bl31/wa_cve_2017_5715_bpiall.o
LOAD /home/jongja.cho/Git/legacy/rebel_cds_collab_hw/bootloader/cp/tf-a/build/rebel_h/debug/bl31/context.o
LOAD /home/jongja.cho/Git/legacy/rebel_cds_collab_hw/bootloader/cp/tf-a/build/rebel_h/debug/bl31/spinlock.o
LOAD /home/jongja.cho/Git/legacy/rebel_cds_collab_hw/bootloader/cp/tf-a/build/rebel_h/debug/bl31/per_cpu_asm.o
LOAD /home/jongja.cho/Git/legacy/rebel_cds_collab_hw/bootloader/cp/tf-a/build/rebel_h/debug/bl31/psci_helpers.o
LOAD /home/jongja.cho/Git/legacy/rebel_cds_collab_hw/bootloader/cp/tf-a/build/rebel_h/debug/bl31/enable_mmu.o
LOAD /home/jongja.cho/Git/legacy/rebel_cds_collab_hw/bootloader/cp/tf-a/build/rebel_h/debug/bl31/platform_helpers.o
LOAD /home/jongja.cho/Git/legacy/rebel_cds_collab_hw/bootloader/cp/tf-a/build/rebel_h/debug/bl31/platform_mp_stack.o
LOAD /home/jongja.cho/Git/legacy/rebel_cds_collab_hw/bootloader/cp/tf-a/build/rebel_h/debug/bl31/plat_helper.o
LOAD /home/jongja.cho/Git/legacy/rebel_cds_collab_hw/bootloader/cp/tf-a/build/rebel_h/debug/lib/libc.a
END GROUP
OUTPUT(/home/jongja.cho/Git/legacy/rebel_cds_collab_hw/bootloader/cp/tf-a/build/rebel_h/debug/bl31/bl31.elf elf64-littleaarch64)
LOAD linker stubs

.debug_info     0x0000000000000000    0x2c25c
 .debug_info    0x0000000000000000      0x23f /home/jongja.cho/Git/legacy/rebel_cds_collab_hw/bootloader/cp/tf-a/build/rebel_h/debug/bl31/bakery_lock.o
 .debug_info    0x000000000000023f      0x689 /home/jongja.cho/Git/legacy/rebel_cds_collab_hw/bootloader/cp/tf-a/build/rebel_h/debug/bl31/bl31_context_mgmt.o
 .debug_info    0x00000000000008c8      0xab8 /home/jongja.cho/Git/legacy/rebel_cds_collab_hw/bootloader/cp/tf-a/build/rebel_h/debug/bl31/bl31_main.o
 .debug_info    0x0000000000001380     0x1128 /home/jongja.cho/Git/legacy/rebel_cds_collab_hw/bootloader/cp/tf-a/build/rebel_h/debug/bl31/bl31_traps.o
 .debug_info    0x00000000000024a8      0x89d /home/jongja.cho/Git/legacy/rebel_cds_collab_hw/bootloader/cp/tf-a/build/rebel_h/debug/bl31/interrupt_mgmt.o
 .debug_info    0x0000000000002d45      0x88b /home/jongja.cho/Git/legacy/rebel_cds_collab_hw/bootloader/cp/tf-a/build/rebel_h/debug/bl31/backtrace.o
 .debug_info    0x00000000000035d0      0x86c /home/jongja.cho/Git/legacy/rebel_cds_collab_hw/bootloader/cp/tf-a/build/rebel_h/debug/bl31/bl_common.o
 .debug_info    0x0000000000003e3c      0xa40 /home/jongja.cho/Git/legacy/rebel_cds_collab_hw/bootloader/cp/tf-a/build/rebel_h/debug/bl31/runtime_svc.o
 .debug_info    0x000000000000487c      0x34b /home/jongja.cho/Git/legacy/rebel_cds_collab_hw/bootloader/cp/tf-a/build/rebel_h/debug/bl31/tf_log.o
 .debug_info    0x0000000000004bc7      0xaa9 /home/jongja.cho/Git/legacy/rebel_cds_collab_hw/bootloader/cp/tf-a/build/rebel_h/debug/bl31/gic-x00.o
 .debug_info    0x0000000000005670     0x116a /home/jongja.cho/Git/legacy/rebel_cds_collab_hw/bootloader/cp/tf-a/build/rebel_h/debug/bl31/gicdv3_helpers.o
 .debug_info    0x00000000000067da      0xa65 /home/jongja.cho/Git/legacy/rebel_cds_collab_hw/bootloader/cp/tf-a/build/rebel_h/debug/bl31/gicrv3_helpers.o
 .debug_info    0x000000000000723f     0x1663 /home/jongja.cho/Git/legacy/rebel_cds_collab_hw/bootloader/cp/tf-a/build/rebel_h/debug/bl31/gicv3_helpers.o
 .debug_info    0x00000000000088a2     0x5956 /home/jongja.cho/Git/legacy/rebel_cds_collab_hw/bootloader/cp/tf-a/build/rebel_h/debug/bl31/gicv3_main.o
 .debug_info    0x000000000000e1f8      0x513 /home/jongja.cho/Git/legacy/rebel_cds_collab_hw/bootloader/cp/tf-a/build/rebel_h/debug/bl31/multi_console.o
 .debug_info    0x000000000000e70b      0xe6b /home/jongja.cho/Git/legacy/rebel_cds_collab_hw/bootloader/cp/tf-a/build/rebel_h/debug/bl31/mt25q_flash.o
 .debug_info    0x000000000000f576     0x2be4 /home/jongja.cho/Git/legacy/rebel_cds_collab_hw/bootloader/cp/tf-a/build/rebel_h/debug/bl31/qspi_boot.o
 .debug_info    0x000000000001215a      0x3fd /home/jongja.cho/Git/legacy/rebel_cds_collab_hw/bootloader/cp/tf-a/build/rebel_h/debug/bl31/errata_common.o
 .debug_info    0x0000000000012557      0x82d /home/jongja.cho/Git/legacy/rebel_cds_collab_hw/bootloader/cp/tf-a/build/rebel_h/debug/bl31/errata_report.o
 .debug_info    0x0000000000012d84     0x3839 /home/jongja.cho/Git/legacy/rebel_cds_collab_hw/bootloader/cp/tf-a/build/rebel_h/debug/bl31/context_mgmt.o
 .debug_info    0x00000000000165bd      0x537 /home/jongja.cho/Git/legacy/rebel_cds_collab_hw/bootloader/cp/tf-a/build/rebel_h/debug/bl31/cpu_data_array.o
 .debug_info    0x0000000000016af4      0x383 /home/jongja.cho/Git/legacy/rebel_cds_collab_hw/bootloader/cp/tf-a/build/rebel_h/debug/bl31/mpam.o
 .debug_info    0x0000000000016e77      0x710 /home/jongja.cho/Git/legacy/rebel_cds_collab_hw/bootloader/cp/tf-a/build/rebel_h/debug/bl31/pmuv3.o
 .debug_info    0x0000000000017587      0x666 /home/jongja.cho/Git/legacy/rebel_cds_collab_hw/bootloader/cp/tf-a/build/rebel_h/debug/bl31/spe.o
 .debug_info    0x0000000000017bed      0x323 /home/jongja.cho/Git/legacy/rebel_cds_collab_hw/bootloader/cp/tf-a/build/rebel_h/debug/bl31/sve.o
 .debug_info    0x0000000000017f10      0x6a0 /home/jongja.cho/Git/legacy/rebel_cds_collab_hw/bootloader/cp/tf-a/build/rebel_h/debug/bl31/bakery_lock_coherent.o
 .debug_info    0x00000000000185b0      0x286 /home/jongja.cho/Git/legacy/rebel_cds_collab_hw/bootloader/cp/tf-a/build/rebel_h/debug/bl31/per_cpu.o
 .debug_info    0x0000000000018836     0x29ad /home/jongja.cho/Git/legacy/rebel_cds_collab_hw/bootloader/cp/tf-a/build/rebel_h/debug/bl31/psci_common.o
 .debug_info    0x000000000001b1e3     0x18ed /home/jongja.cho/Git/legacy/rebel_cds_collab_hw/bootloader/cp/tf-a/build/rebel_h/debug/bl31/psci_main.o
 .debug_info    0x000000000001cad0      0x53a /home/jongja.cho/Git/legacy/rebel_cds_collab_hw/bootloader/cp/tf-a/build/rebel_h/debug/bl31/psci_mem_protect.o
 .debug_info    0x000000000001d00a      0xd2b /home/jongja.cho/Git/legacy/rebel_cds_collab_hw/bootloader/cp/tf-a/build/rebel_h/debug/bl31/psci_off.o
 .debug_info    0x000000000001dd35     0x1123 /home/jongja.cho/Git/legacy/rebel_cds_collab_hw/bootloader/cp/tf-a/build/rebel_h/debug/bl31/psci_on.o
 .debug_info    0x000000000001ee58     0x146a /home/jongja.cho/Git/legacy/rebel_cds_collab_hw/bootloader/cp/tf-a/build/rebel_h/debug/bl31/psci_setup.o
 .debug_info    0x00000000000202c2     0x1185 /home/jongja.cho/Git/legacy/rebel_cds_collab_hw/bootloader/cp/tf-a/build/rebel_h/debug/bl31/psci_suspend.o
 .debug_info    0x0000000000021447      0x71c /home/jongja.cho/Git/legacy/rebel_cds_collab_hw/bootloader/cp/tf-a/build/rebel_h/debug/bl31/psci_system_off.o
 .debug_info    0x0000000000021b63      0xe42 /home/jongja.cho/Git/legacy/rebel_cds_collab_hw/bootloader/cp/tf-a/build/rebel_h/debug/bl31/xlat_tables_arch.o
 .debug_info    0x00000000000229a5      0xa5e /home/jongja.cho/Git/legacy/rebel_cds_collab_hw/bootloader/cp/tf-a/build/rebel_h/debug/bl31/xlat_tables_context.o
 .debug_info    0x0000000000023403      0xcbb /home/jongja.cho/Git/legacy/rebel_cds_collab_hw/bootloader/cp/tf-a/build/rebel_h/debug/bl31/arm_gicv3.o
 .debug_info    0x00000000000240be      0x233 /home/jongja.cho/Git/legacy/rebel_cds_collab_hw/bootloader/cp/tf-a/build/rebel_h/debug/bl31/plat_common.o
 .debug_info    0x00000000000242f1      0x5ed /home/jongja.cho/Git/legacy/rebel_cds_collab_hw/bootloader/cp/tf-a/build/rebel_h/debug/bl31/plat_bl_common.o
 .debug_info    0x00000000000248de      0xfa0 /home/jongja.cho/Git/legacy/rebel_cds_collab_hw/bootloader/cp/tf-a/build/rebel_h/debug/bl31/plat_gicv3.o
 .debug_info    0x000000000002587e      0x1a5 /home/jongja.cho/Git/legacy/rebel_cds_collab_hw/bootloader/cp/tf-a/build/rebel_h/debug/bl31/plat_log_common.o
 .debug_info    0x0000000000025a23      0x211 /home/jongja.cho/Git/legacy/rebel_cds_collab_hw/bootloader/cp/tf-a/build/rebel_h/debug/bl31/plat_psci_common.o
 .debug_info    0x0000000000025c34      0x7da /home/jongja.cho/Git/legacy/rebel_cds_collab_hw/bootloader/cp/tf-a/build/rebel_h/debug/bl31/rebel_sip_svc.o
 .debug_info    0x000000000002640e     0x19f8 /home/jongja.cho/Git/legacy/rebel_cds_collab_hw/bootloader/cp/tf-a/build/rebel_h/debug/bl31/rebel_h_bl31_setup.o
 .debug_info    0x0000000000027e06      0x972 /home/jongja.cho/Git/legacy/rebel_cds_collab_hw/bootloader/cp/tf-a/build/rebel_h/debug/bl31/rebel_h_pm.o
 .debug_info    0x0000000000028778      0xbb8 /home/jongja.cho/Git/legacy/rebel_cds_collab_hw/bootloader/cp/tf-a/build/rebel_h/debug/bl31/rebel_h_pmu.o
 .debug_info    0x0000000000029330      0x70f /home/jongja.cho/Git/legacy/rebel_cds_collab_hw/bootloader/cp/tf-a/build/rebel_h/debug/bl31/rebel_h_sip_svc.o
 .debug_info    0x0000000000029a3f      0x1e7 /home/jongja.cho/Git/legacy/rebel_cds_collab_hw/bootloader/cp/tf-a/build/rebel_h/debug/bl31/rebel_h_topology.o
 .debug_info    0x0000000000029c26      0x90c /home/jongja.cho/Git/legacy/rebel_cds_collab_hw/bootloader/cp/tf-a/build/rebel_h/debug/bl31/arm_arch_svc_setup.o
 .debug_info    0x000000000002a532      0x958 /home/jongja.cho/Git/legacy/rebel_cds_collab_hw/bootloader/cp/tf-a/build/rebel_h/debug/bl31/std_svc_setup.o
 .debug_info    0x000000000002ae8a       0x44 /home/jongja.cho/Git/legacy/rebel_cds_collab_hw/bootloader/cp/tf-a/build/rebel_h/debug/bl31/bl31_entrypoint.o
 .debug_info    0x000000000002aece       0xbf /home/jongja.cho/Git/legacy/rebel_cds_collab_hw/bootloader/cp/tf-a/build/rebel_h/debug/bl31/crash_reporting.o
 .debug_info    0x000000000002af8d       0x62 /home/jongja.cho/Git/legacy/rebel_cds_collab_hw/bootloader/cp/tf-a/build/rebel_h/debug/bl31/runtime_exceptions.o
 .debug_info    0x000000000002afef       0x7e /home/jongja.cho/Git/legacy/rebel_cds_collab_hw/bootloader/cp/tf-a/build/rebel_h/debug/bl31/debug.o
 .debug_info    0x000000000002b06d       0xa4 /home/jongja.cho/Git/legacy/rebel_cds_collab_hw/bootloader/cp/tf-a/build/rebel_h/debug/bl31/16550_console.o
 .debug_info    0x000000000002b111       0xe0 /home/jongja.cho/Git/legacy/rebel_cds_collab_hw/bootloader/cp/tf-a/build/rebel_h/debug/bl31/cache_helpers.o
 .debug_info    0x000000000002b1f1       0xbf /home/jongja.cho/Git/legacy/rebel_cds_collab_hw/bootloader/cp/tf-a/build/rebel_h/debug/bl31/misc_helpers.o
 .debug_info    0x000000000002b2b0       0xd5 /home/jongja.cho/Git/legacy/rebel_cds_collab_hw/bootloader/cp/tf-a/build/rebel_h/debug/bl31/cortex_a73.o
 .debug_info    0x000000000002b385       0x51 /home/jongja.cho/Git/legacy/rebel_cds_collab_hw/bootloader/cp/tf-a/build/rebel_h/debug/bl31/cpu_helpers.o
 .debug_info    0x000000000002b3d6       0x33 /home/jongja.cho/Git/legacy/rebel_cds_collab_hw/bootloader/cp/tf-a/build/rebel_h/debug/bl31/wa_cve_2017_5715_bpiall.o
 .debug_info    0x000000000002b409       0x53 /home/jongja.cho/Git/legacy/rebel_cds_collab_hw/bootloader/cp/tf-a/build/rebel_h/debug/bl31/context.o
 .debug_info    0x000000000002b45c       0x51 /home/jongja.cho/Git/legacy/rebel_cds_collab_hw/bootloader/cp/tf-a/build/rebel_h/debug/bl31/spinlock.o
 .debug_info    0x000000000002b4ad       0x38 /home/jongja.cho/Git/legacy/rebel_cds_collab_hw/bootloader/cp/tf-a/build/rebel_h/debug/bl31/per_cpu_asm.o
 .debug_info    0x000000000002b4e5       0x42 /home/jongja.cho/Git/legacy/rebel_cds_collab_hw/bootloader/cp/tf-a/build/rebel_h/debug/bl31/psci_helpers.o
 .debug_info    0x000000000002b527       0x61 /home/jongja.cho/Git/legacy/rebel_cds_collab_hw/bootloader/cp/tf-a/build/rebel_h/debug/bl31/enable_mmu.o
 .debug_info    0x000000000002b588       0xc4 /home/jongja.cho/Git/legacy/rebel_cds_collab_hw/bootloader/cp/tf-a/build/rebel_h/debug/bl31/platform_helpers.o
 .debug_info    0x000000000002b64c       0x42 /home/jongja.cho/Git/legacy/rebel_cds_collab_hw/bootloader/cp/tf-a/build/rebel_h/debug/bl31/platform_mp_stack.o
 .debug_info    0x000000000002b68e       0xb4 /home/jongja.cho/Git/legacy/rebel_cds_collab_hw/bootloader/cp/tf-a/build/rebel_h/debug/bl31/plat_helper.o
 .debug_info    0x000000000002b742      0x15a /home/jongja.cho/Git/legacy/rebel_cds_collab_hw/bootloader/cp/tf-a/build/rebel_h/debug/lib/libc.a(assert.o)
 .debug_info    0x000000000002b89c       0xdc /home/jongja.cho/Git/legacy/rebel_cds_collab_hw/bootloader/cp/tf-a/build/rebel_h/debug/lib/libc.a(memcpy.o)
 .debug_info    0x000000000002b978      0x793 /home/jongja.cho/Git/legacy/rebel_cds_collab_hw/bootloader/cp/tf-a/build/rebel_h/debug/lib/libc.a(printf.o)
 .debug_info    0x000000000002c10b      0x151 /home/jongja.cho/Git/legacy/rebel_cds_collab_hw/bootloader/cp/tf-a/build/rebel_h/debug/lib/libc.a(memset.o)

.debug_abbrev   0x0000000000000000     0x9221
 .debug_abbrev  0x0000000000000000       0xeb /home/jongja.cho/Git/legacy/rebel_cds_collab_hw/bootloader/cp/tf-a/build/rebel_h/debug/bl31/bakery_lock.o
 .debug_abbrev  0x00000000000000eb      0x1f4 /home/jongja.cho/Git/legacy/rebel_cds_collab_hw/bootloader/cp/tf-a/build/rebel_h/debug/bl31/bl31_context_mgmt.o
 .debug_abbrev  0x00000000000002df      0x3bc /home/jongja.cho/Git/legacy/rebel_cds_collab_hw/bootloader/cp/tf-a/build/rebel_h/debug/bl31/bl31_main.o
 .debug_abbrev  0x000000000000069b      0x35b /home/jongja.cho/Git/legacy/rebel_cds_collab_hw/bootloader/cp/tf-a/build/rebel_h/debug/bl31/bl31_traps.o
 .debug_abbrev  0x00000000000009f6      0x28b /home/jongja.cho/Git/legacy/rebel_cds_collab_hw/bootloader/cp/tf-a/build/rebel_h/debug/bl31/interrupt_mgmt.o
 .debug_abbrev  0x0000000000000c81      0x2ea /home/jongja.cho/Git/legacy/rebel_cds_collab_hw/bootloader/cp/tf-a/build/rebel_h/debug/bl31/backtrace.o
 .debug_abbrev  0x0000000000000f6b      0x29d /home/jongja.cho/Git/legacy/rebel_cds_collab_hw/bootloader/cp/tf-a/build/rebel_h/debug/bl31/bl_common.o
 .debug_abbrev  0x0000000000001208      0x315 /home/jongja.cho/Git/legacy/rebel_cds_collab_hw/bootloader/cp/tf-a/build/rebel_h/debug/bl31/runtime_svc.o
 .debug_abbrev  0x000000000000151d      0x169 /home/jongja.cho/Git/legacy/rebel_cds_collab_hw/bootloader/cp/tf-a/build/rebel_h/debug/bl31/tf_log.o
 .debug_abbrev  0x0000000000001686      0x305 /home/jongja.cho/Git/legacy/rebel_cds_collab_hw/bootloader/cp/tf-a/build/rebel_h/debug/bl31/gic-x00.o
 .debug_abbrev  0x000000000000198b      0x16a /home/jongja.cho/Git/legacy/rebel_cds_collab_hw/bootloader/cp/tf-a/build/rebel_h/debug/bl31/gicdv3_helpers.o
 .debug_abbrev  0x0000000000001af5      0x16a /home/jongja.cho/Git/legacy/rebel_cds_collab_hw/bootloader/cp/tf-a/build/rebel_h/debug/bl31/gicrv3_helpers.o
 .debug_abbrev  0x0000000000001c5f      0x3d1 /home/jongja.cho/Git/legacy/rebel_cds_collab_hw/bootloader/cp/tf-a/build/rebel_h/debug/bl31/gicv3_helpers.o
 .debug_abbrev  0x0000000000002030      0x59d /home/jongja.cho/Git/legacy/rebel_cds_collab_hw/bootloader/cp/tf-a/build/rebel_h/debug/bl31/gicv3_main.o
 .debug_abbrev  0x00000000000025cd      0x257 /home/jongja.cho/Git/legacy/rebel_cds_collab_hw/bootloader/cp/tf-a/build/rebel_h/debug/bl31/multi_console.o
 .debug_abbrev  0x0000000000002824      0x2f9 /home/jongja.cho/Git/legacy/rebel_cds_collab_hw/bootloader/cp/tf-a/build/rebel_h/debug/bl31/mt25q_flash.o
 .debug_abbrev  0x0000000000002b1d      0x411 /home/jongja.cho/Git/legacy/rebel_cds_collab_hw/bootloader/cp/tf-a/build/rebel_h/debug/bl31/qspi_boot.o
 .debug_abbrev  0x0000000000002f2e      0x1fb /home/jongja.cho/Git/legacy/rebel_cds_collab_hw/bootloader/cp/tf-a/build/rebel_h/debug/bl31/errata_common.o
 .debug_abbrev  0x0000000000003129      0x2cd /home/jongja.cho/Git/legacy/rebel_cds_collab_hw/bootloader/cp/tf-a/build/rebel_h/debug/bl31/errata_report.o
 .debug_abbrev  0x00000000000033f6      0x5ac /home/jongja.cho/Git/legacy/rebel_cds_collab_hw/bootloader/cp/tf-a/build/rebel_h/debug/bl31/context_mgmt.o
 .debug_abbrev  0x00000000000039a2      0x1e2 /home/jongja.cho/Git/legacy/rebel_cds_collab_hw/bootloader/cp/tf-a/build/rebel_h/debug/bl31/cpu_data_array.o
 .debug_abbrev  0x0000000000003b84      0x188 /home/jongja.cho/Git/legacy/rebel_cds_collab_hw/bootloader/cp/tf-a/build/rebel_h/debug/bl31/mpam.o
 .debug_abbrev  0x0000000000003d0c      0x266 /home/jongja.cho/Git/legacy/rebel_cds_collab_hw/bootloader/cp/tf-a/build/rebel_h/debug/bl31/pmuv3.o
 .debug_abbrev  0x0000000000003f72      0x27d /home/jongja.cho/Git/legacy/rebel_cds_collab_hw/bootloader/cp/tf-a/build/rebel_h/debug/bl31/spe.o
 .debug_abbrev  0x00000000000041ef      0x17c /home/jongja.cho/Git/legacy/rebel_cds_collab_hw/bootloader/cp/tf-a/build/rebel_h/debug/bl31/sve.o
 .debug_abbrev  0x000000000000436b      0x205 /home/jongja.cho/Git/legacy/rebel_cds_collab_hw/bootloader/cp/tf-a/build/rebel_h/debug/bl31/bakery_lock_coherent.o
 .debug_abbrev  0x0000000000004570      0x158 /home/jongja.cho/Git/legacy/rebel_cds_collab_hw/bootloader/cp/tf-a/build/rebel_h/debug/bl31/per_cpu.o
 .debug_abbrev  0x00000000000046c8      0x606 /home/jongja.cho/Git/legacy/rebel_cds_collab_hw/bootloader/cp/tf-a/build/rebel_h/debug/bl31/psci_common.o
 .debug_abbrev  0x0000000000004cce      0x4d8 /home/jongja.cho/Git/legacy/rebel_cds_collab_hw/bootloader/cp/tf-a/build/rebel_h/debug/bl31/psci_main.o
 .debug_abbrev  0x00000000000051a6      0x184 /home/jongja.cho/Git/legacy/rebel_cds_collab_hw/bootloader/cp/tf-a/build/rebel_h/debug/bl31/psci_mem_protect.o
 .debug_abbrev  0x000000000000532a      0x358 /home/jongja.cho/Git/legacy/rebel_cds_collab_hw/bootloader/cp/tf-a/build/rebel_h/debug/bl31/psci_off.o
 .debug_abbrev  0x0000000000005682      0x379 /home/jongja.cho/Git/legacy/rebel_cds_collab_hw/bootloader/cp/tf-a/build/rebel_h/debug/bl31/psci_on.o
 .debug_abbrev  0x00000000000059fb      0x4d3 /home/jongja.cho/Git/legacy/rebel_cds_collab_hw/bootloader/cp/tf-a/build/rebel_h/debug/bl31/psci_setup.o
 .debug_abbrev  0x0000000000005ece      0x460 /home/jongja.cho/Git/legacy/rebel_cds_collab_hw/bootloader/cp/tf-a/build/rebel_h/debug/bl31/psci_suspend.o
 .debug_abbrev  0x000000000000632e      0x1ef /home/jongja.cho/Git/legacy/rebel_cds_collab_hw/bootloader/cp/tf-a/build/rebel_h/debug/bl31/psci_system_off.o
 .debug_abbrev  0x000000000000651d      0x363 /home/jongja.cho/Git/legacy/rebel_cds_collab_hw/bootloader/cp/tf-a/build/rebel_h/debug/bl31/xlat_tables_arch.o
 .debug_abbrev  0x0000000000006880      0x25a /home/jongja.cho/Git/legacy/rebel_cds_collab_hw/bootloader/cp/tf-a/build/rebel_h/debug/bl31/xlat_tables_context.o
 .debug_abbrev  0x0000000000006ada      0x2e6 /home/jongja.cho/Git/legacy/rebel_cds_collab_hw/bootloader/cp/tf-a/build/rebel_h/debug/bl31/arm_gicv3.o
 .debug_abbrev  0x0000000000006dc0      0x15a /home/jongja.cho/Git/legacy/rebel_cds_collab_hw/bootloader/cp/tf-a/build/rebel_h/debug/bl31/plat_common.o
 .debug_abbrev  0x0000000000006f1a      0x2ee /home/jongja.cho/Git/legacy/rebel_cds_collab_hw/bootloader/cp/tf-a/build/rebel_h/debug/bl31/plat_bl_common.o
 .debug_abbrev  0x0000000000007208      0x3b6 /home/jongja.cho/Git/legacy/rebel_cds_collab_hw/bootloader/cp/tf-a/build/rebel_h/debug/bl31/plat_gicv3.o
 .debug_abbrev  0x00000000000075be       0xbf /home/jongja.cho/Git/legacy/rebel_cds_collab_hw/bootloader/cp/tf-a/build/rebel_h/debug/bl31/plat_log_common.o
 .debug_abbrev  0x000000000000767d       0xe7 /home/jongja.cho/Git/legacy/rebel_cds_collab_hw/bootloader/cp/tf-a/build/rebel_h/debug/bl31/plat_psci_common.o
 .debug_abbrev  0x0000000000007764      0x1fe /home/jongja.cho/Git/legacy/rebel_cds_collab_hw/bootloader/cp/tf-a/build/rebel_h/debug/bl31/rebel_sip_svc.o
 .debug_abbrev  0x0000000000007962      0x3ba /home/jongja.cho/Git/legacy/rebel_cds_collab_hw/bootloader/cp/tf-a/build/rebel_h/debug/bl31/rebel_h_bl31_setup.o
 .debug_abbrev  0x0000000000007d1c      0x2c8 /home/jongja.cho/Git/legacy/rebel_cds_collab_hw/bootloader/cp/tf-a/build/rebel_h/debug/bl31/rebel_h_pm.o
 .debug_abbrev  0x0000000000007fe4      0x2a6 /home/jongja.cho/Git/legacy/rebel_cds_collab_hw/bootloader/cp/tf-a/build/rebel_h/debug/bl31/rebel_h_pmu.o
 .debug_abbrev  0x000000000000828a      0x25c /home/jongja.cho/Git/legacy/rebel_cds_collab_hw/bootloader/cp/tf-a/build/rebel_h/debug/bl31/rebel_h_sip_svc.o
 .debug_abbrev  0x00000000000084e6       0xdd /home/jongja.cho/Git/legacy/rebel_cds_collab_hw/bootloader/cp/tf-a/build/rebel_h/debug/bl31/rebel_h_topology.o
 .debug_abbrev  0x00000000000085c3      0x2c6 /home/jongja.cho/Git/legacy/rebel_cds_collab_hw/bootloader/cp/tf-a/build/rebel_h/debug/bl31/arm_arch_svc_setup.o
 .debug_abbrev  0x0000000000008889      0x24d /home/jongja.cho/Git/legacy/rebel_cds_collab_hw/bootloader/cp/tf-a/build/rebel_h/debug/bl31/std_svc_setup.o
 .debug_abbrev  0x0000000000008ad6       0x26 /home/jongja.cho/Git/legacy/rebel_cds_collab_hw/bootloader/cp/tf-a/build/rebel_h/debug/bl31/bl31_entrypoint.o
 .debug_abbrev  0x0000000000008afc       0x26 /home/jongja.cho/Git/legacy/rebel_cds_collab_hw/bootloader/cp/tf-a/build/rebel_h/debug/bl31/crash_reporting.o
 .debug_abbrev  0x0000000000008b22       0x24 /home/jongja.cho/Git/legacy/rebel_cds_collab_hw/bootloader/cp/tf-a/build/rebel_h/debug/bl31/runtime_exceptions.o
 .debug_abbrev  0x0000000000008b46       0x26 /home/jongja.cho/Git/legacy/rebel_cds_collab_hw/bootloader/cp/tf-a/build/rebel_h/debug/bl31/debug.o
 .debug_abbrev  0x0000000000008b6c       0x26 /home/jongja.cho/Git/legacy/rebel_cds_collab_hw/bootloader/cp/tf-a/build/rebel_h/debug/bl31/16550_console.o
 .debug_abbrev  0x0000000000008b92       0x26 /home/jongja.cho/Git/legacy/rebel_cds_collab_hw/bootloader/cp/tf-a/build/rebel_h/debug/bl31/cache_helpers.o
 .debug_abbrev  0x0000000000008bb8       0x26 /home/jongja.cho/Git/legacy/rebel_cds_collab_hw/bootloader/cp/tf-a/build/rebel_h/debug/bl31/misc_helpers.o
 .debug_abbrev  0x0000000000008bde       0x24 /home/jongja.cho/Git/legacy/rebel_cds_collab_hw/bootloader/cp/tf-a/build/rebel_h/debug/bl31/cortex_a73.o
 .debug_abbrev  0x0000000000008c02       0x26 /home/jongja.cho/Git/legacy/rebel_cds_collab_hw/bootloader/cp/tf-a/build/rebel_h/debug/bl31/cpu_helpers.o
 .debug_abbrev  0x0000000000008c28       0x24 /home/jongja.cho/Git/legacy/rebel_cds_collab_hw/bootloader/cp/tf-a/build/rebel_h/debug/bl31/wa_cve_2017_5715_bpiall.o
 .debug_abbrev  0x0000000000008c4c       0x26 /home/jongja.cho/Git/legacy/rebel_cds_collab_hw/bootloader/cp/tf-a/build/rebel_h/debug/bl31/context.o
 .debug_abbrev  0x0000000000008c72       0x26 /home/jongja.cho/Git/legacy/rebel_cds_collab_hw/bootloader/cp/tf-a/build/rebel_h/debug/bl31/spinlock.o
 .debug_abbrev  0x0000000000008c98       0x28 /home/jongja.cho/Git/legacy/rebel_cds_collab_hw/bootloader/cp/tf-a/build/rebel_h/debug/bl31/per_cpu_asm.o
 .debug_abbrev  0x0000000000008cc0       0x26 /home/jongja.cho/Git/legacy/rebel_cds_collab_hw/bootloader/cp/tf-a/build/rebel_h/debug/bl31/psci_helpers.o
 .debug_abbrev  0x0000000000008ce6       0x26 /home/jongja.cho/Git/legacy/rebel_cds_collab_hw/bootloader/cp/tf-a/build/rebel_h/debug/bl31/enable_mmu.o
 .debug_abbrev  0x0000000000008d0c       0x24 /home/jongja.cho/Git/legacy/rebel_cds_collab_hw/bootloader/cp/tf-a/build/rebel_h/debug/bl31/platform_helpers.o
 .debug_abbrev  0x0000000000008d30       0x24 /home/jongja.cho/Git/legacy/rebel_cds_collab_hw/bootloader/cp/tf-a/build/rebel_h/debug/bl31/platform_mp_stack.o
 .debug_abbrev  0x0000000000008d54       0x26 /home/jongja.cho/Git/legacy/rebel_cds_collab_hw/bootloader/cp/tf-a/build/rebel_h/debug/bl31/plat_helper.o
 .debug_abbrev  0x0000000000008d7a       0xde /home/jongja.cho/Git/legacy/rebel_cds_collab_hw/bootloader/cp/tf-a/build/rebel_h/debug/lib/libc.a(assert.o)
 .debug_abbrev  0x0000000000008e58       0xa1 /home/jongja.cho/Git/legacy/rebel_cds_collab_hw/bootloader/cp/tf-a/build/rebel_h/debug/lib/libc.a(memcpy.o)
 .debug_abbrev  0x0000000000008ef9      0x260 /home/jongja.cho/Git/legacy/rebel_cds_collab_hw/bootloader/cp/tf-a/build/rebel_h/debug/lib/libc.a(printf.o)
 .debug_abbrev  0x0000000000009159       0xc8 /home/jongja.cho/Git/legacy/rebel_cds_collab_hw/bootloader/cp/tf-a/build/rebel_h/debug/lib/libc.a(memset.o)

.debug_loc      0x0000000000000000    0x2436f
 .debug_loc     0x0000000000000000      0x300 /home/jongja.cho/Git/legacy/rebel_cds_collab_hw/bootloader/cp/tf-a/build/rebel_h/debug/bl31/bakery_lock.o
 .debug_loc     0x0000000000000300      0x3e2 /home/jongja.cho/Git/legacy/rebel_cds_collab_hw/bootloader/cp/tf-a/build/rebel_h/debug/bl31/bl31_context_mgmt.o
 .debug_loc     0x00000000000006e2      0x3eb /home/jongja.cho/Git/legacy/rebel_cds_collab_hw/bootloader/cp/tf-a/build/rebel_h/debug/bl31/bl31_main.o
 .debug_loc     0x0000000000000acd      0xf23 /home/jongja.cho/Git/legacy/rebel_cds_collab_hw/bootloader/cp/tf-a/build/rebel_h/debug/bl31/bl31_traps.o
 .debug_loc     0x00000000000019f0      0xa5b /home/jongja.cho/Git/legacy/rebel_cds_collab_hw/bootloader/cp/tf-a/build/rebel_h/debug/bl31/interrupt_mgmt.o
 .debug_loc     0x000000000000244b      0x6a6 /home/jongja.cho/Git/legacy/rebel_cds_collab_hw/bootloader/cp/tf-a/build/rebel_h/debug/bl31/backtrace.o
 .debug_loc     0x0000000000002af1      0x56f /home/jongja.cho/Git/legacy/rebel_cds_collab_hw/bootloader/cp/tf-a/build/rebel_h/debug/bl31/bl_common.o
 .debug_loc     0x0000000000003060      0x6de /home/jongja.cho/Git/legacy/rebel_cds_collab_hw/bootloader/cp/tf-a/build/rebel_h/debug/bl31/runtime_svc.o
 .debug_loc     0x000000000000373e      0x1fa /home/jongja.cho/Git/legacy/rebel_cds_collab_hw/bootloader/cp/tf-a/build/rebel_h/debug/bl31/tf_log.o
 .debug_loc     0x0000000000003938      0x704 /home/jongja.cho/Git/legacy/rebel_cds_collab_hw/bootloader/cp/tf-a/build/rebel_h/debug/bl31/gic-x00.o
 .debug_loc     0x000000000000403c     0x22ae /home/jongja.cho/Git/legacy/rebel_cds_collab_hw/bootloader/cp/tf-a/build/rebel_h/debug/bl31/gicdv3_helpers.o
 .debug_loc     0x00000000000062ea     0x1662 /home/jongja.cho/Git/legacy/rebel_cds_collab_hw/bootloader/cp/tf-a/build/rebel_h/debug/bl31/gicrv3_helpers.o
 .debug_loc     0x000000000000794c     0x179b /home/jongja.cho/Git/legacy/rebel_cds_collab_hw/bootloader/cp/tf-a/build/rebel_h/debug/bl31/gicv3_helpers.o
 .debug_loc     0x00000000000090e7     0x5d38 /home/jongja.cho/Git/legacy/rebel_cds_collab_hw/bootloader/cp/tf-a/build/rebel_h/debug/bl31/gicv3_main.o
 .debug_loc     0x000000000000ee1f      0x510 /home/jongja.cho/Git/legacy/rebel_cds_collab_hw/bootloader/cp/tf-a/build/rebel_h/debug/bl31/multi_console.o
 .debug_loc     0x000000000000f32f     0x1006 /home/jongja.cho/Git/legacy/rebel_cds_collab_hw/bootloader/cp/tf-a/build/rebel_h/debug/bl31/mt25q_flash.o
 .debug_loc     0x0000000000010335      0xdd7 /home/jongja.cho/Git/legacy/rebel_cds_collab_hw/bootloader/cp/tf-a/build/rebel_h/debug/bl31/qspi_boot.o
 .debug_loc     0x000000000001110c      0x296 /home/jongja.cho/Git/legacy/rebel_cds_collab_hw/bootloader/cp/tf-a/build/rebel_h/debug/bl31/errata_common.o
 .debug_loc     0x00000000000113a2      0x2e7 /home/jongja.cho/Git/legacy/rebel_cds_collab_hw/bootloader/cp/tf-a/build/rebel_h/debug/bl31/errata_report.o
 .debug_loc     0x0000000000011689     0x204c /home/jongja.cho/Git/legacy/rebel_cds_collab_hw/bootloader/cp/tf-a/build/rebel_h/debug/bl31/context_mgmt.o
 .debug_loc     0x00000000000136d5       0x3a /home/jongja.cho/Git/legacy/rebel_cds_collab_hw/bootloader/cp/tf-a/build/rebel_h/debug/bl31/cpu_data_array.o
 .debug_loc     0x000000000001370f       0xcf /home/jongja.cho/Git/legacy/rebel_cds_collab_hw/bootloader/cp/tf-a/build/rebel_h/debug/bl31/mpam.o
 .debug_loc     0x00000000000137de      0x26d /home/jongja.cho/Git/legacy/rebel_cds_collab_hw/bootloader/cp/tf-a/build/rebel_h/debug/bl31/pmuv3.o
 .debug_loc     0x0000000000013a4b      0x22f /home/jongja.cho/Git/legacy/rebel_cds_collab_hw/bootloader/cp/tf-a/build/rebel_h/debug/bl31/spe.o
 .debug_loc     0x0000000000013c7a      0x18c /home/jongja.cho/Git/legacy/rebel_cds_collab_hw/bootloader/cp/tf-a/build/rebel_h/debug/bl31/sve.o
 .debug_loc     0x0000000000013e06      0x4e1 /home/jongja.cho/Git/legacy/rebel_cds_collab_hw/bootloader/cp/tf-a/build/rebel_h/debug/bl31/bakery_lock_coherent.o
 .debug_loc     0x00000000000142e7      0x116 /home/jongja.cho/Git/legacy/rebel_cds_collab_hw/bootloader/cp/tf-a/build/rebel_h/debug/bl31/per_cpu.o
 .debug_loc     0x00000000000143fd     0x2874 /home/jongja.cho/Git/legacy/rebel_cds_collab_hw/bootloader/cp/tf-a/build/rebel_h/debug/bl31/psci_common.o
 .debug_loc     0x0000000000016c71     0x2510 /home/jongja.cho/Git/legacy/rebel_cds_collab_hw/bootloader/cp/tf-a/build/rebel_h/debug/bl31/psci_main.o
 .debug_loc     0x0000000000019181      0x1ba /home/jongja.cho/Git/legacy/rebel_cds_collab_hw/bootloader/cp/tf-a/build/rebel_h/debug/bl31/psci_mem_protect.o
 .debug_loc     0x000000000001933b      0x1be /home/jongja.cho/Git/legacy/rebel_cds_collab_hw/bootloader/cp/tf-a/build/rebel_h/debug/bl31/psci_off.o
 .debug_loc     0x00000000000194f9      0x57b /home/jongja.cho/Git/legacy/rebel_cds_collab_hw/bootloader/cp/tf-a/build/rebel_h/debug/bl31/psci_on.o
 .debug_loc     0x0000000000019a74      0x736 /home/jongja.cho/Git/legacy/rebel_cds_collab_hw/bootloader/cp/tf-a/build/rebel_h/debug/bl31/psci_setup.o
 .debug_loc     0x000000000001a1aa      0x678 /home/jongja.cho/Git/legacy/rebel_cds_collab_hw/bootloader/cp/tf-a/build/rebel_h/debug/bl31/psci_suspend.o
 .debug_loc     0x000000000001a822      0x108 /home/jongja.cho/Git/legacy/rebel_cds_collab_hw/bootloader/cp/tf-a/build/rebel_h/debug/bl31/psci_system_off.o
 .debug_loc     0x000000000001a92a      0xded /home/jongja.cho/Git/legacy/rebel_cds_collab_hw/bootloader/cp/tf-a/build/rebel_h/debug/bl31/xlat_tables_arch.o
 .debug_loc     0x000000000001b717      0x6da /home/jongja.cho/Git/legacy/rebel_cds_collab_hw/bootloader/cp/tf-a/build/rebel_h/debug/bl31/xlat_tables_context.o
 .debug_loc     0x000000000001bdf1      0x2d1 /home/jongja.cho/Git/legacy/rebel_cds_collab_hw/bootloader/cp/tf-a/build/rebel_h/debug/bl31/arm_gicv3.o
 .debug_loc     0x000000000001c0c2       0xe1 /home/jongja.cho/Git/legacy/rebel_cds_collab_hw/bootloader/cp/tf-a/build/rebel_h/debug/bl31/plat_common.o
 .debug_loc     0x000000000001c1a3      0x318 /home/jongja.cho/Git/legacy/rebel_cds_collab_hw/bootloader/cp/tf-a/build/rebel_h/debug/bl31/plat_bl_common.o
 .debug_loc     0x000000000001c4bb      0xf92 /home/jongja.cho/Git/legacy/rebel_cds_collab_hw/bootloader/cp/tf-a/build/rebel_h/debug/bl31/plat_gicv3.o
 .debug_loc     0x000000000001d44d       0xd6 /home/jongja.cho/Git/legacy/rebel_cds_collab_hw/bootloader/cp/tf-a/build/rebel_h/debug/bl31/plat_log_common.o
 .debug_loc     0x000000000001d523      0x2b0 /home/jongja.cho/Git/legacy/rebel_cds_collab_hw/bootloader/cp/tf-a/build/rebel_h/debug/bl31/plat_psci_common.o
 .debug_loc     0x000000000001d7d3      0x513 /home/jongja.cho/Git/legacy/rebel_cds_collab_hw/bootloader/cp/tf-a/build/rebel_h/debug/bl31/rebel_sip_svc.o
 .debug_loc     0x000000000001dce6     0x1bad /home/jongja.cho/Git/legacy/rebel_cds_collab_hw/bootloader/cp/tf-a/build/rebel_h/debug/bl31/rebel_h_bl31_setup.o
 .debug_loc     0x000000000001f893      0x424 /home/jongja.cho/Git/legacy/rebel_cds_collab_hw/bootloader/cp/tf-a/build/rebel_h/debug/bl31/rebel_h_pm.o
 .debug_loc     0x000000000001fcb7      0x9e2 /home/jongja.cho/Git/legacy/rebel_cds_collab_hw/bootloader/cp/tf-a/build/rebel_h/debug/bl31/rebel_h_pmu.o
 .debug_loc     0x0000000000020699      0x743 /home/jongja.cho/Git/legacy/rebel_cds_collab_hw/bootloader/cp/tf-a/build/rebel_h/debug/bl31/rebel_h_sip_svc.o
 .debug_loc     0x0000000000020ddc      0x129 /home/jongja.cho/Git/legacy/rebel_cds_collab_hw/bootloader/cp/tf-a/build/rebel_h/debug/bl31/rebel_h_topology.o
 .debug_loc     0x0000000000020f05     0x1040 /home/jongja.cho/Git/legacy/rebel_cds_collab_hw/bootloader/cp/tf-a/build/rebel_h/debug/bl31/arm_arch_svc_setup.o
 .debug_loc     0x0000000000021f45      0x44c /home/jongja.cho/Git/legacy/rebel_cds_collab_hw/bootloader/cp/tf-a/build/rebel_h/debug/bl31/std_svc_setup.o
 .debug_loc     0x0000000000022391      0x15e /home/jongja.cho/Git/legacy/rebel_cds_collab_hw/bootloader/cp/tf-a/build/rebel_h/debug/lib/libc.a(memcpy.o)
 .debug_loc     0x00000000000224ef     0x1ad1 /home/jongja.cho/Git/legacy/rebel_cds_collab_hw/bootloader/cp/tf-a/build/rebel_h/debug/lib/libc.a(printf.o)
 .debug_loc     0x0000000000023fc0      0x3af /home/jongja.cho/Git/legacy/rebel_cds_collab_hw/bootloader/cp/tf-a/build/rebel_h/debug/lib/libc.a(memset.o)

.debug_aranges  0x0000000000000000     0x2760
 .debug_aranges
                0x0000000000000000       0x50 /home/jongja.cho/Git/legacy/rebel_cds_collab_hw/bootloader/cp/tf-a/build/rebel_h/debug/bl31/bakery_lock.o
 .debug_aranges
                0x0000000000000050       0x60 /home/jongja.cho/Git/legacy/rebel_cds_collab_hw/bootloader/cp/tf-a/build/rebel_h/debug/bl31/bl31_context_mgmt.o
 .debug_aranges
                0x00000000000000b0       0x80 /home/jongja.cho/Git/legacy/rebel_cds_collab_hw/bootloader/cp/tf-a/build/rebel_h/debug/bl31/bl31_main.o
 .debug_aranges
                0x0000000000000130       0x60 /home/jongja.cho/Git/legacy/rebel_cds_collab_hw/bootloader/cp/tf-a/build/rebel_h/debug/bl31/bl31_traps.o
 .debug_aranges
                0x0000000000000190       0x90 /home/jongja.cho/Git/legacy/rebel_cds_collab_hw/bootloader/cp/tf-a/build/rebel_h/debug/bl31/interrupt_mgmt.o
 .debug_aranges
                0x0000000000000220       0x50 /home/jongja.cho/Git/legacy/rebel_cds_collab_hw/bootloader/cp/tf-a/build/rebel_h/debug/bl31/backtrace.o
 .debug_aranges
                0x0000000000000270       0x70 /home/jongja.cho/Git/legacy/rebel_cds_collab_hw/bootloader/cp/tf-a/build/rebel_h/debug/bl31/bl_common.o
 .debug_aranges
                0x00000000000002e0       0x40 /home/jongja.cho/Git/legacy/rebel_cds_collab_hw/bootloader/cp/tf-a/build/rebel_h/debug/bl31/runtime_svc.o
 .debug_aranges
                0x0000000000000320       0x50 /home/jongja.cho/Git/legacy/rebel_cds_collab_hw/bootloader/cp/tf-a/build/rebel_h/debug/bl31/tf_log.o
 .debug_aranges
                0x0000000000000370       0xb0 /home/jongja.cho/Git/legacy/rebel_cds_collab_hw/bootloader/cp/tf-a/build/rebel_h/debug/bl31/gic-x00.o
 .debug_aranges
                0x0000000000000420      0x200 /home/jongja.cho/Git/legacy/rebel_cds_collab_hw/bootloader/cp/tf-a/build/rebel_h/debug/bl31/gicdv3_helpers.o
 .debug_aranges
                0x0000000000000620      0x110 /home/jongja.cho/Git/legacy/rebel_cds_collab_hw/bootloader/cp/tf-a/build/rebel_h/debug/bl31/gicrv3_helpers.o
 .debug_aranges
                0x0000000000000730       0xe0 /home/jongja.cho/Git/legacy/rebel_cds_collab_hw/bootloader/cp/tf-a/build/rebel_h/debug/bl31/gicv3_helpers.o
 .debug_aranges
                0x0000000000000810      0x210 /home/jongja.cho/Git/legacy/rebel_cds_collab_hw/bootloader/cp/tf-a/build/rebel_h/debug/bl31/gicv3_main.o
 .debug_aranges
                0x0000000000000a20       0xa0 /home/jongja.cho/Git/legacy/rebel_cds_collab_hw/bootloader/cp/tf-a/build/rebel_h/debug/bl31/multi_console.o
 .debug_aranges
                0x0000000000000ac0       0xd0 /home/jongja.cho/Git/legacy/rebel_cds_collab_hw/bootloader/cp/tf-a/build/rebel_h/debug/bl31/mt25q_flash.o
 .debug_aranges
                0x0000000000000b90      0x140 /home/jongja.cho/Git/legacy/rebel_cds_collab_hw/bootloader/cp/tf-a/build/rebel_h/debug/bl31/qspi_boot.o
 .debug_aranges
                0x0000000000000cd0       0x60 /home/jongja.cho/Git/legacy/rebel_cds_collab_hw/bootloader/cp/tf-a/build/rebel_h/debug/bl31/errata_common.o
 .debug_aranges
                0x0000000000000d30       0x40 /home/jongja.cho/Git/legacy/rebel_cds_collab_hw/bootloader/cp/tf-a/build/rebel_h/debug/bl31/errata_report.o
 .debug_aranges
                0x0000000000000d70      0x150 /home/jongja.cho/Git/legacy/rebel_cds_collab_hw/bootloader/cp/tf-a/build/rebel_h/debug/bl31/context_mgmt.o
 .debug_aranges
                0x0000000000000ec0       0x30 /home/jongja.cho/Git/legacy/rebel_cds_collab_hw/bootloader/cp/tf-a/build/rebel_h/debug/bl31/cpu_data_array.o
 .debug_aranges
                0x0000000000000ef0       0x50 /home/jongja.cho/Git/legacy/rebel_cds_collab_hw/bootloader/cp/tf-a/build/rebel_h/debug/bl31/mpam.o
 .debug_aranges
                0x0000000000000f40       0x50 /home/jongja.cho/Git/legacy/rebel_cds_collab_hw/bootloader/cp/tf-a/build/rebel_h/debug/bl31/pmuv3.o
 .debug_aranges
                0x0000000000000f90       0x60 /home/jongja.cho/Git/legacy/rebel_cds_collab_hw/bootloader/cp/tf-a/build/rebel_h/debug/bl31/spe.o
 .debug_aranges
                0x0000000000000ff0       0x60 /home/jongja.cho/Git/legacy/rebel_cds_collab_hw/bootloader/cp/tf-a/build/rebel_h/debug/bl31/sve.o
 .debug_aranges
                0x0000000000001050       0x40 /home/jongja.cho/Git/legacy/rebel_cds_collab_hw/bootloader/cp/tf-a/build/rebel_h/debug/bl31/bakery_lock_coherent.o
 .debug_aranges
                0x0000000000001090       0x40 /home/jongja.cho/Git/legacy/rebel_cds_collab_hw/bootloader/cp/tf-a/build/rebel_h/debug/bl31/per_cpu.o
 .debug_aranges
                0x00000000000010d0      0x1d0 /home/jongja.cho/Git/legacy/rebel_cds_collab_hw/bootloader/cp/tf-a/build/rebel_h/debug/bl31/psci_common.o
 .debug_aranges
                0x00000000000012a0       0xf0 /home/jongja.cho/Git/legacy/rebel_cds_collab_hw/bootloader/cp/tf-a/build/rebel_h/debug/bl31/psci_main.o
 .debug_aranges
                0x0000000000001390       0x40 /home/jongja.cho/Git/legacy/rebel_cds_collab_hw/bootloader/cp/tf-a/build/rebel_h/debug/bl31/psci_mem_protect.o
 .debug_aranges
                0x00000000000013d0       0x30 /home/jongja.cho/Git/legacy/rebel_cds_collab_hw/bootloader/cp/tf-a/build/rebel_h/debug/bl31/psci_off.o
 .debug_aranges
                0x0000000000001400       0x40 /home/jongja.cho/Git/legacy/rebel_cds_collab_hw/bootloader/cp/tf-a/build/rebel_h/debug/bl31/psci_on.o
 .debug_aranges
                0x0000000000001440       0x50 /home/jongja.cho/Git/legacy/rebel_cds_collab_hw/bootloader/cp/tf-a/build/rebel_h/debug/bl31/psci_setup.o
 .debug_aranges
                0x0000000000001490       0x40 /home/jongja.cho/Git/legacy/rebel_cds_collab_hw/bootloader/cp/tf-a/build/rebel_h/debug/bl31/psci_suspend.o
 .debug_aranges
                0x00000000000014d0       0x50 /home/jongja.cho/Git/legacy/rebel_cds_collab_hw/bootloader/cp/tf-a/build/rebel_h/debug/bl31/psci_system_off.o
 .debug_aranges
                0x0000000000001520      0x100 /home/jongja.cho/Git/legacy/rebel_cds_collab_hw/bootloader/cp/tf-a/build/rebel_h/debug/bl31/xlat_tables_arch.o
 .debug_aranges
                0x0000000000001620       0xe0 /home/jongja.cho/Git/legacy/rebel_cds_collab_hw/bootloader/cp/tf-a/build/rebel_h/debug/bl31/xlat_tables_context.o
 .debug_aranges
                0x0000000000001700       0xd0 /home/jongja.cho/Git/legacy/rebel_cds_collab_hw/bootloader/cp/tf-a/build/rebel_h/debug/bl31/arm_gicv3.o
 .debug_aranges
                0x00000000000017d0       0x50 /home/jongja.cho/Git/legacy/rebel_cds_collab_hw/bootloader/cp/tf-a/build/rebel_h/debug/bl31/plat_common.o
 .debug_aranges
                0x0000000000001820       0xe0 /home/jongja.cho/Git/legacy/rebel_cds_collab_hw/bootloader/cp/tf-a/build/rebel_h/debug/bl31/plat_bl_common.o
 .debug_aranges
                0x0000000000001900      0x1b0 /home/jongja.cho/Git/legacy/rebel_cds_collab_hw/bootloader/cp/tf-a/build/rebel_h/debug/bl31/plat_gicv3.o
 .debug_aranges
                0x0000000000001ab0       0x30 /home/jongja.cho/Git/legacy/rebel_cds_collab_hw/bootloader/cp/tf-a/build/rebel_h/debug/bl31/plat_log_common.o
 .debug_aranges
                0x0000000000001ae0       0x30 /home/jongja.cho/Git/legacy/rebel_cds_collab_hw/bootloader/cp/tf-a/build/rebel_h/debug/bl31/plat_psci_common.o
 .debug_aranges
                0x0000000000001b10       0x40 /home/jongja.cho/Git/legacy/rebel_cds_collab_hw/bootloader/cp/tf-a/build/rebel_h/debug/bl31/rebel_sip_svc.o
 .debug_aranges
                0x0000000000001b50       0x90 /home/jongja.cho/Git/legacy/rebel_cds_collab_hw/bootloader/cp/tf-a/build/rebel_h/debug/bl31/rebel_h_bl31_setup.o
 .debug_aranges
                0x0000000000001be0       0x90 /home/jongja.cho/Git/legacy/rebel_cds_collab_hw/bootloader/cp/tf-a/build/rebel_h/debug/bl31/rebel_h_pm.o
 .debug_aranges
                0x0000000000001c70       0xa0 /home/jongja.cho/Git/legacy/rebel_cds_collab_hw/bootloader/cp/tf-a/build/rebel_h/debug/bl31/rebel_h_pmu.o
 .debug_aranges
                0x0000000000001d10       0x30 /home/jongja.cho/Git/legacy/rebel_cds_collab_hw/bootloader/cp/tf-a/build/rebel_h/debug/bl31/rebel_h_sip_svc.o
 .debug_aranges
                0x0000000000001d40       0x40 /home/jongja.cho/Git/legacy/rebel_cds_collab_hw/bootloader/cp/tf-a/build/rebel_h/debug/bl31/rebel_h_topology.o
 .debug_aranges
                0x0000000000001d80       0x30 /home/jongja.cho/Git/legacy/rebel_cds_collab_hw/bootloader/cp/tf-a/build/rebel_h/debug/bl31/arm_arch_svc_setup.o
 .debug_aranges
                0x0000000000001db0       0x40 /home/jongja.cho/Git/legacy/rebel_cds_collab_hw/bootloader/cp/tf-a/build/rebel_h/debug/bl31/std_svc_setup.o
 .debug_aranges
                0x0000000000001df0       0x40 /home/jongja.cho/Git/legacy/rebel_cds_collab_hw/bootloader/cp/tf-a/build/rebel_h/debug/bl31/bl31_entrypoint.o
 .debug_aranges
                0x0000000000001e30       0xb0 /home/jongja.cho/Git/legacy/rebel_cds_collab_hw/bootloader/cp/tf-a/build/rebel_h/debug/bl31/crash_reporting.o
 .debug_aranges
                0x0000000000001ee0       0x70 /home/jongja.cho/Git/legacy/rebel_cds_collab_hw/bootloader/cp/tf-a/build/rebel_h/debug/bl31/runtime_exceptions.o
 .debug_aranges
                0x0000000000001f50       0x80 /home/jongja.cho/Git/legacy/rebel_cds_collab_hw/bootloader/cp/tf-a/build/rebel_h/debug/bl31/debug.o
 .debug_aranges
                0x0000000000001fd0       0xa0 /home/jongja.cho/Git/legacy/rebel_cds_collab_hw/bootloader/cp/tf-a/build/rebel_h/debug/bl31/16550_console.o
 .debug_aranges
                0x0000000000002070       0xd0 /home/jongja.cho/Git/legacy/rebel_cds_collab_hw/bootloader/cp/tf-a/build/rebel_h/debug/bl31/cache_helpers.o
 .debug_aranges
                0x0000000000002140       0xb0 /home/jongja.cho/Git/legacy/rebel_cds_collab_hw/bootloader/cp/tf-a/build/rebel_h/debug/bl31/misc_helpers.o
 .debug_aranges
                0x00000000000021f0       0xe0 /home/jongja.cho/Git/legacy/rebel_cds_collab_hw/bootloader/cp/tf-a/build/rebel_h/debug/bl31/cortex_a73.o
 .debug_aranges
                0x00000000000022d0       0x50 /home/jongja.cho/Git/legacy/rebel_cds_collab_hw/bootloader/cp/tf-a/build/rebel_h/debug/bl31/cpu_helpers.o
 .debug_aranges
                0x0000000000002320       0x40 /home/jongja.cho/Git/legacy/rebel_cds_collab_hw/bootloader/cp/tf-a/build/rebel_h/debug/bl31/wa_cve_2017_5715_bpiall.o
 .debug_aranges
                0x0000000000002360       0x50 /home/jongja.cho/Git/legacy/rebel_cds_collab_hw/bootloader/cp/tf-a/build/rebel_h/debug/bl31/context.o
 .debug_aranges
                0x00000000000023b0       0x50 /home/jongja.cho/Git/legacy/rebel_cds_collab_hw/bootloader/cp/tf-a/build/rebel_h/debug/bl31/spinlock.o
 .debug_aranges
                0x0000000000002400       0x30 /home/jongja.cho/Git/legacy/rebel_cds_collab_hw/bootloader/cp/tf-a/build/rebel_h/debug/bl31/per_cpu_asm.o
 .debug_aranges
                0x0000000000002430       0x40 /home/jongja.cho/Git/legacy/rebel_cds_collab_hw/bootloader/cp/tf-a/build/rebel_h/debug/bl31/psci_helpers.o
 .debug_aranges
                0x0000000000002470       0x60 /home/jongja.cho/Git/legacy/rebel_cds_collab_hw/bootloader/cp/tf-a/build/rebel_h/debug/bl31/enable_mmu.o
 .debug_aranges
                0x00000000000024d0       0xc0 /home/jongja.cho/Git/legacy/rebel_cds_collab_hw/bootloader/cp/tf-a/build/rebel_h/debug/bl31/platform_helpers.o
 .debug_aranges
                0x0000000000002590       0x40 /home/jongja.cho/Git/legacy/rebel_cds_collab_hw/bootloader/cp/tf-a/build/rebel_h/debug/bl31/platform_mp_stack.o
 .debug_aranges
                0x00000000000025d0       0xb0 /home/jongja.cho/Git/legacy/rebel_cds_collab_hw/bootloader/cp/tf-a/build/rebel_h/debug/bl31/plat_helper.o
 .debug_aranges
                0x0000000000002680       0x30 /home/jongja.cho/Git/legacy/rebel_cds_collab_hw/bootloader/cp/tf-a/build/rebel_h/debug/lib/libc.a(assert.o)
 .debug_aranges
                0x00000000000026b0       0x30 /home/jongja.cho/Git/legacy/rebel_cds_collab_hw/bootloader/cp/tf-a/build/rebel_h/debug/lib/libc.a(memcpy.o)
 .debug_aranges
                0x00000000000026e0       0x50 /home/jongja.cho/Git/legacy/rebel_cds_collab_hw/bootloader/cp/tf-a/build/rebel_h/debug/lib/libc.a(printf.o)
 .debug_aranges
                0x0000000000002730       0x30 /home/jongja.cho/Git/legacy/rebel_cds_collab_hw/bootloader/cp/tf-a/build/rebel_h/debug/lib/libc.a(memset.o)

.debug_ranges   0x0000000000000000     0x6b80
 .debug_ranges  0x0000000000000000       0xf0 /home/jongja.cho/Git/legacy/rebel_cds_collab_hw/bootloader/cp/tf-a/build/rebel_h/debug/bl31/bakery_lock.o
 .debug_ranges  0x00000000000000f0       0x50 /home/jongja.cho/Git/legacy/rebel_cds_collab_hw/bootloader/cp/tf-a/build/rebel_h/debug/bl31/bl31_context_mgmt.o
 .debug_ranges  0x0000000000000140       0xa0 /home/jongja.cho/Git/legacy/rebel_cds_collab_hw/bootloader/cp/tf-a/build/rebel_h/debug/bl31/bl31_main.o
 .debug_ranges  0x00000000000001e0      0x540 /home/jongja.cho/Git/legacy/rebel_cds_collab_hw/bootloader/cp/tf-a/build/rebel_h/debug/bl31/bl31_traps.o
 .debug_ranges  0x0000000000000720       0xf0 /home/jongja.cho/Git/legacy/rebel_cds_collab_hw/bootloader/cp/tf-a/build/rebel_h/debug/bl31/interrupt_mgmt.o
 .debug_ranges  0x0000000000000810       0xa0 /home/jongja.cho/Git/legacy/rebel_cds_collab_hw/bootloader/cp/tf-a/build/rebel_h/debug/bl31/backtrace.o
 .debug_ranges  0x00000000000008b0       0x60 /home/jongja.cho/Git/legacy/rebel_cds_collab_hw/bootloader/cp/tf-a/build/rebel_h/debug/bl31/bl_common.o
 .debug_ranges  0x0000000000000910      0x170 /home/jongja.cho/Git/legacy/rebel_cds_collab_hw/bootloader/cp/tf-a/build/rebel_h/debug/bl31/runtime_svc.o
 .debug_ranges  0x0000000000000a80       0x40 /home/jongja.cho/Git/legacy/rebel_cds_collab_hw/bootloader/cp/tf-a/build/rebel_h/debug/bl31/tf_log.o
 .debug_ranges  0x0000000000000ac0       0xd0 /home/jongja.cho/Git/legacy/rebel_cds_collab_hw/bootloader/cp/tf-a/build/rebel_h/debug/bl31/gic-x00.o
 .debug_ranges  0x0000000000000b90      0x850 /home/jongja.cho/Git/legacy/rebel_cds_collab_hw/bootloader/cp/tf-a/build/rebel_h/debug/bl31/gicdv3_helpers.o
 .debug_ranges  0x00000000000013e0      0x490 /home/jongja.cho/Git/legacy/rebel_cds_collab_hw/bootloader/cp/tf-a/build/rebel_h/debug/bl31/gicrv3_helpers.o
 .debug_ranges  0x0000000000001870      0x360 /home/jongja.cho/Git/legacy/rebel_cds_collab_hw/bootloader/cp/tf-a/build/rebel_h/debug/bl31/gicv3_helpers.o
 .debug_ranges  0x0000000000001bd0      0xf90 /home/jongja.cho/Git/legacy/rebel_cds_collab_hw/bootloader/cp/tf-a/build/rebel_h/debug/bl31/gicv3_main.o
 .debug_ranges  0x0000000000002b60       0xc0 /home/jongja.cho/Git/legacy/rebel_cds_collab_hw/bootloader/cp/tf-a/build/rebel_h/debug/bl31/multi_console.o
 .debug_ranges  0x0000000000002c20      0x1c0 /home/jongja.cho/Git/legacy/rebel_cds_collab_hw/bootloader/cp/tf-a/build/rebel_h/debug/bl31/mt25q_flash.o
 .debug_ranges  0x0000000000002de0      0x1e0 /home/jongja.cho/Git/legacy/rebel_cds_collab_hw/bootloader/cp/tf-a/build/rebel_h/debug/bl31/qspi_boot.o
 .debug_ranges  0x0000000000002fc0       0x50 /home/jongja.cho/Git/legacy/rebel_cds_collab_hw/bootloader/cp/tf-a/build/rebel_h/debug/bl31/errata_common.o
 .debug_ranges  0x0000000000003010       0xc0 /home/jongja.cho/Git/legacy/rebel_cds_collab_hw/bootloader/cp/tf-a/build/rebel_h/debug/bl31/errata_report.o
 .debug_ranges  0x00000000000030d0      0x4d0 /home/jongja.cho/Git/legacy/rebel_cds_collab_hw/bootloader/cp/tf-a/build/rebel_h/debug/bl31/context_mgmt.o
 .debug_ranges  0x00000000000035a0       0x20 /home/jongja.cho/Git/legacy/rebel_cds_collab_hw/bootloader/cp/tf-a/build/rebel_h/debug/bl31/cpu_data_array.o
 .debug_ranges  0x00000000000035c0       0x40 /home/jongja.cho/Git/legacy/rebel_cds_collab_hw/bootloader/cp/tf-a/build/rebel_h/debug/bl31/mpam.o
 .debug_ranges  0x0000000000003600       0xd0 /home/jongja.cho/Git/legacy/rebel_cds_collab_hw/bootloader/cp/tf-a/build/rebel_h/debug/bl31/pmuv3.o
 .debug_ranges  0x00000000000036d0       0x80 /home/jongja.cho/Git/legacy/rebel_cds_collab_hw/bootloader/cp/tf-a/build/rebel_h/debug/bl31/spe.o
 .debug_ranges  0x0000000000003750       0x80 /home/jongja.cho/Git/legacy/rebel_cds_collab_hw/bootloader/cp/tf-a/build/rebel_h/debug/bl31/sve.o
 .debug_ranges  0x00000000000037d0       0xc0 /home/jongja.cho/Git/legacy/rebel_cds_collab_hw/bootloader/cp/tf-a/build/rebel_h/debug/bl31/bakery_lock_coherent.o
 .debug_ranges  0x0000000000003890       0x30 /home/jongja.cho/Git/legacy/rebel_cds_collab_hw/bootloader/cp/tf-a/build/rebel_h/debug/bl31/per_cpu.o
 .debug_ranges  0x00000000000038c0      0x810 /home/jongja.cho/Git/legacy/rebel_cds_collab_hw/bootloader/cp/tf-a/build/rebel_h/debug/bl31/psci_common.o
 .debug_ranges  0x00000000000040d0      0x1f0 /home/jongja.cho/Git/legacy/rebel_cds_collab_hw/bootloader/cp/tf-a/build/rebel_h/debug/bl31/psci_main.o
 .debug_ranges  0x00000000000042c0       0x30 /home/jongja.cho/Git/legacy/rebel_cds_collab_hw/bootloader/cp/tf-a/build/rebel_h/debug/bl31/psci_mem_protect.o
 .debug_ranges  0x00000000000042f0       0x20 /home/jongja.cho/Git/legacy/rebel_cds_collab_hw/bootloader/cp/tf-a/build/rebel_h/debug/bl31/psci_off.o
 .debug_ranges  0x0000000000004310       0xf0 /home/jongja.cho/Git/legacy/rebel_cds_collab_hw/bootloader/cp/tf-a/build/rebel_h/debug/bl31/psci_on.o
 .debug_ranges  0x0000000000004400      0x240 /home/jongja.cho/Git/legacy/rebel_cds_collab_hw/bootloader/cp/tf-a/build/rebel_h/debug/bl31/psci_setup.o
 .debug_ranges  0x0000000000004640      0x1e0 /home/jongja.cho/Git/legacy/rebel_cds_collab_hw/bootloader/cp/tf-a/build/rebel_h/debug/bl31/psci_suspend.o
 .debug_ranges  0x0000000000004820       0x40 /home/jongja.cho/Git/legacy/rebel_cds_collab_hw/bootloader/cp/tf-a/build/rebel_h/debug/bl31/psci_system_off.o
 .debug_ranges  0x0000000000004860      0x210 /home/jongja.cho/Git/legacy/rebel_cds_collab_hw/bootloader/cp/tf-a/build/rebel_h/debug/bl31/xlat_tables_arch.o
 .debug_ranges  0x0000000000004a70       0xd0 /home/jongja.cho/Git/legacy/rebel_cds_collab_hw/bootloader/cp/tf-a/build/rebel_h/debug/bl31/xlat_tables_context.o
 .debug_ranges  0x0000000000004b40      0x120 /home/jongja.cho/Git/legacy/rebel_cds_collab_hw/bootloader/cp/tf-a/build/rebel_h/debug/bl31/arm_gicv3.o
 .debug_ranges  0x0000000000004c60       0x40 /home/jongja.cho/Git/legacy/rebel_cds_collab_hw/bootloader/cp/tf-a/build/rebel_h/debug/bl31/plat_common.o
 .debug_ranges  0x0000000000004ca0       0xd0 /home/jongja.cho/Git/legacy/rebel_cds_collab_hw/bootloader/cp/tf-a/build/rebel_h/debug/bl31/plat_bl_common.o
 .debug_ranges  0x0000000000004d70      0x260 /home/jongja.cho/Git/legacy/rebel_cds_collab_hw/bootloader/cp/tf-a/build/rebel_h/debug/bl31/plat_gicv3.o
 .debug_ranges  0x0000000000004fd0       0x20 /home/jongja.cho/Git/legacy/rebel_cds_collab_hw/bootloader/cp/tf-a/build/rebel_h/debug/bl31/plat_log_common.o
 .debug_ranges  0x0000000000004ff0       0x20 /home/jongja.cho/Git/legacy/rebel_cds_collab_hw/bootloader/cp/tf-a/build/rebel_h/debug/bl31/plat_psci_common.o
 .debug_ranges  0x0000000000005010       0x30 /home/jongja.cho/Git/legacy/rebel_cds_collab_hw/bootloader/cp/tf-a/build/rebel_h/debug/bl31/rebel_sip_svc.o
 .debug_ranges  0x0000000000005040      0xba0 /home/jongja.cho/Git/legacy/rebel_cds_collab_hw/bootloader/cp/tf-a/build/rebel_h/debug/bl31/rebel_h_bl31_setup.o
 .debug_ranges  0x0000000000005be0      0x1b0 /home/jongja.cho/Git/legacy/rebel_cds_collab_hw/bootloader/cp/tf-a/build/rebel_h/debug/bl31/rebel_h_pm.o
 .debug_ranges  0x0000000000005d90      0x1c0 /home/jongja.cho/Git/legacy/rebel_cds_collab_hw/bootloader/cp/tf-a/build/rebel_h/debug/bl31/rebel_h_pmu.o
 .debug_ranges  0x0000000000005f50       0x50 /home/jongja.cho/Git/legacy/rebel_cds_collab_hw/bootloader/cp/tf-a/build/rebel_h/debug/bl31/rebel_h_sip_svc.o
 .debug_ranges  0x0000000000005fa0       0x30 /home/jongja.cho/Git/legacy/rebel_cds_collab_hw/bootloader/cp/tf-a/build/rebel_h/debug/bl31/rebel_h_topology.o
 .debug_ranges  0x0000000000005fd0       0xb0 /home/jongja.cho/Git/legacy/rebel_cds_collab_hw/bootloader/cp/tf-a/build/rebel_h/debug/bl31/arm_arch_svc_setup.o
 .debug_ranges  0x0000000000006080       0x60 /home/jongja.cho/Git/legacy/rebel_cds_collab_hw/bootloader/cp/tf-a/build/rebel_h/debug/bl31/std_svc_setup.o
 .debug_ranges  0x00000000000060e0       0x40 /home/jongja.cho/Git/legacy/rebel_cds_collab_hw/bootloader/cp/tf-a/build/rebel_h/debug/bl31/bl31_entrypoint.o
 .debug_ranges  0x0000000000006120       0xb0 /home/jongja.cho/Git/legacy/rebel_cds_collab_hw/bootloader/cp/tf-a/build/rebel_h/debug/bl31/crash_reporting.o
 .debug_ranges  0x00000000000061d0       0x70 /home/jongja.cho/Git/legacy/rebel_cds_collab_hw/bootloader/cp/tf-a/build/rebel_h/debug/bl31/runtime_exceptions.o
 .debug_ranges  0x0000000000006240       0x80 /home/jongja.cho/Git/legacy/rebel_cds_collab_hw/bootloader/cp/tf-a/build/rebel_h/debug/bl31/debug.o
 .debug_ranges  0x00000000000062c0       0xa0 /home/jongja.cho/Git/legacy/rebel_cds_collab_hw/bootloader/cp/tf-a/build/rebel_h/debug/bl31/16550_console.o
 .debug_ranges  0x0000000000006360       0xd0 /home/jongja.cho/Git/legacy/rebel_cds_collab_hw/bootloader/cp/tf-a/build/rebel_h/debug/bl31/cache_helpers.o
 .debug_ranges  0x0000000000006430       0xb0 /home/jongja.cho/Git/legacy/rebel_cds_collab_hw/bootloader/cp/tf-a/build/rebel_h/debug/bl31/misc_helpers.o
 .debug_ranges  0x00000000000064e0       0xe0 /home/jongja.cho/Git/legacy/rebel_cds_collab_hw/bootloader/cp/tf-a/build/rebel_h/debug/bl31/cortex_a73.o
 .debug_ranges  0x00000000000065c0       0x50 /home/jongja.cho/Git/legacy/rebel_cds_collab_hw/bootloader/cp/tf-a/build/rebel_h/debug/bl31/cpu_helpers.o
 .debug_ranges  0x0000000000006610       0x40 /home/jongja.cho/Git/legacy/rebel_cds_collab_hw/bootloader/cp/tf-a/build/rebel_h/debug/bl31/wa_cve_2017_5715_bpiall.o
 .debug_ranges  0x0000000000006650       0x50 /home/jongja.cho/Git/legacy/rebel_cds_collab_hw/bootloader/cp/tf-a/build/rebel_h/debug/bl31/context.o
 .debug_ranges  0x00000000000066a0       0x50 /home/jongja.cho/Git/legacy/rebel_cds_collab_hw/bootloader/cp/tf-a/build/rebel_h/debug/bl31/spinlock.o
 .debug_ranges  0x00000000000066f0       0x40 /home/jongja.cho/Git/legacy/rebel_cds_collab_hw/bootloader/cp/tf-a/build/rebel_h/debug/bl31/psci_helpers.o
 .debug_ranges  0x0000000000006730       0x60 /home/jongja.cho/Git/legacy/rebel_cds_collab_hw/bootloader/cp/tf-a/build/rebel_h/debug/bl31/enable_mmu.o
 .debug_ranges  0x0000000000006790       0xc0 /home/jongja.cho/Git/legacy/rebel_cds_collab_hw/bootloader/cp/tf-a/build/rebel_h/debug/bl31/platform_helpers.o
 .debug_ranges  0x0000000000006850       0x40 /home/jongja.cho/Git/legacy/rebel_cds_collab_hw/bootloader/cp/tf-a/build/rebel_h/debug/bl31/platform_mp_stack.o
 .debug_ranges  0x0000000000006890       0xb0 /home/jongja.cho/Git/legacy/rebel_cds_collab_hw/bootloader/cp/tf-a/build/rebel_h/debug/bl31/plat_helper.o
 .debug_ranges  0x0000000000006940       0x20 /home/jongja.cho/Git/legacy/rebel_cds_collab_hw/bootloader/cp/tf-a/build/rebel_h/debug/lib/libc.a(assert.o)
 .debug_ranges  0x0000000000006960       0x20 /home/jongja.cho/Git/legacy/rebel_cds_collab_hw/bootloader/cp/tf-a/build/rebel_h/debug/lib/libc.a(memcpy.o)
 .debug_ranges  0x0000000000006980      0x1e0 /home/jongja.cho/Git/legacy/rebel_cds_collab_hw/bootloader/cp/tf-a/build/rebel_h/debug/lib/libc.a(printf.o)
 .debug_ranges  0x0000000000006b60       0x20 /home/jongja.cho/Git/legacy/rebel_cds_collab_hw/bootloader/cp/tf-a/build/rebel_h/debug/lib/libc.a(memset.o)

.debug_line     0x0000000000000000    0x11e65
 .debug_line    0x0000000000000000      0x2ca /home/jongja.cho/Git/legacy/rebel_cds_collab_hw/bootloader/cp/tf-a/build/rebel_h/debug/bl31/bakery_lock.o
 .debug_line    0x00000000000002ca      0x28c /home/jongja.cho/Git/legacy/rebel_cds_collab_hw/bootloader/cp/tf-a/build/rebel_h/debug/bl31/bl31_context_mgmt.o
 .debug_line    0x0000000000000556      0x410 /home/jongja.cho/Git/legacy/rebel_cds_collab_hw/bootloader/cp/tf-a/build/rebel_h/debug/bl31/bl31_main.o
 .debug_line    0x0000000000000966      0x886 /home/jongja.cho/Git/legacy/rebel_cds_collab_hw/bootloader/cp/tf-a/build/rebel_h/debug/bl31/bl31_traps.o
 .debug_line    0x00000000000011ec      0x3ea /home/jongja.cho/Git/legacy/rebel_cds_collab_hw/bootloader/cp/tf-a/build/rebel_h/debug/bl31/interrupt_mgmt.o
 .debug_line    0x00000000000015d6      0x398 /home/jongja.cho/Git/legacy/rebel_cds_collab_hw/bootloader/cp/tf-a/build/rebel_h/debug/bl31/backtrace.o
 .debug_line    0x000000000000196e      0x3f9 /home/jongja.cho/Git/legacy/rebel_cds_collab_hw/bootloader/cp/tf-a/build/rebel_h/debug/bl31/bl_common.o
 .debug_line    0x0000000000001d67      0x38e /home/jongja.cho/Git/legacy/rebel_cds_collab_hw/bootloader/cp/tf-a/build/rebel_h/debug/bl31/runtime_svc.o
 .debug_line    0x00000000000020f5      0x1b2 /home/jongja.cho/Git/legacy/rebel_cds_collab_hw/bootloader/cp/tf-a/build/rebel_h/debug/bl31/tf_log.o
 .debug_line    0x00000000000022a7      0x3ef /home/jongja.cho/Git/legacy/rebel_cds_collab_hw/bootloader/cp/tf-a/build/rebel_h/debug/bl31/gic-x00.o
 .debug_line    0x0000000000002696      0x837 /home/jongja.cho/Git/legacy/rebel_cds_collab_hw/bootloader/cp/tf-a/build/rebel_h/debug/bl31/gicdv3_helpers.o
 .debug_line    0x0000000000002ecd      0x4a2 /home/jongja.cho/Git/legacy/rebel_cds_collab_hw/bootloader/cp/tf-a/build/rebel_h/debug/bl31/gicrv3_helpers.o
 .debug_line    0x000000000000336f      0x97e /home/jongja.cho/Git/legacy/rebel_cds_collab_hw/bootloader/cp/tf-a/build/rebel_h/debug/bl31/gicv3_helpers.o
 .debug_line    0x0000000000003ced     0x227d /home/jongja.cho/Git/legacy/rebel_cds_collab_hw/bootloader/cp/tf-a/build/rebel_h/debug/bl31/gicv3_main.o
 .debug_line    0x0000000000005f6a      0x33b /home/jongja.cho/Git/legacy/rebel_cds_collab_hw/bootloader/cp/tf-a/build/rebel_h/debug/bl31/multi_console.o
 .debug_line    0x00000000000062a5      0x596 /home/jongja.cho/Git/legacy/rebel_cds_collab_hw/bootloader/cp/tf-a/build/rebel_h/debug/bl31/mt25q_flash.o
 .debug_line    0x000000000000683b      0x7ce /home/jongja.cho/Git/legacy/rebel_cds_collab_hw/bootloader/cp/tf-a/build/rebel_h/debug/bl31/qspi_boot.o
 .debug_line    0x0000000000007009      0x1f2 /home/jongja.cho/Git/legacy/rebel_cds_collab_hw/bootloader/cp/tf-a/build/rebel_h/debug/bl31/errata_common.o
 .debug_line    0x00000000000071fb      0x2c8 /home/jongja.cho/Git/legacy/rebel_cds_collab_hw/bootloader/cp/tf-a/build/rebel_h/debug/bl31/errata_report.o
 .debug_line    0x00000000000074c3     0x12a3 /home/jongja.cho/Git/legacy/rebel_cds_collab_hw/bootloader/cp/tf-a/build/rebel_h/debug/bl31/context_mgmt.o
 .debug_line    0x0000000000008766      0x1b7 /home/jongja.cho/Git/legacy/rebel_cds_collab_hw/bootloader/cp/tf-a/build/rebel_h/debug/bl31/cpu_data_array.o
 .debug_line    0x000000000000891d      0x1b1 /home/jongja.cho/Git/legacy/rebel_cds_collab_hw/bootloader/cp/tf-a/build/rebel_h/debug/bl31/mpam.o
 .debug_line    0x0000000000008ace      0x25c /home/jongja.cho/Git/legacy/rebel_cds_collab_hw/bootloader/cp/tf-a/build/rebel_h/debug/bl31/pmuv3.o
 .debug_line    0x0000000000008d2a      0x20d /home/jongja.cho/Git/legacy/rebel_cds_collab_hw/bootloader/cp/tf-a/build/rebel_h/debug/bl31/spe.o
 .debug_line    0x0000000000008f37      0x1cb /home/jongja.cho/Git/legacy/rebel_cds_collab_hw/bootloader/cp/tf-a/build/rebel_h/debug/bl31/sve.o
 .debug_line    0x0000000000009102      0x36d /home/jongja.cho/Git/legacy/rebel_cds_collab_hw/bootloader/cp/tf-a/build/rebel_h/debug/bl31/bakery_lock_coherent.o
 .debug_line    0x000000000000946f      0x12b /home/jongja.cho/Git/legacy/rebel_cds_collab_hw/bootloader/cp/tf-a/build/rebel_h/debug/bl31/per_cpu.o
 .debug_line    0x000000000000959a     0x11e2 /home/jongja.cho/Git/legacy/rebel_cds_collab_hw/bootloader/cp/tf-a/build/rebel_h/debug/bl31/psci_common.o
 .debug_line    0x000000000000a77c      0x931 /home/jongja.cho/Git/legacy/rebel_cds_collab_hw/bootloader/cp/tf-a/build/rebel_h/debug/bl31/psci_main.o
 .debug_line    0x000000000000b0ad      0x171 /home/jongja.cho/Git/legacy/rebel_cds_collab_hw/bootloader/cp/tf-a/build/rebel_h/debug/bl31/psci_mem_protect.o
 .debug_line    0x000000000000b21e      0x34b /home/jongja.cho/Git/legacy/rebel_cds_collab_hw/bootloader/cp/tf-a/build/rebel_h/debug/bl31/psci_off.o
 .debug_line    0x000000000000b569      0x53a /home/jongja.cho/Git/legacy/rebel_cds_collab_hw/bootloader/cp/tf-a/build/rebel_h/debug/bl31/psci_on.o
 .debug_line    0x000000000000baa3      0x736 /home/jongja.cho/Git/legacy/rebel_cds_collab_hw/bootloader/cp/tf-a/build/rebel_h/debug/bl31/psci_setup.o
 .debug_line    0x000000000000c1d9      0x500 /home/jongja.cho/Git/legacy/rebel_cds_collab_hw/bootloader/cp/tf-a/build/rebel_h/debug/bl31/psci_suspend.o
 .debug_line    0x000000000000c6d9      0x221 /home/jongja.cho/Git/legacy/rebel_cds_collab_hw/bootloader/cp/tf-a/build/rebel_h/debug/bl31/psci_system_off.o
 .debug_line    0x000000000000c8fa      0x6d6 /home/jongja.cho/Git/legacy/rebel_cds_collab_hw/bootloader/cp/tf-a/build/rebel_h/debug/bl31/xlat_tables_arch.o
 .debug_line    0x000000000000cfd0      0x3ac /home/jongja.cho/Git/legacy/rebel_cds_collab_hw/bootloader/cp/tf-a/build/rebel_h/debug/bl31/xlat_tables_context.o
 .debug_line    0x000000000000d37c      0x467 /home/jongja.cho/Git/legacy/rebel_cds_collab_hw/bootloader/cp/tf-a/build/rebel_h/debug/bl31/arm_gicv3.o
 .debug_line    0x000000000000d7e3      0x11b /home/jongja.cho/Git/legacy/rebel_cds_collab_hw/bootloader/cp/tf-a/build/rebel_h/debug/bl31/plat_common.o
 .debug_line    0x000000000000d8fe      0x304 /home/jongja.cho/Git/legacy/rebel_cds_collab_hw/bootloader/cp/tf-a/build/rebel_h/debug/bl31/plat_bl_common.o
 .debug_line    0x000000000000dc02      0x70e /home/jongja.cho/Git/legacy/rebel_cds_collab_hw/bootloader/cp/tf-a/build/rebel_h/debug/bl31/plat_gicv3.o
 .debug_line    0x000000000000e310       0xa6 /home/jongja.cho/Git/legacy/rebel_cds_collab_hw/bootloader/cp/tf-a/build/rebel_h/debug/bl31/plat_log_common.o
 .debug_line    0x000000000000e3b6       0xf5 /home/jongja.cho/Git/legacy/rebel_cds_collab_hw/bootloader/cp/tf-a/build/rebel_h/debug/bl31/plat_psci_common.o
 .debug_line    0x000000000000e4ab      0x1b0 /home/jongja.cho/Git/legacy/rebel_cds_collab_hw/bootloader/cp/tf-a/build/rebel_h/debug/bl31/rebel_sip_svc.o
 .debug_line    0x000000000000e65b      0xc2b /home/jongja.cho/Git/legacy/rebel_cds_collab_hw/bootloader/cp/tf-a/build/rebel_h/debug/bl31/rebel_h_bl31_setup.o
 .debug_line    0x000000000000f286      0x32b /home/jongja.cho/Git/legacy/rebel_cds_collab_hw/bootloader/cp/tf-a/build/rebel_h/debug/bl31/rebel_h_pm.o
 .debug_line    0x000000000000f5b1      0x64e /home/jongja.cho/Git/legacy/rebel_cds_collab_hw/bootloader/cp/tf-a/build/rebel_h/debug/bl31/rebel_h_pmu.o
 .debug_line    0x000000000000fbff      0x24e /home/jongja.cho/Git/legacy/rebel_cds_collab_hw/bootloader/cp/tf-a/build/rebel_h/debug/bl31/rebel_h_sip_svc.o
 .debug_line    0x000000000000fe4d       0xe8 /home/jongja.cho/Git/legacy/rebel_cds_collab_hw/bootloader/cp/tf-a/build/rebel_h/debug/bl31/rebel_h_topology.o
 .debug_line    0x000000000000ff35      0x304 /home/jongja.cho/Git/legacy/rebel_cds_collab_hw/bootloader/cp/tf-a/build/rebel_h/debug/bl31/arm_arch_svc_setup.o
 .debug_line    0x0000000000010239      0x2fd /home/jongja.cho/Git/legacy/rebel_cds_collab_hw/bootloader/cp/tf-a/build/rebel_h/debug/bl31/std_svc_setup.o
 .debug_line    0x0000000000010536       0x95 /home/jongja.cho/Git/legacy/rebel_cds_collab_hw/bootloader/cp/tf-a/build/rebel_h/debug/bl31/bl31_entrypoint.o
 .debug_line    0x00000000000105cb      0x181 /home/jongja.cho/Git/legacy/rebel_cds_collab_hw/bootloader/cp/tf-a/build/rebel_h/debug/bl31/crash_reporting.o
 .debug_line    0x000000000001074c      0x166 /home/jongja.cho/Git/legacy/rebel_cds_collab_hw/bootloader/cp/tf-a/build/rebel_h/debug/bl31/runtime_exceptions.o
 .debug_line    0x00000000000108b2       0xce /home/jongja.cho/Git/legacy/rebel_cds_collab_hw/bootloader/cp/tf-a/build/rebel_h/debug/bl31/debug.o
 .debug_line    0x0000000000010980      0x132 /home/jongja.cho/Git/legacy/rebel_cds_collab_hw/bootloader/cp/tf-a/build/rebel_h/debug/bl31/16550_console.o
 .debug_line    0x0000000000010ab2      0x144 /home/jongja.cho/Git/legacy/rebel_cds_collab_hw/bootloader/cp/tf-a/build/rebel_h/debug/bl31/cache_helpers.o
 .debug_line    0x0000000000010bf6      0x17d /home/jongja.cho/Git/legacy/rebel_cds_collab_hw/bootloader/cp/tf-a/build/rebel_h/debug/bl31/misc_helpers.o
 .debug_line    0x0000000000010d73      0x158 /home/jongja.cho/Git/legacy/rebel_cds_collab_hw/bootloader/cp/tf-a/build/rebel_h/debug/bl31/cortex_a73.o
 .debug_line    0x0000000000010ecb       0x98 /home/jongja.cho/Git/legacy/rebel_cds_collab_hw/bootloader/cp/tf-a/build/rebel_h/debug/bl31/cpu_helpers.o
 .debug_line    0x0000000000010f63       0xe2 /home/jongja.cho/Git/legacy/rebel_cds_collab_hw/bootloader/cp/tf-a/build/rebel_h/debug/bl31/wa_cve_2017_5715_bpiall.o
 .debug_line    0x0000000000011045       0xb3 /home/jongja.cho/Git/legacy/rebel_cds_collab_hw/bootloader/cp/tf-a/build/rebel_h/debug/bl31/context.o
 .debug_line    0x00000000000110f8       0x94 /home/jongja.cho/Git/legacy/rebel_cds_collab_hw/bootloader/cp/tf-a/build/rebel_h/debug/bl31/spinlock.o
 .debug_line    0x000000000001118c       0x5a /home/jongja.cho/Git/legacy/rebel_cds_collab_hw/bootloader/cp/tf-a/build/rebel_h/debug/bl31/per_cpu_asm.o
 .debug_line    0x00000000000111e6       0x85 /home/jongja.cho/Git/legacy/rebel_cds_collab_hw/bootloader/cp/tf-a/build/rebel_h/debug/bl31/psci_helpers.o
 .debug_line    0x000000000001126b       0xc6 /home/jongja.cho/Git/legacy/rebel_cds_collab_hw/bootloader/cp/tf-a/build/rebel_h/debug/bl31/enable_mmu.o
 .debug_line    0x0000000000011331      0x10d /home/jongja.cho/Git/legacy/rebel_cds_collab_hw/bootloader/cp/tf-a/build/rebel_h/debug/bl31/platform_helpers.o
 .debug_line    0x000000000001143e       0x74 /home/jongja.cho/Git/legacy/rebel_cds_collab_hw/bootloader/cp/tf-a/build/rebel_h/debug/bl31/platform_mp_stack.o
 .debug_line    0x00000000000114b2      0x100 /home/jongja.cho/Git/legacy/rebel_cds_collab_hw/bootloader/cp/tf-a/build/rebel_h/debug/bl31/plat_helper.o
 .debug_line    0x00000000000115b2       0xda /home/jongja.cho/Git/legacy/rebel_cds_collab_hw/bootloader/cp/tf-a/build/rebel_h/debug/lib/libc.a(assert.o)
 .debug_line    0x000000000001168c       0x91 /home/jongja.cho/Git/legacy/rebel_cds_collab_hw/bootloader/cp/tf-a/build/rebel_h/debug/lib/libc.a(memcpy.o)
 .debug_line    0x000000000001171d      0x623 /home/jongja.cho/Git/legacy/rebel_cds_collab_hw/bootloader/cp/tf-a/build/rebel_h/debug/lib/libc.a(printf.o)
 .debug_line    0x0000000000011d40      0x125 /home/jongja.cho/Git/legacy/rebel_cds_collab_hw/bootloader/cp/tf-a/build/rebel_h/debug/lib/libc.a(memset.o)

.debug_str      0x0000000000000000     0x79c7
 .debug_str     0x0000000000000000     0x79c7 /home/jongja.cho/Git/legacy/rebel_cds_collab_hw/bootloader/cp/tf-a/build/rebel_h/debug/bl31/bakery_lock.o
                                        0x366 (size before relaxing)
 .debug_str     0x00000000000079c7      0x5eb /home/jongja.cho/Git/legacy/rebel_cds_collab_hw/bootloader/cp/tf-a/build/rebel_h/debug/bl31/bl31_context_mgmt.o
 .debug_str     0x00000000000079c7      0x782 /home/jongja.cho/Git/legacy/rebel_cds_collab_hw/bootloader/cp/tf-a/build/rebel_h/debug/bl31/bl31_main.o
 .debug_str     0x00000000000079c7      0x87a /home/jongja.cho/Git/legacy/rebel_cds_collab_hw/bootloader/cp/tf-a/build/rebel_h/debug/bl31/bl31_traps.o
 .debug_str     0x00000000000079c7      0x50d /home/jongja.cho/Git/legacy/rebel_cds_collab_hw/bootloader/cp/tf-a/build/rebel_h/debug/bl31/interrupt_mgmt.o
 .debug_str     0x00000000000079c7      0x47d /home/jongja.cho/Git/legacy/rebel_cds_collab_hw/bootloader/cp/tf-a/build/rebel_h/debug/bl31/backtrace.o
 .debug_str     0x00000000000079c7      0x5cd /home/jongja.cho/Git/legacy/rebel_cds_collab_hw/bootloader/cp/tf-a/build/rebel_h/debug/bl31/bl_common.o
 .debug_str     0x00000000000079c7      0x73d /home/jongja.cho/Git/legacy/rebel_cds_collab_hw/bootloader/cp/tf-a/build/rebel_h/debug/bl31/runtime_svc.o
 .debug_str     0x00000000000079c7      0x38f /home/jongja.cho/Git/legacy/rebel_cds_collab_hw/bootloader/cp/tf-a/build/rebel_h/debug/bl31/tf_log.o
 .debug_str     0x00000000000079c7      0x51e /home/jongja.cho/Git/legacy/rebel_cds_collab_hw/bootloader/cp/tf-a/build/rebel_h/debug/bl31/gic-x00.o
 .debug_str     0x00000000000079c7      0x4cf /home/jongja.cho/Git/legacy/rebel_cds_collab_hw/bootloader/cp/tf-a/build/rebel_h/debug/bl31/gicdv3_helpers.o
 .debug_str     0x00000000000079c7      0x3b7 /home/jongja.cho/Git/legacy/rebel_cds_collab_hw/bootloader/cp/tf-a/build/rebel_h/debug/bl31/gicrv3_helpers.o
 .debug_str     0x00000000000079c7      0x8a3 /home/jongja.cho/Git/legacy/rebel_cds_collab_hw/bootloader/cp/tf-a/build/rebel_h/debug/bl31/gicv3_helpers.o
 .debug_str     0x00000000000079c7     0x1417 /home/jongja.cho/Git/legacy/rebel_cds_collab_hw/bootloader/cp/tf-a/build/rebel_h/debug/bl31/gicv3_main.o
 .debug_str     0x00000000000079c7      0x37c /home/jongja.cho/Git/legacy/rebel_cds_collab_hw/bootloader/cp/tf-a/build/rebel_h/debug/bl31/multi_console.o
 .debug_str     0x00000000000079c7      0x59f /home/jongja.cho/Git/legacy/rebel_cds_collab_hw/bootloader/cp/tf-a/build/rebel_h/debug/bl31/mt25q_flash.o
 .debug_str     0x00000000000079c7     0x12b8 /home/jongja.cho/Git/legacy/rebel_cds_collab_hw/bootloader/cp/tf-a/build/rebel_h/debug/bl31/qspi_boot.o
 .debug_str     0x00000000000079c7      0x3c2 /home/jongja.cho/Git/legacy/rebel_cds_collab_hw/bootloader/cp/tf-a/build/rebel_h/debug/bl31/errata_common.o
 .debug_str     0x00000000000079c7      0x627 /home/jongja.cho/Git/legacy/rebel_cds_collab_hw/bootloader/cp/tf-a/build/rebel_h/debug/bl31/errata_report.o
 .debug_str     0x00000000000079c7     0x17fd /home/jongja.cho/Git/legacy/rebel_cds_collab_hw/bootloader/cp/tf-a/build/rebel_h/debug/bl31/context_mgmt.o
 .debug_str     0x00000000000079c7      0x56d /home/jongja.cho/Git/legacy/rebel_cds_collab_hw/bootloader/cp/tf-a/build/rebel_h/debug/bl31/cpu_data_array.o
 .debug_str     0x00000000000079c7      0x424 /home/jongja.cho/Git/legacy/rebel_cds_collab_hw/bootloader/cp/tf-a/build/rebel_h/debug/bl31/mpam.o
 .debug_str     0x00000000000079c7      0x664 /home/jongja.cho/Git/legacy/rebel_cds_collab_hw/bootloader/cp/tf-a/build/rebel_h/debug/bl31/pmuv3.o
 .debug_str     0x00000000000079c7      0x5eb /home/jongja.cho/Git/legacy/rebel_cds_collab_hw/bootloader/cp/tf-a/build/rebel_h/debug/bl31/spe.o
 .debug_str     0x00000000000079c7      0x3a6 /home/jongja.cho/Git/legacy/rebel_cds_collab_hw/bootloader/cp/tf-a/build/rebel_h/debug/bl31/sve.o
 .debug_str     0x00000000000079c7      0x3f8 /home/jongja.cho/Git/legacy/rebel_cds_collab_hw/bootloader/cp/tf-a/build/rebel_h/debug/bl31/bakery_lock_coherent.o
 .debug_str     0x00000000000079c7      0x34d /home/jongja.cho/Git/legacy/rebel_cds_collab_hw/bootloader/cp/tf-a/build/rebel_h/debug/bl31/per_cpu.o
 .debug_str     0x00000000000079c7     0x11a6 /home/jongja.cho/Git/legacy/rebel_cds_collab_hw/bootloader/cp/tf-a/build/rebel_h/debug/bl31/psci_common.o
 .debug_str     0x00000000000079c7      0xc62 /home/jongja.cho/Git/legacy/rebel_cds_collab_hw/bootloader/cp/tf-a/build/rebel_h/debug/bl31/psci_main.o
 .debug_str     0x00000000000079c7      0x54d /home/jongja.cho/Git/legacy/rebel_cds_collab_hw/bootloader/cp/tf-a/build/rebel_h/debug/bl31/psci_mem_protect.o
 .debug_str     0x00000000000079c7      0x9ad /home/jongja.cho/Git/legacy/rebel_cds_collab_hw/bootloader/cp/tf-a/build/rebel_h/debug/bl31/psci_off.o
 .debug_str     0x00000000000079c7      0xa2e /home/jongja.cho/Git/legacy/rebel_cds_collab_hw/bootloader/cp/tf-a/build/rebel_h/debug/bl31/psci_on.o
 .debug_str     0x00000000000079c7      0xe29 /home/jongja.cho/Git/legacy/rebel_cds_collab_hw/bootloader/cp/tf-a/build/rebel_h/debug/bl31/psci_setup.o
 .debug_str     0x00000000000079c7      0xb7a /home/jongja.cho/Git/legacy/rebel_cds_collab_hw/bootloader/cp/tf-a/build/rebel_h/debug/bl31/psci_suspend.o
 .debug_str     0x00000000000079c7      0x65c /home/jongja.cho/Git/legacy/rebel_cds_collab_hw/bootloader/cp/tf-a/build/rebel_h/debug/bl31/psci_system_off.o
 .debug_str     0x00000000000079c7      0x6e0 /home/jongja.cho/Git/legacy/rebel_cds_collab_hw/bootloader/cp/tf-a/build/rebel_h/debug/bl31/xlat_tables_arch.o
 .debug_str     0x00000000000079c7      0x663 /home/jongja.cho/Git/legacy/rebel_cds_collab_hw/bootloader/cp/tf-a/build/rebel_h/debug/bl31/xlat_tables_context.o
 .debug_str     0x00000000000079c7      0x858 /home/jongja.cho/Git/legacy/rebel_cds_collab_hw/bootloader/cp/tf-a/build/rebel_h/debug/bl31/arm_gicv3.o
 .debug_str     0x00000000000079c7      0x358 /home/jongja.cho/Git/legacy/rebel_cds_collab_hw/bootloader/cp/tf-a/build/rebel_h/debug/bl31/plat_common.o
 .debug_str     0x00000000000079c7      0x595 /home/jongja.cho/Git/legacy/rebel_cds_collab_hw/bootloader/cp/tf-a/build/rebel_h/debug/bl31/plat_bl_common.o
 .debug_str     0x00000000000079c7      0x855 /home/jongja.cho/Git/legacy/rebel_cds_collab_hw/bootloader/cp/tf-a/build/rebel_h/debug/bl31/plat_gicv3.o
 .debug_str     0x00000000000079c7      0x300 /home/jongja.cho/Git/legacy/rebel_cds_collab_hw/bootloader/cp/tf-a/build/rebel_h/debug/bl31/plat_log_common.o
 .debug_str     0x00000000000079c7      0x323 /home/jongja.cho/Git/legacy/rebel_cds_collab_hw/bootloader/cp/tf-a/build/rebel_h/debug/bl31/plat_psci_common.o
 .debug_str     0x00000000000079c7      0x671 /home/jongja.cho/Git/legacy/rebel_cds_collab_hw/bootloader/cp/tf-a/build/rebel_h/debug/bl31/rebel_sip_svc.o
 .debug_str     0x00000000000079c7      0x65d /home/jongja.cho/Git/legacy/rebel_cds_collab_hw/bootloader/cp/tf-a/build/rebel_h/debug/bl31/rebel_h_bl31_setup.o
 .debug_str     0x00000000000079c7      0x735 /home/jongja.cho/Git/legacy/rebel_cds_collab_hw/bootloader/cp/tf-a/build/rebel_h/debug/bl31/rebel_h_pm.o
 .debug_str     0x00000000000079c7      0x51a /home/jongja.cho/Git/legacy/rebel_cds_collab_hw/bootloader/cp/tf-a/build/rebel_h/debug/bl31/rebel_h_pmu.o
 .debug_str     0x00000000000079c7      0x62d /home/jongja.cho/Git/legacy/rebel_cds_collab_hw/bootloader/cp/tf-a/build/rebel_h/debug/bl31/rebel_h_sip_svc.o
 .debug_str     0x00000000000079c7      0x347 /home/jongja.cho/Git/legacy/rebel_cds_collab_hw/bootloader/cp/tf-a/build/rebel_h/debug/bl31/rebel_h_topology.o
 .debug_str     0x00000000000079c7      0x734 /home/jongja.cho/Git/legacy/rebel_cds_collab_hw/bootloader/cp/tf-a/build/rebel_h/debug/bl31/arm_arch_svc_setup.o
 .debug_str     0x00000000000079c7      0x7a6 /home/jongja.cho/Git/legacy/rebel_cds_collab_hw/bootloader/cp/tf-a/build/rebel_h/debug/bl31/std_svc_setup.o
 .debug_str     0x00000000000079c7       0x95 /home/jongja.cho/Git/legacy/rebel_cds_collab_hw/bootloader/cp/tf-a/build/rebel_h/debug/bl31/bl31_entrypoint.o
 .debug_str     0x00000000000079c7      0x133 /home/jongja.cho/Git/legacy/rebel_cds_collab_hw/bootloader/cp/tf-a/build/rebel_h/debug/bl31/crash_reporting.o
 .debug_str     0x00000000000079c7       0xde /home/jongja.cho/Git/legacy/rebel_cds_collab_hw/bootloader/cp/tf-a/build/rebel_h/debug/bl31/runtime_exceptions.o
 .debug_str     0x00000000000079c7       0xb5 /home/jongja.cho/Git/legacy/rebel_cds_collab_hw/bootloader/cp/tf-a/build/rebel_h/debug/bl31/debug.o
 .debug_str     0x00000000000079c7      0x12b /home/jongja.cho/Git/legacy/rebel_cds_collab_hw/bootloader/cp/tf-a/build/rebel_h/debug/bl31/16550_console.o
 .debug_str     0x00000000000079c7      0x131 /home/jongja.cho/Git/legacy/rebel_cds_collab_hw/bootloader/cp/tf-a/build/rebel_h/debug/bl31/cache_helpers.o
 .debug_str     0x00000000000079c7       0xed /home/jongja.cho/Git/legacy/rebel_cds_collab_hw/bootloader/cp/tf-a/build/rebel_h/debug/bl31/misc_helpers.o
 .debug_str     0x00000000000079c7      0x19d /home/jongja.cho/Git/legacy/rebel_cds_collab_hw/bootloader/cp/tf-a/build/rebel_h/debug/bl31/cortex_a73.o
 .debug_str     0x00000000000079c7       0xa0 /home/jongja.cho/Git/legacy/rebel_cds_collab_hw/bootloader/cp/tf-a/build/rebel_h/debug/bl31/cpu_helpers.o
 .debug_str     0x00000000000079c7       0xa3 /home/jongja.cho/Git/legacy/rebel_cds_collab_hw/bootloader/cp/tf-a/build/rebel_h/debug/bl31/wa_cve_2017_5715_bpiall.o
 .debug_str     0x00000000000079c7       0xa9 /home/jongja.cho/Git/legacy/rebel_cds_collab_hw/bootloader/cp/tf-a/build/rebel_h/debug/bl31/context.o
 .debug_str     0x00000000000079c7       0x9b /home/jongja.cho/Git/legacy/rebel_cds_collab_hw/bootloader/cp/tf-a/build/rebel_h/debug/bl31/spinlock.o
 .debug_str     0x00000000000079c7       0x80 /home/jongja.cho/Git/legacy/rebel_cds_collab_hw/bootloader/cp/tf-a/build/rebel_h/debug/bl31/per_cpu_asm.o
 .debug_str     0x00000000000079c7       0xb3 /home/jongja.cho/Git/legacy/rebel_cds_collab_hw/bootloader/cp/tf-a/build/rebel_h/debug/bl31/psci_helpers.o
 .debug_str     0x00000000000079c7       0xd6 /home/jongja.cho/Git/legacy/rebel_cds_collab_hw/bootloader/cp/tf-a/build/rebel_h/debug/bl31/enable_mmu.o
 .debug_str     0x00000000000079c7      0x14e /home/jongja.cho/Git/legacy/rebel_cds_collab_hw/bootloader/cp/tf-a/build/rebel_h/debug/bl31/platform_helpers.o
 .debug_str     0x00000000000079c7       0x9d /home/jongja.cho/Git/legacy/rebel_cds_collab_hw/bootloader/cp/tf-a/build/rebel_h/debug/bl31/platform_mp_stack.o
 .debug_str     0x00000000000079c7      0x142 /home/jongja.cho/Git/legacy/rebel_cds_collab_hw/bootloader/cp/tf-a/build/rebel_h/debug/bl31/plat_helper.o
 .debug_str     0x00000000000079c7      0x28a /home/jongja.cho/Git/legacy/rebel_cds_collab_hw/bootloader/cp/tf-a/build/rebel_h/debug/lib/libc.a(assert.o)
 .debug_str     0x00000000000079c7      0x187 /home/jongja.cho/Git/legacy/rebel_cds_collab_hw/bootloader/cp/tf-a/build/rebel_h/debug/lib/libc.a(memcpy.o)
 .debug_str     0x00000000000079c7      0x2d5 /home/jongja.cho/Git/legacy/rebel_cds_collab_hw/bootloader/cp/tf-a/build/rebel_h/debug/lib/libc.a(printf.o)
 .debug_str     0x00000000000079c7      0x232 /home/jongja.cho/Git/legacy/rebel_cds_collab_hw/bootloader/cp/tf-a/build/rebel_h/debug/lib/libc.a(memset.o)

.comment        0x0000000000000000       0x44
 .comment       0x0000000000000000       0x44 /home/jongja.cho/Git/legacy/rebel_cds_collab_hw/bootloader/cp/tf-a/build/rebel_h/debug/bl31/bakery_lock.o
                                         0x45 (size before relaxing)
 .comment       0x0000000000000044       0x45 /home/jongja.cho/Git/legacy/rebel_cds_collab_hw/bootloader/cp/tf-a/build/rebel_h/debug/bl31/bl31_context_mgmt.o
 .comment       0x0000000000000044       0x45 /home/jongja.cho/Git/legacy/rebel_cds_collab_hw/bootloader/cp/tf-a/build/rebel_h/debug/bl31/bl31_main.o
 .comment       0x0000000000000044       0x45 /home/jongja.cho/Git/legacy/rebel_cds_collab_hw/bootloader/cp/tf-a/build/rebel_h/debug/bl31/bl31_traps.o
 .comment       0x0000000000000044       0x45 /home/jongja.cho/Git/legacy/rebel_cds_collab_hw/bootloader/cp/tf-a/build/rebel_h/debug/bl31/interrupt_mgmt.o
 .comment       0x0000000000000044       0x45 /home/jongja.cho/Git/legacy/rebel_cds_collab_hw/bootloader/cp/tf-a/build/rebel_h/debug/bl31/backtrace.o
 .comment       0x0000000000000044       0x45 /home/jongja.cho/Git/legacy/rebel_cds_collab_hw/bootloader/cp/tf-a/build/rebel_h/debug/bl31/bl_common.o
 .comment       0x0000000000000044       0x45 /home/jongja.cho/Git/legacy/rebel_cds_collab_hw/bootloader/cp/tf-a/build/rebel_h/debug/bl31/runtime_svc.o
 .comment       0x0000000000000044       0x45 /home/jongja.cho/Git/legacy/rebel_cds_collab_hw/bootloader/cp/tf-a/build/rebel_h/debug/bl31/tf_log.o
 .comment       0x0000000000000044       0x45 /home/jongja.cho/Git/legacy/rebel_cds_collab_hw/bootloader/cp/tf-a/build/rebel_h/debug/bl31/gic-x00.o
 .comment       0x0000000000000044       0x45 /home/jongja.cho/Git/legacy/rebel_cds_collab_hw/bootloader/cp/tf-a/build/rebel_h/debug/bl31/gicdv3_helpers.o
 .comment       0x0000000000000044       0x45 /home/jongja.cho/Git/legacy/rebel_cds_collab_hw/bootloader/cp/tf-a/build/rebel_h/debug/bl31/gicrv3_helpers.o
 .comment       0x0000000000000044       0x45 /home/jongja.cho/Git/legacy/rebel_cds_collab_hw/bootloader/cp/tf-a/build/rebel_h/debug/bl31/gicv3_helpers.o
 .comment       0x0000000000000044       0x45 /home/jongja.cho/Git/legacy/rebel_cds_collab_hw/bootloader/cp/tf-a/build/rebel_h/debug/bl31/gicv3_main.o
 .comment       0x0000000000000044       0x45 /home/jongja.cho/Git/legacy/rebel_cds_collab_hw/bootloader/cp/tf-a/build/rebel_h/debug/bl31/multi_console.o
 .comment       0x0000000000000044       0x45 /home/jongja.cho/Git/legacy/rebel_cds_collab_hw/bootloader/cp/tf-a/build/rebel_h/debug/bl31/mt25q_flash.o
 .comment       0x0000000000000044       0x45 /home/jongja.cho/Git/legacy/rebel_cds_collab_hw/bootloader/cp/tf-a/build/rebel_h/debug/bl31/qspi_boot.o
 .comment       0x0000000000000044       0x45 /home/jongja.cho/Git/legacy/rebel_cds_collab_hw/bootloader/cp/tf-a/build/rebel_h/debug/bl31/errata_common.o
 .comment       0x0000000000000044       0x45 /home/jongja.cho/Git/legacy/rebel_cds_collab_hw/bootloader/cp/tf-a/build/rebel_h/debug/bl31/errata_report.o
 .comment       0x0000000000000044       0x45 /home/jongja.cho/Git/legacy/rebel_cds_collab_hw/bootloader/cp/tf-a/build/rebel_h/debug/bl31/context_mgmt.o
 .comment       0x0000000000000044       0x45 /home/jongja.cho/Git/legacy/rebel_cds_collab_hw/bootloader/cp/tf-a/build/rebel_h/debug/bl31/cpu_data_array.o
 .comment       0x0000000000000044       0x45 /home/jongja.cho/Git/legacy/rebel_cds_collab_hw/bootloader/cp/tf-a/build/rebel_h/debug/bl31/mpam.o
 .comment       0x0000000000000044       0x45 /home/jongja.cho/Git/legacy/rebel_cds_collab_hw/bootloader/cp/tf-a/build/rebel_h/debug/bl31/pmuv3.o
 .comment       0x0000000000000044       0x45 /home/jongja.cho/Git/legacy/rebel_cds_collab_hw/bootloader/cp/tf-a/build/rebel_h/debug/bl31/spe.o
 .comment       0x0000000000000044       0x45 /home/jongja.cho/Git/legacy/rebel_cds_collab_hw/bootloader/cp/tf-a/build/rebel_h/debug/bl31/sve.o
 .comment       0x0000000000000044       0x45 /home/jongja.cho/Git/legacy/rebel_cds_collab_hw/bootloader/cp/tf-a/build/rebel_h/debug/bl31/bakery_lock_coherent.o
 .comment       0x0000000000000044       0x45 /home/jongja.cho/Git/legacy/rebel_cds_collab_hw/bootloader/cp/tf-a/build/rebel_h/debug/bl31/per_cpu.o
 .comment       0x0000000000000044       0x45 /home/jongja.cho/Git/legacy/rebel_cds_collab_hw/bootloader/cp/tf-a/build/rebel_h/debug/bl31/psci_common.o
 .comment       0x0000000000000044       0x45 /home/jongja.cho/Git/legacy/rebel_cds_collab_hw/bootloader/cp/tf-a/build/rebel_h/debug/bl31/psci_main.o
 .comment       0x0000000000000044       0x45 /home/jongja.cho/Git/legacy/rebel_cds_collab_hw/bootloader/cp/tf-a/build/rebel_h/debug/bl31/psci_mem_protect.o
 .comment       0x0000000000000044       0x45 /home/jongja.cho/Git/legacy/rebel_cds_collab_hw/bootloader/cp/tf-a/build/rebel_h/debug/bl31/psci_off.o
 .comment       0x0000000000000044       0x45 /home/jongja.cho/Git/legacy/rebel_cds_collab_hw/bootloader/cp/tf-a/build/rebel_h/debug/bl31/psci_on.o
 .comment       0x0000000000000044       0x45 /home/jongja.cho/Git/legacy/rebel_cds_collab_hw/bootloader/cp/tf-a/build/rebel_h/debug/bl31/psci_setup.o
 .comment       0x0000000000000044       0x45 /home/jongja.cho/Git/legacy/rebel_cds_collab_hw/bootloader/cp/tf-a/build/rebel_h/debug/bl31/psci_suspend.o
 .comment       0x0000000000000044       0x45 /home/jongja.cho/Git/legacy/rebel_cds_collab_hw/bootloader/cp/tf-a/build/rebel_h/debug/bl31/psci_system_off.o
 .comment       0x0000000000000044       0x45 /home/jongja.cho/Git/legacy/rebel_cds_collab_hw/bootloader/cp/tf-a/build/rebel_h/debug/bl31/xlat_tables_arch.o
 .comment       0x0000000000000044       0x45 /home/jongja.cho/Git/legacy/rebel_cds_collab_hw/bootloader/cp/tf-a/build/rebel_h/debug/bl31/xlat_tables_context.o
 .comment       0x0000000000000044       0x45 /home/jongja.cho/Git/legacy/rebel_cds_collab_hw/bootloader/cp/tf-a/build/rebel_h/debug/bl31/arm_gicv3.o
 .comment       0x0000000000000044       0x45 /home/jongja.cho/Git/legacy/rebel_cds_collab_hw/bootloader/cp/tf-a/build/rebel_h/debug/bl31/plat_common.o
 .comment       0x0000000000000044       0x45 /home/jongja.cho/Git/legacy/rebel_cds_collab_hw/bootloader/cp/tf-a/build/rebel_h/debug/bl31/plat_bl_common.o
 .comment       0x0000000000000044       0x45 /home/jongja.cho/Git/legacy/rebel_cds_collab_hw/bootloader/cp/tf-a/build/rebel_h/debug/bl31/plat_gicv3.o
 .comment       0x0000000000000044       0x45 /home/jongja.cho/Git/legacy/rebel_cds_collab_hw/bootloader/cp/tf-a/build/rebel_h/debug/bl31/plat_log_common.o
 .comment       0x0000000000000044       0x45 /home/jongja.cho/Git/legacy/rebel_cds_collab_hw/bootloader/cp/tf-a/build/rebel_h/debug/bl31/plat_psci_common.o
 .comment       0x0000000000000044       0x45 /home/jongja.cho/Git/legacy/rebel_cds_collab_hw/bootloader/cp/tf-a/build/rebel_h/debug/bl31/rebel_sip_svc.o
 .comment       0x0000000000000044       0x45 /home/jongja.cho/Git/legacy/rebel_cds_collab_hw/bootloader/cp/tf-a/build/rebel_h/debug/bl31/rebel_h_bl31_setup.o
 .comment       0x0000000000000044       0x45 /home/jongja.cho/Git/legacy/rebel_cds_collab_hw/bootloader/cp/tf-a/build/rebel_h/debug/bl31/rebel_h_pm.o
 .comment       0x0000000000000044       0x45 /home/jongja.cho/Git/legacy/rebel_cds_collab_hw/bootloader/cp/tf-a/build/rebel_h/debug/bl31/rebel_h_pmu.o
 .comment       0x0000000000000044       0x45 /home/jongja.cho/Git/legacy/rebel_cds_collab_hw/bootloader/cp/tf-a/build/rebel_h/debug/bl31/rebel_h_sip_svc.o
 .comment       0x0000000000000044       0x45 /home/jongja.cho/Git/legacy/rebel_cds_collab_hw/bootloader/cp/tf-a/build/rebel_h/debug/bl31/rebel_h_topology.o
 .comment       0x0000000000000044       0x45 /home/jongja.cho/Git/legacy/rebel_cds_collab_hw/bootloader/cp/tf-a/build/rebel_h/debug/bl31/arm_arch_svc_setup.o
 .comment       0x0000000000000044       0x45 /home/jongja.cho/Git/legacy/rebel_cds_collab_hw/bootloader/cp/tf-a/build/rebel_h/debug/bl31/std_svc_setup.o
 .comment       0x0000000000000044       0x45 /home/jongja.cho/Git/legacy/rebel_cds_collab_hw/bootloader/cp/tf-a/build/rebel_h/debug/lib/libc.a(assert.o)
 .comment       0x0000000000000044       0x45 /home/jongja.cho/Git/legacy/rebel_cds_collab_hw/bootloader/cp/tf-a/build/rebel_h/debug/lib/libc.a(memcpy.o)
 .comment       0x0000000000000044       0x45 /home/jongja.cho/Git/legacy/rebel_cds_collab_hw/bootloader/cp/tf-a/build/rebel_h/debug/lib/libc.a(printf.o)
 .comment       0x0000000000000044       0x45 /home/jongja.cho/Git/legacy/rebel_cds_collab_hw/bootloader/cp/tf-a/build/rebel_h/debug/lib/libc.a(memset.o)

.debug_frame    0x0000000000000000     0x49d8
 .debug_frame   0x0000000000000000       0x58 /home/jongja.cho/Git/legacy/rebel_cds_collab_hw/bootloader/cp/tf-a/build/rebel_h/debug/bl31/bakery_lock.o
 .debug_frame   0x0000000000000058       0xc0 /home/jongja.cho/Git/legacy/rebel_cds_collab_hw/bootloader/cp/tf-a/build/rebel_h/debug/bl31/bl31_context_mgmt.o
 .debug_frame   0x0000000000000118      0x118 /home/jongja.cho/Git/legacy/rebel_cds_collab_hw/bootloader/cp/tf-a/build/rebel_h/debug/bl31/bl31_main.o
 .debug_frame   0x0000000000000230       0x98 /home/jongja.cho/Git/legacy/rebel_cds_collab_hw/bootloader/cp/tf-a/build/rebel_h/debug/bl31/bl31_traps.o
 .debug_frame   0x00000000000002c8      0x168 /home/jongja.cho/Git/legacy/rebel_cds_collab_hw/bootloader/cp/tf-a/build/rebel_h/debug/bl31/interrupt_mgmt.o
 .debug_frame   0x0000000000000430       0x98 /home/jongja.cho/Git/legacy/rebel_cds_collab_hw/bootloader/cp/tf-a/build/rebel_h/debug/bl31/backtrace.o
 .debug_frame   0x00000000000004c8       0xc8 /home/jongja.cho/Git/legacy/rebel_cds_collab_hw/bootloader/cp/tf-a/build/rebel_h/debug/bl31/bl_common.o
 .debug_frame   0x0000000000000590       0x78 /home/jongja.cho/Git/legacy/rebel_cds_collab_hw/bootloader/cp/tf-a/build/rebel_h/debug/bl31/runtime_svc.o
 .debug_frame   0x0000000000000608       0x90 /home/jongja.cho/Git/legacy/rebel_cds_collab_hw/bootloader/cp/tf-a/build/rebel_h/debug/bl31/tf_log.o
 .debug_frame   0x0000000000000698      0x130 /home/jongja.cho/Git/legacy/rebel_cds_collab_hw/bootloader/cp/tf-a/build/rebel_h/debug/bl31/gic-x00.o
 .debug_frame   0x00000000000007c8      0x2e0 /home/jongja.cho/Git/legacy/rebel_cds_collab_hw/bootloader/cp/tf-a/build/rebel_h/debug/bl31/gicdv3_helpers.o
 .debug_frame   0x0000000000000aa8      0x178 /home/jongja.cho/Git/legacy/rebel_cds_collab_hw/bootloader/cp/tf-a/build/rebel_h/debug/bl31/gicrv3_helpers.o
 .debug_frame   0x0000000000000c20      0x1e8 /home/jongja.cho/Git/legacy/rebel_cds_collab_hw/bootloader/cp/tf-a/build/rebel_h/debug/bl31/gicv3_helpers.o
 .debug_frame   0x0000000000000e08      0x588 /home/jongja.cho/Git/legacy/rebel_cds_collab_hw/bootloader/cp/tf-a/build/rebel_h/debug/bl31/gicv3_main.o
 .debug_frame   0x0000000000001390      0x158 /home/jongja.cho/Git/legacy/rebel_cds_collab_hw/bootloader/cp/tf-a/build/rebel_h/debug/bl31/multi_console.o
 .debug_frame   0x00000000000014e8      0x230 /home/jongja.cho/Git/legacy/rebel_cds_collab_hw/bootloader/cp/tf-a/build/rebel_h/debug/bl31/mt25q_flash.o
 .debug_frame   0x0000000000001718      0x270 /home/jongja.cho/Git/legacy/rebel_cds_collab_hw/bootloader/cp/tf-a/build/rebel_h/debug/bl31/qspi_boot.o
 .debug_frame   0x0000000000001988       0xa8 /home/jongja.cho/Git/legacy/rebel_cds_collab_hw/bootloader/cp/tf-a/build/rebel_h/debug/bl31/errata_common.o
 .debug_frame   0x0000000000001a30       0x90 /home/jongja.cho/Git/legacy/rebel_cds_collab_hw/bootloader/cp/tf-a/build/rebel_h/debug/bl31/errata_report.o
 .debug_frame   0x0000000000001ac0      0x2e8 /home/jongja.cho/Git/legacy/rebel_cds_collab_hw/bootloader/cp/tf-a/build/rebel_h/debug/bl31/context_mgmt.o
 .debug_frame   0x0000000000001da8       0x40 /home/jongja.cho/Git/legacy/rebel_cds_collab_hw/bootloader/cp/tf-a/build/rebel_h/debug/bl31/cpu_data_array.o
 .debug_frame   0x0000000000001de8       0x58 /home/jongja.cho/Git/legacy/rebel_cds_collab_hw/bootloader/cp/tf-a/build/rebel_h/debug/bl31/mpam.o
 .debug_frame   0x0000000000001e40       0x58 /home/jongja.cho/Git/legacy/rebel_cds_collab_hw/bootloader/cp/tf-a/build/rebel_h/debug/bl31/pmuv3.o
 .debug_frame   0x0000000000001e98       0x70 /home/jongja.cho/Git/legacy/rebel_cds_collab_hw/bootloader/cp/tf-a/build/rebel_h/debug/bl31/spe.o
 .debug_frame   0x0000000000001f08       0x70 /home/jongja.cho/Git/legacy/rebel_cds_collab_hw/bootloader/cp/tf-a/build/rebel_h/debug/bl31/sve.o
 .debug_frame   0x0000000000001f78       0x60 /home/jongja.cho/Git/legacy/rebel_cds_collab_hw/bootloader/cp/tf-a/build/rebel_h/debug/bl31/bakery_lock_coherent.o
 .debug_frame   0x0000000000001fd8       0x50 /home/jongja.cho/Git/legacy/rebel_cds_collab_hw/bootloader/cp/tf-a/build/rebel_h/debug/bl31/per_cpu.o
 .debug_frame   0x0000000000002028      0x4d8 /home/jongja.cho/Git/legacy/rebel_cds_collab_hw/bootloader/cp/tf-a/build/rebel_h/debug/bl31/psci_common.o
 .debug_frame   0x0000000000002500      0x278 /home/jongja.cho/Git/legacy/rebel_cds_collab_hw/bootloader/cp/tf-a/build/rebel_h/debug/bl31/psci_main.o
 .debug_frame   0x0000000000002778       0x68 /home/jongja.cho/Git/legacy/rebel_cds_collab_hw/bootloader/cp/tf-a/build/rebel_h/debug/bl31/psci_mem_protect.o
 .debug_frame   0x00000000000027e0       0x48 /home/jongja.cho/Git/legacy/rebel_cds_collab_hw/bootloader/cp/tf-a/build/rebel_h/debug/bl31/psci_off.o
 .debug_frame   0x0000000000002828       0x88 /home/jongja.cho/Git/legacy/rebel_cds_collab_hw/bootloader/cp/tf-a/build/rebel_h/debug/bl31/psci_on.o
 .debug_frame   0x00000000000028b0       0xb0 /home/jongja.cho/Git/legacy/rebel_cds_collab_hw/bootloader/cp/tf-a/build/rebel_h/debug/bl31/psci_setup.o
 .debug_frame   0x0000000000002960       0x90 /home/jongja.cho/Git/legacy/rebel_cds_collab_hw/bootloader/cp/tf-a/build/rebel_h/debug/bl31/psci_suspend.o
 .debug_frame   0x00000000000029f0       0x98 /home/jongja.cho/Git/legacy/rebel_cds_collab_hw/bootloader/cp/tf-a/build/rebel_h/debug/bl31/psci_system_off.o
 .debug_frame   0x0000000000002a88      0x1f8 /home/jongja.cho/Git/legacy/rebel_cds_collab_hw/bootloader/cp/tf-a/build/rebel_h/debug/bl31/xlat_tables_arch.o
 .debug_frame   0x0000000000002c80      0x1a8 /home/jongja.cho/Git/legacy/rebel_cds_collab_hw/bootloader/cp/tf-a/build/rebel_h/debug/bl31/xlat_tables_context.o
 .debug_frame   0x0000000000002e28      0x1c0 /home/jongja.cho/Git/legacy/rebel_cds_collab_hw/bootloader/cp/tf-a/build/rebel_h/debug/bl31/arm_gicv3.o
 .debug_frame   0x0000000000002fe8       0x68 /home/jongja.cho/Git/legacy/rebel_cds_collab_hw/bootloader/cp/tf-a/build/rebel_h/debug/bl31/plat_common.o
 .debug_frame   0x0000000000003050      0x160 /home/jongja.cho/Git/legacy/rebel_cds_collab_hw/bootloader/cp/tf-a/build/rebel_h/debug/bl31/plat_bl_common.o
 .debug_frame   0x00000000000031b0      0x3a8 /home/jongja.cho/Git/legacy/rebel_cds_collab_hw/bootloader/cp/tf-a/build/rebel_h/debug/bl31/plat_gicv3.o
 .debug_frame   0x0000000000003558       0x28 /home/jongja.cho/Git/legacy/rebel_cds_collab_hw/bootloader/cp/tf-a/build/rebel_h/debug/bl31/plat_log_common.o
 .debug_frame   0x0000000000003580       0x38 /home/jongja.cho/Git/legacy/rebel_cds_collab_hw/bootloader/cp/tf-a/build/rebel_h/debug/bl31/plat_psci_common.o
 .debug_frame   0x00000000000035b8       0x50 /home/jongja.cho/Git/legacy/rebel_cds_collab_hw/bootloader/cp/tf-a/build/rebel_h/debug/bl31/rebel_sip_svc.o
 .debug_frame   0x0000000000003608       0xe0 /home/jongja.cho/Git/legacy/rebel_cds_collab_hw/bootloader/cp/tf-a/build/rebel_h/debug/bl31/rebel_h_bl31_setup.o
 .debug_frame   0x00000000000036e8       0xe8 /home/jongja.cho/Git/legacy/rebel_cds_collab_hw/bootloader/cp/tf-a/build/rebel_h/debug/bl31/rebel_h_pm.o
 .debug_frame   0x00000000000037d0      0x140 /home/jongja.cho/Git/legacy/rebel_cds_collab_hw/bootloader/cp/tf-a/build/rebel_h/debug/bl31/rebel_h_pmu.o
 .debug_frame   0x0000000000003910       0x40 /home/jongja.cho/Git/legacy/rebel_cds_collab_hw/bootloader/cp/tf-a/build/rebel_h/debug/bl31/rebel_h_sip_svc.o
 .debug_frame   0x0000000000003950       0x40 /home/jongja.cho/Git/legacy/rebel_cds_collab_hw/bootloader/cp/tf-a/build/rebel_h/debug/bl31/rebel_h_topology.o
 .debug_frame   0x0000000000003990       0x40 /home/jongja.cho/Git/legacy/rebel_cds_collab_hw/bootloader/cp/tf-a/build/rebel_h/debug/bl31/arm_arch_svc_setup.o
 .debug_frame   0x00000000000039d0       0x68 /home/jongja.cho/Git/legacy/rebel_cds_collab_hw/bootloader/cp/tf-a/build/rebel_h/debug/bl31/std_svc_setup.o
 .debug_frame   0x0000000000003a38       0x40 /home/jongja.cho/Git/legacy/rebel_cds_collab_hw/bootloader/cp/tf-a/build/rebel_h/debug/bl31/bl31_entrypoint.o
 .debug_frame   0x0000000000003a78       0xe8 /home/jongja.cho/Git/legacy/rebel_cds_collab_hw/bootloader/cp/tf-a/build/rebel_h/debug/bl31/crash_reporting.o
 .debug_frame   0x0000000000003b60      0x1f0 /home/jongja.cho/Git/legacy/rebel_cds_collab_hw/bootloader/cp/tf-a/build/rebel_h/debug/bl31/runtime_exceptions.o
 .debug_frame   0x0000000000003d50       0xa0 /home/jongja.cho/Git/legacy/rebel_cds_collab_hw/bootloader/cp/tf-a/build/rebel_h/debug/bl31/debug.o
 .debug_frame   0x0000000000003df0       0xd0 /home/jongja.cho/Git/legacy/rebel_cds_collab_hw/bootloader/cp/tf-a/build/rebel_h/debug/bl31/16550_console.o
 .debug_frame   0x0000000000003ec0      0x118 /home/jongja.cho/Git/legacy/rebel_cds_collab_hw/bootloader/cp/tf-a/build/rebel_h/debug/bl31/cache_helpers.o
 .debug_frame   0x0000000000003fd8       0xe8 /home/jongja.cho/Git/legacy/rebel_cds_collab_hw/bootloader/cp/tf-a/build/rebel_h/debug/bl31/misc_helpers.o
 .debug_frame   0x00000000000040c0       0x70 /home/jongja.cho/Git/legacy/rebel_cds_collab_hw/bootloader/cp/tf-a/build/rebel_h/debug/bl31/cortex_a73.o
 .debug_frame   0x0000000000004130       0x58 /home/jongja.cho/Git/legacy/rebel_cds_collab_hw/bootloader/cp/tf-a/build/rebel_h/debug/bl31/cpu_helpers.o
 .debug_frame   0x0000000000004188      0x328 /home/jongja.cho/Git/legacy/rebel_cds_collab_hw/bootloader/cp/tf-a/build/rebel_h/debug/bl31/wa_cve_2017_5715_bpiall.o
 .debug_frame   0x00000000000044b0       0x58 /home/jongja.cho/Git/legacy/rebel_cds_collab_hw/bootloader/cp/tf-a/build/rebel_h/debug/bl31/context.o
 .debug_frame   0x0000000000004508       0x58 /home/jongja.cho/Git/legacy/rebel_cds_collab_hw/bootloader/cp/tf-a/build/rebel_h/debug/bl31/spinlock.o
 .debug_frame   0x0000000000004560       0x28 /home/jongja.cho/Git/legacy/rebel_cds_collab_hw/bootloader/cp/tf-a/build/rebel_h/debug/bl31/per_cpu_asm.o
 .debug_frame   0x0000000000004588       0x40 /home/jongja.cho/Git/legacy/rebel_cds_collab_hw/bootloader/cp/tf-a/build/rebel_h/debug/bl31/psci_helpers.o
 .debug_frame   0x00000000000045c8       0x70 /home/jongja.cho/Git/legacy/rebel_cds_collab_hw/bootloader/cp/tf-a/build/rebel_h/debug/bl31/enable_mmu.o
 .debug_frame   0x0000000000004638      0x100 /home/jongja.cho/Git/legacy/rebel_cds_collab_hw/bootloader/cp/tf-a/build/rebel_h/debug/bl31/platform_helpers.o
 .debug_frame   0x0000000000004738       0x40 /home/jongja.cho/Git/legacy/rebel_cds_collab_hw/bootloader/cp/tf-a/build/rebel_h/debug/bl31/platform_mp_stack.o
 .debug_frame   0x0000000000004778      0x118 /home/jongja.cho/Git/legacy/rebel_cds_collab_hw/bootloader/cp/tf-a/build/rebel_h/debug/bl31/plat_helper.o
 .debug_frame   0x0000000000004890       0x30 /home/jongja.cho/Git/legacy/rebel_cds_collab_hw/bootloader/cp/tf-a/build/rebel_h/debug/lib/libc.a(assert.o)
 .debug_frame   0x00000000000048c0       0x28 /home/jongja.cho/Git/legacy/rebel_cds_collab_hw/bootloader/cp/tf-a/build/rebel_h/debug/lib/libc.a(memcpy.o)
 .debug_frame   0x00000000000048e8       0xc8 /home/jongja.cho/Git/legacy/rebel_cds_collab_hw/bootloader/cp/tf-a/build/rebel_h/debug/lib/libc.a(printf.o)
 .debug_frame   0x00000000000049b0       0x28 /home/jongja.cho/Git/legacy/rebel_cds_collab_hw/bootloader/cp/tf-a/build/rebel_h/debug/lib/libc.a(memset.o)
