
/home/jongja.cho/Git/legacy/rebel_cds_collab_hw/bootloader/cp/tf-a/build/rebel_h/debug/bl31/bl31.elf:     file format elf64-littleaarch64
/home/jongja.cho/Git/legacy/rebel_cds_collab_hw/bootloader/cp/tf-a/build/rebel_h/debug/bl31/bl31.elf
architecture: aarch64, flags 0x00000112:
EXEC_P, HAS_SYMS, D_PAGED
start address 0x0000000014100000

Program Header:
    LOAD off    0x0000000000001000 vaddr 0x0000000014100000 paddr 0x0000000014100000 align 2**12
         filesz 0x000000000000a000 memsz 0x000000000000a000 flags r-x
    LOAD off    0x000000000000b000 vaddr 0x000000001410a000 paddr 0x000000001410a000 align 2**12
         filesz 0x000000000000007e memsz 0x000000000001a000 flags rw-
   STACK off    0x0000000000000000 vaddr 0x0000000000000000 paddr 0x0000000000000000 align 2**4
         filesz 0x0000000000000000 memsz 0x0000000000000000 flags rw-
private flags = 0x0:

Sections:
Idx Name          Size      VMA               LMA               File off  Algn
  0 .ro           0000a000  0000000014100000  0000000014100000  00001000  2**11
                  CONTENTS, ALLOC, LOAD, READONLY, CODE
  1 .data         0000007e  000000001410a000  000000001410a000  0000b000  2**3
                  CONTENTS, ALLOC, LOAD, DATA
  2 .stacks       00004000  000000001410a080  000000001410a080  0000b07e  2**6
                  ALLOC
  3 .bss          00000750  000000001410e080  000000001410e080  0000b07e  2**4
                  ALLOC
  4 .per_cpu      00000d00  000000001410e800  000000001410e800  0000b07e  2**6
                  ALLOC
  5 .xlat_table   00013000  0000000014110000  0000000014110000  0000b07e  2**12
                  ALLOC
  6 .coherent_ram 00001000  0000000014123000  0000000014123000  0000b07e  2**12
                  ALLOC
  7 .debug_info   0002c25c  0000000000000000  0000000000000000  0000b07e  2**0
                  CONTENTS, READONLY, DEBUGGING, OCTETS
  8 .debug_abbrev 00009221  0000000000000000  0000000000000000  000372da  2**0
                  CONTENTS, READONLY, DEBUGGING, OCTETS
  9 .debug_loc    0002436f  0000000000000000  0000000000000000  000404fb  2**0
                  CONTENTS, READONLY, DEBUGGING, OCTETS
 10 .debug_aranges 00002760  0000000000000000  0000000000000000  00064870  2**4
                  CONTENTS, READONLY, DEBUGGING, OCTETS
 11 .debug_ranges 00006b80  0000000000000000  0000000000000000  00066fd0  2**4
                  CONTENTS, READONLY, DEBUGGING, OCTETS
 12 .debug_line   00011e65  0000000000000000  0000000000000000  0006db50  2**0
                  CONTENTS, READONLY, DEBUGGING, OCTETS
 13 .debug_str    000079c7  0000000000000000  0000000000000000  0007f9b5  2**0
                  CONTENTS, READONLY, DEBUGGING, OCTETS
 14 .comment      00000044  0000000000000000  0000000000000000  0008737c  2**0
                  CONTENTS, READONLY
 15 .debug_frame  000049d8  0000000000000000  0000000000000000  000873c0  2**3
                  CONTENTS, READONLY, DEBUGGING, OCTETS
SYMBOL TABLE:
0000000014100000 l    d  .ro	0000000000000000 .ro
000000001410a000 l    d  .data	0000000000000000 .data
000000001410a080 l    d  .stacks	0000000000000000 .stacks
000000001410e080 l    d  .bss	0000000000000000 .bss
000000001410e800 l    d  .per_cpu	0000000000000000 .per_cpu
0000000014110000 l    d  .xlat_table	0000000000000000 .xlat_table
0000000014123000 l    d  .coherent_ram	0000000000000000 .coherent_ram
0000000000000000 l    d  .debug_info	0000000000000000 .debug_info
0000000000000000 l    d  .debug_abbrev	0000000000000000 .debug_abbrev
0000000000000000 l    d  .debug_loc	0000000000000000 .debug_loc
0000000000000000 l    d  .debug_aranges	0000000000000000 .debug_aranges
0000000000000000 l    d  .debug_ranges	0000000000000000 .debug_ranges
0000000000000000 l    d  .debug_line	0000000000000000 .debug_line
0000000000000000 l    d  .debug_str	0000000000000000 .debug_str
0000000000000000 l    d  .comment	0000000000000000 .comment
0000000000000000 l    d  .debug_frame	0000000000000000 .debug_frame
0000000000000000 l    df *ABS*	0000000000000000 bl31_entrypoint.o
0000000000000000 l    df *ABS*	0000000000000000 bakery_lock.c
0000000000000000 l    df *ABS*	0000000000000000 bl31_context_mgmt.c
0000000000000000 l    df *ABS*	0000000000000000 bl31_main.c
0000000014106ee8 l     O .ro	0000000000000010 psci_args.1
000000001410a068 l     O .data	0000000000000004 next_image_type
0000000014107769 l     O .ro	000000000000001e __func__.0
0000000014107787 l     O .ro	000000000000002e build_version_string
00000000141077b5 l     O .ro	000000000000001e build_message
000000001410e080 l     O .bss	0000000000000008 bl32_init
0000000000000000 l    df *ABS*	0000000000000000 bl31_traps.c
0000000014100574 l     F .ro	0000000000000018 is_tge_enabled
0000000000000000 l    df *ABS*	0000000000000000 interrupt_mgmt.c
000000001410e088 l     O .bss	0000000000000080 intr_type_descs
0000000000000000 l    df *ABS*	0000000000000000 backtrace.c
000000001410094c l     F .ro	0000000000000040 is_address_readable
000000001410098c l     F .ro	000000000000005c is_valid_object.constprop.0
0000000000000000 l    df *ABS*	0000000000000000 bl_common.c
0000000000000000 l    df *ABS*	0000000000000000 runtime_svc.c
00000000141077d3 l     O .ro	0000000000000011 __func__.0
0000000000000000 l    df *ABS*	0000000000000000 tf_log.c
000000001410a06c l     O .data	0000000000000004 max_log_level
0000000000000000 l    df *ABS*	0000000000000000 gic-x00.c
0000000014100d1c l     F .ro	0000000000000014 gicr_wait_group_not_in_transit
0000000014100d30 l     F .ro	0000000000000048 gicv3_redists_need_power_mgmt
0000000014100d78 l     F .ro	0000000000000038 get_gicr_base
000000001410e78c l     O .bss	0000000000000001 gic600_errata_wa_2384374
0000000000000000 l    df *ABS*	0000000000000000 gicdv3_helpers.c
0000000000000000 l    df *ABS*	0000000000000000 gicrv3_helpers.c
0000000000000000 l    df *ABS*	0000000000000000 gicv3_helpers.c
0000000000000000 l    df *ABS*	0000000000000000 gicv3_main.c
0000000014101470 l     F .ro	000000000000000c gicd_wait_for_pending_write
0000000014101470 l     F .ro	000000000000000c gicr_wait_for_upstream_pending_write
0000000000000000 l    df *ABS*	0000000000000000 multi_console.c
000000001410a070 l     O .data	0000000000000004 console_state
0000000000000000 l    df *ABS*	0000000000000000 mt25q_flash.c
0000000014101ac4 l     F .ro	00000000000000a0 flash_spi_set_quad_mode
000000001410e700 l     O .bss	0000000000000004 flash_spi_mode
0000000000000000 l    df *ABS*	0000000000000000 qspi_boot.c
0000000014102018 l     F .ro	0000000000000020 qspi_boot_wait_busy_state
0000000014102038 l     F .ro	0000000000000014 qspi_boot_wait_idle
000000001410204c l     F .ro	0000000000000028 qspi_boot_ser_enable
0000000014102074 l     F .ro	0000000000000018 qspi_boot_ser_disable
0000000000000000 l    df *ABS*	0000000000000000 errata_common.c
0000000000000000 l    df *ABS*	0000000000000000 errata_report.c
0000000000000000 l    df *ABS*	0000000000000000 context_mgmt.c
00000000141077e4 l     O .ro	0000000000000011 __func__.0
0000000000000000 l    df *ABS*	0000000000000000 cpu_data_array.c
0000000000000000 l    df *ABS*	0000000000000000 mpam.c
0000000000000000 l    df *ABS*	0000000000000000 pmuv3.c
0000000000000000 l    df *ABS*	0000000000000000 spe.c
0000000000000000 l    df *ABS*	0000000000000000 sve.c
0000000000000000 l    df *ABS*	0000000000000000 bakery_lock_coherent.c
0000000000000000 l    df *ABS*	0000000000000000 per_cpu.c
0000000000000000 l    df *ABS*	0000000000000000 psci_common.c
000000001410e78d l     O .bss	0000000000000004 psci_req_local_pwr_states
000000001410782f l     O .ro	0000000000000019 __func__.2
0000000014107811 l     O .ro	000000000000001e __func__.1
00000000141077f5 l     O .ro	000000000000001c __func__.0
0000000000000000 l    df *ABS*	0000000000000000 psci_main.c
00000000141037b4 l     F .ro	000000000000001c is_valid_mpidr
0000000014107848 l     O .ro	0000000000000011 __func__.0
0000000000000000 l    df *ABS*	0000000000000000 psci_mem_protect.c
0000000000000000 l    df *ABS*	0000000000000000 psci_off.c
0000000000000000 l    df *ABS*	0000000000000000 psci_on.c
0000000000000000 l    df *ABS*	0000000000000000 psci_setup.c
000000001410e880 l     O .per_cpu	0000000000000280 psci_ns_context
000000001410e148 l     O .bss	0000000000000160 warmboot_ep_info
0000000000000000 l    df *ABS*	0000000000000000 psci_suspend.c
0000000000000000 l    df *ABS*	0000000000000000 psci_system_off.c
0000000000000000 l    df *ABS*	0000000000000000 xlat_tables_arch.c
0000000000000000 l    df *ABS*	0000000000000000 xlat_tables_context.c
000000001410a000 l     O .data	0000000000000060 tf_xlat_ctx
000000001410e2a8 l     O .bss	0000000000000398 tf_mmap
0000000014110000 l     O .xlat_table	0000000000013000 tf_xlat_tables
000000001410e7c0 l     O .bss	0000000000000010 tf_base_xlat_table
0000000000000000 l    df *ABS*	0000000000000000 arm_gicv3.c
0000000014104b04 l     F .ro	0000000000000010 arm_gicv3_mpidr_hash
000000001410a060 l     O .data	0000000000000008 gicr_frames
0000000014106ef8 l     O .ro	0000000000000030 arm_gic_data
0000000014107870 l     O .ro	0000000000000019 __func__.1
0000000014107859 l     O .ro	0000000000000017 __func__.0
00000000141070bc l     O .ro	0000000000000008 arm_interrupt_props
000000001410e658 l     O .bss	0000000000000020 rdistif_base_addrs
0000000014106f28 l     O .ro	0000000000000010 gicr_base_addrs
0000000000000000 l    df *ABS*	0000000000000000 plat_common.c
0000000014106f38 l     O .ro	0000000000000020 CSWTCH.3
0000000000000000 l    df *ABS*	0000000000000000 plat_bl_common.c
0000000000000000 l    df *ABS*	0000000000000000 plat_gicv3.c
0000000014107889 l     O .ro	0000000000000004 CSWTCH.17
0000000000000000 l    df *ABS*	0000000000000000 plat_log_common.c
0000000014106f58 l     O .ro	0000000000000028 plat_prefix_str
0000000000000000 l    df *ABS*	0000000000000000 plat_psci_common.c
0000000000000000 l    df *ABS*	0000000000000000 rebel_sip_svc.c
0000000014107b40 l     O .ro	0000000000000020 __svc_desc_rebel_sip_svc
0000000000000000 l    df *ABS*	0000000000000000 rebel_h_bl31_setup.c
000000001410e678 l     O .bss	0000000000000028 rebel_console
000000001410e6a0 l     O .bss	0000000000000058 bl33_image_ep_info
0000000000000000 l    df *ABS*	0000000000000000 rebel_h_pm.c
00000000141052e4 l     F .ro	0000000000000008 rebel_h_validate_power_state
00000000141052ec l     F .ro	0000000000000004 rebel_h_cpu_standby
00000000141052f0 l     F .ro	0000000000000004 rebel_h_pwr_domain_on_finish
00000000141052f4 l     F .ro	0000000000000014 rebel_h_pwr_domain_on_finish_late
0000000014105308 l     F .ro	000000000000003c rebel_h_pwr_domain_off
0000000014105344 l     F .ro	0000000000000074 rebel_h_pwr_domain_on
000000001410e6f8 l     O .bss	0000000000000008 plat_sec_entrypoint
0000000014106f80 l     O .ro	00000000000000b0 plat_rebel_h_psci_pm_ops
0000000000000000 l    df *ABS*	0000000000000000 rebel_h_pmu.c
0000000000000000 l    df *ABS*	0000000000000000 rebel_h_sip_svc.c
000000001410788d l     O .ro	0000000000000017 __func__.0
0000000000000000 l    df *ABS*	0000000000000000 rebel_h_topology.c
000000001410a07c l     O .data	0000000000000002 power_domain_tree_desc
0000000000000000 l    df *ABS*	0000000000000000 arm_arch_svc_setup.c
00000000141055d0 l     F .ro	0000000000000244 arm_arch_svc_smc_handler
0000000014107b60 l     O .ro	0000000000000020 __svc_desc_arm_arch_svc
0000000000000000 l    df *ABS*	0000000000000000 std_svc_setup.c
0000000014105814 l     F .ro	00000000000000b8 std_svc_smc_handler
00000000141058cc l     F .ro	000000000000002c std_svc_setup
0000000014107b80 l     O .ro	0000000000000020 __svc_desc_std_svc
0000000000000000 l    df *ABS*	0000000000000000 crash_reporting.o
00000000141078a4 l       .ro	0000000000000000 print_spacer
00000000141078b6 l       .ro	0000000000000000 gp_regs
0000000014107925 l       .ro	0000000000000000 el3_sys_regs
0000000014107982 l       .ro	0000000000000000 non_el3_sys_regs
000000001410799c l       .ro	0000000000000000 aarch32_regs
00000000141079b3 l       .ro	0000000000000000 panic_msg
00000000141079c5 l       .ro	0000000000000000 excpt_msg
00000000141079e5 l       .ro	0000000000000000 intr_excpt_msg
0000000014107a0b l       .ro	0000000000000000 x30_msg
0000000014107a0f l       .ro	0000000000000000 excpt_msg_el
00000000141058f8 l     F .ro	000000000000004c size_controlled_print_helper
00000000141058f8 l       .ro	0000000000000000 size_controlled_print
0000000014105900 l       .ro	0000000000000000 test_size_list
000000001410593c l       .ro	0000000000000000 exit_size_print
0000000014105944 l     F .ro	000000000000000c print_alignment
0000000014105950 l     F .ro	0000000000000018 str_in_crash_buf_print
0000000014105ae8 l       .ro	0000000000000000 do_crash_reporting
00000000141059fc l       .ro	0000000000000000 print_next
0000000014105a28 l       .ro	0000000000000000 print_x30
0000000014105a9c l       .ro	0000000000000000 from_el1
0000000014105a4c l       .ro	0000000000000000 test_pauth
0000000014105a6c l       .ro	0000000000000000 no_pauth
0000000014105b60 l       .ro	0000000000000000 print_el3_sys_regs
0000000014105bd0 l     F .ro	0000000000000008 crash_panic
0000000000000000 l    df *ABS*	0000000000000000 runtime_exceptions.o
0000000014105d78 l     F .ro	0000000000000080 reflect_pending_async_ea_to_lower_el
0000000014105bd8 l       .ro	0000000000000000 smc_handler32
0000000014105bdc l       .ro	0000000000000000 sync_handler64
0000000014105d3c l     F .ro	000000000000003c imp_def_el3_handler
0000000014105ce8 l     F .ro	0000000000000054 handle_interrupt_exception
0000000014105bd8 l     F .ro	0000000000000110 sync_exception_handler
0000000014105cc4 l       .ro	0000000000000000 smc_prohibited
0000000014105c6c l       .ro	0000000000000000 sysreg_handler64
0000000014105cb8 l       .ro	0000000000000000 smc_unknown
0000000014105cdc l       .ro	0000000000000000 rt_svc_fw_critical_error
0000000014105d38 l       .ro	0000000000000000 interrupt_exit
0000000014105d60 l       .ro	0000000000000000 el3_handler_exit
0000000014105d98 l       .ro	0000000000000000 check_loop_ctr
0000000014105dac l       .ro	0000000000000000 skip_loop_ctr
0000000014105de0 l       .ro	0000000000000000 skip_smc_check
0000000014105ddc l       .ro	0000000000000000 subtract_elr_el3
0000000000000000 l    df *ABS*	0000000000000000 debug.o
0000000014107a33 l       .ro	0000000000000000 panic_msg
0000000014105e5c l       .ro	0000000000000000 panic_common
0000000014105e84 l       .ro	0000000000000000 _panic_handler
0000000000000000 l    df *ABS*	0000000000000000 16550_console.o
0000000014105ef4 l       .ro	0000000000000000 init_fail
0000000014105f44 l       .ro	0000000000000000 register_fail
0000000014105f18 l       .ro	0000000000000000 register_16550
0000000000000000 l    df *ABS*	0000000000000000 cache_helpers.o
0000000014106028 l       .ro	0000000000000000 exit_loop_civac
0000000014106014 l       .ro	0000000000000000 loop_civac
0000000014106060 l       .ro	0000000000000000 exit_loop_cvac
000000001410604c l       .ro	0000000000000000 loop_cvac
0000000014106098 l       .ro	0000000000000000 exit_loop_ivac
0000000014106084 l       .ro	0000000000000000 loop_ivac
000000001410609c l     F .ro	000000000000009c do_dcsw_op
0000000014106134 l       .ro	0000000000000000 exit
0000000014106138 l       .ro	0000000000000000 dcsw_loop_table
00000000141060b8 l       .ro	0000000000000000 loop1
000000001410611c l       .ro	0000000000000000 level_done
0000000014106138 l       .ro	0000000000000000 loop2_isw
000000001410613c l       .ro	0000000000000000 loop3_isw
0000000014106158 l       .ro	0000000000000000 loop2_cisw
000000001410615c l       .ro	0000000000000000 loop3_cisw
0000000014106178 l       .ro	0000000000000000 loop2_csw
000000001410617c l       .ro	0000000000000000 loop3_csw
0000000000000000 l    df *ABS*	0000000000000000 misc_helpers.o
00000000141061c0 l     F .ro	0000000000000114 zeromem_dczva
0000000000000000 l    df *ABS*	0000000000000000 cortex_a73.o
00000000141062d4 l     F .ro	000000000000009c cortex_a73_reset_func
0000000014106370 l     F .ro	0000000000000018 cortex_a73_disable_smp
0000000014107030 l       .ro	0000000000000000 cortex_a73_errata_list_start
0000000014106388 l     F .ro	0000000000000008 check_erratum_cortex_a73_3
0000000014106390 l     F .ro	000000000000000c check_erratum_cortex_a73_852427
0000000014106300 l       .ro	0000000000000000 erratum_cortex_a73_852427_skip_reset
000000001410639c l     F .ro	000000000000000c check_erratum_cortex_a73_855423
000000001410631c l       .ro	0000000000000000 erratum_cortex_a73_855423_skip_reset
00000000141063a8 l     F .ro	0000000000000034 check_erratum_cortex_a73_5715
00000000141063dc l     F .ro	0000000000000008 check_erratum_cortex_a73_3639
0000000014106338 l       .ro	0000000000000000 erratum_cortex_a73_3639_skip_reset
00000000141063e4 l     F .ro	000000000000003c check_erratum_cortex_a73_23960
000000001410635c l       .ro	0000000000000000 erratum_cortex_a73_23960_skip_reset
0000000014106420 l     F .ro	0000000000000014 cortex_a73_core_pwr_dwn
0000000014106434 l     F .ro	0000000000000020 cortex_a73_cluster_pwr_dwn
0000000014107aad l       .ro	0000000000000000 cortex_a73_regs
0000000014106454 l     F .ro	0000000000000010 cortex_a73_cpu_reg_dump
0000000014107090 l       .ro	0000000000000000 cortex_a73_errata_list_end
000000001410a074 l       .data	0000000000000000 cortex_a73_errata_lock
000000001410a078 l       .data	0000000000000000 cortex_a73_errata_reported
0000000014107ac8 l       .ro	0000000000000000 cortex_a73_cpu_str
0000000000000000 l    df *ABS*	0000000000000000 cpu_helpers.o
00000000141064dc l       .ro	0000000000000000 search_def_ptr
0000000000000000 l    df *ABS*	0000000000000000 wa_cve_2017_5715_bpiall.o
0000000014108800 l     F .ro	0000000000000000 bpiall_sync_exception_sp_el0
0000000014108808 l       .ro	0000000000000000 stub_sel1_sctlr
0000000014108810 l       .ro	0000000000000000 aarch32_stub
0000000014108880 l     F .ro	0000000000000000 bpiall_irq_sp_el0
0000000014108900 l     F .ro	0000000000000000 bpiall_fiq_sp_el0
0000000014108980 l     F .ro	0000000000000000 bpiall_serror_sp_el0
0000000014108a00 l     F .ro	0000000000000000 bpiall_sync_exception_sp_elx
0000000014108a80 l     F .ro	0000000000000000 bpiall_irq_sp_elx
0000000014108b00 l     F .ro	0000000000000000 bpiall_fiq_sp_elx
0000000014108b80 l     F .ro	0000000000000000 bpiall_serror_sp_elx
0000000014108c00 l     F .ro	0000000000000000 bpiall_sync_exception_aarch64
0000000014109000 l       .ro	0000000000000000 wa_cve_2017_5715_bpiall_ret_vbar
0000000014108c80 l     F .ro	0000000000000000 bpiall_irq_aarch64
0000000014108d00 l     F .ro	0000000000000000 bpiall_fiq_aarch64
0000000014108d80 l     F .ro	0000000000000000 bpiall_serror_aarch64
0000000014108e00 l     F .ro	0000000000000000 bpiall_sync_exception_aarch32
0000000014108e80 l     F .ro	0000000000000000 bpiall_irq_aarch32
0000000014108f00 l     F .ro	0000000000000000 bpiall_fiq_aarch32
0000000014108f80 l     F .ro	0000000000000000 bpiall_serror_aarch32
0000000014109000 l     F .ro	0000000000000000 bpiall_ret_sync_exception_sp_el0
0000000014109080 l     F .ro	0000000000000000 bpiall_ret_irq_sp_el0
0000000014109100 l     F .ro	0000000000000000 bpiall_ret_fiq_sp_el0
0000000014109180 l     F .ro	0000000000000000 bpiall_ret_serror_sp_el0
0000000014109200 l     F .ro	0000000000000000 bpiall_ret_sync_exception_sp_elx
0000000014109280 l     F .ro	0000000000000000 bpiall_ret_irq_sp_elx
0000000014109300 l     F .ro	0000000000000000 bpiall_ret_fiq_sp_elx
0000000014109380 l     F .ro	0000000000000000 bpiall_ret_serror_sp_elx
0000000014109400 l     F .ro	0000000000000000 bpiall_ret_sync_exception_aarch64
0000000014109480 l     F .ro	0000000000000000 bpiall_ret_irq_aarch64
0000000014109500 l     F .ro	0000000000000000 bpiall_ret_fiq_aarch64
0000000014109580 l     F .ro	0000000000000000 bpiall_ret_serror_aarch64
0000000014109600 l     F .ro	0000000000000000 bpiall_ret_sync_exception_aarch32
0000000014109684 l       .ro	0000000000000000 workaround_not_sync
0000000014106504 l     F .ro	0000000000000008 bpiall_ret_sync_exception_aarch32_tail
0000000014109680 l     F .ro	0000000000000000 bpiall_ret_irq_aarch32
000000001410969c l       .ro	0000000000000000 bpiall_ret_serror
0000000014109694 l       .ro	0000000000000000 bpiall_ret_fiq
0000000014109700 l     F .ro	0000000000000000 bpiall_ret_fiq_aarch32
0000000014109780 l     F .ro	0000000000000000 bpiall_ret_serror_aarch32
0000000000000000 l    df *ABS*	0000000000000000 context.o
0000000014106634 l       .ro	0000000000000000 realm_state
0000000014106638 l       .ro	0000000000000000 end
0000000014106680 l       .ro	0000000000000000 no_mpam
0000000000000000 l    df *ABS*	0000000000000000 spinlock.o
00000000141066c4 l       .ro	0000000000000000 l1
00000000141066c8 l       .ro	0000000000000000 l2
0000000000000000 l    df *ABS*	0000000000000000 per_cpu_asm.o
0000000000000000 l    df *ABS*	0000000000000000 psci_helpers.o
0000000000000000 l    df *ABS*	0000000000000000 enable_mmu.o
0000000000000000 l    df *ABS*	0000000000000000 platform_helpers.o
0000000000000000 l    df *ABS*	0000000000000000 platform_mp_stack.o
000000001410a080 l       .stacks	0000000000000000 platform_normal_stacks
0000000000000006 l       *ABS*	0000000000000000 TZ_COUNT
0000000000000000 l    df *ABS*	0000000000000000 plat_helper.o
0000000000000000 l    df *ABS*	0000000000000000 assert.c
0000000000000000 l    df *ABS*	0000000000000000 memcpy.c
0000000000000000 l    df *ABS*	0000000000000000 printf.c
0000000014106880 l     F .ro	00000000000000f4 unsigned_num_print.part.0
0000000000000000 l    df *ABS*	0000000000000000 memset.c
0000000014101a48 g     F .ro	0000000000000028 putchar
000000001410114c g     F .ro	000000000000001c gicv3_get_spi_limit
0000000014102c20 g     F .ro	000000000000005c cm_prepare_el3_exit
0000000014101458 g     F .ro	0000000000000018 gicv3_get_component_prodid_rev
0000000014101978 g     F .ro	0000000000000028 console_set_scope
0000000014101d70 g     F .ro	0000000000000150 erase_flash
0000000014104c50  w    F .ro	0000000000000008 plat_is_smccc_feature_available
000000001410e7c0 g       .bss	0000000000000000 __PMF_TIMESTAMP_START__
0000000014104b84  w    F .ro	0000000000000014 plat_arm_gic_cpuif_enable
0000000014104c58  w    F .ro	0000000000000048 plat_ic_get_pending_interrupt_type
0000000014102a70 g     F .ro	000000000000017c cm_el1_sysregs_context_restore
0000000014103b94 g     F .ro	000000000000002c psci_migrate_info_up_cpu
0000000014102cdc g     F .ro	0000000000000004 mpam_init_el3
0000000014124000 g       .coherent_ram	0000000000000000 __BL31_END__
0000000014101908 g     F .ro	0000000000000064 console_register
0000000014103854 g     F .ro	0000000000000144 psci_cpu_suspend
0000000014124000 g       .coherent_ram	0000000000000000 __COHERENT_RAM_END__
0000000014102228 g     F .ro	00000000000000cc qspi_boot_std_tx_rx_d_multiple
0000000014105fd8 g     F .ro	000000000000001c console_16550_flush
0000000014108600 g     F .ro	0000000000000000 sync_exception_aarch32
00000000141061b8 g     F .ro	0000000000000008 zeromem
0000000014105e48 g     F .ro	0000000000000008 asm_print_newline
0000000014107bf8 g       .ro	0000000000000000 __pubsub_psci_suspend_pwrdown_finish_end
00000000141034a8 g     F .ro	00000000000000f4 psci_validate_entry_point
000000001410219c g     F .ro	0000000000000048 qspi_boot_std_tx_d_multiple
0000000014100b08 g     F .ro	0000000000000004 print_entry_point_info
0000000014100330 g     F .ro	0000000000000038 cm_get_context
0000000014106e1c g     F .ro	0000000000000054 printf
000000001410e640 g     O .bss	0000000000000018 mmu_cfg_params
0000000014103450 g     F .ro	0000000000000058 psci_release_pwr_domain_locks
0000000014105594 g     F .ro	000000000000003c plat_core_pos_by_mpidr
0000000014102ef8 g     F .ro	0000000000000038 psci_validate_power_state
0000000014102a3c g     F .ro	0000000000000004 cm_init_percpu_once_regs
000000001410a000 g       .ro	0000000000000000 __RW_START__
0000000014105f48 g     F .ro	000000000000004c console_16550_core_putc
0000000014104c14 g     F .ro	0000000000000024 get_el_str
0000000014110000 g       .xlat_table	0000000000000000 __XLAT_TABLE_START__
0000000014100818 g     F .ro	00000000000000b8 inject_undef64
0000000014105f94 g     F .ro	000000000000001c console_16550_putc
0000000014101d14 g     F .ro	000000000000005c enable_write
0000000014105df8 g     F .ro	0000000000000008 asm_assert
0000000000000340 g       *ABS*	0000000000000000 __PER_CPU_UNIT_SECTION_SIZE__
00000000141052c4 g     F .ro	0000000000000014 bl31_plat_get_next_image_ep_info
0000000014106198 g     F .ro	0000000000000010 dcsw_op_level1
0000000014100e08 g     F .ro	000000000000005c gicv3_check_erratas_applies
0000000014103784 g     F .ro	0000000000000030 psci_pwrdown_cpu_end_wakeup
000000001410e70c g     O .bss	0000000000000080 rt_svc_descs_indices
00000000141053b8 g     F .ro	000000000000001c plat_setup_psci_ops
0000000014108200 g     F .ro	0000000000000000 sync_exception_sp_elx
0000000014102c7c g     F .ro	0000000000000008 cm_prepare_el3_exit_ns
0000000014108000 g     F .ro	0000000000000000 sync_exception_sp_el0
0000000014101750 g     F .ro	0000000000000094 gicv3_cpuif_disable
0000000014103a6c g     F .ro	000000000000006c psci_affinity_info
0000000014104cac  w    F .ro	0000000000000030 plat_log_get_prefix
0000000014103ad8 g     F .ro	00000000000000a0 psci_migrate
0000000014104ca0 g     F .ro	000000000000000c plat_ic_has_interrupt_type
00000000141010d8 g     F .ro	0000000000000074 gicv3_rdistif_base_addrs_probe
0000000014102eb0 g     F .ro	0000000000000030 per_cpu_by_index_compute
00000000141065f8 g     F .ro	00000000000000c4 el3_exit
000000001410f500 g       .per_cpu	0000000000000000 __PER_CPU_END__
00000000141042e0 g     F .ro	00000000000003e4 psci_setup
0000000014104c10  w    F .ro	0000000000000004 bl31_plat_runtime_setup
000000001410a000 g       .data	0000000000000000 __DATA_START__
0000000014123000 g     O .coherent_ram	0000000000000010 psci_locks
00000000141067b8  w    F .ro	0000000000000004 plat_disable_acp
0000000014103324 g     F .ro	0000000000000024 psci_find_target_suspend_lvl
0000000014100f04 g     F .ro	000000000000001c gicd_set_isenabler
00000000141042bc g     F .ro	0000000000000024 psci_arch_setup
00000000141049e4 g     F .ro	0000000000000050 psci_system_reset
0000000014100f20 g     F .ro	0000000000000014 gicd_set_ipriorityr
0000000014106860 g     F .ro	0000000000000020 memcpy
0000000014102d08 g     F .ro	000000000000001c pmuv3_init_el3
0000000014103998 g     F .ro	00000000000000b0 psci_system_suspend
0000000014108380 g     F .ro	0000000000000000 serror_sp_elx
0000000014102540 g     F .ro	00000000000000a4 check_erratum_applies
00000000141022f4 g     F .ro	00000000000000b0 qspi_boot_config_controller
0000000014101540 g     F .ro	0000000000000090 gicv3_distif_init
0000000014108080 g     F .ro	0000000000000000 irq_sp_el0
00000000141061c0 g     F .ro	0000000000000114 zero_normalmem
0000000014103138 g     F .ro	000000000000005c psci_get_parent_pwr_domain_nodes
000000001410147c g     F .ro	00000000000000c4 gicv3_driver_init
0000000014104994 g     F .ro	0000000000000050 psci_system_off
0000000014106808 g     F .ro	0000000000000004 platform_mem_init
00000000141023a8 g     F .ro	000000000000002c qspi_boot_enhance_tx_i_once
00000000141023a4 g     F .ro	0000000000000004 qspi_boot_config_for_flash
0000000014107bf8 g       .ro	0000000000000000 __pubsub_cm_exited_secure_world_end
0000000014100184 g     F .ro	00000000000000b8 bl31_warm_entrypoint
00000000141052d8 g     F .ro	000000000000000c plat_get_syscnt_freq2
00000000141054b0 g     F .ro	0000000000000014 pmu_get_bootreason
00000000141067bc  w    F .ro	0000000000000008 plat_panic_handler
0000000014107b40 g       .ro	0000000000000000 __RT_SVC_DESCS_START__
0000000014102d68 g     F .ro	0000000000000010 sve_enable_per_world
000000001410e080 g       .stacks	0000000000000000 __STACKS_END__
00000000141010bc g     F .ro	000000000000001c gicv3_rdistif_mark_core_asleep
0000000014107bf8 g       .ro	0000000000000000 __pubsub_psci_suspend_pwrdown_start_end
000000001410602c g     F .ro	0000000000000038 clean_dcache_range
00000000141065a8 g     F .ro	0000000000000050 restore_gp_pmcr_pauth_regs
000000001410359c g     F .ro	0000000000000118 psci_warmboot_entrypoint
0000000014102d78 g     F .ro	0000000000000014 sve_disable_per_world
0000000014101068 g     F .ro	0000000000000054 gicv3_rdistif_mark_core_awake
0000000014107bf8 g       .ro	0000000000000000 __pubsub_cm_exited_normal_world_start
00000000141067e8  w    F .ro	0000000000000010 plat_set_my_stack
0000000014100368 g     F .ro	000000000000003c cm_set_context_by_index
0000000014107ba0 g       .ro	0000000000000000 __RT_SVC_DESCS_END__
0000000014101c54 g     F .ro	000000000000005c write_flash_fast_256_data
0000000014108800 g       .ro	0000000000000000 wa_cve_2017_5715_bpiall_vbar
0000000014105e18 g     F .ro	0000000000000030 asm_print_hex
0000000014104e3c g     F .ro	0000000000000004 bl31_plat_arch_setup
0000000014102ee0 g     F .ro	0000000000000018 per_cpu_cur_compute
00000000141004a4 g     F .ro	00000000000000d0 bl31_main
000000001410eb00 g     O .per_cpu	0000000000000010 psci_cpu_pd_nodes
0000000014103748 g     F .ro	000000000000003c psci_pwrdown_cpu_end_terminal
0000000014105e00 g     F .ro	0000000000000018 asm_print_str
0000000014104ae8 g     F .ro	0000000000000008 touch_dummy_mmu_cfg
0000000014104b98  w    F .ro	0000000000000014 plat_arm_gic_cpuif_disable
00000000141067c4  w    F .ro	0000000000000004 bl31_plat_enable_mmu
0000000014105fb0 g     F .ro	0000000000000028 console_16550_core_flush
000000001410278c g     F .ro	0000000000000004 cm_init
0000000014106838 g     F .ro	000000000000000c plat_crash_console_flush
0000000014108000 g       .ro	0000000000000000 runtime_exceptions
0000000014100f6c g     F .ro	0000000000000014 gicr_write_ipriorityr
0000000014107bf8 g       .ro	0000000000000000 __pubsub_cm_exited_secure_world_start
00000000141036b4 g     F .ro	0000000000000040 psci_spd_migrate_info
000000001410180c g     F .ro	00000000000000c0 gicv3_rdistif_probe
00000000141036f4 g     F .ro	0000000000000004 psci_print_power_domain_map
0000000014109800 g       .ro	0000000000000000 __RO_END_UNALIGNED__
0000000014100000 g       .ro	0000000000000000 RAM_REGION_START
0000000014104cdc g     F .ro	0000000000000038 plat_get_target_pwr_state
00000000141019a0 g     F .ro	00000000000000a8 console_putc
0000000014104c48  w    F .ro	0000000000000008 plat_get_soc_name
0000000014101030 g     F .ro	0000000000000038 gicr_set_icfgr
0000000014100f34 g     F .ro	0000000000000014 gicd_write_icfgr
00000000141067c8  w    F .ro	0000000000000004 plat_handle_el3_ea
0000000014102f54 g     F .ro	0000000000000088 psci_is_last_on_cpu
000000001410680c g     F .ro	0000000000000020 plat_crash_console_init
0000000014108680 g     F .ro	0000000000000000 irq_aarch32
0000000014105ff4 g     F .ro	0000000000000038 flush_dcache_range
0000000014104d2c g     F .ro	0000000000000110 bl31_early_platform_setup2
0000000014102464 g     F .ro	0000000000000064 qspi_boot_enhance_tx_i_a_d_size
0000000014102d5c g     F .ro	000000000000000c sve_init_el3
0000000014107ba0 g       .ro	0000000000000000 __PMF_SVC_DESCS_END__
00000000141009e8 g     F .ro	0000000000000120 backtrace
000000001410a080 g       .data	0000000000000000 __RELA_END__
000000001410a080 g       .data	0000000000000000 __RELA_START__
0000000014124000 g       .coherent_ram	0000000000000000 RAM_REGION_END
000000001410eb10 g       .per_cpu	0000000000000000 __PER_CPU_UNIT_UNALIGNED_END_UNIT__
0000000014108180 g     F .ro	0000000000000000 serror_sp_el0
0000000014106974 g     F .ro	00000000000004a8 vprintf
0000000014101ec0 g     F .ro	0000000000000068 read_flash
00000000141024c8 g     F .ro	0000000000000078 find_erratum_entry
0000000014105968 g     F .ro	0000000000000040 report_unhandled_exception
0000000014104af0 g     F .ro	0000000000000014 touch_dummy_mmu_cfg_el3
00000000141041bc g     F .ro	0000000000000100 psci_cpu_on_finish
0000000014103a48 g     F .ro	0000000000000024 psci_cpu_off
000000001410680c g     F .ro	0000000000000004 plat_reset_handler
0000000014106748 g     F .ro	0000000000000070 enable_mmu_direct_el3
0000000014102cc8 g     F .ro	0000000000000014 mpam_enable_per_world
00000000141015d0 g     F .ro	00000000000000c8 gicv3_rdistif_init
0000000014107bf8 g       .ro	0000000000000000 __pubsub_cm_entering_normal_world_end
0000000014106484 g     F .ro	0000000000000070 get_cpu_ops_ptr
0000000014100de4 g     F .ro	0000000000000024 gicv3_apply_errata_wa_2384374
0000000014100000 g     F .ro	0000000000000184 bl31_entrypoint
0000000014100f80 g     F .ro	0000000000000018 gicr_set_ipriorityr
0000000014102a40 g     F .ro	0000000000000030 cm_init_my_context
0000000014108580 g     F .ro	0000000000000000 serror_aarch64
0000000014100f98 g     F .ro	0000000000000028 gicr_clr_igroupr
0000000014104bac  w    F .ro	0000000000000064 plat_arm_gic_pcpu_init
0000000014101200 g     F .ro	0000000000000104 gicv3_secure_spis_config_props
0000000014102d40 g     F .ro	000000000000001c spe_disable_secure
00000000141021e4 g     F .ro	0000000000000044 qspi_boot_enhance_rx_i_d_once
0000000014103ea0 g     F .ro	0000000000000158 psci_do_cpu_off
000000001410e708 g     O .bss	0000000000000004 psci_caps
00000000141054c4 g     F .ro	00000000000000c4 rebel_plat_sip_handler
0000000014102408 g     F .ro	000000000000005c qspi_boot_enhance_tx_i_a_d_256
000000001410058c g     F .ro	0000000000000008 handle_sysreg_trap
0000000014106464 g     F .ro	0000000000000020 do_cpu_reg_dump
0000000014102790 g     F .ro	00000000000001d0 cm_setup_context
0000000014100000 g       .ro	0000000000000000 __BL31_START__
0000000014108280 g     F .ro	0000000000000000 irq_sp_elx
000000001410e7c0 g       .bss	0000000000000000 __PMF_PERCPU_TIMESTAMP_END__
0000000014108100 g     F .ro	0000000000000000 fiq_sp_el0
000000001410a07e g       .data	0000000000000000 __DATA_END__
0000000014105e1c g       .ro	0000000000000000 asm_print_hex_bits
000000001410e7c0 g       .bss	0000000000000000 __BASE_XLAT_TABLE_START__
0000000014100ebc g     F .ro	0000000000000024 gicd_set_igrpmodr
0000000014104b64  w    F .ro	0000000000000020 plat_arm_gic_init
0000000014107ba0 g       .ro	0000000000000000 __CPU_OPS_START__
0000000014101304 g     F .ro	0000000000000070 gicv3_ppi_sgi_config_defaults
00000000141036f8 g     F .ro	0000000000000050 psci_pwrdown_cpu_start
0000000014106064 g     F .ro	0000000000000038 inv_dcache_range
0000000014103c8c g     F .ro	000000000000015c psci_smc_handler
0000000014104798 g     F .ro	00000000000001fc psci_cpu_suspend_start
0000000014102fdc g     F .ro	0000000000000030 psci_init_req_local_pwr_states
0000000014107bf8 g       .ro	0000000000000000 __pubsub_cm_entering_secure_world_end
0000000014103098 g     F .ro	00000000000000a0 psci_set_target_local_pwr_states
00000000141064f4 g     F .ro	0000000000000010 cpu_get_rev_var
0000000014103ff8 g     F .ro	00000000000001c4 psci_cpu_on_start
00000000141032f8 g     F .ro	000000000000002c psci_find_max_off_lvl
0000000014100e64 g     F .ro	0000000000000034 gicd_set_icfgr
0000000014123010 g     O .coherent_ram	0000000000000020 psci_non_cpu_pd_nodes
0000000014105e50 g     F .ro	0000000000000008 elx_panic
0000000014104e40 g     F .ro	00000000000002e8 tzpc_init_sysreg
000000001410e7c0 g       .bss	0000000000000000 __BSS_END__
0000000014107bf8 g       .ro	0000000000000000 __CPU_OPS_END__
00000000141020a4 g     F .ro	00000000000000f8 qspi_boot_config
0000000014104b14  w    F .ro	0000000000000050 plat_arm_gic_driver_init
0000000014106700 g     F .ro	0000000000000048 psci_do_pwrdown_cache_maintenance
000000001410023c g     F .ro	00000000000000cc rebel_bakery_lock_acquire
0000000014102bec g     F .ro	0000000000000034 cm_set_next_eret_context
0000000014107bf8 g       .ro	0000000000000000 __pubsub_cm_entering_secure_world_start
00000000141037d0 g     F .ro	0000000000000084 psci_cpu_on
00000000141003fc g     F .ro	00000000000000a8 bl31_prepare_next_image_entry
0000000014103348 g     F .ro	000000000000009c psci_validate_suspend_req
0000000014123000 g       .coherent_ram	0000000000000000 __COHERENT_RAM_START__
0000000014106800 g     F .ro	0000000000000008 plat_arm_calc_core_pos
000000001410e704 g     O .bss	0000000000000004 psci_plat_core_count
0000000014103c28 g     F .ro	0000000000000064 psci_features
0000000014107bf8 g       .ro	0000000000000000 __GOT_END__
0000000014106e70 g     F .ro	0000000000000074 memset
0000000014105efc g     F .ro	000000000000004c console_16550_register
0000000014107ba0 g       .ro	0000000000000000 __PARSER_LIB_DESCS_END__
000000001410300c g     F .ro	000000000000008c psci_get_target_local_pwr_states
000000001410e800 g       .per_cpu	0000000000000000 __PER_CPU_UNIT_START__
0000000014107bf8 g       .ro	0000000000000000 __pubsub_cm_exited_normal_world_end
000000001410e138 g     O .bss	0000000000000008 psci_plat_pm_ops
0000000014104c40  w    F .ro	0000000000000008 plat_get_soc_revision
00000000141053d4 g     F .ro	00000000000000dc pmu_get_bootreason_str
0000000014107bf8 g       .ro	0000000000000000 __pubsub_psci_suspend_pwrdown_start_start
0000000014101c08 g     F .ro	000000000000004c flash_write_mode_i_a
00000000141046c4 g     F .ro	00000000000000d4 psci_cpu_suspend_to_powerdown_finish
0000000014107bf8 g       .ro	0000000000000000 __GOT_START__
0000000014100fe8 g     F .ro	0000000000000028 gicr_clr_igrpmodr
0000000014101f28 g     F .ro	00000000000000f0 write_flash
0000000014101ba8 g     F .ro	000000000000001c flash_check_ready
00000000141003a4 g     F .ro	0000000000000024 get_arm_std_svc_args
0000000014107bf8 g       .ro	0000000000000000 __pubsub_cm_entering_normal_world_start
0000000000000000 g       *ABS*	0000000000000000 __PERCPU_TIMESTAMP_SIZE__
0000000014102d8c g     F .ro	00000000000000d4 bakery_lock_get
0000000014102d24 g     F .ro	000000000000001c spe_enable_ns
0000000014103de8 g     F .ro	0000000000000070 psci_mem_protect
0000000014107ba0 g       .ro	0000000000000000 __FCONF_POPULATOR_END__
0000000014102e60 g     F .ro	0000000000000050 bakery_lock_release
00000000141029a0 g     F .ro	000000000000009c cm_manage_extensions_per_world
0000000014100910 g     F .ro	000000000000003c get_interrupt_type_handler
0000000014105588 g     F .ro	000000000000000c plat_get_power_domain_tree_desc
0000000014100f5c g     F .ro	0000000000000010 gicd_write_ipriorityr
0000000014102960 g     F .ro	0000000000000040 cm_manage_extensions_el3
0000000014103bc0 g     F .ro	0000000000000068 psci_node_hw_state
000000001410e7d0 g       .bss	0000000000000000 __BASE_XLAT_TABLE_END__
000000001410e800 g       .per_cpu	0000000000000000 __PER_CPU_START__
00000000141061a8 g     F .ro	0000000000000010 dcsw_op_level2
0000000014101a70 g     F .ro	0000000000000054 console_flush
0000000014108300 g     F .ro	0000000000000000 fiq_sp_elx
000000001410a000 g       .ro	0000000000000000 __RO_END__
0000000014108400 g     F .ro	0000000000000000 sync_exception_aarch64
0000000014108500 g     F .ro	0000000000000000 fiq_aarch64
00000000141066e4 g     F .ro	000000000000001c per_cpu_base
000000001410196c g     F .ro	000000000000000c console_switch_state
0000000014102714 g     F .ro	0000000000000078 print_errata_status
00000000141066dc g     F .ro	0000000000000008 spin_unlock
000000001410650c g     F .ro	000000000000009c prepare_el3_entry
0000000014104d14 g     F .ro	0000000000000018 rebel_sip_smc_handler
000000001410e080 g       .bss	0000000000000000 __BSS_START__
0000000014100000 g       .ro	0000000000000000 __RO_START__
00000000141023d4 g     F .ro	0000000000000034 qspi_boot_enhance_tx_i_a_once
0000000014107ba0 g       .ro	0000000000000000 __PMF_SVC_DESCS_START__
000000001410682c g     F .ro	000000000000000c plat_crash_console_putc
000000001410e800 g     O .per_cpu	0000000000000080 percpu_data
0000000014100308 g     F .ro	0000000000000028 rebel_bakery_lock_release
0000000014100db0 g     F .ro	0000000000000034 gicv3_rdistif_on
0000000014101b64 g     F .ro	0000000000000044 flash_read_one_register
00000000141066bc g     F .ro	0000000000000020 spin_lock
00000000141018cc g     F .ro	000000000000003c console_is_registered
00000000141017e4 g     F .ro	0000000000000028 gicv3_get_pending_interrupt_type
0000000014101010 g     F .ro	0000000000000020 gicr_set_isenabler
000000001410e118 g     O .bss	0000000000000020 per_world_context
0000000014102f30 g     F .ro	0000000000000024 psci_query_sys_suspend_pwrstate
0000000014100594 g     F .ro	0000000000000284 create_spsr
0000000014100c68 g     F .ro	00000000000000b4 tf_log
0000000014100fc0 g     F .ro	0000000000000028 gicr_set_igrpmodr
000000001410eb40 g       .per_cpu	0000000000000000 __PER_CPU_UNIT_END__
0000000014107bf8 g       .ro	0000000000000000 __pubsub_psci_cpu_on_finish_start
0000000014107ba0 g       .ro	0000000000000000 __FCONF_POPULATOR_START__
0000000000100000 g       *ABS*	0000000000000000 RAM_REGION_LENGTH
00000000141008d0 g     F .ro	0000000000000040 get_scr_el3_from_routing_model
0000000014124000 g       .coherent_ram	0000000000000000 __RW_END__
0000000014105128 g     F .ro	0000000000000158 tzpc_init_gpio
00000000141003c8 g     F .ro	0000000000000034 bl31_warmboot
0000000014123030 g       .coherent_ram	0000000000000000 __COHERENT_RAM_END_UNALIGNED__
0000000014105280 g     F .ro	0000000000000044 bl31_platform_setup
0000000014105aa8 g     F .ro	0000000000000128 report_el3_panic
000000001410208c g     F .ro	0000000000000018 qspi_boot_enable
00000000141025e4 g     F .ro	0000000000000130 generic_errata_report
000000001410a080 g       .stacks	0000000000000000 __STACKS_START__
0000000014103254 g     F .ro	00000000000000a4 psci_do_state_coordination
0000000014104a34 g     F .ro	00000000000000b4 psci_system_reset2
0000000014108780 g     F .ro	0000000000000000 serror_aarch32
0000000014102ce0 g     F .ro	0000000000000028 pmuv3_enable
000000001410e7c0 g       .bss	0000000000000000 __PMF_TIMESTAMP_END__
0000000014107bf8 g       .ro	0000000000000000 __pubsub_psci_suspend_pwrdown_finish_start
0000000014101168 g     F .ro	0000000000000098 gicv3_spis_config_defaults
0000000014100ee0 g     F .ro	0000000000000024 gicd_clr_igrpmodr
0000000014123000 g       .xlat_table	0000000000000000 __XLAT_TABLE_END__
00000000141067f8 g     F .ro	0000000000000008 plat_my_core_pos
0000000014101374 g     F .ro	00000000000000e4 gicv3_secure_ppi_sgi_config_props
0000000014100b0c g     F .ro	000000000000015c runtime_svc_init
0000000014108480 g     F .ro	0000000000000000 irq_aarch64
0000000014103b78 g     F .ro	000000000000001c psci_migrate_info_type
0000000014102c84 g     F .ro	0000000000000044 cpu_data_init_cpu_ops
0000000014104c38  w    F .ro	0000000000000008 plat_get_soc_version
00000000141059e8 g     F .ro	00000000000000c0 report_elx_panic
0000000014106844 g     F .ro	000000000000001c __assert
0000000014103e58 g     F .ro	0000000000000048 psci_mem_chk_range
0000000014105e58 g     F .ro	0000000000000034 el3_panic
0000000014100e98 g     F .ro	0000000000000024 gicd_clr_igroupr
000000001410e108 g     O .bss	0000000000000008 gicv3_driver_data
0000000014105e8c g     F .ro	0000000000000070 console_16550_core_init
00000000141033e4 g     F .ro	000000000000006c psci_acquire_pwr_domain_locks
0000000014101bc4 g     F .ro	0000000000000044 flash_write_mode
0000000014107bf8 g       .ro	0000000000000000 __pubsub_psci_cpu_on_finish_end
0000000014101cb0 g     F .ro	0000000000000064 write_flash_fast_size_data
000000001410e110 g     O .bss	0000000000000008 console_list
0000000014103194 g     F .ro	00000000000000c0 psci_set_pwr_domains_to_run
0000000014101698 g     F .ro	00000000000000b8 gicv3_cpuif_enable
0000000014100f48 g     F .ro	0000000000000014 gicd_write_igroupr
00000000141059a8 g     F .ro	0000000000000040 report_unhandled_interrupt
0000000014108700 g     F .ro	0000000000000000 fiq_aarch32
00000000141067cc  w    F .ro	000000000000001c plat_get_my_stack
0000000014107ba0 g       .ro	0000000000000000 __PARSER_LIB_DESCS_START__
000000001410e140 g     O .bss	0000000000000008 psci_spd_pm



Disassembly of section .ro:

0000000014100000 <bl31_entrypoint>:
    14100000:	aa0003f4 	mov	x20, x0
    14100004:	aa0103f5 	mov	x21, x1
    14100008:	aa0203f6 	mov	x22, x2
    1410000c:	aa0303f7 	mov	x23, x3
    14100010:	d2810600 	mov	x0, #0x830                 	// #2096
    14100014:	f2a618a0 	movk	x0, #0x30c5, lsl #16
    14100018:	d51e1000 	msr	sctlr_el3, x0
    1410001c:	d5033fdf 	isb
    14100020:	1003ff00 	adr	x0, 14108000 <sync_exception_sp_el0>
    14100024:	d51ec000 	msr	vbar_el3, x0
    14100028:	d5033fdf 	isb
    1410002c:	940019f8 	bl	1410680c <plat_crash_console_init>
    14100030:	94001915 	bl	14106484 <get_cpu_ops_ptr>
    14100034:	f9400402 	ldr	x2, [x0, #8]
    14100038:	d63f0040 	blr	x2
    1410003c:	d2820141 	mov	x1, #0x100a                	// #4106
    14100040:	d53e1000 	mrs	x0, sctlr_el3
    14100044:	aa010000 	orr	x0, x0, x1
    14100048:	d51e1000 	msr	sctlr_el3, x0
    1410004c:	d5033fdf 	isb
    14100050:	940019ea 	bl	141067f8 <plat_my_core_pos>
    14100054:	940019a4 	bl	141066e4 <per_cpu_base>
    14100058:	d51ed040 	msr	tpidr_el3, x0
    1410005c:	d2800600 	mov	x0, #0x30                  	// #48
    14100060:	d51e1100 	msr	scr_el3, x0
    14100064:	d2a20000 	mov	x0, #0x10000000            	// #268435456
    14100068:	d51e1320 	msr	mdcr_el3, x0
    1410006c:	d2a80200 	mov	x0, #0x40100000            	// #1074790400
    14100070:	d51e1140 	msr	cptr_el3, x0
    14100074:	d50344ff 	msr	daifclr, #0x4
    14100078:	d53e132f 	mrs	x15, mdcr_el3
    1410007c:	b27001ef 	orr	x15, x15, #0x10000
    14100080:	d51e132f 	msr	mdcr_el3, x15
    14100084:	d53e110f 	mrs	x15, scr_el3
    14100088:	b27d01ef 	orr	x15, x15, #0x8
    1410008c:	b27701ef 	orr	x15, x15, #0x200
    14100090:	9257f9ef 	and	x15, x15, #0xfffffeffffffffff
    14100094:	d51e110f 	msr	scr_el3, x15
    14100098:	d53b9c0f 	mrs	x15, pmcr_el0
    1410009c:	b27b01ef 	orr	x15, x15, #0x20
    141000a0:	d51b9c0f 	msr	pmcr_el0, x15
    141000a4:	d53e114f 	mrs	x15, cptr_el3
    141000a8:	b27801ef 	orr	x15, x15, #0x100
    141000ac:	b27401ef 	orr	x15, x15, #0x1000
    141000b0:	d51e114f 	msr	cptr_el3, x15
    141000b4:	d5033fdf 	isb
    141000b8:	940019d4 	bl	14106808 <platform_mem_init>
    141000bc:	d0000040 	adrp	x0, 1410a000 <__RO_END__>
    141000c0:	91000000 	add	x0, x0, #0x0
    141000c4:	90000121 	adrp	x1, 14124000 <RAM_REGION_END>
    141000c8:	91000021 	add	x1, x1, #0x0
    141000cc:	cb000021 	sub	x1, x1, x0
    141000d0:	940017e5 	bl	14106064 <inv_dcache_range>
    141000d4:	d0000060 	adrp	x0, 1410e000 <__RELA_END__+0x3f80>
    141000d8:	91200000 	add	x0, x0, #0x800
    141000dc:	f0000061 	adrp	x1, 1410f000 <__PER_CPU_UNIT_END__+0x4c0>
    141000e0:	91140021 	add	x1, x1, #0x500
    141000e4:	cb000021 	sub	x1, x1, x0
    141000e8:	94001834 	bl	141061b8 <zeromem>
    141000ec:	d0000060 	adrp	x0, 1410e000 <__RELA_END__+0x3f80>
    141000f0:	91020000 	add	x0, x0, #0x80
    141000f4:	d0000061 	adrp	x1, 1410e000 <__RELA_END__+0x3f80>
    141000f8:	911f0021 	add	x1, x1, #0x7c0
    141000fc:	cb000021 	sub	x1, x1, x0
    14100100:	9400182e 	bl	141061b8 <zeromem>
    14100104:	f0000100 	adrp	x0, 14123000 <psci_locks>
    14100108:	91000000 	add	x0, x0, #0x0
    1410010c:	f0000101 	adrp	x1, 14123000 <psci_locks>
    14100110:	9100c021 	add	x1, x1, #0x30
    14100114:	cb000021 	sub	x1, x1, x0
    14100118:	94001828 	bl	141061b8 <zeromem>
    1410011c:	d50040bf 	msr	spsel, #0x0
    14100120:	940019b2 	bl	141067e8 <plat_set_my_stack>
    14100124:	aa1403e0 	mov	x0, x20
    14100128:	aa1503e1 	mov	x1, x21
    1410012c:	aa1603e2 	mov	x2, x22
    14100130:	aa1703e3 	mov	x3, x23
    14100134:	940000dc 	bl	141004a4 <bl31_main>
    14100138:	d0000040 	adrp	x0, 1410a000 <__RO_END__>
    1410013c:	91000000 	add	x0, x0, #0x0
    14100140:	d0000041 	adrp	x1, 1410a000 <__RO_END__>
    14100144:	9101f821 	add	x1, x1, #0x7e
    14100148:	cb000021 	sub	x1, x1, x0
    1410014c:	940017b8 	bl	1410602c <clean_dcache_range>
    14100150:	d0000060 	adrp	x0, 1410e000 <__RELA_END__+0x3f80>
    14100154:	91020000 	add	x0, x0, #0x80
    14100158:	d0000061 	adrp	x1, 1410e000 <__RELA_END__+0x3f80>
    1410015c:	911f0021 	add	x1, x1, #0x7c0
    14100160:	cb000021 	sub	x1, x1, x0
    14100164:	940017b2 	bl	1410602c <clean_dcache_range>
    14100168:	d0000060 	adrp	x0, 1410e000 <__RELA_END__+0x3f80>
    1410016c:	91200000 	add	x0, x0, #0x800
    14100170:	f0000061 	adrp	x1, 1410f000 <__PER_CPU_UNIT_END__+0x4c0>
    14100174:	91140021 	add	x1, x1, #0x500
    14100178:	cb000021 	sub	x1, x1, x0
    1410017c:	940017ac 	bl	1410602c <clean_dcache_range>
    14100180:	1400191e 	b	141065f8 <el3_exit>

0000000014100184 <bl31_warm_entrypoint>:
    14100184:	d2810600 	mov	x0, #0x830                 	// #2096
    14100188:	f2a618a0 	movk	x0, #0x30c5, lsl #16
    1410018c:	d51e1000 	msr	sctlr_el3, x0
    14100190:	d5033fdf 	isb
    14100194:	1003f360 	adr	x0, 14108000 <sync_exception_sp_el0>
    14100198:	d51ec000 	msr	vbar_el3, x0
    1410019c:	d5033fdf 	isb
    141001a0:	9400199b 	bl	1410680c <plat_crash_console_init>
    141001a4:	940018b8 	bl	14106484 <get_cpu_ops_ptr>
    141001a8:	f9400402 	ldr	x2, [x0, #8]
    141001ac:	d63f0040 	blr	x2
    141001b0:	d2820141 	mov	x1, #0x100a                	// #4106
    141001b4:	d53e1000 	mrs	x0, sctlr_el3
    141001b8:	aa010000 	orr	x0, x0, x1
    141001bc:	d51e1000 	msr	sctlr_el3, x0
    141001c0:	d5033fdf 	isb
    141001c4:	9400198d 	bl	141067f8 <plat_my_core_pos>
    141001c8:	94001947 	bl	141066e4 <per_cpu_base>
    141001cc:	d51ed040 	msr	tpidr_el3, x0
    141001d0:	d2800600 	mov	x0, #0x30                  	// #48
    141001d4:	d51e1100 	msr	scr_el3, x0
    141001d8:	d2a20000 	mov	x0, #0x10000000            	// #268435456
    141001dc:	d51e1320 	msr	mdcr_el3, x0
    141001e0:	d2a80200 	mov	x0, #0x40100000            	// #1074790400
    141001e4:	d51e1140 	msr	cptr_el3, x0
    141001e8:	d50344ff 	msr	daifclr, #0x4
    141001ec:	d53e132f 	mrs	x15, mdcr_el3
    141001f0:	b27001ef 	orr	x15, x15, #0x10000
    141001f4:	d51e132f 	msr	mdcr_el3, x15
    141001f8:	d53e110f 	mrs	x15, scr_el3
    141001fc:	b27d01ef 	orr	x15, x15, #0x8
    14100200:	b27701ef 	orr	x15, x15, #0x200
    14100204:	9257f9ef 	and	x15, x15, #0xfffffeffffffffff
    14100208:	d51e110f 	msr	scr_el3, x15
    1410020c:	d53b9c0f 	mrs	x15, pmcr_el0
    14100210:	b27b01ef 	orr	x15, x15, #0x20
    14100214:	d51b9c0f 	msr	pmcr_el0, x15
    14100218:	d53e114f 	mrs	x15, cptr_el3
    1410021c:	b27801ef 	orr	x15, x15, #0x100
    14100220:	b27401ef 	orr	x15, x15, #0x1000
    14100224:	d51e114f 	msr	cptr_el3, x15
    14100228:	d5033fdf 	isb
    1410022c:	d50040bf 	msr	spsel, #0x0
    14100230:	9400196e 	bl	141067e8 <plat_set_my_stack>
    14100234:	94000065 	bl	141003c8 <bl31_warmboot>
    14100238:	140018f0 	b	141065f8 <el3_exit>

000000001410023c <rebel_bakery_lock_acquire>:
    1410023c:	71000c1f 	cmp	w0, #0x3
    14100240:	54000628 	b.hi	14100304 <rebel_bakery_lock_acquire+0xc8>  // b.pmore
    14100244:	d2810205 	mov	x5, #0x810                 	// #2064
    14100248:	d37e7c03 	ubfiz	x3, x0, #2, #32
    1410024c:	f2a00465 	movk	x5, #0x23, lsl #16
    14100250:	52800021 	mov	w1, #0x1                   	// #1
    14100254:	f2c003c5 	movk	x5, #0x1e, lsl #32
    14100258:	b8256861 	str	w1, [x3, x5]
    1410025c:	d5033fbf 	dmb	sy
    14100260:	910100a1 	add	x1, x5, #0x40
    14100264:	b94040a4 	ldr	w4, [x5, #64]
    14100268:	8b010066 	add	x6, x3, x1
    1410026c:	b9400427 	ldr	w7, [x1, #4]
    14100270:	b9400822 	ldr	w2, [x1, #8]
    14100274:	b9400c28 	ldr	w8, [x1, #12]
    14100278:	6b08005f 	cmp	w2, w8
    1410027c:	1a88a042 	csel	w2, w2, w8, ge	// ge = tcont
    14100280:	6b07009f 	cmp	w4, w7
    14100284:	1a87a084 	csel	w4, w4, w7, ge	// ge = tcont
    14100288:	6b04005f 	cmp	w2, w4
    1410028c:	1a84a042 	csel	w2, w2, w4, ge	// ge = tcont
    14100290:	31000442 	adds	w2, w2, #0x1
    14100294:	1a9fc442 	csinc	w2, w2, wzr, gt
    14100298:	b8236822 	str	w2, [x1, x3]
    1410029c:	d5033fbf 	dmb	sy
    141002a0:	b825687f 	str	wzr, [x3, x5]
    141002a4:	d5033fbf 	dmb	sy
    141002a8:	52800002 	mov	w2, #0x0                   	// #0
    141002ac:	6b02001f 	cmp	w0, w2
    141002b0:	54000200 	b.eq	141002f0 <rebel_bakery_lock_acquire+0xb4>  // b.none
    141002b4:	d1010024 	sub	x4, x1, #0x40
    141002b8:	b9400083 	ldr	w3, [x4]
    141002bc:	35ffffe3 	cbnz	w3, 141002b8 <rebel_bakery_lock_acquire+0x7c>
    141002c0:	b9400023 	ldr	w3, [x1]
    141002c4:	34000163 	cbz	w3, 141002f0 <rebel_bakery_lock_acquire+0xb4>
    141002c8:	b9400024 	ldr	w4, [x1]
    141002cc:	b94000c3 	ldr	w3, [x6]
    141002d0:	6b03009f 	cmp	w4, w3
    141002d4:	54ffff63 	b.cc	141002c0 <rebel_bakery_lock_acquire+0x84>  // b.lo, b.ul, b.last
    141002d8:	b9400024 	ldr	w4, [x1]
    141002dc:	b94000c3 	ldr	w3, [x6]
    141002e0:	6b03009f 	cmp	w4, w3
    141002e4:	54000061 	b.ne	141002f0 <rebel_bakery_lock_acquire+0xb4>  // b.any
    141002e8:	6b02001f 	cmp	w0, w2
    141002ec:	54fffea8 	b.hi	141002c0 <rebel_bakery_lock_acquire+0x84>  // b.pmore
    141002f0:	11000442 	add	w2, w2, #0x1
    141002f4:	91001021 	add	x1, x1, #0x4
    141002f8:	7100105f 	cmp	w2, #0x4
    141002fc:	54fffd81 	b.ne	141002ac <rebel_bakery_lock_acquire+0x70>  // b.any
    14100300:	d5033fbf 	dmb	sy
    14100304:	d65f03c0 	ret

0000000014100308 <rebel_bakery_lock_release>:
    14100308:	71000c1f 	cmp	w0, #0x3
    1410030c:	54000108 	b.hi	1410032c <rebel_bakery_lock_release+0x24>  // b.pmore
    14100310:	d5033fbf 	dmb	sy
    14100314:	d2810a01 	mov	x1, #0x850                 	// #2128
    14100318:	d37e7c00 	ubfiz	x0, x0, #2, #32
    1410031c:	f2a00461 	movk	x1, #0x23, lsl #16
    14100320:	f2c003c1 	movk	x1, #0x1e, lsl #32
    14100324:	b821681f 	str	wzr, [x0, x1]
    14100328:	d5033fbf 	dmb	sy
    1410032c:	d65f03c0 	ret

0000000014100330 <cm_get_context>:
    14100330:	a9be7bfd 	stp	x29, x30, [sp, #-32]!
    14100334:	910003fd 	mov	x29, sp
    14100338:	f9000bf3 	str	x19, [sp, #16]
    1410033c:	f100041f 	cmp	x0, #0x1
    14100340:	54000049 	b.ls	14100348 <cm_get_context+0x18>  // b.plast
    14100344:	94001940 	bl	14106844 <__assert>
    14100348:	aa0003f3 	mov	x19, x0
    1410034c:	d0000060 	adrp	x0, 1410e000 <__RELA_END__+0x3f80>
    14100350:	91200000 	add	x0, x0, #0x800
    14100354:	94000ae3 	bl	14102ee0 <per_cpu_cur_compute>
    14100358:	f873d800 	ldr	x0, [x0, w19, sxtw #3]
    1410035c:	f9400bf3 	ldr	x19, [sp, #16]
    14100360:	a8c27bfd 	ldp	x29, x30, [sp], #32
    14100364:	d65f03c0 	ret

0000000014100368 <cm_set_context_by_index>:
    14100368:	a9be7bfd 	stp	x29, x30, [sp, #-32]!
    1410036c:	910003fd 	mov	x29, sp
    14100370:	a90153f3 	stp	x19, x20, [sp, #16]
    14100374:	7100045f 	cmp	w2, #0x1
    14100378:	54000049 	b.ls	14100380 <cm_set_context_by_index+0x18>  // b.plast
    1410037c:	94001932 	bl	14106844 <__assert>
    14100380:	2a0203f3 	mov	w19, w2
    14100384:	aa0103f4 	mov	x20, x1
    14100388:	d0000061 	adrp	x1, 1410e000 <__RELA_END__+0x3f80>
    1410038c:	91200021 	add	x1, x1, #0x800
    14100390:	94000ac8 	bl	14102eb0 <per_cpu_by_index_compute>
    14100394:	f833d814 	str	x20, [x0, w19, sxtw #3]
    14100398:	a94153f3 	ldp	x19, x20, [sp, #16]
    1410039c:	a8c27bfd 	ldp	x29, x30, [sp], #32
    141003a0:	d65f03c0 	ret

00000000141003a4 <get_arm_std_svc_args>:
    141003a4:	529ffc01 	mov	w1, #0xffe0                	// #65504
    141003a8:	6b01001f 	cmp	w0, w1
    141003ac:	54000080 	b.eq	141003bc <get_arm_std_svc_args+0x18>  // b.none
    141003b0:	a9bf7bfd 	stp	x29, x30, [sp, #-16]!
    141003b4:	910003fd 	mov	x29, sp
    141003b8:	94001923 	bl	14106844 <__assert>
    141003bc:	d0000020 	adrp	x0, 14106000 <flush_dcache_range+0xc>
    141003c0:	913ba000 	add	x0, x0, #0xee8
    141003c4:	d65f03c0 	ret

00000000141003c8 <bl31_warmboot>:
    141003c8:	a9be7bfd 	stp	x29, x30, [sp, #-32]!
    141003cc:	910003fd 	mov	x29, sp
    141003d0:	f9000bf3 	str	x19, [sp, #16]
    141003d4:	94001909 	bl	141067f8 <plat_my_core_pos>
    141003d8:	2a0003f3 	mov	w19, w0
    141003dc:	52800000 	mov	w0, #0x0                   	// #0
    141003e0:	940018f9 	bl	141067c4 <bl31_plat_enable_mmu>
    141003e4:	2a1303e0 	mov	w0, w19
    141003e8:	9400095e 	bl	14102960 <cm_manage_extensions_el3>
    141003ec:	2a1303e0 	mov	w0, w19
    141003f0:	f9400bf3 	ldr	x19, [sp, #16]
    141003f4:	a8c27bfd 	ldp	x29, x30, [sp], #32
    141003f8:	14000c69 	b	1410359c <psci_warmboot_entrypoint>

00000000141003fc <bl31_prepare_next_image_entry>:
    141003fc:	a9bd7bfd 	stp	x29, x30, [sp, #-48]!
    14100400:	d5380400 	mrs	x0, id_aa64pfr0_el1
    14100404:	910003fd 	mov	x29, sp
    14100408:	927c0c00 	and	x0, x0, #0xf0
    1410040c:	a90153f3 	stp	x19, x20, [sp, #16]
    14100410:	f90013f5 	str	x21, [sp, #32]
    14100414:	f100401f 	cmp	x0, #0x10
    14100418:	54000121 	b.ne	1410043c <bl31_prepare_next_image_entry+0x40>  // b.any
    1410041c:	f0000020 	adrp	x0, 14107000 <plat_rebel_h_psci_pm_ops+0x80>
    14100420:	9103d000 	add	x0, x0, #0xf4
    14100424:	94000211 	bl	14100c68 <tf_log>
    14100428:	f0000020 	adrp	x0, 14107000 <plat_rebel_h_psci_pm_ops+0x80>
    1410042c:	911da400 	add	x0, x0, #0x769
    14100430:	9400016e 	bl	141009e8 <backtrace>
    14100434:	9400058f 	bl	14101a70 <console_flush>
    14100438:	94001688 	bl	14105e58 <el3_panic>
    1410043c:	d0000040 	adrp	x0, 1410a000 <__RO_END__>
    14100440:	b9406815 	ldr	w21, [x0, #104]
    14100444:	2a1503e0 	mov	w0, w21
    14100448:	9400139f 	bl	141052c4 <bl31_plat_get_next_image_ep_info>
    1410044c:	aa0003f4 	mov	x20, x0
    14100450:	b5000040 	cbnz	x0, 14100458 <bl31_prepare_next_image_entry+0x5c>
    14100454:	940018fc 	bl	14106844 <__assert>
    14100458:	b9400413 	ldr	w19, [x0, #4]
    1410045c:	52800421 	mov	w1, #0x21                  	// #33
    14100460:	0a010273 	and	w19, w19, w1
    14100464:	6b15027f 	cmp	w19, w21
    14100468:	54ffff61 	b.ne	14100454 <bl31_prepare_next_image_entry+0x58>  // b.any
    1410046c:	940001a7 	bl	14100b08 <print_entry_point_info>
    14100470:	aa1403e0 	mov	x0, x20
    14100474:	94000973 	bl	14102a40 <cm_init_my_context>
    14100478:	7100067f 	cmp	w19, #0x1
    1410047c:	540000a1 	b.ne	14100490 <bl31_prepare_next_image_entry+0x94>  // b.any
    14100480:	a94153f3 	ldp	x19, x20, [sp, #16]
    14100484:	f94013f5 	ldr	x21, [sp, #32]
    14100488:	a8c37bfd 	ldp	x29, x30, [sp], #48
    1410048c:	140009fc 	b	14102c7c <cm_prepare_el3_exit_ns>
    14100490:	f94013f5 	ldr	x21, [sp, #32]
    14100494:	2a1303e0 	mov	w0, w19
    14100498:	a94153f3 	ldp	x19, x20, [sp, #16]
    1410049c:	a8c37bfd 	ldp	x29, x30, [sp], #48
    141004a0:	140009e0 	b	14102c20 <cm_prepare_el3_exit>

00000000141004a4 <bl31_main>:
    141004a4:	a9bc7bfd 	stp	x29, x30, [sp, #-64]!
    141004a8:	910003fd 	mov	x29, sp
    141004ac:	a90153f3 	stp	x19, x20, [sp, #16]
    141004b0:	aa0003f4 	mov	x20, x0
    141004b4:	a9025bf5 	stp	x21, x22, [sp, #32]
    141004b8:	aa0103f5 	mov	x21, x1
    141004bc:	aa0203f6 	mov	x22, x2
    141004c0:	f9001bf7 	str	x23, [sp, #48]
    141004c4:	aa0303f7 	mov	x23, x3
    141004c8:	940018cc 	bl	141067f8 <plat_my_core_pos>
    141004cc:	2a0003f3 	mov	w19, w0
    141004d0:	aa1703e3 	mov	x3, x23
    141004d4:	aa1603e2 	mov	x2, x22
    141004d8:	aa1503e1 	mov	x1, x21
    141004dc:	aa1403e0 	mov	x0, x20
    141004e0:	94001213 	bl	14104d2c <bl31_early_platform_setup2>
    141004e4:	94001256 	bl	14104e3c <bl31_plat_arch_setup>
    141004e8:	2a1303e0 	mov	w0, w19
    141004ec:	f0000033 	adrp	x19, 14107000 <plat_rebel_h_psci_pm_ops+0x80>
    141004f0:	9400091c 	bl	14102960 <cm_manage_extensions_el3>
    141004f4:	91051273 	add	x19, x19, #0x144
    141004f8:	9400092a 	bl	141029a0 <cm_manage_extensions_per_world>
    141004fc:	aa1303e0 	mov	x0, x19
    14100500:	f0000021 	adrp	x1, 14107000 <plat_rebel_h_psci_pm_ops+0x80>
    14100504:	911e1c21 	add	x1, x1, #0x787
    14100508:	940001d8 	bl	14100c68 <tf_log>
    1410050c:	aa1303e0 	mov	x0, x19
    14100510:	f0000021 	adrp	x1, 14107000 <plat_rebel_h_psci_pm_ops+0x80>
    14100514:	911ed421 	add	x1, x1, #0x7b5
    14100518:	d0000073 	adrp	x19, 1410e000 <__RELA_END__+0x3f80>
    1410051c:	940001d3 	bl	14100c68 <tf_log>
    14100520:	94001358 	bl	14105280 <bl31_platform_setup>
    14100524:	9400089a 	bl	1410278c <cm_init>
    14100528:	94000179 	bl	14100b0c <runtime_svc_init>
    1410052c:	f9404260 	ldr	x0, [x19, #128]
    14100530:	b4000100 	cbz	x0, 14100550 <bl31_main+0xac>
    14100534:	9400054f 	bl	14101a70 <console_flush>
    14100538:	f9404260 	ldr	x0, [x19, #128]
    1410053c:	d63f0000 	blr	x0
    14100540:	35000080 	cbnz	w0, 14100550 <bl31_main+0xac>
    14100544:	f0000020 	adrp	x0, 14107000 <plat_rebel_h_psci_pm_ops+0x80>
    14100548:	91053c00 	add	x0, x0, #0x14f
    1410054c:	940001c7 	bl	14100c68 <tf_log>
    14100550:	97ffffab 	bl	141003fc <bl31_prepare_next_image_entry>
    14100554:	940011af 	bl	14104c10 <bl31_plat_runtime_setup>
    14100558:	94000546 	bl	14101a70 <console_flush>
    1410055c:	a94153f3 	ldp	x19, x20, [sp, #16]
    14100560:	52800040 	mov	w0, #0x2                   	// #2
    14100564:	a9425bf5 	ldp	x21, x22, [sp, #32]
    14100568:	f9401bf7 	ldr	x23, [sp, #48]
    1410056c:	a8c47bfd 	ldp	x29, x30, [sp], #64
    14100570:	140004ff 	b	1410196c <console_switch_state>

0000000014100574 <is_tge_enabled>:
    14100574:	d53c1100 	mrs	x0, hcr_el2
    14100578:	d5380721 	mrs	x1, id_aa64mmfr1_el1
    1410057c:	531b6c00 	ubfx	w0, w0, #27, #1
    14100580:	72180c3f 	tst	w1, #0xf00
    14100584:	1a9f1000 	csel	w0, w0, wzr, ne	// ne = any
    14100588:	d65f03c0 	ret

000000001410058c <handle_sysreg_trap>:
    1410058c:	12800000 	mov	w0, #0xffffffff            	// #-1
    14100590:	d65f03c0 	ret

0000000014100594 <create_spsr>:
    14100594:	aa0003e2 	mov	x2, x0
    14100598:	2a0103e4 	mov	w4, w1
    1410059c:	7100083f 	cmp	w1, #0x2
    141005a0:	54000b21 	b.ne	14100704 <create_spsr+0x170>  // b.any
    141005a4:	d53c1005 	mrs	x5, sctlr_el2
    141005a8:	d2800121 	mov	x1, #0x9                   	// #9
    141005ac:	92760440 	and	x0, x2, #0xc00
    141005b0:	12818006 	mov	w6, #0xfffff3ff            	// #-3073
    141005b4:	aa010000 	orr	x0, x0, x1
    141005b8:	b27a0c03 	orr	x3, x0, #0x3c0
    141005bc:	8a060000 	and	x0, x0, x6
    141005c0:	b27a0c00 	orr	x0, x0, #0x3c0
    141005c4:	d5380421 	mrs	x1, id_aa64pfr1_el1
    141005c8:	f2400c3f 	tst	x1, #0xf
    141005cc:	9a831000 	csel	x0, x0, x3, ne	// ne = any
    141005d0:	92740043 	and	x3, x2, #0x1000
    141005d4:	aa000063 	orr	x3, x3, x0
    141005d8:	721c0c3f 	tst	w1, #0xf0
    141005dc:	540000a0 	b.eq	141005f0 <create_spsr+0x5c>  // b.none
    141005e0:	b2740060 	orr	x0, x3, #0x1000
    141005e4:	f25400bf 	tst	x5, #0x100000000000
    141005e8:	9273f863 	and	x3, x3, #0xffffffffffffefff
    141005ec:	9a800063 	csel	x3, x3, x0, eq	// eq = none
    141005f0:	92730040 	and	x0, x2, #0x2000
    141005f4:	aa030000 	orr	x0, x0, x3
    141005f8:	d5380421 	mrs	x1, id_aa64pfr1_el1
    141005fc:	f25c0c3f 	tst	x1, #0xf000000000
    14100600:	540000a0 	b.eq	14100614 <create_spsr+0x80>  // b.none
    14100604:	9272f801 	and	x1, x0, #0xffffffffffffdfff
    14100608:	f24200bf 	tst	x5, #0x4000000000000000
    1410060c:	b2730000 	orr	x0, x0, #0x2000
    14100610:	9a810000 	csel	x0, x0, x1, eq	// eq = none
    14100614:	926a0043 	and	x3, x2, #0x400000
    14100618:	aa000063 	orr	x3, x3, x0
    1410061c:	d5380720 	mrs	x0, id_aa64mmfr1_el1
    14100620:	720c0c1f 	tst	w0, #0xf00000
    14100624:	540000a0 	b.eq	14100638 <create_spsr+0xa4>  // b.none
    14100628:	7100049f 	cmp	w4, #0x1
    1410062c:	54000721 	b.ne	14100710 <create_spsr+0x17c>  // b.any
    14100630:	37b80045 	tbnz	w5, #23, 14100638 <create_spsr+0xa4>
    14100634:	b26a0063 	orr	x3, x3, #0x400000
    14100638:	92690041 	and	x1, x2, #0x800000
    1410063c:	aa030021 	orr	x1, x1, x3
    14100640:	d5380740 	mrs	x0, id_aa64mmfr2_el1
    14100644:	721c0c1f 	tst	w0, #0xf0
    14100648:	54000040 	b.eq	14100650 <create_spsr+0xbc>  // b.none
    1410064c:	9268f821 	and	x1, x1, #0xffffffffff7fffff
    14100650:	92680440 	and	x0, x2, #0x3000000
    14100654:	aa010000 	orr	x0, x0, x1
    14100658:	d5380421 	mrs	x1, id_aa64pfr1_el1
    1410065c:	d348fc21 	lsr	x1, x1, #8
    14100660:	f27f083f 	tst	x1, #0xe
    14100664:	54000040 	b.eq	1410066c <create_spsr+0xd8>  // b.none
    14100668:	b2670000 	orr	x0, x0, #0x2000000
    1410066c:	92641041 	and	x1, x2, #0x1f0000000
    14100670:	aa000021 	orr	x1, x1, x0
    14100674:	d5380520 	mrs	x0, id_aa64dfr1_el1
    14100678:	f2500c1f 	tst	x0, #0xf000000000000
    1410067c:	54000040 	b.eq	14100684 <create_spsr+0xf0>  // b.none
    14100680:	b2600021 	orr	x1, x1, #0x100000000
    14100684:	925f0040 	and	x0, x2, #0x200000000
    14100688:	aa010000 	orr	x0, x0, x1
    1410068c:	d5380501 	mrs	x1, id_aa64dfr0_el1
    14100690:	72080c3f 	tst	w1, #0xf000000
    14100694:	54000040 	b.eq	1410069c <create_spsr+0x108>  // b.none
    14100698:	925ef800 	and	x0, x0, #0xfffffffdffffffff
    1410069c:	925e0041 	and	x1, x2, #0x400000000
    141006a0:	aa000021 	orr	x1, x1, x0
    141006a4:	d5380420 	mrs	x0, id_aa64pfr1_el1
    141006a8:	f2540c1f 	tst	x0, #0xf00000000000
    141006ac:	540000e0 	b.eq	141006c8 <create_spsr+0x134>  // b.none
    141006b0:	7100089f 	cmp	w4, #0x2
    141006b4:	54000ac1 	b.ne	1410080c <create_spsr+0x278>  // b.any
    141006b8:	d53c2500 	mrs	x0, s3_4_c2_c5_0
    141006bc:	d3648c00 	lsl	x0, x0, #28
    141006c0:	925e0000 	and	x0, x0, #0x400000000
    141006c4:	aa000021 	orr	x1, x1, x0
    141006c8:	925d0040 	and	x0, x2, #0x800000000
    141006cc:	aa010000 	orr	x0, x0, x1
    141006d0:	d5380621 	mrs	x1, id_aa64isar1_el1
    141006d4:	53082c22 	ubfx	w2, w1, #8, #4
    141006d8:	7100185f 	cmp	w2, #0x6
    141006dc:	54000100 	b.eq	141006fc <create_spsr+0x168>  // b.none
    141006e0:	53041c21 	ubfx	w1, w1, #4, #4
    141006e4:	7100183f 	cmp	w1, #0x6
    141006e8:	540000a0 	b.eq	141006fc <create_spsr+0x168>  // b.none
    141006ec:	d5380641 	mrs	x1, id_aa64isar2_el1
    141006f0:	530c3c21 	ubfx	w1, w1, #12, #4
    141006f4:	7100183f 	cmp	w1, #0x6
    141006f8:	540008e1 	b.ne	14100814 <create_spsr+0x280>  // b.any
    141006fc:	925cf800 	and	x0, x0, #0xfffffff7ffffffff
    14100700:	d65f03c0 	ret
    14100704:	d5381005 	mrs	x5, sctlr_el1
    14100708:	d28000a1 	mov	x1, #0x5                   	// #5
    1410070c:	17ffffa8 	b	141005ac <create_spsr+0x18>
    14100710:	7100089f 	cmp	w4, #0x2
    14100714:	54fff921 	b.ne	14100638 <create_spsr+0xa4>  // b.any
    14100718:	a9bf7bfd 	stp	x29, x30, [sp, #-16]!
    1410071c:	910003fd 	mov	x29, sp
    14100720:	97ffff95 	bl	14100574 <is_tge_enabled>
    14100724:	36000040 	tbz	w0, #0, 1410072c <create_spsr+0x198>
    14100728:	36b806a5 	tbz	w5, #23, 141007fc <create_spsr+0x268>
    1410072c:	92690041 	and	x1, x2, #0x800000
    14100730:	aa030021 	orr	x1, x1, x3
    14100734:	d5380740 	mrs	x0, id_aa64mmfr2_el1
    14100738:	721c0c1f 	tst	w0, #0xf0
    1410073c:	54000040 	b.eq	14100744 <create_spsr+0x1b0>  // b.none
    14100740:	9268f821 	and	x1, x1, #0xffffffffff7fffff
    14100744:	92680440 	and	x0, x2, #0x3000000
    14100748:	aa010000 	orr	x0, x0, x1
    1410074c:	d5380421 	mrs	x1, id_aa64pfr1_el1
    14100750:	d348fc21 	lsr	x1, x1, #8
    14100754:	f27f083f 	tst	x1, #0xe
    14100758:	54000040 	b.eq	14100760 <create_spsr+0x1cc>  // b.none
    1410075c:	b2670000 	orr	x0, x0, #0x2000000
    14100760:	92641041 	and	x1, x2, #0x1f0000000
    14100764:	aa000021 	orr	x1, x1, x0
    14100768:	d5380520 	mrs	x0, id_aa64dfr1_el1
    1410076c:	f2500c1f 	tst	x0, #0xf000000000000
    14100770:	54000040 	b.eq	14100778 <create_spsr+0x1e4>  // b.none
    14100774:	b2600021 	orr	x1, x1, #0x100000000
    14100778:	925f0040 	and	x0, x2, #0x200000000
    1410077c:	aa010000 	orr	x0, x0, x1
    14100780:	d5380501 	mrs	x1, id_aa64dfr0_el1
    14100784:	72080c3f 	tst	w1, #0xf000000
    14100788:	54000040 	b.eq	14100790 <create_spsr+0x1fc>  // b.none
    1410078c:	925ef800 	and	x0, x0, #0xfffffffdffffffff
    14100790:	925e0041 	and	x1, x2, #0x400000000
    14100794:	aa000021 	orr	x1, x1, x0
    14100798:	d5380420 	mrs	x0, id_aa64pfr1_el1
    1410079c:	f2540c1f 	tst	x0, #0xf00000000000
    141007a0:	540000e0 	b.eq	141007bc <create_spsr+0x228>  // b.none
    141007a4:	7100089f 	cmp	w4, #0x2
    141007a8:	540002e1 	b.ne	14100804 <create_spsr+0x270>  // b.any
    141007ac:	d53c2500 	mrs	x0, s3_4_c2_c5_0
    141007b0:	d3648c00 	lsl	x0, x0, #28
    141007b4:	925e0000 	and	x0, x0, #0x400000000
    141007b8:	aa000021 	orr	x1, x1, x0
    141007bc:	925d0040 	and	x0, x2, #0x800000000
    141007c0:	aa010000 	orr	x0, x0, x1
    141007c4:	d5380621 	mrs	x1, id_aa64isar1_el1
    141007c8:	53082c22 	ubfx	w2, w1, #8, #4
    141007cc:	7100185f 	cmp	w2, #0x6
    141007d0:	54000100 	b.eq	141007f0 <create_spsr+0x25c>  // b.none
    141007d4:	53041c21 	ubfx	w1, w1, #4, #4
    141007d8:	7100183f 	cmp	w1, #0x6
    141007dc:	540000a0 	b.eq	141007f0 <create_spsr+0x25c>  // b.none
    141007e0:	d5380641 	mrs	x1, id_aa64isar2_el1
    141007e4:	530c3c21 	ubfx	w1, w1, #12, #4
    141007e8:	7100183f 	cmp	w1, #0x6
    141007ec:	54000041 	b.ne	141007f4 <create_spsr+0x260>  // b.any
    141007f0:	925cf800 	and	x0, x0, #0xfffffff7ffffffff
    141007f4:	a8c17bfd 	ldp	x29, x30, [sp], #16
    141007f8:	d65f03c0 	ret
    141007fc:	b26a0063 	orr	x3, x3, #0x400000
    14100800:	17ffffcb 	b	1410072c <create_spsr+0x198>
    14100804:	d5382500 	mrs	x0, s3_0_c2_c5_0
    14100808:	17ffffea 	b	141007b0 <create_spsr+0x21c>
    1410080c:	d5382500 	mrs	x0, s3_0_c2_c5_0
    14100810:	17ffffab 	b	141006bc <create_spsr+0x128>
    14100814:	d65f03c0 	ret

0000000014100818 <inject_undef64>:
    14100818:	91040008 	add	x8, x0, #0x100
    1410081c:	a9bf7bfd 	stp	x29, x30, [sp, #-16]!
    14100820:	910003fd 	mov	x29, sp
    14100824:	a9411502 	ldp	x2, x5, [x8, #16]
    14100828:	f9408003 	ldr	x3, [x0, #256]
    1410082c:	53020c44 	ubfx	w4, w2, #2, #2
    14100830:	371802a2 	tbnz	w2, #3, 14100884 <inject_undef64+0x6c>
    14100834:	97ffff50 	bl	14100574 <is_tge_enabled>
    14100838:	36000440 	tbz	w0, #0, 141008c0 <inject_undef64+0xa8>
    1410083c:	92404860 	and	x0, x3, #0x7ffff
    14100840:	926eb800 	and	x0, x0, #0xfffffffffffc0001
    14100844:	b40003e0 	cbz	x0, 141008c0 <inject_undef64+0xa8>
    14100848:	d51c4025 	msr	elr_el2, x5
    1410084c:	d53cc007 	mrs	x7, vbar_el2
    14100850:	7100089f 	cmp	w4, #0x2
    14100854:	54000321 	b.ne	141008b8 <inject_undef64+0xa0>  // b.any
    14100858:	36000042 	tbz	w2, #0, 14100860 <inject_undef64+0x48>
    1410085c:	910800e7 	add	x7, x7, #0x200
    14100860:	d2a04000 	mov	x0, #0x2000000             	// #33554432
    14100864:	d51c5200 	msr	esr_el2, x0
    14100868:	d51c4002 	msr	spsr_el2, x2
    1410086c:	52800041 	mov	w1, #0x2                   	// #2
    14100870:	aa0203e0 	mov	x0, x2
    14100874:	97ffff48 	bl	14100594 <create_spsr>
    14100878:	a9011d00 	stp	x0, x7, [x8, #16]
    1410087c:	a8c17bfd 	ldp	x29, x30, [sp], #16
    14100880:	d65f03c0 	ret
    14100884:	7100089f 	cmp	w4, #0x2
    14100888:	54fffe00 	b.eq	14100848 <inject_undef64+0x30>  // b.none
    1410088c:	2a0403e1 	mov	w1, w4
    14100890:	d5184025 	msr	elr_el1, x5
    14100894:	d538c007 	mrs	x7, vbar_el1
    14100898:	6b01009f 	cmp	w4, w1
    1410089c:	54000161 	b.ne	141008c8 <inject_undef64+0xb0>  // b.any
    141008a0:	36000042 	tbz	w2, #0, 141008a8 <inject_undef64+0x90>
    141008a4:	910800e7 	add	x7, x7, #0x200
    141008a8:	d2a04000 	mov	x0, #0x2000000             	// #33554432
    141008ac:	d5185200 	msr	esr_el1, x0
    141008b0:	d5184002 	msr	spsr_el1, x2
    141008b4:	17ffffef 	b	14100870 <inject_undef64+0x58>
    141008b8:	911000e7 	add	x7, x7, #0x400
    141008bc:	17ffffe9 	b	14100860 <inject_undef64+0x48>
    141008c0:	52800021 	mov	w1, #0x1                   	// #1
    141008c4:	17fffff3 	b	14100890 <inject_undef64+0x78>
    141008c8:	911000e7 	add	x7, x7, #0x400
    141008cc:	17fffff7 	b	141008a8 <inject_undef64+0x90>

00000000141008d0 <get_scr_el3_from_routing_model>:
    141008d0:	f100041f 	cmp	x0, #0x1
    141008d4:	54000089 	b.ls	141008e4 <get_scr_el3_from_routing_model+0x14>  // b.plast
    141008d8:	a9bf7bfd 	stp	x29, x30, [sp, #-16]!
    141008dc:	910003fd 	mov	x29, sp
    141008e0:	940017d9 	bl	14106844 <__assert>
    141008e4:	d0000061 	adrp	x1, 1410e000 <__RELA_END__+0x3f80>
    141008e8:	91022021 	add	x1, x1, #0x88
    141008ec:	8b000c22 	add	x2, x1, x0, lsl #3
    141008f0:	8b000c23 	add	x3, x1, x0, lsl #3
    141008f4:	8b000c20 	add	x0, x1, x0, lsl #3
    141008f8:	f9400463 	ldr	x3, [x3, #8]
    141008fc:	f9402442 	ldr	x2, [x2, #72]
    14100900:	f9401400 	ldr	x0, [x0, #40]
    14100904:	aa030042 	orr	x2, x2, x3
    14100908:	aa000040 	orr	x0, x2, x0
    1410090c:	d65f03c0 	ret

0000000014100910 <get_interrupt_type_handler>:
    14100910:	a9be7bfd 	stp	x29, x30, [sp, #-32]!
    14100914:	910003fd 	mov	x29, sp
    14100918:	f9000bf3 	str	x19, [sp, #16]
    1410091c:	2a0003f3 	mov	w19, w0
    14100920:	940010e0 	bl	14104ca0 <plat_ic_has_interrupt_type>
    14100924:	36000100 	tbz	w0, #0, 14100944 <get_interrupt_type_handler+0x34>
    14100928:	d37b7e73 	ubfiz	x19, x19, #5, #32
    1410092c:	d0000060 	adrp	x0, 1410e000 <__RELA_END__+0x3f80>
    14100930:	91022000 	add	x0, x0, #0x88
    14100934:	f8736800 	ldr	x0, [x0, x19]
    14100938:	f9400bf3 	ldr	x19, [sp, #16]
    1410093c:	a8c27bfd 	ldp	x29, x30, [sp], #32
    14100940:	d65f03c0 	ret
    14100944:	d2800000 	mov	x0, #0x0                   	// #0
    14100948:	17fffffc 	b	14100938 <get_interrupt_type_handler+0x28>

000000001410094c <is_address_readable>:
    1410094c:	d5384241 	mrs	x1, currentel
    14100950:	53020c21 	ubfx	w1, w1, #2, #2
    14100954:	71000c3f 	cmp	w1, #0x3
    14100958:	540000e1 	b.ne	14100974 <is_address_readable+0x28>  // b.any
    1410095c:	d50e7800 	at	s1e3r, x0
    14100960:	d5033fdf 	isb
    14100964:	d5387400 	mrs	x0, par_el1
    14100968:	aa2003e0 	mvn	x0, x0
    1410096c:	12000000 	and	w0, w0, #0x1
    14100970:	d65f03c0 	ret
    14100974:	7100083f 	cmp	w1, #0x2
    14100978:	54000061 	b.ne	14100984 <is_address_readable+0x38>  // b.any
    1410097c:	d50c7800 	at	s1e2r, x0
    14100980:	17fffff8 	b	14100960 <is_address_readable+0x14>
    14100984:	d5087800 	at	s1e1r, x0
    14100988:	17fffff6 	b	14100960 <is_address_readable+0x14>

000000001410098c <is_valid_object.constprop.0>:
    1410098c:	aa0003e2 	mov	x2, x0
    14100990:	d1000400 	sub	x0, x0, #0x1
    14100994:	b100481f 	cmn	x0, #0x12
    14100998:	54000228 	b.hi	141009dc <is_valid_object.constprop.0+0x50>  // b.pmore
    1410099c:	f2400843 	ands	x3, x2, #0x7
    141009a0:	540001e1 	b.ne	141009dc <is_valid_object.constprop.0+0x50>  // b.any
    141009a4:	a9bf7bfd 	stp	x29, x30, [sp, #-16]!
    141009a8:	910003fd 	mov	x29, sp
    141009ac:	8b030040 	add	x0, x2, x3
    141009b0:	97ffffe7 	bl	1410094c <is_address_readable>
    141009b4:	12001c01 	and	w1, w0, #0xff
    141009b8:	360000e0 	tbz	w0, #0, 141009d4 <is_valid_object.constprop.0+0x48>
    141009bc:	91000463 	add	x3, x3, #0x1
    141009c0:	f100407f 	cmp	x3, #0x10
    141009c4:	54ffff41 	b.ne	141009ac <is_valid_object.constprop.0+0x20>  // b.any
    141009c8:	2a0103e0 	mov	w0, w1
    141009cc:	a8c17bfd 	ldp	x29, x30, [sp], #16
    141009d0:	d65f03c0 	ret
    141009d4:	52800001 	mov	w1, #0x0                   	// #0
    141009d8:	17fffffc 	b	141009c8 <is_valid_object.constprop.0+0x3c>
    141009dc:	52800001 	mov	w1, #0x0                   	// #0
    141009e0:	2a0103e0 	mov	w0, w1
    141009e4:	d65f03c0 	ret

00000000141009e8 <backtrace>:
    141009e8:	a9bc7bfd 	stp	x29, x30, [sp, #-64]!
    141009ec:	d50320ff 	xpaclri
    141009f0:	910003fd 	mov	x29, sp
    141009f4:	a90153f3 	stp	x19, x20, [sp, #16]
    141009f8:	aa0003f3 	mov	x19, x0
    141009fc:	aa1e03f4 	mov	x20, x30
    14100a00:	a9025bf5 	stp	x21, x22, [sp, #32]
    14100a04:	f9001bf7 	str	x23, [sp, #48]
    14100a08:	9400041a 	bl	14101a70 <console_flush>
    14100a0c:	aa1303e1 	mov	x1, x19
    14100a10:	f0000020 	adrp	x0, 14107000 <plat_rebel_h_psci_pm_ops+0x80>
    14100a14:	9105c800 	add	x0, x0, #0x172
    14100a18:	94001901 	bl	14106e1c <printf>
    14100a1c:	d5384240 	mrs	x0, currentel
    14100a20:	53020c00 	ubfx	w0, w0, #2, #2
    14100a24:	9400107c 	bl	14104c14 <get_el_str>
    14100a28:	aa0003f7 	mov	x23, x0
    14100a2c:	aa1d03e0 	mov	x0, x29
    14100a30:	97ffffd7 	bl	1410098c <is_valid_object.constprop.0>
    14100a34:	370001a0 	tbnz	w0, #0, 14100a68 <backtrace+0x80>
    14100a38:	f0000020 	adrp	x0, 14107000 <plat_rebel_h_psci_pm_ops+0x80>
    14100a3c:	aa1d03e1 	mov	x1, x29
    14100a40:	91062000 	add	x0, x0, #0x188
    14100a44:	940018f6 	bl	14106e1c <printf>
    14100a48:	a9425bf5 	ldp	x21, x22, [sp, #32]
    14100a4c:	aa1303e1 	mov	x1, x19
    14100a50:	a94153f3 	ldp	x19, x20, [sp, #16]
    14100a54:	f0000020 	adrp	x0, 14107000 <plat_rebel_h_psci_pm_ops+0x80>
    14100a58:	f9401bf7 	ldr	x23, [sp, #48]
    14100a5c:	9108ac00 	add	x0, x0, #0x22b
    14100a60:	a8c47bfd 	ldp	x29, x30, [sp], #64
    14100a64:	140018ee 	b	14106e1c <printf>
    14100a68:	f94007a0 	ldr	x0, [x29, #8]
    14100a6c:	eb00029f 	cmp	x20, x0
    14100a70:	540000a0 	b.eq	14100a84 <backtrace+0x9c>  // b.none
    14100a74:	f0000020 	adrp	x0, 14107000 <plat_rebel_h_psci_pm_ops+0x80>
    14100a78:	aa1d03e1 	mov	x1, x29
    14100a7c:	91071000 	add	x0, x0, #0x1c4
    14100a80:	17fffff1 	b	14100a44 <backtrace+0x5c>
    14100a84:	aa1d03f5 	mov	x21, x29
    14100a88:	52800034 	mov	w20, #0x1                   	// #1
    14100a8c:	f0000036 	adrp	x22, 14107000 <plat_rebel_h_psci_pm_ops+0x80>
    14100a90:	9107e2d6 	add	x22, x22, #0x1f8
    14100a94:	aa1703e2 	mov	x2, x23
    14100a98:	aa1603e0 	mov	x0, x22
    14100a9c:	90000003 	adrp	x3, 14100000 <bl31_entrypoint>
    14100aa0:	52800001 	mov	w1, #0x0                   	// #0
    14100aa4:	9127a063 	add	x3, x3, #0x9e8
    14100aa8:	940018dd 	bl	14106e1c <printf>
    14100aac:	aa1503e0 	mov	x0, x21
    14100ab0:	97ffffb7 	bl	1410098c <is_valid_object.constprop.0>
    14100ab4:	3607fca0 	tbz	w0, #0, 14100a48 <backtrace+0x60>
    14100ab8:	f94006a3 	ldr	x3, [x21, #8]
    14100abc:	f1001063 	subs	x3, x3, #0x4
    14100ac0:	54fffc40 	b.eq	14100a48 <backtrace+0x60>  // b.none
    14100ac4:	f240047f 	tst	x3, #0x3
    14100ac8:	54fffc01 	b.ne	14100a48 <backtrace+0x60>  // b.any
    14100acc:	aa0303e0 	mov	x0, x3
    14100ad0:	97ffff9f 	bl	1410094c <is_address_readable>
    14100ad4:	3607fba0 	tbz	w0, #0, 14100a48 <backtrace+0x60>
    14100ad8:	2a1403e1 	mov	w1, w20
    14100adc:	aa1703e2 	mov	x2, x23
    14100ae0:	aa1603e0 	mov	x0, x22
    14100ae4:	11000694 	add	w20, w20, #0x1
    14100ae8:	940018cd 	bl	14106e1c <printf>
    14100aec:	f94002b5 	ldr	x21, [x21]
    14100af0:	7100529f 	cmp	w20, #0x14
    14100af4:	54fffdc1 	b.ne	14100aac <backtrace+0xc4>  // b.any
    14100af8:	f0000020 	adrp	x0, 14107000 <plat_rebel_h_psci_pm_ops+0x80>
    14100afc:	91081c00 	add	x0, x0, #0x207
    14100b00:	940018c7 	bl	14106e1c <printf>
    14100b04:	17ffffd1 	b	14100a48 <backtrace+0x60>

0000000014100b08 <print_entry_point_info>:
    14100b08:	d65f03c0 	ret

0000000014100b0c <runtime_svc_init>:
    14100b0c:	a9bb7bfd 	stp	x29, x30, [sp, #-80]!
    14100b10:	910003fd 	mov	x29, sp
    14100b14:	a90153f3 	stp	x19, x20, [sp, #16]
    14100b18:	f0000033 	adrp	x19, 14107000 <plat_rebel_h_psci_pm_ops+0x80>
    14100b1c:	912e8273 	add	x19, x19, #0xba0
    14100b20:	a9025bf5 	stp	x21, x22, [sp, #32]
    14100b24:	f0000035 	adrp	x21, 14107000 <plat_rebel_h_psci_pm_ops+0x80>
    14100b28:	912d02b5 	add	x21, x21, #0xb40
    14100b2c:	a90363f7 	stp	x23, x24, [sp, #48]
    14100b30:	f90023f9 	str	x25, [sp, #64]
    14100b34:	eb15027f 	cmp	x19, x21
    14100b38:	54000083 	b.cc	14100b48 <runtime_svc_init+0x3c>  // b.lo, b.ul, b.last
    14100b3c:	cb150273 	sub	x19, x19, x21
    14100b40:	f13ffe7f 	cmp	x19, #0xfff
    14100b44:	54000049 	b.ls	14100b4c <runtime_svc_init+0x40>  // b.plast
    14100b48:	9400173f 	bl	14106844 <__assert>
    14100b4c:	f1007e7f 	cmp	x19, #0x1f
    14100b50:	540005c9 	b.ls	14100c08 <runtime_svc_init+0xfc>  // b.plast
    14100b54:	f0000037 	adrp	x23, 14107000 <plat_rebel_h_psci_pm_ops+0x80>
    14100b58:	91099ef7 	add	x23, x23, #0x267
    14100b5c:	d345fe74 	lsr	x20, x19, #5
    14100b60:	52800018 	mov	w24, #0x0                   	// #0
    14100b64:	d2800013 	mov	x19, #0x0                   	// #0
    14100b68:	d0000076 	adrp	x22, 1410e000 <__RELA_END__+0x3f80>
    14100b6c:	911c32d6 	add	x22, x22, #0x70c
    14100b70:	d2801002 	mov	x2, #0x80                  	// #128
    14100b74:	aa1603e0 	mov	x0, x22
    14100b78:	12800001 	mov	w1, #0xffffffff            	// #-1
    14100b7c:	940018bd 	bl	14106e70 <memset>
    14100b80:	d37bea79 	lsl	x25, x19, #5
    14100b84:	8b1316b3 	add	x19, x21, x19, lsl #5
    14100b88:	38796aa1 	ldrb	w1, [x21, x25]
    14100b8c:	39400660 	ldrb	w0, [x19, #1]
    14100b90:	6b00003f 	cmp	w1, w0
    14100b94:	54000148 	b.hi	14100bbc <runtime_svc_init+0xb0>  // b.pmore
    14100b98:	7100fc1f 	cmp	w0, #0x3f
    14100b9c:	54000108 	b.hi	14100bbc <runtime_svc_init+0xb0>  // b.pmore
    14100ba0:	39400a60 	ldrb	w0, [x19, #2]
    14100ba4:	7100041f 	cmp	w0, #0x1
    14100ba8:	540000a8 	b.hi	14100bbc <runtime_svc_init+0xb0>  // b.pmore
    14100bac:	f9400a60 	ldr	x0, [x19, #16]
    14100bb0:	b5000180 	cbnz	x0, 14100be0 <runtime_svc_init+0xd4>
    14100bb4:	f9400e60 	ldr	x0, [x19, #24]
    14100bb8:	b5000340 	cbnz	x0, 14100c20 <runtime_svc_init+0x114>
    14100bbc:	aa1303e1 	mov	x1, x19
    14100bc0:	f0000020 	adrp	x0, 14107000 <plat_rebel_h_psci_pm_ops+0x80>
    14100bc4:	9108fc00 	add	x0, x0, #0x23f
    14100bc8:	94000028 	bl	14100c68 <tf_log>
    14100bcc:	f0000020 	adrp	x0, 14107000 <plat_rebel_h_psci_pm_ops+0x80>
    14100bd0:	911f4c00 	add	x0, x0, #0x7d3
    14100bd4:	97ffff85 	bl	141009e8 <backtrace>
    14100bd8:	940003a6 	bl	14101a70 <console_flush>
    14100bdc:	9400149f 	bl	14105e58 <el3_panic>
    14100be0:	d63f0000 	blr	x0
    14100be4:	340001e0 	cbz	w0, 14100c20 <runtime_svc_init+0x114>
    14100be8:	f9400661 	ldr	x1, [x19, #8]
    14100bec:	aa1703e0 	mov	x0, x23
    14100bf0:	9400001e 	bl	14100c68 <tf_log>
    14100bf4:	11000700 	add	w0, w24, #0x1
    14100bf8:	12001c18 	and	w24, w0, #0xff
    14100bfc:	92401c13 	and	x19, x0, #0xff
    14100c00:	eb20029f 	cmp	x20, w0, uxtb
    14100c04:	54fffbe8 	b.hi	14100b80 <runtime_svc_init+0x74>  // b.pmore
    14100c08:	a94153f3 	ldp	x19, x20, [sp, #16]
    14100c0c:	a9425bf5 	ldp	x21, x22, [sp, #32]
    14100c10:	a94363f7 	ldp	x23, x24, [sp, #48]
    14100c14:	f94023f9 	ldr	x25, [sp, #64]
    14100c18:	a8c57bfd 	ldp	x29, x30, [sp], #80
    14100c1c:	d65f03c0 	ret
    14100c20:	39400a63 	ldrb	w3, [x19, #2]
    14100c24:	38796aa1 	ldrb	w1, [x21, x25]
    14100c28:	39400662 	ldrb	w2, [x19, #1]
    14100c2c:	531a0063 	ubfiz	w3, w3, #6, #1
    14100c30:	12001421 	and	w1, w1, #0x3f
    14100c34:	12001442 	and	w2, w2, #0x3f
    14100c38:	2a030020 	orr	w0, w1, w3
    14100c3c:	2a030042 	orr	w2, w2, w3
    14100c40:	2a0003e1 	mov	w1, w0
    14100c44:	6b02001f 	cmp	w0, w2
    14100c48:	54fff808 	b.hi	14100b48 <runtime_svc_init+0x3c>  // b.pmore
    14100c4c:	8b0002c0 	add	x0, x22, x0
    14100c50:	11000423 	add	w3, w1, #0x1
    14100c54:	38001418 	strb	w24, [x0], #1
    14100c58:	12001c61 	and	w1, w3, #0xff
    14100c5c:	6b23005f 	cmp	w2, w3, uxtb
    14100c60:	54ffff82 	b.cs	14100c50 <runtime_svc_init+0x144>  // b.hs, b.nlast
    14100c64:	17ffffe4 	b	14100bf4 <runtime_svc_init+0xe8>

0000000014100c68 <tf_log>:
    14100c68:	a9b67bfd 	stp	x29, x30, [sp, #-160]!
    14100c6c:	910003fd 	mov	x29, sp
    14100c70:	a90153f3 	stp	x19, x20, [sp, #16]
    14100c74:	aa0003f4 	mov	x20, x0
    14100c78:	a9068be1 	stp	x1, x2, [sp, #104]
    14100c7c:	a90793e3 	stp	x3, x4, [sp, #120]
    14100c80:	a9089be5 	stp	x5, x6, [sp, #136]
    14100c84:	f9004fe7 	str	x7, [sp, #152]
    14100c88:	39400000 	ldrb	w0, [x0]
    14100c8c:	51000401 	sub	w1, w0, #0x1
    14100c90:	7100c43f 	cmp	w1, #0x31
    14100c94:	54000049 	b.ls	14100c9c <tf_log+0x34>  // b.plast
    14100c98:	940016eb 	bl	14106844 <__assert>
    14100c9c:	52800142 	mov	w2, #0xa                   	// #10
    14100ca0:	1ac20801 	udiv	w1, w0, w2
    14100ca4:	1b028021 	msub	w1, w1, w2, w0
    14100ca8:	35ffff81 	cbnz	w1, 14100c98 <tf_log+0x30>
    14100cac:	d0000041 	adrp	x1, 1410a000 <__RO_END__>
    14100cb0:	b9406c21 	ldr	w1, [x1, #108]
    14100cb4:	6b00003f 	cmp	w1, w0
    14100cb8:	54000263 	b.cc	14100d04 <tf_log+0x9c>  // b.lo, b.ul, b.last
    14100cbc:	94000ffc 	bl	14104cac <plat_log_get_prefix>
    14100cc0:	aa0003f3 	mov	x19, x0
    14100cc4:	39400260 	ldrb	w0, [x19]
    14100cc8:	35000240 	cbnz	w0, 14100d10 <tf_log+0xa8>
    14100ccc:	910283e0 	add	x0, sp, #0xa0
    14100cd0:	a90403e0 	stp	x0, x0, [sp, #64]
    14100cd4:	910183e0 	add	x0, sp, #0x60
    14100cd8:	f9002be0 	str	x0, [sp, #80]
    14100cdc:	128006e0 	mov	w0, #0xffffffc8            	// #-56
    14100ce0:	b9005be0 	str	w0, [sp, #88]
    14100ce4:	b9005fff 	str	wzr, [sp, #92]
    14100ce8:	a94407e0 	ldp	x0, x1, [sp, #64]
    14100cec:	a90207e0 	stp	x0, x1, [sp, #32]
    14100cf0:	a94507e0 	ldp	x0, x1, [sp, #80]
    14100cf4:	a90307e0 	stp	x0, x1, [sp, #48]
    14100cf8:	910083e1 	add	x1, sp, #0x20
    14100cfc:	91000680 	add	x0, x20, #0x1
    14100d00:	9400171d 	bl	14106974 <vprintf>
    14100d04:	a94153f3 	ldp	x19, x20, [sp, #16]
    14100d08:	a8ca7bfd 	ldp	x29, x30, [sp], #160
    14100d0c:	d65f03c0 	ret
    14100d10:	91000673 	add	x19, x19, #0x1
    14100d14:	9400034d 	bl	14101a48 <putchar>
    14100d18:	17ffffeb 	b	14100cc4 <tf_log+0x5c>

0000000014100d1c <gicr_wait_group_not_in_transit>:
    14100d1c:	b9402401 	ldr	w1, [x0, #36]
    14100d20:	53037c22 	lsr	w2, w1, #3
    14100d24:	4a410841 	eor	w1, w2, w1, lsr #2
    14100d28:	3707ffa1 	tbnz	w1, #0, 14100d1c <gicr_wait_group_not_in_transit>
    14100d2c:	d65f03c0 	ret

0000000014100d30 <gicv3_redists_need_power_mgmt>:
    14100d30:	b9400400 	ldr	w0, [x0, #4]
    14100d34:	52808761 	mov	w1, #0x43b                 	// #1083
    14100d38:	72a04001 	movk	w1, #0x200, lsl #16
    14100d3c:	12074802 	and	w2, w0, #0xfe000fff
    14100d40:	6b01005f 	cmp	w2, w1
    14100d44:	54000160 	b.eq	14100d70 <gicv3_redists_need_power_mgmt+0x40>  // b.none
    14100d48:	52808761 	mov	w1, #0x43b                 	// #1083
    14100d4c:	12084c00 	and	w0, w0, #0xff000fff
    14100d50:	72a08001 	movk	w1, #0x400, lsl #16
    14100d54:	6b01001f 	cmp	w0, w1
    14100d58:	540000c0 	b.eq	14100d70 <gicv3_redists_need_power_mgmt+0x40>  // b.none
    14100d5c:	52808761 	mov	w1, #0x43b                 	// #1083
    14100d60:	72a0e001 	movk	w1, #0x700, lsl #16
    14100d64:	6b01001f 	cmp	w0, w1
    14100d68:	1a9f17e0 	cset	w0, eq	// eq = none
    14100d6c:	d65f03c0 	ret
    14100d70:	52800020 	mov	w0, #0x1                   	// #1
    14100d74:	17fffffe 	b	14100d6c <gicv3_redists_need_power_mgmt+0x3c>

0000000014100d78 <get_gicr_base>:
    14100d78:	d0000061 	adrp	x1, 1410e000 <__RELA_END__+0x3f80>
    14100d7c:	f9408421 	ldr	x1, [x1, #264]
    14100d80:	b5000081 	cbnz	x1, 14100d90 <get_gicr_base+0x18>
    14100d84:	a9bf7bfd 	stp	x29, x30, [sp, #-16]!
    14100d88:	910003fd 	mov	x29, sp
    14100d8c:	940016ae 	bl	14106844 <__assert>
    14100d90:	b9401c22 	ldr	w2, [x1, #28]
    14100d94:	6b00005f 	cmp	w2, w0
    14100d98:	54ffff69 	b.ls	14100d84 <get_gicr_base+0xc>  // b.plast
    14100d9c:	f9401021 	ldr	x1, [x1, #32]
    14100da0:	b4ffff21 	cbz	x1, 14100d84 <get_gicr_base+0xc>
    14100da4:	f8605820 	ldr	x0, [x1, w0, uxtw #3]
    14100da8:	b4fffee0 	cbz	x0, 14100d84 <get_gicr_base+0xc>
    14100dac:	d65f03c0 	ret

0000000014100db0 <gicv3_rdistif_on>:
    14100db0:	a9bf7bfd 	stp	x29, x30, [sp, #-16]!
    14100db4:	910003fd 	mov	x29, sp
    14100db8:	97fffff0 	bl	14100d78 <get_gicr_base>
    14100dbc:	aa0003e3 	mov	x3, x0
    14100dc0:	97ffffdc 	bl	14100d30 <gicv3_redists_need_power_mgmt>
    14100dc4:	360000c0 	tbz	w0, #0, 14100ddc <gicv3_rdistif_on+0x2c>
    14100dc8:	aa0303e0 	mov	x0, x3
    14100dcc:	97ffffd4 	bl	14100d1c <gicr_wait_group_not_in_transit>
    14100dd0:	b900247f 	str	wzr, [x3, #36]
    14100dd4:	b9402460 	ldr	w0, [x3, #36]
    14100dd8:	17fffffb 	b	14100dc4 <gicv3_rdistif_on+0x14>
    14100ddc:	a8c17bfd 	ldp	x29, x30, [sp], #16
    14100de0:	d65f03c0 	ret

0000000014100de4 <gicv3_apply_errata_wa_2384374>:
    14100de4:	d0000061 	adrp	x1, 1410e000 <__RELA_END__+0x3f80>
    14100de8:	395e3021 	ldrb	w1, [x1, #1932]
    14100dec:	360000c1 	tbz	w1, #0, 14100e04 <gicv3_apply_errata_wa_2384374+0x20>
    14100df0:	b9400001 	ldr	w1, [x0]
    14100df4:	32080822 	orr	w2, w1, #0x7000000
    14100df8:	b9000002 	str	w2, [x0]
    14100dfc:	12057021 	and	w1, w1, #0xf8ffffff
    14100e00:	b9000001 	str	w1, [x0]
    14100e04:	d65f03c0 	ret

0000000014100e08 <gicv3_check_erratas_applies>:
    14100e08:	a9be7bfd 	stp	x29, x30, [sp, #-32]!
    14100e0c:	910003fd 	mov	x29, sp
    14100e10:	b5000040 	cbnz	x0, 14100e18 <gicv3_check_erratas_applies+0x10>
    14100e14:	9400168c 	bl	14106844 <__assert>
    14100e18:	910073e1 	add	x1, sp, #0x1c
    14100e1c:	91006fe2 	add	x2, sp, #0x1b
    14100e20:	9400018e 	bl	14101458 <gicv3_get_component_prodid_rev>
    14100e24:	b9401fe1 	ldr	w1, [sp, #28]
    14100e28:	51000820 	sub	w0, w1, #0x2
    14100e2c:	7100041f 	cmp	w0, #0x1
    14100e30:	54000128 	b.hi	14100e54 <gicv3_check_erratas_applies+0x4c>  // b.pmore
    14100e34:	39406fe0 	ldrb	w0, [sp, #27]
    14100e38:	7100083f 	cmp	w1, #0x2
    14100e3c:	54000101 	b.ne	14100e5c <gicv3_check_erratas_applies+0x54>  // b.any
    14100e40:	71005c1f 	cmp	w0, #0x17
    14100e44:	54000088 	b.hi	14100e54 <gicv3_check_erratas_applies+0x4c>  // b.pmore
    14100e48:	d0000060 	adrp	x0, 1410e000 <__RELA_END__+0x3f80>
    14100e4c:	52800021 	mov	w1, #0x1                   	// #1
    14100e50:	391e3001 	strb	w1, [x0, #1932]
    14100e54:	a8c27bfd 	ldp	x29, x30, [sp], #32
    14100e58:	d65f03c0 	ret
    14100e5c:	7100101f 	cmp	w0, #0x4
    14100e60:	17fffff9 	b	14100e44 <gicv3_check_erratas_applies+0x3c>

0000000014100e64 <gicd_set_icfgr>:
    14100e64:	531f0c24 	ubfiz	w4, w1, #1, #4
    14100e68:	53047c21 	lsr	w1, w1, #4
    14100e6c:	91300000 	add	x0, x0, #0xc00
    14100e70:	12000442 	and	w2, w2, #0x3
    14100e74:	d37ef421 	lsl	x1, x1, #2
    14100e78:	52800063 	mov	w3, #0x3                   	// #3
    14100e7c:	1ac42063 	lsl	w3, w3, w4
    14100e80:	1ac42042 	lsl	w2, w2, w4
    14100e84:	b8606825 	ldr	w5, [x1, x0]
    14100e88:	0a2300a3 	bic	w3, w5, w3
    14100e8c:	2a020063 	orr	w3, w3, w2
    14100e90:	b8206823 	str	w3, [x1, x0]
    14100e94:	d65f03c0 	ret

0000000014100e98 <gicd_clr_igroupr>:
    14100e98:	53057c23 	lsr	w3, w1, #5
    14100e9c:	91020000 	add	x0, x0, #0x80
    14100ea0:	52800022 	mov	w2, #0x1                   	// #1
    14100ea4:	d37ef463 	lsl	x3, x3, #2
    14100ea8:	1ac12041 	lsl	w1, w2, w1
    14100eac:	b8606864 	ldr	w4, [x3, x0]
    14100eb0:	0a210081 	bic	w1, w4, w1
    14100eb4:	b8206861 	str	w1, [x3, x0]
    14100eb8:	d65f03c0 	ret

0000000014100ebc <gicd_set_igrpmodr>:
    14100ebc:	53057c23 	lsr	w3, w1, #5
    14100ec0:	91340000 	add	x0, x0, #0xd00
    14100ec4:	52800022 	mov	w2, #0x1                   	// #1
    14100ec8:	d37ef463 	lsl	x3, x3, #2
    14100ecc:	1ac12041 	lsl	w1, w2, w1
    14100ed0:	b8606864 	ldr	w4, [x3, x0]
    14100ed4:	2a040021 	orr	w1, w1, w4
    14100ed8:	b8206861 	str	w1, [x3, x0]
    14100edc:	d65f03c0 	ret

0000000014100ee0 <gicd_clr_igrpmodr>:
    14100ee0:	53057c23 	lsr	w3, w1, #5
    14100ee4:	91340000 	add	x0, x0, #0xd00
    14100ee8:	52800022 	mov	w2, #0x1                   	// #1
    14100eec:	d37ef463 	lsl	x3, x3, #2
    14100ef0:	1ac12041 	lsl	w1, w2, w1
    14100ef4:	b8606864 	ldr	w4, [x3, x0]
    14100ef8:	0a210081 	bic	w1, w4, w1
    14100efc:	b8206861 	str	w1, [x3, x0]
    14100f00:	d65f03c0 	ret

0000000014100f04 <gicd_set_isenabler>:
    14100f04:	52800022 	mov	w2, #0x1                   	// #1
    14100f08:	91040000 	add	x0, x0, #0x100
    14100f0c:	1ac12042 	lsl	w2, w2, w1
    14100f10:	53057c21 	lsr	w1, w1, #5
    14100f14:	d37ef421 	lsl	x1, x1, #2
    14100f18:	b8206822 	str	w2, [x1, x0]
    14100f1c:	d65f03c0 	ret

0000000014100f20 <gicd_set_ipriorityr>:
    14100f20:	91100000 	add	x0, x0, #0x400
    14100f24:	2a0103e1 	mov	w1, w1
    14100f28:	12001c42 	and	w2, w2, #0xff
    14100f2c:	38216802 	strb	w2, [x0, x1]
    14100f30:	d65f03c0 	ret

0000000014100f34 <gicd_write_icfgr>:
    14100f34:	53047c21 	lsr	w1, w1, #4
    14100f38:	91300000 	add	x0, x0, #0xc00
    14100f3c:	d37ef421 	lsl	x1, x1, #2
    14100f40:	b8206822 	str	w2, [x1, x0]
    14100f44:	d65f03c0 	ret

0000000014100f48 <gicd_write_igroupr>:
    14100f48:	53057c21 	lsr	w1, w1, #5
    14100f4c:	91020000 	add	x0, x0, #0x80
    14100f50:	d37ef421 	lsl	x1, x1, #2
    14100f54:	b8206822 	str	w2, [x1, x0]
    14100f58:	d65f03c0 	ret

0000000014100f5c <gicd_write_ipriorityr>:
    14100f5c:	927e7421 	and	x1, x1, #0xfffffffc
    14100f60:	91100000 	add	x0, x0, #0x400
    14100f64:	b8206822 	str	w2, [x1, x0]
    14100f68:	d65f03c0 	ret

0000000014100f6c <gicr_write_ipriorityr>:
    14100f6c:	91404000 	add	x0, x0, #0x10, lsl #12
    14100f70:	927e7421 	and	x1, x1, #0xfffffffc
    14100f74:	91100000 	add	x0, x0, #0x400
    14100f78:	b8206822 	str	w2, [x1, x0]
    14100f7c:	d65f03c0 	ret

0000000014100f80 <gicr_set_ipriorityr>:
    14100f80:	91404000 	add	x0, x0, #0x10, lsl #12
    14100f84:	2a0103e1 	mov	w1, w1
    14100f88:	91100000 	add	x0, x0, #0x400
    14100f8c:	12001c42 	and	w2, w2, #0xff
    14100f90:	38216802 	strb	w2, [x0, x1]
    14100f94:	d65f03c0 	ret

0000000014100f98 <gicr_clr_igroupr>:
    14100f98:	53057c23 	lsr	w3, w1, #5
    14100f9c:	91404000 	add	x0, x0, #0x10, lsl #12
    14100fa0:	91020000 	add	x0, x0, #0x80
    14100fa4:	52800022 	mov	w2, #0x1                   	// #1
    14100fa8:	d37ef463 	lsl	x3, x3, #2
    14100fac:	1ac12041 	lsl	w1, w2, w1
    14100fb0:	b8606864 	ldr	w4, [x3, x0]
    14100fb4:	0a210081 	bic	w1, w4, w1
    14100fb8:	b8206861 	str	w1, [x3, x0]
    14100fbc:	d65f03c0 	ret

0000000014100fc0 <gicr_set_igrpmodr>:
    14100fc0:	53057c23 	lsr	w3, w1, #5
    14100fc4:	91404000 	add	x0, x0, #0x10, lsl #12
    14100fc8:	91340000 	add	x0, x0, #0xd00
    14100fcc:	52800022 	mov	w2, #0x1                   	// #1
    14100fd0:	d37ef463 	lsl	x3, x3, #2
    14100fd4:	1ac12041 	lsl	w1, w2, w1
    14100fd8:	b8606864 	ldr	w4, [x3, x0]
    14100fdc:	2a040021 	orr	w1, w1, w4
    14100fe0:	b8206861 	str	w1, [x3, x0]
    14100fe4:	d65f03c0 	ret

0000000014100fe8 <gicr_clr_igrpmodr>:
    14100fe8:	53057c23 	lsr	w3, w1, #5
    14100fec:	91404000 	add	x0, x0, #0x10, lsl #12
    14100ff0:	91340000 	add	x0, x0, #0xd00
    14100ff4:	52800022 	mov	w2, #0x1                   	// #1
    14100ff8:	d37ef463 	lsl	x3, x3, #2
    14100ffc:	1ac12041 	lsl	w1, w2, w1
    14101000:	b8606864 	ldr	w4, [x3, x0]
    14101004:	0a210081 	bic	w1, w4, w1
    14101008:	b8206861 	str	w1, [x3, x0]
    1410100c:	d65f03c0 	ret

0000000014101010 <gicr_set_isenabler>:
    14101010:	52800022 	mov	w2, #0x1                   	// #1
    14101014:	91404000 	add	x0, x0, #0x10, lsl #12
    14101018:	1ac12042 	lsl	w2, w2, w1
    1410101c:	53057c21 	lsr	w1, w1, #5
    14101020:	91040000 	add	x0, x0, #0x100
    14101024:	d37ef421 	lsl	x1, x1, #2
    14101028:	b8206822 	str	w2, [x1, x0]
    1410102c:	d65f03c0 	ret

0000000014101030 <gicr_set_icfgr>:
    14101030:	531f0c24 	ubfiz	w4, w1, #1, #4
    14101034:	53047c21 	lsr	w1, w1, #4
    14101038:	91404000 	add	x0, x0, #0x10, lsl #12
    1410103c:	12000442 	and	w2, w2, #0x3
    14101040:	d37ef421 	lsl	x1, x1, #2
    14101044:	91300000 	add	x0, x0, #0xc00
    14101048:	52800063 	mov	w3, #0x3                   	// #3
    1410104c:	1ac42042 	lsl	w2, w2, w4
    14101050:	1ac42063 	lsl	w3, w3, w4
    14101054:	b8606825 	ldr	w5, [x1, x0]
    14101058:	0a2300a3 	bic	w3, w5, w3
    1410105c:	2a020063 	orr	w3, w3, w2
    14101060:	b8206823 	str	w3, [x1, x0]
    14101064:	d65f03c0 	ret

0000000014101068 <gicv3_rdistif_mark_core_awake>:
    14101068:	a9be7bfd 	stp	x29, x30, [sp, #-32]!
    1410106c:	910003fd 	mov	x29, sp
    14101070:	a90153f3 	stp	x19, x20, [sp, #16]
    14101074:	aa0003f3 	mov	x19, x0
    14101078:	91005014 	add	x20, x0, #0x14
    1410107c:	b9401400 	ldr	w0, [x0, #20]
    14101080:	36080180 	tbz	w0, #1, 141010b0 <gicv3_rdistif_mark_core_awake+0x48>
    14101084:	371000c0 	tbnz	w0, #2, 1410109c <gicv3_rdistif_mark_core_awake+0x34>
    14101088:	d0000020 	adrp	x0, 14107000 <plat_rebel_h_psci_pm_ops+0x80>
    1410108c:	910a3c00 	add	x0, x0, #0x28f
    14101090:	97fffef6 	bl	14100c68 <tf_log>
    14101094:	b9400280 	ldr	w0, [x20]
    14101098:	3617ffe0 	tbz	w0, #2, 14101094 <gicv3_rdistif_mark_core_awake+0x2c>
    1410109c:	b9401660 	ldr	w0, [x19, #20]
    141010a0:	121e7800 	and	w0, w0, #0xfffffffd
    141010a4:	b9001660 	str	w0, [x19, #20]
    141010a8:	b9400280 	ldr	w0, [x20]
    141010ac:	3717ffe0 	tbnz	w0, #2, 141010a8 <gicv3_rdistif_mark_core_awake+0x40>
    141010b0:	a94153f3 	ldp	x19, x20, [sp, #16]
    141010b4:	a8c27bfd 	ldp	x29, x30, [sp], #32
    141010b8:	d65f03c0 	ret

00000000141010bc <gicv3_rdistif_mark_core_asleep>:
    141010bc:	b9401401 	ldr	w1, [x0, #20]
    141010c0:	91005002 	add	x2, x0, #0x14
    141010c4:	321f0021 	orr	w1, w1, #0x2
    141010c8:	b9001401 	str	w1, [x0, #20]
    141010cc:	b9400040 	ldr	w0, [x2]
    141010d0:	3617ffe0 	tbz	w0, #2, 141010cc <gicv3_rdistif_mark_core_asleep+0x10>
    141010d4:	d65f03c0 	ret

00000000141010d8 <gicv3_rdistif_base_addrs_probe>:
    141010d8:	a9bc7bfd 	stp	x29, x30, [sp, #-64]!
    141010dc:	910003fd 	mov	x29, sp
    141010e0:	a90153f3 	stp	x19, x20, [sp, #16]
    141010e4:	a9025bf5 	stp	x21, x22, [sp, #32]
    141010e8:	f9001bf7 	str	x23, [sp, #48]
    141010ec:	b5000040 	cbnz	x0, 141010f4 <gicv3_rdistif_base_addrs_probe+0x1c>
    141010f0:	940015d5 	bl	14106844 <__assert>
    141010f4:	aa0003f5 	mov	x21, x0
    141010f8:	2a0103f7 	mov	w23, w1
    141010fc:	aa0203f3 	mov	x19, x2
    14101100:	aa0303f6 	mov	x22, x3
    14101104:	f9400674 	ldr	x20, [x19, #8]
    14101108:	b40001f6 	cbz	x22, 14101144 <gicv3_rdistif_base_addrs_probe+0x6c>
    1410110c:	d360de81 	ubfx	x1, x20, #32, #24
    14101110:	d378fe80 	lsr	x0, x20, #56
    14101114:	aa008020 	orr	x0, x1, x0, lsl #32
    14101118:	d63f02c0 	blr	x22
    1410111c:	6b17001f 	cmp	w0, w23
    14101120:	54000042 	b.cs	14101128 <gicv3_rdistif_base_addrs_probe+0x50>  // b.hs, b.nlast
    14101124:	f8205ab3 	str	x19, [x21, w0, uxtw #3]
    14101128:	91408273 	add	x19, x19, #0x20, lsl #12
    1410112c:	3627fed4 	tbz	w20, #4, 14101104 <gicv3_rdistif_base_addrs_probe+0x2c>
    14101130:	a94153f3 	ldp	x19, x20, [sp, #16]
    14101134:	a9425bf5 	ldp	x21, x22, [sp, #32]
    14101138:	f9401bf7 	ldr	x23, [sp, #48]
    1410113c:	a8c47bfd 	ldp	x29, x30, [sp], #64
    14101140:	d65f03c0 	ret
    14101144:	53085e80 	ubfx	w0, w20, #8, #16
    14101148:	17fffff5 	b	1410111c <gicv3_rdistif_base_addrs_probe+0x44>

000000001410114c <gicv3_get_spi_limit>:
    1410114c:	b9400400 	ldr	w0, [x0, #4]
    14101150:	52807f81 	mov	w1, #0x3fc                 	// #1020
    14101154:	531b1000 	ubfiz	w0, w0, #5, #5
    14101158:	11008000 	add	w0, w0, #0x20
    1410115c:	710ff01f 	cmp	w0, #0x3fc
    14101160:	1a819000 	csel	w0, w0, w1, ls	// ls = plast
    14101164:	d65f03c0 	ret

0000000014101168 <gicv3_spis_config_defaults>:
    14101168:	a9bd7bfd 	stp	x29, x30, [sp, #-48]!
    1410116c:	910003fd 	mov	x29, sp
    14101170:	a90153f3 	stp	x19, x20, [sp, #16]
    14101174:	aa0003f4 	mov	x20, x0
    14101178:	f90013f5 	str	x21, [sp, #32]
    1410117c:	97fffff4 	bl	1410114c <gicv3_get_spi_limit>
    14101180:	2a0003f3 	mov	w19, w0
    14101184:	52800415 	mov	w21, #0x20                  	// #32
    14101188:	6b1302bf 	cmp	w21, w19
    1410118c:	54000163 	b.cc	141011b8 <gicv3_spis_config_defaults+0x50>  // b.lo, b.ul, b.last
    14101190:	52800415 	mov	w21, #0x20                  	// #32
    14101194:	6b1302bf 	cmp	w21, w19
    14101198:	540001c3 	b.cc	141011d0 <gicv3_spis_config_defaults+0x68>  // b.lo, b.ul, b.last
    1410119c:	52800415 	mov	w21, #0x20                  	// #32
    141011a0:	6b1302bf 	cmp	w21, w19
    141011a4:	54000223 	b.cc	141011e8 <gicv3_spis_config_defaults+0x80>  // b.lo, b.ul, b.last
    141011a8:	a94153f3 	ldp	x19, x20, [sp, #16]
    141011ac:	f94013f5 	ldr	x21, [sp, #32]
    141011b0:	a8c37bfd 	ldp	x29, x30, [sp], #48
    141011b4:	d65f03c0 	ret
    141011b8:	2a1503e1 	mov	w1, w21
    141011bc:	aa1403e0 	mov	x0, x20
    141011c0:	12800002 	mov	w2, #0xffffffff            	// #-1
    141011c4:	110082b5 	add	w21, w21, #0x20
    141011c8:	97ffff60 	bl	14100f48 <gicd_write_igroupr>
    141011cc:	17ffffef 	b	14101188 <gicv3_spis_config_defaults+0x20>
    141011d0:	2a1503e1 	mov	w1, w21
    141011d4:	aa1403e0 	mov	x0, x20
    141011d8:	3201c3e2 	mov	w2, #0x80808080            	// #-2139062144
    141011dc:	110012b5 	add	w21, w21, #0x4
    141011e0:	97ffff5f 	bl	14100f5c <gicd_write_ipriorityr>
    141011e4:	17ffffec 	b	14101194 <gicv3_spis_config_defaults+0x2c>
    141011e8:	2a1503e1 	mov	w1, w21
    141011ec:	aa1403e0 	mov	x0, x20
    141011f0:	52800002 	mov	w2, #0x0                   	// #0
    141011f4:	110042b5 	add	w21, w21, #0x10
    141011f8:	97ffff4f 	bl	14100f34 <gicd_write_icfgr>
    141011fc:	17ffffe9 	b	141011a0 <gicv3_spis_config_defaults+0x38>

0000000014101200 <gicv3_secure_spis_config_props>:
    14101200:	a9bb7bfd 	stp	x29, x30, [sp, #-80]!
    14101204:	910003fd 	mov	x29, sp
    14101208:	a90153f3 	stp	x19, x20, [sp, #16]
    1410120c:	aa0103f3 	mov	x19, x1
    14101210:	a9025bf5 	stp	x21, x22, [sp, #32]
    14101214:	aa0003f5 	mov	x21, x0
    14101218:	a90363f7 	stp	x23, x24, [sp, #48]
    1410121c:	f90023f9 	str	x25, [sp, #64]
    14101220:	350001e2 	cbnz	w2, 1410125c <gicv3_secure_spis_config_props+0x5c>
    14101224:	b2409ff8 	mov	x24, #0xffffffffff          	// #1099511627775
    14101228:	8b224a77 	add	x23, x19, w2, uxtw #2
    1410122c:	91401ab9 	add	x25, x21, #0x6, lsl #12
    14101230:	52800016 	mov	w22, #0x0                   	// #0
    14101234:	f2a01ff8 	movk	x24, #0xff, lsl #16
    14101238:	eb17027f 	cmp	x19, x23
    1410123c:	54000141 	b.ne	14101264 <gicv3_secure_spis_config_props+0x64>  // b.any
    14101240:	a94153f3 	ldp	x19, x20, [sp, #16]
    14101244:	2a1603e0 	mov	w0, w22
    14101248:	a9425bf5 	ldp	x21, x22, [sp, #32]
    1410124c:	a94363f7 	ldp	x23, x24, [sp, #48]
    14101250:	f94023f9 	ldr	x25, [sp, #64]
    14101254:	a8c57bfd 	ldp	x29, x30, [sp], #80
    14101258:	d65f03c0 	ret
    1410125c:	b5fffe41 	cbnz	x1, 14101224 <gicv3_secure_spis_config_props+0x24>
    14101260:	94001579 	bl	14106844 <__assert>
    14101264:	b9400274 	ldr	w20, [x19]
    14101268:	12003294 	and	w20, w20, #0x1fff
    1410126c:	51008280 	sub	w0, w20, #0x20
    14101270:	710f6c1f 	cmp	w0, #0x3db
    14101274:	540003a8 	b.hi	141012e8 <gicv3_secure_spis_config_props+0xe8>  // b.pmore
    14101278:	2a1403e1 	mov	w1, w20
    1410127c:	aa1503e0 	mov	x0, x21
    14101280:	97ffff06 	bl	14100e98 <gicd_clr_igroupr>
    14101284:	b9400260 	ldr	w0, [x19]
    14101288:	120b0401 	and	w1, w0, #0x600000
    1410128c:	37b7fea0 	tbnz	w0, #22, 14101260 <gicv3_secure_spis_config_props+0x60>
    14101290:	35000301 	cbnz	w1, 141012f0 <gicv3_secure_spis_config_props+0xf0>
    14101294:	321e02d6 	orr	w22, w22, #0x4
    14101298:	2a1403e1 	mov	w1, w20
    1410129c:	aa1503e0 	mov	x0, x21
    141012a0:	97ffff07 	bl	14100ebc <gicd_set_igrpmodr>
    141012a4:	b9400262 	ldr	w2, [x19]
    141012a8:	2a1403e1 	mov	w1, w20
    141012ac:	aa1503e0 	mov	x0, x21
    141012b0:	d3576042 	ubfx	x2, x2, #23, #2
    141012b4:	97fffeec 	bl	14100e64 <gicd_set_icfgr>
    141012b8:	b9400262 	ldr	w2, [x19]
    141012bc:	2a1403e1 	mov	w1, w20
    141012c0:	aa1503e0 	mov	x0, x21
    141012c4:	d34d5042 	ubfx	x2, x2, #13, #8
    141012c8:	97ffff16 	bl	14100f20 <gicd_set_ipriorityr>
    141012cc:	d53800a0 	mrs	x0, mpidr_el1
    141012d0:	d37d3281 	ubfiz	x1, x20, #3, #13
    141012d4:	8a180000 	and	x0, x0, x24
    141012d8:	f8396820 	str	x0, [x1, x25]
    141012dc:	2a1403e1 	mov	w1, w20
    141012e0:	aa1503e0 	mov	x0, x21
    141012e4:	97ffff08 	bl	14100f04 <gicd_set_isenabler>
    141012e8:	91001273 	add	x19, x19, #0x4
    141012ec:	17ffffd3 	b	14101238 <gicv3_secure_spis_config_props+0x38>
    141012f0:	2a1403e1 	mov	w1, w20
    141012f4:	aa1503e0 	mov	x0, x21
    141012f8:	320002d6 	orr	w22, w22, #0x1
    141012fc:	97fffef9 	bl	14100ee0 <gicd_clr_igrpmodr>
    14101300:	17ffffe9 	b	141012a4 <gicv3_secure_spis_config_props+0xa4>

0000000014101304 <gicv3_ppi_sgi_config_defaults>:
    14101304:	a9be7bfd 	stp	x29, x30, [sp, #-32]!
    14101308:	12800001 	mov	w1, #0xffffffff            	// #-1
    1410130c:	910003fd 	mov	x29, sp
    14101310:	a90153f3 	stp	x19, x20, [sp, #16]
    14101314:	aa0003f3 	mov	x19, x0
    14101318:	d2803000 	mov	x0, #0x180                 	// #384
    1410131c:	f2a00020 	movk	x0, #0x1, lsl #16
    14101320:	b8206a61 	str	w1, [x19, x0]
    14101324:	b9400260 	ldr	w0, [x19]
    14101328:	121d0014 	and	w20, w0, #0x8
    1410132c:	371fffc0 	tbnz	w0, #3, 14101324 <gicv3_ppi_sgi_config_defaults+0x20>
    14101330:	d2801000 	mov	x0, #0x80                  	// #128
    14101334:	12800001 	mov	w1, #0xffffffff            	// #-1
    14101338:	f2a00020 	movk	x0, #0x1, lsl #16
    1410133c:	b8206a61 	str	w1, [x19, x0]
    14101340:	2a1403e1 	mov	w1, w20
    14101344:	aa1303e0 	mov	x0, x19
    14101348:	3201c3e2 	mov	w2, #0x80808080            	// #-2139062144
    1410134c:	11001294 	add	w20, w20, #0x4
    14101350:	97ffff07 	bl	14100f6c <gicr_write_ipriorityr>
    14101354:	7100829f 	cmp	w20, #0x20
    14101358:	54ffff41 	b.ne	14101340 <gicv3_ppi_sgi_config_defaults+0x3c>  // b.any
    1410135c:	d2818080 	mov	x0, #0xc04                 	// #3076
    14101360:	f2a00020 	movk	x0, #0x1, lsl #16
    14101364:	b8206a7f 	str	wzr, [x19, x0]
    14101368:	a94153f3 	ldp	x19, x20, [sp, #16]
    1410136c:	a8c27bfd 	ldp	x29, x30, [sp], #32
    14101370:	d65f03c0 	ret

0000000014101374 <gicv3_secure_ppi_sgi_config_props>:
    14101374:	a9bc7bfd 	stp	x29, x30, [sp, #-64]!
    14101378:	910003fd 	mov	x29, sp
    1410137c:	a90153f3 	stp	x19, x20, [sp, #16]
    14101380:	aa0103f3 	mov	x19, x1
    14101384:	a9025bf5 	stp	x21, x22, [sp, #32]
    14101388:	f9001bf7 	str	x23, [sp, #48]
    1410138c:	aa0003f7 	mov	x23, x0
    14101390:	35000162 	cbnz	w2, 141013bc <gicv3_secure_ppi_sgi_config_props+0x48>
    14101394:	8b224a75 	add	x21, x19, w2, uxtw #2
    14101398:	52800016 	mov	w22, #0x0                   	// #0
    1410139c:	eb15027f 	cmp	x19, x21
    141013a0:	54000121 	b.ne	141013c4 <gicv3_secure_ppi_sgi_config_props+0x50>  // b.any
    141013a4:	a94153f3 	ldp	x19, x20, [sp, #16]
    141013a8:	2a1603e0 	mov	w0, w22
    141013ac:	a9425bf5 	ldp	x21, x22, [sp, #32]
    141013b0:	f9401bf7 	ldr	x23, [sp, #48]
    141013b4:	a8c47bfd 	ldp	x29, x30, [sp], #64
    141013b8:	d65f03c0 	ret
    141013bc:	b5fffec1 	cbnz	x1, 14101394 <gicv3_secure_ppi_sgi_config_props+0x20>
    141013c0:	94001521 	bl	14106844 <__assert>
    141013c4:	b9400274 	ldr	w20, [x19]
    141013c8:	12003294 	and	w20, w20, #0x1fff
    141013cc:	71007e9f 	cmp	w20, #0x1f
    141013d0:	54000368 	b.hi	1410143c <gicv3_secure_ppi_sgi_config_props+0xc8>  // b.pmore
    141013d4:	2a1403e1 	mov	w1, w20
    141013d8:	aa1703e0 	mov	x0, x23
    141013dc:	97fffeef 	bl	14100f98 <gicr_clr_igroupr>
    141013e0:	b9400260 	ldr	w0, [x19]
    141013e4:	120b0401 	and	w1, w0, #0x600000
    141013e8:	37b7fec0 	tbnz	w0, #22, 141013c0 <gicv3_secure_ppi_sgi_config_props+0x4c>
    141013ec:	350002c1 	cbnz	w1, 14101444 <gicv3_secure_ppi_sgi_config_props+0xd0>
    141013f0:	321e02d6 	orr	w22, w22, #0x4
    141013f4:	2a1403e1 	mov	w1, w20
    141013f8:	aa1703e0 	mov	x0, x23
    141013fc:	97fffef1 	bl	14100fc0 <gicr_set_igrpmodr>
    14101400:	b9400262 	ldr	w2, [x19]
    14101404:	2a1403e1 	mov	w1, w20
    14101408:	aa1703e0 	mov	x0, x23
    1410140c:	d34d5042 	ubfx	x2, x2, #13, #8
    14101410:	97fffedc 	bl	14100f80 <gicr_set_ipriorityr>
    14101414:	71003e9f 	cmp	w20, #0xf
    14101418:	540000c9 	b.ls	14101430 <gicv3_secure_ppi_sgi_config_props+0xbc>  // b.plast
    1410141c:	b9400262 	ldr	w2, [x19]
    14101420:	2a1403e1 	mov	w1, w20
    14101424:	aa1703e0 	mov	x0, x23
    14101428:	d3576042 	ubfx	x2, x2, #23, #2
    1410142c:	97ffff01 	bl	14101030 <gicr_set_icfgr>
    14101430:	2a1403e1 	mov	w1, w20
    14101434:	aa1703e0 	mov	x0, x23
    14101438:	97fffef6 	bl	14101010 <gicr_set_isenabler>
    1410143c:	91001273 	add	x19, x19, #0x4
    14101440:	17ffffd7 	b	1410139c <gicv3_secure_ppi_sgi_config_props+0x28>
    14101444:	2a1403e1 	mov	w1, w20
    14101448:	aa1703e0 	mov	x0, x23
    1410144c:	320002d6 	orr	w22, w22, #0x1
    14101450:	97fffee6 	bl	14100fe8 <gicr_clr_igrpmodr>
    14101454:	17ffffeb 	b	14101400 <gicv3_secure_ppi_sgi_config_props+0x8c>

0000000014101458 <gicv3_get_component_prodid_rev>:
    14101458:	b9400800 	ldr	w0, [x0, #8]
    1410145c:	53187c03 	lsr	w3, w0, #24
    14101460:	b9000023 	str	w3, [x1]
    14101464:	530c7c00 	lsr	w0, w0, #12
    14101468:	39000040 	strb	w0, [x2]
    1410146c:	d65f03c0 	ret

0000000014101470 <gicd_wait_for_pending_write>:
    14101470:	b9400001 	ldr	w1, [x0]
    14101474:	37ffffe1 	tbnz	w1, #31, 14101470 <gicd_wait_for_pending_write>
    14101478:	d65f03c0 	ret

000000001410147c <gicv3_driver_init>:
    1410147c:	a9be7bfd 	stp	x29, x30, [sp, #-32]!
    14101480:	910003fd 	mov	x29, sp
    14101484:	a90153f3 	stp	x19, x20, [sp, #16]
    14101488:	b5000040 	cbnz	x0, 14101490 <gicv3_driver_init+0x14>
    1410148c:	940014ee 	bl	14106844 <__assert>
    14101490:	f9400002 	ldr	x2, [x0]
    14101494:	aa0003f3 	mov	x19, x0
    14101498:	b4ffffa2 	cbz	x2, 1410148c <gicv3_driver_init+0x10>
    1410149c:	b9401c01 	ldr	w1, [x0, #28]
    141014a0:	34ffff61 	cbz	w1, 1410148c <gicv3_driver_init+0x10>
    141014a4:	f9401000 	ldr	x0, [x0, #32]
    141014a8:	b4ffff20 	cbz	x0, 1410148c <gicv3_driver_init+0x10>
    141014ac:	d5384243 	mrs	x3, currentel
    141014b0:	927e0463 	and	x3, x3, #0xc
    141014b4:	f100307f 	cmp	x3, #0xc
    141014b8:	54fffea1 	b.ne	1410148c <gicv3_driver_init+0x10>  // b.any
    141014bc:	b9401a63 	ldr	w3, [x19, #24]
    141014c0:	34000063 	cbz	w3, 141014cc <gicv3_driver_init+0x50>
    141014c4:	f9400a63 	ldr	x3, [x19, #16]
    141014c8:	b4fffe23 	cbz	x3, 1410148c <gicv3_driver_init+0x10>
    141014cc:	d5380403 	mrs	x3, id_aa64pfr0_el1
    141014d0:	f2680c7f 	tst	x3, #0xf000000
    141014d4:	54fffdc0 	b.eq	1410148c <gicv3_driver_init+0x10>  // b.none
    141014d8:	d29ffd03 	mov	x3, #0xffe8                	// #65512
    141014dc:	b8636843 	ldr	w3, [x2, x3]
    141014e0:	121c0c63 	and	w3, w3, #0xf0
    141014e4:	7100c07f 	cmp	w3, #0x30
    141014e8:	54fffd21 	b.ne	1410148c <gicv3_driver_init+0x10>  // b.any
    141014ec:	b9400042 	ldr	w2, [x2]
    141014f0:	f9400662 	ldr	x2, [x19, #8]
    141014f4:	b40000e2 	cbz	x2, 14101510 <gicv3_driver_init+0x94>
    141014f8:	f9401663 	ldr	x3, [x19, #40]
    141014fc:	97fffef7 	bl	141010d8 <gicv3_rdistif_base_addrs_probe>
    14101500:	f9401260 	ldr	x0, [x19, #32]
    14101504:	b9401e61 	ldr	w1, [x19, #28]
    14101508:	d37df021 	lsl	x1, x1, #3
    1410150c:	940012ba 	bl	14105ff4 <flush_dcache_range>
    14101510:	b0000074 	adrp	x20, 1410e000 <__RELA_END__+0x3f80>
    14101514:	d2800101 	mov	x1, #0x8                   	// #8
    14101518:	91042280 	add	x0, x20, #0x108
    1410151c:	f9008693 	str	x19, [x20, #264]
    14101520:	940012b5 	bl	14105ff4 <flush_dcache_range>
    14101524:	f9408680 	ldr	x0, [x20, #264]
    14101528:	d2800601 	mov	x1, #0x30                  	// #48
    1410152c:	940012b2 	bl	14105ff4 <flush_dcache_range>
    14101530:	f9400260 	ldr	x0, [x19]
    14101534:	a94153f3 	ldp	x19, x20, [sp, #16]
    14101538:	a8c27bfd 	ldp	x29, x30, [sp], #32
    1410153c:	17fffe33 	b	14100e08 <gicv3_check_erratas_applies>

0000000014101540 <gicv3_distif_init>:
    14101540:	a9be7bfd 	stp	x29, x30, [sp, #-32]!
    14101544:	910003fd 	mov	x29, sp
    14101548:	f9000bf3 	str	x19, [sp, #16]
    1410154c:	b0000073 	adrp	x19, 1410e000 <__RELA_END__+0x3f80>
    14101550:	f9408660 	ldr	x0, [x19, #264]
    14101554:	b5000040 	cbnz	x0, 1410155c <gicv3_distif_init+0x1c>
    14101558:	940014bb 	bl	14106844 <__assert>
    1410155c:	f9400000 	ldr	x0, [x0]
    14101560:	b4ffffc0 	cbz	x0, 14101558 <gicv3_distif_init+0x18>
    14101564:	d5384241 	mrs	x1, currentel
    14101568:	927e0421 	and	x1, x1, #0xc
    1410156c:	f100303f 	cmp	x1, #0xc
    14101570:	54ffff41 	b.ne	14101558 <gicv3_distif_init+0x18>  // b.any
    14101574:	b9400001 	ldr	w1, [x0]
    14101578:	121d7021 	and	w1, w1, #0xfffffff8
    1410157c:	b9000001 	str	w1, [x0]
    14101580:	97ffffbc 	bl	14101470 <gicd_wait_for_pending_write>
    14101584:	b9400001 	ldr	w1, [x0]
    14101588:	321c0421 	orr	w1, w1, #0x30
    1410158c:	b9000001 	str	w1, [x0]
    14101590:	97ffffb8 	bl	14101470 <gicd_wait_for_pending_write>
    14101594:	97fffef5 	bl	14101168 <gicv3_spis_config_defaults>
    14101598:	f9408660 	ldr	x0, [x19, #264]
    1410159c:	f9400801 	ldr	x1, [x0, #16]
    141015a0:	b9401802 	ldr	w2, [x0, #24]
    141015a4:	f9400000 	ldr	x0, [x0]
    141015a8:	97ffff16 	bl	14101200 <gicv3_secure_spis_config_props>
    141015ac:	f9408661 	ldr	x1, [x19, #264]
    141015b0:	f9400bf3 	ldr	x19, [sp, #16]
    141015b4:	f9400021 	ldr	x1, [x1]
    141015b8:	b9400022 	ldr	w2, [x1]
    141015bc:	2a020000 	orr	w0, w0, w2
    141015c0:	b9000020 	str	w0, [x1]
    141015c4:	aa0103e0 	mov	x0, x1
    141015c8:	a8c27bfd 	ldp	x29, x30, [sp], #32
    141015cc:	17ffffa9 	b	14101470 <gicd_wait_for_pending_write>

00000000141015d0 <gicv3_rdistif_init>:
    141015d0:	a9bd7bfd 	stp	x29, x30, [sp, #-48]!
    141015d4:	910003fd 	mov	x29, sp
    141015d8:	a90153f3 	stp	x19, x20, [sp, #16]
    141015dc:	b0000073 	adrp	x19, 1410e000 <__RELA_END__+0x3f80>
    141015e0:	f9408661 	ldr	x1, [x19, #264]
    141015e4:	f90013f5 	str	x21, [sp, #32]
    141015e8:	b5000041 	cbnz	x1, 141015f0 <gicv3_rdistif_init+0x20>
    141015ec:	94001496 	bl	14106844 <__assert>
    141015f0:	b9401c22 	ldr	w2, [x1, #28]
    141015f4:	2a0003f4 	mov	w20, w0
    141015f8:	6b00005f 	cmp	w2, w0
    141015fc:	54ffff89 	b.ls	141015ec <gicv3_rdistif_init+0x1c>  // b.plast
    14101600:	f9401022 	ldr	x2, [x1, #32]
    14101604:	b4ffff42 	cbz	x2, 141015ec <gicv3_rdistif_init+0x1c>
    14101608:	f9400021 	ldr	x1, [x1]
    1410160c:	b4ffff01 	cbz	x1, 141015ec <gicv3_rdistif_init+0x1c>
    14101610:	b9400035 	ldr	w21, [x1]
    14101614:	3627fed5 	tbz	w21, #4, 141015ec <gicv3_rdistif_init+0x1c>
    14101618:	d5384241 	mrs	x1, currentel
    1410161c:	927e0421 	and	x1, x1, #0xc
    14101620:	f100303f 	cmp	x1, #0xc
    14101624:	54fffe41 	b.ne	141015ec <gicv3_rdistif_init+0x1c>  // b.any
    14101628:	97fffde2 	bl	14100db0 <gicv3_rdistif_on>
    1410162c:	f9408660 	ldr	x0, [x19, #264]
    14101630:	f9401000 	ldr	x0, [x0, #32]
    14101634:	f8745814 	ldr	x20, [x0, w20, uxtw #3]
    14101638:	b4fffdb4 	cbz	x20, 141015ec <gicv3_rdistif_init+0x1c>
    1410163c:	aa1403e0 	mov	x0, x20
    14101640:	97ffff31 	bl	14101304 <gicv3_ppi_sgi_config_defaults>
    14101644:	f9408660 	ldr	x0, [x19, #264]
    14101648:	f9400801 	ldr	x1, [x0, #16]
    1410164c:	b9401802 	ldr	w2, [x0, #24]
    14101650:	aa1403e0 	mov	x0, x20
    14101654:	97ffff48 	bl	14101374 <gicv3_secure_ppi_sgi_config_props>
    14101658:	2a0003e1 	mov	w1, w0
    1410165c:	6a35001f 	bics	wzr, w0, w21
    14101660:	54000140 	b.eq	14101688 <gicv3_rdistif_init+0xb8>  // b.none
    14101664:	f9408660 	ldr	x0, [x19, #264]
    14101668:	a94153f3 	ldp	x19, x20, [sp, #16]
    1410166c:	f9400000 	ldr	x0, [x0]
    14101670:	f94013f5 	ldr	x21, [sp, #32]
    14101674:	b9400002 	ldr	w2, [x0]
    14101678:	2a020021 	orr	w1, w1, w2
    1410167c:	b9000001 	str	w1, [x0]
    14101680:	a8c37bfd 	ldp	x29, x30, [sp], #48
    14101684:	17ffff7b 	b	14101470 <gicd_wait_for_pending_write>
    14101688:	a94153f3 	ldp	x19, x20, [sp, #16]
    1410168c:	f94013f5 	ldr	x21, [sp, #32]
    14101690:	a8c37bfd 	ldp	x29, x30, [sp], #48
    14101694:	d65f03c0 	ret

0000000014101698 <gicv3_cpuif_enable>:
    14101698:	a9bf7bfd 	stp	x29, x30, [sp, #-16]!
    1410169c:	b0000061 	adrp	x1, 1410e000 <__RELA_END__+0x3f80>
    141016a0:	910003fd 	mov	x29, sp
    141016a4:	f9408421 	ldr	x1, [x1, #264]
    141016a8:	b5000041 	cbnz	x1, 141016b0 <gicv3_cpuif_enable+0x18>
    141016ac:	94001466 	bl	14106844 <__assert>
    141016b0:	b9401c22 	ldr	w2, [x1, #28]
    141016b4:	6b00005f 	cmp	w2, w0
    141016b8:	54ffffa9 	b.ls	141016ac <gicv3_cpuif_enable+0x14>  // b.plast
    141016bc:	f9401022 	ldr	x2, [x1, #32]
    141016c0:	b4ffff62 	cbz	x2, 141016ac <gicv3_cpuif_enable+0x14>
    141016c4:	d5384241 	mrs	x1, currentel
    141016c8:	927e0421 	and	x1, x1, #0xc
    141016cc:	f100303f 	cmp	x1, #0xc
    141016d0:	54fffee1 	b.ne	141016ac <gicv3_cpuif_enable+0x14>  // b.any
    141016d4:	f8605840 	ldr	x0, [x2, w0, uxtw #3]
    141016d8:	97fffe64 	bl	14101068 <gicv3_rdistif_mark_core_awake>
    141016dc:	d53ecca0 	mrs	x0, icc_sre_el3
    141016e0:	b2400c00 	orr	x0, x0, #0xf
    141016e4:	d51ecca0 	msr	icc_sre_el3, x0
    141016e8:	d53e1100 	mrs	x0, scr_el3
    141016ec:	b2400001 	orr	x1, x0, #0x1
    141016f0:	d51e1101 	msr	scr_el3, x1
    141016f4:	d5033fdf 	isb
    141016f8:	d53cc9a1 	mrs	x1, icc_sre_el2
    141016fc:	b2400c21 	orr	x1, x1, #0xf
    14101700:	d51cc9a1 	msr	icc_sre_el2, x1
    14101704:	d2800021 	mov	x1, #0x1                   	// #1
    14101708:	d518cca1 	msr	icc_sre_el1, x1
    1410170c:	d5033fdf 	isb
    14101710:	927ff802 	and	x2, x0, #0xfffffffffffffffe
    14101714:	d51e1102 	msr	scr_el3, x2
    14101718:	d5033fdf 	isb
    1410171c:	d518cca1 	msr	icc_sre_el1, x1
    14101720:	d5033fdf 	isb
    14101724:	d2801fe2 	mov	x2, #0xff                  	// #255
    14101728:	d5184602 	msr	icc_pmr_el1, x2
    1410172c:	d518ccc1 	msr	icc_igrpen0_el1, x1
    14101730:	d53ecce1 	mrs	x1, icc_igrpen1_el3
    14101734:	b27f0021 	orr	x1, x1, #0x2
    14101738:	d51ecce1 	msr	icc_igrpen1_el3, x1
    1410173c:	d51e1100 	msr	scr_el3, x0
    14101740:	d5033fdf 	isb
    14101744:	d5033f9f 	dsb	sy
    14101748:	a8c17bfd 	ldp	x29, x30, [sp], #16
    1410174c:	d65f03c0 	ret

0000000014101750 <gicv3_cpuif_disable>:
    14101750:	a9be7bfd 	stp	x29, x30, [sp, #-32]!
    14101754:	b0000062 	adrp	x2, 1410e000 <__RELA_END__+0x3f80>
    14101758:	910003fd 	mov	x29, sp
    1410175c:	f9408441 	ldr	x1, [x2, #264]
    14101760:	f9000bf3 	str	x19, [sp, #16]
    14101764:	b5000041 	cbnz	x1, 1410176c <gicv3_cpuif_disable+0x1c>
    14101768:	94001437 	bl	14106844 <__assert>
    1410176c:	b9401c23 	ldr	w3, [x1, #28]
    14101770:	6b00007f 	cmp	w3, w0
    14101774:	54ffffa9 	b.ls	14101768 <gicv3_cpuif_disable+0x18>  // b.plast
    14101778:	f9401021 	ldr	x1, [x1, #32]
    1410177c:	b4ffff61 	cbz	x1, 14101768 <gicv3_cpuif_disable+0x18>
    14101780:	d5384241 	mrs	x1, currentel
    14101784:	927e0421 	and	x1, x1, #0xc
    14101788:	f100303f 	cmp	x1, #0xc
    1410178c:	54fffee1 	b.ne	14101768 <gicv3_cpuif_disable+0x18>  // b.any
    14101790:	d53ecca1 	mrs	x1, icc_sre_el3
    14101794:	b27f0421 	orr	x1, x1, #0x6
    14101798:	d51ecca1 	msr	icc_sre_el3, x1
    1410179c:	d538ccc1 	mrs	x1, icc_igrpen0_el1
    141017a0:	927f7821 	and	x1, x1, #0xfffffffe
    141017a4:	d518ccc1 	msr	icc_igrpen0_el1, x1
    141017a8:	d53ecce1 	mrs	x1, icc_igrpen1_el3
    141017ac:	927e7421 	and	x1, x1, #0xfffffffc
    141017b0:	d51ecce1 	msr	icc_igrpen1_el3, x1
    141017b4:	d5033fdf 	isb
    141017b8:	d5033f9f 	dsb	sy
    141017bc:	f9408441 	ldr	x1, [x2, #264]
    141017c0:	f9401021 	ldr	x1, [x1, #32]
    141017c4:	f8605833 	ldr	x19, [x1, w0, uxtw #3]
    141017c8:	b4fffd13 	cbz	x19, 14101768 <gicv3_cpuif_disable+0x18>
    141017cc:	aa1303e0 	mov	x0, x19
    141017d0:	97fffd85 	bl	14100de4 <gicv3_apply_errata_wa_2384374>
    141017d4:	aa1303e0 	mov	x0, x19
    141017d8:	f9400bf3 	ldr	x19, [sp, #16]
    141017dc:	a8c27bfd 	ldp	x29, x30, [sp], #32
    141017e0:	17fffe37 	b	141010bc <gicv3_rdistif_mark_core_asleep>

00000000141017e4 <gicv3_get_pending_interrupt_type>:
    141017e4:	d5384240 	mrs	x0, currentel
    141017e8:	927e0400 	and	x0, x0, #0xc
    141017ec:	f100301f 	cmp	x0, #0xc
    141017f0:	54000080 	b.eq	14101800 <gicv3_get_pending_interrupt_type+0x1c>  // b.none
    141017f4:	a9bf7bfd 	stp	x29, x30, [sp, #-16]!
    141017f8:	910003fd 	mov	x29, sp
    141017fc:	94001412 	bl	14106844 <__assert>
    14101800:	d538c840 	mrs	x0, icc_hppir0_el1
    14101804:	12005c00 	and	w0, w0, #0xffffff
    14101808:	d65f03c0 	ret

000000001410180c <gicv3_rdistif_probe>:
    1410180c:	a9bc7bfd 	stp	x29, x30, [sp, #-64]!
    14101810:	910003fd 	mov	x29, sp
    14101814:	f9001bf7 	str	x23, [sp, #48]
    14101818:	b0000077 	adrp	x23, 1410e000 <__RELA_END__+0x3f80>
    1410181c:	a90153f3 	stp	x19, x20, [sp, #16]
    14101820:	aa0003f3 	mov	x19, x0
    14101824:	f94086e0 	ldr	x0, [x23, #264]
    14101828:	a9025bf5 	stp	x21, x22, [sp, #32]
    1410182c:	f9400400 	ldr	x0, [x0, #8]
    14101830:	b4000040 	cbz	x0, 14101838 <gicv3_rdistif_probe+0x2c>
    14101834:	94001404 	bl	14106844 <__assert>
    14101838:	d53e1000 	mrs	x0, sctlr_el3
    1410183c:	3617ffc0 	tbz	w0, #2, 14101834 <gicv3_rdistif_probe+0x28>
    14101840:	d53800b4 	mrs	x20, mpidr_el1
    14101844:	92409e94 	and	x20, x20, #0xffffffffff
    14101848:	9260de94 	and	x20, x20, #0xffffffff00ffffff
    1410184c:	f9400675 	ldr	x21, [x19, #8]
    14101850:	d378feb6 	lsr	x22, x21, #56
    14101854:	d360dea0 	ubfx	x0, x21, #32, #24
    14101858:	aa168016 	orr	x22, x0, x22, lsl #32
    1410185c:	f94086e0 	ldr	x0, [x23, #264]
    14101860:	f9401401 	ldr	x1, [x0, #40]
    14101864:	b4000281 	cbz	x1, 141018b4 <gicv3_rdistif_probe+0xa8>
    14101868:	aa1603e0 	mov	x0, x22
    1410186c:	d63f0020 	blr	x1
    14101870:	eb16029f 	cmp	x20, x22
    14101874:	54000241 	b.ne	141018bc <gicv3_rdistif_probe+0xb0>  // b.any
    14101878:	f94086e2 	ldr	x2, [x23, #264]
    1410187c:	d37d7c01 	ubfiz	x1, x0, #3, #32
    14101880:	f9401042 	ldr	x2, [x2, #32]
    14101884:	8b010040 	add	x0, x2, x1
    14101888:	f8616843 	ldr	x3, [x2, x1]
    1410188c:	b5000083 	cbnz	x3, 1410189c <gicv3_rdistif_probe+0x90>
    14101890:	f8216853 	str	x19, [x2, x1]
    14101894:	d2800101 	mov	x1, #0x8                   	// #8
    14101898:	940011d7 	bl	14105ff4 <flush_dcache_range>
    1410189c:	52800000 	mov	w0, #0x0                   	// #0
    141018a0:	a94153f3 	ldp	x19, x20, [sp, #16]
    141018a4:	a9425bf5 	ldp	x21, x22, [sp, #32]
    141018a8:	f9401bf7 	ldr	x23, [sp, #48]
    141018ac:	a8c47bfd 	ldp	x29, x30, [sp], #64
    141018b0:	d65f03c0 	ret
    141018b4:	53085ea0 	ubfx	w0, w21, #8, #16
    141018b8:	17ffffee 	b	14101870 <gicv3_rdistif_probe+0x64>
    141018bc:	91408273 	add	x19, x19, #0x20, lsl #12
    141018c0:	3627fc75 	tbz	w21, #4, 1410184c <gicv3_rdistif_probe+0x40>
    141018c4:	12800000 	mov	w0, #0xffffffff            	// #-1
    141018c8:	17fffff6 	b	141018a0 <gicv3_rdistif_probe+0x94>

00000000141018cc <console_is_registered>:
    141018cc:	b5000080 	cbnz	x0, 141018dc <console_is_registered+0x10>
    141018d0:	a9bf7bfd 	stp	x29, x30, [sp, #-16]!
    141018d4:	910003fd 	mov	x29, sp
    141018d8:	940013db 	bl	14106844 <__assert>
    141018dc:	b0000061 	adrp	x1, 1410e000 <__RELA_END__+0x3f80>
    141018e0:	f9408821 	ldr	x1, [x1, #272]
    141018e4:	b5000061 	cbnz	x1, 141018f0 <console_is_registered+0x24>
    141018e8:	52800000 	mov	w0, #0x0                   	// #0
    141018ec:	d65f03c0 	ret
    141018f0:	eb00003f 	cmp	x1, x0
    141018f4:	54000060 	b.eq	14101900 <console_is_registered+0x34>  // b.none
    141018f8:	f9400021 	ldr	x1, [x1]
    141018fc:	17fffffa 	b	141018e4 <console_is_registered+0x18>
    14101900:	52800020 	mov	w0, #0x1                   	// #1
    14101904:	d65f03c0 	ret

0000000014101908 <console_register>:
    14101908:	a9be7bfd 	stp	x29, x30, [sp, #-32]!
    1410190c:	910003fd 	mov	x29, sp
    14101910:	f9000bf3 	str	x19, [sp, #16]
    14101914:	aa0003f3 	mov	x19, x0
    14101918:	b0000040 	adrp	x0, 1410a000 <__RO_END__>
    1410191c:	91020000 	add	x0, x0, #0x80
    14101920:	eb00027f 	cmp	x19, x0
    14101924:	540000c3 	b.cc	1410193c <console_register+0x34>  // b.lo, b.ul, b.last
    14101928:	b0000060 	adrp	x0, 1410e000 <__RELA_END__+0x3f80>
    1410192c:	91020000 	add	x0, x0, #0x80
    14101930:	eb00027f 	cmp	x19, x0
    14101934:	54000042 	b.cs	1410193c <console_register+0x34>  // b.hs, b.nlast
    14101938:	940013c3 	bl	14106844 <__assert>
    1410193c:	aa1303e0 	mov	x0, x19
    14101940:	97ffffe3 	bl	141018cc <console_is_registered>
    14101944:	7100041f 	cmp	w0, #0x1
    14101948:	540000a0 	b.eq	1410195c <console_register+0x54>  // b.none
    1410194c:	b0000060 	adrp	x0, 1410e000 <__RELA_END__+0x3f80>
    14101950:	f9408801 	ldr	x1, [x0, #272]
    14101954:	f9000261 	str	x1, [x19]
    14101958:	f9008813 	str	x19, [x0, #272]
    1410195c:	f9400bf3 	ldr	x19, [sp, #16]
    14101960:	52800020 	mov	w0, #0x1                   	// #1
    14101964:	a8c27bfd 	ldp	x29, x30, [sp], #32
    14101968:	d65f03c0 	ret

000000001410196c <console_switch_state>:
    1410196c:	b0000041 	adrp	x1, 1410a000 <__RO_END__>
    14101970:	b9007020 	str	w0, [x1, #112]
    14101974:	d65f03c0 	ret

0000000014101978 <console_set_scope>:
    14101978:	b5000080 	cbnz	x0, 14101988 <console_set_scope+0x10>
    1410197c:	a9bf7bfd 	stp	x29, x30, [sp, #-16]!
    14101980:	910003fd 	mov	x29, sp
    14101984:	940013b0 	bl	14106844 <__assert>
    14101988:	f9400402 	ldr	x2, [x0, #8]
    1410198c:	2a0103e1 	mov	w1, w1
    14101990:	9278dc42 	and	x2, x2, #0xffffffffffffff00
    14101994:	aa010041 	orr	x1, x2, x1
    14101998:	f9000401 	str	x1, [x0, #8]
    1410199c:	d65f03c0 	ret

00000000141019a0 <console_putc>:
    141019a0:	a9bd7bfd 	stp	x29, x30, [sp, #-48]!
    141019a4:	910003fd 	mov	x29, sp
    141019a8:	a9025bf5 	stp	x21, x22, [sp, #32]
    141019ac:	2a0003f5 	mov	w21, w0
    141019b0:	b0000060 	adrp	x0, 1410e000 <__RELA_END__+0x3f80>
    141019b4:	a90153f3 	stp	x19, x20, [sp, #16]
    141019b8:	b0000056 	adrp	x22, 1410a000 <__RO_END__>
    141019bc:	9101c2d6 	add	x22, x22, #0x70
    141019c0:	f9408813 	ldr	x19, [x0, #272]
    141019c4:	12800ff4 	mov	w20, #0xffffff80            	// #-128
    141019c8:	b50000d3 	cbnz	x19, 141019e0 <console_putc+0x40>
    141019cc:	a9425bf5 	ldp	x21, x22, [sp, #32]
    141019d0:	2a1403e0 	mov	w0, w20
    141019d4:	a94153f3 	ldp	x19, x20, [sp, #16]
    141019d8:	a8c37bfd 	ldp	x29, x30, [sp], #48
    141019dc:	d65f03c0 	ret
    141019e0:	f9400660 	ldr	x0, [x19, #8]
    141019e4:	b94002c1 	ldr	w1, [x22]
    141019e8:	ea00003f 	tst	x1, x0
    141019ec:	54000060 	b.eq	141019f8 <console_putc+0x58>  // b.none
    141019f0:	f9400a62 	ldr	x2, [x19, #16]
    141019f4:	b50000a2 	cbnz	x2, 14101a08 <console_putc+0x68>
    141019f8:	2a1403e0 	mov	w0, w20
    141019fc:	f9400273 	ldr	x19, [x19]
    14101a00:	2a0003f4 	mov	w20, w0
    14101a04:	17fffff1 	b	141019c8 <console_putc+0x28>
    14101a08:	71002abf 	cmp	w21, #0xa
    14101a0c:	54000120 	b.eq	14101a30 <console_putc+0x90>  // b.none
    14101a10:	f9400a62 	ldr	x2, [x19, #16]
    14101a14:	aa1303e1 	mov	x1, x19
    14101a18:	2a1503e0 	mov	w0, w21
    14101a1c:	d63f0040 	blr	x2
    14101a20:	3102029f 	cmn	w20, #0x80
    14101a24:	7a401280 	ccmp	w20, w0, #0x0, ne	// ne = any
    14101a28:	54fffe8d 	b.le	141019f8 <console_putc+0x58>
    14101a2c:	17fffff4 	b	141019fc <console_putc+0x5c>
    14101a30:	3647ff00 	tbz	w0, #8, 14101a10 <console_putc+0x70>
    14101a34:	aa1303e1 	mov	x1, x19
    14101a38:	528001a0 	mov	w0, #0xd                   	// #13
    14101a3c:	d63f0040 	blr	x2
    14101a40:	36fffe80 	tbz	w0, #31, 14101a10 <console_putc+0x70>
    14101a44:	17fffff7 	b	14101a20 <console_putc+0x80>

0000000014101a48 <putchar>:
    14101a48:	a9be7bfd 	stp	x29, x30, [sp, #-32]!
    14101a4c:	910003fd 	mov	x29, sp
    14101a50:	f9000bf3 	str	x19, [sp, #16]
    14101a54:	2a0003f3 	mov	w19, w0
    14101a58:	97ffffd2 	bl	141019a0 <console_putc>
    14101a5c:	7100001f 	cmp	w0, #0x0
    14101a60:	5a9f0260 	csinv	w0, w19, wzr, eq	// eq = none
    14101a64:	f9400bf3 	ldr	x19, [sp, #16]
    14101a68:	a8c27bfd 	ldp	x29, x30, [sp], #32
    14101a6c:	d65f03c0 	ret

0000000014101a70 <console_flush>:
    14101a70:	a9be7bfd 	stp	x29, x30, [sp, #-32]!
    14101a74:	b0000060 	adrp	x0, 1410e000 <__RELA_END__+0x3f80>
    14101a78:	910003fd 	mov	x29, sp
    14101a7c:	a90153f3 	stp	x19, x20, [sp, #16]
    14101a80:	b0000054 	adrp	x20, 1410a000 <__RO_END__>
    14101a84:	9101c294 	add	x20, x20, #0x70
    14101a88:	f9408813 	ldr	x19, [x0, #272]
    14101a8c:	b5000093 	cbnz	x19, 14101a9c <console_flush+0x2c>
    14101a90:	a94153f3 	ldp	x19, x20, [sp, #16]
    14101a94:	a8c27bfd 	ldp	x29, x30, [sp], #32
    14101a98:	d65f03c0 	ret
    14101a9c:	f9400660 	ldr	x0, [x19, #8]
    14101aa0:	b9400281 	ldr	w1, [x20]
    14101aa4:	ea00003f 	tst	x1, x0
    14101aa8:	540000a0 	b.eq	14101abc <console_flush+0x4c>  // b.none
    14101aac:	f9400e61 	ldr	x1, [x19, #24]
    14101ab0:	b4000061 	cbz	x1, 14101abc <console_flush+0x4c>
    14101ab4:	aa1303e0 	mov	x0, x19
    14101ab8:	d63f0020 	blr	x1
    14101abc:	f9400273 	ldr	x19, [x19]
    14101ac0:	17fffff3 	b	14101a8c <console_flush+0x1c>

0000000014101ac4 <flash_spi_set_quad_mode>:
    14101ac4:	a9be7bfd 	stp	x29, x30, [sp, #-32]!
    14101ac8:	52800020 	mov	w0, #0x1                   	// #1
    14101acc:	910003fd 	mov	x29, sp
    14101ad0:	9400016f 	bl	1410208c <qspi_boot_enable>
    14101ad4:	52800027 	mov	w7, #0x1                   	// #1
    14101ad8:	52800006 	mov	w6, #0x0                   	// #0
    14101adc:	52800005 	mov	w5, #0x0                   	// #0
    14101ae0:	52800004 	mov	w4, #0x0                   	// #0
    14101ae4:	52800003 	mov	w3, #0x0                   	// #0
    14101ae8:	52800002 	mov	w2, #0x0                   	// #0
    14101aec:	52800001 	mov	w1, #0x0                   	// #0
    14101af0:	528000e0 	mov	w0, #0x7                   	// #7
    14101af4:	94000200 	bl	141022f4 <qspi_boot_config_controller>
    14101af8:	528013e0 	mov	w0, #0x9f                  	// #159
    14101afc:	52800023 	mov	w3, #0x1                   	// #1
    14101b00:	910063e1 	add	x1, sp, #0x18
    14101b04:	2a0303e2 	mov	w2, w3
    14101b08:	b9001be0 	str	w0, [sp, #24]
    14101b0c:	910073e0 	add	x0, sp, #0x1c
    14101b10:	940001c6 	bl	14102228 <qspi_boot_std_tx_rx_d_multiple>
    14101b14:	b9401fe1 	ldr	w1, [sp, #28]
    14101b18:	d0000020 	adrp	x0, 14107000 <plat_rebel_h_psci_pm_ops+0x80>
    14101b1c:	910b2000 	add	x0, x0, #0x2c8
    14101b20:	940014bf 	bl	14106e1c <printf>
    14101b24:	b9401fe0 	ldr	w0, [sp, #28]
    14101b28:	7100801f 	cmp	w0, #0x20
    14101b2c:	54000181 	b.ne	14101b5c <flash_spi_set_quad_mode+0x98>  // b.any
    14101b30:	528006a0 	mov	w0, #0x35                  	// #53
    14101b34:	52800021 	mov	w1, #0x1                   	// #1
    14101b38:	b9001be0 	str	w0, [sp, #24]
    14101b3c:	910063e0 	add	x0, sp, #0x18
    14101b40:	94000197 	bl	1410219c <qspi_boot_std_tx_d_multiple>
    14101b44:	b0000060 	adrp	x0, 1410e000 <__RELA_END__+0x3f80>
    14101b48:	52800041 	mov	w1, #0x2                   	// #2
    14101b4c:	b9070001 	str	w1, [x0, #1792]
    14101b50:	52800000 	mov	w0, #0x0                   	// #0
    14101b54:	a8c27bfd 	ldp	x29, x30, [sp], #32
    14101b58:	d65f03c0 	ret
    14101b5c:	12800000 	mov	w0, #0xffffffff            	// #-1
    14101b60:	17fffffd 	b	14101b54 <flash_spi_set_quad_mode+0x90>

0000000014101b64 <flash_read_one_register>:
    14101b64:	a9be7bfd 	stp	x29, x30, [sp, #-32]!
    14101b68:	52800045 	mov	w5, #0x2                   	// #2
    14101b6c:	52800007 	mov	w7, #0x0                   	// #0
    14101b70:	910003fd 	mov	x29, sp
    14101b74:	2a0503e3 	mov	w3, w5
    14101b78:	2a0503e2 	mov	w2, w5
    14101b7c:	2a0503e1 	mov	w1, w5
    14101b80:	52800006 	mov	w6, #0x0                   	// #0
    14101b84:	52800004 	mov	w4, #0x0                   	// #0
    14101b88:	f9000bf3 	str	x19, [sp, #16]
    14101b8c:	2a0003f3 	mov	w19, w0
    14101b90:	528000e0 	mov	w0, #0x7                   	// #7
    14101b94:	940001d8 	bl	141022f4 <qspi_boot_config_controller>
    14101b98:	2a1303e0 	mov	w0, w19
    14101b9c:	f9400bf3 	ldr	x19, [sp, #16]
    14101ba0:	a8c27bfd 	ldp	x29, x30, [sp], #32
    14101ba4:	14000190 	b	141021e4 <qspi_boot_enhance_rx_i_d_once>

0000000014101ba8 <flash_check_ready>:
    14101ba8:	a9bf7bfd 	stp	x29, x30, [sp, #-16]!
    14101bac:	910003fd 	mov	x29, sp
    14101bb0:	52800e00 	mov	w0, #0x70                  	// #112
    14101bb4:	97ffffec 	bl	14101b64 <flash_read_one_register>
    14101bb8:	363fffc0 	tbz	w0, #7, 14101bb0 <flash_check_ready+0x8>
    14101bbc:	a8c17bfd 	ldp	x29, x30, [sp], #16
    14101bc0:	d65f03c0 	ret

0000000014101bc4 <flash_write_mode>:
    14101bc4:	a9be7bfd 	stp	x29, x30, [sp, #-32]!
    14101bc8:	52800045 	mov	w5, #0x2                   	// #2
    14101bcc:	52800007 	mov	w7, #0x0                   	// #0
    14101bd0:	910003fd 	mov	x29, sp
    14101bd4:	2a0503e3 	mov	w3, w5
    14101bd8:	2a0503e2 	mov	w2, w5
    14101bdc:	52800006 	mov	w6, #0x0                   	// #0
    14101be0:	52800004 	mov	w4, #0x0                   	// #0
    14101be4:	52800021 	mov	w1, #0x1                   	// #1
    14101be8:	f9000bf3 	str	x19, [sp, #16]
    14101bec:	2a0003f3 	mov	w19, w0
    14101bf0:	528000e0 	mov	w0, #0x7                   	// #7
    14101bf4:	940001c0 	bl	141022f4 <qspi_boot_config_controller>
    14101bf8:	2a1303e0 	mov	w0, w19
    14101bfc:	f9400bf3 	ldr	x19, [sp, #16]
    14101c00:	a8c27bfd 	ldp	x29, x30, [sp], #32
    14101c04:	140001e9 	b	141023a8 <qspi_boot_enhance_tx_i_once>

0000000014101c08 <flash_write_mode_i_a>:
    14101c08:	a9be7bfd 	stp	x29, x30, [sp, #-32]!
    14101c0c:	52800045 	mov	w5, #0x2                   	// #2
    14101c10:	52800007 	mov	w7, #0x0                   	// #0
    14101c14:	910003fd 	mov	x29, sp
    14101c18:	2a0503e3 	mov	w3, w5
    14101c1c:	2a0503e2 	mov	w2, w5
    14101c20:	52800006 	mov	w6, #0x0                   	// #0
    14101c24:	528000c4 	mov	w4, #0x6                   	// #6
    14101c28:	a90153f3 	stp	x19, x20, [sp, #16]
    14101c2c:	2a0003f3 	mov	w19, w0
    14101c30:	2a0103f4 	mov	w20, w1
    14101c34:	528000e0 	mov	w0, #0x7                   	// #7
    14101c38:	52800021 	mov	w1, #0x1                   	// #1
    14101c3c:	940001ae 	bl	141022f4 <qspi_boot_config_controller>
    14101c40:	2a1403e1 	mov	w1, w20
    14101c44:	2a1303e0 	mov	w0, w19
    14101c48:	a94153f3 	ldp	x19, x20, [sp, #16]
    14101c4c:	a8c27bfd 	ldp	x29, x30, [sp], #32
    14101c50:	140001e1 	b	141023d4 <qspi_boot_enhance_tx_i_a_once>

0000000014101c54 <write_flash_fast_256_data>:
    14101c54:	a9bd7bfd 	stp	x29, x30, [sp, #-48]!
    14101c58:	52800045 	mov	w5, #0x2                   	// #2
    14101c5c:	52800007 	mov	w7, #0x0                   	// #0
    14101c60:	910003fd 	mov	x29, sp
    14101c64:	2a0503e3 	mov	w3, w5
    14101c68:	52800006 	mov	w6, #0x0                   	// #0
    14101c6c:	528000c4 	mov	w4, #0x6                   	// #6
    14101c70:	a90153f3 	stp	x19, x20, [sp, #16]
    14101c74:	2a0003f3 	mov	w19, w0
    14101c78:	2a0103f4 	mov	w20, w1
    14101c7c:	528003e0 	mov	w0, #0x1f                  	// #31
    14101c80:	52800021 	mov	w1, #0x1                   	// #1
    14101c84:	f90013f5 	str	x21, [sp, #32]
    14101c88:	aa0203f5 	mov	x21, x2
    14101c8c:	2a0503e2 	mov	w2, w5
    14101c90:	940001c5 	bl	141023a4 <qspi_boot_config_for_flash>
    14101c94:	aa1503e2 	mov	x2, x21
    14101c98:	2a1403e1 	mov	w1, w20
    14101c9c:	f94013f5 	ldr	x21, [sp, #32]
    14101ca0:	2a1303e0 	mov	w0, w19
    14101ca4:	a94153f3 	ldp	x19, x20, [sp, #16]
    14101ca8:	a8c37bfd 	ldp	x29, x30, [sp], #48
    14101cac:	140001d7 	b	14102408 <qspi_boot_enhance_tx_i_a_d_256>

0000000014101cb0 <write_flash_fast_size_data>:
    14101cb0:	a9bd7bfd 	stp	x29, x30, [sp, #-48]!
    14101cb4:	52800045 	mov	w5, #0x2                   	// #2
    14101cb8:	52800007 	mov	w7, #0x0                   	// #0
    14101cbc:	910003fd 	mov	x29, sp
    14101cc0:	52800006 	mov	w6, #0x0                   	// #0
    14101cc4:	528000c4 	mov	w4, #0x6                   	// #6
    14101cc8:	a90153f3 	stp	x19, x20, [sp, #16]
    14101ccc:	2a0003f3 	mov	w19, w0
    14101cd0:	2a0103f4 	mov	w20, w1
    14101cd4:	528003e0 	mov	w0, #0x1f                  	// #31
    14101cd8:	52800021 	mov	w1, #0x1                   	// #1
    14101cdc:	a9025bf5 	stp	x21, x22, [sp, #32]
    14101ce0:	aa0203f5 	mov	x21, x2
    14101ce4:	2a0303f6 	mov	w22, w3
    14101ce8:	2a0503e2 	mov	w2, w5
    14101cec:	2a0503e3 	mov	w3, w5
    14101cf0:	940001ad 	bl	141023a4 <qspi_boot_config_for_flash>
    14101cf4:	2a1603e3 	mov	w3, w22
    14101cf8:	aa1503e2 	mov	x2, x21
    14101cfc:	a9425bf5 	ldp	x21, x22, [sp, #32]
    14101d00:	2a1403e1 	mov	w1, w20
    14101d04:	2a1303e0 	mov	w0, w19
    14101d08:	a94153f3 	ldp	x19, x20, [sp, #16]
    14101d0c:	a8c37bfd 	ldp	x29, x30, [sp], #48
    14101d10:	140001d5 	b	14102464 <qspi_boot_enhance_tx_i_a_d_size>

0000000014101d14 <enable_write>:
    14101d14:	a9be7bfd 	stp	x29, x30, [sp, #-32]!
    14101d18:	528000c0 	mov	w0, #0x6                   	// #6
    14101d1c:	910003fd 	mov	x29, sp
    14101d20:	a90153f3 	stp	x19, x20, [sp, #16]
    14101d24:	97ffffa8 	bl	14101bc4 <flash_write_mode>
    14101d28:	528000a0 	mov	w0, #0x5                   	// #5
    14101d2c:	d0000034 	adrp	x20, 14107000 <plat_rebel_h_psci_pm_ops+0x80>
    14101d30:	97ffff8d 	bl	14101b64 <flash_read_one_register>
    14101d34:	910bc294 	add	x20, x20, #0x2f0
    14101d38:	2a0003f3 	mov	w19, w0
    14101d3c:	12000673 	and	w19, w19, #0x3
    14101d40:	71000a7f 	cmp	w19, #0x2
    14101d44:	54000081 	b.ne	14101d54 <enable_write+0x40>  // b.any
    14101d48:	a94153f3 	ldp	x19, x20, [sp, #16]
    14101d4c:	a8c27bfd 	ldp	x29, x30, [sp], #32
    14101d50:	d65f03c0 	ret
    14101d54:	528000a0 	mov	w0, #0x5                   	// #5
    14101d58:	97ffff83 	bl	14101b64 <flash_read_one_register>
    14101d5c:	2a0003f3 	mov	w19, w0
    14101d60:	2a0003e1 	mov	w1, w0
    14101d64:	aa1403e0 	mov	x0, x20
    14101d68:	9400142d 	bl	14106e1c <printf>
    14101d6c:	17fffff4 	b	14101d3c <enable_write+0x28>

0000000014101d70 <erase_flash>:
    14101d70:	a9bb7bfd 	stp	x29, x30, [sp, #-80]!
    14101d74:	910003fd 	mov	x29, sp
    14101d78:	a9025bf5 	stp	x21, x22, [sp, #32]
    14101d7c:	2a0003f6 	mov	w22, w0
    14101d80:	b0000060 	adrp	x0, 1410e000 <__RELA_END__+0x3f80>
    14101d84:	a90153f3 	stp	x19, x20, [sp, #16]
    14101d88:	2a0103f4 	mov	w20, w1
    14101d8c:	b9470000 	ldr	w0, [x0, #1792]
    14101d90:	a90363f7 	stp	x23, x24, [sp, #48]
    14101d94:	f90023f9 	str	x25, [sp, #64]
    14101d98:	7100081f 	cmp	w0, #0x2
    14101d9c:	54000100 	b.eq	14101dbc <erase_flash+0x4c>  // b.none
    14101da0:	97ffff49 	bl	14101ac4 <flash_spi_set_quad_mode>
    14101da4:	2a0003e1 	mov	w1, w0
    14101da8:	340000a0 	cbz	w0, 14101dbc <erase_flash+0x4c>
    14101dac:	d0000020 	adrp	x0, 14107000 <plat_rebel_h_psci_pm_ops+0x80>
    14101db0:	910c9000 	add	x0, x0, #0x324
    14101db4:	9400141a 	bl	14106e1c <printf>
    14101db8:	14000000 	b	14101db8 <erase_flash+0x48>
    14101dbc:	12bfe000 	mov	w0, #0xffffff              	// #16777215
    14101dc0:	6b00029f 	cmp	w20, w0
    14101dc4:	540001e9 	b.ls	14101e00 <erase_flash+0x90>  // b.plast
    14101dc8:	97ffffd3 	bl	14101d14 <enable_write>
    14101dcc:	d0000020 	adrp	x0, 14107000 <plat_rebel_h_psci_pm_ops+0x80>
    14101dd0:	910d2000 	add	x0, x0, #0x348
    14101dd4:	94001412 	bl	14106e1c <printf>
    14101dd8:	528018e0 	mov	w0, #0xc7                  	// #199
    14101ddc:	97ffff7a 	bl	14101bc4 <flash_write_mode>
    14101de0:	97ffff72 	bl	14101ba8 <flash_check_ready>
    14101de4:	a94153f3 	ldp	x19, x20, [sp, #16]
    14101de8:	52800000 	mov	w0, #0x0                   	// #0
    14101dec:	a9425bf5 	ldp	x21, x22, [sp, #32]
    14101df0:	a94363f7 	ldp	x23, x24, [sp, #48]
    14101df4:	f94023f9 	ldr	x25, [sp, #64]
    14101df8:	a8c57bfd 	ldp	x29, x30, [sp], #80
    14101dfc:	d65f03c0 	ret
    14101e00:	d0000037 	adrp	x23, 14107000 <plat_rebel_h_psci_pm_ops+0x80>
    14101e04:	d34c3a98 	ubfx	x24, x20, #12, #3
    14101e08:	53107e99 	lsr	w25, w20, #16
    14101e0c:	910d56f7 	add	x23, x23, #0x355
    14101e10:	52800015 	mov	w21, #0x0                   	// #0
    14101e14:	0b1542d3 	add	w19, w22, w21, lsl #16
    14101e18:	6b15033f 	cmp	w25, w21
    14101e1c:	540003c1 	b.ne	14101e94 <erase_flash+0x124>  // b.any
    14101e20:	36780194 	tbz	w20, #15, 14101e50 <erase_flash+0xe0>
    14101e24:	2a1303e2 	mov	w2, w19
    14101e28:	52800001 	mov	w1, #0x0                   	// #0
    14101e2c:	d0000020 	adrp	x0, 14107000 <plat_rebel_h_psci_pm_ops+0x80>
    14101e30:	910dd000 	add	x0, x0, #0x374
    14101e34:	940013fa 	bl	14106e1c <printf>
    14101e38:	97ffffb7 	bl	14101d14 <enable_write>
    14101e3c:	2a1303e1 	mov	w1, w19
    14101e40:	52800a40 	mov	w0, #0x52                  	// #82
    14101e44:	11402273 	add	w19, w19, #0x8, lsl #12
    14101e48:	97ffff70 	bl	14101c08 <flash_write_mode_i_a>
    14101e4c:	97ffff57 	bl	14101ba8 <flash_check_ready>
    14101e50:	d0000035 	adrp	x21, 14107000 <plat_rebel_h_psci_pm_ops+0x80>
    14101e54:	910e4eb5 	add	x21, x21, #0x393
    14101e58:	52800014 	mov	w20, #0x0                   	// #0
    14101e5c:	0b143276 	add	w22, w19, w20, lsl #12
    14101e60:	6b18029f 	cmp	w20, w24
    14101e64:	54fffbe0 	b.eq	14101de0 <erase_flash+0x70>  // b.none
    14101e68:	2a1603e2 	mov	w2, w22
    14101e6c:	2a1403e1 	mov	w1, w20
    14101e70:	aa1503e0 	mov	x0, x21
    14101e74:	940013ea 	bl	14106e1c <printf>
    14101e78:	11000694 	add	w20, w20, #0x1
    14101e7c:	97ffffa6 	bl	14101d14 <enable_write>
    14101e80:	2a1603e1 	mov	w1, w22
    14101e84:	52800400 	mov	w0, #0x20                  	// #32
    14101e88:	97ffff60 	bl	14101c08 <flash_write_mode_i_a>
    14101e8c:	97ffff47 	bl	14101ba8 <flash_check_ready>
    14101e90:	17fffff3 	b	14101e5c <erase_flash+0xec>
    14101e94:	2a1303e2 	mov	w2, w19
    14101e98:	2a1503e1 	mov	w1, w21
    14101e9c:	aa1703e0 	mov	x0, x23
    14101ea0:	940013df 	bl	14106e1c <printf>
    14101ea4:	110006b5 	add	w21, w21, #0x1
    14101ea8:	97ffff9b 	bl	14101d14 <enable_write>
    14101eac:	2a1303e1 	mov	w1, w19
    14101eb0:	52801b00 	mov	w0, #0xd8                  	// #216
    14101eb4:	97ffff55 	bl	14101c08 <flash_write_mode_i_a>
    14101eb8:	97ffff3c 	bl	14101ba8 <flash_check_ready>
    14101ebc:	17ffffd6 	b	14101e14 <erase_flash+0xa4>

0000000014101ec0 <read_flash>:
    14101ec0:	a9bd7bfd 	stp	x29, x30, [sp, #-48]!
    14101ec4:	910003fd 	mov	x29, sp
    14101ec8:	a90153f3 	stp	x19, x20, [sp, #16]
    14101ecc:	53027c54 	lsr	w20, w2, #2
    14101ed0:	2a0003f3 	mov	w19, w0
    14101ed4:	52801ea0 	mov	w0, #0xf5                  	// #245
    14101ed8:	f90013f5 	str	x21, [sp, #32]
    14101edc:	aa0103f5 	mov	x21, x1
    14101ee0:	97ffff39 	bl	14101bc4 <flash_write_mode>
    14101ee4:	b0000060 	adrp	x0, 1410e000 <__RELA_END__+0x3f80>
    14101ee8:	b907001f 	str	wzr, [x0, #1792]
    14101eec:	9400006e 	bl	141020a4 <qspi_boot_config>
    14101ef0:	b26117e0 	mov	x0, #0x1f80000000          	// #135291469824
    14101ef4:	d2800002 	mov	x2, #0x0                   	// #0
    14101ef8:	8b334000 	add	x0, x0, w19, uxtw
    14101efc:	eb02029f 	cmp	x20, x2
    14101f00:	540000c1 	b.ne	14101f18 <read_flash+0x58>  // b.any
    14101f04:	a94153f3 	ldp	x19, x20, [sp, #16]
    14101f08:	52800000 	mov	w0, #0x0                   	// #0
    14101f0c:	f94013f5 	ldr	x21, [sp, #32]
    14101f10:	a8c37bfd 	ldp	x29, x30, [sp], #48
    14101f14:	d65f03c0 	ret
    14101f18:	b8404401 	ldr	w1, [x0], #4
    14101f1c:	b8227aa1 	str	w1, [x21, x2, lsl #2]
    14101f20:	91000442 	add	x2, x2, #0x1
    14101f24:	17fffff6 	b	14101efc <read_flash+0x3c>

0000000014101f28 <write_flash>:
    14101f28:	a9bc7bfd 	stp	x29, x30, [sp, #-64]!
    14101f2c:	910003fd 	mov	x29, sp
    14101f30:	a90153f3 	stp	x19, x20, [sp, #16]
    14101f34:	2a0003f3 	mov	w19, w0
    14101f38:	b0000060 	adrp	x0, 1410e000 <__RELA_END__+0x3f80>
    14101f3c:	a9025bf5 	stp	x21, x22, [sp, #32]
    14101f40:	aa0103f4 	mov	x20, x1
    14101f44:	b9470000 	ldr	w0, [x0, #1792]
    14101f48:	a90363f7 	stp	x23, x24, [sp, #48]
    14101f4c:	2a0203f6 	mov	w22, w2
    14101f50:	53087c55 	lsr	w21, w2, #8
    14101f54:	12001c57 	and	w23, w2, #0xff
    14101f58:	7100081f 	cmp	w0, #0x2
    14101f5c:	540000e0 	b.eq	14101f78 <write_flash+0x50>  // b.none
    14101f60:	97fffed9 	bl	14101ac4 <flash_spi_set_quad_mode>
    14101f64:	340000a0 	cbz	w0, 14101f78 <write_flash+0x50>
    14101f68:	d0000020 	adrp	x0, 14107000 <plat_rebel_h_psci_pm_ops+0x80>
    14101f6c:	910ec400 	add	x0, x0, #0x3b1
    14101f70:	940013ab 	bl	14106e1c <printf>
    14101f74:	14000000 	b	14101f74 <write_flash+0x4c>
    14101f78:	2a1603e1 	mov	w1, w22
    14101f7c:	0b152278 	add	w24, w19, w21, lsl #8
    14101f80:	aa1403f6 	mov	x22, x20
    14101f84:	2a1703e3 	mov	w3, w23
    14101f88:	2a1503e2 	mov	w2, w21
    14101f8c:	d0000020 	adrp	x0, 14107000 <plat_rebel_h_psci_pm_ops+0x80>
    14101f90:	910f3400 	add	x0, x0, #0x3cd
    14101f94:	940013a2 	bl	14106e1c <printf>
    14101f98:	6b18027f 	cmp	w19, w24
    14101f9c:	540002c1 	b.ne	14101ff4 <write_flash+0xcc>  // b.any
    14101fa0:	34000137 	cbz	w23, 14101fc4 <write_flash+0x9c>
    14101fa4:	97ffff5c 	bl	14101d14 <enable_write>
    14101fa8:	53185ea2 	lsl	w2, w21, #8
    14101fac:	2a1703e3 	mov	w3, w23
    14101fb0:	8b020282 	add	x2, x20, x2
    14101fb4:	2a1303e1 	mov	w1, w19
    14101fb8:	52800640 	mov	w0, #0x32                  	// #50
    14101fbc:	97ffff3d 	bl	14101cb0 <write_flash_fast_size_data>
    14101fc0:	97fffefa 	bl	14101ba8 <flash_check_ready>
    14101fc4:	aa1403e1 	mov	x1, x20
    14101fc8:	d0000020 	adrp	x0, 14107000 <plat_rebel_h_psci_pm_ops+0x80>
    14101fcc:	910fe800 	add	x0, x0, #0x3fa
    14101fd0:	94001393 	bl	14106e1c <printf>
    14101fd4:	97fffef5 	bl	14101ba8 <flash_check_ready>
    14101fd8:	94000033 	bl	141020a4 <qspi_boot_config>
    14101fdc:	a94153f3 	ldp	x19, x20, [sp, #16]
    14101fe0:	52800000 	mov	w0, #0x0                   	// #0
    14101fe4:	a9425bf5 	ldp	x21, x22, [sp, #32]
    14101fe8:	a94363f7 	ldp	x23, x24, [sp, #48]
    14101fec:	a8c47bfd 	ldp	x29, x30, [sp], #64
    14101ff0:	d65f03c0 	ret
    14101ff4:	97ffff48 	bl	14101d14 <enable_write>
    14101ff8:	aa1603e2 	mov	x2, x22
    14101ffc:	2a1303e1 	mov	w1, w19
    14102000:	52800640 	mov	w0, #0x32                  	// #50
    14102004:	11040273 	add	w19, w19, #0x100
    14102008:	97ffff13 	bl	14101c54 <write_flash_fast_256_data>
    1410200c:	910402d6 	add	x22, x22, #0x100
    14102010:	97fffee6 	bl	14101ba8 <flash_check_ready>
    14102014:	17ffffe1 	b	14101f98 <write_flash+0x70>

0000000014102018 <qspi_boot_wait_busy_state>:
    14102018:	d2a00a02 	mov	x2, #0x500000              	// #5242880
    1410201c:	5284e240 	mov	w0, #0x2712                	// #10002
    14102020:	f2c003c2 	movk	x2, #0x1e, lsl #32
    14102024:	b9402841 	ldr	w1, [x2, #40]
    14102028:	37000061 	tbnz	w1, #0, 14102034 <qspi_boot_wait_busy_state+0x1c>
    1410202c:	71000400 	subs	w0, w0, #0x1
    14102030:	54ffffa1 	b.ne	14102024 <qspi_boot_wait_busy_state+0xc>  // b.any
    14102034:	d65f03c0 	ret

0000000014102038 <qspi_boot_wait_idle>:
    14102038:	d2a00a01 	mov	x1, #0x500000              	// #5242880
    1410203c:	f2c003c1 	movk	x1, #0x1e, lsl #32
    14102040:	b9402820 	ldr	w0, [x1, #40]
    14102044:	3707ffe0 	tbnz	w0, #0, 14102040 <qspi_boot_wait_idle+0x8>
    14102048:	d65f03c0 	ret

000000001410204c <qspi_boot_ser_enable>:
    1410204c:	a9bf7bfd 	stp	x29, x30, [sp, #-16]!
    14102050:	910003fd 	mov	x29, sp
    14102054:	97fffff9 	bl	14102038 <qspi_boot_wait_idle>
    14102058:	d2a00a01 	mov	x1, #0x500000              	// #5242880
    1410205c:	f2c003c1 	movk	x1, #0x1e, lsl #32
    14102060:	b9401020 	ldr	w0, [x1, #16]
    14102064:	32000000 	orr	w0, w0, #0x1
    14102068:	b9001020 	str	w0, [x1, #16]
    1410206c:	a8c17bfd 	ldp	x29, x30, [sp], #16
    14102070:	d65f03c0 	ret

0000000014102074 <qspi_boot_ser_disable>:
    14102074:	d2a00a01 	mov	x1, #0x500000              	// #5242880
    14102078:	f2c003c1 	movk	x1, #0x1e, lsl #32
    1410207c:	b9401020 	ldr	w0, [x1, #16]
    14102080:	121f7800 	and	w0, w0, #0xfffffffe
    14102084:	b9001020 	str	w0, [x1, #16]
    14102088:	d65f03c0 	ret

000000001410208c <qspi_boot_enable>:
    1410208c:	d2a00a01 	mov	x1, #0x500000              	// #5242880
    14102090:	f2c003c1 	movk	x1, #0x1e, lsl #32
    14102094:	b9400822 	ldr	w2, [x1, #8]
    14102098:	33000002 	bfxil	w2, w0, #0, #1
    1410209c:	b9000822 	str	w2, [x1, #8]
    141020a0:	d65f03c0 	ret

00000000141020a4 <qspi_boot_config>:
    141020a4:	d2a00a00 	mov	x0, #0x500000              	// #5242880
    141020a8:	52800182 	mov	w2, #0xc                   	// #12
    141020ac:	f2c003c0 	movk	x0, #0x1e, lsl #32
    141020b0:	52800023 	mov	w3, #0x1                   	// #1
    141020b4:	b9400801 	ldr	w1, [x0, #8]
    141020b8:	121f7821 	and	w1, w1, #0xfffffffe
    141020bc:	b9000801 	str	w1, [x0, #8]
    141020c0:	b9401401 	ldr	w1, [x0, #20]
    141020c4:	331f3841 	bfi	w1, w2, #1, #15
    141020c8:	b9001401 	str	w1, [x0, #20]
    141020cc:	52801ce2 	mov	w2, #0xe7                  	// #231
    141020d0:	b9410001 	ldr	w1, [x0, #256]
    141020d4:	12103c21 	and	w1, w1, #0xffff0000
    141020d8:	2a020021 	orr	w1, w1, w2
    141020dc:	b9010001 	str	w1, [x0, #256]
    141020e0:	b9410401 	ldr	w1, [x0, #260]
    141020e4:	12103c21 	and	w1, w1, #0xffff0000
    141020e8:	2a020021 	orr	w1, w1, w2
    141020ec:	b9010401 	str	w1, [x0, #260]
    141020f0:	52800041 	mov	w1, #0x2                   	// #2
    141020f4:	b9410802 	ldr	w2, [x0, #264]
    141020f8:	33000422 	bfxil	w2, w1, #0, #2
    141020fc:	b9010802 	str	w2, [x0, #264]
    14102100:	b9410802 	ldr	w2, [x0, #264]
    14102104:	331e0462 	bfi	w2, w3, #2, #2
    14102108:	b9010802 	str	w2, [x0, #264]
    1410210c:	528000c3 	mov	w3, #0x6                   	// #6
    14102110:	b9410802 	ldr	w2, [x0, #264]
    14102114:	331c0c62 	bfi	w2, w3, #4, #4
    14102118:	b9010802 	str	w2, [x0, #264]
    1410211c:	52800083 	mov	w3, #0x4                   	// #4
    14102120:	b9410802 	ldr	w2, [x0, #264]
    14102124:	33170422 	bfi	w2, w1, #9, #2
    14102128:	b9010802 	str	w2, [x0, #264]
    1410212c:	b9410802 	ldr	w2, [x0, #264]
    14102130:	320e0042 	orr	w2, w2, #0x40000
    14102134:	b9010802 	str	w2, [x0, #264]
    14102138:	b9410802 	ldr	w2, [x0, #264]
    1410213c:	120c7842 	and	w2, w2, #0xfff7ffff
    14102140:	b9010802 	str	w2, [x0, #264]
    14102144:	b9410802 	ldr	w2, [x0, #264]
    14102148:	320a0042 	orr	w2, w2, #0x400000
    1410214c:	b9010802 	str	w2, [x0, #264]
    14102150:	b9410802 	ldr	w2, [x0, #264]
    14102154:	12087842 	and	w2, w2, #0xff7fffff
    14102158:	b9010802 	str	w2, [x0, #264]
    1410215c:	b9410802 	ldr	w2, [x0, #264]
    14102160:	33131062 	bfi	w2, w3, #13, #5
    14102164:	b9010802 	str	w2, [x0, #264]
    14102168:	b9410802 	ldr	w2, [x0, #264]
    1410216c:	33060422 	bfi	w2, w1, #26, #2
    14102170:	b9010802 	str	w2, [x0, #264]
    14102174:	b9400002 	ldr	w2, [x0]
    14102178:	330a0422 	bfi	w2, w1, #22, #2
    1410217c:	b9000002 	str	w2, [x0]
    14102180:	b9400001 	ldr	w1, [x0]
    14102184:	32001021 	orr	w1, w1, #0x1f
    14102188:	b9000001 	str	w1, [x0]
    1410218c:	b9400801 	ldr	w1, [x0, #8]
    14102190:	32000021 	orr	w1, w1, #0x1
    14102194:	b9000801 	str	w1, [x0, #8]
    14102198:	d65f03c0 	ret

000000001410219c <qspi_boot_std_tx_d_multiple>:
    1410219c:	a9bf7bfd 	stp	x29, x30, [sp, #-16]!
    141021a0:	aa0003e4 	mov	x4, x0
    141021a4:	2a0103e3 	mov	w3, w1
    141021a8:	910003fd 	mov	x29, sp
    141021ac:	97ffffa8 	bl	1410204c <qspi_boot_ser_enable>
    141021b0:	d2800002 	mov	x2, #0x0                   	// #0
    141021b4:	d2a00a00 	mov	x0, #0x500000              	// #5242880
    141021b8:	f2c003c0 	movk	x0, #0x1e, lsl #32
    141021bc:	6b02007f 	cmp	w3, w2
    141021c0:	540000a8 	b.hi	141021d4 <qspi_boot_std_tx_d_multiple+0x38>  // b.pmore
    141021c4:	97ffff95 	bl	14102018 <qspi_boot_wait_busy_state>
    141021c8:	97ffff9c 	bl	14102038 <qspi_boot_wait_idle>
    141021cc:	a8c17bfd 	ldp	x29, x30, [sp], #16
    141021d0:	17ffffa9 	b	14102074 <qspi_boot_ser_disable>
    141021d4:	b8627881 	ldr	w1, [x4, x2, lsl #2]
    141021d8:	91000442 	add	x2, x2, #0x1
    141021dc:	b9006001 	str	w1, [x0, #96]
    141021e0:	17fffff7 	b	141021bc <qspi_boot_std_tx_d_multiple+0x20>

00000000141021e4 <qspi_boot_enhance_rx_i_d_once>:
    141021e4:	d2a00a02 	mov	x2, #0x500000              	// #5242880
    141021e8:	a9bf7bfd 	stp	x29, x30, [sp, #-16]!
    141021ec:	f2c003c2 	movk	x2, #0x1e, lsl #32
    141021f0:	910003fd 	mov	x29, sp
    141021f4:	2a0003e3 	mov	w3, w0
    141021f8:	97ffff95 	bl	1410204c <qspi_boot_ser_enable>
    141021fc:	b9006043 	str	w3, [x2, #96]
    14102200:	97ffff8e 	bl	14102038 <qspi_boot_wait_idle>
    14102204:	b9402440 	ldr	w0, [x2, #36]
    14102208:	12001400 	and	w0, w0, #0x3f
    1410220c:	7100041f 	cmp	w0, #0x1
    14102210:	54ffffa1 	b.ne	14102204 <qspi_boot_enhance_rx_i_d_once+0x20>  // b.any
    14102214:	b9406042 	ldr	w2, [x2, #96]
    14102218:	97ffff97 	bl	14102074 <qspi_boot_ser_disable>
    1410221c:	a8c17bfd 	ldp	x29, x30, [sp], #16
    14102220:	2a0203e0 	mov	w0, w2
    14102224:	d65f03c0 	ret

0000000014102228 <qspi_boot_std_tx_rx_d_multiple>:
    14102228:	a9bf7bfd 	stp	x29, x30, [sp, #-16]!
    1410222c:	aa0003e5 	mov	x5, x0
    14102230:	aa0103e6 	mov	x6, x1
    14102234:	910003fd 	mov	x29, sp
    14102238:	97ffff85 	bl	1410204c <qspi_boot_ser_enable>
    1410223c:	d2800004 	mov	x4, #0x0                   	// #0
    14102240:	d2a00a00 	mov	x0, #0x500000              	// #5242880
    14102244:	f2c003c0 	movk	x0, #0x1e, lsl #32
    14102248:	6b04007f 	cmp	w3, w4
    1410224c:	54000328 	b.hi	141022b0 <qspi_boot_std_tx_rx_d_multiple+0x88>  // b.pmore
    14102250:	d2a00a01 	mov	x1, #0x500000              	// #5242880
    14102254:	52800000 	mov	w0, #0x0                   	// #0
    14102258:	f2c003c1 	movk	x1, #0x1e, lsl #32
    1410225c:	6b02001f 	cmp	w0, w2
    14102260:	54000301 	b.ne	141022c0 <qspi_boot_std_tx_rx_d_multiple+0x98>  // b.any
    14102264:	97ffff75 	bl	14102038 <qspi_boot_wait_idle>
    14102268:	d2a00a04 	mov	x4, #0x500000              	// #5242880
    1410226c:	0b020060 	add	w0, w3, w2
    14102270:	52800001 	mov	w1, #0x0                   	// #0
    14102274:	f2c003c4 	movk	x4, #0x1e, lsl #32
    14102278:	6b01001f 	cmp	w0, w1
    1410227c:	54000288 	b.hi	141022cc <qspi_boot_std_tx_rx_d_multiple+0xa4>  // b.pmore
    14102280:	d2a00a01 	mov	x1, #0x500000              	// #5242880
    14102284:	52800000 	mov	w0, #0x0                   	// #0
    14102288:	f2c003c1 	movk	x1, #0x1e, lsl #32
    1410228c:	6b03001f 	cmp	w0, w3
    14102290:	54000241 	b.ne	141022d8 <qspi_boot_std_tx_rx_d_multiple+0xb0>  // b.any
    14102294:	d2a00a00 	mov	x0, #0x500000              	// #5242880
    14102298:	d2800001 	mov	x1, #0x0                   	// #0
    1410229c:	f2c003c0 	movk	x0, #0x1e, lsl #32
    141022a0:	6b01005f 	cmp	w2, w1
    141022a4:	54000208 	b.hi	141022e4 <qspi_boot_std_tx_rx_d_multiple+0xbc>  // b.pmore
    141022a8:	a8c17bfd 	ldp	x29, x30, [sp], #16
    141022ac:	17ffff72 	b	14102074 <qspi_boot_ser_disable>
    141022b0:	b86478c1 	ldr	w1, [x6, x4, lsl #2]
    141022b4:	91000484 	add	x4, x4, #0x1
    141022b8:	b9006001 	str	w1, [x0, #96]
    141022bc:	17ffffe3 	b	14102248 <qspi_boot_std_tx_rx_d_multiple+0x20>
    141022c0:	11000400 	add	w0, w0, #0x1
    141022c4:	b900603f 	str	wzr, [x1, #96]
    141022c8:	17ffffe5 	b	1410225c <qspi_boot_std_tx_rx_d_multiple+0x34>
    141022cc:	b9402481 	ldr	w1, [x4, #36]
    141022d0:	12001421 	and	w1, w1, #0x3f
    141022d4:	17ffffe9 	b	14102278 <qspi_boot_std_tx_rx_d_multiple+0x50>
    141022d8:	b9406024 	ldr	w4, [x1, #96]
    141022dc:	11000400 	add	w0, w0, #0x1
    141022e0:	17ffffeb 	b	1410228c <qspi_boot_std_tx_rx_d_multiple+0x64>
    141022e4:	b9406003 	ldr	w3, [x0, #96]
    141022e8:	b82178a3 	str	w3, [x5, x1, lsl #2]
    141022ec:	91000421 	add	x1, x1, #0x1
    141022f0:	17ffffec 	b	141022a0 <qspi_boot_std_tx_rx_d_multiple+0x78>

00000000141022f4 <qspi_boot_config_controller>:
    141022f4:	d2a00a08 	mov	x8, #0x500000              	// #5242880
    141022f8:	f2c003c8 	movk	x8, #0x1e, lsl #32
    141022fc:	b9400909 	ldr	w9, [x8, #8]
    14102300:	121f7929 	and	w9, w9, #0xfffffffe
    14102304:	b9000909 	str	w9, [x8, #8]
    14102308:	b9400109 	ldr	w9, [x8]
    1410230c:	33001009 	bfxil	w9, w0, #0, #5
    14102310:	b9000109 	str	w9, [x8]
    14102314:	b9400100 	ldr	w0, [x8]
    14102318:	33160420 	bfi	w0, w1, #10, #2
    1410231c:	b9000100 	str	w0, [x8]
    14102320:	52800641 	mov	w1, #0x32                  	// #50
    14102324:	b9400100 	ldr	w0, [x8]
    14102328:	330a0440 	bfi	w0, w2, #22, #2
    1410232c:	b9000100 	str	w0, [x8]
    14102330:	b940f500 	ldr	w0, [x8, #244]
    14102334:	33180460 	bfi	w0, w3, #8, #2
    14102338:	b900f500 	str	w0, [x8, #244]
    1410233c:	b940f500 	ldr	w0, [x8, #244]
    14102340:	331e0c80 	bfi	w0, w4, #2, #4
    14102344:	b900f500 	str	w0, [x8, #244]
    14102348:	b940f500 	ldr	w0, [x8, #244]
    1410234c:	330004a0 	bfxil	w0, w5, #0, #2
    14102350:	b900f500 	str	w0, [x8, #244]
    14102354:	b940f500 	ldr	w0, [x8, #244]
    14102358:	331510c0 	bfi	w0, w6, #11, #5
    1410235c:	b900f500 	str	w0, [x8, #244]
    14102360:	b9401900 	ldr	w0, [x8, #24]
    14102364:	121b6800 	and	w0, w0, #0xffffffe0
    14102368:	b9001900 	str	w0, [x8, #24]
    1410236c:	b9401500 	ldr	w0, [x8, #20]
    14102370:	331f3820 	bfi	w0, w1, #1, #15
    14102374:	b9001500 	str	w0, [x8, #20]
    14102378:	b9400500 	ldr	w0, [x8, #4]
    1410237c:	33003ce0 	bfxil	w0, w7, #0, #16
    14102380:	b9000500 	str	w0, [x8, #4]
    14102384:	b9000d1f 	str	wzr, [x8, #12]
    14102388:	b9401d00 	ldr	w0, [x8, #28]
    1410238c:	121b6800 	and	w0, w0, #0xffffffe0
    14102390:	b9001d00 	str	w0, [x8, #28]
    14102394:	b9400900 	ldr	w0, [x8, #8]
    14102398:	32000000 	orr	w0, w0, #0x1
    1410239c:	b9000900 	str	w0, [x8, #8]
    141023a0:	d65f03c0 	ret

00000000141023a4 <qspi_boot_config_for_flash>:
    141023a4:	17ffffd4 	b	141022f4 <qspi_boot_config_controller>

00000000141023a8 <qspi_boot_enhance_tx_i_once>:
    141023a8:	a9bf7bfd 	stp	x29, x30, [sp, #-16]!
    141023ac:	2a0003e2 	mov	w2, w0
    141023b0:	910003fd 	mov	x29, sp
    141023b4:	97ffff26 	bl	1410204c <qspi_boot_ser_enable>
    141023b8:	d2a00a00 	mov	x0, #0x500000              	// #5242880
    141023bc:	f2c003c0 	movk	x0, #0x1e, lsl #32
    141023c0:	b9006002 	str	w2, [x0, #96]
    141023c4:	97ffff15 	bl	14102018 <qspi_boot_wait_busy_state>
    141023c8:	97ffff1c 	bl	14102038 <qspi_boot_wait_idle>
    141023cc:	a8c17bfd 	ldp	x29, x30, [sp], #16
    141023d0:	17ffff29 	b	14102074 <qspi_boot_ser_disable>

00000000141023d4 <qspi_boot_enhance_tx_i_a_once>:
    141023d4:	a9bf7bfd 	stp	x29, x30, [sp, #-16]!
    141023d8:	2a0103e2 	mov	w2, w1
    141023dc:	2a0003e3 	mov	w3, w0
    141023e0:	910003fd 	mov	x29, sp
    141023e4:	97ffff1a 	bl	1410204c <qspi_boot_ser_enable>
    141023e8:	d2a00a00 	mov	x0, #0x500000              	// #5242880
    141023ec:	f2c003c0 	movk	x0, #0x1e, lsl #32
    141023f0:	b9006003 	str	w3, [x0, #96]
    141023f4:	b9006002 	str	w2, [x0, #96]
    141023f8:	97ffff08 	bl	14102018 <qspi_boot_wait_busy_state>
    141023fc:	97ffff0f 	bl	14102038 <qspi_boot_wait_idle>
    14102400:	a8c17bfd 	ldp	x29, x30, [sp], #16
    14102404:	17ffff1c 	b	14102074 <qspi_boot_ser_disable>

0000000014102408 <qspi_boot_enhance_tx_i_a_d_256>:
    14102408:	d2a00a03 	mov	x3, #0x500000              	// #5242880
    1410240c:	a9bf7bfd 	stp	x29, x30, [sp, #-16]!
    14102410:	f2c003c3 	movk	x3, #0x1e, lsl #32
    14102414:	2a0003e5 	mov	w5, w0
    14102418:	910003fd 	mov	x29, sp
    1410241c:	2a0103e4 	mov	w4, w1
    14102420:	97ffff0b 	bl	1410204c <qspi_boot_ser_enable>
    14102424:	b9006065 	str	w5, [x3, #96]
    14102428:	d2800000 	mov	x0, #0x0                   	// #0
    1410242c:	b9006064 	str	w4, [x3, #96]
    14102430:	b8606841 	ldr	w1, [x2, x0]
    14102434:	b9006061 	str	w1, [x3, #96]
    14102438:	b9402061 	ldr	w1, [x3, #32]
    1410243c:	12001421 	and	w1, w1, #0x3f
    14102440:	7100703f 	cmp	w1, #0x1c
    14102444:	54ffffa8 	b.hi	14102438 <qspi_boot_enhance_tx_i_a_d_256+0x30>  // b.pmore
    14102448:	91001000 	add	x0, x0, #0x4
    1410244c:	f104001f 	cmp	x0, #0x100
    14102450:	54ffff01 	b.ne	14102430 <qspi_boot_enhance_tx_i_a_d_256+0x28>  // b.any
    14102454:	97fffef1 	bl	14102018 <qspi_boot_wait_busy_state>
    14102458:	97fffef8 	bl	14102038 <qspi_boot_wait_idle>
    1410245c:	a8c17bfd 	ldp	x29, x30, [sp], #16
    14102460:	17ffff05 	b	14102074 <qspi_boot_ser_disable>

0000000014102464 <qspi_boot_enhance_tx_i_a_d_size>:
    14102464:	d2a00a04 	mov	x4, #0x500000              	// #5242880
    14102468:	a9bf7bfd 	stp	x29, x30, [sp, #-16]!
    1410246c:	f2c003c4 	movk	x4, #0x1e, lsl #32
    14102470:	2a0003e6 	mov	w6, w0
    14102474:	910003fd 	mov	x29, sp
    14102478:	2a0103e5 	mov	w5, w1
    1410247c:	53027c63 	lsr	w3, w3, #2
    14102480:	97fffef3 	bl	1410204c <qspi_boot_ser_enable>
    14102484:	b9006086 	str	w6, [x4, #96]
    14102488:	d2800000 	mov	x0, #0x0                   	// #0
    1410248c:	b9006085 	str	w5, [x4, #96]
    14102490:	6b00007f 	cmp	w3, w0
    14102494:	540000a8 	b.hi	141024a8 <qspi_boot_enhance_tx_i_a_d_size+0x44>  // b.pmore
    14102498:	97fffee0 	bl	14102018 <qspi_boot_wait_busy_state>
    1410249c:	97fffee7 	bl	14102038 <qspi_boot_wait_idle>
    141024a0:	a8c17bfd 	ldp	x29, x30, [sp], #16
    141024a4:	17fffef4 	b	14102074 <qspi_boot_ser_disable>
    141024a8:	b8607841 	ldr	w1, [x2, x0, lsl #2]
    141024ac:	b9006081 	str	w1, [x4, #96]
    141024b0:	b9402081 	ldr	w1, [x4, #32]
    141024b4:	12001421 	and	w1, w1, #0x3f
    141024b8:	7100703f 	cmp	w1, #0x1c
    141024bc:	54ffffa8 	b.hi	141024b0 <qspi_boot_enhance_tx_i_a_d_size+0x4c>  // b.pmore
    141024c0:	91000400 	add	x0, x0, #0x1
    141024c4:	17fffff3 	b	14102490 <qspi_boot_enhance_tx_i_a_d_size+0x2c>

00000000141024c8 <find_erratum_entry>:
    141024c8:	a9be7bfd 	stp	x29, x30, [sp, #-32]!
    141024cc:	910003fd 	mov	x29, sp
    141024d0:	f9000bf3 	str	x19, [sp, #16]
    141024d4:	2a0003f3 	mov	w19, w0
    141024d8:	94000feb 	bl	14106484 <get_cpu_ops_ptr>
    141024dc:	b5000040 	cbnz	x0, 141024e4 <find_erratum_entry+0x1c>
    141024e0:	940010d9 	bl	14106844 <__assert>
    141024e4:	aa0003e1 	mov	x1, x0
    141024e8:	f9401400 	ldr	x0, [x0, #40]
    141024ec:	b4ffffa0 	cbz	x0, 141024e0 <find_erratum_entry+0x18>
    141024f0:	f9401821 	ldr	x1, [x1, #48]
    141024f4:	b4ffff61 	cbz	x1, 141024e0 <find_erratum_entry+0x18>
    141024f8:	d1004021 	sub	x1, x1, #0x10
    141024fc:	eb01001f 	cmp	x0, x1
    14102500:	540000a9 	b.ls	14102514 <find_erratum_entry+0x4c>  // b.plast
    14102504:	d2800000 	mov	x0, #0x0                   	// #0
    14102508:	f9400bf3 	ldr	x19, [sp, #16]
    1410250c:	a8c27bfd 	ldp	x29, x30, [sp], #32
    14102510:	d65f03c0 	ret
    14102514:	39402003 	ldrb	w3, [x0, #8]
    14102518:	39402402 	ldrb	w2, [x0, #9]
    1410251c:	aa022062 	orr	x2, x3, x2, lsl #8
    14102520:	39402803 	ldrb	w3, [x0, #10]
    14102524:	aa034043 	orr	x3, x2, x3, lsl #16
    14102528:	39402c02 	ldrb	w2, [x0, #11]
    1410252c:	aa026062 	orr	x2, x3, x2, lsl #24
    14102530:	6b02027f 	cmp	w19, w2
    14102534:	54fffea0 	b.eq	14102508 <find_erratum_entry+0x40>  // b.none
    14102538:	91004000 	add	x0, x0, #0x10
    1410253c:	17fffff0 	b	141024fc <find_erratum_entry+0x34>

0000000014102540 <check_erratum_applies>:
    14102540:	a9bd7bfd 	stp	x29, x30, [sp, #-48]!
    14102544:	910003fd 	mov	x29, sp
    14102548:	a90153f3 	stp	x19, x20, [sp, #16]
    1410254c:	2a0003f4 	mov	w20, w0
    14102550:	f90013f5 	str	x21, [sp, #32]
    14102554:	2a0103f5 	mov	w21, w1
    14102558:	94000fe7 	bl	141064f4 <cpu_get_rev_var>
    1410255c:	aa0003f3 	mov	x19, x0
    14102560:	2a1503e0 	mov	w0, w21
    14102564:	97ffffd9 	bl	141024c8 <find_erratum_entry>
    14102568:	b40003a0 	cbz	x0, 141025dc <check_erratum_applies+0x9c>
    1410256c:	39403002 	ldrb	w2, [x0, #12]
    14102570:	aa0003e1 	mov	x1, x0
    14102574:	39403400 	ldrb	w0, [x0, #13]
    14102578:	2a002040 	orr	w0, w2, w0, lsl #8
    1410257c:	6b14001f 	cmp	w0, w20
    14102580:	54000040 	b.eq	14102588 <check_erratum_applies+0x48>  // b.none
    14102584:	940010b0 	bl	14106844 <__assert>
    14102588:	39400020 	ldrb	w0, [x1]
    1410258c:	39400422 	ldrb	w2, [x1, #1]
    14102590:	aa022002 	orr	x2, x0, x2, lsl #8
    14102594:	39400820 	ldrb	w0, [x1, #2]
    14102598:	aa004040 	orr	x0, x2, x0, lsl #16
    1410259c:	39400c22 	ldrb	w2, [x1, #3]
    141025a0:	aa026002 	orr	x2, x0, x2, lsl #24
    141025a4:	39401020 	ldrb	w0, [x1, #4]
    141025a8:	aa008040 	orr	x0, x2, x0, lsl #32
    141025ac:	39401422 	ldrb	w2, [x1, #5]
    141025b0:	aa02a002 	orr	x2, x0, x2, lsl #40
    141025b4:	39401820 	ldrb	w0, [x1, #6]
    141025b8:	39401c21 	ldrb	w1, [x1, #7]
    141025bc:	aa00c040 	orr	x0, x2, x0, lsl #48
    141025c0:	aa01e001 	orr	x1, x0, x1, lsl #56
    141025c4:	aa1303e0 	mov	x0, x19
    141025c8:	d63f0020 	blr	x1
    141025cc:	a94153f3 	ldp	x19, x20, [sp, #16]
    141025d0:	f94013f5 	ldr	x21, [sp, #32]
    141025d4:	a8c37bfd 	ldp	x29, x30, [sp], #48
    141025d8:	d65f03c0 	ret
    141025dc:	52800000 	mov	w0, #0x0                   	// #0
    141025e0:	17fffffb 	b	141025cc <check_erratum_applies+0x8c>

00000000141025e4 <generic_errata_report>:
    141025e4:	a9bb7bfd 	stp	x29, x30, [sp, #-80]!
    141025e8:	910003fd 	mov	x29, sp
    141025ec:	a90153f3 	stp	x19, x20, [sp, #16]
    141025f0:	a9025bf5 	stp	x21, x22, [sp, #32]
    141025f4:	b0000035 	adrp	x21, 14107000 <plat_rebel_h_psci_pm_ops+0x80>
    141025f8:	b0000036 	adrp	x22, 14107000 <plat_rebel_h_psci_pm_ops+0x80>
    141025fc:	a90363f7 	stp	x23, x24, [sp, #48]
    14102600:	911086b5 	add	x21, x21, #0x421
    14102604:	9110aad6 	add	x22, x22, #0x42a
    14102608:	f90023f9 	str	x25, [sp, #64]
    1410260c:	94000f9e 	bl	14106484 <get_cpu_ops_ptr>
    14102610:	a942e013 	ldp	x19, x24, [x0, #40]
    14102614:	aa0003f4 	mov	x20, x0
    14102618:	94000fb7 	bl	141064f4 <cpu_get_rev_var>
    1410261c:	aa0003f7 	mov	x23, x0
    14102620:	b0000039 	adrp	x25, 14107000 <plat_rebel_h_psci_pm_ops+0x80>
    14102624:	eb18027f 	cmp	x19, x24
    14102628:	540000e1 	b.ne	14102644 <generic_errata_report+0x60>  // b.any
    1410262c:	a94153f3 	ldp	x19, x20, [sp, #16]
    14102630:	a9425bf5 	ldp	x21, x22, [sp, #32]
    14102634:	a94363f7 	ldp	x23, x24, [sp, #48]
    14102638:	f94023f9 	ldr	x25, [sp, #64]
    1410263c:	a8c57bfd 	ldp	x29, x30, [sp], #80
    14102640:	d65f03c0 	ret
    14102644:	39400260 	ldrb	w0, [x19]
    14102648:	39400661 	ldrb	w1, [x19, #1]
    1410264c:	aa012001 	orr	x1, x0, x1, lsl #8
    14102650:	39400a60 	ldrb	w0, [x19, #2]
    14102654:	aa004020 	orr	x0, x1, x0, lsl #16
    14102658:	39400e61 	ldrb	w1, [x19, #3]
    1410265c:	aa016001 	orr	x1, x0, x1, lsl #24
    14102660:	39401260 	ldrb	w0, [x19, #4]
    14102664:	aa008020 	orr	x0, x1, x0, lsl #32
    14102668:	39401661 	ldrb	w1, [x19, #5]
    1410266c:	aa01a001 	orr	x1, x0, x1, lsl #40
    14102670:	39401a60 	ldrb	w0, [x19, #6]
    14102674:	aa00c020 	orr	x0, x1, x0, lsl #48
    14102678:	39401e61 	ldrb	w1, [x19, #7]
    1410267c:	aa01e001 	orr	x1, x0, x1, lsl #56
    14102680:	aa1703e0 	mov	x0, x23
    14102684:	d63f0020 	blr	x1
    14102688:	39402261 	ldrb	w1, [x19, #8]
    1410268c:	39402662 	ldrb	w2, [x19, #9]
    14102690:	39402e66 	ldrb	w6, [x19, #11]
    14102694:	aa022022 	orr	x2, x1, x2, lsl #8
    14102698:	39402a61 	ldrb	w1, [x19, #10]
    1410269c:	aa014041 	orr	x1, x2, x1, lsl #16
    141026a0:	aa066026 	orr	x6, x1, x6, lsl #24
    141026a4:	b5000046 	cbnz	x6, 141026ac <generic_errata_report+0xc8>
    141026a8:	94001067 	bl	14106844 <__assert>
    141026ac:	f100041f 	cmp	x0, #0x1
    141026b0:	540000a1 	b.ne	141026c4 <generic_errata_report+0xe0>  // b.any
    141026b4:	39403a60 	ldrb	w0, [x19, #14]
    141026b8:	340000a0 	cbz	w0, 141026cc <generic_errata_report+0xe8>
    141026bc:	91004273 	add	x19, x19, #0x10
    141026c0:	17ffffd9 	b	14102624 <generic_errata_report+0x40>
    141026c4:	7100081f 	cmp	w0, #0x2
    141026c8:	54ffffa1 	b.ne	141026bc <generic_errata_report+0xd8>  // b.any
    141026cc:	39403260 	ldrb	w0, [x19, #12]
    141026d0:	39403663 	ldrb	w3, [x19, #13]
    141026d4:	f9401e82 	ldr	x2, [x20, #56]
    141026d8:	2a032003 	orr	w3, w0, w3, lsl #8
    141026dc:	34000103 	cbz	w3, 141026fc <generic_errata_report+0x118>
    141026e0:	aa1503e5 	mov	x5, x21
    141026e4:	2a0603e4 	mov	w4, w6
    141026e8:	aa1603e1 	mov	x1, x22
    141026ec:	b0000020 	adrp	x0, 14107000 <plat_rebel_h_psci_pm_ops+0x80>
    141026f0:	9110bc00 	add	x0, x0, #0x42f
    141026f4:	97fff95d 	bl	14100c68 <tf_log>
    141026f8:	17fffff1 	b	141026bc <generic_errata_report+0xd8>
    141026fc:	aa1503e4 	mov	x4, x21
    14102700:	2a0603e3 	mov	w3, w6
    14102704:	aa1603e1 	mov	x1, x22
    14102708:	91117f20 	add	x0, x25, #0x45f
    1410270c:	97fff957 	bl	14100c68 <tf_log>
    14102710:	17ffffeb 	b	141026bc <generic_errata_report+0xd8>

0000000014102714 <print_errata_status>:
    14102714:	a9bd7bfd 	stp	x29, x30, [sp, #-48]!
    14102718:	90000060 	adrp	x0, 1410e000 <__RELA_END__+0x3f80>
    1410271c:	91200000 	add	x0, x0, #0x800
    14102720:	910003fd 	mov	x29, sp
    14102724:	a90153f3 	stp	x19, x20, [sp, #16]
    14102728:	f90013f5 	str	x21, [sp, #32]
    1410272c:	940001ed 	bl	14102ee0 <per_cpu_cur_compute>
    14102730:	f9400c01 	ldr	x1, [x0, #24]
    14102734:	b5000041 	cbnz	x1, 1410273c <print_errata_status+0x28>
    14102738:	94001043 	bl	14106844 <__assert>
    1410273c:	a9444c35 	ldp	x21, x19, [x1, #64]
    14102740:	b9400260 	ldr	w0, [x19]
    14102744:	350001c0 	cbnz	w0, 1410277c <print_errata_status+0x68>
    14102748:	aa1503e0 	mov	x0, x21
    1410274c:	94000fdc 	bl	141066bc <spin_lock>
    14102750:	b9400274 	ldr	w20, [x19]
    14102754:	35000074 	cbnz	w20, 14102760 <print_errata_status+0x4c>
    14102758:	52800020 	mov	w0, #0x1                   	// #1
    1410275c:	b9000260 	str	w0, [x19]
    14102760:	aa1503e0 	mov	x0, x21
    14102764:	94000fde 	bl	141066dc <spin_unlock>
    14102768:	350000b4 	cbnz	w20, 1410277c <print_errata_status+0x68>
    1410276c:	a94153f3 	ldp	x19, x20, [sp, #16]
    14102770:	f94013f5 	ldr	x21, [sp, #32]
    14102774:	a8c37bfd 	ldp	x29, x30, [sp], #48
    14102778:	17ffff9b 	b	141025e4 <generic_errata_report>
    1410277c:	a94153f3 	ldp	x19, x20, [sp, #16]
    14102780:	f94013f5 	ldr	x21, [sp, #32]
    14102784:	a8c37bfd 	ldp	x29, x30, [sp], #48
    14102788:	d65f03c0 	ret

000000001410278c <cm_init>:
    1410278c:	d65f03c0 	ret

0000000014102790 <cm_setup_context>:
    14102790:	a9bd7bfd 	stp	x29, x30, [sp, #-48]!
    14102794:	910003fd 	mov	x29, sp
    14102798:	a90153f3 	stp	x19, x20, [sp, #16]
    1410279c:	f90013f5 	str	x21, [sp, #32]
    141027a0:	b5000040 	cbnz	x0, 141027a8 <cm_setup_context+0x18>
    141027a4:	94001028 	bl	14106844 <__assert>
    141027a8:	aa0103f4 	mov	x20, x1
    141027ac:	aa0003f3 	mov	x19, x0
    141027b0:	d2805001 	mov	x1, #0x280                 	// #640
    141027b4:	94000e81 	bl	141061b8 <zeromem>
    141027b8:	d2804602 	mov	x2, #0x230                 	// #560
    141027bc:	d280c600 	mov	x0, #0x630                 	// #1584
    141027c0:	b9401281 	ldr	w1, [x20, #16]
    141027c4:	f27c003f 	tst	x1, #0x10
    141027c8:	9a820000 	csel	x0, x0, x2, eq	// eq = none
    141027cc:	b9400682 	ldr	w2, [x20, #4]
    141027d0:	36100042 	tbz	w2, #2, 141027d8 <cm_setup_context+0x48>
    141027d4:	b2750000 	orr	x0, x0, #0x800
    141027d8:	f9400a82 	ldr	x2, [x20, #16]
    141027dc:	927e0843 	and	x3, x2, #0x1c
    141027e0:	f100207f 	cmp	x3, #0x8
    141027e4:	54000080 	b.eq	141027f4 <cm_setup_context+0x64>  // b.none
    141027e8:	92401042 	and	x2, x2, #0x1f
    141027ec:	f100685f 	cmp	x2, #0x1a
    141027f0:	54000041 	b.ne	141027f8 <cm_setup_context+0x68>  // b.any
    141027f4:	b2780000 	orr	x0, x0, #0x100
    141027f8:	f9008260 	str	x0, [x19, #256]
    141027fc:	2a0103e1 	mov	w1, w1
    14102800:	f9400680 	ldr	x0, [x20, #8]
    14102804:	a9110261 	stp	x1, x0, [x19, #272]
    14102808:	d2900000 	mov	x0, #0x8000                	// #32768
    1410280c:	f2a20020 	movk	x0, #0x1001, lsl #16
    14102810:	f9009a60 	str	x0, [x19, #304]
    14102814:	aa1303e0 	mov	x0, x19
    14102818:	94000132 	bl	14102ce0 <pmuv3_enable>
    1410281c:	91006281 	add	x1, x20, #0x18
    14102820:	aa1303e0 	mov	x0, x19
    14102824:	d2800802 	mov	x2, #0x40                  	// #64
    14102828:	9400100e 	bl	14106860 <memcpy>
    1410282c:	b9400680 	ldr	w0, [x20, #4]
    14102830:	52800421 	mov	w1, #0x21                  	// #33
    14102834:	6a010000 	ands	w0, w0, w1
    14102838:	54000160 	b.eq	14102864 <cm_setup_context+0xd4>  // b.none
    1410283c:	7100041f 	cmp	w0, #0x1
    14102840:	540004a0 	b.eq	141028d4 <cm_setup_context+0x144>  // b.none
    14102844:	b0000020 	adrp	x0, 14107000 <plat_rebel_h_psci_pm_ops+0x80>
    14102848:	91123800 	add	x0, x0, #0x48e
    1410284c:	97fff907 	bl	14100c68 <tf_log>
    14102850:	b0000020 	adrp	x0, 14107000 <plat_rebel_h_psci_pm_ops+0x80>
    14102854:	911f9000 	add	x0, x0, #0x7e4
    14102858:	97fff864 	bl	141009e8 <backtrace>
    1410285c:	97fffc85 	bl	14101a70 <console_flush>
    14102860:	94000d7e 	bl	14105e58 <el3_panic>
    14102864:	f9408275 	ldr	x21, [x19, #256]
    14102868:	d2800000 	mov	x0, #0x0                   	// #0
    1410286c:	97fff819 	bl	141008d0 <get_scr_el3_from_routing_model>
    14102870:	aa0002b5 	orr	x21, x21, x0
    14102874:	b9400680 	ldr	w0, [x20, #4]
    14102878:	b9401282 	ldr	w2, [x20, #16]
    1410287c:	d2810001 	mov	x1, #0x800                 	// #2048
    14102880:	d2810703 	mov	x3, #0x838                 	// #2104
    14102884:	f2a61a01 	movk	x1, #0x30d0, lsl #16
    14102888:	d3689c00 	lsl	x0, x0, #24
    1410288c:	f2a018a3 	movk	x3, #0xc5, lsl #16
    14102890:	92670000 	and	x0, x0, #0x2000000
    14102894:	f27c005f 	tst	x2, #0x10
    14102898:	aa010001 	orr	x1, x0, x1
    1410289c:	aa030000 	orr	x0, x0, x3
    141028a0:	9a811000 	csel	x0, x0, x1, ne	// ne = any
    141028a4:	f9008275 	str	x21, [x19, #256]
    141028a8:	f900ba60 	str	x0, [x19, #368]
    141028ac:	d5381020 	mrs	x0, actlr_el1
    141028b0:	f900da60 	str	x0, [x19, #432]
    141028b4:	d5380500 	mrs	x0, id_aa64dfr0_el1
    141028b8:	f2600c1f 	tst	x0, #0xf00000000
    141028bc:	540004a0 	b.eq	14102950 <cm_setup_context+0x1c0>  // b.none
    141028c0:	f94013f5 	ldr	x21, [sp, #32]
    141028c4:	aa1303e0 	mov	x0, x19
    141028c8:	a94153f3 	ldp	x19, x20, [sp, #16]
    141028cc:	a8c37bfd 	ldp	x29, x30, [sp], #48
    141028d0:	1400011c 	b	14102d40 <spe_disable_secure>
    141028d4:	f9408275 	ldr	x21, [x19, #256]
    141028d8:	d2800020 	mov	x0, #0x1                   	// #1
    141028dc:	97fff7fd 	bl	141008d0 <get_scr_el3_from_routing_model>
    141028e0:	aa0002b5 	orr	x21, x21, x0
    141028e4:	d2800020 	mov	x0, #0x1                   	// #1
    141028e8:	f2a00060 	movk	x0, #0x3, lsl #16
    141028ec:	aa0002b5 	orr	x21, x21, x0
    141028f0:	b9400680 	ldr	w0, [x20, #4]
    141028f4:	d2810001 	mov	x1, #0x800                 	// #2048
    141028f8:	b9401282 	ldr	w2, [x20, #16]
    141028fc:	d2810703 	mov	x3, #0x838                 	// #2104
    14102900:	f2a018a3 	movk	x3, #0xc5, lsl #16
    14102904:	f2a61a01 	movk	x1, #0x30d0, lsl #16
    14102908:	d3689c00 	lsl	x0, x0, #24
    1410290c:	f9008275 	str	x21, [x19, #256]
    14102910:	92670000 	and	x0, x0, #0x2000000
    14102914:	f27c005f 	tst	x2, #0x10
    14102918:	aa010001 	orr	x1, x0, x1
    1410291c:	aa030000 	orr	x0, x0, x3
    14102920:	9a811000 	csel	x0, x0, x1, ne	// ne = any
    14102924:	f900ba60 	str	x0, [x19, #368]
    14102928:	d5381020 	mrs	x0, actlr_el1
    1410292c:	f900da60 	str	x0, [x19, #432]
    14102930:	d5380500 	mrs	x0, id_aa64dfr0_el1
    14102934:	f2600c1f 	tst	x0, #0xf00000000
    14102938:	540000c0 	b.eq	14102950 <cm_setup_context+0x1c0>  // b.none
    1410293c:	f94013f5 	ldr	x21, [sp, #32]
    14102940:	aa1303e0 	mov	x0, x19
    14102944:	a94153f3 	ldp	x19, x20, [sp, #16]
    14102948:	a8c37bfd 	ldp	x29, x30, [sp], #48
    1410294c:	140000f6 	b	14102d24 <spe_enable_ns>
    14102950:	a94153f3 	ldp	x19, x20, [sp, #16]
    14102954:	f94013f5 	ldr	x21, [sp, #32]
    14102958:	a8c37bfd 	ldp	x29, x30, [sp], #48
    1410295c:	d65f03c0 	ret

0000000014102960 <cm_manage_extensions_el3>:
    14102960:	a9bf7bfd 	stp	x29, x30, [sp, #-16]!
    14102964:	d5380400 	mrs	x0, id_aa64pfr0_el1
    14102968:	910003fd 	mov	x29, sp
    1410296c:	f2600c1f 	tst	x0, #0xf00000000
    14102970:	54000040 	b.eq	14102978 <cm_manage_extensions_el3+0x18>  // b.none
    14102974:	940000fa 	bl	14102d5c <sve_init_el3>
    14102978:	d5380400 	mrs	x0, id_aa64pfr0_el1
    1410297c:	d368fc00 	lsr	x0, x0, #40
    14102980:	d5380421 	mrs	x1, id_aa64pfr1_el1
    14102984:	531c0c00 	ubfiz	w0, w0, #4, #4
    14102988:	53104c21 	ubfx	w1, w1, #16, #4
    1410298c:	2a010000 	orr	w0, w0, w1
    14102990:	34000040 	cbz	w0, 14102998 <cm_manage_extensions_el3+0x38>
    14102994:	940000d2 	bl	14102cdc <mpam_init_el3>
    14102998:	a8c17bfd 	ldp	x29, x30, [sp], #16
    1410299c:	140000db 	b	14102d08 <pmuv3_init_el3>

00000000141029a0 <cm_manage_extensions_per_world>:
    141029a0:	a9be7bfd 	stp	x29, x30, [sp, #-32]!
    141029a4:	d2a80200 	mov	x0, #0x40100000            	// #1074790400
    141029a8:	910003fd 	mov	x29, sp
    141029ac:	a90153f3 	stp	x19, x20, [sp, #16]
    141029b0:	90000074 	adrp	x20, 1410e000 <__RELA_END__+0x3f80>
    141029b4:	91046293 	add	x19, x20, #0x118
    141029b8:	f9000a60 	str	x0, [x19, #16]
    141029bc:	d2e80000 	mov	x0, #0x4000000000000000    	// #4611686018427387904
    141029c0:	f9000e60 	str	x0, [x19, #24]
    141029c4:	d5380400 	mrs	x0, id_aa64pfr0_el1
    141029c8:	f2600c1f 	tst	x0, #0xf00000000
    141029cc:	54000080 	b.eq	141029dc <cm_manage_extensions_per_world+0x3c>  // b.none
    141029d0:	90000060 	adrp	x0, 1410e000 <__RELA_END__+0x3f80>
    141029d4:	9104a000 	add	x0, x0, #0x128
    141029d8:	940000e4 	bl	14102d68 <sve_enable_per_world>
    141029dc:	d5380400 	mrs	x0, id_aa64pfr0_el1
    141029e0:	d368fc00 	lsr	x0, x0, #40
    141029e4:	d5380421 	mrs	x1, id_aa64pfr1_el1
    141029e8:	531c0c00 	ubfiz	w0, w0, #4, #4
    141029ec:	53104c21 	ubfx	w1, w1, #16, #4
    141029f0:	2a010000 	orr	w0, w0, w1
    141029f4:	34000080 	cbz	w0, 14102a04 <cm_manage_extensions_per_world+0x64>
    141029f8:	90000060 	adrp	x0, 1410e000 <__RELA_END__+0x3f80>
    141029fc:	9104a000 	add	x0, x0, #0x128
    14102a00:	940000b2 	bl	14102cc8 <mpam_enable_per_world>
    14102a04:	d2a80200 	mov	x0, #0x40100000            	// #1074790400
    14102a08:	f9008e80 	str	x0, [x20, #280]
    14102a0c:	d2e80000 	mov	x0, #0x4000000000000000    	// #4611686018427387904
    14102a10:	f9000660 	str	x0, [x19, #8]
    14102a14:	d5380400 	mrs	x0, id_aa64pfr0_el1
    14102a18:	f2600c1f 	tst	x0, #0xf00000000
    14102a1c:	540000a0 	b.eq	14102a30 <cm_manage_extensions_per_world+0x90>  // b.none
    14102a20:	aa1303e0 	mov	x0, x19
    14102a24:	a94153f3 	ldp	x19, x20, [sp, #16]
    14102a28:	a8c27bfd 	ldp	x29, x30, [sp], #32
    14102a2c:	140000d3 	b	14102d78 <sve_disable_per_world>
    14102a30:	a94153f3 	ldp	x19, x20, [sp, #16]
    14102a34:	a8c27bfd 	ldp	x29, x30, [sp], #32
    14102a38:	d65f03c0 	ret

0000000014102a3c <cm_init_percpu_once_regs>:
    14102a3c:	d65f03c0 	ret

0000000014102a40 <cm_init_my_context>:
    14102a40:	a9be7bfd 	stp	x29, x30, [sp, #-32]!
    14102a44:	52800421 	mov	w1, #0x21                  	// #33
    14102a48:	910003fd 	mov	x29, sp
    14102a4c:	f9000bf3 	str	x19, [sp, #16]
    14102a50:	aa0003f3 	mov	x19, x0
    14102a54:	b9400400 	ldr	w0, [x0, #4]
    14102a58:	0a010000 	and	w0, w0, w1
    14102a5c:	97fff635 	bl	14100330 <cm_get_context>
    14102a60:	aa1303e1 	mov	x1, x19
    14102a64:	f9400bf3 	ldr	x19, [sp, #16]
    14102a68:	a8c27bfd 	ldp	x29, x30, [sp], #32
    14102a6c:	17ffff49 	b	14102790 <cm_setup_context>

0000000014102a70 <cm_el1_sysregs_context_restore>:
    14102a70:	a9be7bfd 	stp	x29, x30, [sp, #-32]!
    14102a74:	2a0003e0 	mov	w0, w0
    14102a78:	910003fd 	mov	x29, sp
    14102a7c:	a90153f3 	stp	x19, x20, [sp, #16]
    14102a80:	aa0003f3 	mov	x19, x0
    14102a84:	97fff62b 	bl	14100330 <cm_get_context>
    14102a88:	b5000040 	cbnz	x0, 14102a90 <cm_el1_sysregs_context_restore+0x20>
    14102a8c:	94000f6e 	bl	14106844 <__assert>
    14102a90:	91058001 	add	x1, x0, #0x160
    14102a94:	f940b000 	ldr	x0, [x0, #352]
    14102a98:	d5184000 	msr	spsr_el1, x0
    14102a9c:	f9400420 	ldr	x0, [x1, #8]
    14102aa0:	d5184020 	msr	elr_el1, x0
    14102aa4:	f9400820 	ldr	x0, [x1, #16]
    14102aa8:	d5181000 	msr	sctlr_el1, x0
    14102aac:	f9400c20 	ldr	x0, [x1, #24]
    14102ab0:	d5182040 	msr	tcr_el1, x0
    14102ab4:	f9401020 	ldr	x0, [x1, #32]
    14102ab8:	d5181040 	msr	cpacr_el1, x0
    14102abc:	f9401420 	ldr	x0, [x1, #40]
    14102ac0:	d51a0000 	msr	csselr_el1, x0
    14102ac4:	f9401820 	ldr	x0, [x1, #48]
    14102ac8:	d51c4100 	msr	sp_el1, x0
    14102acc:	f9401c20 	ldr	x0, [x1, #56]
    14102ad0:	d5185200 	msr	esr_el1, x0
    14102ad4:	f9405820 	ldr	x0, [x1, #176]
    14102ad8:	d5182000 	msr	ttbr0_el1, x0
    14102adc:	f9405c20 	ldr	x0, [x1, #184]
    14102ae0:	d5182020 	msr	ttbr1_el1, x0
    14102ae4:	f9402020 	ldr	x0, [x1, #64]
    14102ae8:	d518a200 	msr	mair_el1, x0
    14102aec:	f9402420 	ldr	x0, [x1, #72]
    14102af0:	d518a300 	msr	amair_el1, x0
    14102af4:	f9402820 	ldr	x0, [x1, #80]
    14102af8:	d5181020 	msr	actlr_el1, x0
    14102afc:	f9402c20 	ldr	x0, [x1, #88]
    14102b00:	d518d080 	msr	tpidr_el1, x0
    14102b04:	f9403020 	ldr	x0, [x1, #96]
    14102b08:	d51bd040 	msr	tpidr_el0, x0
    14102b0c:	f9403420 	ldr	x0, [x1, #104]
    14102b10:	d51bd060 	msr	tpidrro_el0, x0
    14102b14:	f9405420 	ldr	x0, [x1, #168]
    14102b18:	d5187400 	msr	par_el1, x0
    14102b1c:	f9403820 	ldr	x0, [x1, #112]
    14102b20:	d5186000 	msr	far_el1, x0
    14102b24:	f9403c20 	ldr	x0, [x1, #120]
    14102b28:	d5185100 	msr	afsr0_el1, x0
    14102b2c:	f9404020 	ldr	x0, [x1, #128]
    14102b30:	d5185120 	msr	afsr1_el1, x0
    14102b34:	f9404420 	ldr	x0, [x1, #136]
    14102b38:	d518d020 	msr	contextidr_el1, x0
    14102b3c:	f9404820 	ldr	x0, [x1, #144]
    14102b40:	d518c000 	msr	vbar_el1, x0
    14102b44:	f9404c20 	ldr	x0, [x1, #152]
    14102b48:	d5100200 	msr	mdccint_el1, x0
    14102b4c:	f9405020 	ldr	x0, [x1, #160]
    14102b50:	d5100240 	msr	mdscr_el1, x0
    14102b54:	f9406420 	ldr	x0, [x1, #200]
    14102b58:	d51c4320 	msr	spsr_abt, x0
    14102b5c:	f9406820 	ldr	x0, [x1, #208]
    14102b60:	d51c4340 	msr	spsr_und, x0
    14102b64:	f9406c20 	ldr	x0, [x1, #216]
    14102b68:	d51c4300 	msr	spsr_irq, x0
    14102b6c:	f9407020 	ldr	x0, [x1, #224]
    14102b70:	d51c4360 	msr	spsr_fiq, x0
    14102b74:	f9407420 	ldr	x0, [x1, #232]
    14102b78:	d51c3000 	msr	dacr32_el2, x0
    14102b7c:	f9407820 	ldr	x0, [x1, #240]
    14102b80:	d51c5020 	msr	ifsr32_el2, x0
    14102b84:	f9406020 	ldr	x0, [x1, #192]
    14102b88:	d518e100 	msr	cntkctl_el1, x0
    14102b8c:	34000273 	cbz	w19, 14102bd8 <cm_el1_sysregs_context_restore+0x168>
    14102b90:	b0000033 	adrp	x19, 14107000 <plat_rebel_h_psci_pm_ops+0x80>
    14102b94:	b0000034 	adrp	x20, 14107000 <plat_rebel_h_psci_pm_ops+0x80>
    14102b98:	912fe273 	add	x19, x19, #0xbf8
    14102b9c:	912fe294 	add	x20, x20, #0xbf8
    14102ba0:	eb14027f 	cmp	x19, x20
    14102ba4:	54000142 	b.cs	14102bcc <cm_el1_sysregs_context_restore+0x15c>  // b.hs, b.nlast
    14102ba8:	f8408661 	ldr	x1, [x19], #8
    14102bac:	d2800000 	mov	x0, #0x0                   	// #0
    14102bb0:	d63f0020 	blr	x1
    14102bb4:	17fffffb 	b	14102ba0 <cm_el1_sysregs_context_restore+0x130>
    14102bb8:	f8408661 	ldr	x1, [x19], #8
    14102bbc:	d2800000 	mov	x0, #0x0                   	// #0
    14102bc0:	d63f0020 	blr	x1
    14102bc4:	eb14027f 	cmp	x19, x20
    14102bc8:	54ffff83 	b.cc	14102bb8 <cm_el1_sysregs_context_restore+0x148>  // b.lo, b.ul, b.last
    14102bcc:	a94153f3 	ldp	x19, x20, [sp, #16]
    14102bd0:	a8c27bfd 	ldp	x29, x30, [sp], #32
    14102bd4:	d65f03c0 	ret
    14102bd8:	b0000033 	adrp	x19, 14107000 <plat_rebel_h_psci_pm_ops+0x80>
    14102bdc:	b0000034 	adrp	x20, 14107000 <plat_rebel_h_psci_pm_ops+0x80>
    14102be0:	912fe273 	add	x19, x19, #0xbf8
    14102be4:	912fe294 	add	x20, x20, #0xbf8
    14102be8:	17fffff7 	b	14102bc4 <cm_el1_sysregs_context_restore+0x154>

0000000014102bec <cm_set_next_eret_context>:
    14102bec:	a9bf7bfd 	stp	x29, x30, [sp, #-16]!
    14102bf0:	2a0003e0 	mov	w0, w0
    14102bf4:	910003fd 	mov	x29, sp
    14102bf8:	97fff5ce 	bl	14100330 <cm_get_context>
    14102bfc:	b5000040 	cbnz	x0, 14102c04 <cm_set_next_eret_context+0x18>
    14102c00:	94000f11 	bl	14106844 <__assert>
    14102c04:	d5384201 	mrs	x1, spsel
    14102c08:	b5ffffc1 	cbnz	x1, 14102c00 <cm_set_next_eret_context+0x14>
    14102c0c:	d50041bf 	msr	spsel, #0x1
    14102c10:	9100001f 	mov	sp, x0
    14102c14:	d50040bf 	msr	spsel, #0x0
    14102c18:	a8c17bfd 	ldp	x29, x30, [sp], #16
    14102c1c:	d65f03c0 	ret

0000000014102c20 <cm_prepare_el3_exit>:
    14102c20:	a9be7bfd 	stp	x29, x30, [sp, #-32]!
    14102c24:	910003fd 	mov	x29, sp
    14102c28:	f9000bf3 	str	x19, [sp, #16]
    14102c2c:	aa0003f3 	mov	x19, x0
    14102c30:	97fff5c0 	bl	14100330 <cm_get_context>
    14102c34:	b5000040 	cbnz	x0, 14102c3c <cm_prepare_el3_exit+0x1c>
    14102c38:	94000f03 	bl	14106844 <__assert>
    14102c3c:	f100067f 	cmp	x19, #0x1
    14102c40:	54000121 	b.ne	14102c64 <cm_prepare_el3_exit+0x44>  // b.any
    14102c44:	d5380401 	mrs	x1, id_aa64pfr0_el1
    14102c48:	f2780c3f 	tst	x1, #0xf00
    14102c4c:	540000c0 	b.eq	14102c64 <cm_prepare_el3_exit+0x44>  // b.none
    14102c50:	f9408000 	ldr	x0, [x0, #256]
    14102c54:	36400080 	tbz	w0, #8, 14102c64 <cm_prepare_el3_exit+0x44>
    14102c58:	d2810600 	mov	x0, #0x830                 	// #2096
    14102c5c:	f2a618a0 	movk	x0, #0x30c5, lsl #16
    14102c60:	d51c1000 	msr	sctlr_el2, x0
    14102c64:	2a1303e0 	mov	w0, w19
    14102c68:	97ffff82 	bl	14102a70 <cm_el1_sysregs_context_restore>
    14102c6c:	2a1303e0 	mov	w0, w19
    14102c70:	f9400bf3 	ldr	x19, [sp, #16]
    14102c74:	a8c27bfd 	ldp	x29, x30, [sp], #32
    14102c78:	17ffffdd 	b	14102bec <cm_set_next_eret_context>

0000000014102c7c <cm_prepare_el3_exit_ns>:
    14102c7c:	d2800020 	mov	x0, #0x1                   	// #1
    14102c80:	17ffffe8 	b	14102c20 <cm_prepare_el3_exit>

0000000014102c84 <cpu_data_init_cpu_ops>:
    14102c84:	a9be7bfd 	stp	x29, x30, [sp, #-32]!
    14102c88:	910003fd 	mov	x29, sp
    14102c8c:	a90153f3 	stp	x19, x20, [sp, #16]
    14102c90:	90000073 	adrp	x19, 1410e000 <__RELA_END__+0x3f80>
    14102c94:	91200273 	add	x19, x19, #0x800
    14102c98:	aa1303e0 	mov	x0, x19
    14102c9c:	94000091 	bl	14102ee0 <per_cpu_cur_compute>
    14102ca0:	f9400c00 	ldr	x0, [x0, #24]
    14102ca4:	b50000c0 	cbnz	x0, 14102cbc <cpu_data_init_cpu_ops+0x38>
    14102ca8:	94000df7 	bl	14106484 <get_cpu_ops_ptr>
    14102cac:	aa0003f4 	mov	x20, x0
    14102cb0:	aa1303e0 	mov	x0, x19
    14102cb4:	9400008b 	bl	14102ee0 <per_cpu_cur_compute>
    14102cb8:	f9000c14 	str	x20, [x0, #24]
    14102cbc:	a94153f3 	ldp	x19, x20, [sp, #16]
    14102cc0:	a8c27bfd 	ldp	x29, x30, [sp], #32
    14102cc4:	d65f03c0 	ret

0000000014102cc8 <mpam_enable_per_world>:
    14102cc8:	f9400401 	ldr	x1, [x0, #8]
    14102ccc:	9240f421 	and	x1, x1, #0x3fffffffffffffff
    14102cd0:	b2410021 	orr	x1, x1, #0x8000000000000000
    14102cd4:	f9000401 	str	x1, [x0, #8]
    14102cd8:	d65f03c0 	ret

0000000014102cdc <mpam_init_el3>:
    14102cdc:	d65f03c0 	ret

0000000014102ce0 <pmuv3_enable>:
    14102ce0:	f9409801 	ldr	x1, [x0, #304]
    14102ce4:	92800802 	mov	x2, #0xffffffffffffffbf    	// #-65
    14102ce8:	f2bfffa2 	movk	x2, #0xfffd, lsl #16
    14102cec:	f2dffee2 	movk	x2, #0xfff7, lsl #32
    14102cf0:	8a020021 	and	x1, x1, x2
    14102cf4:	320983e2 	mov	w2, #0x800080              	// #8388736
    14102cf8:	f2c00082 	movk	x2, #0x4, lsl #32
    14102cfc:	aa020021 	orr	x1, x1, x2
    14102d00:	f9009801 	str	x1, [x0, #304]
    14102d04:	d65f03c0 	ret

0000000014102d08 <pmuv3_init_el3>:
    14102d08:	d53b9c00 	mrs	x0, pmcr_el0
    14102d0c:	128006e1 	mov	w1, #0xffffffc8            	// #-56
    14102d10:	8a010000 	and	x0, x0, x1
    14102d14:	d28004c1 	mov	x1, #0x26                  	// #38
    14102d18:	aa010000 	orr	x0, x0, x1
    14102d1c:	d51b9c00 	msr	pmcr_el0, x0
    14102d20:	d65f03c0 	ret

0000000014102d24 <spe_enable_ns>:
    14102d24:	f9409801 	ldr	x1, [x0, #304]
    14102d28:	d2860002 	mov	x2, #0x3000                	// #12288
    14102d2c:	f2c08202 	movk	x2, #0x410, lsl #32
    14102d30:	9274f821 	and	x1, x1, #0xfffffffffffff7ff
    14102d34:	aa020021 	orr	x1, x1, x2
    14102d38:	f9009801 	str	x1, [x0, #304]
    14102d3c:	d65f03c0 	ret

0000000014102d40 <spe_disable_secure>:
    14102d40:	f9409801 	ldr	x1, [x0, #304]
    14102d44:	92830002 	mov	x2, #0xffffffffffffe7ff    	// #-6145
    14102d48:	f2df7de2 	movk	x2, #0xfbef, lsl #32
    14102d4c:	8a020021 	and	x1, x1, x2
    14102d50:	b2730021 	orr	x1, x1, #0x2000
    14102d54:	f9009801 	str	x1, [x0, #304]
    14102d58:	d65f03c0 	ret

0000000014102d5c <sve_init_el3>:
    14102d5c:	d28001e0 	mov	x0, #0xf                   	// #15
    14102d60:	d51e1200 	msr	zcr_el3, x0
    14102d64:	d65f03c0 	ret

0000000014102d68 <sve_enable_per_world>:
    14102d68:	f9400001 	ldr	x1, [x0]
    14102d6c:	b2780021 	orr	x1, x1, #0x100
    14102d70:	f9000001 	str	x1, [x0]
    14102d74:	d65f03c0 	ret

0000000014102d78 <sve_disable_per_world>:
    14102d78:	f9400001 	ldr	x1, [x0]
    14102d7c:	12802002 	mov	w2, #0xfffffeff            	// #-257
    14102d80:	8a020021 	and	x1, x1, x2
    14102d84:	f9000001 	str	x1, [x0]
    14102d88:	d65f03c0 	ret

0000000014102d8c <bakery_lock_get>:
    14102d8c:	a9be7bfd 	stp	x29, x30, [sp, #-32]!
    14102d90:	910003fd 	mov	x29, sp
    14102d94:	f9000bf3 	str	x19, [sp, #16]
    14102d98:	aa0003f3 	mov	x19, x0
    14102d9c:	94000e97 	bl	141067f8 <plat_my_core_pos>
    14102da0:	b5000053 	cbnz	x19, 14102da8 <bakery_lock_get+0x1c>
    14102da4:	94000ea8 	bl	14106844 <__assert>
    14102da8:	71000c1f 	cmp	w0, #0x3
    14102dac:	54ffffc8 	b.hi	14102da4 <bakery_lock_get+0x18>  // b.pmore
    14102db0:	d37f7c05 	ubfiz	x5, x0, #1, #32
    14102db4:	78656a61 	ldrh	w1, [x19, x5]
    14102db8:	d3413c21 	ubfx	x1, x1, #1, #15
    14102dbc:	35ffff41 	cbnz	w1, 14102da4 <bakery_lock_get+0x18>
    14102dc0:	52800022 	mov	w2, #0x1                   	// #1
    14102dc4:	52800003 	mov	w3, #0x0                   	// #0
    14102dc8:	78256a62 	strh	w2, [x19, x5]
    14102dcc:	52800002 	mov	w2, #0x0                   	// #0
    14102dd0:	2a0303e4 	mov	w4, w3
    14102dd4:	11000463 	add	w3, w3, #0x1
    14102dd8:	78647a64 	ldrh	w4, [x19, x4, lsl #1]
    14102ddc:	d3413c84 	ubfx	x4, x4, #1, #15
    14102de0:	6b04005f 	cmp	w2, w4
    14102de4:	1a842042 	csel	w2, w2, w4, cs	// cs = hs, nlast
    14102de8:	7100107f 	cmp	w3, #0x4
    14102dec:	54ffff21 	b.ne	14102dd0 <bakery_lock_get+0x44>  // b.any
    14102df0:	11000442 	add	w2, w2, #0x1
    14102df4:	531f3843 	ubfiz	w3, w2, #1, #15
    14102df8:	2a022002 	orr	w2, w0, w2, lsl #8
    14102dfc:	78256a63 	strh	w3, [x19, x5]
    14102e00:	6b01001f 	cmp	w0, w1
    14102e04:	54000200 	b.eq	14102e44 <bakery_lock_get+0xb8>  // b.none
    14102e08:	d37f7c25 	ubfiz	x5, x1, #1, #32
    14102e0c:	78656a64 	ldrh	w4, [x19, x5]
    14102e10:	8b050266 	add	x6, x19, x5
    14102e14:	12003c83 	and	w3, w4, #0xffff
    14102e18:	3707ffa4 	tbnz	w4, #0, 14102e0c <bakery_lock_get+0x80>
    14102e1c:	53017c63 	lsr	w3, w3, #1
    14102e20:	34000123 	cbz	w3, 14102e44 <bakery_lock_get+0xb8>
    14102e24:	2a032024 	orr	w4, w1, w3, lsl #8
    14102e28:	6b04005f 	cmp	w2, w4
    14102e2c:	540000c9 	b.ls	14102e44 <bakery_lock_get+0xb8>  // b.plast
    14102e30:	d503205f 	wfe
    14102e34:	794000c4 	ldrh	w4, [x6]
    14102e38:	d3413c84 	ubfx	x4, x4, #1, #15
    14102e3c:	6b04007f 	cmp	w3, w4
    14102e40:	54ffff80 	b.eq	14102e30 <bakery_lock_get+0xa4>  // b.none
    14102e44:	11000421 	add	w1, w1, #0x1
    14102e48:	7100103f 	cmp	w1, #0x4
    14102e4c:	54fffda1 	b.ne	14102e00 <bakery_lock_get+0x74>  // b.any
    14102e50:	d5033bbf 	dmb	ish
    14102e54:	f9400bf3 	ldr	x19, [sp, #16]
    14102e58:	a8c27bfd 	ldp	x29, x30, [sp], #32
    14102e5c:	d65f03c0 	ret

0000000014102e60 <bakery_lock_release>:
    14102e60:	a9be7bfd 	stp	x29, x30, [sp, #-32]!
    14102e64:	910003fd 	mov	x29, sp
    14102e68:	f9000bf3 	str	x19, [sp, #16]
    14102e6c:	aa0003f3 	mov	x19, x0
    14102e70:	94000e62 	bl	141067f8 <plat_my_core_pos>
    14102e74:	b5000053 	cbnz	x19, 14102e7c <bakery_lock_release+0x1c>
    14102e78:	94000e73 	bl	14106844 <__assert>
    14102e7c:	71000c1f 	cmp	w0, #0x3
    14102e80:	54ffffc8 	b.hi	14102e78 <bakery_lock_release+0x18>  // b.pmore
    14102e84:	d37f7c01 	ubfiz	x1, x0, #1, #32
    14102e88:	78616a60 	ldrh	w0, [x19, x1]
    14102e8c:	f27f381f 	tst	x0, #0xfffe
    14102e90:	54ffff40 	b.eq	14102e78 <bakery_lock_release+0x18>  // b.none
    14102e94:	d5033bbf 	dmb	ish
    14102e98:	78216a7f 	strh	wzr, [x19, x1]
    14102e9c:	d5033f9f 	dsb	sy
    14102ea0:	d503209f 	sev
    14102ea4:	f9400bf3 	ldr	x19, [sp, #16]
    14102ea8:	a8c27bfd 	ldp	x29, x30, [sp], #32
    14102eac:	d65f03c0 	ret

0000000014102eb0 <per_cpu_by_index_compute>:
    14102eb0:	a9be7bfd 	stp	x29, x30, [sp, #-32]!
    14102eb4:	910003fd 	mov	x29, sp
    14102eb8:	f9000bf3 	str	x19, [sp, #16]
    14102ebc:	aa0103f3 	mov	x19, x1
    14102ec0:	94000e09 	bl	141066e4 <per_cpu_base>
    14102ec4:	90000061 	adrp	x1, 1410e000 <__RELA_END__+0x3f80>
    14102ec8:	91200021 	add	x1, x1, #0x800
    14102ecc:	cb010273 	sub	x19, x19, x1
    14102ed0:	8b130000 	add	x0, x0, x19
    14102ed4:	f9400bf3 	ldr	x19, [sp, #16]
    14102ed8:	a8c27bfd 	ldp	x29, x30, [sp], #32
    14102edc:	d65f03c0 	ret

0000000014102ee0 <per_cpu_cur_compute>:
    14102ee0:	d53ed042 	mrs	x2, tpidr_el3
    14102ee4:	90000061 	adrp	x1, 1410e000 <__RELA_END__+0x3f80>
    14102ee8:	91200021 	add	x1, x1, #0x800
    14102eec:	cb010000 	sub	x0, x0, x1
    14102ef0:	8b020000 	add	x0, x0, x2
    14102ef4:	d65f03c0 	ret

0000000014102ef8 <psci_validate_power_state>:
    14102ef8:	52bf9fc2 	mov	w2, #0xfcfe0000            	// #-50462720
    14102efc:	6a02001f 	tst	w0, w2
    14102f00:	54000141 	b.ne	14102f28 <psci_validate_power_state+0x30>  // b.any
    14102f04:	90000062 	adrp	x2, 1410e000 <__RELA_END__+0x3f80>
    14102f08:	f9409c42 	ldr	x2, [x2, #312]
    14102f0c:	f9403042 	ldr	x2, [x2, #96]
    14102f10:	b5000082 	cbnz	x2, 14102f20 <psci_validate_power_state+0x28>
    14102f14:	a9bf7bfd 	stp	x29, x30, [sp, #-16]!
    14102f18:	910003fd 	mov	x29, sp
    14102f1c:	94000e4a 	bl	14106844 <__assert>
    14102f20:	aa0203f0 	mov	x16, x2
    14102f24:	d61f0200 	br	x16
    14102f28:	12800020 	mov	w0, #0xfffffffe            	// #-2
    14102f2c:	d65f03c0 	ret

0000000014102f30 <psci_query_sys_suspend_pwrstate>:
    14102f30:	90000061 	adrp	x1, 1410e000 <__RELA_END__+0x3f80>
    14102f34:	f9409c21 	ldr	x1, [x1, #312]
    14102f38:	f9403821 	ldr	x1, [x1, #112]
    14102f3c:	b5000081 	cbnz	x1, 14102f4c <psci_query_sys_suspend_pwrstate+0x1c>
    14102f40:	a9bf7bfd 	stp	x29, x30, [sp, #-16]!
    14102f44:	910003fd 	mov	x29, sp
    14102f48:	94000e3f 	bl	14106844 <__assert>
    14102f4c:	aa0103f0 	mov	x16, x1
    14102f50:	d61f0200 	br	x16

0000000014102f54 <psci_is_last_on_cpu>:
    14102f54:	a9bd7bfd 	stp	x29, x30, [sp, #-48]!
    14102f58:	910003fd 	mov	x29, sp
    14102f5c:	a9025bf5 	stp	x21, x22, [sp, #32]
    14102f60:	2a0003f5 	mov	w21, w0
    14102f64:	90000060 	adrp	x0, 1410e000 <__RELA_END__+0x3f80>
    14102f68:	a90153f3 	stp	x19, x20, [sp, #16]
    14102f6c:	90000074 	adrp	x20, 1410e000 <__RELA_END__+0x3f80>
    14102f70:	b9470416 	ldr	w22, [x0, #1796]
    14102f74:	91200294 	add	x20, x20, #0x800
    14102f78:	52800013 	mov	w19, #0x0                   	// #0
    14102f7c:	6b1302df 	cmp	w22, w19
    14102f80:	540000c1 	b.ne	14102f98 <psci_is_last_on_cpu+0x44>  // b.any
    14102f84:	52800020 	mov	w0, #0x1                   	// #1
    14102f88:	a94153f3 	ldp	x19, x20, [sp, #16]
    14102f8c:	a9425bf5 	ldp	x21, x22, [sp, #32]
    14102f90:	a8c37bfd 	ldp	x29, x30, [sp], #48
    14102f94:	d65f03c0 	ret
    14102f98:	6b15027f 	cmp	w19, w21
    14102f9c:	540000c1 	b.ne	14102fb4 <psci_is_last_on_cpu+0x60>  // b.any
    14102fa0:	aa1403e0 	mov	x0, x20
    14102fa4:	97ffffcf 	bl	14102ee0 <per_cpu_cur_compute>
    14102fa8:	b9402000 	ldr	w0, [x0, #32]
    14102fac:	34000100 	cbz	w0, 14102fcc <psci_is_last_on_cpu+0x78>
    14102fb0:	94000e25 	bl	14106844 <__assert>
    14102fb4:	aa1403e1 	mov	x1, x20
    14102fb8:	2a1303e0 	mov	w0, w19
    14102fbc:	97ffffbd 	bl	14102eb0 <per_cpu_by_index_compute>
    14102fc0:	b9402000 	ldr	w0, [x0, #32]
    14102fc4:	7100041f 	cmp	w0, #0x1
    14102fc8:	54000061 	b.ne	14102fd4 <psci_is_last_on_cpu+0x80>  // b.any
    14102fcc:	11000673 	add	w19, w19, #0x1
    14102fd0:	17ffffeb 	b	14102f7c <psci_is_last_on_cpu+0x28>
    14102fd4:	52800000 	mov	w0, #0x0                   	// #0
    14102fd8:	17ffffec 	b	14102f88 <psci_is_last_on_cpu+0x34>

0000000014102fdc <psci_init_req_local_pwr_states>:
    14102fdc:	90000060 	adrp	x0, 1410e000 <__RELA_END__+0x3f80>
    14102fe0:	90000061 	adrp	x1, 1410e000 <__RELA_END__+0x3f80>
    14102fe4:	911e3421 	add	x1, x1, #0x78d
    14102fe8:	52800043 	mov	w3, #0x2                   	// #2
    14102fec:	b9470402 	ldr	w2, [x0, #1796]
    14102ff0:	d2800000 	mov	x0, #0x0                   	// #0
    14102ff4:	6b00005f 	cmp	w2, w0
    14102ff8:	54000048 	b.hi	14103000 <psci_init_req_local_pwr_states+0x24>  // b.pmore
    14102ffc:	d65f03c0 	ret
    14103000:	38206823 	strb	w3, [x1, x0]
    14103004:	91000400 	add	x0, x0, #0x1
    14103008:	17fffffb 	b	14102ff4 <psci_init_req_local_pwr_states+0x18>

000000001410300c <psci_get_target_local_pwr_states>:
    1410300c:	a9bd7bfd 	stp	x29, x30, [sp, #-48]!
    14103010:	910003fd 	mov	x29, sp
    14103014:	a90153f3 	stp	x19, x20, [sp, #16]
    14103018:	aa0203f3 	mov	x19, x2
    1410301c:	2a0103f4 	mov	w20, w1
    14103020:	f90013f5 	str	x21, [sp, #32]
    14103024:	2a0003f5 	mov	w21, w0
    14103028:	f0000040 	adrp	x0, 1410e000 <__RELA_END__+0x3f80>
    1410302c:	91200000 	add	x0, x0, #0x800
    14103030:	97ffffac 	bl	14102ee0 <per_cpu_cur_compute>
    14103034:	3940a000 	ldrb	w0, [x0, #40]
    14103038:	39000260 	strb	w0, [x19]
    1410303c:	f0000041 	adrp	x1, 1410e000 <__RELA_END__+0x3f80>
    14103040:	2a1503e0 	mov	w0, w21
    14103044:	912c0021 	add	x1, x1, #0xb00
    14103048:	97ffff9a 	bl	14102eb0 <per_cpu_by_index_compute>
    1410304c:	b9400802 	ldr	w2, [x0, #8]
    14103050:	90000101 	adrp	x1, 14123000 <psci_locks>
    14103054:	91004021 	add	x1, x1, #0x10
    14103058:	52800020 	mov	w0, #0x1                   	// #1
    1410305c:	6b14001f 	cmp	w0, w20
    14103060:	54000109 	b.ls	14103080 <psci_get_target_local_pwr_states+0x74>  // b.plast
    14103064:	7100041f 	cmp	w0, #0x1
    14103068:	54000041 	b.ne	14103070 <psci_get_target_local_pwr_states+0x64>  // b.any
    1410306c:	3900067f 	strb	wzr, [x19, #1]
    14103070:	a94153f3 	ldp	x19, x20, [sp, #16]
    14103074:	f94013f5 	ldr	x21, [sp, #32]
    14103078:	a8c37bfd 	ldp	x29, x30, [sp], #48
    1410307c:	d65f03c0 	ret
    14103080:	8b225022 	add	x2, x1, w2, uxtw #4
    14103084:	39403043 	ldrb	w3, [x2, #12]
    14103088:	38204a63 	strb	w3, [x19, w0, uxtw]
    1410308c:	11000400 	add	w0, w0, #0x1
    14103090:	b9400842 	ldr	w2, [x2, #8]
    14103094:	17fffff2 	b	1410305c <psci_get_target_local_pwr_states+0x50>

0000000014103098 <psci_set_target_local_pwr_states>:
    14103098:	a9bc7bfd 	stp	x29, x30, [sp, #-64]!
    1410309c:	910003fd 	mov	x29, sp
    141030a0:	a90153f3 	stp	x19, x20, [sp, #16]
    141030a4:	f0000054 	adrp	x20, 1410e000 <__RELA_END__+0x3f80>
    141030a8:	91200294 	add	x20, x20, #0x800
    141030ac:	a9025bf5 	stp	x21, x22, [sp, #32]
    141030b0:	aa0203f3 	mov	x19, x2
    141030b4:	2a0103f5 	mov	w21, w1
    141030b8:	f9001bf7 	str	x23, [sp, #48]
    141030bc:	2a0003f6 	mov	w22, w0
    141030c0:	aa1403e0 	mov	x0, x20
    141030c4:	39400057 	ldrb	w23, [x2]
    141030c8:	97ffff86 	bl	14102ee0 <per_cpu_cur_compute>
    141030cc:	3900a017 	strb	w23, [x0, #40]
    141030d0:	aa1403e0 	mov	x0, x20
    141030d4:	97ffff83 	bl	14102ee0 <per_cpu_cur_compute>
    141030d8:	9100a000 	add	x0, x0, #0x28
    141030dc:	d2800021 	mov	x1, #0x1                   	// #1
    141030e0:	94000bc5 	bl	14105ff4 <flush_dcache_range>
    141030e4:	2a1603e0 	mov	w0, w22
    141030e8:	f0000041 	adrp	x1, 1410e000 <__RELA_END__+0x3f80>
    141030ec:	912c0021 	add	x1, x1, #0xb00
    141030f0:	97ffff70 	bl	14102eb0 <per_cpu_by_index_compute>
    141030f4:	b9400800 	ldr	w0, [x0, #8]
    141030f8:	90000101 	adrp	x1, 14123000 <psci_locks>
    141030fc:	91004021 	add	x1, x1, #0x10
    14103100:	52800023 	mov	w3, #0x1                   	// #1
    14103104:	6b15007f 	cmp	w3, w21
    14103108:	540000c9 	b.ls	14103120 <psci_set_target_local_pwr_states+0x88>  // b.plast
    1410310c:	a94153f3 	ldp	x19, x20, [sp, #16]
    14103110:	a9425bf5 	ldp	x21, x22, [sp, #32]
    14103114:	f9401bf7 	ldr	x23, [sp, #48]
    14103118:	a8c47bfd 	ldp	x29, x30, [sp], #64
    1410311c:	d65f03c0 	ret
    14103120:	8b205020 	add	x0, x1, w0, uxtw #4
    14103124:	38634a62 	ldrb	w2, [x19, w3, uxtw]
    14103128:	11000463 	add	w3, w3, #0x1
    1410312c:	39003002 	strb	w2, [x0, #12]
    14103130:	b9400800 	ldr	w0, [x0, #8]
    14103134:	17fffff4 	b	14103104 <psci_set_target_local_pwr_states+0x6c>

0000000014103138 <psci_get_parent_pwr_domain_nodes>:
    14103138:	a9be7bfd 	stp	x29, x30, [sp, #-32]!
    1410313c:	910003fd 	mov	x29, sp
    14103140:	a90153f3 	stp	x19, x20, [sp, #16]
    14103144:	aa0203f3 	mov	x19, x2
    14103148:	2a0103f4 	mov	w20, w1
    1410314c:	f0000041 	adrp	x1, 1410e000 <__RELA_END__+0x3f80>
    14103150:	912c0021 	add	x1, x1, #0xb00
    14103154:	97ffff57 	bl	14102eb0 <per_cpu_by_index_compute>
    14103158:	b9400800 	ldr	w0, [x0, #8]
    1410315c:	90000101 	adrp	x1, 14123000 <psci_locks>
    14103160:	d1001273 	sub	x19, x19, #0x4
    14103164:	91004021 	add	x1, x1, #0x10
    14103168:	d2800002 	mov	x2, #0x0                   	// #0
    1410316c:	91000442 	add	x2, x2, #0x1
    14103170:	6b02029f 	cmp	w20, w2
    14103174:	54000082 	b.cs	14103184 <psci_get_parent_pwr_domain_nodes+0x4c>  // b.hs, b.nlast
    14103178:	a94153f3 	ldp	x19, x20, [sp, #16]
    1410317c:	a8c27bfd 	ldp	x29, x30, [sp], #32
    14103180:	d65f03c0 	ret
    14103184:	b8227a60 	str	w0, [x19, x2, lsl #2]
    14103188:	8b205020 	add	x0, x1, w0, uxtw #4
    1410318c:	b9400800 	ldr	w0, [x0, #8]
    14103190:	17fffff7 	b	1410316c <psci_get_parent_pwr_domain_nodes+0x34>

0000000014103194 <psci_set_pwr_domains_to_run>:
    14103194:	a9be7bfd 	stp	x29, x30, [sp, #-32]!
    14103198:	910003fd 	mov	x29, sp
    1410319c:	a90153f3 	stp	x19, x20, [sp, #16]
    141031a0:	2a0003f3 	mov	w19, w0
    141031a4:	2a0103f4 	mov	w20, w1
    141031a8:	f0000041 	adrp	x1, 1410e000 <__RELA_END__+0x3f80>
    141031ac:	912c0021 	add	x1, x1, #0xb00
    141031b0:	97ffff40 	bl	14102eb0 <per_cpu_by_index_compute>
    141031b4:	b9400803 	ldr	w3, [x0, #8]
    141031b8:	f0000040 	adrp	x0, 1410e000 <__RELA_END__+0x3f80>
    141031bc:	f0000041 	adrp	x1, 1410e000 <__RELA_END__+0x3f80>
    141031c0:	2a1303e6 	mov	w6, w19
    141031c4:	911e3421 	add	x1, x1, #0x78d
    141031c8:	b9470405 	ldr	w5, [x0, #1796]
    141031cc:	90000100 	adrp	x0, 14123000 <psci_locks>
    141031d0:	91004000 	add	x0, x0, #0x10
    141031d4:	52800022 	mov	w2, #0x1                   	// #1
    141031d8:	6b14005f 	cmp	w2, w20
    141031dc:	54000209 	b.ls	1410321c <psci_set_pwr_domains_to_run+0x88>  // b.plast
    141031e0:	f0000053 	adrp	x19, 1410e000 <__RELA_END__+0x3f80>
    141031e4:	91200273 	add	x19, x19, #0x800
    141031e8:	aa1303e0 	mov	x0, x19
    141031ec:	97ffff3d 	bl	14102ee0 <per_cpu_cur_compute>
    141031f0:	b900201f 	str	wzr, [x0, #32]
    141031f4:	aa1303e0 	mov	x0, x19
    141031f8:	97ffff3a 	bl	14102ee0 <per_cpu_cur_compute>
    141031fc:	3900a01f 	strb	wzr, [x0, #40]
    14103200:	aa1303e0 	mov	x0, x19
    14103204:	97ffff37 	bl	14102ee0 <per_cpu_cur_compute>
    14103208:	91008000 	add	x0, x0, #0x20
    1410320c:	a94153f3 	ldp	x19, x20, [sp, #16]
    14103210:	d2800181 	mov	x1, #0xc                   	// #12
    14103214:	a8c27bfd 	ldp	x29, x30, [sp], #32
    14103218:	14000b77 	b	14105ff4 <flush_dcache_range>
    1410321c:	2a0303e4 	mov	w4, w3
    14103220:	8b235003 	add	x3, x0, w3, uxtw #4
    14103224:	3900307f 	strb	wzr, [x3, #12]
    14103228:	35000042 	cbnz	w2, 14103230 <psci_set_pwr_domains_to_run+0x9c>
    1410322c:	94000d86 	bl	14106844 <__assert>
    14103230:	7100045f 	cmp	w2, #0x1
    14103234:	54000081 	b.ne	14103244 <psci_set_pwr_domains_to_run+0xb0>  // b.any
    14103238:	6b05027f 	cmp	w19, w5
    1410323c:	54000042 	b.cs	14103244 <psci_set_pwr_domains_to_run+0xb0>  // b.hs, b.nlast
    14103240:	3826683f 	strb	wzr, [x1, x6]
    14103244:	8b041003 	add	x3, x0, x4, lsl #4
    14103248:	11000442 	add	w2, w2, #0x1
    1410324c:	b9400863 	ldr	w3, [x3, #8]
    14103250:	17ffffe2 	b	141031d8 <psci_set_pwr_domains_to_run+0x44>

0000000014103254 <psci_do_state_coordination>:
    14103254:	a9bd7bfd 	stp	x29, x30, [sp, #-48]!
    14103258:	910003fd 	mov	x29, sp
    1410325c:	a90153f3 	stp	x19, x20, [sp, #16]
    14103260:	f90013f5 	str	x21, [sp, #32]
    14103264:	7100043f 	cmp	w1, #0x1
    14103268:	54000049 	b.ls	14103270 <psci_do_state_coordination+0x1c>  // b.plast
    1410326c:	94000d76 	bl	14106844 <__assert>
    14103270:	aa0203f3 	mov	x19, x2
    14103274:	2a0003f4 	mov	w20, w0
    14103278:	2a0103f5 	mov	w21, w1
    1410327c:	f0000041 	adrp	x1, 1410e000 <__RELA_END__+0x3f80>
    14103280:	912c0021 	add	x1, x1, #0xb00
    14103284:	97ffff0b 	bl	14102eb0 <per_cpu_by_index_compute>
    14103288:	b9400802 	ldr	w2, [x0, #8]
    1410328c:	340002f5 	cbz	w21, 141032e8 <psci_do_state_coordination+0x94>
    14103290:	f0000040 	adrp	x0, 1410e000 <__RELA_END__+0x3f80>
    14103294:	b9470403 	ldr	w3, [x0, #1796]
    14103298:	6b03029f 	cmp	w20, w3
    1410329c:	540000a2 	b.cs	141032b0 <psci_do_state_coordination+0x5c>  // b.hs, b.nlast
    141032a0:	f0000040 	adrp	x0, 1410e000 <__RELA_END__+0x3f80>
    141032a4:	911e3400 	add	x0, x0, #0x78d
    141032a8:	39400661 	ldrb	w1, [x19, #1]
    141032ac:	38344801 	strb	w1, [x0, w20, uxtw]
    141032b0:	d37c7c42 	ubfiz	x2, x2, #4, #32
    141032b4:	90000100 	adrp	x0, 14123000 <psci_locks>
    141032b8:	91004000 	add	x0, x0, #0x10
    141032bc:	f0000041 	adrp	x1, 1410e000 <__RELA_END__+0x3f80>
    141032c0:	911e3421 	add	x1, x1, #0x78d
    141032c4:	b8626804 	ldr	w4, [x0, x2]
    141032c8:	8b020000 	add	x0, x0, x2
    141032cc:	6b03009f 	cmp	w4, w3
    141032d0:	b9400402 	ldr	w2, [x0, #4]
    141032d4:	8b244021 	add	x1, x1, w4, uxtw
    141032d8:	9a9f3021 	csel	x1, x1, xzr, cc	// cc = lo, ul, last
    141032dc:	52800020 	mov	w0, #0x1                   	// #1
    141032e0:	9400067f 	bl	14104cdc <plat_get_target_pwr_state>
    141032e4:	39000660 	strb	w0, [x19, #1]
    141032e8:	a94153f3 	ldp	x19, x20, [sp, #16]
    141032ec:	f94013f5 	ldr	x21, [sp, #32]
    141032f0:	a8c37bfd 	ldp	x29, x30, [sp], #48
    141032f4:	d65f03c0 	ret

00000000141032f8 <psci_find_max_off_lvl>:
    141032f8:	39400401 	ldrb	w1, [x0, #1]
    141032fc:	7100083f 	cmp	w1, #0x2
    14103300:	540000e0 	b.eq	1410331c <psci_find_max_off_lvl+0x24>  // b.none
    14103304:	39400001 	ldrb	w1, [x0]
    14103308:	52800040 	mov	w0, #0x2                   	// #2
    1410330c:	6b00003f 	cmp	w1, w0
    14103310:	54000041 	b.ne	14103318 <psci_find_max_off_lvl+0x20>  // b.any
    14103314:	52800000 	mov	w0, #0x0                   	// #0
    14103318:	d65f03c0 	ret
    1410331c:	52800020 	mov	w0, #0x1                   	// #1
    14103320:	17fffffe 	b	14103318 <psci_find_max_off_lvl+0x20>

0000000014103324 <psci_find_target_suspend_lvl>:
    14103324:	39400401 	ldrb	w1, [x0, #1]
    14103328:	350000c1 	cbnz	w1, 14103340 <psci_find_target_suspend_lvl+0x1c>
    1410332c:	39400001 	ldrb	w1, [x0]
    14103330:	52800040 	mov	w0, #0x2                   	// #2
    14103334:	34000041 	cbz	w1, 1410333c <psci_find_target_suspend_lvl+0x18>
    14103338:	52800000 	mov	w0, #0x0                   	// #0
    1410333c:	d65f03c0 	ret
    14103340:	52800020 	mov	w0, #0x1                   	// #1
    14103344:	17fffffe 	b	1410333c <psci_find_target_suspend_lvl+0x18>

0000000014103348 <psci_validate_suspend_req>:
    14103348:	a9bf7bfd 	stp	x29, x30, [sp, #-16]!
    1410334c:	aa0003e4 	mov	x4, x0
    14103350:	2a0103e5 	mov	w5, w1
    14103354:	910003fd 	mov	x29, sp
    14103358:	97fffff3 	bl	14103324 <psci_find_target_suspend_lvl>
    1410335c:	7100081f 	cmp	w0, #0x2
    14103360:	540002e0 	b.eq	141033bc <psci_validate_suspend_req+0x74>  // b.none
    14103364:	2a0003e2 	mov	w2, w0
    14103368:	93407c00 	sxtw	x0, w0
    1410336c:	52800001 	mov	w1, #0x0                   	// #0
    14103370:	36f801a0 	tbz	w0, #31, 141033a4 <psci_validate_suspend_req+0x5c>
    14103374:	aa0403e0 	mov	x0, x4
    14103378:	97ffffe0 	bl	141032f8 <psci_find_max_off_lvl>
    1410337c:	6b00005f 	cmp	w2, w0
    14103380:	52800041 	mov	w1, #0x2                   	// #2
    14103384:	1a811042 	csel	w2, w2, w1, ne	// ne = any
    14103388:	350002a5 	cbnz	w5, 141033dc <psci_validate_suspend_req+0x94>
    1410338c:	6b01001f 	cmp	w0, w1
    14103390:	12800020 	mov	w0, #0xfffffffe            	// #-2
    14103394:	7a410044 	ccmp	w2, w1, #0x4, eq	// eq = none
    14103398:	1a9f0000 	csel	w0, w0, wzr, eq	// eq = none
    1410339c:	a8c17bfd 	ldp	x29, x30, [sp], #16
    141033a0:	d65f03c0 	ret
    141033a4:	38606883 	ldrb	w3, [x4, x0]
    141033a8:	340000e3 	cbz	w3, 141033c4 <psci_validate_suspend_req+0x7c>
    141033ac:	7100047f 	cmp	w3, #0x1
    141033b0:	540000e1 	b.ne	141033cc <psci_validate_suspend_req+0x84>  // b.any
    141033b4:	6b03003f 	cmp	w1, w3
    141033b8:	540000c9 	b.ls	141033d0 <psci_validate_suspend_req+0x88>  // b.plast
    141033bc:	12800020 	mov	w0, #0xfffffffe            	// #-2
    141033c0:	17fffff7 	b	1410339c <psci_validate_suspend_req+0x54>
    141033c4:	52800003 	mov	w3, #0x0                   	// #0
    141033c8:	17fffffb 	b	141033b4 <psci_validate_suspend_req+0x6c>
    141033cc:	52800043 	mov	w3, #0x2                   	// #2
    141033d0:	d1000400 	sub	x0, x0, #0x1
    141033d4:	2a0303e1 	mov	w1, w3
    141033d8:	17ffffe6 	b	14103370 <psci_validate_suspend_req+0x28>
    141033dc:	52800000 	mov	w0, #0x0                   	// #0
    141033e0:	17ffffef 	b	1410339c <psci_validate_suspend_req+0x54>

00000000141033e4 <psci_acquire_pwr_domain_locks>:
    141033e4:	a9bc7bfd 	stp	x29, x30, [sp, #-64]!
    141033e8:	910003fd 	mov	x29, sp
    141033ec:	a90153f3 	stp	x19, x20, [sp, #16]
    141033f0:	2a0003f4 	mov	w20, w0
    141033f4:	52800033 	mov	w19, #0x1                   	// #1
    141033f8:	a9025bf5 	stp	x21, x22, [sp, #32]
    141033fc:	90000116 	adrp	x22, 14123000 <psci_locks>
    14103400:	aa0103f5 	mov	x21, x1
    14103404:	910042d6 	add	x22, x22, #0x10
    14103408:	f9001bf7 	str	x23, [sp, #48]
    1410340c:	90000117 	adrp	x23, 14123000 <psci_locks>
    14103410:	910002f7 	add	x23, x23, #0x0
    14103414:	6b14027f 	cmp	w19, w20
    14103418:	540000c9 	b.ls	14103430 <psci_acquire_pwr_domain_locks+0x4c>  // b.plast
    1410341c:	a94153f3 	ldp	x19, x20, [sp, #16]
    14103420:	a9425bf5 	ldp	x21, x22, [sp, #32]
    14103424:	f9401bf7 	ldr	x23, [sp, #48]
    14103428:	a8c47bfd 	ldp	x29, x30, [sp], #64
    1410342c:	d65f03c0 	ret
    14103430:	51000660 	sub	w0, w19, #0x1
    14103434:	11000673 	add	w19, w19, #0x1
    14103438:	b8607aa0 	ldr	w0, [x21, x0, lsl #2]
    1410343c:	8b0012c0 	add	x0, x22, x0, lsl #4
    14103440:	79401c00 	ldrh	w0, [x0, #14]
    14103444:	8b000ee0 	add	x0, x23, x0, lsl #3
    14103448:	97fffe51 	bl	14102d8c <bakery_lock_get>
    1410344c:	17fffff2 	b	14103414 <psci_acquire_pwr_domain_locks+0x30>

0000000014103450 <psci_release_pwr_domain_locks>:
    14103450:	a9bd7bfd 	stp	x29, x30, [sp, #-48]!
    14103454:	910003fd 	mov	x29, sp
    14103458:	a90153f3 	stp	x19, x20, [sp, #16]
    1410345c:	2a0003f3 	mov	w19, w0
    14103460:	aa0103f4 	mov	x20, x1
    14103464:	a9025bf5 	stp	x21, x22, [sp, #32]
    14103468:	90000115 	adrp	x21, 14123000 <psci_locks>
    1410346c:	90000116 	adrp	x22, 14123000 <psci_locks>
    14103470:	910042b5 	add	x21, x21, #0x10
    14103474:	910002d6 	add	x22, x22, #0x0
    14103478:	350000b3 	cbnz	w19, 1410348c <psci_release_pwr_domain_locks+0x3c>
    1410347c:	a94153f3 	ldp	x19, x20, [sp, #16]
    14103480:	a9425bf5 	ldp	x21, x22, [sp, #32]
    14103484:	a8c37bfd 	ldp	x29, x30, [sp], #48
    14103488:	d65f03c0 	ret
    1410348c:	51000673 	sub	w19, w19, #0x1
    14103490:	b8735a80 	ldr	w0, [x20, w19, uxtw #2]
    14103494:	8b0012a0 	add	x0, x21, x0, lsl #4
    14103498:	79401c00 	ldrh	w0, [x0, #14]
    1410349c:	8b000ec0 	add	x0, x22, x0, lsl #3
    141034a0:	97fffe70 	bl	14102e60 <bakery_lock_release>
    141034a4:	17fffff5 	b	14103478 <psci_release_pwr_domain_locks+0x28>

00000000141034a8 <psci_validate_entry_point>:
    141034a8:	a9bb7bfd 	stp	x29, x30, [sp, #-80]!
    141034ac:	910003fd 	mov	x29, sp
    141034b0:	a90153f3 	stp	x19, x20, [sp, #16]
    141034b4:	aa0003f4 	mov	x20, x0
    141034b8:	f0000040 	adrp	x0, 1410e000 <__RELA_END__+0x3f80>
    141034bc:	aa0103f3 	mov	x19, x1
    141034c0:	a9025bf5 	stp	x21, x22, [sp, #32]
    141034c4:	f9409c00 	ldr	x0, [x0, #312]
    141034c8:	a90363f7 	stp	x23, x24, [sp, #48]
    141034cc:	aa0203f8 	mov	x24, x2
    141034d0:	f9403401 	ldr	x1, [x0, #104]
    141034d4:	f90023f9 	str	x25, [sp, #64]
    141034d8:	b5000361 	cbnz	x1, 14103544 <psci_validate_entry_point+0x9c>
    141034dc:	d53e1117 	mrs	x23, scr_el3
    141034e0:	d5381000 	mrs	x0, sctlr_el1
    141034e4:	927802f9 	and	x25, x23, #0x100
    141034e8:	37400437 	tbnz	w23, #8, 1410356c <psci_validate_entry_point+0xc4>
    141034ec:	f2670000 	ands	x0, x0, #0x2000000
    141034f0:	52802021 	mov	w1, #0x101                 	// #257
    141034f4:	72a00b01 	movk	w1, #0x58, lsl #16
    141034f8:	d2800075 	mov	x21, #0x3                   	// #3
    141034fc:	9a9f16a0 	csinc	x0, x21, xzr, ne	// ne = any
    14103500:	29000281 	stp	w1, w0, [x20]
    14103504:	f9000693 	str	x19, [x20, #8]
    14103508:	1a9f07f6 	cset	w22, ne	// ne = any
    1410350c:	91006280 	add	x0, x20, #0x18
    14103510:	d2800801 	mov	x1, #0x40                  	// #64
    14103514:	94000b29 	bl	141061b8 <zeromem>
    14103518:	f9000e98 	str	x24, [x20, #24]
    1410351c:	365002d7 	tbz	w23, #10, 14103574 <psci_validate_entry_point+0xcc>
    14103520:	37000193 	tbnz	w19, #0, 14103550 <psci_validate_entry_point+0xa8>
    14103524:	f100033f 	cmp	x25, #0x0
    14103528:	52807821 	mov	w1, #0x3c1                 	// #961
    1410352c:	1a9f07e0 	cset	w0, ne	// ne = any
    14103530:	11000400 	add	w0, w0, #0x1
    14103534:	2a000820 	orr	w0, w1, w0, lsl #2
    14103538:	b9001280 	str	w0, [x20, #16]
    1410353c:	52800000 	mov	w0, #0x0                   	// #0
    14103540:	14000005 	b	14103554 <psci_validate_entry_point+0xac>
    14103544:	aa1303e0 	mov	x0, x19
    14103548:	d63f0020 	blr	x1
    1410354c:	34fffc80 	cbz	w0, 141034dc <psci_validate_entry_point+0x34>
    14103550:	12800100 	mov	w0, #0xfffffff7            	// #-9
    14103554:	a94153f3 	ldp	x19, x20, [sp, #16]
    14103558:	a9425bf5 	ldp	x21, x22, [sp, #32]
    1410355c:	a94363f7 	ldp	x23, x24, [sp, #48]
    14103560:	f94023f9 	ldr	x25, [sp, #64]
    14103564:	a8c57bfd 	ldp	x29, x30, [sp], #80
    14103568:	d65f03c0 	ret
    1410356c:	d53c1000 	mrs	x0, sctlr_el2
    14103570:	17ffffdf 	b	141034ec <psci_validate_entry_point+0x44>
    14103574:	52800140 	mov	w0, #0xa                   	// #10
    14103578:	f100033f 	cmp	x25, #0x0
    1410357c:	1a8002b5 	csel	w21, w21, w0, eq	// eq = none
    14103580:	531b0273 	ubfiz	w19, w19, #5, #1
    14103584:	52803a00 	mov	w0, #0x1d0                 	// #464
    14103588:	2a150273 	orr	w19, w19, w21
    1410358c:	2a162416 	orr	w22, w0, w22, lsl #9
    14103590:	2a160273 	orr	w19, w19, w22
    14103594:	b9001293 	str	w19, [x20, #16]
    14103598:	17ffffe9 	b	1410353c <psci_validate_entry_point+0x94>

000000001410359c <psci_warmboot_entrypoint>:
    1410359c:	a9bc7bfd 	stp	x29, x30, [sp, #-64]!
    141035a0:	910003fd 	mov	x29, sp
    141035a4:	f90013f5 	str	x21, [sp, #32]
    141035a8:	f0000055 	adrp	x21, 1410e000 <__RELA_END__+0x3f80>
    141035ac:	912002b5 	add	x21, x21, #0x800
    141035b0:	a90153f3 	stp	x19, x20, [sp, #16]
    141035b4:	2a0003f3 	mov	w19, w0
    141035b8:	aa1503e0 	mov	x0, x21
    141035bc:	790063ff 	strh	wzr, [sp, #48]
    141035c0:	b9003bff 	str	wzr, [sp, #56]
    141035c4:	97fffe47 	bl	14102ee0 <per_cpu_cur_compute>
    141035c8:	b9402001 	ldr	w1, [x0, #32]
    141035cc:	7100043f 	cmp	w1, #0x1
    141035d0:	54000121 	b.ne	141035f4 <psci_warmboot_entrypoint+0x58>  // b.any
    141035d4:	90000020 	adrp	x0, 14107000 <plat_rebel_h_psci_pm_ops+0x80>
    141035d8:	91129c00 	add	x0, x0, #0x4a7
    141035dc:	97fff5a3 	bl	14100c68 <tf_log>
    141035e0:	90000020 	adrp	x0, 14107000 <plat_rebel_h_psci_pm_ops+0x80>
    141035e4:	9120bc00 	add	x0, x0, #0x82f
    141035e8:	97fff500 	bl	141009e8 <backtrace>
    141035ec:	97fff921 	bl	14101a70 <console_flush>
    141035f0:	94000a1a 	bl	14105e58 <el3_panic>
    141035f4:	b9402414 	ldr	w20, [x0, #36]
    141035f8:	7100069f 	cmp	w20, #0x1
    141035fc:	54000049 	b.ls	14103604 <psci_warmboot_entrypoint+0x68>  // b.plast
    14103600:	94000c91 	bl	14106844 <__assert>
    14103604:	9100e3e2 	add	x2, sp, #0x38
    14103608:	2a1403e1 	mov	w1, w20
    1410360c:	2a1303e0 	mov	w0, w19
    14103610:	97fffeca 	bl	14103138 <psci_get_parent_pwr_domain_nodes>
    14103614:	9100e3e1 	add	x1, sp, #0x38
    14103618:	2a1403e0 	mov	w0, w20
    1410361c:	97ffff72 	bl	141033e4 <psci_acquire_pwr_domain_locks>
    14103620:	9100c3e2 	add	x2, sp, #0x30
    14103624:	2a1403e1 	mov	w1, w20
    14103628:	2a1303e0 	mov	w0, w19
    1410362c:	97fffe78 	bl	1410300c <psci_get_target_local_pwr_states>
    14103630:	aa1503e0 	mov	x0, x21
    14103634:	97fffe2b 	bl	14102ee0 <per_cpu_cur_compute>
    14103638:	b9402000 	ldr	w0, [x0, #32]
    1410363c:	7100081f 	cmp	w0, #0x2
    14103640:	54000261 	b.ne	1410368c <psci_warmboot_entrypoint+0xf0>  // b.any
    14103644:	9100c3e1 	add	x1, sp, #0x30
    14103648:	2a1303e0 	mov	w0, w19
    1410364c:	940002dc 	bl	141041bc <psci_cpu_on_finish>
    14103650:	aa1503e0 	mov	x0, x21
    14103654:	97fffe23 	bl	14102ee0 <per_cpu_cur_compute>
    14103658:	f9400800 	ldr	x0, [x0, #16]
    1410365c:	97fffcf9 	bl	14102a40 <cm_init_my_context>
    14103660:	97fffd87 	bl	14102c7c <cm_prepare_el3_exit_ns>
    14103664:	2a1403e1 	mov	w1, w20
    14103668:	2a1303e0 	mov	w0, w19
    1410366c:	97fffeca 	bl	14103194 <psci_set_pwr_domains_to_run>
    14103670:	9100e3e1 	add	x1, sp, #0x38
    14103674:	2a1403e0 	mov	w0, w20
    14103678:	97ffff76 	bl	14103450 <psci_release_pwr_domain_locks>
    1410367c:	a94153f3 	ldp	x19, x20, [sp, #16]
    14103680:	f94013f5 	ldr	x21, [sp, #32]
    14103684:	a8c47bfd 	ldp	x29, x30, [sp], #64
    14103688:	d65f03c0 	ret
    1410368c:	9100c3e0 	add	x0, sp, #0x30
    14103690:	97ffff1a 	bl	141032f8 <psci_find_max_off_lvl>
    14103694:	2a0003e1 	mov	w1, w0
    14103698:	7100081f 	cmp	w0, #0x2
    1410369c:	54fffb20 	b.eq	14103600 <psci_warmboot_entrypoint+0x64>  // b.none
    141036a0:	9100c3e2 	add	x2, sp, #0x30
    141036a4:	2a1303e0 	mov	w0, w19
    141036a8:	52800003 	mov	w3, #0x0                   	// #0
    141036ac:	94000406 	bl	141046c4 <psci_cpu_suspend_to_powerdown_finish>
    141036b0:	17ffffe8 	b	14103650 <psci_warmboot_entrypoint+0xb4>

00000000141036b4 <psci_spd_migrate_info>:
    141036b4:	f0000041 	adrp	x1, 1410e000 <__RELA_END__+0x3f80>
    141036b8:	f940a021 	ldr	x1, [x1, #320]
    141036bc:	b4000141 	cbz	x1, 141036e4 <psci_spd_migrate_info+0x30>
    141036c0:	f9401821 	ldr	x1, [x1, #48]
    141036c4:	b4000101 	cbz	x1, 141036e4 <psci_spd_migrate_info+0x30>
    141036c8:	a9bf7bfd 	stp	x29, x30, [sp, #-16]!
    141036cc:	910003fd 	mov	x29, sp
    141036d0:	d63f0020 	blr	x1
    141036d4:	11000401 	add	w1, w0, #0x1
    141036d8:	71000c3f 	cmp	w1, #0x3
    141036dc:	54000089 	b.ls	141036ec <psci_spd_migrate_info+0x38>  // b.plast
    141036e0:	94000c59 	bl	14106844 <__assert>
    141036e4:	12800000 	mov	w0, #0xffffffff            	// #-1
    141036e8:	d65f03c0 	ret
    141036ec:	a8c17bfd 	ldp	x29, x30, [sp], #16
    141036f0:	d65f03c0 	ret

00000000141036f4 <psci_print_power_domain_map>:
    141036f4:	d65f03c0 	ret

00000000141036f8 <psci_pwrdown_cpu_start>:
    141036f8:	a9be7bfd 	stp	x29, x30, [sp, #-32]!
    141036fc:	910003fd 	mov	x29, sp
    14103700:	f9000bf3 	str	x19, [sp, #16]
    14103704:	2a0003f3 	mov	w19, w0
    14103708:	94000bfe 	bl	14106700 <psci_do_pwrdown_cache_maintenance>
    1410370c:	f0000040 	adrp	x0, 1410e000 <__RELA_END__+0x3f80>
    14103710:	91200000 	add	x0, x0, #0x800
    14103714:	97fffdf3 	bl	14102ee0 <per_cpu_cur_compute>
    14103718:	f9400c00 	ldr	x0, [x0, #24]
    1410371c:	7100027f 	cmp	w19, #0x0
    14103720:	1a9f0673 	csinc	w19, w19, wzr, eq	// eq = none
    14103724:	b5000040 	cbnz	x0, 1410372c <psci_pwrdown_cpu_start+0x34>
    14103728:	94000c47 	bl	14106844 <__assert>
    1410372c:	8b334c13 	add	x19, x0, w19, uxtw #3
    14103730:	f9400e60 	ldr	x0, [x19, #24]
    14103734:	b4ffffa0 	cbz	x0, 14103728 <psci_pwrdown_cpu_start+0x30>
    14103738:	f9400bf3 	ldr	x19, [sp, #16]
    1410373c:	aa0003f0 	mov	x16, x0
    14103740:	a8c27bfd 	ldp	x29, x30, [sp], #32
    14103744:	d61f0200 	br	x16

0000000014103748 <psci_pwrdown_cpu_end_terminal>:
    14103748:	a9bf7bfd 	stp	x29, x30, [sp, #-16]!
    1410374c:	910003fd 	mov	x29, sp
    14103750:	d5033f9f 	dsb	sy
    14103754:	52800400 	mov	w0, #0x20                  	// #32
    14103758:	d503207f 	wfi
    1410375c:	71000400 	subs	w0, w0, #0x1
    14103760:	54ffffc1 	b.ne	14103758 <psci_pwrdown_cpu_end_terminal+0x10>  // b.any
    14103764:	90000020 	adrp	x0, 14107000 <plat_rebel_h_psci_pm_ops+0x80>
    14103768:	91132400 	add	x0, x0, #0x4c9
    1410376c:	97fff53f 	bl	14100c68 <tf_log>
    14103770:	90000020 	adrp	x0, 14107000 <plat_rebel_h_psci_pm_ops+0x80>
    14103774:	91204400 	add	x0, x0, #0x811
    14103778:	97fff49c 	bl	141009e8 <backtrace>
    1410377c:	97fff8bd 	bl	14101a70 <console_flush>
    14103780:	940009b6 	bl	14105e58 <el3_panic>

0000000014103784 <psci_pwrdown_cpu_end_wakeup>:
    14103784:	a9bf7bfd 	stp	x29, x30, [sp, #-16]!
    14103788:	910003fd 	mov	x29, sp
    1410378c:	d5033f9f 	dsb	sy
    14103790:	d503207f 	wfi
    14103794:	90000020 	adrp	x0, 14107000 <plat_rebel_h_psci_pm_ops+0x80>
    14103798:	91139000 	add	x0, x0, #0x4e4
    1410379c:	97fff533 	bl	14100c68 <tf_log>
    141037a0:	90000020 	adrp	x0, 14107000 <plat_rebel_h_psci_pm_ops+0x80>
    141037a4:	911fd400 	add	x0, x0, #0x7f5
    141037a8:	97fff490 	bl	141009e8 <backtrace>
    141037ac:	97fff8b1 	bl	14101a70 <console_flush>
    141037b0:	940009aa 	bl	14105e58 <el3_panic>

00000000141037b4 <is_valid_mpidr>:
    141037b4:	a9bf7bfd 	stp	x29, x30, [sp, #-16]!
    141037b8:	910003fd 	mov	x29, sp
    141037bc:	94000776 	bl	14105594 <plat_core_pos_by_mpidr>
    141037c0:	71000c1f 	cmp	w0, #0x3
    141037c4:	1a9f87e0 	cset	w0, ls	// ls = plast
    141037c8:	a8c17bfd 	ldp	x29, x30, [sp], #16
    141037cc:	d65f03c0 	ret

00000000141037d0 <psci_cpu_on>:
    141037d0:	a9bd7bfd 	stp	x29, x30, [sp, #-48]!
    141037d4:	910003fd 	mov	x29, sp
    141037d8:	a90153f3 	stp	x19, x20, [sp, #16]
    141037dc:	aa0003f3 	mov	x19, x0
    141037e0:	aa0103f4 	mov	x20, x1
    141037e4:	a9025bf5 	stp	x21, x22, [sp, #32]
    141037e8:	aa0203f5 	mov	x21, x2
    141037ec:	9400076a 	bl	14105594 <plat_core_pos_by_mpidr>
    141037f0:	2a0003f6 	mov	w22, w0
    141037f4:	aa1303e0 	mov	x0, x19
    141037f8:	97ffffef 	bl	141037b4 <is_valid_mpidr>
    141037fc:	36000220 	tbz	w0, #0, 14103840 <psci_cpu_on+0x70>
    14103800:	2a1603e0 	mov	w0, w22
    14103804:	f0000041 	adrp	x1, 1410e000 <__RELA_END__+0x3f80>
    14103808:	91200021 	add	x1, x1, #0x800
    1410380c:	97fffda9 	bl	14102eb0 <per_cpu_by_index_compute>
    14103810:	f9400816 	ldr	x22, [x0, #16]
    14103814:	aa1503e2 	mov	x2, x21
    14103818:	aa1403e1 	mov	x1, x20
    1410381c:	aa1603e0 	mov	x0, x22
    14103820:	97ffff22 	bl	141034a8 <psci_validate_entry_point>
    14103824:	35000100 	cbnz	w0, 14103844 <psci_cpu_on+0x74>
    14103828:	aa1603e1 	mov	x1, x22
    1410382c:	aa1303e0 	mov	x0, x19
    14103830:	a94153f3 	ldp	x19, x20, [sp, #16]
    14103834:	a9425bf5 	ldp	x21, x22, [sp, #32]
    14103838:	a8c37bfd 	ldp	x29, x30, [sp], #48
    1410383c:	140001ef 	b	14103ff8 <psci_cpu_on_start>
    14103840:	12800020 	mov	w0, #0xfffffffe            	// #-2
    14103844:	a94153f3 	ldp	x19, x20, [sp, #16]
    14103848:	a9425bf5 	ldp	x21, x22, [sp, #32]
    1410384c:	a8c37bfd 	ldp	x29, x30, [sp], #48
    14103850:	d65f03c0 	ret

0000000014103854 <psci_cpu_suspend>:
    14103854:	a9bb7bfd 	stp	x29, x30, [sp, #-80]!
    14103858:	910003fd 	mov	x29, sp
    1410385c:	a90153f3 	stp	x19, x20, [sp, #16]
    14103860:	2a0003f4 	mov	w20, w0
    14103864:	a9025bf5 	stp	x21, x22, [sp, #32]
    14103868:	a90363f7 	stp	x23, x24, [sp, #48]
    1410386c:	aa0103f7 	mov	x23, x1
    14103870:	aa0203f8 	mov	x24, x2
    14103874:	790093ff 	strh	wzr, [sp, #72]
    14103878:	94000be0 	bl	141067f8 <plat_my_core_pos>
    1410387c:	910123e1 	add	x1, sp, #0x48
    14103880:	2a0003f6 	mov	w22, w0
    14103884:	2a1403e0 	mov	w0, w20
    14103888:	97fffd9c 	bl	14102ef8 <psci_validate_power_state>
    1410388c:	34000160 	cbz	w0, 141038b8 <psci_cpu_suspend+0x64>
    14103890:	3100081f 	cmn	w0, #0x2
    14103894:	54000101 	b.ne	141038b4 <psci_cpu_suspend+0x60>  // b.any
    14103898:	12800033 	mov	w19, #0xfffffffe            	// #-2
    1410389c:	a9425bf5 	ldp	x21, x22, [sp, #32]
    141038a0:	2a1303e0 	mov	w0, w19
    141038a4:	a94153f3 	ldp	x19, x20, [sp, #16]
    141038a8:	a94363f7 	ldp	x23, x24, [sp, #48]
    141038ac:	a8c57bfd 	ldp	x29, x30, [sp], #80
    141038b0:	d65f03c0 	ret
    141038b4:	94000be4 	bl	14106844 <__assert>
    141038b8:	d3504294 	ubfx	x20, x20, #16, #1
    141038bc:	910123e0 	add	x0, sp, #0x48
    141038c0:	2a1403e1 	mov	w1, w20
    141038c4:	97fffea1 	bl	14103348 <psci_validate_suspend_req>
    141038c8:	2a0003f3 	mov	w19, w0
    141038cc:	35ffff40 	cbnz	w0, 141038b4 <psci_cpu_suspend+0x60>
    141038d0:	910123e0 	add	x0, sp, #0x48
    141038d4:	97fffe94 	bl	14103324 <psci_find_target_suspend_lvl>
    141038d8:	2a0003f5 	mov	w21, w0
    141038dc:	7100081f 	cmp	w0, #0x2
    141038e0:	54000121 	b.ne	14103904 <psci_cpu_suspend+0xb0>  // b.any
    141038e4:	90000020 	adrp	x0, 14107000 <plat_rebel_h_psci_pm_ops+0x80>
    141038e8:	91142400 	add	x0, x0, #0x509
    141038ec:	97fff4df 	bl	14100c68 <tf_log>
    141038f0:	90000020 	adrp	x0, 14107000 <plat_rebel_h_psci_pm_ops+0x80>
    141038f4:	91212000 	add	x0, x0, #0x848
    141038f8:	97fff43c 	bl	141009e8 <backtrace>
    141038fc:	97fff85d 	bl	14101a70 <console_flush>
    14103900:	94000956 	bl	14105e58 <el3_panic>
    14103904:	2a000280 	orr	w0, w20, w0
    14103908:	35000220 	cbnz	w0, 1410394c <psci_cpu_suspend+0xf8>
    1410390c:	f0000040 	adrp	x0, 1410e000 <__RELA_END__+0x3f80>
    14103910:	f9409c00 	ldr	x0, [x0, #312]
    14103914:	f9400015 	ldr	x21, [x0]
    14103918:	b4fffc15 	cbz	x21, 14103898 <psci_cpu_suspend+0x44>
    1410391c:	394123f6 	ldrb	w22, [sp, #72]
    14103920:	f0000054 	adrp	x20, 1410e000 <__RELA_END__+0x3f80>
    14103924:	91200294 	add	x20, x20, #0x800
    14103928:	aa1403e0 	mov	x0, x20
    1410392c:	97fffd6d 	bl	14102ee0 <per_cpu_cur_compute>
    14103930:	3900a016 	strb	w22, [x0, #40]
    14103934:	2a1603e0 	mov	w0, w22
    14103938:	d63f02a0 	blr	x21
    1410393c:	aa1403e0 	mov	x0, x20
    14103940:	97fffd68 	bl	14102ee0 <per_cpu_cur_compute>
    14103944:	3900a01f 	strb	wzr, [x0, #40]
    14103948:	17ffffd5 	b	1410389c <psci_cpu_suspend+0x48>
    1410394c:	35000114 	cbnz	w20, 1410396c <psci_cpu_suspend+0x118>
    14103950:	2a1403e3 	mov	w3, w20
    14103954:	910123e2 	add	x2, sp, #0x48
    14103958:	2a1503e1 	mov	w1, w21
    1410395c:	2a1603e0 	mov	w0, w22
    14103960:	9400038e 	bl	14104798 <psci_cpu_suspend_start>
    14103964:	2a0003f3 	mov	w19, w0
    14103968:	17ffffcd 	b	1410389c <psci_cpu_suspend+0x48>
    1410396c:	2a1603e0 	mov	w0, w22
    14103970:	f0000041 	adrp	x1, 1410e000 <__RELA_END__+0x3f80>
    14103974:	91200021 	add	x1, x1, #0x800
    14103978:	97fffd4e 	bl	14102eb0 <per_cpu_by_index_compute>
    1410397c:	f9400800 	ldr	x0, [x0, #16]
    14103980:	aa1803e2 	mov	x2, x24
    14103984:	aa1703e1 	mov	x1, x23
    14103988:	97fffec8 	bl	141034a8 <psci_validate_entry_point>
    1410398c:	2a0003f3 	mov	w19, w0
    14103990:	34fffe00 	cbz	w0, 14103950 <psci_cpu_suspend+0xfc>
    14103994:	17ffffc2 	b	1410389c <psci_cpu_suspend+0x48>

0000000014103998 <psci_system_suspend>:
    14103998:	a9bc7bfd 	stp	x29, x30, [sp, #-64]!
    1410399c:	910003fd 	mov	x29, sp
    141039a0:	a90153f3 	stp	x19, x20, [sp, #16]
    141039a4:	aa0003f4 	mov	x20, x0
    141039a8:	a9025bf5 	stp	x21, x22, [sp, #32]
    141039ac:	aa0103f5 	mov	x21, x1
    141039b0:	94000b92 	bl	141067f8 <plat_my_core_pos>
    141039b4:	f0000041 	adrp	x1, 1410e000 <__RELA_END__+0x3f80>
    141039b8:	91200021 	add	x1, x1, #0x800
    141039bc:	2a0003f3 	mov	w19, w0
    141039c0:	97fffd3c 	bl	14102eb0 <per_cpu_by_index_compute>
    141039c4:	f9400816 	ldr	x22, [x0, #16]
    141039c8:	2a1303e0 	mov	w0, w19
    141039cc:	97fffd62 	bl	14102f54 <psci_is_last_on_cpu>
    141039d0:	370000c0 	tbnz	w0, #0, 141039e8 <psci_system_suspend+0x50>
    141039d4:	12800040 	mov	w0, #0xfffffffd            	// #-3
    141039d8:	a94153f3 	ldp	x19, x20, [sp, #16]
    141039dc:	a9425bf5 	ldp	x21, x22, [sp, #32]
    141039e0:	a8c47bfd 	ldp	x29, x30, [sp], #64
    141039e4:	d65f03c0 	ret
    141039e8:	aa1503e2 	mov	x2, x21
    141039ec:	aa1403e1 	mov	x1, x20
    141039f0:	aa1603e0 	mov	x0, x22
    141039f4:	97fffead 	bl	141034a8 <psci_validate_entry_point>
    141039f8:	35ffff00 	cbnz	w0, 141039d8 <psci_system_suspend+0x40>
    141039fc:	9100e3e0 	add	x0, sp, #0x38
    14103a00:	97fffd4c 	bl	14102f30 <psci_query_sys_suspend_pwrstate>
    14103a04:	9100e3e0 	add	x0, sp, #0x38
    14103a08:	97fffe47 	bl	14103324 <psci_find_target_suspend_lvl>
    14103a0c:	34fffe40 	cbz	w0, 141039d4 <psci_system_suspend+0x3c>
    14103a10:	9100e3e0 	add	x0, sp, #0x38
    14103a14:	52800021 	mov	w1, #0x1                   	// #1
    14103a18:	97fffe4c 	bl	14103348 <psci_validate_suspend_req>
    14103a1c:	34000040 	cbz	w0, 14103a24 <psci_system_suspend+0x8c>
    14103a20:	94000b89 	bl	14106844 <__assert>
    14103a24:	3940e7e0 	ldrb	w0, [sp, #57]
    14103a28:	7100081f 	cmp	w0, #0x2
    14103a2c:	54ffffa1 	b.ne	14103a20 <psci_system_suspend+0x88>  // b.any
    14103a30:	52800023 	mov	w3, #0x1                   	// #1
    14103a34:	9100e3e2 	add	x2, sp, #0x38
    14103a38:	2a0303e1 	mov	w1, w3
    14103a3c:	2a1303e0 	mov	w0, w19
    14103a40:	94000356 	bl	14104798 <psci_cpu_suspend_start>
    14103a44:	17ffffe5 	b	141039d8 <psci_system_suspend+0x40>

0000000014103a48 <psci_cpu_off>:
    14103a48:	a9bf7bfd 	stp	x29, x30, [sp, #-16]!
    14103a4c:	52800020 	mov	w0, #0x1                   	// #1
    14103a50:	910003fd 	mov	x29, sp
    14103a54:	94000113 	bl	14103ea0 <psci_do_cpu_off>
    14103a58:	31000c1f 	cmn	w0, #0x3
    14103a5c:	54000040 	b.eq	14103a64 <psci_cpu_off+0x1c>  // b.none
    14103a60:	94000b79 	bl	14106844 <__assert>
    14103a64:	a8c17bfd 	ldp	x29, x30, [sp], #16
    14103a68:	d65f03c0 	ret

0000000014103a6c <psci_affinity_info>:
    14103a6c:	a9be7bfd 	stp	x29, x30, [sp, #-32]!
    14103a70:	910003fd 	mov	x29, sp
    14103a74:	a90153f3 	stp	x19, x20, [sp, #16]
    14103a78:	aa0003f3 	mov	x19, x0
    14103a7c:	2a0103f4 	mov	w20, w1
    14103a80:	97ffff4d 	bl	141037b4 <is_valid_mpidr>
    14103a84:	36000260 	tbz	w0, #0, 14103ad0 <psci_affinity_info+0x64>
    14103a88:	35000254 	cbnz	w20, 14103ad0 <psci_affinity_info+0x64>
    14103a8c:	aa1303e0 	mov	x0, x19
    14103a90:	f0000053 	adrp	x19, 1410e000 <__RELA_END__+0x3f80>
    14103a94:	940006c0 	bl	14105594 <plat_core_pos_by_mpidr>
    14103a98:	91200273 	add	x19, x19, #0x800
    14103a9c:	2a0003f4 	mov	w20, w0
    14103aa0:	aa1303e1 	mov	x1, x19
    14103aa4:	97fffd03 	bl	14102eb0 <per_cpu_by_index_compute>
    14103aa8:	91008000 	add	x0, x0, #0x20
    14103aac:	d2800081 	mov	x1, #0x4                   	// #4
    14103ab0:	94000951 	bl	14105ff4 <flush_dcache_range>
    14103ab4:	aa1303e1 	mov	x1, x19
    14103ab8:	2a1403e0 	mov	w0, w20
    14103abc:	97fffcfd 	bl	14102eb0 <per_cpu_by_index_compute>
    14103ac0:	b9402000 	ldr	w0, [x0, #32]
    14103ac4:	a94153f3 	ldp	x19, x20, [sp, #16]
    14103ac8:	a8c27bfd 	ldp	x29, x30, [sp], #32
    14103acc:	d65f03c0 	ret
    14103ad0:	12800020 	mov	w0, #0xfffffffe            	// #-2
    14103ad4:	17fffffc 	b	14103ac4 <psci_affinity_info+0x58>

0000000014103ad8 <psci_migrate>:
    14103ad8:	a9bd7bfd 	stp	x29, x30, [sp, #-48]!
    14103adc:	910003fd 	mov	x29, sp
    14103ae0:	f9000bf3 	str	x19, [sp, #16]
    14103ae4:	aa0003f3 	mov	x19, x0
    14103ae8:	f90017ff 	str	xzr, [sp, #40]
    14103aec:	97ffff32 	bl	141037b4 <is_valid_mpidr>
    14103af0:	360003c0 	tbz	w0, #0, 14103b68 <psci_migrate+0x90>
    14103af4:	9100a3e0 	add	x0, sp, #0x28
    14103af8:	97fffeef 	bl	141036b4 <psci_spd_migrate_info>
    14103afc:	340000e0 	cbz	w0, 14103b18 <psci_migrate+0x40>
    14103b00:	7100041f 	cmp	w0, #0x1
    14103b04:	12800040 	mov	w0, #0xfffffffd            	// #-3
    14103b08:	5a9f0000 	csinv	w0, w0, wzr, eq	// eq = none
    14103b0c:	f9400bf3 	ldr	x19, [sp, #16]
    14103b10:	a8c37bfd 	ldp	x29, x30, [sp], #48
    14103b14:	d65f03c0 	ret
    14103b18:	d53800a0 	mrs	x0, mpidr_el1
    14103b1c:	f94017e1 	ldr	x1, [sp, #40]
    14103b20:	eb00003f 	cmp	x1, x0
    14103b24:	54000261 	b.ne	14103b70 <psci_migrate+0x98>  // b.any
    14103b28:	aa1303e0 	mov	x0, x19
    14103b2c:	97ffff22 	bl	141037b4 <is_valid_mpidr>
    14103b30:	360001c0 	tbz	w0, #0, 14103b68 <psci_migrate+0x90>
    14103b34:	f0000040 	adrp	x0, 1410e000 <__RELA_END__+0x3f80>
    14103b38:	f940a000 	ldr	x0, [x0, #320]
    14103b3c:	b4000060 	cbz	x0, 14103b48 <psci_migrate+0x70>
    14103b40:	f9401402 	ldr	x2, [x0, #40]
    14103b44:	b5000042 	cbnz	x2, 14103b4c <psci_migrate+0x74>
    14103b48:	94000b3f 	bl	14106844 <__assert>
    14103b4c:	d53800a0 	mrs	x0, mpidr_el1
    14103b50:	aa1303e1 	mov	x1, x19
    14103b54:	d63f0040 	blr	x2
    14103b58:	7100001f 	cmp	w0, #0x0
    14103b5c:	3a461804 	ccmn	w0, #0x6, #0x4, ne	// ne = any
    14103b60:	54fffd60 	b.eq	14103b0c <psci_migrate+0x34>  // b.none
    14103b64:	17fffff9 	b	14103b48 <psci_migrate+0x70>
    14103b68:	12800020 	mov	w0, #0xfffffffe            	// #-2
    14103b6c:	17ffffe8 	b	14103b0c <psci_migrate+0x34>
    14103b70:	128000c0 	mov	w0, #0xfffffff9            	// #-7
    14103b74:	17ffffe6 	b	14103b0c <psci_migrate+0x34>

0000000014103b78 <psci_migrate_info_type>:
    14103b78:	a9be7bfd 	stp	x29, x30, [sp, #-32]!
    14103b7c:	910003fd 	mov	x29, sp
    14103b80:	910063e0 	add	x0, sp, #0x18
    14103b84:	f9000fff 	str	xzr, [sp, #24]
    14103b88:	97fffecb 	bl	141036b4 <psci_spd_migrate_info>
    14103b8c:	a8c27bfd 	ldp	x29, x30, [sp], #32
    14103b90:	d65f03c0 	ret

0000000014103b94 <psci_migrate_info_up_cpu>:
    14103b94:	a9be7bfd 	stp	x29, x30, [sp, #-32]!
    14103b98:	910003fd 	mov	x29, sp
    14103b9c:	910063e0 	add	x0, sp, #0x18
    14103ba0:	f9000fff 	str	xzr, [sp, #24]
    14103ba4:	97fffec4 	bl	141036b4 <psci_spd_migrate_info>
    14103ba8:	7100041f 	cmp	w0, #0x1
    14103bac:	f9400fe1 	ldr	x1, [sp, #24]
    14103bb0:	92800020 	mov	x0, #0xfffffffffffffffe    	// #-2
    14103bb4:	a8c27bfd 	ldp	x29, x30, [sp], #32
    14103bb8:	9a809020 	csel	x0, x1, x0, ls	// ls = plast
    14103bbc:	d65f03c0 	ret

0000000014103bc0 <psci_node_hw_state>:
    14103bc0:	a9be7bfd 	stp	x29, x30, [sp, #-32]!
    14103bc4:	910003fd 	mov	x29, sp
    14103bc8:	a90153f3 	stp	x19, x20, [sp, #16]
    14103bcc:	aa0003f4 	mov	x20, x0
    14103bd0:	2a0103f3 	mov	w19, w1
    14103bd4:	97fffef8 	bl	141037b4 <is_valid_mpidr>
    14103bd8:	36000200 	tbz	w0, #0, 14103c18 <psci_node_hw_state+0x58>
    14103bdc:	7100067f 	cmp	w19, #0x1
    14103be0:	540001c8 	b.hi	14103c18 <psci_node_hw_state+0x58>  // b.pmore
    14103be4:	f0000040 	adrp	x0, 1410e000 <__RELA_END__+0x3f80>
    14103be8:	f9409c00 	ldr	x0, [x0, #312]
    14103bec:	f9404402 	ldr	x2, [x0, #136]
    14103bf0:	b5000042 	cbnz	x2, 14103bf8 <psci_node_hw_state+0x38>
    14103bf4:	94000b14 	bl	14106844 <__assert>
    14103bf8:	2a1303e1 	mov	w1, w19
    14103bfc:	aa1403e0 	mov	x0, x20
    14103c00:	d63f0040 	blr	x2
    14103c04:	11000401 	add	w1, w0, #0x1
    14103c08:	71000c3f 	cmp	w1, #0x3
    14103c0c:	54000089 	b.ls	14103c1c <psci_node_hw_state+0x5c>  // b.plast
    14103c10:	3100081f 	cmn	w0, #0x2
    14103c14:	54ffff01 	b.ne	14103bf4 <psci_node_hw_state+0x34>  // b.any
    14103c18:	12800020 	mov	w0, #0xfffffffe            	// #-2
    14103c1c:	a94153f3 	ldp	x19, x20, [sp, #16]
    14103c20:	a8c27bfd 	ldp	x29, x30, [sp], #32
    14103c24:	d65f03c0 	ret

0000000014103c28 <psci_features>:
    14103c28:	52b00001 	mov	w1, #0x80000000            	// #-2147483648
    14103c2c:	6b01001f 	cmp	w0, w1
    14103c30:	54000260 	b.eq	14103c7c <psci_features+0x54>  // b.none
    14103c34:	f0000041 	adrp	x1, 1410e000 <__RELA_END__+0x3f80>
    14103c38:	b9470821 	ldr	w1, [x1, #1800]
    14103c3c:	36f00080 	tbz	w0, #30, 14103c4c <psci_features+0x24>
    14103c40:	528c1742 	mov	w2, #0x60ba                	// #24762
    14103c44:	72a002e2 	movk	w2, #0x17, lsl #16
    14103c48:	0a020021 	and	w1, w1, w2
    14103c4c:	12081403 	and	w3, w0, #0x3f000000
    14103c50:	52a08002 	mov	w2, #0x4000000             	// #67108864
    14103c54:	6b02007f 	cmp	w3, w2
    14103c58:	54000161 	b.ne	14103c84 <psci_features+0x5c>  // b.any
    14103c5c:	531f7c02 	lsr	w2, w0, #31
    14103c60:	36f80120 	tbz	w0, #31, 14103c84 <psci_features+0x5c>
    14103c64:	721b481f 	tst	w0, #0xffffe0
    14103c68:	540000e1 	b.ne	14103c84 <psci_features+0x5c>  // b.any
    14103c6c:	1ac02040 	lsl	w0, w2, w0
    14103c70:	6a01001f 	tst	w0, w1
    14103c74:	5a9f13e0 	csetm	w0, eq	// eq = none
    14103c78:	d65f03c0 	ret
    14103c7c:	52800000 	mov	w0, #0x0                   	// #0
    14103c80:	17fffffe 	b	14103c78 <psci_features+0x50>
    14103c84:	12800000 	mov	w0, #0xffffffff            	// #-1
    14103c88:	17fffffc 	b	14103c78 <psci_features+0x50>

0000000014103c8c <psci_smc_handler>:
    14103c8c:	36000aa7 	tbz	w7, #0, 14103de0 <psci_smc_handler+0x154>
    14103c90:	f0000045 	adrp	x5, 1410e000 <__RELA_END__+0x3f80>
    14103c94:	2a0003e4 	mov	w4, w0
    14103c98:	aa0103e0 	mov	x0, x1
    14103c9c:	aa0203e1 	mov	x1, x2
    14103ca0:	b94708a5 	ldr	w5, [x5, #1800]
    14103ca4:	aa0303e2 	mov	x2, x3
    14103ca8:	52800023 	mov	w3, #0x1                   	// #1
    14103cac:	1ac42063 	lsl	w3, w3, w4
    14103cb0:	6a05007f 	tst	w3, w5
    14103cb4:	54000960 	b.eq	14103de0 <psci_smc_handler+0x154>  // b.none
    14103cb8:	a9bf7bfd 	stp	x29, x30, [sp, #-16]!
    14103cbc:	910003fd 	mov	x29, sp
    14103cc0:	37f00784 	tbnz	w4, #30, 14103db0 <psci_smc_handler+0x124>
    14103cc4:	52af8003 	mov	w3, #0x7c000000            	// #2080374784
    14103cc8:	0b030083 	add	w3, w4, w3
    14103ccc:	7100507f 	cmp	w3, #0x14
    14103cd0:	54000628 	b.hi	14103d94 <psci_smc_handler+0x108>  // b.pmore
    14103cd4:	90000025 	adrp	x5, 14107000 <plat_rebel_h_psci_pm_ops+0x80>
    14103cd8:	910240a5 	add	x5, x5, #0x90
    14103cdc:	386348a5 	ldrb	w5, [x5, w3, uxtw]
    14103ce0:	10000063 	adr	x3, 14103cec <psci_smc_handler+0x60>
    14103ce4:	8b258865 	add	x5, x3, w5, sxtb #2
    14103ce8:	d61f00a0 	br	x5
    14103cec:	97ffff57 	bl	14103a48 <psci_cpu_off>
    14103cf0:	93407c00 	sxtw	x0, w0
    14103cf4:	1400002d 	b	14103da8 <psci_smc_handler+0x11c>
    14103cf8:	2a0203e2 	mov	w2, w2
    14103cfc:	2a0103e1 	mov	w1, w1
    14103d00:	97fffed5 	bl	14103854 <psci_cpu_suspend>
    14103d04:	17fffffb 	b	14103cf0 <psci_smc_handler+0x64>
    14103d08:	2a0203e2 	mov	w2, w2
    14103d0c:	2a0103e1 	mov	w1, w1
    14103d10:	2a0003e0 	mov	w0, w0
    14103d14:	97fffeaf 	bl	141037d0 <psci_cpu_on>
    14103d18:	17fffff6 	b	14103cf0 <psci_smc_handler+0x64>
    14103d1c:	2a0003e0 	mov	w0, w0
    14103d20:	97ffff53 	bl	14103a6c <psci_affinity_info>
    14103d24:	17fffff3 	b	14103cf0 <psci_smc_handler+0x64>
    14103d28:	2a0003e0 	mov	w0, w0
    14103d2c:	97ffff6b 	bl	14103ad8 <psci_migrate>
    14103d30:	17fffff0 	b	14103cf0 <psci_smc_handler+0x64>
    14103d34:	97ffff91 	bl	14103b78 <psci_migrate_info_type>
    14103d38:	17ffffee 	b	14103cf0 <psci_smc_handler+0x64>
    14103d3c:	a8c17bfd 	ldp	x29, x30, [sp], #16
    14103d40:	17ffff95 	b	14103b94 <psci_migrate_info_up_cpu>
    14103d44:	2a0003e0 	mov	w0, w0
    14103d48:	97ffff9e 	bl	14103bc0 <psci_node_hw_state>
    14103d4c:	17ffffe9 	b	14103cf0 <psci_smc_handler+0x64>
    14103d50:	2a0103e1 	mov	w1, w1
    14103d54:	2a0003e0 	mov	w0, w0
    14103d58:	97ffff10 	bl	14103998 <psci_system_suspend>
    14103d5c:	17ffffe5 	b	14103cf0 <psci_smc_handler+0x64>
    14103d60:	9400030d 	bl	14104994 <psci_system_off>
    14103d64:	94000320 	bl	141049e4 <psci_system_reset>
    14103d68:	97ffffb0 	bl	14103c28 <psci_features>
    14103d6c:	17ffffe1 	b	14103cf0 <psci_smc_handler+0x64>
    14103d70:	a8c17bfd 	ldp	x29, x30, [sp], #16
    14103d74:	1400001d 	b	14103de8 <psci_mem_protect>
    14103d78:	2a0103e1 	mov	w1, w1
    14103d7c:	2a0003e0 	mov	w0, w0
    14103d80:	a8c17bfd 	ldp	x29, x30, [sp], #16
    14103d84:	14000035 	b	14103e58 <psci_mem_chk_range>
    14103d88:	2a0103e1 	mov	w1, w1
    14103d8c:	a8c17bfd 	ldp	x29, x30, [sp], #16
    14103d90:	14000329 	b	14104a34 <psci_system_reset2>
    14103d94:	2a0403e1 	mov	w1, w4
    14103d98:	90000020 	adrp	x0, 14107000 <plat_rebel_h_psci_pm_ops+0x80>
    14103d9c:	9114f000 	add	x0, x0, #0x53c
    14103da0:	97fff3b2 	bl	14100c68 <tf_log>
    14103da4:	92800000 	mov	x0, #0xffffffffffffffff    	// #-1
    14103da8:	a8c17bfd 	ldp	x29, x30, [sp], #16
    14103dac:	d65f03c0 	ret
    14103db0:	12b88003 	mov	w3, #0x3bffffff            	// #1006632959
    14103db4:	0b030083 	add	w3, w4, w3
    14103db8:	71004c7f 	cmp	w3, #0x13
    14103dbc:	54fffec8 	b.hi	14103d94 <psci_smc_handler+0x108>  // b.pmore
    14103dc0:	90000025 	adrp	x5, 14107000 <plat_rebel_h_psci_pm_ops+0x80>
    14103dc4:	9102a0a5 	add	x5, x5, #0xa8
    14103dc8:	386348a5 	ldrb	w5, [x5, w3, uxtw]
    14103dcc:	10000063 	adr	x3, 14103dd8 <psci_smc_handler+0x14c>
    14103dd0:	8b258865 	add	x5, x3, w5, sxtb #2
    14103dd4:	d61f00a0 	br	x5
    14103dd8:	320083e0 	mov	w0, #0x10001               	// #65537
    14103ddc:	17fffff3 	b	14103da8 <psci_smc_handler+0x11c>
    14103de0:	92800000 	mov	x0, #0xffffffffffffffff    	// #-1
    14103de4:	d65f03c0 	ret

0000000014103de8 <psci_mem_protect>:
    14103de8:	a9bd7bfd 	stp	x29, x30, [sp, #-48]!
    14103dec:	910003fd 	mov	x29, sp
    14103df0:	a90153f3 	stp	x19, x20, [sp, #16]
    14103df4:	f0000054 	adrp	x20, 1410e000 <__RELA_END__+0x3f80>
    14103df8:	2a0003f3 	mov	w19, w0
    14103dfc:	f9409e80 	ldr	x0, [x20, #312]
    14103e00:	b9002fff 	str	wzr, [sp, #44]
    14103e04:	f9404c01 	ldr	x1, [x0, #152]
    14103e08:	b5000041 	cbnz	x1, 14103e10 <psci_mem_protect+0x28>
    14103e0c:	94000a8e 	bl	14106844 <__assert>
    14103e10:	f9405000 	ldr	x0, [x0, #160]
    14103e14:	b4ffffc0 	cbz	x0, 14103e0c <psci_mem_protect+0x24>
    14103e18:	9100b3e0 	add	x0, sp, #0x2c
    14103e1c:	d63f0020 	blr	x1
    14103e20:	36f800a0 	tbz	w0, #31, 14103e34 <psci_mem_protect+0x4c>
    14103e24:	92800000 	mov	x0, #0xffffffffffffffff    	// #-1
    14103e28:	a94153f3 	ldp	x19, x20, [sp, #16]
    14103e2c:	a8c37bfd 	ldp	x29, x30, [sp], #48
    14103e30:	d65f03c0 	ret
    14103e34:	f9409e80 	ldr	x0, [x20, #312]
    14103e38:	f9405001 	ldr	x1, [x0, #160]
    14103e3c:	2a1303e0 	mov	w0, w19
    14103e40:	d63f0020 	blr	x1
    14103e44:	37ffff00 	tbnz	w0, #31, 14103e24 <psci_mem_protect+0x3c>
    14103e48:	b9402fe0 	ldr	w0, [sp, #44]
    14103e4c:	7100001f 	cmp	w0, #0x0
    14103e50:	9a9f07e0 	cset	x0, ne	// ne = any
    14103e54:	17fffff5 	b	14103e28 <psci_mem_protect+0x40>

0000000014103e58 <psci_mem_chk_range>:
    14103e58:	a9bf7bfd 	stp	x29, x30, [sp, #-16]!
    14103e5c:	f0000044 	adrp	x4, 1410e000 <__RELA_END__+0x3f80>
    14103e60:	910003fd 	mov	x29, sp
    14103e64:	f9409c84 	ldr	x4, [x4, #312]
    14103e68:	f9404884 	ldr	x4, [x4, #144]
    14103e6c:	b5000044 	cbnz	x4, 14103e74 <psci_mem_chk_range+0x1c>
    14103e70:	94000a75 	bl	14106844 <__assert>
    14103e74:	b4000081 	cbz	x1, 14103e84 <psci_mem_chk_range+0x2c>
    14103e78:	cb0103e2 	neg	x2, x1
    14103e7c:	eb00005f 	cmp	x2, x0
    14103e80:	54000082 	b.cs	14103e90 <psci_mem_chk_range+0x38>  // b.hs, b.nlast
    14103e84:	92800040 	mov	x0, #0xfffffffffffffffd    	// #-3
    14103e88:	a8c17bfd 	ldp	x29, x30, [sp], #16
    14103e8c:	d65f03c0 	ret
    14103e90:	d63f0080 	blr	x4
    14103e94:	37ffff80 	tbnz	w0, #31, 14103e84 <psci_mem_chk_range+0x2c>
    14103e98:	d2800000 	mov	x0, #0x0                   	// #0
    14103e9c:	17fffffb 	b	14103e88 <psci_mem_chk_range+0x30>

0000000014103ea0 <psci_do_cpu_off>:
    14103ea0:	a9bc7bfd 	stp	x29, x30, [sp, #-64]!
    14103ea4:	910003fd 	mov	x29, sp
    14103ea8:	a9025bf5 	stp	x21, x22, [sp, #32]
    14103eac:	f0000056 	adrp	x22, 1410e000 <__RELA_END__+0x3f80>
    14103eb0:	a90153f3 	stp	x19, x20, [sp, #16]
    14103eb4:	2a0003f4 	mov	w20, w0
    14103eb8:	94000a50 	bl	141067f8 <plat_my_core_pos>
    14103ebc:	2a0003f5 	mov	w21, w0
    14103ec0:	b9003bff 	str	wzr, [sp, #56]
    14103ec4:	f9409ec0 	ldr	x0, [x22, #312]
    14103ec8:	f9400801 	ldr	x1, [x0, #16]
    14103ecc:	b4000801 	cbz	x1, 14103fcc <psci_do_cpu_off+0x12c>
    14103ed0:	52804041 	mov	w1, #0x202                 	// #514
    14103ed4:	790063e1 	strh	w1, [sp, #48]
    14103ed8:	f9400c01 	ldr	x1, [x0, #24]
    14103edc:	b50007a1 	cbnz	x1, 14103fd0 <psci_do_cpu_off+0x130>
    14103ee0:	52800013 	mov	w19, #0x0                   	// #0
    14103ee4:	9100e3e2 	add	x2, sp, #0x38
    14103ee8:	2a1403e1 	mov	w1, w20
    14103eec:	2a1503e0 	mov	w0, w21
    14103ef0:	97fffc92 	bl	14103138 <psci_get_parent_pwr_domain_nodes>
    14103ef4:	2a1403e0 	mov	w0, w20
    14103ef8:	9100e3e1 	add	x1, sp, #0x38
    14103efc:	97fffd3a 	bl	141033e4 <psci_acquire_pwr_domain_locks>
    14103f00:	f0000040 	adrp	x0, 1410e000 <__RELA_END__+0x3f80>
    14103f04:	f940a000 	ldr	x0, [x0, #320]
    14103f08:	b40000e0 	cbz	x0, 14103f24 <psci_do_cpu_off+0x84>
    14103f0c:	f9400401 	ldr	x1, [x0, #8]
    14103f10:	b40000a1 	cbz	x1, 14103f24 <psci_do_cpu_off+0x84>
    14103f14:	d2800000 	mov	x0, #0x0                   	// #0
    14103f18:	d63f0020 	blr	x1
    14103f1c:	2a0003f3 	mov	w19, w0
    14103f20:	35000200 	cbnz	w0, 14103f60 <psci_do_cpu_off+0xc0>
    14103f24:	9100c3e2 	add	x2, sp, #0x30
    14103f28:	2a1403e1 	mov	w1, w20
    14103f2c:	2a1503e0 	mov	w0, w21
    14103f30:	97fffcc9 	bl	14103254 <psci_do_state_coordination>
    14103f34:	2a1403e1 	mov	w1, w20
    14103f38:	9100c3e2 	add	x2, sp, #0x30
    14103f3c:	2a1503e0 	mov	w0, w21
    14103f40:	97fffc56 	bl	14103098 <psci_set_target_local_pwr_states>
    14103f44:	9100c3e0 	add	x0, sp, #0x30
    14103f48:	97fffcec 	bl	141032f8 <psci_find_max_off_lvl>
    14103f4c:	97fffdeb 	bl	141036f8 <psci_pwrdown_cpu_start>
    14103f50:	f9409ec0 	ldr	x0, [x22, #312]
    14103f54:	f9400801 	ldr	x1, [x0, #16]
    14103f58:	9100c3e0 	add	x0, sp, #0x30
    14103f5c:	d63f0020 	blr	x1
    14103f60:	9100e3e1 	add	x1, sp, #0x38
    14103f64:	2a1403e0 	mov	w0, w20
    14103f68:	97fffd3a 	bl	14103450 <psci_release_pwr_domain_locks>
    14103f6c:	350003d3 	cbnz	w19, 14103fe4 <psci_do_cpu_off+0x144>
    14103f70:	f0000053 	adrp	x19, 1410e000 <__RELA_END__+0x3f80>
    14103f74:	91200273 	add	x19, x19, #0x800
    14103f78:	aa1303e0 	mov	x0, x19
    14103f7c:	97fffbd9 	bl	14102ee0 <per_cpu_cur_compute>
    14103f80:	d2800081 	mov	x1, #0x4                   	// #4
    14103f84:	91008000 	add	x0, x0, #0x20
    14103f88:	9400081b 	bl	14105ff4 <flush_dcache_range>
    14103f8c:	aa1303e0 	mov	x0, x19
    14103f90:	97fffbd4 	bl	14102ee0 <per_cpu_cur_compute>
    14103f94:	52800021 	mov	w1, #0x1                   	// #1
    14103f98:	b9002001 	str	w1, [x0, #32]
    14103f9c:	d5033b9f 	dsb	ish
    14103fa0:	aa1303e0 	mov	x0, x19
    14103fa4:	97fffbcf 	bl	14102ee0 <per_cpu_cur_compute>
    14103fa8:	d2800081 	mov	x1, #0x4                   	// #4
    14103fac:	91008000 	add	x0, x0, #0x20
    14103fb0:	9400082d 	bl	14106064 <inv_dcache_range>
    14103fb4:	f9409ec0 	ldr	x0, [x22, #312]
    14103fb8:	f9402401 	ldr	x1, [x0, #72]
    14103fbc:	b4000061 	cbz	x1, 14103fc8 <psci_do_cpu_off+0x128>
    14103fc0:	9100c3e0 	add	x0, sp, #0x30
    14103fc4:	d63f0020 	blr	x1
    14103fc8:	97fffde0 	bl	14103748 <psci_pwrdown_cpu_end_terminal>
    14103fcc:	94000a1e 	bl	14106844 <__assert>
    14103fd0:	9100c3e0 	add	x0, sp, #0x30
    14103fd4:	d63f0020 	blr	x1
    14103fd8:	2a0003f3 	mov	w19, w0
    14103fdc:	31000c1f 	cmn	w0, #0x3
    14103fe0:	54fff821 	b.ne	14103ee4 <psci_do_cpu_off+0x44>  // b.any
    14103fe4:	a9425bf5 	ldp	x21, x22, [sp, #32]
    14103fe8:	2a1303e0 	mov	w0, w19
    14103fec:	a94153f3 	ldp	x19, x20, [sp, #16]
    14103ff0:	a8c47bfd 	ldp	x29, x30, [sp], #64
    14103ff4:	d65f03c0 	ret

0000000014103ff8 <psci_cpu_on_start>:
    14103ff8:	a9bc7bfd 	stp	x29, x30, [sp, #-64]!
    14103ffc:	910003fd 	mov	x29, sp
    14104000:	a90363f7 	stp	x23, x24, [sp, #48]
    14104004:	d0000057 	adrp	x23, 1410e000 <__RELA_END__+0x3f80>
    14104008:	a90153f3 	stp	x19, x20, [sp, #16]
    1410400c:	a9025bf5 	stp	x21, x22, [sp, #32]
    14104010:	aa0003f5 	mov	x21, x0
    14104014:	94000560 	bl	14105594 <plat_core_pos_by_mpidr>
