Archive member included to satisfy reference by file (symbol)

libfreertos_kernel.a(queue.c.o)
                              CMakeFiles/freertos_kernel.elf.dir/main_cm7.c.o (xQueueGenericSend)
libfreertos_kernel.a(tasks.c.o)
                              CMakeFiles/freertos_kernel.elf.dir/main_cm7.c.o (xTaskCreate)
libfreertos_kernel.a(timers.c.o)
                              libfreertos_kernel.a(tasks.c.o) (xTimerCreateTimerTask)
libfreertos_kernel.a(heap_4.c.o)
                              libfreertos_kernel.a(queue.c.o) (pvPortMalloc)
libfreertos_kernel.a(list.c.o)
                              libfreertos_kernel.a(queue.c.o) (vListInitialise)
portable/libfreertos_kernel_port.a(start.S.o)
                              (_vector_table)
portable/libfreertos_kernel_port.a(system_rebelh_cm7.c.o)
                              portable/libfreertos_kernel_port.a(start.S.o) (system_init)
portable/libfreertos_kernel_port.a(port.c.o)
                              libfreertos_kernel.a(tasks.c.o) (pxPortInitialiseStack)
portable/libfreertos_kernel_port.a(fpu.S.o)
                              portable/libfreertos_kernel_port.a(system_rebelh_cm7.c.o) (fpu_enable)
build/drivers/common/libdriver.a(driver.c.o)
                              CMakeFiles/freertos_kernel.elf.dir/main_cm7.c.o (init_drivers_by_calling_init_entry)
build/drivers/common/libassert.a(assert.c.o)
                              build/drivers/pvt_con/CMakeFiles/pvt_con.dir/pvt_con.c.o (assert)
build/drivers/common/libinterrupt.a(interrupt.c.o)
                              build/drivers/mailbox/CMakeFiles/mailbox.dir/mailbox.c.o (enable_all_interrupts)
build/drivers/bat/libbat.a(bat.c.o)
                              portable/libfreertos_kernel_port.a(system_rebelh_cm7.c.o) (bat_set_page)
services/cli_service/libcli_service.a(cli_task.c.o)
                              CMakeFiles/freertos_kernel.elf.dir/main_cm7.c.o (cli_task_init)
services/cli_service/libcli_service.a(sys_command_line.c.o)
                              services/cli_service/libcli_service.a(cli_task.c.o) (cli_init)
services/terminal_service/libterminal_service.a(console_uart.c.o)
                              CMakeFiles/freertos_kernel.elf.dir/main_cm7.c.o (console_uart_init)
services/terminal_service/libterminal_service.a(console.c.o)
                              services/terminal_service/libterminal_service.a(console_uart.c.o) (console_dev_register)
services/terminal_service/libterminal_service.a(terminal_task.c.o)
                              CMakeFiles/freertos_kernel.elf.dir/main_cm7.c.o (terminal_init)
build/unity/libunity.a(unity.c.o)
                              build/tests/interrupt_test_helper_example/CMakeFiles/interrupt_test_helper_example.dir/example_test.c.o (UnityAssertEqualNumber)
build/unity/libunity.a(unity_fixture.c.o)
                              build/unity/libunity.a(unity.c.o) (set_up)
build/interrupt_test_helper/libinterrupt_test_helper.a(interrupt_test_helper.c.o)
                              build/tests/interrupt_test_helper_example/CMakeFiles/interrupt_test_helper_example.dir/example_test.c.o (interrupt_test_init)
libfreertos_kernel.a(event_groups.c.o)
                              services/terminal_service/libterminal_service.a(terminal_task.c.o) (xEventGroupCreate)
libfreertos_kernel.a(stream_buffer.c.o)
                              services/terminal_service/libterminal_service.a(terminal_task.c.o) (xStreamBufferSend)
build/common/arch/libcommon.a(printf.c.o)
                              CMakeFiles/freertos_kernel.elf.dir/main_cm7.c.o (printf_)
build/common/arch/libcommon.a(system_api.c.o)
                              build/tests/pvt_con/CMakeFiles/pvt_cli.dir/pvt_cli_show.c.o (mdelay)
/tools/arm-gnu-toolchain-13.2.Rel1-x86_64-arm-none-eabi/bin/../lib/gcc/arm-none-eabi/13.2.1/thumb/v7e-m+dp/hard/libgcc.a(_aeabi_uldivmod.o)
                              gloss/CMakeFiles/freedom_metal.dir/sys_gettimeofday.c.o (__aeabi_uldivmod)
/tools/arm-gnu-toolchain-13.2.Rel1-x86_64-arm-none-eabi/bin/../lib/gcc/arm-none-eabi/13.2.1/thumb/v7e-m+dp/hard/libgcc.a(_udivmoddi4.o)
                              /tools/arm-gnu-toolchain-13.2.Rel1-x86_64-arm-none-eabi/bin/../lib/gcc/arm-none-eabi/13.2.1/thumb/v7e-m+dp/hard/libgcc.a(_aeabi_uldivmod.o) (__udivmoddi4)
/tools/arm-gnu-toolchain-13.2.Rel1-x86_64-arm-none-eabi/bin/../lib/gcc/arm-none-eabi/13.2.1/thumb/v7e-m+dp/hard/libgcc.a(_dvmd_tls.o)
                              /tools/arm-gnu-toolchain-13.2.Rel1-x86_64-arm-none-eabi/bin/../lib/gcc/arm-none-eabi/13.2.1/thumb/v7e-m+dp/hard/libgcc.a(_aeabi_uldivmod.o) (__aeabi_ldiv0)
/tools/arm-gnu-toolchain-13.2.Rel1-x86_64-arm-none-eabi/bin/../lib/gcc/arm-none-eabi/13.2.1/../../../../arm-none-eabi/lib/thumb/v7e-m+dp/hard/libg.a(libc_a-strtol.o)
                              build/tests/pcie/CMakeFiles/pcie_test.dir/test_pcie_capability.c.o (strtol)
/tools/arm-gnu-toolchain-13.2.Rel1-x86_64-arm-none-eabi/bin/../lib/gcc/arm-none-eabi/13.2.1/../../../../arm-none-eabi/lib/thumb/v7e-m+dp/hard/libg.a(libc_a-strtoul.o)
                              build/tests/pcie/CMakeFiles/pcie_test.dir/test_pcie_msix.c.o (strtoul)
/tools/arm-gnu-toolchain-13.2.Rel1-x86_64-arm-none-eabi/bin/../lib/gcc/arm-none-eabi/13.2.1/../../../../arm-none-eabi/lib/thumb/v7e-m+dp/hard/libg.a(libc_a-strncmp.o)
                              build/tests/pcie/CMakeFiles/pcie_test.dir/test_pcie_main.c.o (strncmp)
/tools/arm-gnu-toolchain-13.2.Rel1-x86_64-arm-none-eabi/bin/../lib/gcc/arm-none-eabi/13.2.1/../../../../arm-none-eabi/lib/thumb/v7e-m+dp/hard/libg.a(libc_a-strtoll.o)
                              build/tests/pcie/CMakeFiles/pcie_test.dir/test_pcie_iatu.c.o (strtoll)
/tools/arm-gnu-toolchain-13.2.Rel1-x86_64-arm-none-eabi/bin/../lib/gcc/arm-none-eabi/13.2.1/../../../../arm-none-eabi/lib/thumb/v7e-m+dp/hard/libg.a(libc_a-strncpy.o)
                              services/cli_service/libcli_service.a(sys_command_line.c.o) (strncpy)
/tools/arm-gnu-toolchain-13.2.Rel1-x86_64-arm-none-eabi/bin/../lib/gcc/arm-none-eabi/13.2.1/../../../../arm-none-eabi/lib/thumb/v7e-m+dp/hard/libg.a(libc_a-strtoull.o)
                              build/tests/pcie/CMakeFiles/pcie_test.dir/test_pcie_hdma.c.o (strtoull)
/tools/arm-gnu-toolchain-13.2.Rel1-x86_64-arm-none-eabi/bin/../lib/gcc/arm-none-eabi/13.2.1/../../../../arm-none-eabi/lib/thumb/v7e-m+dp/hard/libg.a(libc_a-strpbrk.o)
                              services/cli_service/libcli_service.a(sys_command_line.c.o) (strpbrk)
/tools/arm-gnu-toolchain-13.2.Rel1-x86_64-arm-none-eabi/bin/../lib/gcc/arm-none-eabi/13.2.1/../../../../arm-none-eabi/lib/thumb/v7e-m+dp/hard/libg.a(libc_a-strlen.o)
                              services/cli_service/libcli_service.a(sys_command_line.c.o) (strlen)
/tools/arm-gnu-toolchain-13.2.Rel1-x86_64-arm-none-eabi/bin/../lib/gcc/arm-none-eabi/13.2.1/../../../../arm-none-eabi/lib/thumb/v7e-m+dp/hard/libg.a(libc_a-strspn.o)
                              services/cli_service/libcli_service.a(sys_command_line.c.o) (strspn)
/tools/arm-gnu-toolchain-13.2.Rel1-x86_64-arm-none-eabi/bin/../lib/gcc/arm-none-eabi/13.2.1/../../../../arm-none-eabi/lib/thumb/v7e-m+dp/hard/libg.a(libc_a-strstr.o)
                              services/cli_service/libcli_service.a(sys_command_line.c.o) (strstr)
/tools/arm-gnu-toolchain-13.2.Rel1-x86_64-arm-none-eabi/bin/../lib/gcc/arm-none-eabi/13.2.1/../../../../arm-none-eabi/lib/thumb/v7e-m+dp/hard/libg.a(libc_a-errno.o)
                              gloss/CMakeFiles/freedom_metal.dir/nanosleep.c.o (__errno)
/tools/arm-gnu-toolchain-13.2.Rel1-x86_64-arm-none-eabi/bin/../lib/gcc/arm-none-eabi/13.2.1/../../../../arm-none-eabi/lib/thumb/v7e-m+dp/hard/libg.a(libc_a-time.o)
                              build/tests/pcie/CMakeFiles/pcie_test.dir/test_pcie_epf.c.o (time)
/tools/arm-gnu-toolchain-13.2.Rel1-x86_64-arm-none-eabi/bin/../lib/gcc/arm-none-eabi/13.2.1/../../../../arm-none-eabi/lib/thumb/v7e-m+dp/hard/libg.a(libc_a-memcmp.o)
                              services/cli_service/libcli_service.a(sys_command_line.c.o) (memcmp)
/tools/arm-gnu-toolchain-13.2.Rel1-x86_64-arm-none-eabi/bin/../lib/gcc/arm-none-eabi/13.2.1/../../../../arm-none-eabi/lib/thumb/v7e-m+dp/hard/libg.a(libc_a-memset.o)
                              build/tests/pcie/CMakeFiles/pcie_test.dir/test_pcie_iatu.c.o (memset)
/tools/arm-gnu-toolchain-13.2.Rel1-x86_64-arm-none-eabi/bin/../lib/gcc/arm-none-eabi/13.2.1/../../../../arm-none-eabi/lib/thumb/v7e-m+dp/hard/libg.a(libc_a-strcmp.o)
                              build/tests/pcie/CMakeFiles/pcie_test.dir/test_pcie_main.c.o (strcmp)
/tools/arm-gnu-toolchain-13.2.Rel1-x86_64-arm-none-eabi/bin/../lib/gcc/arm-none-eabi/13.2.1/../../../../arm-none-eabi/lib/thumb/v7e-m+dp/hard/libg.a(libc_a-atoi.o)
                              build/tests/mailbox/CMakeFiles/mailbox_test.dir/test_mailbox_main.c.o (atoi)
/tools/arm-gnu-toolchain-13.2.Rel1-x86_64-arm-none-eabi/bin/../lib/gcc/arm-none-eabi/13.2.1/../../../../arm-none-eabi/lib/thumb/v7e-m+dp/hard/libg.a(libc_a-strchr.o)
                              /tools/arm-gnu-toolchain-13.2.Rel1-x86_64-arm-none-eabi/bin/../lib/gcc/arm-none-eabi/13.2.1/../../../../arm-none-eabi/lib/thumb/v7e-m+dp/hard/libg.a(libc_a-strstr.o) (strchr)
/tools/arm-gnu-toolchain-13.2.Rel1-x86_64-arm-none-eabi/bin/../lib/gcc/arm-none-eabi/13.2.1/../../../../arm-none-eabi/lib/thumb/v7e-m+dp/hard/libg.a(libc_a-rand.o)
                              build/tests/pcie/CMakeFiles/pcie_test.dir/test_pcie_epf.c.o (srand)
/tools/arm-gnu-toolchain-13.2.Rel1-x86_64-arm-none-eabi/bin/../lib/gcc/arm-none-eabi/13.2.1/../../../../arm-none-eabi/lib/thumb/v7e-m+dp/hard/libg.a(libc_a-ctype_.o)
                              /tools/arm-gnu-toolchain-13.2.Rel1-x86_64-arm-none-eabi/bin/../lib/gcc/arm-none-eabi/13.2.1/../../../../arm-none-eabi/lib/thumb/v7e-m+dp/hard/libg.a(libc_a-strtol.o) (_ctype_)
/tools/arm-gnu-toolchain-13.2.Rel1-x86_64-arm-none-eabi/bin/../lib/gcc/arm-none-eabi/13.2.1/../../../../arm-none-eabi/lib/thumb/v7e-m+dp/hard/libg.a(libc_a-impure.o)
                              libfreertos_kernel.a(tasks.c.o) (_impure_ptr)
/tools/arm-gnu-toolchain-13.2.Rel1-x86_64-arm-none-eabi/bin/../lib/gcc/arm-none-eabi/13.2.1/../../../../arm-none-eabi/lib/thumb/v7e-m+dp/hard/libg.a(libc_a-findfp.o)
                              libfreertos_kernel.a(tasks.c.o) (__sf)
/tools/arm-gnu-toolchain-13.2.Rel1-x86_64-arm-none-eabi/bin/../lib/gcc/arm-none-eabi/13.2.1/../../../../arm-none-eabi/lib/thumb/v7e-m+dp/hard/libg.a(libc_a-memcpy.o)
                              build/drivers/uart/CMakeFiles/uart.dir/uart.c.o (memcpy)
/tools/arm-gnu-toolchain-13.2.Rel1-x86_64-arm-none-eabi/bin/../lib/gcc/arm-none-eabi/13.2.1/../../../../arm-none-eabi/lib/thumb/v7e-m+dp/hard/libg.a(libc_a-strnlen.o)
                              /tools/arm-gnu-toolchain-13.2.Rel1-x86_64-arm-none-eabi/bin/../lib/gcc/arm-none-eabi/13.2.1/../../../../arm-none-eabi/lib/thumb/v7e-m+dp/hard/libg.a(libc_a-strstr.o) (strnlen)
/tools/arm-gnu-toolchain-13.2.Rel1-x86_64-arm-none-eabi/bin/../lib/gcc/arm-none-eabi/13.2.1/../../../../arm-none-eabi/lib/thumb/v7e-m+dp/hard/libg.a(libc_a-gettimeofdayr.o)
                              /tools/arm-gnu-toolchain-13.2.Rel1-x86_64-arm-none-eabi/bin/../lib/gcc/arm-none-eabi/13.2.1/../../../../arm-none-eabi/lib/thumb/v7e-m+dp/hard/libg.a(libc_a-time.o) (_gettimeofday_r)
/tools/arm-gnu-toolchain-13.2.Rel1-x86_64-arm-none-eabi/bin/../lib/gcc/arm-none-eabi/13.2.1/../../../../arm-none-eabi/lib/thumb/v7e-m+dp/hard/libg.a(libc_a-stdio.o)
                              /tools/arm-gnu-toolchain-13.2.Rel1-x86_64-arm-none-eabi/bin/../lib/gcc/arm-none-eabi/13.2.1/../../../../arm-none-eabi/lib/thumb/v7e-m+dp/hard/libg.a(libc_a-findfp.o) (__sread)
/tools/arm-gnu-toolchain-13.2.Rel1-x86_64-arm-none-eabi/bin/../lib/gcc/arm-none-eabi/13.2.1/../../../../arm-none-eabi/lib/thumb/v7e-m+dp/hard/libg.a(libc_a-fwalk.o)
                              /tools/arm-gnu-toolchain-13.2.Rel1-x86_64-arm-none-eabi/bin/../lib/gcc/arm-none-eabi/13.2.1/../../../../arm-none-eabi/lib/thumb/v7e-m+dp/hard/libg.a(libc_a-findfp.o) (_fwalk_sglue)
/tools/arm-gnu-toolchain-13.2.Rel1-x86_64-arm-none-eabi/bin/../lib/gcc/arm-none-eabi/13.2.1/../../../../arm-none-eabi/lib/thumb/v7e-m+dp/hard/libg.a(libc_a-writer.o)
                              /tools/arm-gnu-toolchain-13.2.Rel1-x86_64-arm-none-eabi/bin/../lib/gcc/arm-none-eabi/13.2.1/../../../../arm-none-eabi/lib/thumb/v7e-m+dp/hard/libg.a(libc_a-stdio.o) (_write_r)
/tools/arm-gnu-toolchain-13.2.Rel1-x86_64-arm-none-eabi/bin/../lib/gcc/arm-none-eabi/13.2.1/../../../../arm-none-eabi/lib/thumb/v7e-m+dp/hard/libg.a(libc_a-mallocr.o)
                              /tools/arm-gnu-toolchain-13.2.Rel1-x86_64-arm-none-eabi/bin/../lib/gcc/arm-none-eabi/13.2.1/../../../../arm-none-eabi/lib/thumb/v7e-m+dp/hard/libg.a(libc_a-findfp.o) (_malloc_r)
/tools/arm-gnu-toolchain-13.2.Rel1-x86_64-arm-none-eabi/bin/../lib/gcc/arm-none-eabi/13.2.1/../../../../arm-none-eabi/lib/thumb/v7e-m+dp/hard/libg.a(libc_a-lock.o)
                              /tools/arm-gnu-toolchain-13.2.Rel1-x86_64-arm-none-eabi/bin/../lib/gcc/arm-none-eabi/13.2.1/../../../../arm-none-eabi/lib/thumb/v7e-m+dp/hard/libg.a(libc_a-findfp.o) (__retarget_lock_init_recursive)
/tools/arm-gnu-toolchain-13.2.Rel1-x86_64-arm-none-eabi/bin/../lib/gcc/arm-none-eabi/13.2.1/../../../../arm-none-eabi/lib/thumb/v7e-m+dp/hard/libg.a(libc_a-fclose.o)
                              /tools/arm-gnu-toolchain-13.2.Rel1-x86_64-arm-none-eabi/bin/../lib/gcc/arm-none-eabi/13.2.1/../../../../arm-none-eabi/lib/thumb/v7e-m+dp/hard/libg.a(libc_a-findfp.o) (_fclose_r)
/tools/arm-gnu-toolchain-13.2.Rel1-x86_64-arm-none-eabi/bin/../lib/gcc/arm-none-eabi/13.2.1/../../../../arm-none-eabi/lib/thumb/v7e-m+dp/hard/libg.a(libc_a-mlock.o)
                              /tools/arm-gnu-toolchain-13.2.Rel1-x86_64-arm-none-eabi/bin/../lib/gcc/arm-none-eabi/13.2.1/../../../../arm-none-eabi/lib/thumb/v7e-m+dp/hard/libg.a(libc_a-mallocr.o) (__malloc_lock)
/tools/arm-gnu-toolchain-13.2.Rel1-x86_64-arm-none-eabi/bin/../lib/gcc/arm-none-eabi/13.2.1/../../../../arm-none-eabi/lib/thumb/v7e-m+dp/hard/libg.a(libc_a-closer.o)
                              /tools/arm-gnu-toolchain-13.2.Rel1-x86_64-arm-none-eabi/bin/../lib/gcc/arm-none-eabi/13.2.1/../../../../arm-none-eabi/lib/thumb/v7e-m+dp/hard/libg.a(libc_a-stdio.o) (_close_r)
/tools/arm-gnu-toolchain-13.2.Rel1-x86_64-arm-none-eabi/bin/../lib/gcc/arm-none-eabi/13.2.1/../../../../arm-none-eabi/lib/thumb/v7e-m+dp/hard/libg.a(libc_a-reent.o)
                              /tools/arm-gnu-toolchain-13.2.Rel1-x86_64-arm-none-eabi/bin/../lib/gcc/arm-none-eabi/13.2.1/../../../../arm-none-eabi/lib/thumb/v7e-m+dp/hard/libg.a(libc_a-gettimeofdayr.o) (errno)
/tools/arm-gnu-toolchain-13.2.Rel1-x86_64-arm-none-eabi/bin/../lib/gcc/arm-none-eabi/13.2.1/../../../../arm-none-eabi/lib/thumb/v7e-m+dp/hard/libg.a(libc_a-fflush.o)
                              /tools/arm-gnu-toolchain-13.2.Rel1-x86_64-arm-none-eabi/bin/../lib/gcc/arm-none-eabi/13.2.1/../../../../arm-none-eabi/lib/thumb/v7e-m+dp/hard/libg.a(libc_a-fclose.o) (__sflush_r)
/tools/arm-gnu-toolchain-13.2.Rel1-x86_64-arm-none-eabi/bin/../lib/gcc/arm-none-eabi/13.2.1/../../../../arm-none-eabi/lib/thumb/v7e-m+dp/hard/libg.a(libc_a-freer.o)
                              /tools/arm-gnu-toolchain-13.2.Rel1-x86_64-arm-none-eabi/bin/../lib/gcc/arm-none-eabi/13.2.1/../../../../arm-none-eabi/lib/thumb/v7e-m+dp/hard/libg.a(libc_a-mallocr.o) (_free_r)
/tools/arm-gnu-toolchain-13.2.Rel1-x86_64-arm-none-eabi/bin/../lib/gcc/arm-none-eabi/13.2.1/../../../../arm-none-eabi/lib/thumb/v7e-m+dp/hard/libg.a(libc_a-lseekr.o)
                              /tools/arm-gnu-toolchain-13.2.Rel1-x86_64-arm-none-eabi/bin/../lib/gcc/arm-none-eabi/13.2.1/../../../../arm-none-eabi/lib/thumb/v7e-m+dp/hard/libg.a(libc_a-stdio.o) (_lseek_r)
/tools/arm-gnu-toolchain-13.2.Rel1-x86_64-arm-none-eabi/bin/../lib/gcc/arm-none-eabi/13.2.1/../../../../arm-none-eabi/lib/thumb/v7e-m+dp/hard/libg.a(libc_a-readr.o)
                              /tools/arm-gnu-toolchain-13.2.Rel1-x86_64-arm-none-eabi/bin/../lib/gcc/arm-none-eabi/13.2.1/../../../../arm-none-eabi/lib/thumb/v7e-m+dp/hard/libg.a(libc_a-stdio.o) (_read_r)
/tools/arm-gnu-toolchain-13.2.Rel1-x86_64-arm-none-eabi/bin/../lib/gcc/arm-none-eabi/13.2.1/../../../../arm-none-eabi/lib/thumb/v7e-m+dp/hard/libg.a(libc_a-sbrkr.o)
                              /tools/arm-gnu-toolchain-13.2.Rel1-x86_64-arm-none-eabi/bin/../lib/gcc/arm-none-eabi/13.2.1/../../../../arm-none-eabi/lib/thumb/v7e-m+dp/hard/libg.a(libc_a-mallocr.o) (_sbrk_r)

There are no discarded input sections

Memory Configuration

Name             Origin             Length             Attributes
SRAM             0x00000000         0x00040000         xwl
*default*        0x00000000         0xffffffff

Linker script and memory map

LOAD CMakeFiles/freertos_kernel.elf.dir/main_cm7.c.o
LOAD gloss/CMakeFiles/freedom_metal.dir/freedom_metal.c.o
LOAD gloss/CMakeFiles/freedom_metal.dir/nanosleep.c.o
LOAD gloss/CMakeFiles/freedom_metal.dir/sys_access.c.o
LOAD gloss/CMakeFiles/freedom_metal.dir/sys_chdir.c.o
LOAD gloss/CMakeFiles/freedom_metal.dir/sys_chmod.c.o
LOAD gloss/CMakeFiles/freedom_metal.dir/sys_chown.c.o
LOAD gloss/CMakeFiles/freedom_metal.dir/sys_clock_gettime.c.o
LOAD gloss/CMakeFiles/freedom_metal.dir/sys_close.c.o
LOAD gloss/CMakeFiles/freedom_metal.dir/sys_execve.c.o
LOAD gloss/CMakeFiles/freedom_metal.dir/sys_exit.c.o
LOAD gloss/CMakeFiles/freedom_metal.dir/sys_faccessat.c.o
LOAD gloss/CMakeFiles/freedom_metal.dir/sys_fork.c.o
LOAD gloss/CMakeFiles/freedom_metal.dir/sys_fstat.c.o
LOAD gloss/CMakeFiles/freedom_metal.dir/sys_fstatat.c.o
LOAD gloss/CMakeFiles/freedom_metal.dir/sys_ftime.c.o
LOAD gloss/CMakeFiles/freedom_metal.dir/sys_getcwd.c.o
LOAD gloss/CMakeFiles/freedom_metal.dir/sys_getpid.c.o
LOAD gloss/CMakeFiles/freedom_metal.dir/sys_gettimeofday.c.o
LOAD gloss/CMakeFiles/freedom_metal.dir/sys_isatty.c.o
LOAD gloss/CMakeFiles/freedom_metal.dir/sys_kill.c.o
LOAD gloss/CMakeFiles/freedom_metal.dir/sys_link.c.o
LOAD gloss/CMakeFiles/freedom_metal.dir/sys_lseek.c.o
LOAD gloss/CMakeFiles/freedom_metal.dir/sys_lstat.c.o
LOAD gloss/CMakeFiles/freedom_metal.dir/sys_open.c.o
LOAD gloss/CMakeFiles/freedom_metal.dir/sys_openat.c.o
LOAD gloss/CMakeFiles/freedom_metal.dir/sys_read.c.o
LOAD gloss/CMakeFiles/freedom_metal.dir/sys_sbrk.c.o
LOAD gloss/CMakeFiles/freedom_metal.dir/sys_sysconf.c.o
LOAD gloss/CMakeFiles/freedom_metal.dir/sys_times.c.o
LOAD gloss/CMakeFiles/freedom_metal.dir/sys_unlink.c.o
LOAD gloss/CMakeFiles/freedom_metal.dir/sys_utime.c.o
LOAD gloss/CMakeFiles/freedom_metal.dir/sys_wait.c.o
LOAD gloss/CMakeFiles/freedom_metal.dir/sys_write.c.o
LOAD build/drivers/uart/CMakeFiles/uart.dir/uart.c.o
LOAD build/drivers/pcie/CMakeFiles/pcie.dir/pcie_ep.c.o
LOAD build/drivers/pcie/CMakeFiles/pcie.dir/pcie_dw.c.o
LOAD build/drivers/pcie/CMakeFiles/pcie.dir/pcie_snps_phy.c.o
LOAD build/drivers/pcie/CMakeFiles/pcie.dir/pcie_dw_hdma.c.o
LOAD build/drivers/pcie/CMakeFiles/pcie.dir/pcie_irq.c.o
LOAD build/drivers/pcie/CMakeFiles/pcie.dir/pcie_dw_iatu.c.o
LOAD build/drivers/pcie/CMakeFiles/pcie.dir/pcie_dw_bar.c.o
LOAD build/drivers/pcie/CMakeFiles/pcie.dir/pcie_dw_msix.c.o
LOAD build/drivers/pcie/CMakeFiles/pcie.dir/pcie_subctrl.c.o
LOAD build/drivers/pcie/CMakeFiles/pcie.dir/pcie_doe.c.o
LOAD build/drivers/pcie/CMakeFiles/pcie.dir/pcie_dw_ide.c.o
LOAD build/drivers/pcie/CMakeFiles/pcie.dir/pcie_sysreg.c.o
LOAD build/drivers/mailbox/CMakeFiles/mailbox.dir/mailbox.c.o
LOAD build/drivers/mailbox/CMakeFiles/mailbox.dir/mailbox_cb.c.o
LOAD build/drivers/pmu/CMakeFiles/pmu.dir/pmu.c.o
LOAD build/drivers/pvt_con/CMakeFiles/pvt_con.dir/pvt_con.c.o
LOAD build/drivers/watchdog/CMakeFiles/watchdog.dir/dw_apb_wdt.c.o
LOAD build/tests/common/CMakeFiles/test_common.dir/test_mailbox_cb.c.o
LOAD build/tests/interrupt_test_helper_example/CMakeFiles/interrupt_test_helper_example.dir/example_test.c.o
LOAD build/tests/interrupt_test_helper_example/CMakeFiles/interrupt_test_helper_example.dir/example_driver.c.o
LOAD build/tests/arch/CMakeFiles/test_arch.dir/test_cli.c.o
LOAD build/tests/pcie/CMakeFiles/pcie_test.dir/test_pcie_main.c.o
LOAD build/tests/pcie/CMakeFiles/pcie_test.dir/test_pcie_msix.c.o
LOAD build/tests/pcie/CMakeFiles/pcie_test.dir/test_pcie_hdma.c.o
LOAD build/tests/pcie/CMakeFiles/pcie_test.dir/test_pcie_capability.c.o
LOAD build/tests/pcie/CMakeFiles/pcie_test.dir/test_pcie_mode.c.o
LOAD build/tests/pcie/CMakeFiles/pcie_test.dir/test_pcie_iatu.c.o
LOAD build/tests/pcie/CMakeFiles/pcie_test.dir/test_pcie_history_store.c.o
LOAD build/tests/pcie/CMakeFiles/pcie_test.dir/test_pcie_doe.c.o
LOAD build/tests/pcie/CMakeFiles/pcie_test.dir/test_pcie_ide.c.o
LOAD build/tests/pcie/CMakeFiles/pcie_test.dir/test_pcie_ide_scenario.c.o
LOAD build/tests/pcie/CMakeFiles/pcie_test.dir/test_pcie_rasdp.c.o
LOAD build/tests/pcie/CMakeFiles/pcie_test.dir/test_pcie_rasdes.c.o
LOAD build/tests/pcie/CMakeFiles/pcie_test.dir/test_pcie_epf.c.o
LOAD build/tests/mailbox/CMakeFiles/mailbox_test.dir/test_mailbox_main.c.o
LOAD build/tests/arch/arm/CMakeFiles/test_arm.dir/test_cm7.c.o
LOAD build/tests/log/CMakeFiles/show_log.dir/rebel_h_log.c.o
LOAD build/tests/interrupt_test/CMakeFiles/test_irq.dir/test_m7_irq.c.o
LOAD build/tests/pvt_con/CMakeFiles/pvt_cli.dir/pvt_cli.c.o
LOAD build/tests/pvt_con/CMakeFiles/pvt_cli.dir/pvt_cli_show.c.o
LOAD build/tests/pvt_con/CMakeFiles/pvt_cli.dir/pvt_cli_enable.c.o
LOAD build/tests/pvt_con/CMakeFiles/pvt_cli.dir/pvt_cli_disable.c.o
LOAD build/tests/pvt_con/CMakeFiles/pvt_cli.dir/pvt_cli_set.c.o
LOAD libfreertos_kernel.a
LOAD portable/libfreertos_kernel_port.a
LOAD build/drivers/common/libdriver.a
LOAD build/drivers/common/libassert.a
LOAD build/drivers/common/libinterrupt.a
LOAD build/drivers/bat/libbat.a
LOAD services/cli_service/libcli_service.a
LOAD services/terminal_service/libterminal_service.a
LOAD build/unity/libunity.a
LOAD build/drivers/bat/libbat.a
LOAD build/interrupt_test_helper/libinterrupt_test_helper.a
LOAD services/cli_service/libcli_service.a
LOAD libfreertos_kernel.a
LOAD build/common/arch/libcommon.a
LOAD build/drivers/common/libdriver.a
LOAD build/drivers/common/libassert.a
LOAD build/drivers/common/libinterrupt.a
START GROUP
LOAD /tools/arm-gnu-toolchain-13.2.Rel1-x86_64-arm-none-eabi/bin/../lib/gcc/arm-none-eabi/13.2.1/thumb/v7e-m+dp/hard/libgcc.a
LOAD /tools/arm-gnu-toolchain-13.2.Rel1-x86_64-arm-none-eabi/bin/../lib/gcc/arm-none-eabi/13.2.1/../../../../arm-none-eabi/lib/thumb/v7e-m+dp/hard/libg.a
LOAD /tools/arm-gnu-toolchain-13.2.Rel1-x86_64-arm-none-eabi/bin/../lib/gcc/arm-none-eabi/13.2.1/../../../../arm-none-eabi/lib/thumb/v7e-m+dp/hard/libc.a
END GROUP
                0x00000200                        _heap_size = 0x200
                0x00000200                        pl330_reserved_size = 0x200

.text           0x00000000    0x1acb4
 *(.vector)
 .vector        0x00000000       0x40 portable/libfreertos_kernel_port.a(start.S.o)
                0x00000000                _vector_table
 *(.interrupt)
 .interrupt     0x00000040        0x0 portable/libfreertos_kernel_port.a(start.S.o)
 .interrupt     0x00000040      0x100 portable/libfreertos_kernel_port.a(system_rebelh_cm7.c.o)
                0x00000040                INTERRUPT_RESERVED
 *(.text.VectorHandlers)
 .text.VectorHandlers
                0x00000140       0x18 portable/libfreertos_kernel_port.a(start.S.o)
 *(.text.Start)
 .text.Start    0x00000158        0xc portable/libfreertos_kernel_port.a(start.S.o)
 .text          0x00000164      0x15c CMakeFiles/freertos_kernel.elf.dir/main_cm7.c.o
                0x00000164                prvSetupHardware
                0x00000170                main
 .text          0x000002c0       0xa8 gloss/CMakeFiles/freedom_metal.dir/freedom_metal.c.o
                0x000002c0                metal_cpu_get_current_hartid
                0x000002d0                metal_timer_get_timebase_frequency
                0x000002e8                metal_timer_get_cyclecount
                0x00000300                metal_shutdown
                0x00000316                metal_mem_scrub
                0x0000034c                metal_tty_putc
 .text          0x00000368       0x20 gloss/CMakeFiles/freedom_metal.dir/nanosleep.c.o
                0x00000368                nanosleep
 .text          0x00000388       0x20 gloss/CMakeFiles/freedom_metal.dir/sys_access.c.o
                0x00000388                _access
 .text          0x000003a8       0x1e gloss/CMakeFiles/freedom_metal.dir/sys_chdir.c.o
                0x000003a8                _chdir
 .text          0x000003c6       0x20 gloss/CMakeFiles/freedom_metal.dir/sys_chmod.c.o
                0x000003c6                _chmod
 .text          0x000003e6       0x26 gloss/CMakeFiles/freedom_metal.dir/sys_chown.c.o
                0x000003e6                _chown
 .text          0x0000040c       0x60 gloss/CMakeFiles/freedom_metal.dir/sys_clock_gettime.c.o
                0x0000040c                clock_getres
                0x0000042c                clock_gettime
                0x0000044c                clock_settime
 .text          0x0000046c       0x1e gloss/CMakeFiles/freedom_metal.dir/sys_close.c.o
                0x0000046c                _close
 .text          0x0000048a       0x22 gloss/CMakeFiles/freedom_metal.dir/sys_execve.c.o
                0x0000048a                _execve
 .text          0x000004ac       0x12 gloss/CMakeFiles/freedom_metal.dir/sys_exit.c.o
                0x000004ac                _exit
 .text          0x000004be       0x24 gloss/CMakeFiles/freedom_metal.dir/sys_faccessat.c.o
                0x000004be                _faccessat
 .text          0x000004e2       0x16 gloss/CMakeFiles/freedom_metal.dir/sys_fork.c.o
                0x000004e2                _fork
 .text          0x000004f8       0x22 gloss/CMakeFiles/freedom_metal.dir/sys_fstat.c.o
                0x000004f8                _fstat
 .text          0x0000051a       0x24 gloss/CMakeFiles/freedom_metal.dir/sys_fstatat.c.o
                0x0000051a                _fstatat
 .text          0x0000053e       0x1e gloss/CMakeFiles/freedom_metal.dir/sys_ftime.c.o
                0x0000053e                _ftime
 .text          0x0000055c       0x20 gloss/CMakeFiles/freedom_metal.dir/sys_getcwd.c.o
                0x0000055c                _getcwd
 .text          0x0000057c       0x1e gloss/CMakeFiles/freedom_metal.dir/sys_getpid.c.o
                0x0000057c                get_current_cpuid
                0x0000058c                _getpid
 .text          0x0000059a       0xf8 gloss/CMakeFiles/freedom_metal.dir/sys_gettimeofday.c.o
                0x0000059a                gettimeofday
                0x0000059a                _gettimeofday
 .text          0x00000692       0x20 gloss/CMakeFiles/freedom_metal.dir/sys_isatty.c.o
                0x00000692                _isatty
 .text          0x000006b2       0x20 gloss/CMakeFiles/freedom_metal.dir/sys_kill.c.o
                0x000006b2                _kill
 .text          0x000006d2       0x20 gloss/CMakeFiles/freedom_metal.dir/sys_link.c.o
                0x000006d2                _link
 .text          0x000006f2       0x22 gloss/CMakeFiles/freedom_metal.dir/sys_lseek.c.o
                0x000006f2                _lseek
 .text          0x00000714       0x20 gloss/CMakeFiles/freedom_metal.dir/sys_lstat.c.o
                0x00000714                _lstat
 .text          0x00000734       0x22 gloss/CMakeFiles/freedom_metal.dir/sys_open.c.o
                0x00000734                _open
 .text          0x00000756       0x24 gloss/CMakeFiles/freedom_metal.dir/sys_openat.c.o
                0x00000756                _openat
 .text          0x0000077a       0x22 gloss/CMakeFiles/freedom_metal.dir/sys_read.c.o
                0x0000077a                _read
 .text          0x0000079c       0x80 gloss/CMakeFiles/freedom_metal.dir/sys_sbrk.c.o
                0x0000079c                _brk
                0x000007bc                _sbrk
 .text          0x0000081c       0x22 gloss/CMakeFiles/freedom_metal.dir/sys_sysconf.c.o
                0x0000081c                sysconf
                0x0000081c                _sysconf
 .text          0x0000083e       0xf6 gloss/CMakeFiles/freedom_metal.dir/sys_times.c.o
                0x000008c8                times
                0x000008c8                _times
 .text          0x00000934       0x1e gloss/CMakeFiles/freedom_metal.dir/sys_unlink.c.o
                0x00000934                _unlink
 .text          0x00000952       0x20 gloss/CMakeFiles/freedom_metal.dir/sys_utime.c.o
                0x00000952                _utime
 .text          0x00000972       0x1e gloss/CMakeFiles/freedom_metal.dir/sys_wait.c.o
                0x00000972                _wait
 .text          0x00000990       0x52 gloss/CMakeFiles/freedom_metal.dir/sys_write.c.o
                0x00000990                _write
 *fill*         0x000009e2        0x2 
 .text          0x000009e4      0x62c build/drivers/uart/CMakeFiles/uart.dir/uart.c.o
                0x00000a5c                uart_register_rx_callback
                0x00000a84                uart_register_tx_callback
                0x00000ad4                uart_is_tx_fifo_empty
                0x00000bb0                uart_putc
                0x00000bd6                uart_puts
                0x00000c0c                uart_out_all_fifo
                0x00000d4c                uart_getc
                0x00000de0                uart_irq_rx_enable
                0x00000e08                uart_irq_rx_disable
                0x00000e30                uart_irq_tx_enable
                0x00000e58                uart_irq_tx_disable
                0x00000e80                uart_is_irq_rx_ready
                0x00000eb0                uart_init
                0x00000fd8                uart_int_config
 .text          0x00001010      0xadc build/drivers/pcie/CMakeFiles/pcie.dir/pcie_ep.c.o
                0x00001968                pcie_get_epc
                0x00001a6c                dram_init_done_cb
 .text          0x00001aec      0xf2c build/drivers/pcie/CMakeFiles/pcie.dir/pcie_dw.c.o
                0x00001aec                pcie_dbi_ro_wr_enable
                0x00001b4a                pcie_link_setup
                0x00001c88                pcie_set_width
                0x00001d3c                pcie_get_width
                0x00001d68                pcie_set_speed
                0x00001dfc                pcie_get_speed
                0x00001e28                pcie_eq_setup
                0x00001eee                pcie_cap_setup
                0x00001f46                pcie_find_capability
                0x00001faa                pcie_disable_capability
                0x0000209a                pcie_find_ext_capability
                0x000020fa                pcie_disable_ext_capability
                0x000021c8                pcie_rasdp_enable_error_mode
                0x00002212                pcie_rasdp_clear_error_mode
                0x00002242                pcie_rasdp_enable_error_injection
                0x00002344                pcie_rasdp_get_count
                0x000023ae                pcie_rasdp_get_region
                0x000023f8                pcie_rasdp_select_region
                0x00002484                pcie_rasdp_clear_count
                0x000024ce                pcie_rasdes_get_tba_info
                0x00002514                pcie_rasdes_start_tba
                0x00002590                pcie_rasdes_stop_tba
                0x000025c8                pcie_rasdes_get_tba_data
                0x00002620                pcie_rasdes_select_ecnt
                0x00002692                pcie_rasdes_get_selected_ecnt
                0x000026f8                pcie_rasdes_get_ecnt_data
                0x00002726                pcie_rasdes_enable_ecnt
                0x00002762                pcie_rasdes_clear_ecnt
                0x000027ae                pcie_rasdes_sd_l1_lane_sel
                0x000027ea                pcie_rasdes_get_sd_status
                0x00002884                pcie_rasdes_sd_eq_rate_sel
                0x000028c0                pcie_rasdes_sd_eq_lane_sel
                0x000028fc                pcie_rasdes_get_sd_eq_status
                0x00002966                pcie_lane_margin_setup
 .text          0x00002a18     0x1ace build/drivers/pcie/CMakeFiles/pcie.dir/pcie_snps_phy.c.o
                0x00004014                pcie_phy_init
 *fill*         0x000044e6        0x2 
 .text          0x000044e8      0xa38 build/drivers/pcie/CMakeFiles/pcie.dir/pcie_dw_hdma.c.o
                0x0000458c                pcie_hdmac_create
                0x00004c14                pcie_hdma_transfer_start
                0x00004ce0                pcie_hdma_transfer_stop
                0x00004d8c                pcie_hdma_select_function
                0x00004e70                dw_hdma_config
 .text          0x00004f20      0xf44 build/drivers/pcie/CMakeFiles/pcie.dir/pcie_irq.c.o
                0x00005b50                pcie_ep_request_irq
 .text          0x00005e64      0xef0 build/drivers/pcie/CMakeFiles/pcie.dir/pcie_dw_iatu.c.o
                0x000063da                pcie_set_iatu_inbound
                0x0000646e                pcie_set_iatu_outbound
                0x000064d0                pcie_iatu_disable_region
                0x000065c8                pcie_iatu_disable_match_mode_region
                0x0000672a                pcie_find_iatu_region_by_bar_num
                0x0000681c                pcie_reconfigure_bar_match_mode
                0x00006958                pcie_configure_inbound_address_match_mode
                0x000069e8                pcie_configure_outbound_address_match_mode
                0x00006a74                pcie_get_iatu_ib_info
                0x00006c2a                pcie_get_iatu_ob_info
 .text          0x00006d54      0xb1c build/drivers/pcie/CMakeFiles/pcie.dir/pcie_dw_bar.c.o
                0x00006d54                pcie_get_num_valid_bar
                0x00006dee                pcie_get_bar_info
                0x00006e7c                pcie_get_vfbar_info
                0x00006f14                pcie_set_resizable_bar_size
                0x00007274                pcie_change_resizable_bar_size
                0x000075dc                pcie_set_programmable_bar_size
                0x000076f0                pcie_set_bar
                0x00007764                pcie_load_bar_info
                0x00007804                pcie_clear_bar
 .text          0x00007870      0x210 build/drivers/pcie/CMakeFiles/pcie.dir/pcie_dw_msix.c.o
                0x00007892                pcie_msix_setup
                0x00007910                pcie_raise_msix_irq
 .text          0x00007a80      0xe0c build/drivers/pcie/CMakeFiles/pcie.dir/pcie_subctrl.c.o
                0x00007a80                pcie_subctrl_history_store_config
                0x00007b38                pcie_subctrl_history_store_start
                0x00007c14                pcie_subctrl_history_select_group
                0x00007c4e                pcie_subctrl_history_buf_clear
                0x0000820c                pcie_subctrl_show_history
                0x000087cc                pcie_ltssm_enable
                0x000087f8                pcie_crs_enable
                0x00008860                pcie_get_ltssm_state
 .text          0x0000888c      0x17c build/drivers/pcie/CMakeFiles/pcie.dir/pcie_doe.c.o
                0x000088ae                pcie_doe_read_wmb
                0x0000896c                pcie_doe_write_rmb
                0x000089c0                pcie_doe_setup
 .text          0x00008a08      0x1d0 build/drivers/pcie/CMakeFiles/pcie.dir/pcie_dw_ide.c.o
                0x00008a2a                pcie_ide_setup
                0x00008a7e                pcie_ide_enable_stream
                0x00008b0c                pcie_ide_swap_key
                0x00008bac                pcie_ide_cb
 .text          0x00008bd8      0x884 build/drivers/pcie/CMakeFiles/pcie.dir/pcie_sysreg.c.o
                0x00008bd8                set_hdma_lut
                0x00009198                invalidate_hdma_lut
 .text          0x0000945c      0x528 build/drivers/mailbox/CMakeFiles/mailbox.dir/mailbox.c.o
                0x00009482                ipm_samsung_write
                0x00009520                ipm_samsung_send
                0x00009580                ipm_samsung_receive
                0x0000971c                ipm_samsung_isr
                0x00009800                ipm_samsung_register_callback
                0x00009838                ipm_samsung_init
                0x000098e8                ipm_samsung_read
 .text          0x00009984      0x138 build/drivers/mailbox/CMakeFiles/mailbox.dir/mailbox_cb.c.o
                0x00009984                mailbox_register_callback
                0x000099a4                default_cb
 .text          0x00009abc      0x294 build/drivers/pmu/CMakeFiles/pmu.dir/pmu.c.o
                0x00009abc                pmu_get_bootmode
                0x00009ae0                pmu_sw_reset
                0x00009b08                pmu_rbc_lpi_entry
                0x00009c1c                pmu_rbc_lpi_exit
                0x00009d30                pmu_get_num_of_secondary_chiplet
 .text          0x00009d50     0x13dc build/drivers/pvt_con/CMakeFiles/pvt_con.dir/pvt_con.c.o
                0x0000a994                PVT_GET_INSTANCE
                0x0000a9ac                PVT_CONTROL_RISE_INTERRUPT
                0x0000ab08                PVT_CONTROL_FALL_INTERRUPT
                0x0000ac42                PVT_GET_RISE_INTERRUPT_PENDING
                0x0000ac72                PVT_GET_FALL_INTERRUPT_PENDING
                0x0000aca4                PVT_CLEAR_RISE_INTERRUPT
                0x0000acd4                PVT_CLEAR_FALL_INTERRUPT
                0x0000ad06                PVT_GET_RISE_INTERRUPT_STATE
                0x0000ae18                PVT_GET_FALL_INTERRUPT_STATE
                0x0000af0e                PVT_CONVERT_TO_PROC
                0x0000af30                PVT_CONVERT_TO_VOLT
                0x0000af52                PVT_CONVERT_TO_CALIBRATED_VOLT
                0x0000af74                PVT_CONVERT_TO_TEMP
                0x0000af96                PVT_CONVERT_TO_CALIBRATED_TEMP
                0x0000afb8                PVT_GET_CURRENT_PROC_VALUE
                0x0000afd4                PVT_GET_CURRENT_VOLT_VALUE
                0x0000aff0                PVT_GET_CURRENT_TEMP_VALUE
                0x0000b00c                PVT_GET_PAST_PROC_VALUE
                0x0000b02a                PVT_GET_PAST_VOLT_VALUE
                0x0000b048                PVT_GET_PAST_TEMP_VALUE
                0x0000b066                PVT_SET_FALL_THRESHOLD
                0x0000b084                PVT_GET_FALL_THRESHOLD
                0x0000b0a2                PVT_SET_RISE_THRESHOLD
                0x0000b0c0                PVT_GET_RISE_THRESHOLD
                0x0000b0de                pvt_init
 .text          0x0000b12c      0x178 build/drivers/watchdog/CMakeFiles/watchdog.dir/dw_apb_wdt.c.o
                0x0000b12c                dw_apb_wdt_get_version
                0x0000b14c                dw_apb_wdt_get_enabled
                0x0000b170                dw_apb_wdt_set_timeout
                0x0000b1a0                dw_apb_wdt_enable
                0x0000b1c4                dw_apb_wdt_set_rmod
                0x0000b1f2                dw_apb_wdt_disable
                0x0000b218                dw_apb_wdt_kick
                0x0000b258                dw_apb_wdt_init
 .text          0x0000b2a4       0x74 build/tests/common/CMakeFiles/test_common.dir/test_mailbox_cb.c.o
                0x0000b2a4                test_cb
 .text          0x0000b318      0x354 build/tests/interrupt_test_helper_example/CMakeFiles/interrupt_test_helper_example.dir/example_test.c.o
                0x0000b326                TEST_interrupt_test_helper_example_SETUP
                0x0000b364                TEST_interrupt_test_helper_example_TEAR_DOWN
                0x0000b384                TEST_interrupt_test_helper_example_check_device_init_run
                0x0000b3c8                TEST_interrupt_test_helper_example_check_device_init_
                0x0000b3fc                TEST_interrupt_test_helper_example_check_set_device_state_run
                0x0000b440                TEST_interrupt_test_helper_example_check_set_device_state_
                0x0000b46a                TEST_interrupt_test_helper_example_is_isr_called_run
                0x0000b4b0                TEST_interrupt_test_helper_example_is_isr_called_
                0x0000b4da                TEST_interrupt_test_helper_example_check_updating_dev_state_by_isr_run
                0x0000b520                TEST_interrupt_test_helper_example_check_updating_dev_state_by_isr_
                0x0000b552                TEST_interrupt_test_helper_example_check_multi_calling_isr_run
                0x0000b598                TEST_interrupt_test_helper_example_check_multi_calling_isr_
                0x0000b5f4                TEST_interrupt_test_helper_example_1_GROUP_RUNNER
                0x0000b604                TEST_interrupt_test_helper_example_2_GROUP_RUNNER
                0x0000b628                example_driver_isr_test
                0x0000b650                cli_register_interrupt_helper_example
 .text          0x0000b66c       0xa4 build/tests/interrupt_test_helper_example/CMakeFiles/interrupt_test_helper_example.dir/example_driver.c.o
                0x0000b66c                driver_init
                0x0000b690                set_device_state
                0x0000b6b0                get_device_state
                0x0000b6c8                get_isr_call_count
                0x0000b6e0                driver_isr
 .text          0x0000b710       0x7c build/tests/arch/CMakeFiles/test_arch.dir/test_cli.c.o
                0x0000b744                test_cli
                0x0000b76c                cli_register_cli
 .text          0x0000b78c      0x580 build/tests/pcie/CMakeFiles/pcie_test.dir/test_pcie_main.c.o
                0x0000b78c                pcie_commands
                0x0000bc28                test_pcie_main
                0x0000bcd0                cli_register_pcie
                0x0000bcf0                cli_register_test_pcie
 .text          0x0000bd0c      0xca0 build/tests/pcie/CMakeFiles/pcie_test.dir/test_pcie_msix.c.o
                0x0000bd8c                test_pcie_request_msix
                0x0000be64                TEST_pcie_msix_test_SETUP
                0x0000be7c                TEST_pcie_msix_test_TEAR_DOWN
                0x0000c108                TEST_pcie_msix_test_raise_msix_pf_run
                0x0000c14c                TEST_pcie_msix_test_raise_msix_pf_
                0x0000c16c                TEST_pcie_msix_test_raise_msix_vf0_run
                0x0000c1b0                TEST_pcie_msix_test_raise_msix_vf0_
                0x0000c1d0                TEST_pcie_msix_test_raise_msix_vf1_run
                0x0000c214                TEST_pcie_msix_test_raise_msix_vf1_
                0x0000c234                TEST_pcie_msix_test_raise_msix_vf2_run
                0x0000c278                TEST_pcie_msix_test_raise_msix_vf2_
                0x0000c298                TEST_pcie_msix_test_raise_msix_vf3_run
                0x0000c2dc                TEST_pcie_msix_test_raise_msix_vf3_
                0x0000c2fc                TEST_pcie_msix_test_raise_msix_vf4_run
                0x0000c340                TEST_pcie_msix_test_raise_msix_vf4_
                0x0000c360                TEST_pcie_msix_test_raise_msix_vf5_run
                0x0000c3a4                TEST_pcie_msix_test_raise_msix_vf5_
                0x0000c3c4                TEST_pcie_msix_test_raise_msix_vf6_run
                0x0000c408                TEST_pcie_msix_test_raise_msix_vf6_
                0x0000c428                TEST_pcie_msix_test_raise_msix_vf7_run
                0x0000c46c                TEST_pcie_msix_test_raise_msix_vf7_
                0x0000c48c                TEST_pcie_msix_test_raise_msix_vf8_run
                0x0000c4d0                TEST_pcie_msix_test_raise_msix_vf8_
                0x0000c4f0                TEST_pcie_msix_test_raise_msix_vf9_run
                0x0000c534                TEST_pcie_msix_test_raise_msix_vf9_
                0x0000c554                TEST_pcie_msix_test_raise_msix_vf10_run
                0x0000c598                TEST_pcie_msix_test_raise_msix_vf10_
                0x0000c5b8                TEST_pcie_msix_test_raise_msix_vf11_run
                0x0000c5fc                TEST_pcie_msix_test_raise_msix_vf11_
                0x0000c61c                TEST_pcie_msix_test_raise_msix_vf12_run
                0x0000c660                TEST_pcie_msix_test_raise_msix_vf12_
                0x0000c680                TEST_pcie_msix_test_raise_msix_vf13_run
                0x0000c6c4                TEST_pcie_msix_test_raise_msix_vf13_
                0x0000c6e4                TEST_pcie_msix_test_raise_msix_vf14_run
                0x0000c728                TEST_pcie_msix_test_raise_msix_vf14_
                0x0000c748                TEST_pcie_msix_test_raise_msix_vf15_run
                0x0000c78c                TEST_pcie_msix_test_raise_msix_vf15_
                0x0000c7ac                TEST_pcie_msix_test_fail_to_raise_msix_pf1_run
                0x0000c7f0                TEST_pcie_msix_test_fail_to_raise_msix_pf1_
                0x0000c802                TEST_pcie_msix_test_fail_to_raise_msix_pf0_v0_run
                0x0000c848                TEST_pcie_msix_test_fail_to_raise_msix_pf0_v0_
                0x0000c85a                TEST_pcie_msix_test_fail_to_raise_msix_vf16_run
                0x0000c8a0                TEST_pcie_msix_test_fail_to_raise_msix_vf16_
                0x0000c8b2                TEST_pcie_msix_test_fail_to_raise_msix_vf0_v0_run
                0x0000c8f8                TEST_pcie_msix_test_fail_to_raise_msix_vf0_v0_
                0x0000c90a                TEST_raise_msix_pf_group_GROUP_RUNNER
                0x0000c916                TEST_raise_msix_vf_group_GROUP_RUNNER
                0x0000c95e                TEST_raise_msix_fail_group_GROUP_RUNNER
                0x0000c98a                test_pcie_msix
 .text          0x0000c9ac      0xfbc build/tests/pcie/CMakeFiles/pcie_test.dir/test_pcie_hdma.c.o
                0x0000d164                test_non_linked_list_write
                0x0000d1cc                test_non_linked_list_read
                0x0000d458                epf_test_start_hdma_linked_list
                0x0000d4f8                test_pcie_set_hdma_lut
                0x0000d590                test_pcie_invalidate_hdma_lut
                0x0000d5ec                test_pcie_prepare_data
                0x0000d654                test_pcie_hdma_non_ll_mode
                0x0000d76c                test_pcie_hdma_ll_mode
                0x0000d8b0                test_pcie_select_function
 .text          0x0000d968      0x218 build/tests/pcie/CMakeFiles/pcie_test.dir/test_pcie_capability.c.o
                0x0000d968                test_pcie_find_capability
                0x0000d9ec                test_pcie_find_ext_capability
                0x0000da70                test_pcie_disable_capability
                0x0000daf8                test_pcie_disable_ext_capability
 .text          0x0000db80      0x9d8 build/tests/pcie/CMakeFiles/pcie_test.dir/test_pcie_mode.c.o
                0x0000db80                test_pcie_set_speed
                0x0000dbec                test_pcie_set_width
                0x0000dc58                test_pcie_get_speed
                0x0000dcf4                test_pcie_get_width
                0x0000dd34                TEST_pcie_change_speed_SETUP
                0x0000dd60                TEST_pcie_change_speed_TEAR_DOWN
                0x0000dd8c                TEST_pcie_change_speed_change_speed_gen1_run
                0x0000ddd0                TEST_pcie_change_speed_change_speed_gen1_
                0x0000de1c                TEST_pcie_change_speed_change_speed_gen2_run
                0x0000de60                TEST_pcie_change_speed_change_speed_gen2_
                0x0000deac                TEST_pcie_change_speed_change_speed_gen3_run
                0x0000def0                TEST_pcie_change_speed_change_speed_gen3_
                0x0000df3c                TEST_pcie_change_speed_change_speed_gen4_run
                0x0000df80                TEST_pcie_change_speed_change_speed_gen4_
                0x0000dfcc                TEST_pcie_change_speed_change_speed_gen5_run
                0x0000e010                TEST_pcie_change_speed_change_speed_gen5_
                0x0000e05c                TEST_pcie_change_speed_fail_to_change_speed_gen6_run
                0x0000e0a0                TEST_pcie_change_speed_fail_to_change_speed_gen6_
                0x0000e0d0                TEST_pcie_change_speed_group_GROUP_RUNNER
                0x0000e0f0                TEST_pcie_change_width_SETUP
                0x0000e11c                TEST_pcie_change_width_TEAR_DOWN
                0x0000e148                TEST_pcie_change_width_change_speed_width_1_run
                0x0000e18c                TEST_pcie_change_width_change_speed_width_1_
                0x0000e1d8                TEST_pcie_change_width_change_speed_width_2_run
                0x0000e21c                TEST_pcie_change_width_change_speed_width_2_
                0x0000e268                TEST_pcie_change_width_change_speed_width_4_run
                0x0000e2ac                TEST_pcie_change_width_change_speed_width_4_
                0x0000e2f8                TEST_pcie_change_width_change_speed_width_8_run
                0x0000e33c                TEST_pcie_change_width_change_speed_width_8_
                0x0000e388                TEST_pcie_change_width_change_speed_width_16_run
                0x0000e3cc                TEST_pcie_change_width_change_speed_width_16_
                0x0000e418                TEST_pcie_change_width_fail_to_change_speed_width_32_run
                0x0000e45c                TEST_pcie_change_width_fail_to_change_speed_width_32_
                0x0000e48c                TEST_pcie_change_width_fail_to_change_speed_width_6_run
                0x0000e4d0                TEST_pcie_change_width_fail_to_change_speed_width_6_
                0x0000e500                TEST_pcie_change_width_group_GROUP_RUNNER
                0x0000e534                test_pcie_mode
 .text          0x0000e558      0xc18 build/tests/pcie/CMakeFiles/pcie_test.dir/test_pcie_iatu.c.o
                0x0000e59c                test_pcie_iatu_inbound
                0x0000e730                test_pcie_iatu_outbound
                0x0000e864                test_pcie_iatu_disable_region
                0x0000e8e8                test_pcie_outbound_write
                0x0000ea10                test_pcie_outbound_read
                0x0000eb00                test_pcie_iatu_disable_inbound_region_all
                0x0000eb34                test_pcie_show_iatu_table
                0x0000ed7c                TEST_pcie_iatu_SETUP
                0x0000ed8a                TEST_pcie_iatu_TEAR_DOWN
                0x0000ef04                TEST_pcie_iatu_change_resizable_bar01_run
                0x0000ef4c                TEST_pcie_iatu_change_resizable_bar01_
                0x0000ef5c                TEST_pcie_iatu_change_programmable_bar23_run
                0x0000efa4                TEST_pcie_iatu_change_programmable_bar23_
                0x0000efb4                TEST_pcie_iatu_change_programmable_bar4_run
                0x0000effc                TEST_pcie_iatu_change_programmable_bar4_
                0x0000f00c                TEST_pcie_iatu_change_resizable_vf_bar01_run
                0x0000f054                TEST_pcie_iatu_change_resizable_vf_bar01_
                0x0000f064                TEST_pcie_iatu_change_programmable_vf_bar23_run
                0x0000f0ac                TEST_pcie_iatu_change_programmable_vf_bar23_
                0x0000f0bc                TEST_pcie_iatu_change_programmable_vf_bar4_run
                0x0000f104                TEST_pcie_iatu_change_programmable_vf_bar4_
                0x0000f114                TEST_pcie_change_bar_size_group_pf_GROUP_RUNNER
                0x0000f128                TEST_pcie_change_bar_size_group_vf_GROUP_RUNNER
                0x0000f14c                test_pcie_iatu
 .text          0x0000f170      0x9ec build/tests/pcie/CMakeFiles/pcie_test.dir/test_pcie_history_store.c.o
                0x0000f550                test_pcie_show_history
                0x0000f6b8                test_pcie_clear_buffer
                0x0000f7fc                test_pcie_history_store
 .text          0x0000fb5c      0x4b8 build/tests/pcie/CMakeFiles/pcie_test.dir/test_pcie_doe.c.o
                0x0000fbdc                test_pcie_write_to_rmb
                0x0000fcf4                test_pcie_doe_print_wmb_data
                0x0000fdb4                test_pcie_doe_setup_addr
                0x0000fe1c                TEST_pcie_doe_test_SETUP
                0x0000fe34                TEST_pcie_doe_test_TEAR_DOWN
                0x0000fe4c                TEST_pcie_doe_test_pcie_doe_lb_run
                0x0000fe90                TEST_pcie_doe_test_pcie_doe_lb_
                0x0000fff0                test_pcie_doe
 .text          0x00010014       0xf8 build/tests/pcie/CMakeFiles/pcie_test.dir/test_pcie_ide.c.o
                0x00010014                test_pcie_ide
                0x00010084                test_pcie_ide_key_swap
 .text          0x0001010c      0x430 build/tests/pcie/CMakeFiles/pcie_test.dir/test_pcie_ide_scenario.c.o
                0x00010150                write_to_rmb
                0x000104d0                test_pcie_ide_key_mg
                0x00010520                cli_register_test_ide
 .text          0x0001053c      0x270 build/tests/pcie/CMakeFiles/pcie_test.dir/test_pcie_rasdp.c.o
                0x00010618                test_pcie_rasdp
 .text          0x000107ac      0xbb0 build/tests/pcie/CMakeFiles/pcie_test.dir/test_pcie_rasdes.c.o
                0x00010844                test_pcie_rasdes_tba
                0x00010b04                test_pcie_rasdes_ecnt
                0x00010c68                test_pcie_rasdes_sd
                0x000111ec                test_pcie_rasdes_sd_eq
 .text          0x0001135c      0xcd0 build/tests/pcie/CMakeFiles/pcie_test.dir/test_pcie_epf.c.o
                0x0001135c                crc32_le
                0x000113cc                get_random_bytes
                0x00011d48                pcie_epf_main
                0x00012010                cli_register_pcie_epf
 .text          0x0001202c      0x360 build/tests/mailbox/CMakeFiles/mailbox_test.dir/test_mailbox_main.c.o
                0x0001202c                test_mailbox_inter_chiplet
                0x00012120                test_mailbox_loopback
                0x00012224                test_main_mailbox
                0x0001236c                cli_register_test_mailbox
 .text          0x0001238c       0xa8 build/tests/arch/arm/CMakeFiles/test_arm.dir/test_cm7.c.o
                0x000123d2                test_cm7_cli
                0x00012414                cli_register_cm7
 .text          0x00012434      0x35c build/tests/log/CMakeFiles/show_log.dir/rebel_h_log.c.o
                0x000125d0                print_log
                0x00012750                test_main_log
                0x00012770                cli_register_show_log
 .text          0x00012790       0xac build/tests/interrupt_test/CMakeFiles/test_irq.dir/test_m7_irq.c.o
                0x00012790                call_all_pcie_isr
                0x000127b8                call_specific_isr
                0x000127ce                test_m7_pcie_isr
                0x0001281e                cli_register_test_irq
 .text          0x0001283c      0x358 build/tests/pvt_con/CMakeFiles/pvt_cli.dir/pvt_cli.c.o
                0x0001283c                pvt_cli
                0x00012b74                cli_register_pvt
 .text          0x00012b94      0x838 build/tests/pvt_con/CMakeFiles/pvt_cli.dir/pvt_cli_show.c.o
                0x00012b94                pvt_cli_show_process
                0x00012ca8                pvt_cli_show_voltage
                0x00012e20                pvt_cli_save_otp
                0x00012ef4                pvt_cli_get_current_temperature
                0x00012f88                pvt_cli_show_temperature
                0x000130c4                pvt_cli_show_interrupt
                0x000132e8                pvt_cli_show_dram
 .text          0x000133cc      0x224 build/tests/pvt_con/CMakeFiles/pvt_cli.dir/pvt_cli_enable.c.o
                0x000133cc                pvt_cli_enable_dfs
                0x00013404                pvt_cli_enable_trip
                0x0001343c                pvt_cli_enable_process
                0x000134c4                pvt_cli_enable_voltage
                0x00013558                pvt_cli_enable_temperature
 .text          0x000135f0      0x1c4 build/tests/pvt_con/CMakeFiles/pvt_cli.dir/pvt_cli_disable.c.o
                0x000135f0                pvt_cli_disable_dfs
                0x00013628                pvt_cli_disable_trip
                0x00013660                pvt_cli_disable_process
                0x000136d0                pvt_cli_disable_voltage
                0x00013740                pvt_cli_disable_temperature
 .text          0x000137b4       0xb4 build/tests/pvt_con/CMakeFiles/pvt_cli.dir/pvt_cli_set.c.o
                0x000137b4                pvt_cli_set_dfs_trip_threshold
                0x00013830                pvt_cli_set_sampling_interval
 .text          0x00013868        0x0 libfreertos_kernel.a(queue.c.o)
 .text          0x00013868       0x98 libfreertos_kernel.a(tasks.c.o)
 .text          0x00013900        0x0 libfreertos_kernel.a(timers.c.o)
 .text          0x00013900       0xbc libfreertos_kernel.a(heap_4.c.o)
                0x00013900                vPortGetHeapStats
 .text          0x000139bc        0x0 libfreertos_kernel.a(list.c.o)
 .text          0x000139bc        0x0 portable/libfreertos_kernel_port.a(start.S.o)
 .text          0x000139bc      0x77c portable/libfreertos_kernel_port.a(system_rebelh_cm7.c.o)
                0x00013a90                exception_enable
                0x00013ae4                exception_priority
                0x00013af2                mpu_configuration
                0x00013b08                mpu_enable
                0x00013b16                SystemCoreClockUpdate
                0x00013b34                mpu_clear
                0x00013b70                bss_clear
                0x00013ba0                system_init
 *fill*         0x00014138        0x8 
 .text          0x00014140      0x308 portable/libfreertos_kernel_port.a(port.c.o)
                0x000141a4                SVC_Handler
                0x000141ee                vPortEnterCritical
                0x00014258                vPortExitCritical
                0x000142b0                PendSV_Handler
                0x00014316                SysTick_Handler
                0x00014360                vPortSetupTimerInterrupt
                0x000143be                vPortValidateInterruptPriority
 .text          0x00014448       0x14 portable/libfreertos_kernel_port.a(fpu.S.o)
                0x00014448                fpu_enable
 .text          0x0001445c       0x88 build/drivers/common/libdriver.a(driver.c.o)
                0x0001445c                init_drivers_by_calling_init_entry
 .text          0x000144e4       0xe8 build/drivers/common/libassert.a(assert.c.o)
                0x000144e4                assert
                0x0001451a                assert_with_message
                0x00014550                conditional_assert
                0x00014586                conditional_assert_with_message
 .text          0x000145cc      0x1fc build/drivers/common/libinterrupt.a(interrupt.c.o)
                0x000146d0                set_dev_interrupt_priority
                0x000146ee                enable_dev_interrupt
                0x00014708                enable_all_interrupts
                0x00014726                disable_all_interrupts
                0x00014750                connect_interrupt_with_handler
 .text          0x000147c8       0xb8 build/drivers/bat/libbat.a(bat.c.o)
                0x000147c8                bat_set_page
 .text          0x00014880      0x158 services/cli_service/libcli_service.a(cli_task.c.o)
                0x00014880                cli_task_init
                0x000148e0                cli_task
                0x000149a0                cli_enqueue
 .text          0x000149d8      0xf80 services/cli_service/libcli_service.a(sys_command_line.c.o)
                0x00014afc                cli_cmd_cmp
                0x00014e2c                cli_init
                0x00014ee0                cli_find_function
                0x00015164                cli_rx_handle
                0x00015896                cli_run
                0x000158b4                cli_register
 .text          0x00015958       0xdc services/terminal_service/libterminal_service.a(console_uart.c.o)
                0x000159c4                console_uart_init
                0x00015a00                console_uart_enable
                0x00015a18                console_uart_putc
 .text          0x00015a34      0x34c services/terminal_service/libterminal_service.a(console.c.o)
                0x00015a34                console_dev_register
                0x00015a88                console_putc
                0x00015ad4                console_flush
                0x00015b78                console_assert_print
                0x00015bb2                console_register_rx_handler
                0x00015d60                cli_register_console
 .text          0x00015d80      0x378 services/terminal_service/libterminal_service.a(terminal_task.c.o)
                0x00015d80                terminal_rx_handler
                0x00015d9a                terminal_init
                0x00015df4                terminal_task
                0x00015e60                terminal_tx_bytes
                0x00015f50                terminal_tx_byte
                0x00016014                terminal_printf
                0x000160ae                terminal_print_buf
 .text          0x000160f8     0x2040 build/unity/libunity.a(unity.c.o)
                0x00016168                UnityPrint
                0x00016198                UnityPrintLen
                0x00016232                UnityPrintNumberByStyle
                0x000162f8                UnityPrintNumber
                0x00016324                UnityPrintNumberUnsigned
                0x00016390                UnityPrintNumberHex
                0x000163f6                UnityPrintMask
                0x00016452                UnityPrintFloat
                0x00016920                UnityConcludeTest
                0x00016b28                UnityAssertBits
                0x00016b9c                UnityAssertEqualNumber
                0x00016c08                UnityAssertGreaterOrLessOrEqualNumber
                0x00016d48                UnityAssertEqualIntArray
                0x00017096                UnityAssertWithinFloatArray
                0x00017278                UnityAssertFloatsWithin
                0x000172f4                UnityAssertFloatsNotWithin
                0x00017370                UnityAssertGreaterOrLessFloat
                0x000174a8                UnityAssertFloatSpecial
                0x00017688                UnityAssertNumbersWithin
                0x00017788                UnityAssertNumbersArrayWithin
                0x00017a18                UnityAssertEqualString
                0x00017ac4                UnityAssertEqualStringLen
                0x00017b80                UnityAssertEqualStringArray
                0x00017cd8                UnityAssertEqualMemory
                0x00017e38                UnityNumToPtr
                0x00017e80                UnityFloatToPtr
                0x00017ea4                UnityFail
                0x00017f48                UnityIgnore
                0x00017fa0                UnityMessage
                0x00017fec                UnityDefaultTestRun
                0x00018038                UnitySetTestFile
                0x00018058                UnityBegin
                0x000180ac                UnityEnd
 .text          0x00018138      0x654 build/unity/libunity.a(unity_fixture.c.o)
                0x00018138                set_up
                0x00018146                tear_down
                0x00018198                UnityMain
                0x00018280                UnityTestRunner
                0x00018310                UnityIgnoreTest
                0x0001837c                UnityPointer_Init
                0x00018394                UnityPointer_Set
                0x000183f4                UnityPointer_UndoAllSets
                0x00018438                UnityGetCommandLineOptions
                0x00018718                UnityConcludeFixtureTest
 .text          0x0001878c      0x448 build/interrupt_test_helper/libinterrupt_test_helper.a(interrupt_test_helper.c.o)
                0x00018a98                interrupt_test_init
                0x00018b20                interrupt_set_pending
                0x00018b3a                interrupt_clear_pending
                0x00018b54                interrupt_test_end
 .text          0x00018bd4        0x0 libfreertos_kernel.a(event_groups.c.o)
 .text          0x00018bd4        0x0 libfreertos_kernel.a(stream_buffer.c.o)
 *fill*         0x00018bd4        0x4 
 .text          0x00018bd8     0x1908 build/common/arch/libcommon.a(printf.c.o)
                0x0001a39e                printf_
                0x0001a3d4                sprintf_
                0x0001a40c                snprintf_
                0x0001a444                vprintf_
                0x0001a470                vsnprintf_
                0x0001a49c                fctprintf
 .text          0x0001a4e0      0x280 build/common/arch/libcommon.a(system_api.c.o)
                0x0001a604                ndelay
                0x0001a664                udelay
                0x0001a6c0                mdelay
                0x0001a718                delay
 .text          0x0001a760       0x30 /tools/arm-gnu-toolchain-13.2.Rel1-x86_64-arm-none-eabi/bin/../lib/gcc/arm-none-eabi/13.2.1/thumb/v7e-m+dp/hard/libgcc.a(_aeabi_uldivmod.o)
                0x0001a760                __aeabi_uldivmod
 .text          0x0001a790        0x0 /tools/arm-gnu-toolchain-13.2.Rel1-x86_64-arm-none-eabi/bin/../lib/gcc/arm-none-eabi/13.2.1/thumb/v7e-m+dp/hard/libgcc.a(_udivmoddi4.o)
 .text          0x0001a790        0x4 /tools/arm-gnu-toolchain-13.2.Rel1-x86_64-arm-none-eabi/bin/../lib/gcc/arm-none-eabi/13.2.1/thumb/v7e-m+dp/hard/libgcc.a(_dvmd_tls.o)
                0x0001a790                __aeabi_ldiv0
                0x0001a790                __aeabi_idiv0
 .text          0x0001a794        0x0 /tools/arm-gnu-toolchain-13.2.Rel1-x86_64-arm-none-eabi/bin/../lib/gcc/arm-none-eabi/13.2.1/../../../../arm-none-eabi/lib/thumb/v7e-m+dp/hard/libg.a(libc_a-strtol.o)
 .text          0x0001a794        0x0 /tools/arm-gnu-toolchain-13.2.Rel1-x86_64-arm-none-eabi/bin/../lib/gcc/arm-none-eabi/13.2.1/../../../../arm-none-eabi/lib/thumb/v7e-m+dp/hard/libg.a(libc_a-strtoul.o)
 .text          0x0001a794        0x0 /tools/arm-gnu-toolchain-13.2.Rel1-x86_64-arm-none-eabi/bin/../lib/gcc/arm-none-eabi/13.2.1/../../../../arm-none-eabi/lib/thumb/v7e-m+dp/hard/libg.a(libc_a-strncmp.o)
 .text          0x0001a794        0x0 /tools/arm-gnu-toolchain-13.2.Rel1-x86_64-arm-none-eabi/bin/../lib/gcc/arm-none-eabi/13.2.1/../../../../arm-none-eabi/lib/thumb/v7e-m+dp/hard/libg.a(libc_a-strtoll.o)
 .text          0x0001a794        0x0 /tools/arm-gnu-toolchain-13.2.Rel1-x86_64-arm-none-eabi/bin/../lib/gcc/arm-none-eabi/13.2.1/../../../../arm-none-eabi/lib/thumb/v7e-m+dp/hard/libg.a(libc_a-strncpy.o)
 .text          0x0001a794        0x0 /tools/arm-gnu-toolchain-13.2.Rel1-x86_64-arm-none-eabi/bin/../lib/gcc/arm-none-eabi/13.2.1/../../../../arm-none-eabi/lib/thumb/v7e-m+dp/hard/libg.a(libc_a-strtoull.o)
 .text          0x0001a794        0x0 /tools/arm-gnu-toolchain-13.2.Rel1-x86_64-arm-none-eabi/bin/../lib/gcc/arm-none-eabi/13.2.1/../../../../arm-none-eabi/lib/thumb/v7e-m+dp/hard/libg.a(libc_a-strpbrk.o)
 *fill*         0x0001a794       0x2c 
 .text          0x0001a7c0       0xd8 /tools/arm-gnu-toolchain-13.2.Rel1-x86_64-arm-none-eabi/bin/../lib/gcc/arm-none-eabi/13.2.1/../../../../arm-none-eabi/lib/thumb/v7e-m+dp/hard/libg.a(libc_a-strlen.o)
                0x0001a7c0                strlen
 .text          0x0001a898        0x0 /tools/arm-gnu-toolchain-13.2.Rel1-x86_64-arm-none-eabi/bin/../lib/gcc/arm-none-eabi/13.2.1/../../../../arm-none-eabi/lib/thumb/v7e-m+dp/hard/libg.a(libc_a-strspn.o)
 .text          0x0001a898        0x0 /tools/arm-gnu-toolchain-13.2.Rel1-x86_64-arm-none-eabi/bin/../lib/gcc/arm-none-eabi/13.2.1/../../../../arm-none-eabi/lib/thumb/v7e-m+dp/hard/libg.a(libc_a-strstr.o)
 .text          0x0001a898        0x0 /tools/arm-gnu-toolchain-13.2.Rel1-x86_64-arm-none-eabi/bin/../lib/gcc/arm-none-eabi/13.2.1/../../../../arm-none-eabi/lib/thumb/v7e-m+dp/hard/libg.a(libc_a-errno.o)
 .text          0x0001a898        0x0 /tools/arm-gnu-toolchain-13.2.Rel1-x86_64-arm-none-eabi/bin/../lib/gcc/arm-none-eabi/13.2.1/../../../../arm-none-eabi/lib/thumb/v7e-m+dp/hard/libg.a(libc_a-time.o)
 .text          0x0001a898        0x0 /tools/arm-gnu-toolchain-13.2.Rel1-x86_64-arm-none-eabi/bin/../lib/gcc/arm-none-eabi/13.2.1/../../../../arm-none-eabi/lib/thumb/v7e-m+dp/hard/libg.a(libc_a-memcmp.o)
 .text          0x0001a898        0x0 /tools/arm-gnu-toolchain-13.2.Rel1-x86_64-arm-none-eabi/bin/../lib/gcc/arm-none-eabi/13.2.1/../../../../arm-none-eabi/lib/thumb/v7e-m+dp/hard/libg.a(libc_a-memset.o)
 *fill*         0x0001a898        0x8 
 .text          0x0001a8a0      0x2e0 /tools/arm-gnu-toolchain-13.2.Rel1-x86_64-arm-none-eabi/bin/../lib/gcc/arm-none-eabi/13.2.1/../../../../arm-none-eabi/lib/thumb/v7e-m+dp/hard/libg.a(libc_a-strcmp.o)
                0x0001a8a0                strcmp
 .text          0x0001ab80        0x0 /tools/arm-gnu-toolchain-13.2.Rel1-x86_64-arm-none-eabi/bin/../lib/gcc/arm-none-eabi/13.2.1/../../../../arm-none-eabi/lib/thumb/v7e-m+dp/hard/libg.a(libc_a-atoi.o)
 .text          0x0001ab80        0x0 /tools/arm-gnu-toolchain-13.2.Rel1-x86_64-arm-none-eabi/bin/../lib/gcc/arm-none-eabi/13.2.1/../../../../arm-none-eabi/lib/thumb/v7e-m+dp/hard/libg.a(libc_a-strchr.o)
 .text          0x0001ab80        0x0 /tools/arm-gnu-toolchain-13.2.Rel1-x86_64-arm-none-eabi/bin/../lib/gcc/arm-none-eabi/13.2.1/../../../../arm-none-eabi/lib/thumb/v7e-m+dp/hard/libg.a(libc_a-rand.o)
 .text          0x0001ab80        0x0 /tools/arm-gnu-toolchain-13.2.Rel1-x86_64-arm-none-eabi/bin/../lib/gcc/arm-none-eabi/13.2.1/../../../../arm-none-eabi/lib/thumb/v7e-m+dp/hard/libg.a(libc_a-ctype_.o)
 .text          0x0001ab80        0x0 /tools/arm-gnu-toolchain-13.2.Rel1-x86_64-arm-none-eabi/bin/../lib/gcc/arm-none-eabi/13.2.1/../../../../arm-none-eabi/lib/thumb/v7e-m+dp/hard/libg.a(libc_a-impure.o)
 .text          0x0001ab80        0x0 /tools/arm-gnu-toolchain-13.2.Rel1-x86_64-arm-none-eabi/bin/../lib/gcc/arm-none-eabi/13.2.1/../../../../arm-none-eabi/lib/thumb/v7e-m+dp/hard/libg.a(libc_a-findfp.o)
 .text          0x0001ab80      0x134 /tools/arm-gnu-toolchain-13.2.Rel1-x86_64-arm-none-eabi/bin/../lib/gcc/arm-none-eabi/13.2.1/../../../../arm-none-eabi/lib/thumb/v7e-m+dp/hard/libg.a(libc_a-memcpy.o)
                0x0001ab80                memcpy
 .text          0x0001acb4        0x0 /tools/arm-gnu-toolchain-13.2.Rel1-x86_64-arm-none-eabi/bin/../lib/gcc/arm-none-eabi/13.2.1/../../../../arm-none-eabi/lib/thumb/v7e-m+dp/hard/libg.a(libc_a-strnlen.o)
 .text          0x0001acb4        0x0 /tools/arm-gnu-toolchain-13.2.Rel1-x86_64-arm-none-eabi/bin/../lib/gcc/arm-none-eabi/13.2.1/../../../../arm-none-eabi/lib/thumb/v7e-m+dp/hard/libg.a(libc_a-gettimeofdayr.o)
 .text          0x0001acb4        0x0 /tools/arm-gnu-toolchain-13.2.Rel1-x86_64-arm-none-eabi/bin/../lib/gcc/arm-none-eabi/13.2.1/../../../../arm-none-eabi/lib/thumb/v7e-m+dp/hard/libg.a(libc_a-stdio.o)
 .text          0x0001acb4        0x0 /tools/arm-gnu-toolchain-13.2.Rel1-x86_64-arm-none-eabi/bin/../lib/gcc/arm-none-eabi/13.2.1/../../../../arm-none-eabi/lib/thumb/v7e-m+dp/hard/libg.a(libc_a-fwalk.o)
 .text          0x0001acb4        0x0 /tools/arm-gnu-toolchain-13.2.Rel1-x86_64-arm-none-eabi/bin/../lib/gcc/arm-none-eabi/13.2.1/../../../../arm-none-eabi/lib/thumb/v7e-m+dp/hard/libg.a(libc_a-writer.o)
 .text          0x0001acb4        0x0 /tools/arm-gnu-toolchain-13.2.Rel1-x86_64-arm-none-eabi/bin/../lib/gcc/arm-none-eabi/13.2.1/../../../../arm-none-eabi/lib/thumb/v7e-m+dp/hard/libg.a(libc_a-mallocr.o)
 .text          0x0001acb4        0x0 /tools/arm-gnu-toolchain-13.2.Rel1-x86_64-arm-none-eabi/bin/../lib/gcc/arm-none-eabi/13.2.1/../../../../arm-none-eabi/lib/thumb/v7e-m+dp/hard/libg.a(libc_a-lock.o)
 .text          0x0001acb4        0x0 /tools/arm-gnu-toolchain-13.2.Rel1-x86_64-arm-none-eabi/bin/../lib/gcc/arm-none-eabi/13.2.1/../../../../arm-none-eabi/lib/thumb/v7e-m+dp/hard/libg.a(libc_a-fclose.o)
 .text          0x0001acb4        0x0 /tools/arm-gnu-toolchain-13.2.Rel1-x86_64-arm-none-eabi/bin/../lib/gcc/arm-none-eabi/13.2.1/../../../../arm-none-eabi/lib/thumb/v7e-m+dp/hard/libg.a(libc_a-mlock.o)
 .text          0x0001acb4        0x0 /tools/arm-gnu-toolchain-13.2.Rel1-x86_64-arm-none-eabi/bin/../lib/gcc/arm-none-eabi/13.2.1/../../../../arm-none-eabi/lib/thumb/v7e-m+dp/hard/libg.a(libc_a-closer.o)
 .text          0x0001acb4        0x0 /tools/arm-gnu-toolchain-13.2.Rel1-x86_64-arm-none-eabi/bin/../lib/gcc/arm-none-eabi/13.2.1/../../../../arm-none-eabi/lib/thumb/v7e-m+dp/hard/libg.a(libc_a-reent.o)
 .text          0x0001acb4        0x0 /tools/arm-gnu-toolchain-13.2.Rel1-x86_64-arm-none-eabi/bin/../lib/gcc/arm-none-eabi/13.2.1/../../../../arm-none-eabi/lib/thumb/v7e-m+dp/hard/libg.a(libc_a-fflush.o)
 .text          0x0001acb4        0x0 /tools/arm-gnu-toolchain-13.2.Rel1-x86_64-arm-none-eabi/bin/../lib/gcc/arm-none-eabi/13.2.1/../../../../arm-none-eabi/lib/thumb/v7e-m+dp/hard/libg.a(libc_a-freer.o)
 .text          0x0001acb4        0x0 /tools/arm-gnu-toolchain-13.2.Rel1-x86_64-arm-none-eabi/bin/../lib/gcc/arm-none-eabi/13.2.1/../../../../arm-none-eabi/lib/thumb/v7e-m+dp/hard/libg.a(libc_a-lseekr.o)
 .text          0x0001acb4        0x0 /tools/arm-gnu-toolchain-13.2.Rel1-x86_64-arm-none-eabi/bin/../lib/gcc/arm-none-eabi/13.2.1/../../../../arm-none-eabi/lib/thumb/v7e-m+dp/hard/libg.a(libc_a-readr.o)
 .text          0x0001acb4        0x0 /tools/arm-gnu-toolchain-13.2.Rel1-x86_64-arm-none-eabi/bin/../lib/gcc/arm-none-eabi/13.2.1/../../../../arm-none-eabi/lib/thumb/v7e-m+dp/hard/libg.a(libc_a-sbrkr.o)

.glue_7         0x0001acb4        0x0
 .glue_7        0x0001acb4        0x0 linker stubs

.glue_7t        0x0001acb4        0x0
 .glue_7t       0x0001acb4        0x0 linker stubs

.vfp11_veneer   0x0001acb4        0x0
 .vfp11_veneer  0x0001acb4        0x0 linker stubs

.v4_bx          0x0001acb4        0x0
 .v4_bx         0x0001acb4        0x0 linker stubs

.iplt           0x0001acb4        0x0
 .iplt          0x0001acb4        0x0 CMakeFiles/freertos_kernel.elf.dir/main_cm7.c.o

privileged_functions
                0x0001acb4     0x6bc6
 privileged_functions
                0x0001acb4     0x1800 libfreertos_kernel.a(queue.c.o)
                0x0001acb4                xQueueGenericSend
                0x0001af00                xQueuePeek
                0x0001b0d4                xQueuePeekFromISR
                0x0001b1bc                xQueueReceive
                0x0001b38c                uxQueueMessagesWaiting
                0x0001b3ce                uxQueueSpacesAvailable
                0x0001b41a                vQueueDelete
                0x0001b456                xQueueGenericSendFromISR
                0x0001b604                xQueueGiveFromISR
                0x0001b78a                xQueueReceiveFromISR
                0x0001b8ce                xQueueIsQueueEmptyFromISR
                0x0001b91c                xQueueIsQueueFullFromISR
                0x0001b96e                uxQueueMessagesWaitingFromISR
                0x0001b9b0                xQueueCreateMutex
                0x0001b9e0                xQueueCreateCountingSemaphore
                0x0001ba42                xQueueSemaphoreTake
                0x0001bc50                xQueueTakeMutexRecursive
                0x0001bcc2                xQueueGiveMutexRecursive
                0x0001bd30                xQueueGenericCreate
                0x0001bdd2                xQueueCreateSet
                0x0001bdf0                xQueueAddToSet
                0x0001be32                xQueueRemoveFromSet
                0x0001be7a                xQueueSelectFromSet
                0x0001bea0                xQueueSelectFromSetFromISR
                0x0001bec4                vQueueWaitForMessageRestricted
                0x0001bf2c                xQueueGenericReset
                0x0001c058                vQueueSetQueueNumber
                0x0001c074                uxQueueGetQueueNumber
                0x0001c08c                ucQueueGetQueueType
                0x0001c0a6                uxQueueGetQueueItemSize
                0x0001c0be                uxQueueGetQueueLength
 privileged_functions
                0x0001c4b4     0x2aac libfreertos_kernel.a(tasks.c.o)
                0x0001c4b4                xTaskCreate
                0x0001c4fc                vTaskDelay
                0x0001c56c                xTaskDelayUntil
                0x0001c67c                eTaskGetState
                0x0001c778                vTaskGetInfo
                0x0001c88c                vTaskSuspend
                0x0001c9d4                vTaskResume
                0x0001cae4                vTaskStartScheduler
                0x0001cb88                vTaskEndScheduler
                0x0001cbbc                vTaskSuspendAll
                0x0001cbd8                xTaskResumeAll
                0x0001cde8                xTaskGetTickCount
                0x0001ce08                xTaskGetTickCountFromISR
                0x0001ce2c                uxTaskGetNumberOfTasks
                0x0001ce44                pcTaskGetName
                0x0001ce94                uxTaskGetSystemState
                0x0001cf88                xTaskGenericNotify
                0x0001d1e8                xTaskGenericNotifyFromISR
                0x0001d4c0                xTaskGenericNotifyWait
                0x0001d5e8                vTaskGenericNotifyGiveFromISR
                0x0001d80c                ulTaskGenericNotifyTake
                0x0001d900                xTaskGenericNotifyStateClear
                0x0001d97c                ulTaskGenericNotifyValueClear
                0x0001d9f8                vTaskSetTimeOutState
                0x0001da4c                xTaskCheckForTimeOut
                0x0001db24                xTaskCatchUpTicks
                0x0001db80                xTaskIncrementTick
                0x0001ddb4                vTaskPlaceOnEventList
                0x0001de04                vTaskPlaceOnUnorderedEventList
                0x0001debc                vTaskPlaceOnEventListRestricted
                0x0001df4c                xTaskRemoveFromEventList
                0x0001e100                vTaskRemoveFromUnorderedEventList
                0x0001e28c                vTaskSwitchContext
                0x0001e358                uxTaskResetEventItemValue
                0x0001e388                xTaskGetCurrentTaskHandle
                0x0001e3a8                vTaskMissedYield
                0x0001e3c0                xTaskGetSchedulerState
                0x0001e3fc                xTaskPriorityInherit
                0x0001e538                xTaskPriorityDisinherit
                0x0001e68c                vTaskPriorityDisinheritAfterTimeout
                0x0001e808                uxTaskGetTaskNumber
                0x0001e834                vTaskSetTaskNumber
                0x0001e85a                pvTaskIncrementMutexHeldCount
                0x0001e888                vTaskInternalSetTimeOutState
 privileged_functions
                0x0001ef60      0xad8 libfreertos_kernel.a(timers.c.o)
                0x0001ef60                xTimerCreate
                0x0001efa2                pvTimerGetTimerID
                0x0001efe8                vTimerSetTimerID
                0x0001f02e                xTimerIsTimerActive
                0x0001f086                xTimerGetTimerDaemonTaskHandle
                0x0001f0c4                xTimerPendFunctionCallFromISR
                0x0001f104                xTimerPendFunctionCall
                0x0001f168                pcTimerGetName
                0x0001f1a6                vTimerSetReloadMode
                0x0001f212                xTimerGetReloadMode
                0x0001f26a                uxTimerGetReloadMode
                0x0001f286                xTimerGetPeriod
                0x0001f2c4                xTimerGetExpiryTime
                0x0001f306                xTimerCreateTimerTask
                0x0001f370                xTimerGenericCommandFromTask
                0x0001f420                xTimerGenericCommandFromISR
                0x0001f4b0                vTimerSetTimerNumber
                0x0001f4cc                uxTimerGetTimerNumber
 privileged_functions
                0x0001fa38      0x5bc libfreertos_kernel.a(heap_4.c.o)
                0x0001fa38                pvPortMalloc
                0x0001fcb4                pvPortCalloc
                0x0001fd14                vPortFree
                0x0001fe0c                vPortInitialiseBlocks
                0x0001fe1a                xPortGetFreeHeapSize
                0x0001fe30                xPortGetMinimumEverFreeHeapSize
 privileged_functions
                0x0001fff4      0x168 libfreertos_kernel.a(list.c.o)
                0x0001fff4                vListInitialise
                0x00020034                vListInitialiseItem
                0x0002004e                vListInsert
                0x000200c0                vListInsertEnd
                0x00020108                uxListRemove
 privileged_functions
                0x0002015c      0x244 portable/libfreertos_kernel_port.a(port.c.o)
                0x0002015c                pxPortInitialiseStack
                0x000201c4                xPortStartScheduler
                0x00020364                vPortEndScheduler
 privileged_functions
                0x000203a0      0x6cc libfreertos_kernel.a(event_groups.c.o)
                0x000203a0                xEventGroupCreate
                0x000203ce                xEventGroupWaitBits
                0x00020580                xEventGroupClearBits
                0x000205fa                xEventGroupClearBitsFromISR
                0x00020620                xEventGroupSetBits
                0x00020740                xEventGroupSetBitsFromISR
                0x00020768                xEventGroupSync
                0x000208d4                xEventGroupGetBitsFromISR
                0x00020920                vEventGroupDelete
                0x000209aa                vEventGroupSetBitsCallback
                0x000209c4                vEventGroupClearBitsCallback
                0x000209de                uxEventGroupGetNumber
                0x00020a0a                vEventGroupSetNumber
 privileged_functions
                0x00020a6c      0xe0e libfreertos_kernel.a(stream_buffer.c.o)
                0x00020a6c                xStreamBufferSend
                0x00020c1e                xStreamBufferSendFromISR
                0x00020d14                xStreamBufferReceive
                0x00020e56                xStreamBufferReceiveFromISR
                0x00020f44                vStreamBufferDelete
                0x00020f98                xStreamBufferIsFull
                0x00020ffe                xStreamBufferIsEmpty
                0x00021054                xStreamBufferReset
                0x000210e4                xStreamBufferSpacesAvailable
                0x00021160                xStreamBufferBytesAvailable
                0x000211a0                xStreamBufferSetTriggerLevel
                0x00021202                xStreamBufferSendCompletedFromISR
                0x00021296                xStreamBufferReceiveCompletedFromISR
                0x0002132a                xStreamBufferGenericCreate
                0x0002140a                xStreamBufferNextMessageLengthBytes
                0x0002149e                vStreamBufferSetStreamBufferNumber
                0x000214ba                uxStreamBufferGetStreamBufferNumber
                0x000214d2                ucStreamBufferGetStreamBufferType

.text.__udivmoddi4
                0x0002187c      0x2bc
 .text.__udivmoddi4
                0x0002187c      0x2bc /tools/arm-gnu-toolchain-13.2.Rel1-x86_64-arm-none-eabi/bin/../lib/gcc/arm-none-eabi/13.2.1/thumb/v7e-m+dp/hard/libgcc.a(_udivmoddi4.o)
                0x0002187c                __udivmoddi4

.text._strtol_l.isra.0
                0x00021b38      0x138
 .text._strtol_l.isra.0
                0x00021b38      0x138 /tools/arm-gnu-toolchain-13.2.Rel1-x86_64-arm-none-eabi/bin/../lib/gcc/arm-none-eabi/13.2.1/../../../../arm-none-eabi/lib/thumb/v7e-m+dp/hard/libg.a(libc_a-strtol.o)

.text._strtol_r
                0x00021c70        0x4
 .text._strtol_r
                0x00021c70        0x4 /tools/arm-gnu-toolchain-13.2.Rel1-x86_64-arm-none-eabi/bin/../lib/gcc/arm-none-eabi/13.2.1/../../../../arm-none-eabi/lib/thumb/v7e-m+dp/hard/libg.a(libc_a-strtol.o)
                0x00021c70                _strtol_r

.text.strtol_l  0x00021c74       0x1c
 .text.strtol_l
                0x00021c74       0x1c /tools/arm-gnu-toolchain-13.2.Rel1-x86_64-arm-none-eabi/bin/../lib/gcc/arm-none-eabi/13.2.1/../../../../arm-none-eabi/lib/thumb/v7e-m+dp/hard/libg.a(libc_a-strtol.o)
                0x00021c74                strtol_l

.text.strtol    0x00021c90       0x1c
 .text.strtol   0x00021c90       0x1c /tools/arm-gnu-toolchain-13.2.Rel1-x86_64-arm-none-eabi/bin/../lib/gcc/arm-none-eabi/13.2.1/../../../../arm-none-eabi/lib/thumb/v7e-m+dp/hard/libg.a(libc_a-strtol.o)
                0x00021c90                strtol

.text._strtoul_l.isra.0
                0x00021cac      0x134
 .text._strtoul_l.isra.0
                0x00021cac      0x134 /tools/arm-gnu-toolchain-13.2.Rel1-x86_64-arm-none-eabi/bin/../lib/gcc/arm-none-eabi/13.2.1/../../../../arm-none-eabi/lib/thumb/v7e-m+dp/hard/libg.a(libc_a-strtoul.o)

.text._strtoul_r
                0x00021de0        0x4
 .text._strtoul_r
                0x00021de0        0x4 /tools/arm-gnu-toolchain-13.2.Rel1-x86_64-arm-none-eabi/bin/../lib/gcc/arm-none-eabi/13.2.1/../../../../arm-none-eabi/lib/thumb/v7e-m+dp/hard/libg.a(libc_a-strtoul.o)
                0x00021de0                _strtoul_r

.text.strtoul_l
                0x00021de4       0x1c
 .text.strtoul_l
                0x00021de4       0x1c /tools/arm-gnu-toolchain-13.2.Rel1-x86_64-arm-none-eabi/bin/../lib/gcc/arm-none-eabi/13.2.1/../../../../arm-none-eabi/lib/thumb/v7e-m+dp/hard/libg.a(libc_a-strtoul.o)
                0x00021de4                strtoul_l

.text.strtoul   0x00021e00       0x1c
 .text.strtoul  0x00021e00       0x1c /tools/arm-gnu-toolchain-13.2.Rel1-x86_64-arm-none-eabi/bin/../lib/gcc/arm-none-eabi/13.2.1/../../../../arm-none-eabi/lib/thumb/v7e-m+dp/hard/libg.a(libc_a-strtoul.o)
                0x00021e00                strtoul

.text.strncmp   0x00021e1c       0x8c
 .text.strncmp  0x00021e1c       0x8c /tools/arm-gnu-toolchain-13.2.Rel1-x86_64-arm-none-eabi/bin/../lib/gcc/arm-none-eabi/13.2.1/../../../../arm-none-eabi/lib/thumb/v7e-m+dp/hard/libg.a(libc_a-strncmp.o)
                0x00021e1c                strncmp

.text._strtoll_l.isra.0
                0x00021ea8      0x17c
 .text._strtoll_l.isra.0
                0x00021ea8      0x17c /tools/arm-gnu-toolchain-13.2.Rel1-x86_64-arm-none-eabi/bin/../lib/gcc/arm-none-eabi/13.2.1/../../../../arm-none-eabi/lib/thumb/v7e-m+dp/hard/libg.a(libc_a-strtoll.o)

.text._strtoll_r
                0x00022024        0x4
 .text._strtoll_r
                0x00022024        0x4 /tools/arm-gnu-toolchain-13.2.Rel1-x86_64-arm-none-eabi/bin/../lib/gcc/arm-none-eabi/13.2.1/../../../../arm-none-eabi/lib/thumb/v7e-m+dp/hard/libg.a(libc_a-strtoll.o)
                0x00022024                _strtoll_r

.text.strtoll_l
                0x00022028       0x1c
 .text.strtoll_l
                0x00022028       0x1c /tools/arm-gnu-toolchain-13.2.Rel1-x86_64-arm-none-eabi/bin/../lib/gcc/arm-none-eabi/13.2.1/../../../../arm-none-eabi/lib/thumb/v7e-m+dp/hard/libg.a(libc_a-strtoll.o)
                0x00022028                strtoll_l

.text.strtoll   0x00022044       0x1c
 .text.strtoll  0x00022044       0x1c /tools/arm-gnu-toolchain-13.2.Rel1-x86_64-arm-none-eabi/bin/../lib/gcc/arm-none-eabi/13.2.1/../../../../arm-none-eabi/lib/thumb/v7e-m+dp/hard/libg.a(libc_a-strtoll.o)
                0x00022044                strtoll

.text.strncpy   0x00022060       0x68
 .text.strncpy  0x00022060       0x68 /tools/arm-gnu-toolchain-13.2.Rel1-x86_64-arm-none-eabi/bin/../lib/gcc/arm-none-eabi/13.2.1/../../../../arm-none-eabi/lib/thumb/v7e-m+dp/hard/libg.a(libc_a-strncpy.o)
                0x00022060                strncpy

.text._strtoull_l.isra.0
                0x000220c8      0x194
 .text._strtoull_l.isra.0
                0x000220c8      0x194 /tools/arm-gnu-toolchain-13.2.Rel1-x86_64-arm-none-eabi/bin/../lib/gcc/arm-none-eabi/13.2.1/../../../../arm-none-eabi/lib/thumb/v7e-m+dp/hard/libg.a(libc_a-strtoull.o)

.text._strtoull_r
                0x0002225c        0x4
 .text._strtoull_r
                0x0002225c        0x4 /tools/arm-gnu-toolchain-13.2.Rel1-x86_64-arm-none-eabi/bin/../lib/gcc/arm-none-eabi/13.2.1/../../../../arm-none-eabi/lib/thumb/v7e-m+dp/hard/libg.a(libc_a-strtoull.o)
                0x0002225c                _strtoull_r

.text.strtoull_l
                0x00022260       0x1c
 .text.strtoull_l
                0x00022260       0x1c /tools/arm-gnu-toolchain-13.2.Rel1-x86_64-arm-none-eabi/bin/../lib/gcc/arm-none-eabi/13.2.1/../../../../arm-none-eabi/lib/thumb/v7e-m+dp/hard/libg.a(libc_a-strtoull.o)
                0x00022260                strtoull_l

.text.strtoull  0x0002227c       0x1c
 .text.strtoull
                0x0002227c       0x1c /tools/arm-gnu-toolchain-13.2.Rel1-x86_64-arm-none-eabi/bin/../lib/gcc/arm-none-eabi/13.2.1/../../../../arm-none-eabi/lib/thumb/v7e-m+dp/hard/libg.a(libc_a-strtoull.o)
                0x0002227c                strtoull

.text.strpbrk   0x00022298       0x44
 .text.strpbrk  0x00022298       0x44 /tools/arm-gnu-toolchain-13.2.Rel1-x86_64-arm-none-eabi/bin/../lib/gcc/arm-none-eabi/13.2.1/../../../../arm-none-eabi/lib/thumb/v7e-m+dp/hard/libg.a(libc_a-strpbrk.o)
                0x00022298                strpbrk

.text.strspn    0x000222dc       0x30
 .text.strspn   0x000222dc       0x30 /tools/arm-gnu-toolchain-13.2.Rel1-x86_64-arm-none-eabi/bin/../lib/gcc/arm-none-eabi/13.2.1/../../../../arm-none-eabi/lib/thumb/v7e-m+dp/hard/libg.a(libc_a-strspn.o)
                0x000222dc                strspn

.text.critical_factorization
                0x0002230c       0xc8
 .text.critical_factorization
                0x0002230c       0xc8 /tools/arm-gnu-toolchain-13.2.Rel1-x86_64-arm-none-eabi/bin/../lib/gcc/arm-none-eabi/13.2.1/../../../../arm-none-eabi/lib/thumb/v7e-m+dp/hard/libg.a(libc_a-strstr.o)

.text.two_way_short_needle
                0x000223d4      0x188
 .text.two_way_short_needle
                0x000223d4      0x188 /tools/arm-gnu-toolchain-13.2.Rel1-x86_64-arm-none-eabi/bin/../lib/gcc/arm-none-eabi/13.2.1/../../../../arm-none-eabi/lib/thumb/v7e-m+dp/hard/libg.a(libc_a-strstr.o)

.text.two_way_long_needle
                0x0002255c      0x200
 .text.two_way_long_needle
                0x0002255c      0x200 /tools/arm-gnu-toolchain-13.2.Rel1-x86_64-arm-none-eabi/bin/../lib/gcc/arm-none-eabi/13.2.1/../../../../arm-none-eabi/lib/thumb/v7e-m+dp/hard/libg.a(libc_a-strstr.o)

.text.strstr    0x0002275c      0x16c
 .text.strstr   0x0002275c      0x16c /tools/arm-gnu-toolchain-13.2.Rel1-x86_64-arm-none-eabi/bin/../lib/gcc/arm-none-eabi/13.2.1/../../../../arm-none-eabi/lib/thumb/v7e-m+dp/hard/libg.a(libc_a-strstr.o)
                0x0002275c                strstr

.text.__errno   0x000228c8        0xc
 .text.__errno  0x000228c8        0xc /tools/arm-gnu-toolchain-13.2.Rel1-x86_64-arm-none-eabi/bin/../lib/gcc/arm-none-eabi/13.2.1/../../../../arm-none-eabi/lib/thumb/v7e-m+dp/hard/libg.a(libc_a-errno.o)
                0x000228c8                __errno

.text.time      0x000228d4       0x38
 .text.time     0x000228d4       0x38 /tools/arm-gnu-toolchain-13.2.Rel1-x86_64-arm-none-eabi/bin/../lib/gcc/arm-none-eabi/13.2.1/../../../../arm-none-eabi/lib/thumb/v7e-m+dp/hard/libg.a(libc_a-time.o)
                0x000228d4                time

.text.memcmp    0x0002290c       0x5c
 .text.memcmp   0x0002290c       0x5c /tools/arm-gnu-toolchain-13.2.Rel1-x86_64-arm-none-eabi/bin/../lib/gcc/arm-none-eabi/13.2.1/../../../../arm-none-eabi/lib/thumb/v7e-m+dp/hard/libg.a(libc_a-memcmp.o)
                0x0002290c                memcmp

.text.memset    0x00022968       0xa4
 .text.memset   0x00022968       0xa4 /tools/arm-gnu-toolchain-13.2.Rel1-x86_64-arm-none-eabi/bin/../lib/gcc/arm-none-eabi/13.2.1/../../../../arm-none-eabi/lib/thumb/v7e-m+dp/hard/libg.a(libc_a-memset.o)
                0x00022968                memset

.text.atoi      0x00022a0c        0x8
 .text.atoi     0x00022a0c        0x8 /tools/arm-gnu-toolchain-13.2.Rel1-x86_64-arm-none-eabi/bin/../lib/gcc/arm-none-eabi/13.2.1/../../../../arm-none-eabi/lib/thumb/v7e-m+dp/hard/libg.a(libc_a-atoi.o)
                0x00022a0c                atoi

.text._atoi_r   0x00022a14        0x8
 .text._atoi_r  0x00022a14        0x8 /tools/arm-gnu-toolchain-13.2.Rel1-x86_64-arm-none-eabi/bin/../lib/gcc/arm-none-eabi/13.2.1/../../../../arm-none-eabi/lib/thumb/v7e-m+dp/hard/libg.a(libc_a-atoi.o)
                0x00022a14                _atoi_r

.text.strchr    0x00022a1c       0xd0
 .text.strchr   0x00022a1c       0xd0 /tools/arm-gnu-toolchain-13.2.Rel1-x86_64-arm-none-eabi/bin/../lib/gcc/arm-none-eabi/13.2.1/../../../../arm-none-eabi/lib/thumb/v7e-m+dp/hard/libg.a(libc_a-strchr.o)
                0x00022a1c                strchr

.text.srand     0x00022aec       0x10
 .text.srand    0x00022aec       0x10 /tools/arm-gnu-toolchain-13.2.Rel1-x86_64-arm-none-eabi/bin/../lib/gcc/arm-none-eabi/13.2.1/../../../../arm-none-eabi/lib/thumb/v7e-m+dp/hard/libg.a(libc_a-rand.o)
                0x00022aec                srand

.text.rand      0x00022afc       0x40
 .text.rand     0x00022afc       0x40 /tools/arm-gnu-toolchain-13.2.Rel1-x86_64-arm-none-eabi/bin/../lib/gcc/arm-none-eabi/13.2.1/../../../../arm-none-eabi/lib/thumb/v7e-m+dp/hard/libg.a(libc_a-rand.o)
                0x00022afc                rand

.text.__set_ctype
                0x00022b3c        0xc
 .text.__set_ctype
                0x00022b3c        0xc /tools/arm-gnu-toolchain-13.2.Rel1-x86_64-arm-none-eabi/bin/../lib/gcc/arm-none-eabi/13.2.1/../../../../arm-none-eabi/lib/thumb/v7e-m+dp/hard/libg.a(libc_a-ctype_.o)
                0x00022b3c                __set_ctype

.text.stdio_exit_handler
                0x00022b48       0x18
 .text.stdio_exit_handler
                0x00022b48       0x18 /tools/arm-gnu-toolchain-13.2.Rel1-x86_64-arm-none-eabi/bin/../lib/gcc/arm-none-eabi/13.2.1/../../../../arm-none-eabi/lib/thumb/v7e-m+dp/hard/libg.a(libc_a-findfp.o)

.text.cleanup_stdio
                0x00022b60       0x40
 .text.cleanup_stdio
                0x00022b60       0x40 /tools/arm-gnu-toolchain-13.2.Rel1-x86_64-arm-none-eabi/bin/../lib/gcc/arm-none-eabi/13.2.1/../../../../arm-none-eabi/lib/thumb/v7e-m+dp/hard/libg.a(libc_a-findfp.o)

.text.__fp_lock
                0x00022ba0       0x1c
 .text.__fp_lock
                0x00022ba0       0x1c /tools/arm-gnu-toolchain-13.2.Rel1-x86_64-arm-none-eabi/bin/../lib/gcc/arm-none-eabi/13.2.1/../../../../arm-none-eabi/lib/thumb/v7e-m+dp/hard/libg.a(libc_a-findfp.o)

.text.__fp_unlock
                0x00022bbc       0x1c
 .text.__fp_unlock
                0x00022bbc       0x1c /tools/arm-gnu-toolchain-13.2.Rel1-x86_64-arm-none-eabi/bin/../lib/gcc/arm-none-eabi/13.2.1/../../../../arm-none-eabi/lib/thumb/v7e-m+dp/hard/libg.a(libc_a-findfp.o)

.text.global_stdio_init.part.0
                0x00022bd8       0xf0
 .text.global_stdio_init.part.0
                0x00022bd8       0xf0 /tools/arm-gnu-toolchain-13.2.Rel1-x86_64-arm-none-eabi/bin/../lib/gcc/arm-none-eabi/13.2.1/../../../../arm-none-eabi/lib/thumb/v7e-m+dp/hard/libg.a(libc_a-findfp.o)

.text.__sfp     0x00022cc8       0xc0
 .text.__sfp    0x00022cc8       0xc0 /tools/arm-gnu-toolchain-13.2.Rel1-x86_64-arm-none-eabi/bin/../lib/gcc/arm-none-eabi/13.2.1/../../../../arm-none-eabi/lib/thumb/v7e-m+dp/hard/libg.a(libc_a-findfp.o)
                0x00022cc8                __sfp

.text.__sinit   0x00022d88       0x3c
 .text.__sinit  0x00022d88       0x3c /tools/arm-gnu-toolchain-13.2.Rel1-x86_64-arm-none-eabi/bin/../lib/gcc/arm-none-eabi/13.2.1/../../../../arm-none-eabi/lib/thumb/v7e-m+dp/hard/libg.a(libc_a-findfp.o)
                0x00022d88                __sinit

.text.__sfp_lock_acquire
                0x00022dc4        0xc
 .text.__sfp_lock_acquire
                0x00022dc4        0xc /tools/arm-gnu-toolchain-13.2.Rel1-x86_64-arm-none-eabi/bin/../lib/gcc/arm-none-eabi/13.2.1/../../../../arm-none-eabi/lib/thumb/v7e-m+dp/hard/libg.a(libc_a-findfp.o)
                0x00022dc4                __sfp_lock_acquire

.text.__sfp_lock_release
                0x00022dd0        0xc
 .text.__sfp_lock_release
                0x00022dd0        0xc /tools/arm-gnu-toolchain-13.2.Rel1-x86_64-arm-none-eabi/bin/../lib/gcc/arm-none-eabi/13.2.1/../../../../arm-none-eabi/lib/thumb/v7e-m+dp/hard/libg.a(libc_a-findfp.o)
                0x00022dd0                __sfp_lock_release

.text.__fp_lock_all
                0x00022ddc       0x24
 .text.__fp_lock_all
                0x00022ddc       0x24 /tools/arm-gnu-toolchain-13.2.Rel1-x86_64-arm-none-eabi/bin/../lib/gcc/arm-none-eabi/13.2.1/../../../../arm-none-eabi/lib/thumb/v7e-m+dp/hard/libg.a(libc_a-findfp.o)
                0x00022ddc                __fp_lock_all

.text.__fp_unlock_all
                0x00022e00       0x24
 .text.__fp_unlock_all
                0x00022e00       0x24 /tools/arm-gnu-toolchain-13.2.Rel1-x86_64-arm-none-eabi/bin/../lib/gcc/arm-none-eabi/13.2.1/../../../../arm-none-eabi/lib/thumb/v7e-m+dp/hard/libg.a(libc_a-findfp.o)
                0x00022e00                __fp_unlock_all

.text.strnlen   0x00022e24       0x24
 .text.strnlen  0x00022e24       0x24 /tools/arm-gnu-toolchain-13.2.Rel1-x86_64-arm-none-eabi/bin/../lib/gcc/arm-none-eabi/13.2.1/../../../../arm-none-eabi/lib/thumb/v7e-m+dp/hard/libg.a(libc_a-strnlen.o)
                0x00022e24                strnlen

.text._gettimeofday_r
                0x00022e48       0x2c
 .text._gettimeofday_r
                0x00022e48       0x2c /tools/arm-gnu-toolchain-13.2.Rel1-x86_64-arm-none-eabi/bin/../lib/gcc/arm-none-eabi/13.2.1/../../../../arm-none-eabi/lib/thumb/v7e-m+dp/hard/libg.a(libc_a-gettimeofdayr.o)
                0x00022e48                _gettimeofday_r

.text.__sread   0x00022e74       0x24
 .text.__sread  0x00022e74       0x24 /tools/arm-gnu-toolchain-13.2.Rel1-x86_64-arm-none-eabi/bin/../lib/gcc/arm-none-eabi/13.2.1/../../../../arm-none-eabi/lib/thumb/v7e-m+dp/hard/libg.a(libc_a-stdio.o)
                0x00022e74                __sread

.text.__seofread
                0x00022e98        0x4
 .text.__seofread
                0x00022e98        0x4 /tools/arm-gnu-toolchain-13.2.Rel1-x86_64-arm-none-eabi/bin/../lib/gcc/arm-none-eabi/13.2.1/../../../../arm-none-eabi/lib/thumb/v7e-m+dp/hard/libg.a(libc_a-stdio.o)
                0x00022e98                __seofread

.text.__swrite  0x00022e9c       0x40
 .text.__swrite
                0x00022e9c       0x40 /tools/arm-gnu-toolchain-13.2.Rel1-x86_64-arm-none-eabi/bin/../lib/gcc/arm-none-eabi/13.2.1/../../../../arm-none-eabi/lib/thumb/v7e-m+dp/hard/libg.a(libc_a-stdio.o)
                0x00022e9c                __swrite

.text.__sseek   0x00022edc       0x24
 .text.__sseek  0x00022edc       0x24 /tools/arm-gnu-toolchain-13.2.Rel1-x86_64-arm-none-eabi/bin/../lib/gcc/arm-none-eabi/13.2.1/../../../../arm-none-eabi/lib/thumb/v7e-m+dp/hard/libg.a(libc_a-stdio.o)
                0x00022edc                __sseek

.text.__sclose  0x00022f00        0x8
 .text.__sclose
                0x00022f00        0x8 /tools/arm-gnu-toolchain-13.2.Rel1-x86_64-arm-none-eabi/bin/../lib/gcc/arm-none-eabi/13.2.1/../../../../arm-none-eabi/lib/thumb/v7e-m+dp/hard/libg.a(libc_a-stdio.o)
                0x00022f00                __sclose

.text._fwalk_sglue
                0x00022f08       0x44
 .text._fwalk_sglue
                0x00022f08       0x44 /tools/arm-gnu-toolchain-13.2.Rel1-x86_64-arm-none-eabi/bin/../lib/gcc/arm-none-eabi/13.2.1/../../../../arm-none-eabi/lib/thumb/v7e-m+dp/hard/libg.a(libc_a-fwalk.o)
                0x00022f08                _fwalk_sglue

.text._write_r  0x00022f4c       0x2c
 .text._write_r
                0x00022f4c       0x2c /tools/arm-gnu-toolchain-13.2.Rel1-x86_64-arm-none-eabi/bin/../lib/gcc/arm-none-eabi/13.2.1/../../../../arm-none-eabi/lib/thumb/v7e-m+dp/hard/libg.a(libc_a-writer.o)
                0x00022f4c                _write_r

.text._malloc_r
                0x00022f78      0x564
 .text._malloc_r
                0x00022f78      0x564 /tools/arm-gnu-toolchain-13.2.Rel1-x86_64-arm-none-eabi/bin/../lib/gcc/arm-none-eabi/13.2.1/../../../../arm-none-eabi/lib/thumb/v7e-m+dp/hard/libg.a(libc_a-mallocr.o)
                0x00022f78                _malloc_r

.text.__retarget_lock_init
                0x000234dc        0x4
 .text.__retarget_lock_init
                0x000234dc        0x4 /tools/arm-gnu-toolchain-13.2.Rel1-x86_64-arm-none-eabi/bin/../lib/gcc/arm-none-eabi/13.2.1/../../../../arm-none-eabi/lib/thumb/v7e-m+dp/hard/libg.a(libc_a-lock.o)
                0x000234dc                __retarget_lock_init

.text.__retarget_lock_init_recursive
                0x000234e0        0x4
 .text.__retarget_lock_init_recursive
                0x000234e0        0x4 /tools/arm-gnu-toolchain-13.2.Rel1-x86_64-arm-none-eabi/bin/../lib/gcc/arm-none-eabi/13.2.1/../../../../arm-none-eabi/lib/thumb/v7e-m+dp/hard/libg.a(libc_a-lock.o)
                0x000234e0                __retarget_lock_init_recursive

.text.__retarget_lock_close
                0x000234e4        0x4
 .text.__retarget_lock_close
                0x000234e4        0x4 /tools/arm-gnu-toolchain-13.2.Rel1-x86_64-arm-none-eabi/bin/../lib/gcc/arm-none-eabi/13.2.1/../../../../arm-none-eabi/lib/thumb/v7e-m+dp/hard/libg.a(libc_a-lock.o)
                0x000234e4                __retarget_lock_close

.text.__retarget_lock_close_recursive
                0x000234e8        0x4
 .text.__retarget_lock_close_recursive
                0x000234e8        0x4 /tools/arm-gnu-toolchain-13.2.Rel1-x86_64-arm-none-eabi/bin/../lib/gcc/arm-none-eabi/13.2.1/../../../../arm-none-eabi/lib/thumb/v7e-m+dp/hard/libg.a(libc_a-lock.o)
                0x000234e8                __retarget_lock_close_recursive

.text.__retarget_lock_acquire
                0x000234ec        0x4
 .text.__retarget_lock_acquire
                0x000234ec        0x4 /tools/arm-gnu-toolchain-13.2.Rel1-x86_64-arm-none-eabi/bin/../lib/gcc/arm-none-eabi/13.2.1/../../../../arm-none-eabi/lib/thumb/v7e-m+dp/hard/libg.a(libc_a-lock.o)
                0x000234ec                __retarget_lock_acquire

.text.__retarget_lock_acquire_recursive
                0x000234f0        0x4
 .text.__retarget_lock_acquire_recursive
                0x000234f0        0x4 /tools/arm-gnu-toolchain-13.2.Rel1-x86_64-arm-none-eabi/bin/../lib/gcc/arm-none-eabi/13.2.1/../../../../arm-none-eabi/lib/thumb/v7e-m+dp/hard/libg.a(libc_a-lock.o)
                0x000234f0                __retarget_lock_acquire_recursive

.text.__retarget_lock_try_acquire
                0x000234f4        0x4
 .text.__retarget_lock_try_acquire
                0x000234f4        0x4 /tools/arm-gnu-toolchain-13.2.Rel1-x86_64-arm-none-eabi/bin/../lib/gcc/arm-none-eabi/13.2.1/../../../../arm-none-eabi/lib/thumb/v7e-m+dp/hard/libg.a(libc_a-lock.o)
                0x000234f4                __retarget_lock_try_acquire

.text.__retarget_lock_try_acquire_recursive
                0x000234f8        0x4
 .text.__retarget_lock_try_acquire_recursive
                0x000234f8        0x4 /tools/arm-gnu-toolchain-13.2.Rel1-x86_64-arm-none-eabi/bin/../lib/gcc/arm-none-eabi/13.2.1/../../../../arm-none-eabi/lib/thumb/v7e-m+dp/hard/libg.a(libc_a-lock.o)
                0x000234f8                __retarget_lock_try_acquire_recursive

.text.__retarget_lock_release
                0x000234fc        0x4
 .text.__retarget_lock_release
                0x000234fc        0x4 /tools/arm-gnu-toolchain-13.2.Rel1-x86_64-arm-none-eabi/bin/../lib/gcc/arm-none-eabi/13.2.1/../../../../arm-none-eabi/lib/thumb/v7e-m+dp/hard/libg.a(libc_a-lock.o)
                0x000234fc                __retarget_lock_release

.text.__retarget_lock_release_recursive
                0x00023500        0x4
 .text.__retarget_lock_release_recursive
                0x00023500        0x4 /tools/arm-gnu-toolchain-13.2.Rel1-x86_64-arm-none-eabi/bin/../lib/gcc/arm-none-eabi/13.2.1/../../../../arm-none-eabi/lib/thumb/v7e-m+dp/hard/libg.a(libc_a-lock.o)
                0x00023500                __retarget_lock_release_recursive

.text._fclose_r
                0x00023504       0xc0
 .text._fclose_r
                0x00023504       0xc0 /tools/arm-gnu-toolchain-13.2.Rel1-x86_64-arm-none-eabi/bin/../lib/gcc/arm-none-eabi/13.2.1/../../../../arm-none-eabi/lib/thumb/v7e-m+dp/hard/libg.a(libc_a-fclose.o)
                0x00023504                _fclose_r

.text.fclose    0x000235c4       0x10
 .text.fclose   0x000235c4       0x10 /tools/arm-gnu-toolchain-13.2.Rel1-x86_64-arm-none-eabi/bin/../lib/gcc/arm-none-eabi/13.2.1/../../../../arm-none-eabi/lib/thumb/v7e-m+dp/hard/libg.a(libc_a-fclose.o)
                0x000235c4                fclose

.text.__malloc_lock
                0x000235d4        0xc
 .text.__malloc_lock
                0x000235d4        0xc /tools/arm-gnu-toolchain-13.2.Rel1-x86_64-arm-none-eabi/bin/../lib/gcc/arm-none-eabi/13.2.1/../../../../arm-none-eabi/lib/thumb/v7e-m+dp/hard/libg.a(libc_a-mlock.o)
                0x000235d4                __malloc_lock

.text.__malloc_unlock
                0x000235e0        0xc
 .text.__malloc_unlock
                0x000235e0        0xc /tools/arm-gnu-toolchain-13.2.Rel1-x86_64-arm-none-eabi/bin/../lib/gcc/arm-none-eabi/13.2.1/../../../../arm-none-eabi/lib/thumb/v7e-m+dp/hard/libg.a(libc_a-mlock.o)
                0x000235e0                __malloc_unlock

.text._close_r  0x000235ec       0x24
 .text._close_r
                0x000235ec       0x24 /tools/arm-gnu-toolchain-13.2.Rel1-x86_64-arm-none-eabi/bin/../lib/gcc/arm-none-eabi/13.2.1/../../../../arm-none-eabi/lib/thumb/v7e-m+dp/hard/libg.a(libc_a-closer.o)
                0x000235ec                _close_r

.text._reclaim_reent
                0x00023610       0x5c
 .text._reclaim_reent
                0x00023610       0x5c /tools/arm-gnu-toolchain-13.2.Rel1-x86_64-arm-none-eabi/bin/../lib/gcc/arm-none-eabi/13.2.1/../../../../arm-none-eabi/lib/thumb/v7e-m+dp/hard/libg.a(libc_a-reent.o)
                0x00023610                _reclaim_reent

.text.__sflush_r
                0x0002366c      0x138
 .text.__sflush_r
                0x0002366c      0x138 /tools/arm-gnu-toolchain-13.2.Rel1-x86_64-arm-none-eabi/bin/../lib/gcc/arm-none-eabi/13.2.1/../../../../arm-none-eabi/lib/thumb/v7e-m+dp/hard/libg.a(libc_a-fflush.o)
                0x0002366c                __sflush_r

.text._fflush_r
                0x000237a4       0x54
 .text._fflush_r
                0x000237a4       0x54 /tools/arm-gnu-toolchain-13.2.Rel1-x86_64-arm-none-eabi/bin/../lib/gcc/arm-none-eabi/13.2.1/../../../../arm-none-eabi/lib/thumb/v7e-m+dp/hard/libg.a(libc_a-fflush.o)
                0x000237a4                _fflush_r

.text.fflush    0x000237f8       0x74
 .text.fflush   0x000237f8       0x74 /tools/arm-gnu-toolchain-13.2.Rel1-x86_64-arm-none-eabi/bin/../lib/gcc/arm-none-eabi/13.2.1/../../../../arm-none-eabi/lib/thumb/v7e-m+dp/hard/libg.a(libc_a-fflush.o)
                0x000237f8                fflush

.text._malloc_trim_r
                0x0002386c       0xb8
 .text._malloc_trim_r
                0x0002386c       0xb8 /tools/arm-gnu-toolchain-13.2.Rel1-x86_64-arm-none-eabi/bin/../lib/gcc/arm-none-eabi/13.2.1/../../../../arm-none-eabi/lib/thumb/v7e-m+dp/hard/libg.a(libc_a-freer.o)
                0x0002386c                _malloc_trim_r

.text._free_r   0x00023924      0x1f8
 .text._free_r  0x00023924      0x1f8 /tools/arm-gnu-toolchain-13.2.Rel1-x86_64-arm-none-eabi/bin/../lib/gcc/arm-none-eabi/13.2.1/../../../../arm-none-eabi/lib/thumb/v7e-m+dp/hard/libg.a(libc_a-freer.o)
                0x00023924                _free_r

.text._lseek_r  0x00023b1c       0x2c
 .text._lseek_r
                0x00023b1c       0x2c /tools/arm-gnu-toolchain-13.2.Rel1-x86_64-arm-none-eabi/bin/../lib/gcc/arm-none-eabi/13.2.1/../../../../arm-none-eabi/lib/thumb/v7e-m+dp/hard/libg.a(libc_a-lseekr.o)
                0x00023b1c                _lseek_r

.text._read_r   0x00023b48       0x2c
 .text._read_r  0x00023b48       0x2c /tools/arm-gnu-toolchain-13.2.Rel1-x86_64-arm-none-eabi/bin/../lib/gcc/arm-none-eabi/13.2.1/../../../../arm-none-eabi/lib/thumb/v7e-m+dp/hard/libg.a(libc_a-readr.o)
                0x00023b48                _read_r

.text._sbrk_r   0x00023b74       0x24
 .text._sbrk_r  0x00023b74       0x24 /tools/arm-gnu-toolchain-13.2.Rel1-x86_64-arm-none-eabi/bin/../lib/gcc/arm-none-eabi/13.2.1/../../../../arm-none-eabi/lib/thumb/v7e-m+dp/hard/libg.a(libc_a-sbrkr.o)
                0x00023b74                _sbrk_r

.init_func      0x00023b98       0x10
                0x00023b98                        start_init_func = .
 *(SORT_BY_NAME(.init_func_[_A-Z0-9]*))
 .init_func_1   0x00023b98        0x4 build/drivers/uart/CMakeFiles/uart.dir/uart.c.o
 .init_func_2   0x00023b9c        0x4 build/drivers/pcie/CMakeFiles/pcie.dir/pcie_ep.c.o
 .init_func_5   0x00023ba0        0x4 build/drivers/watchdog/CMakeFiles/watchdog.dir/dw_apb_wdt.c.o
 .init_func_8   0x00023ba4        0x4 build/drivers/mailbox/CMakeFiles/mailbox.dir/mailbox.c.o
                0x00023ba8                        end_init_func = .

.rodata         0x00023ba8     0x8ba9
 *(.rodata .rodata.*)
 .rodata        0x00023ba8       0x48 CMakeFiles/freertos_kernel.elf.dir/main_cm7.c.o
 .rodata        0x00023bf0       0xea build/drivers/pcie/CMakeFiles/pcie.dir/pcie_ep.c.o
 *fill*         0x00023cda        0x2 
 .rodata        0x00023cdc      0x20d build/drivers/pcie/CMakeFiles/pcie.dir/pcie_dw.c.o
 *fill*         0x00023ee9        0x3 
 .rodata        0x00023eec      0x357 build/drivers/pcie/CMakeFiles/pcie.dir/pcie_dw_hdma.c.o
 *fill*         0x00024243        0x1 
 .rodata        0x00024244      0x522 build/drivers/pcie/CMakeFiles/pcie.dir/pcie_irq.c.o
 *fill*         0x00024766        0x2 
 .rodata        0x00024768      0x2a4 build/drivers/pcie/CMakeFiles/pcie.dir/pcie_dw_iatu.c.o
 .rodata        0x00024a0c      0x19f build/drivers/pcie/CMakeFiles/pcie.dir/pcie_dw_bar.c.o
 *fill*         0x00024bab        0x1 
 .rodata        0x00024bac      0x14d build/drivers/pcie/CMakeFiles/pcie.dir/pcie_dw_msix.c.o
 *fill*         0x00024cf9        0x3 
 .rodata        0x00024cfc      0xb06 build/drivers/pcie/CMakeFiles/pcie.dir/pcie_subctrl.c.o
 *fill*         0x00025802        0x2 
 .rodata        0x00025804       0x50 build/drivers/pcie/CMakeFiles/pcie.dir/pcie_doe.c.o
 .rodata        0x00025854       0x9e build/drivers/pcie/CMakeFiles/pcie.dir/pcie_dw_ide.c.o
 *fill*         0x000258f2        0x2 
 .rodata        0x000258f4       0x6b build/drivers/mailbox/CMakeFiles/mailbox.dir/mailbox_cb.c.o
 *fill*         0x0002595f        0x1 
 .rodata        0x00025960       0xb0 build/tests/common/CMakeFiles/test_common.dir/test_mailbox_cb.c.o
 .rodata        0x00025a10      0x269 build/tests/interrupt_test_helper_example/CMakeFiles/interrupt_test_helper_example.dir/example_test.c.o
 *fill*         0x00025c79        0x3 
 .rodata        0x00025c7c       0x7c build/tests/arch/CMakeFiles/test_arch.dir/test_cli.c.o
 .rodata        0x00025cf8      0x332 build/tests/pcie/CMakeFiles/pcie_test.dir/test_pcie_main.c.o
 *fill*         0x0002602a        0x2 
 .rodata        0x0002602c      0x5ea build/tests/pcie/CMakeFiles/pcie_test.dir/test_pcie_msix.c.o
 *fill*         0x00026616        0x2 
 .rodata        0x00026618      0x2e3 build/tests/pcie/CMakeFiles/pcie_test.dir/test_pcie_hdma.c.o
 *fill*         0x000268fb        0x1 
 .rodata        0x000268fc      0x155 build/tests/pcie/CMakeFiles/pcie_test.dir/test_pcie_capability.c.o
 *fill*         0x00026a51        0x3 
 .rodata        0x00026a54      0x581 build/tests/pcie/CMakeFiles/pcie_test.dir/test_pcie_mode.c.o
 *fill*         0x00026fd5        0x3 
 .rodata        0x00026fd8      0x7d8 build/tests/pcie/CMakeFiles/pcie_test.dir/test_pcie_iatu.c.o
                0x00026fd8                width
 .rodata        0x000277b0      0x67b build/tests/pcie/CMakeFiles/pcie_test.dir/test_pcie_history_store.c.o
 *fill*         0x00027e2b        0x1 
 .rodata        0x00027e2c      0x13c build/tests/pcie/CMakeFiles/pcie_test.dir/test_pcie_doe.c.o
 .rodata        0x00027f68       0x88 build/tests/pcie/CMakeFiles/pcie_test.dir/test_pcie_ide.c.o
 .rodata        0x00027ff0      0x1e9 build/tests/pcie/CMakeFiles/pcie_test.dir/test_pcie_ide_scenario.c.o
 *fill*         0x000281d9        0x3 
 .rodata        0x000281dc      0x447 build/tests/pcie/CMakeFiles/pcie_test.dir/test_pcie_rasdp.c.o
 *fill*         0x00028623        0x1 
 .rodata        0x00028624     0x19c3 build/tests/pcie/CMakeFiles/pcie_test.dir/test_pcie_rasdes.c.o
 *fill*         0x00029fe7        0x1 
 .rodata        0x00029fe8      0x1c1 build/tests/pcie/CMakeFiles/pcie_test.dir/test_pcie_epf.c.o
                0x00029ff4                ll_num
 *fill*         0x0002a1a9        0x3 
 .rodata        0x0002a1ac      0x375 build/tests/mailbox/CMakeFiles/mailbox_test.dir/test_mailbox_main.c.o
 *fill*         0x0002a521        0x3 
 .rodata        0x0002a524       0x5c build/tests/arch/arm/CMakeFiles/test_arm.dir/test_cm7.c.o
 .rodata        0x0002a580      0xbbd build/tests/log/CMakeFiles/show_log.dir/rebel_h_log.c.o
 *fill*         0x0002b13d        0x3 
 .rodata        0x0002b140       0x2d build/tests/interrupt_test/CMakeFiles/test_irq.dir/test_m7_irq.c.o
 *fill*         0x0002b16d        0x3 
 .rodata        0x0002b170      0x450 build/tests/pvt_con/CMakeFiles/pvt_cli.dir/pvt_cli.c.o
 .rodata        0x0002b5c0      0x72e build/tests/pvt_con/CMakeFiles/pvt_cli.dir/pvt_cli_show.c.o
 *fill*         0x0002bcee        0x2 
 .rodata        0x0002bcf0        0x9 libfreertos_kernel.a(tasks.c.o)
 *fill*         0x0002bcf9        0x3 
 .rodata        0x0002bcfc        0x8 libfreertos_kernel.a(timers.c.o)
 .rodata        0x0002bd04        0x4 libfreertos_kernel.a(heap_4.c.o)
 .rodata        0x0002bd08       0x30 portable/libfreertos_kernel_port.a(system_rebelh_cm7.c.o)
 .rodata        0x0002bd38        0x4 portable/libfreertos_kernel_port.a(port.c.o)
 .rodata        0x0002bd3c       0xa0 build/drivers/common/libdriver.a(driver.c.o)
 .rodata        0x0002bddc       0x22 build/drivers/common/libassert.a(assert.c.o)
 *fill*         0x0002bdfe        0x2 
 .rodata        0x0002be00      0x1ca services/cli_service/libcli_service.a(sys_command_line.c.o)
                0x0002be10                CLI_Cmd_Help
                0x0002be30                CLI_Cmd_Clear
                0x0002be50                CLI_Cmd_Echo
 *fill*         0x0002bfca        0x2 
 .rodata        0x0002bfcc        0x5 services/terminal_service/libterminal_service.a(console_uart.c.o)
 *fill*         0x0002bfd1        0x3 
 .rodata        0x0002bfd4      0x110 services/terminal_service/libterminal_service.a(console.c.o)
 .rodata        0x0002c0e4      0x298 build/unity/libunity.a(unity.c.o)
                0x0002c0e4                UnityStrOk
                0x0002c0e8                UnityStrPass
                0x0002c0f0                UnityStrFail
                0x0002c0f8                UnityStrIgnore
                0x0002c278                UnityStrErrShorthand
                0x0002c29c                UnityStrErrFloat
                0x0002c2bc                UnityStrErrDouble
                0x0002c2dc                UnityStrErr64
 .rodata        0x0002c37c      0x26a build/unity/libunity.a(unity_fixture.c.o)
 *fill*         0x0002c5e6        0x2 
 .rodata        0x0002c5e8       0x68 build/common/arch/libcommon.a(printf.c.o)
 .rodata._ctype_
                0x0002c650      0x101 /tools/arm-gnu-toolchain-13.2.Rel1-x86_64-arm-none-eabi/bin/../lib/gcc/arm-none-eabi/13.2.1/../../../../arm-none-eabi/lib/thumb/v7e-m+dp/hard/libg.a(libc_a-ctype_.o)
                0x0002c650                _ctype_

.ARM.extab.text.__udivmoddi4
                0x0002c751        0x0
 .ARM.extab.text.__udivmoddi4
                0x0002c751        0x0 /tools/arm-gnu-toolchain-13.2.Rel1-x86_64-arm-none-eabi/bin/../lib/gcc/arm-none-eabi/13.2.1/thumb/v7e-m+dp/hard/libgcc.a(_udivmoddi4.o)

.ARM.exidx.text.__udivmoddi4
                0x0002c754        0x0
 .ARM.exidx.text.__udivmoddi4
                0x0002c754        0x0 /tools/arm-gnu-toolchain-13.2.Rel1-x86_64-arm-none-eabi/bin/../lib/gcc/arm-none-eabi/13.2.1/thumb/v7e-m+dp/hard/libgcc.a(_udivmoddi4.o)
                                  0x8 (size before relaxing)

.ARM.extab      0x0002c754        0x0
 .ARM.extab     0x0002c754        0x0 /tools/arm-gnu-toolchain-13.2.Rel1-x86_64-arm-none-eabi/bin/../lib/gcc/arm-none-eabi/13.2.1/../../../../arm-none-eabi/lib/thumb/v7e-m+dp/hard/libg.a(libc_a-strlen.o)
 .ARM.extab     0x0002c754        0x0 /tools/arm-gnu-toolchain-13.2.Rel1-x86_64-arm-none-eabi/bin/../lib/gcc/arm-none-eabi/13.2.1/../../../../arm-none-eabi/lib/thumb/v7e-m+dp/hard/libg.a(libc_a-strcmp.o)
 .ARM.extab     0x0002c754        0x0 /tools/arm-gnu-toolchain-13.2.Rel1-x86_64-arm-none-eabi/bin/../lib/gcc/arm-none-eabi/13.2.1/../../../../arm-none-eabi/lib/thumb/v7e-m+dp/hard/libg.a(libc_a-memcpy.o)

.ARM.exidx      0x0002c754        0x8
 .ARM.exidx     0x0002c754        0x8 /tools/arm-gnu-toolchain-13.2.Rel1-x86_64-arm-none-eabi/bin/../lib/gcc/arm-none-eabi/13.2.1/../../../../arm-none-eabi/lib/thumb/v7e-m+dp/hard/libg.a(libc_a-strlen.o)
 .ARM.exidx     0x0002c75c        0x0 /tools/arm-gnu-toolchain-13.2.Rel1-x86_64-arm-none-eabi/bin/../lib/gcc/arm-none-eabi/13.2.1/../../../../arm-none-eabi/lib/thumb/v7e-m+dp/hard/libg.a(libc_a-strcmp.o)
                                  0x8 (size before relaxing)
 .ARM.exidx     0x0002c75c        0x0 /tools/arm-gnu-toolchain-13.2.Rel1-x86_64-arm-none-eabi/bin/../lib/gcc/arm-none-eabi/13.2.1/../../../../arm-none-eabi/lib/thumb/v7e-m+dp/hard/libg.a(libc_a-memcpy.o)
                                  0x8 (size before relaxing)

.eh_frame       0x0002c75c       0x4c
 .eh_frame      0x0002c75c       0x34 /tools/arm-gnu-toolchain-13.2.Rel1-x86_64-arm-none-eabi/bin/../lib/gcc/arm-none-eabi/13.2.1/../../../../arm-none-eabi/lib/thumb/v7e-m+dp/hard/libg.a(libc_a-strlen.o)
 .eh_frame      0x0002c790       0x18 /tools/arm-gnu-toolchain-13.2.Rel1-x86_64-arm-none-eabi/bin/../lib/gcc/arm-none-eabi/13.2.1/../../../../arm-none-eabi/lib/thumb/v7e-m+dp/hard/libg.a(libc_a-memcpy.o)
                                 0x2c (size before relaxing)

.rel.dyn        0x0002c7a8        0x0
 .rel.iplt      0x0002c7a8        0x0 CMakeFiles/freertos_kernel.elf.dir/main_cm7.c.o

.data           0x0002c7a8     0x19c0
 *(.data)
 .data          0x0002c7a8        0x0 CMakeFiles/freertos_kernel.elf.dir/main_cm7.c.o
 .data          0x0002c7a8        0x0 gloss/CMakeFiles/freedom_metal.dir/freedom_metal.c.o
 .data          0x0002c7a8        0x0 gloss/CMakeFiles/freedom_metal.dir/nanosleep.c.o
 .data          0x0002c7a8        0x0 gloss/CMakeFiles/freedom_metal.dir/sys_access.c.o
 .data          0x0002c7a8        0x0 gloss/CMakeFiles/freedom_metal.dir/sys_chdir.c.o
 .data          0x0002c7a8        0x0 gloss/CMakeFiles/freedom_metal.dir/sys_chmod.c.o
 .data          0x0002c7a8        0x0 gloss/CMakeFiles/freedom_metal.dir/sys_chown.c.o
 .data          0x0002c7a8        0x0 gloss/CMakeFiles/freedom_metal.dir/sys_clock_gettime.c.o
 .data          0x0002c7a8        0x0 gloss/CMakeFiles/freedom_metal.dir/sys_close.c.o
 .data          0x0002c7a8        0x0 gloss/CMakeFiles/freedom_metal.dir/sys_execve.c.o
 .data          0x0002c7a8        0x0 gloss/CMakeFiles/freedom_metal.dir/sys_exit.c.o
 .data          0x0002c7a8        0x0 gloss/CMakeFiles/freedom_metal.dir/sys_faccessat.c.o
 .data          0x0002c7a8        0x0 gloss/CMakeFiles/freedom_metal.dir/sys_fork.c.o
 .data          0x0002c7a8        0x0 gloss/CMakeFiles/freedom_metal.dir/sys_fstat.c.o
 .data          0x0002c7a8        0x0 gloss/CMakeFiles/freedom_metal.dir/sys_fstatat.c.o
 .data          0x0002c7a8        0x0 gloss/CMakeFiles/freedom_metal.dir/sys_ftime.c.o
 .data          0x0002c7a8        0x0 gloss/CMakeFiles/freedom_metal.dir/sys_getcwd.c.o
 .data          0x0002c7a8        0x0 gloss/CMakeFiles/freedom_metal.dir/sys_getpid.c.o
 .data          0x0002c7a8        0x0 gloss/CMakeFiles/freedom_metal.dir/sys_gettimeofday.c.o
 .data          0x0002c7a8        0x0 gloss/CMakeFiles/freedom_metal.dir/sys_isatty.c.o
 .data          0x0002c7a8        0x0 gloss/CMakeFiles/freedom_metal.dir/sys_kill.c.o
 .data          0x0002c7a8        0x0 gloss/CMakeFiles/freedom_metal.dir/sys_link.c.o
 .data          0x0002c7a8        0x0 gloss/CMakeFiles/freedom_metal.dir/sys_lseek.c.o
 .data          0x0002c7a8        0x0 gloss/CMakeFiles/freedom_metal.dir/sys_lstat.c.o
 .data          0x0002c7a8        0x0 gloss/CMakeFiles/freedom_metal.dir/sys_open.c.o
 .data          0x0002c7a8        0x0 gloss/CMakeFiles/freedom_metal.dir/sys_openat.c.o
 .data          0x0002c7a8        0x0 gloss/CMakeFiles/freedom_metal.dir/sys_read.c.o
 .data          0x0002c7a8        0x4 gloss/CMakeFiles/freedom_metal.dir/sys_sbrk.c.o
 .data          0x0002c7ac        0x0 gloss/CMakeFiles/freedom_metal.dir/sys_sysconf.c.o
 .data          0x0002c7ac        0x0 gloss/CMakeFiles/freedom_metal.dir/sys_times.c.o
 .data          0x0002c7ac        0x0 gloss/CMakeFiles/freedom_metal.dir/sys_unlink.c.o
 .data          0x0002c7ac        0x0 gloss/CMakeFiles/freedom_metal.dir/sys_utime.c.o
 .data          0x0002c7ac        0x0 gloss/CMakeFiles/freedom_metal.dir/sys_wait.c.o
 .data          0x0002c7ac        0x0 gloss/CMakeFiles/freedom_metal.dir/sys_write.c.o
 .data          0x0002c7ac       0x2c build/drivers/uart/CMakeFiles/uart.dir/uart.c.o
                0x0002c7ac                uart_cfg
                0x0002c7c0                uart_rx_data
                0x0002c7cc                uart_tx_data
 *fill*         0x0002c7d8        0x0 
 .data          0x0002c7d8      0x3a4 build/drivers/pcie/CMakeFiles/pcie.dir/pcie_ep.c.o
                0x0002c7d8                pcie_ep_bar_info
                0x0002c958                pcie_ep_iatu_info
                0x0002c970                pcie_ep_drv
                0x0002c984                dw_pcie_epc
                0x0002c98c                pcie_ep_cfg
 .data          0x0002cb7c        0x0 build/drivers/pcie/CMakeFiles/pcie.dir/pcie_dw.c.o
 .data          0x0002cb7c        0x0 build/drivers/pcie/CMakeFiles/pcie.dir/pcie_snps_phy.c.o
 .data          0x0002cb7c      0x190 build/drivers/pcie/CMakeFiles/pcie.dir/pcie_dw_hdma.c.o
 .data          0x0002cd0c        0x0 build/drivers/pcie/CMakeFiles/pcie.dir/pcie_irq.c.o
 .data          0x0002cd0c        0x0 build/drivers/pcie/CMakeFiles/pcie.dir/pcie_dw_iatu.c.o
 .data          0x0002cd0c        0x0 build/drivers/pcie/CMakeFiles/pcie.dir/pcie_dw_bar.c.o
 .data          0x0002cd0c        0x0 build/drivers/pcie/CMakeFiles/pcie.dir/pcie_dw_msix.c.o
 .data          0x0002cd0c        0x0 build/drivers/pcie/CMakeFiles/pcie.dir/pcie_subctrl.c.o
 .data          0x0002cd0c        0x0 build/drivers/pcie/CMakeFiles/pcie.dir/pcie_doe.c.o
 .data          0x0002cd0c        0x0 build/drivers/pcie/CMakeFiles/pcie.dir/pcie_dw_ide.c.o
 .data          0x0002cd0c        0x0 build/drivers/pcie/CMakeFiles/pcie.dir/pcie_sysreg.c.o
 .data          0x0002cd0c      0x1f8 build/drivers/mailbox/CMakeFiles/mailbox.dir/mailbox.c.o
 .data          0x0002cf04        0x0 build/drivers/mailbox/CMakeFiles/mailbox.dir/mailbox_cb.c.o
 .data          0x0002cf04        0x0 build/drivers/pmu/CMakeFiles/pmu.dir/pmu.c.o
 *fill*         0x0002cf04        0x4 
 .data          0x0002cf08      0x460 build/drivers/pvt_con/CMakeFiles/pvt_con.dir/pvt_con.c.o
                0x0002cf08                pvt_base_address
                0x0002cf30                pvt_n_sensors
                0x0002cf6c                pvt_irqs
                0x0002d228                pvt_fall_threshold
                0x0002d2c8                pvt_rise_threshold
 .data          0x0002d368       0x14 build/drivers/watchdog/CMakeFiles/watchdog.dir/dw_apb_wdt.c.o
 .data          0x0002d37c        0x0 build/tests/common/CMakeFiles/test_common.dir/test_mailbox_cb.c.o
 .data          0x0002d37c        0x4 build/tests/interrupt_test_helper_example/CMakeFiles/interrupt_test_helper_example.dir/example_test.c.o
 .data          0x0002d380        0x0 build/tests/interrupt_test_helper_example/CMakeFiles/interrupt_test_helper_example.dir/example_driver.c.o
 .data          0x0002d380        0x0 build/tests/arch/CMakeFiles/test_arch.dir/test_cli.c.o
 .data          0x0002d380        0x0 build/tests/pcie/CMakeFiles/pcie_test.dir/test_pcie_main.c.o
 .data          0x0002d380        0x4 build/tests/pcie/CMakeFiles/pcie_test.dir/test_pcie_msix.c.o
 .data          0x0002d384        0x0 build/tests/pcie/CMakeFiles/pcie_test.dir/test_pcie_hdma.c.o
 .data          0x0002d384        0x0 build/tests/pcie/CMakeFiles/pcie_test.dir/test_pcie_capability.c.o
 .data          0x0002d384        0x8 build/tests/pcie/CMakeFiles/pcie_test.dir/test_pcie_mode.c.o
 .data          0x0002d38c        0x4 build/tests/pcie/CMakeFiles/pcie_test.dir/test_pcie_iatu.c.o
 .data          0x0002d390        0x0 build/tests/pcie/CMakeFiles/pcie_test.dir/test_pcie_history_store.c.o
 .data          0x0002d390        0x4 build/tests/pcie/CMakeFiles/pcie_test.dir/test_pcie_doe.c.o
 .data          0x0002d394        0x0 build/tests/pcie/CMakeFiles/pcie_test.dir/test_pcie_ide.c.o
 .data          0x0002d394        0x1 build/tests/pcie/CMakeFiles/pcie_test.dir/test_pcie_ide_scenario.c.o
 .data          0x0002d395        0x0 build/tests/pcie/CMakeFiles/pcie_test.dir/test_pcie_rasdp.c.o
 .data          0x0002d395        0x0 build/tests/pcie/CMakeFiles/pcie_test.dir/test_pcie_rasdes.c.o
 .data          0x0002d395        0x0 build/tests/pcie/CMakeFiles/pcie_test.dir/test_pcie_epf.c.o
 *fill*         0x0002d395        0x3 
 .data          0x0002d398       0x78 build/tests/mailbox/CMakeFiles/mailbox_test.dir/test_mailbox_main.c.o
                0x0002d398                arr
 .data          0x0002d410       0x14 build/tests/arch/arm/CMakeFiles/test_arm.dir/test_cm7.c.o
 .data          0x0002d424        0x0 build/tests/log/CMakeFiles/show_log.dir/rebel_h_log.c.o
 .data          0x0002d424        0x0 build/tests/interrupt_test/CMakeFiles/test_irq.dir/test_m7_irq.c.o
 .data          0x0002d424        0x0 build/tests/pvt_con/CMakeFiles/pvt_cli.dir/pvt_cli.c.o
 .data          0x0002d424      0x51c build/tests/pvt_con/CMakeFiles/pvt_cli.dir/pvt_cli_show.c.o
                0x0002d424                inst_name
                0x0002d438                pvt_process_sensor_info
                0x0002d4b8                pvt_voltage_sensor_info
                0x0002d800                pvt_temperature_sensor_info
 .data          0x0002d940        0x0 build/tests/pvt_con/CMakeFiles/pvt_cli.dir/pvt_cli_enable.c.o
 .data          0x0002d940        0x0 build/tests/pvt_con/CMakeFiles/pvt_cli.dir/pvt_cli_disable.c.o
 .data          0x0002d940        0x0 build/tests/pvt_con/CMakeFiles/pvt_cli.dir/pvt_cli_set.c.o
 .data          0x0002d940        0x0 libfreertos_kernel.a(queue.c.o)
 .data          0x0002d940        0x0 libfreertos_kernel.a(tasks.c.o)
 .data          0x0002d940        0x0 libfreertos_kernel.a(timers.c.o)
 .data          0x0002d940        0x0 libfreertos_kernel.a(heap_4.c.o)
 .data          0x0002d940        0x0 libfreertos_kernel.a(list.c.o)
 .data          0x0002d940        0x0 portable/libfreertos_kernel_port.a(start.S.o)
 .data          0x0002d940        0x4 portable/libfreertos_kernel_port.a(system_rebelh_cm7.c.o)
                0x0002d940                SystemCoreClock
 .data          0x0002d944        0x4 portable/libfreertos_kernel_port.a(port.c.o)
 .data          0x0002d948        0x0 portable/libfreertos_kernel_port.a(fpu.S.o)
 .data          0x0002d948        0x0 build/drivers/common/libdriver.a(driver.c.o)
 .data          0x0002d948        0x0 build/drivers/common/libassert.a(assert.c.o)
 .data          0x0002d948        0x0 build/drivers/common/libinterrupt.a(interrupt.c.o)
 .data          0x0002d948        0x0 build/drivers/bat/libbat.a(bat.c.o)
 .data          0x0002d948        0x0 services/cli_service/libcli_service.a(cli_task.c.o)
 .data          0x0002d948      0x808 services/cli_service/libcli_service.a(sys_command_line.c.o)
                0x0002d948                cli_echo_flag
                0x0002d94c                CLI_Cmd
 .data          0x0002e150       0x18 services/terminal_service/libterminal_service.a(console_uart.c.o)
                0x0002e150                uart
 .data          0x0002e168        0x0 services/terminal_service/libterminal_service.a(console.c.o)
 .data          0x0002e168        0x0 services/terminal_service/libterminal_service.a(terminal_task.c.o)
 .data          0x0002e168        0x0 build/unity/libunity.a(unity.c.o)
 .data          0x0002e168        0x0 build/unity/libunity.a(unity_fixture.c.o)
 .data          0x0002e168        0x0 build/interrupt_test_helper/libinterrupt_test_helper.a(interrupt_test_helper.c.o)
 .data          0x0002e168        0x0 libfreertos_kernel.a(event_groups.c.o)
 .data          0x0002e168        0x0 libfreertos_kernel.a(stream_buffer.c.o)
 .data          0x0002e168        0x0 build/common/arch/libcommon.a(printf.c.o)
 .data          0x0002e168        0x0 build/common/arch/libcommon.a(system_api.c.o)
 .data          0x0002e168        0x0 /tools/arm-gnu-toolchain-13.2.Rel1-x86_64-arm-none-eabi/bin/../lib/gcc/arm-none-eabi/13.2.1/thumb/v7e-m+dp/hard/libgcc.a(_aeabi_uldivmod.o)
 .data          0x0002e168        0x0 /tools/arm-gnu-toolchain-13.2.Rel1-x86_64-arm-none-eabi/bin/../lib/gcc/arm-none-eabi/13.2.1/thumb/v7e-m+dp/hard/libgcc.a(_udivmoddi4.o)
 .data          0x0002e168        0x0 /tools/arm-gnu-toolchain-13.2.Rel1-x86_64-arm-none-eabi/bin/../lib/gcc/arm-none-eabi/13.2.1/thumb/v7e-m+dp/hard/libgcc.a(_dvmd_tls.o)
 .data          0x0002e168        0x0 /tools/arm-gnu-toolchain-13.2.Rel1-x86_64-arm-none-eabi/bin/../lib/gcc/arm-none-eabi/13.2.1/../../../../arm-none-eabi/lib/thumb/v7e-m+dp/hard/libg.a(libc_a-strtol.o)
 .data          0x0002e168        0x0 /tools/arm-gnu-toolchain-13.2.Rel1-x86_64-arm-none-eabi/bin/../lib/gcc/arm-none-eabi/13.2.1/../../../../arm-none-eabi/lib/thumb/v7e-m+dp/hard/libg.a(libc_a-strtoul.o)
 .data          0x0002e168        0x0 /tools/arm-gnu-toolchain-13.2.Rel1-x86_64-arm-none-eabi/bin/../lib/gcc/arm-none-eabi/13.2.1/../../../../arm-none-eabi/lib/thumb/v7e-m+dp/hard/libg.a(libc_a-strncmp.o)
 .data          0x0002e168        0x0 /tools/arm-gnu-toolchain-13.2.Rel1-x86_64-arm-none-eabi/bin/../lib/gcc/arm-none-eabi/13.2.1/../../../../arm-none-eabi/lib/thumb/v7e-m+dp/hard/libg.a(libc_a-strtoll.o)
 .data          0x0002e168        0x0 /tools/arm-gnu-toolchain-13.2.Rel1-x86_64-arm-none-eabi/bin/../lib/gcc/arm-none-eabi/13.2.1/../../../../arm-none-eabi/lib/thumb/v7e-m+dp/hard/libg.a(libc_a-strncpy.o)
 .data          0x0002e168        0x0 /tools/arm-gnu-toolchain-13.2.Rel1-x86_64-arm-none-eabi/bin/../lib/gcc/arm-none-eabi/13.2.1/../../../../arm-none-eabi/lib/thumb/v7e-m+dp/hard/libg.a(libc_a-strtoull.o)
 .data          0x0002e168        0x0 /tools/arm-gnu-toolchain-13.2.Rel1-x86_64-arm-none-eabi/bin/../lib/gcc/arm-none-eabi/13.2.1/../../../../arm-none-eabi/lib/thumb/v7e-m+dp/hard/libg.a(libc_a-strpbrk.o)
 .data          0x0002e168        0x0 /tools/arm-gnu-toolchain-13.2.Rel1-x86_64-arm-none-eabi/bin/../lib/gcc/arm-none-eabi/13.2.1/../../../../arm-none-eabi/lib/thumb/v7e-m+dp/hard/libg.a(libc_a-strlen.o)
 .data          0x0002e168        0x0 /tools/arm-gnu-toolchain-13.2.Rel1-x86_64-arm-none-eabi/bin/../lib/gcc/arm-none-eabi/13.2.1/../../../../arm-none-eabi/lib/thumb/v7e-m+dp/hard/libg.a(libc_a-strspn.o)
 .data          0x0002e168        0x0 /tools/arm-gnu-toolchain-13.2.Rel1-x86_64-arm-none-eabi/bin/../lib/gcc/arm-none-eabi/13.2.1/../../../../arm-none-eabi/lib/thumb/v7e-m+dp/hard/libg.a(libc_a-strstr.o)
 .data          0x0002e168        0x0 /tools/arm-gnu-toolchain-13.2.Rel1-x86_64-arm-none-eabi/bin/../lib/gcc/arm-none-eabi/13.2.1/../../../../arm-none-eabi/lib/thumb/v7e-m+dp/hard/libg.a(libc_a-errno.o)
 .data          0x0002e168        0x0 /tools/arm-gnu-toolchain-13.2.Rel1-x86_64-arm-none-eabi/bin/../lib/gcc/arm-none-eabi/13.2.1/../../../../arm-none-eabi/lib/thumb/v7e-m+dp/hard/libg.a(libc_a-time.o)
 .data          0x0002e168        0x0 /tools/arm-gnu-toolchain-13.2.Rel1-x86_64-arm-none-eabi/bin/../lib/gcc/arm-none-eabi/13.2.1/../../../../arm-none-eabi/lib/thumb/v7e-m+dp/hard/libg.a(libc_a-memcmp.o)
 .data          0x0002e168        0x0 /tools/arm-gnu-toolchain-13.2.Rel1-x86_64-arm-none-eabi/bin/../lib/gcc/arm-none-eabi/13.2.1/../../../../arm-none-eabi/lib/thumb/v7e-m+dp/hard/libg.a(libc_a-memset.o)
 .data          0x0002e168        0x0 /tools/arm-gnu-toolchain-13.2.Rel1-x86_64-arm-none-eabi/bin/../lib/gcc/arm-none-eabi/13.2.1/../../../../arm-none-eabi/lib/thumb/v7e-m+dp/hard/libg.a(libc_a-strcmp.o)
 .data          0x0002e168        0x0 /tools/arm-gnu-toolchain-13.2.Rel1-x86_64-arm-none-eabi/bin/../lib/gcc/arm-none-eabi/13.2.1/../../../../arm-none-eabi/lib/thumb/v7e-m+dp/hard/libg.a(libc_a-atoi.o)
 .data          0x0002e168        0x0 /tools/arm-gnu-toolchain-13.2.Rel1-x86_64-arm-none-eabi/bin/../lib/gcc/arm-none-eabi/13.2.1/../../../../arm-none-eabi/lib/thumb/v7e-m+dp/hard/libg.a(libc_a-strchr.o)
 .data          0x0002e168        0x0 /tools/arm-gnu-toolchain-13.2.Rel1-x86_64-arm-none-eabi/bin/../lib/gcc/arm-none-eabi/13.2.1/../../../../arm-none-eabi/lib/thumb/v7e-m+dp/hard/libg.a(libc_a-rand.o)
 .data          0x0002e168        0x0 /tools/arm-gnu-toolchain-13.2.Rel1-x86_64-arm-none-eabi/bin/../lib/gcc/arm-none-eabi/13.2.1/../../../../arm-none-eabi/lib/thumb/v7e-m+dp/hard/libg.a(libc_a-ctype_.o)
 .data          0x0002e168        0x0 /tools/arm-gnu-toolchain-13.2.Rel1-x86_64-arm-none-eabi/bin/../lib/gcc/arm-none-eabi/13.2.1/../../../../arm-none-eabi/lib/thumb/v7e-m+dp/hard/libg.a(libc_a-impure.o)
 .data          0x0002e168        0x0 /tools/arm-gnu-toolchain-13.2.Rel1-x86_64-arm-none-eabi/bin/../lib/gcc/arm-none-eabi/13.2.1/../../../../arm-none-eabi/lib/thumb/v7e-m+dp/hard/libg.a(libc_a-findfp.o)
 .data          0x0002e168        0x0 /tools/arm-gnu-toolchain-13.2.Rel1-x86_64-arm-none-eabi/bin/../lib/gcc/arm-none-eabi/13.2.1/../../../../arm-none-eabi/lib/thumb/v7e-m+dp/hard/libg.a(libc_a-memcpy.o)
 .data          0x0002e168        0x0 /tools/arm-gnu-toolchain-13.2.Rel1-x86_64-arm-none-eabi/bin/../lib/gcc/arm-none-eabi/13.2.1/../../../../arm-none-eabi/lib/thumb/v7e-m+dp/hard/libg.a(libc_a-strnlen.o)
 .data          0x0002e168        0x0 /tools/arm-gnu-toolchain-13.2.Rel1-x86_64-arm-none-eabi/bin/../lib/gcc/arm-none-eabi/13.2.1/../../../../arm-none-eabi/lib/thumb/v7e-m+dp/hard/libg.a(libc_a-gettimeofdayr.o)
 .data          0x0002e168        0x0 /tools/arm-gnu-toolchain-13.2.Rel1-x86_64-arm-none-eabi/bin/../lib/gcc/arm-none-eabi/13.2.1/../../../../arm-none-eabi/lib/thumb/v7e-m+dp/hard/libg.a(libc_a-stdio.o)
 .data          0x0002e168        0x0 /tools/arm-gnu-toolchain-13.2.Rel1-x86_64-arm-none-eabi/bin/../lib/gcc/arm-none-eabi/13.2.1/../../../../arm-none-eabi/lib/thumb/v7e-m+dp/hard/libg.a(libc_a-fwalk.o)
 .data          0x0002e168        0x0 /tools/arm-gnu-toolchain-13.2.Rel1-x86_64-arm-none-eabi/bin/../lib/gcc/arm-none-eabi/13.2.1/../../../../arm-none-eabi/lib/thumb/v7e-m+dp/hard/libg.a(libc_a-writer.o)
 .data          0x0002e168        0x0 /tools/arm-gnu-toolchain-13.2.Rel1-x86_64-arm-none-eabi/bin/../lib/gcc/arm-none-eabi/13.2.1/../../../../arm-none-eabi/lib/thumb/v7e-m+dp/hard/libg.a(libc_a-mallocr.o)
 .data          0x0002e168        0x0 /tools/arm-gnu-toolchain-13.2.Rel1-x86_64-arm-none-eabi/bin/../lib/gcc/arm-none-eabi/13.2.1/../../../../arm-none-eabi/lib/thumb/v7e-m+dp/hard/libg.a(libc_a-lock.o)
 .data          0x0002e168        0x0 /tools/arm-gnu-toolchain-13.2.Rel1-x86_64-arm-none-eabi/bin/../lib/gcc/arm-none-eabi/13.2.1/../../../../arm-none-eabi/lib/thumb/v7e-m+dp/hard/libg.a(libc_a-fclose.o)
 .data          0x0002e168        0x0 /tools/arm-gnu-toolchain-13.2.Rel1-x86_64-arm-none-eabi/bin/../lib/gcc/arm-none-eabi/13.2.1/../../../../arm-none-eabi/lib/thumb/v7e-m+dp/hard/libg.a(libc_a-mlock.o)
 .data          0x0002e168        0x0 /tools/arm-gnu-toolchain-13.2.Rel1-x86_64-arm-none-eabi/bin/../lib/gcc/arm-none-eabi/13.2.1/../../../../arm-none-eabi/lib/thumb/v7e-m+dp/hard/libg.a(libc_a-closer.o)
 .data          0x0002e168        0x0 /tools/arm-gnu-toolchain-13.2.Rel1-x86_64-arm-none-eabi/bin/../lib/gcc/arm-none-eabi/13.2.1/../../../../arm-none-eabi/lib/thumb/v7e-m+dp/hard/libg.a(libc_a-reent.o)
 .data          0x0002e168        0x0 /tools/arm-gnu-toolchain-13.2.Rel1-x86_64-arm-none-eabi/bin/../lib/gcc/arm-none-eabi/13.2.1/../../../../arm-none-eabi/lib/thumb/v7e-m+dp/hard/libg.a(libc_a-fflush.o)
 .data          0x0002e168        0x0 /tools/arm-gnu-toolchain-13.2.Rel1-x86_64-arm-none-eabi/bin/../lib/gcc/arm-none-eabi/13.2.1/../../../../arm-none-eabi/lib/thumb/v7e-m+dp/hard/libg.a(libc_a-freer.o)
 .data          0x0002e168        0x0 /tools/arm-gnu-toolchain-13.2.Rel1-x86_64-arm-none-eabi/bin/../lib/gcc/arm-none-eabi/13.2.1/../../../../arm-none-eabi/lib/thumb/v7e-m+dp/hard/libg.a(libc_a-lseekr.o)
 .data          0x0002e168        0x0 /tools/arm-gnu-toolchain-13.2.Rel1-x86_64-arm-none-eabi/bin/../lib/gcc/arm-none-eabi/13.2.1/../../../../arm-none-eabi/lib/thumb/v7e-m+dp/hard/libg.a(libc_a-readr.o)
 .data          0x0002e168        0x0 /tools/arm-gnu-toolchain-13.2.Rel1-x86_64-arm-none-eabi/bin/../lib/gcc/arm-none-eabi/13.2.1/../../../../arm-none-eabi/lib/thumb/v7e-m+dp/hard/libg.a(libc_a-sbrkr.o)

.igot.plt       0x0002e168        0x0
 .igot.plt      0x0002e168        0x0 CMakeFiles/freertos_kernel.elf.dir/main_cm7.c.o

privileged_data
                0x0002e168     0xc944
 privileged_data
                0x0002e168       0xec libfreertos_kernel.a(tasks.c.o)
                0x0002e168                pxCurrentTCB
 privileged_data
                0x0002e254       0x3c libfreertos_kernel.a(timers.c.o)
 privileged_data
                0x0002e290     0xc81c libfreertos_kernel.a(heap_4.c.o)

.data._impure_ptr
                0x0003aaac        0x4
 .data._impure_ptr
                0x0003aaac        0x4 /tools/arm-gnu-toolchain-13.2.Rel1-x86_64-arm-none-eabi/bin/../lib/gcc/arm-none-eabi/13.2.1/../../../../arm-none-eabi/lib/thumb/v7e-m+dp/hard/libg.a(libc_a-impure.o)
                0x0003aaac                _impure_ptr

.data._impure_data
                0x0003aab0      0x120
 .data._impure_data
                0x0003aab0      0x120 /tools/arm-gnu-toolchain-13.2.Rel1-x86_64-arm-none-eabi/bin/../lib/gcc/arm-none-eabi/13.2.1/../../../../arm-none-eabi/lib/thumb/v7e-m+dp/hard/libg.a(libc_a-impure.o)
                0x0003aab0                _impure_data

.data.__sglue   0x0003abd0        0xc
 .data.__sglue  0x0003abd0        0xc /tools/arm-gnu-toolchain-13.2.Rel1-x86_64-arm-none-eabi/bin/../lib/gcc/arm-none-eabi/13.2.1/../../../../arm-none-eabi/lib/thumb/v7e-m+dp/hard/libg.a(libc_a-findfp.o)
                0x0003abd0                __sglue

.data.__malloc_sbrk_base
                0x0003abdc        0x4
 .data.__malloc_sbrk_base
                0x0003abdc        0x4 /tools/arm-gnu-toolchain-13.2.Rel1-x86_64-arm-none-eabi/bin/../lib/gcc/arm-none-eabi/13.2.1/../../../../arm-none-eabi/lib/thumb/v7e-m+dp/hard/libg.a(libc_a-mallocr.o)
                0x0003abdc                __malloc_sbrk_base

.data.__malloc_trim_threshold
                0x0003abe0        0x4
 .data.__malloc_trim_threshold
                0x0003abe0        0x4 /tools/arm-gnu-toolchain-13.2.Rel1-x86_64-arm-none-eabi/bin/../lib/gcc/arm-none-eabi/13.2.1/../../../../arm-none-eabi/lib/thumb/v7e-m+dp/hard/libg.a(libc_a-mallocr.o)
                0x0003abe0                __malloc_trim_threshold

.data.__malloc_av_
                0x0003abe8      0x408
 .data.__malloc_av_
                0x0003abe8      0x408 /tools/arm-gnu-toolchain-13.2.Rel1-x86_64-arm-none-eabi/bin/../lib/gcc/arm-none-eabi/13.2.1/../../../../arm-none-eabi/lib/thumb/v7e-m+dp/hard/libg.a(libc_a-mallocr.o)
                0x0003abe8                __malloc_av_

.cli            0x0003aff0       0x30
                0x0003aff0                        PROVIDE (__cli_register_funcs_start = .)
 *(.cli_register_funcs)
 .cli_register_funcs
                0x0003aff0        0x4 build/tests/interrupt_test_helper_example/CMakeFiles/interrupt_test_helper_example.dir/example_test.c.o
                0x0003aff0                pcli_register_interrupt_helper_example
 .cli_register_funcs
                0x0003aff4        0x4 build/tests/arch/CMakeFiles/test_arch.dir/test_cli.c.o
                0x0003aff4                pcli_register_cli
 .cli_register_funcs
                0x0003aff8        0x8 build/tests/pcie/CMakeFiles/pcie_test.dir/test_pcie_main.c.o
                0x0003aff8                pcli_register_pcie
                0x0003affc                pcli_register_test_pcie
 .cli_register_funcs
                0x0003b000        0x4 build/tests/pcie/CMakeFiles/pcie_test.dir/test_pcie_ide_scenario.c.o
                0x0003b000                pcli_register_test_ide
 .cli_register_funcs
                0x0003b004        0x4 build/tests/pcie/CMakeFiles/pcie_test.dir/test_pcie_epf.c.o
                0x0003b004                pcli_register_pcie_epf
 .cli_register_funcs
                0x0003b008        0x4 build/tests/mailbox/CMakeFiles/mailbox_test.dir/test_mailbox_main.c.o
                0x0003b008                pcli_register_test_mailbox
 .cli_register_funcs
                0x0003b00c        0x4 build/tests/arch/arm/CMakeFiles/test_arm.dir/test_cm7.c.o
                0x0003b00c                pcli_register_cm7
 .cli_register_funcs
                0x0003b010        0x4 build/tests/log/CMakeFiles/show_log.dir/rebel_h_log.c.o
                0x0003b010                pcli_register_show_log
 .cli_register_funcs
                0x0003b014        0x4 build/tests/interrupt_test/CMakeFiles/test_irq.dir/test_m7_irq.c.o
                0x0003b014                pcli_register_test_irq
 .cli_register_funcs
                0x0003b018        0x4 build/tests/pvt_con/CMakeFiles/pvt_cli.dir/pvt_cli.c.o
                0x0003b018                pcli_register_pvt
 .cli_register_funcs
                0x0003b01c        0x4 services/terminal_service/libterminal_service.a(console.c.o)
                0x0003b01c                pcli_register_console
                0x0003b020                        PROVIDE (__cli_register_funcs_end = .)

.bss            0x0003b020     0x3aac
                0x0003b020                        start_bss = .
 *(.bss)
 .bss           0x0003b020      0x198 CMakeFiles/freertos_kernel.elf.dir/main_cm7.c.o
                0x0003b020                print_semaphore
                0x0003b024                handle_cnt
                0x0003b028                handles
 .bss           0x0003b1b8        0x0 gloss/CMakeFiles/freedom_metal.dir/freedom_metal.c.o
 .bss           0x0003b1b8        0x0 gloss/CMakeFiles/freedom_metal.dir/nanosleep.c.o
 .bss           0x0003b1b8        0x0 gloss/CMakeFiles/freedom_metal.dir/sys_access.c.o
 .bss           0x0003b1b8        0x0 gloss/CMakeFiles/freedom_metal.dir/sys_chdir.c.o
 .bss           0x0003b1b8        0x0 gloss/CMakeFiles/freedom_metal.dir/sys_chmod.c.o
 .bss           0x0003b1b8        0x0 gloss/CMakeFiles/freedom_metal.dir/sys_chown.c.o
 .bss           0x0003b1b8        0x0 gloss/CMakeFiles/freedom_metal.dir/sys_clock_gettime.c.o
 .bss           0x0003b1b8        0x0 gloss/CMakeFiles/freedom_metal.dir/sys_close.c.o
 .bss           0x0003b1b8        0x0 gloss/CMakeFiles/freedom_metal.dir/sys_execve.c.o
 .bss           0x0003b1b8        0x0 gloss/CMakeFiles/freedom_metal.dir/sys_exit.c.o
 .bss           0x0003b1b8        0x0 gloss/CMakeFiles/freedom_metal.dir/sys_faccessat.c.o
 .bss           0x0003b1b8        0x0 gloss/CMakeFiles/freedom_metal.dir/sys_fork.c.o
 .bss           0x0003b1b8        0x0 gloss/CMakeFiles/freedom_metal.dir/sys_fstat.c.o
 .bss           0x0003b1b8        0x0 gloss/CMakeFiles/freedom_metal.dir/sys_fstatat.c.o
 .bss           0x0003b1b8        0x0 gloss/CMakeFiles/freedom_metal.dir/sys_ftime.c.o
 .bss           0x0003b1b8        0x0 gloss/CMakeFiles/freedom_metal.dir/sys_getcwd.c.o
 .bss           0x0003b1b8        0x0 gloss/CMakeFiles/freedom_metal.dir/sys_getpid.c.o
 .bss           0x0003b1b8        0x0 gloss/CMakeFiles/freedom_metal.dir/sys_gettimeofday.c.o
 .bss           0x0003b1b8        0x0 gloss/CMakeFiles/freedom_metal.dir/sys_isatty.c.o
 .bss           0x0003b1b8        0x0 gloss/CMakeFiles/freedom_metal.dir/sys_kill.c.o
 .bss           0x0003b1b8        0x0 gloss/CMakeFiles/freedom_metal.dir/sys_link.c.o
 .bss           0x0003b1b8        0x0 gloss/CMakeFiles/freedom_metal.dir/sys_lseek.c.o
 .bss           0x0003b1b8        0x0 gloss/CMakeFiles/freedom_metal.dir/sys_lstat.c.o
 .bss           0x0003b1b8        0x0 gloss/CMakeFiles/freedom_metal.dir/sys_open.c.o
 .bss           0x0003b1b8        0x0 gloss/CMakeFiles/freedom_metal.dir/sys_openat.c.o
 .bss           0x0003b1b8        0x0 gloss/CMakeFiles/freedom_metal.dir/sys_read.c.o
 .bss           0x0003b1b8        0x0 gloss/CMakeFiles/freedom_metal.dir/sys_sbrk.c.o
 .bss           0x0003b1b8        0x0 gloss/CMakeFiles/freedom_metal.dir/sys_sysconf.c.o
 .bss           0x0003b1b8        0x0 gloss/CMakeFiles/freedom_metal.dir/sys_times.c.o
 .bss           0x0003b1b8        0x0 gloss/CMakeFiles/freedom_metal.dir/sys_unlink.c.o
 .bss           0x0003b1b8        0x0 gloss/CMakeFiles/freedom_metal.dir/sys_utime.c.o
 .bss           0x0003b1b8        0x0 gloss/CMakeFiles/freedom_metal.dir/sys_wait.c.o
 .bss           0x0003b1b8        0x0 gloss/CMakeFiles/freedom_metal.dir/sys_write.c.o
 .bss           0x0003b1b8       0x40 build/drivers/uart/CMakeFiles/uart.dir/uart.c.o
                0x0003b1b8                uart_rx_buffer
                0x0003b1d8                uart_tx_buffer
 .bss           0x0003b1f8        0x0 build/drivers/pcie/CMakeFiles/pcie.dir/pcie_ep.c.o
 .bss           0x0003b1f8        0x0 build/drivers/pcie/CMakeFiles/pcie.dir/pcie_dw.c.o
 .bss           0x0003b1f8        0x0 build/drivers/pcie/CMakeFiles/pcie.dir/pcie_snps_phy.c.o
 .bss           0x0003b1f8        0x0 build/drivers/pcie/CMakeFiles/pcie.dir/pcie_dw_hdma.c.o
 .bss           0x0003b1f8        0x0 build/drivers/pcie/CMakeFiles/pcie.dir/pcie_irq.c.o
 .bss           0x0003b1f8        0x0 build/drivers/pcie/CMakeFiles/pcie.dir/pcie_dw_iatu.c.o
 .bss           0x0003b1f8        0x0 build/drivers/pcie/CMakeFiles/pcie.dir/pcie_dw_bar.c.o
 .bss           0x0003b1f8        0x0 build/drivers/pcie/CMakeFiles/pcie.dir/pcie_dw_msix.c.o
 .bss           0x0003b1f8        0x0 build/drivers/pcie/CMakeFiles/pcie.dir/pcie_subctrl.c.o
 .bss           0x0003b1f8        0x0 build/drivers/pcie/CMakeFiles/pcie.dir/pcie_doe.c.o
 .bss           0x0003b1f8        0x0 build/drivers/pcie/CMakeFiles/pcie.dir/pcie_dw_ide.c.o
 .bss           0x0003b1f8        0x0 build/drivers/pcie/CMakeFiles/pcie.dir/pcie_sysreg.c.o
 .bss           0x0003b1f8        0x0 build/drivers/mailbox/CMakeFiles/mailbox.dir/mailbox.c.o
 .bss           0x0003b1f8        0x4 build/drivers/mailbox/CMakeFiles/mailbox.dir/mailbox_cb.c.o
 .bss           0x0003b1fc        0x0 build/drivers/pmu/CMakeFiles/pmu.dir/pmu.c.o
 .bss           0x0003b1fc        0x0 build/drivers/pvt_con/CMakeFiles/pvt_con.dir/pvt_con.c.o
 .bss           0x0003b1fc        0x0 build/drivers/watchdog/CMakeFiles/watchdog.dir/dw_apb_wdt.c.o
 .bss           0x0003b1fc        0x0 build/tests/common/CMakeFiles/test_common.dir/test_mailbox_cb.c.o
 .bss           0x0003b1fc        0x0 build/tests/interrupt_test_helper_example/CMakeFiles/interrupt_test_helper_example.dir/example_test.c.o
 .bss           0x0003b1fc        0x8 build/tests/interrupt_test_helper_example/CMakeFiles/interrupt_test_helper_example.dir/example_driver.c.o
 .bss           0x0003b204        0x0 build/tests/arch/CMakeFiles/test_arch.dir/test_cli.c.o
 .bss           0x0003b204        0x0 build/tests/pcie/CMakeFiles/pcie_test.dir/test_pcie_main.c.o
 .bss           0x0003b204        0x4 build/tests/pcie/CMakeFiles/pcie_test.dir/test_pcie_msix.c.o
 .bss           0x0003b208      0xb90 build/tests/pcie/CMakeFiles/pcie_test.dir/test_pcie_hdma.c.o
                0x0003b208                wch_elems
                0x0003b6b8                wch_descriptor
                0x0003b6e0                rch_elems
                0x0003bb90                rch_descriptor
                0x0003bbb8                epf_elems0
                0x0003bca8                epf_elems1
 .bss           0x0003bd98        0x0 build/tests/pcie/CMakeFiles/pcie_test.dir/test_pcie_capability.c.o
 .bss           0x0003bd98        0x8 build/tests/pcie/CMakeFiles/pcie_test.dir/test_pcie_mode.c.o
 .bss           0x0003bda0        0x0 build/tests/pcie/CMakeFiles/pcie_test.dir/test_pcie_iatu.c.o
 .bss           0x0003bda0        0x0 build/tests/pcie/CMakeFiles/pcie_test.dir/test_pcie_history_store.c.o
 .bss           0x0003bda0        0x4 build/tests/pcie/CMakeFiles/pcie_test.dir/test_pcie_doe.c.o
 .bss           0x0003bda4        0x0 build/tests/pcie/CMakeFiles/pcie_test.dir/test_pcie_ide.c.o
 .bss           0x0003bda4        0x6 build/tests/pcie/CMakeFiles/pcie_test.dir/test_pcie_ide_scenario.c.o
 .bss           0x0003bdaa        0x0 build/tests/pcie/CMakeFiles/pcie_test.dir/test_pcie_rasdp.c.o
 .bss           0x0003bdaa        0x0 build/tests/pcie/CMakeFiles/pcie_test.dir/test_pcie_rasdes.c.o
 *fill*         0x0003bdaa        0x2 
 .bss           0x0003bdac        0x4 build/tests/pcie/CMakeFiles/pcie_test.dir/test_pcie_epf.c.o
 .bss           0x0003bdb0        0x0 build/tests/mailbox/CMakeFiles/mailbox_test.dir/test_mailbox_main.c.o
 .bss           0x0003bdb0        0x0 build/tests/arch/arm/CMakeFiles/test_arm.dir/test_cm7.c.o
 .bss           0x0003bdb0        0x0 build/tests/log/CMakeFiles/show_log.dir/rebel_h_log.c.o
 .bss           0x0003bdb0        0x0 build/tests/interrupt_test/CMakeFiles/test_irq.dir/test_m7_irq.c.o
 .bss           0x0003bdb0        0x0 build/tests/pvt_con/CMakeFiles/pvt_cli.dir/pvt_cli.c.o
 .bss           0x0003bdb0      0xa04 build/tests/pvt_con/CMakeFiles/pvt_cli.dir/pvt_cli_show.c.o
                0x0003bdb0                pvt_cli_init
                0x0003bdb4                pvt_cli_t25
                0x0003c2b4                pvt_cli_t85
 .bss           0x0003c7b4        0x0 build/tests/pvt_con/CMakeFiles/pvt_cli.dir/pvt_cli_enable.c.o
 .bss           0x0003c7b4        0x0 build/tests/pvt_con/CMakeFiles/pvt_cli.dir/pvt_cli_disable.c.o
 .bss           0x0003c7b4        0x0 build/tests/pvt_con/CMakeFiles/pvt_cli.dir/pvt_cli_set.c.o
 .bss           0x0003c7b4        0x0 libfreertos_kernel.a(queue.c.o)
 .bss           0x0003c7b4        0x0 libfreertos_kernel.a(tasks.c.o)
 .bss           0x0003c7b4        0x0 libfreertos_kernel.a(timers.c.o)
 .bss           0x0003c7b4        0x0 libfreertos_kernel.a(heap_4.c.o)
 .bss           0x0003c7b4        0x0 libfreertos_kernel.a(list.c.o)
 .bss           0x0003c7b4        0x0 portable/libfreertos_kernel_port.a(start.S.o)
 .bss           0x0003c7b4        0x0 portable/libfreertos_kernel_port.a(system_rebelh_cm7.c.o)
 .bss           0x0003c7b4        0x8 portable/libfreertos_kernel_port.a(port.c.o)
 .bss           0x0003c7bc        0x0 portable/libfreertos_kernel_port.a(fpu.S.o)
 .bss           0x0003c7bc        0x0 build/drivers/common/libdriver.a(driver.c.o)
 .bss           0x0003c7bc        0x0 build/drivers/common/libassert.a(assert.c.o)
 .bss           0x0003c7bc        0x0 build/drivers/common/libinterrupt.a(interrupt.c.o)
 .bss           0x0003c7bc        0x0 build/drivers/bat/libbat.a(bat.c.o)
 .bss           0x0003c7bc        0x4 services/cli_service/libcli_service.a(cli_task.c.o)
 .bss           0x0003c7c0     0x2115 services/cli_service/libcli_service.a(sys_command_line.c.o)
 *fill*         0x0003e8d5        0x3 
 .bss           0x0003e8d8       0x40 services/terminal_service/libterminal_service.a(console_uart.c.o)
                0x0003e8d8                test_uart_ptr
                0x0003e8f8                saved_uart_ptr
 .bss           0x0003e918       0x18 services/terminal_service/libterminal_service.a(console.c.o)
 .bss           0x0003e930        0xd services/terminal_service/libterminal_service.a(terminal_task.c.o)
 *fill*         0x0003e93d        0x3 
 .bss           0x0003e940       0x2c build/unity/libunity.a(unity.c.o)
                0x0003e940                Unity
 .bss           0x0003e96c       0x40 build/unity/libunity.a(unity_fixture.c.o)
                0x0003e96c                UnityFixture
 .bss           0x0003e9ac      0x120 build/interrupt_test_helper/libinterrupt_test_helper.a(interrupt_test_helper.c.o)
 .bss           0x0003eacc        0x0 libfreertos_kernel.a(event_groups.c.o)
 .bss           0x0003eacc        0x0 libfreertos_kernel.a(stream_buffer.c.o)
 .bss           0x0003eacc        0x0 build/common/arch/libcommon.a(printf.c.o)
 .bss           0x0003eacc        0x0 build/common/arch/libcommon.a(system_api.c.o)
 .bss           0x0003eacc        0x0 /tools/arm-gnu-toolchain-13.2.Rel1-x86_64-arm-none-eabi/bin/../lib/gcc/arm-none-eabi/13.2.1/thumb/v7e-m+dp/hard/libgcc.a(_aeabi_uldivmod.o)
 .bss           0x0003eacc        0x0 /tools/arm-gnu-toolchain-13.2.Rel1-x86_64-arm-none-eabi/bin/../lib/gcc/arm-none-eabi/13.2.1/thumb/v7e-m+dp/hard/libgcc.a(_udivmoddi4.o)
 .bss           0x0003eacc        0x0 /tools/arm-gnu-toolchain-13.2.Rel1-x86_64-arm-none-eabi/bin/../lib/gcc/arm-none-eabi/13.2.1/thumb/v7e-m+dp/hard/libgcc.a(_dvmd_tls.o)
 .bss           0x0003eacc        0x0 /tools/arm-gnu-toolchain-13.2.Rel1-x86_64-arm-none-eabi/bin/../lib/gcc/arm-none-eabi/13.2.1/../../../../arm-none-eabi/lib/thumb/v7e-m+dp/hard/libg.a(libc_a-strtol.o)
 .bss           0x0003eacc        0x0 /tools/arm-gnu-toolchain-13.2.Rel1-x86_64-arm-none-eabi/bin/../lib/gcc/arm-none-eabi/13.2.1/../../../../arm-none-eabi/lib/thumb/v7e-m+dp/hard/libg.a(libc_a-strtoul.o)
 .bss           0x0003eacc        0x0 /tools/arm-gnu-toolchain-13.2.Rel1-x86_64-arm-none-eabi/bin/../lib/gcc/arm-none-eabi/13.2.1/../../../../arm-none-eabi/lib/thumb/v7e-m+dp/hard/libg.a(libc_a-strncmp.o)
 .bss           0x0003eacc        0x0 /tools/arm-gnu-toolchain-13.2.Rel1-x86_64-arm-none-eabi/bin/../lib/gcc/arm-none-eabi/13.2.1/../../../../arm-none-eabi/lib/thumb/v7e-m+dp/hard/libg.a(libc_a-strtoll.o)
 .bss           0x0003eacc        0x0 /tools/arm-gnu-toolchain-13.2.Rel1-x86_64-arm-none-eabi/bin/../lib/gcc/arm-none-eabi/13.2.1/../../../../arm-none-eabi/lib/thumb/v7e-m+dp/hard/libg.a(libc_a-strncpy.o)
 .bss           0x0003eacc        0x0 /tools/arm-gnu-toolchain-13.2.Rel1-x86_64-arm-none-eabi/bin/../lib/gcc/arm-none-eabi/13.2.1/../../../../arm-none-eabi/lib/thumb/v7e-m+dp/hard/libg.a(libc_a-strtoull.o)
 .bss           0x0003eacc        0x0 /tools/arm-gnu-toolchain-13.2.Rel1-x86_64-arm-none-eabi/bin/../lib/gcc/arm-none-eabi/13.2.1/../../../../arm-none-eabi/lib/thumb/v7e-m+dp/hard/libg.a(libc_a-strpbrk.o)
 .bss           0x0003eacc        0x0 /tools/arm-gnu-toolchain-13.2.Rel1-x86_64-arm-none-eabi/bin/../lib/gcc/arm-none-eabi/13.2.1/../../../../arm-none-eabi/lib/thumb/v7e-m+dp/hard/libg.a(libc_a-strlen.o)
 .bss           0x0003eacc        0x0 /tools/arm-gnu-toolchain-13.2.Rel1-x86_64-arm-none-eabi/bin/../lib/gcc/arm-none-eabi/13.2.1/../../../../arm-none-eabi/lib/thumb/v7e-m+dp/hard/libg.a(libc_a-strspn.o)
 .bss           0x0003eacc        0x0 /tools/arm-gnu-toolchain-13.2.Rel1-x86_64-arm-none-eabi/bin/../lib/gcc/arm-none-eabi/13.2.1/../../../../arm-none-eabi/lib/thumb/v7e-m+dp/hard/libg.a(libc_a-strstr.o)
 .bss           0x0003eacc        0x0 /tools/arm-gnu-toolchain-13.2.Rel1-x86_64-arm-none-eabi/bin/../lib/gcc/arm-none-eabi/13.2.1/../../../../arm-none-eabi/lib/thumb/v7e-m+dp/hard/libg.a(libc_a-errno.o)
 .bss           0x0003eacc        0x0 /tools/arm-gnu-toolchain-13.2.Rel1-x86_64-arm-none-eabi/bin/../lib/gcc/arm-none-eabi/13.2.1/../../../../arm-none-eabi/lib/thumb/v7e-m+dp/hard/libg.a(libc_a-time.o)
 .bss           0x0003eacc        0x0 /tools/arm-gnu-toolchain-13.2.Rel1-x86_64-arm-none-eabi/bin/../lib/gcc/arm-none-eabi/13.2.1/../../../../arm-none-eabi/lib/thumb/v7e-m+dp/hard/libg.a(libc_a-memcmp.o)
 .bss           0x0003eacc        0x0 /tools/arm-gnu-toolchain-13.2.Rel1-x86_64-arm-none-eabi/bin/../lib/gcc/arm-none-eabi/13.2.1/../../../../arm-none-eabi/lib/thumb/v7e-m+dp/hard/libg.a(libc_a-memset.o)
 .bss           0x0003eacc        0x0 /tools/arm-gnu-toolchain-13.2.Rel1-x86_64-arm-none-eabi/bin/../lib/gcc/arm-none-eabi/13.2.1/../../../../arm-none-eabi/lib/thumb/v7e-m+dp/hard/libg.a(libc_a-strcmp.o)
 .bss           0x0003eacc        0x0 /tools/arm-gnu-toolchain-13.2.Rel1-x86_64-arm-none-eabi/bin/../lib/gcc/arm-none-eabi/13.2.1/../../../../arm-none-eabi/lib/thumb/v7e-m+dp/hard/libg.a(libc_a-atoi.o)
 .bss           0x0003eacc        0x0 /tools/arm-gnu-toolchain-13.2.Rel1-x86_64-arm-none-eabi/bin/../lib/gcc/arm-none-eabi/13.2.1/../../../../arm-none-eabi/lib/thumb/v7e-m+dp/hard/libg.a(libc_a-strchr.o)
 .bss           0x0003eacc        0x0 /tools/arm-gnu-toolchain-13.2.Rel1-x86_64-arm-none-eabi/bin/../lib/gcc/arm-none-eabi/13.2.1/../../../../arm-none-eabi/lib/thumb/v7e-m+dp/hard/libg.a(libc_a-rand.o)
 .bss           0x0003eacc        0x0 /tools/arm-gnu-toolchain-13.2.Rel1-x86_64-arm-none-eabi/bin/../lib/gcc/arm-none-eabi/13.2.1/../../../../arm-none-eabi/lib/thumb/v7e-m+dp/hard/libg.a(libc_a-ctype_.o)
 .bss           0x0003eacc        0x0 /tools/arm-gnu-toolchain-13.2.Rel1-x86_64-arm-none-eabi/bin/../lib/gcc/arm-none-eabi/13.2.1/../../../../arm-none-eabi/lib/thumb/v7e-m+dp/hard/libg.a(libc_a-impure.o)
 .bss           0x0003eacc        0x0 /tools/arm-gnu-toolchain-13.2.Rel1-x86_64-arm-none-eabi/bin/../lib/gcc/arm-none-eabi/13.2.1/../../../../arm-none-eabi/lib/thumb/v7e-m+dp/hard/libg.a(libc_a-findfp.o)
 .bss           0x0003eacc        0x0 /tools/arm-gnu-toolchain-13.2.Rel1-x86_64-arm-none-eabi/bin/../lib/gcc/arm-none-eabi/13.2.1/../../../../arm-none-eabi/lib/thumb/v7e-m+dp/hard/libg.a(libc_a-memcpy.o)
 .bss           0x0003eacc        0x0 /tools/arm-gnu-toolchain-13.2.Rel1-x86_64-arm-none-eabi/bin/../lib/gcc/arm-none-eabi/13.2.1/../../../../arm-none-eabi/lib/thumb/v7e-m+dp/hard/libg.a(libc_a-strnlen.o)
 .bss           0x0003eacc        0x0 /tools/arm-gnu-toolchain-13.2.Rel1-x86_64-arm-none-eabi/bin/../lib/gcc/arm-none-eabi/13.2.1/../../../../arm-none-eabi/lib/thumb/v7e-m+dp/hard/libg.a(libc_a-gettimeofdayr.o)
 .bss           0x0003eacc        0x0 /tools/arm-gnu-toolchain-13.2.Rel1-x86_64-arm-none-eabi/bin/../lib/gcc/arm-none-eabi/13.2.1/../../../../arm-none-eabi/lib/thumb/v7e-m+dp/hard/libg.a(libc_a-stdio.o)
 .bss           0x0003eacc        0x0 /tools/arm-gnu-toolchain-13.2.Rel1-x86_64-arm-none-eabi/bin/../lib/gcc/arm-none-eabi/13.2.1/../../../../arm-none-eabi/lib/thumb/v7e-m+dp/hard/libg.a(libc_a-fwalk.o)
 .bss           0x0003eacc        0x0 /tools/arm-gnu-toolchain-13.2.Rel1-x86_64-arm-none-eabi/bin/../lib/gcc/arm-none-eabi/13.2.1/../../../../arm-none-eabi/lib/thumb/v7e-m+dp/hard/libg.a(libc_a-writer.o)
 .bss           0x0003eacc        0x0 /tools/arm-gnu-toolchain-13.2.Rel1-x86_64-arm-none-eabi/bin/../lib/gcc/arm-none-eabi/13.2.1/../../../../arm-none-eabi/lib/thumb/v7e-m+dp/hard/libg.a(libc_a-mallocr.o)
 .bss           0x0003eacc        0x0 /tools/arm-gnu-toolchain-13.2.Rel1-x86_64-arm-none-eabi/bin/../lib/gcc/arm-none-eabi/13.2.1/../../../../arm-none-eabi/lib/thumb/v7e-m+dp/hard/libg.a(libc_a-lock.o)
 .bss           0x0003eacc        0x0 /tools/arm-gnu-toolchain-13.2.Rel1-x86_64-arm-none-eabi/bin/../lib/gcc/arm-none-eabi/13.2.1/../../../../arm-none-eabi/lib/thumb/v7e-m+dp/hard/libg.a(libc_a-fclose.o)
 .bss           0x0003eacc        0x0 /tools/arm-gnu-toolchain-13.2.Rel1-x86_64-arm-none-eabi/bin/../lib/gcc/arm-none-eabi/13.2.1/../../../../arm-none-eabi/lib/thumb/v7e-m+dp/hard/libg.a(libc_a-mlock.o)
 .bss           0x0003eacc        0x0 /tools/arm-gnu-toolchain-13.2.Rel1-x86_64-arm-none-eabi/bin/../lib/gcc/arm-none-eabi/13.2.1/../../../../arm-none-eabi/lib/thumb/v7e-m+dp/hard/libg.a(libc_a-closer.o)
 .bss           0x0003eacc        0x0 /tools/arm-gnu-toolchain-13.2.Rel1-x86_64-arm-none-eabi/bin/../lib/gcc/arm-none-eabi/13.2.1/../../../../arm-none-eabi/lib/thumb/v7e-m+dp/hard/libg.a(libc_a-reent.o)
 .bss           0x0003eacc        0x0 /tools/arm-gnu-toolchain-13.2.Rel1-x86_64-arm-none-eabi/bin/../lib/gcc/arm-none-eabi/13.2.1/../../../../arm-none-eabi/lib/thumb/v7e-m+dp/hard/libg.a(libc_a-fflush.o)
 .bss           0x0003eacc        0x0 /tools/arm-gnu-toolchain-13.2.Rel1-x86_64-arm-none-eabi/bin/../lib/gcc/arm-none-eabi/13.2.1/../../../../arm-none-eabi/lib/thumb/v7e-m+dp/hard/libg.a(libc_a-freer.o)
 .bss           0x0003eacc        0x0 /tools/arm-gnu-toolchain-13.2.Rel1-x86_64-arm-none-eabi/bin/../lib/gcc/arm-none-eabi/13.2.1/../../../../arm-none-eabi/lib/thumb/v7e-m+dp/hard/libg.a(libc_a-lseekr.o)
 .bss           0x0003eacc        0x0 /tools/arm-gnu-toolchain-13.2.Rel1-x86_64-arm-none-eabi/bin/../lib/gcc/arm-none-eabi/13.2.1/../../../../arm-none-eabi/lib/thumb/v7e-m+dp/hard/libg.a(libc_a-readr.o)
 .bss           0x0003eacc        0x0 /tools/arm-gnu-toolchain-13.2.Rel1-x86_64-arm-none-eabi/bin/../lib/gcc/arm-none-eabi/13.2.1/../../../../arm-none-eabi/lib/thumb/v7e-m+dp/hard/libg.a(libc_a-sbrkr.o)
                0x0003eacc                        end_bss = .

.bss.__sf       0x0003eacc      0x138
 .bss.__sf      0x0003eacc      0x138 /tools/arm-gnu-toolchain-13.2.Rel1-x86_64-arm-none-eabi/bin/../lib/gcc/arm-none-eabi/13.2.1/../../../../arm-none-eabi/lib/thumb/v7e-m+dp/hard/libg.a(libc_a-findfp.o)
                0x0003eacc                __sf

.bss.__stdio_exit_handler
                0x0003ec04        0x4
 .bss.__stdio_exit_handler
                0x0003ec04        0x4 /tools/arm-gnu-toolchain-13.2.Rel1-x86_64-arm-none-eabi/bin/../lib/gcc/arm-none-eabi/13.2.1/../../../../arm-none-eabi/lib/thumb/v7e-m+dp/hard/libg.a(libc_a-findfp.o)
                0x0003ec04                __stdio_exit_handler

.bss.__malloc_current_mallinfo
                0x0003ec08       0x28
 .bss.__malloc_current_mallinfo
                0x0003ec08       0x28 /tools/arm-gnu-toolchain-13.2.Rel1-x86_64-arm-none-eabi/bin/../lib/gcc/arm-none-eabi/13.2.1/../../../../arm-none-eabi/lib/thumb/v7e-m+dp/hard/libg.a(libc_a-mallocr.o)
                0x0003ec08                __malloc_current_mallinfo

.bss.__malloc_max_total_mem
                0x0003ec30        0x4
 .bss.__malloc_max_total_mem
                0x0003ec30        0x4 /tools/arm-gnu-toolchain-13.2.Rel1-x86_64-arm-none-eabi/bin/../lib/gcc/arm-none-eabi/13.2.1/../../../../arm-none-eabi/lib/thumb/v7e-m+dp/hard/libg.a(libc_a-mallocr.o)
                0x0003ec30                __malloc_max_total_mem

.bss.__malloc_max_sbrked_mem
                0x0003ec34        0x4
 .bss.__malloc_max_sbrked_mem
                0x0003ec34        0x4 /tools/arm-gnu-toolchain-13.2.Rel1-x86_64-arm-none-eabi/bin/../lib/gcc/arm-none-eabi/13.2.1/../../../../arm-none-eabi/lib/thumb/v7e-m+dp/hard/libg.a(libc_a-mallocr.o)
                0x0003ec34                __malloc_max_sbrked_mem

.bss.__malloc_top_pad
                0x0003ec38        0x4
 .bss.__malloc_top_pad
                0x0003ec38        0x4 /tools/arm-gnu-toolchain-13.2.Rel1-x86_64-arm-none-eabi/bin/../lib/gcc/arm-none-eabi/13.2.1/../../../../arm-none-eabi/lib/thumb/v7e-m+dp/hard/libg.a(libc_a-mallocr.o)
                0x0003ec38                __malloc_top_pad

.bss.__lock___arc4random_mutex
                0x0003ec3c        0x1
 .bss.__lock___arc4random_mutex
                0x0003ec3c        0x1 /tools/arm-gnu-toolchain-13.2.Rel1-x86_64-arm-none-eabi/bin/../lib/gcc/arm-none-eabi/13.2.1/../../../../arm-none-eabi/lib/thumb/v7e-m+dp/hard/libg.a(libc_a-lock.o)
                0x0003ec3c                __lock___arc4random_mutex

.bss.__lock___dd_hash_mutex
                0x0003ec40        0x1
 .bss.__lock___dd_hash_mutex
                0x0003ec40        0x1 /tools/arm-gnu-toolchain-13.2.Rel1-x86_64-arm-none-eabi/bin/../lib/gcc/arm-none-eabi/13.2.1/../../../../arm-none-eabi/lib/thumb/v7e-m+dp/hard/libg.a(libc_a-lock.o)
                0x0003ec40                __lock___dd_hash_mutex

.bss.__lock___tz_mutex
                0x0003ec44        0x1
 .bss.__lock___tz_mutex
                0x0003ec44        0x1 /tools/arm-gnu-toolchain-13.2.Rel1-x86_64-arm-none-eabi/bin/../lib/gcc/arm-none-eabi/13.2.1/../../../../arm-none-eabi/lib/thumb/v7e-m+dp/hard/libg.a(libc_a-lock.o)
                0x0003ec44                __lock___tz_mutex

.bss.__lock___env_recursive_mutex
                0x0003ec48        0x1
 .bss.__lock___env_recursive_mutex
                0x0003ec48        0x1 /tools/arm-gnu-toolchain-13.2.Rel1-x86_64-arm-none-eabi/bin/../lib/gcc/arm-none-eabi/13.2.1/../../../../arm-none-eabi/lib/thumb/v7e-m+dp/hard/libg.a(libc_a-lock.o)
                0x0003ec48                __lock___env_recursive_mutex

.bss.__lock___malloc_recursive_mutex
                0x0003ec4c        0x1
 .bss.__lock___malloc_recursive_mutex
                0x0003ec4c        0x1 /tools/arm-gnu-toolchain-13.2.Rel1-x86_64-arm-none-eabi/bin/../lib/gcc/arm-none-eabi/13.2.1/../../../../arm-none-eabi/lib/thumb/v7e-m+dp/hard/libg.a(libc_a-lock.o)
                0x0003ec4c                __lock___malloc_recursive_mutex

.bss.__lock___at_quick_exit_mutex
                0x0003ec50        0x1
 .bss.__lock___at_quick_exit_mutex
                0x0003ec50        0x1 /tools/arm-gnu-toolchain-13.2.Rel1-x86_64-arm-none-eabi/bin/../lib/gcc/arm-none-eabi/13.2.1/../../../../arm-none-eabi/lib/thumb/v7e-m+dp/hard/libg.a(libc_a-lock.o)
                0x0003ec50                __lock___at_quick_exit_mutex

.bss.__lock___atexit_recursive_mutex
                0x0003ec54        0x1
 .bss.__lock___atexit_recursive_mutex
                0x0003ec54        0x1 /tools/arm-gnu-toolchain-13.2.Rel1-x86_64-arm-none-eabi/bin/../lib/gcc/arm-none-eabi/13.2.1/../../../../arm-none-eabi/lib/thumb/v7e-m+dp/hard/libg.a(libc_a-lock.o)
                0x0003ec54                __lock___atexit_recursive_mutex

.bss.__lock___sfp_recursive_mutex
                0x0003ec58        0x1
 .bss.__lock___sfp_recursive_mutex
                0x0003ec58        0x1 /tools/arm-gnu-toolchain-13.2.Rel1-x86_64-arm-none-eabi/bin/../lib/gcc/arm-none-eabi/13.2.1/../../../../arm-none-eabi/lib/thumb/v7e-m+dp/hard/libg.a(libc_a-lock.o)
                0x0003ec58                __lock___sfp_recursive_mutex

.bss.errno      0x0003ec5c        0x4
 .bss.errno     0x0003ec5c        0x4 /tools/arm-gnu-toolchain-13.2.Rel1-x86_64-arm-none-eabi/bin/../lib/gcc/arm-none-eabi/13.2.1/../../../../arm-none-eabi/lib/thumb/v7e-m+dp/hard/libg.a(libc_a-reent.o)
                0x0003ec5c                errno

.heap           0x0003ec60      0x200
                0x0003ec60                        PROVIDE (metal_segment_heap_target_start = .)
                0x0003ee60                        . = (. + _heap_size)
 *fill*         0x0003ec60      0x200 
                0x0003ee60                        . = ALIGN (0x8)
                0x0003ee60                        PROVIDE (metal_segment_heap_target_end = .)
                0x0003fe00                        _stack_top = ((ORIGIN (SRAM) + LENGTH (SRAM)) - pl330_reserved_size)
                0x0003fe00                        . = 0x3fe00

.pl330_reserved
                0x0003fe00      0x200
                [!provide]                        PROVIDE (__pl330_reserved_start = .)
                0x00040000                        PROVIDE (__pl330_reserved_end = (. + pl330_reserved_size))
 *(.pl330_reserved)
                0x00040000                        . = __pl330_reserved_end
 *fill*         0x0003fe00      0x200 

/DISCARD/
OUTPUT(freertos_kernel.elf elf32-littlearm)
LOAD linker stubs

.debug_info     0x00000000   0x51f229
 .debug_info    0x00000000      0x337 CMakeFiles/freertos_kernel.elf.dir/main_cm7.c.o
 .debug_info    0x00000337      0x1be gloss/CMakeFiles/freedom_metal.dir/freedom_metal.c.o
 .debug_info    0x000004f5      0x10e gloss/CMakeFiles/freedom_metal.dir/nanosleep.c.o
 .debug_info    0x00000603       0xc7 gloss/CMakeFiles/freedom_metal.dir/sys_access.c.o
 .debug_info    0x000006ca       0xbc gloss/CMakeFiles/freedom_metal.dir/sys_chdir.c.o
 .debug_info    0x00000786       0xeb gloss/CMakeFiles/freedom_metal.dir/sys_chmod.c.o
 .debug_info    0x00000871      0x104 gloss/CMakeFiles/freedom_metal.dir/sys_chown.c.o
 .debug_info    0x00000975      0x18c gloss/CMakeFiles/freedom_metal.dir/sys_clock_gettime.c.o
 .debug_info    0x00000b01       0xb3 gloss/CMakeFiles/freedom_metal.dir/sys_close.c.o
 .debug_info    0x00000bb4       0xe9 gloss/CMakeFiles/freedom_metal.dir/sys_execve.c.o
 .debug_info    0x00000c9d       0xb3 gloss/CMakeFiles/freedom_metal.dir/sys_exit.c.o
 .debug_info    0x00000d50       0xe1 gloss/CMakeFiles/freedom_metal.dir/sys_faccessat.c.o
 .debug_info    0x00000e31       0xa3 gloss/CMakeFiles/freedom_metal.dir/sys_fork.c.o
 .debug_info    0x00000ed4      0x2cb gloss/CMakeFiles/freedom_metal.dir/sys_fstat.c.o
 .debug_info    0x0000119f      0x2ed gloss/CMakeFiles/freedom_metal.dir/sys_fstatat.c.o
 .debug_info    0x0000148c      0x110 gloss/CMakeFiles/freedom_metal.dir/sys_ftime.c.o
 .debug_info    0x0000159c       0xd2 gloss/CMakeFiles/freedom_metal.dir/sys_getcwd.c.o
 .debug_info    0x0000166e       0xa7 gloss/CMakeFiles/freedom_metal.dir/sys_getpid.c.o
 .debug_info    0x00001715      0x16d gloss/CMakeFiles/freedom_metal.dir/sys_gettimeofday.c.o
 .debug_info    0x00001882       0xa1 gloss/CMakeFiles/freedom_metal.dir/sys_isatty.c.o
 .debug_info    0x00001923       0xbe gloss/CMakeFiles/freedom_metal.dir/sys_kill.c.o
 .debug_info    0x000019e1       0xc7 gloss/CMakeFiles/freedom_metal.dir/sys_link.c.o
 .debug_info    0x00001aa8       0xf1 gloss/CMakeFiles/freedom_metal.dir/sys_lseek.c.o
 .debug_info    0x00001b99      0x2d5 gloss/CMakeFiles/freedom_metal.dir/sys_lstat.c.o
 .debug_info    0x00001e6e       0xd4 gloss/CMakeFiles/freedom_metal.dir/sys_open.c.o
 .debug_info    0x00001f42       0xe1 gloss/CMakeFiles/freedom_metal.dir/sys_openat.c.o
 .debug_info    0x00002023       0xf3 gloss/CMakeFiles/freedom_metal.dir/sys_read.c.o
 .debug_info    0x00002116      0x12d gloss/CMakeFiles/freedom_metal.dir/sys_sbrk.c.o
 .debug_info    0x00002243       0xa1 gloss/CMakeFiles/freedom_metal.dir/sys_sysconf.c.o
 .debug_info    0x000022e4      0x19c gloss/CMakeFiles/freedom_metal.dir/sys_times.c.o
 .debug_info    0x00002480       0xbc gloss/CMakeFiles/freedom_metal.dir/sys_unlink.c.o
 .debug_info    0x0000253c       0xda gloss/CMakeFiles/freedom_metal.dir/sys_utime.c.o
 .debug_info    0x00002616       0xb3 gloss/CMakeFiles/freedom_metal.dir/sys_wait.c.o
 .debug_info    0x000026c9      0x140 gloss/CMakeFiles/freedom_metal.dir/sys_write.c.o
 .debug_info    0x00002809      0xa83 build/drivers/uart/CMakeFiles/uart.dir/uart.c.o
 .debug_info    0x0000328c    0x6a68b build/drivers/pcie/CMakeFiles/pcie.dir/pcie_ep.c.o
 .debug_info    0x0006d917    0x314fb build/drivers/pcie/CMakeFiles/pcie.dir/pcie_dw.c.o
 .debug_info    0x0009ee12    0x30736 build/drivers/pcie/CMakeFiles/pcie.dir/pcie_snps_phy.c.o
 .debug_info    0x000cf548    0x3100e build/drivers/pcie/CMakeFiles/pcie.dir/pcie_dw_hdma.c.o
 .debug_info    0x00100556    0x31039 build/drivers/pcie/CMakeFiles/pcie.dir/pcie_irq.c.o
 .debug_info    0x0013158f    0x311de build/drivers/pcie/CMakeFiles/pcie.dir/pcie_dw_iatu.c.o
 .debug_info    0x0016276d    0x30c40 build/drivers/pcie/CMakeFiles/pcie.dir/pcie_dw_bar.c.o
 .debug_info    0x001933ad    0x30915 build/drivers/pcie/CMakeFiles/pcie.dir/pcie_dw_msix.c.o
 .debug_info    0x001c3cc2    0x30cab build/drivers/pcie/CMakeFiles/pcie.dir/pcie_subctrl.c.o
 .debug_info    0x001f496d    0x30bdd build/drivers/pcie/CMakeFiles/pcie.dir/pcie_doe.c.o
 .debug_info    0x0022554a    0x30c1e build/drivers/pcie/CMakeFiles/pcie.dir/pcie_dw_ide.c.o
 .debug_info    0x00256168    0x32129 build/drivers/pcie/CMakeFiles/pcie.dir/pcie_sysreg.c.o
 .debug_info    0x00288291     0x1d94 build/drivers/mailbox/CMakeFiles/mailbox.dir/mailbox.c.o
 .debug_info    0x0028a025      0x1fe build/drivers/mailbox/CMakeFiles/mailbox.dir/mailbox_cb.c.o
 .debug_info    0x0028a223    0x30a71 build/drivers/pmu/CMakeFiles/pmu.dir/pmu.c.o
 .debug_info    0x002bac94     0x239e build/drivers/pvt_con/CMakeFiles/pvt_con.dir/pvt_con.c.o
 .debug_info    0x002bd032      0x7fd build/drivers/watchdog/CMakeFiles/watchdog.dir/dw_apb_wdt.c.o
 .debug_info    0x002bd82f      0x1ec build/tests/common/CMakeFiles/test_common.dir/test_mailbox_cb.c.o
 .debug_info    0x002bda1b      0x59f build/tests/interrupt_test_helper_example/CMakeFiles/interrupt_test_helper_example.dir/example_test.c.o
 .debug_info    0x002bdfba      0x122 build/tests/interrupt_test_helper_example/CMakeFiles/interrupt_test_helper_example.dir/example_driver.c.o
 .debug_info    0x002be0dc      0x26d build/tests/arch/CMakeFiles/test_arch.dir/test_cli.c.o
 .debug_info    0x002be349      0x65a build/tests/pcie/CMakeFiles/pcie_test.dir/test_pcie_main.c.o
 .debug_info    0x002be9a3    0x3122c build/tests/pcie/CMakeFiles/pcie_test.dir/test_pcie_msix.c.o
 .debug_info    0x002efbcf    0x314f0 build/tests/pcie/CMakeFiles/pcie_test.dir/test_pcie_hdma.c.o
 .debug_info    0x003210bf    0x3091e build/tests/pcie/CMakeFiles/pcie_test.dir/test_pcie_capability.c.o
 .debug_info    0x003519dd    0x30e6a build/tests/pcie/CMakeFiles/pcie_test.dir/test_pcie_mode.c.o
 .debug_info    0x00382847    0x3123f build/tests/pcie/CMakeFiles/pcie_test.dir/test_pcie_iatu.c.o
 .debug_info    0x003b3a86    0x30c71 build/tests/pcie/CMakeFiles/pcie_test.dir/test_pcie_history_store.c.o
 .debug_info    0x003e46f7    0x30f9a build/tests/pcie/CMakeFiles/pcie_test.dir/test_pcie_doe.c.o
 .debug_info    0x00415691    0x3086e build/tests/pcie/CMakeFiles/pcie_test.dir/test_pcie_ide.c.o
 .debug_info    0x00445eff    0x3146c build/tests/pcie/CMakeFiles/pcie_test.dir/test_pcie_ide_scenario.c.o
 .debug_info    0x0047736b    0x30914 build/tests/pcie/CMakeFiles/pcie_test.dir/test_pcie_rasdp.c.o
 .debug_info    0x004a7c7f    0x31065 build/tests/pcie/CMakeFiles/pcie_test.dir/test_pcie_rasdes.c.o
 .debug_info    0x004d8ce4    0x318e0 build/tests/pcie/CMakeFiles/pcie_test.dir/test_pcie_epf.c.o
 .debug_info    0x0050a5c4      0x551 build/tests/mailbox/CMakeFiles/mailbox_test.dir/test_mailbox_main.c.o
 .debug_info    0x0050ab15      0x294 build/tests/arch/arm/CMakeFiles/test_arm.dir/test_cm7.c.o
 .debug_info    0x0050ada9      0x5a3 build/tests/log/CMakeFiles/show_log.dir/rebel_h_log.c.o
 .debug_info    0x0050b34c      0x28d build/tests/interrupt_test/CMakeFiles/test_irq.dir/test_m7_irq.c.o
 .debug_info    0x0050b5d9      0x37b build/tests/pvt_con/CMakeFiles/pvt_cli.dir/pvt_cli.c.o
 .debug_info    0x0050b954     0x1807 build/tests/pvt_con/CMakeFiles/pvt_cli.dir/pvt_cli_show.c.o
 .debug_info    0x0050d15b     0x1458 build/tests/pvt_con/CMakeFiles/pvt_cli.dir/pvt_cli_enable.c.o
 .debug_info    0x0050e5b3     0x1458 build/tests/pvt_con/CMakeFiles/pvt_cli.dir/pvt_cli_disable.c.o
 .debug_info    0x0050fa0b     0x13aa build/tests/pvt_con/CMakeFiles/pvt_cli.dir/pvt_cli_set.c.o
 .debug_info    0x00510db5     0x1988 libfreertos_kernel.a(queue.c.o)
 .debug_info    0x0051273d     0x2999 libfreertos_kernel.a(tasks.c.o)
 .debug_info    0x005150d6     0x1098 libfreertos_kernel.a(timers.c.o)
 .debug_info    0x0051616e      0x5c4 libfreertos_kernel.a(heap_4.c.o)
 .debug_info    0x00516732      0x2ab libfreertos_kernel.a(list.c.o)
 .debug_info    0x005169dd      0x8e3 portable/libfreertos_kernel_port.a(system_rebelh_cm7.c.o)
 .debug_info    0x005172c0      0x53e portable/libfreertos_kernel_port.a(port.c.o)
 .debug_info    0x005177fe      0x13f build/drivers/common/libdriver.a(driver.c.o)
 .debug_info    0x0051793d      0x1dd build/drivers/common/libassert.a(assert.c.o)
 .debug_info    0x00517b1a      0x846 build/drivers/common/libinterrupt.a(interrupt.c.o)
 .debug_info    0x00518360       0xf3 build/drivers/bat/libbat.a(bat.c.o)
 .debug_info    0x00518453      0x3cf services/cli_service/libcli_service.a(cli_task.c.o)
 .debug_info    0x00518822      0xa61 services/cli_service/libcli_service.a(sys_command_line.c.o)
 .debug_info    0x00519283      0x2aa services/terminal_service/libterminal_service.a(console_uart.c.o)
 .debug_info    0x0051952d      0x45e services/terminal_service/libterminal_service.a(console.c.o)
 .debug_info    0x0051998b      0x6ca services/terminal_service/libterminal_service.a(terminal_task.c.o)
 .debug_info    0x0051a055     0x16e6 build/unity/libunity.a(unity.c.o)
 .debug_info    0x0051b73b      0x5a1 build/unity/libunity.a(unity_fixture.c.o)
 .debug_info    0x0051bcdc      0x8f5 build/interrupt_test_helper/libinterrupt_test_helper.a(interrupt_test_helper.c.o)
 .debug_info    0x0051c5d1      0xa6c libfreertos_kernel.a(event_groups.c.o)
 .debug_info    0x0051d03d     0x1277 libfreertos_kernel.a(stream_buffer.c.o)
 .debug_info    0x0051e2b4      0xd50 build/common/arch/libcommon.a(printf.c.o)
 .debug_info    0x0051f004      0x225 build/common/arch/libcommon.a(system_api.c.o)

.debug_abbrev   0x00000000     0xbfba
 .debug_abbrev  0x00000000      0x180 CMakeFiles/freertos_kernel.elf.dir/main_cm7.c.o
 .debug_abbrev  0x00000180       0xf4 gloss/CMakeFiles/freedom_metal.dir/freedom_metal.c.o
 .debug_abbrev  0x00000274       0xb2 gloss/CMakeFiles/freedom_metal.dir/nanosleep.c.o
 .debug_abbrev  0x00000326       0x7e gloss/CMakeFiles/freedom_metal.dir/sys_access.c.o
 .debug_abbrev  0x000003a4       0x7c gloss/CMakeFiles/freedom_metal.dir/sys_chdir.c.o
 .debug_abbrev  0x00000420       0x8d gloss/CMakeFiles/freedom_metal.dir/sys_chmod.c.o
 .debug_abbrev  0x000004ad       0x8d gloss/CMakeFiles/freedom_metal.dir/sys_chown.c.o
 .debug_abbrev  0x0000053a       0xe0 gloss/CMakeFiles/freedom_metal.dir/sys_clock_gettime.c.o
 .debug_abbrev  0x0000061a       0x74 gloss/CMakeFiles/freedom_metal.dir/sys_close.c.o
 .debug_abbrev  0x0000068e       0x91 gloss/CMakeFiles/freedom_metal.dir/sys_execve.c.o
 .debug_abbrev  0x0000071f       0x75 gloss/CMakeFiles/freedom_metal.dir/sys_exit.c.o
 .debug_abbrev  0x00000794       0x7e gloss/CMakeFiles/freedom_metal.dir/sys_faccessat.c.o
 .debug_abbrev  0x00000812       0x61 gloss/CMakeFiles/freedom_metal.dir/sys_fork.c.o
 .debug_abbrev  0x00000873       0xcc gloss/CMakeFiles/freedom_metal.dir/sys_fstat.c.o
 .debug_abbrev  0x0000093f       0xd5 gloss/CMakeFiles/freedom_metal.dir/sys_fstatat.c.o
 .debug_abbrev  0x00000a14       0xa9 gloss/CMakeFiles/freedom_metal.dir/sys_ftime.c.o
 .debug_abbrev  0x00000abd       0x95 gloss/CMakeFiles/freedom_metal.dir/sys_getcwd.c.o
 .debug_abbrev  0x00000b52       0x60 gloss/CMakeFiles/freedom_metal.dir/sys_getpid.c.o
 .debug_abbrev  0x00000bb2       0xe0 gloss/CMakeFiles/freedom_metal.dir/sys_gettimeofday.c.o
 .debug_abbrev  0x00000c92       0x56 gloss/CMakeFiles/freedom_metal.dir/sys_isatty.c.o
 .debug_abbrev  0x00000ce8       0x76 gloss/CMakeFiles/freedom_metal.dir/sys_kill.c.o
 .debug_abbrev  0x00000d5e       0x7e gloss/CMakeFiles/freedom_metal.dir/sys_link.c.o
 .debug_abbrev  0x00000ddc       0x96 gloss/CMakeFiles/freedom_metal.dir/sys_lseek.c.o
 .debug_abbrev  0x00000e72       0xd3 gloss/CMakeFiles/freedom_metal.dir/sys_lstat.c.o
 .debug_abbrev  0x00000f45       0x7e gloss/CMakeFiles/freedom_metal.dir/sys_open.c.o
 .debug_abbrev  0x00000fc3       0x7e gloss/CMakeFiles/freedom_metal.dir/sys_openat.c.o
 .debug_abbrev  0x00001041       0x9d gloss/CMakeFiles/freedom_metal.dir/sys_read.c.o
 .debug_abbrev  0x000010de       0xe8 gloss/CMakeFiles/freedom_metal.dir/sys_sbrk.c.o
 .debug_abbrev  0x000011c6       0x56 gloss/CMakeFiles/freedom_metal.dir/sys_sysconf.c.o
 .debug_abbrev  0x0000121c      0x107 gloss/CMakeFiles/freedom_metal.dir/sys_times.c.o
 .debug_abbrev  0x00001323       0x7c gloss/CMakeFiles/freedom_metal.dir/sys_unlink.c.o
 .debug_abbrev  0x0000139f       0x89 gloss/CMakeFiles/freedom_metal.dir/sys_utime.c.o
 .debug_abbrev  0x00001428       0x74 gloss/CMakeFiles/freedom_metal.dir/sys_wait.c.o
 .debug_abbrev  0x0000149c       0xee gloss/CMakeFiles/freedom_metal.dir/sys_write.c.o
 .debug_abbrev  0x0000158a      0x304 build/drivers/uart/CMakeFiles/uart.dir/uart.c.o
 .debug_abbrev  0x0000188e      0x434 build/drivers/pcie/CMakeFiles/pcie.dir/pcie_ep.c.o
 .debug_abbrev  0x00001cc2      0x384 build/drivers/pcie/CMakeFiles/pcie.dir/pcie_dw.c.o
 .debug_abbrev  0x00002046      0x264 build/drivers/pcie/CMakeFiles/pcie.dir/pcie_snps_phy.c.o
 .debug_abbrev  0x000022aa      0x3a5 build/drivers/pcie/CMakeFiles/pcie.dir/pcie_dw_hdma.c.o
 .debug_abbrev  0x0000264f      0x351 build/drivers/pcie/CMakeFiles/pcie.dir/pcie_irq.c.o
 .debug_abbrev  0x000029a0      0x352 build/drivers/pcie/CMakeFiles/pcie.dir/pcie_dw_iatu.c.o
 .debug_abbrev  0x00002cf2      0x366 build/drivers/pcie/CMakeFiles/pcie.dir/pcie_dw_bar.c.o
 .debug_abbrev  0x00003058      0x2db build/drivers/pcie/CMakeFiles/pcie.dir/pcie_dw_msix.c.o
 .debug_abbrev  0x00003333      0x36f build/drivers/pcie/CMakeFiles/pcie.dir/pcie_subctrl.c.o
 .debug_abbrev  0x000036a2      0x2bf build/drivers/pcie/CMakeFiles/pcie.dir/pcie_doe.c.o
 .debug_abbrev  0x00003961      0x2ee build/drivers/pcie/CMakeFiles/pcie.dir/pcie_dw_ide.c.o
 .debug_abbrev  0x00003c4f      0x254 build/drivers/pcie/CMakeFiles/pcie.dir/pcie_sysreg.c.o
 .debug_abbrev  0x00003ea3      0x329 build/drivers/mailbox/CMakeFiles/mailbox.dir/mailbox.c.o
 .debug_abbrev  0x000041cc      0x14a build/drivers/mailbox/CMakeFiles/mailbox.dir/mailbox_cb.c.o
 .debug_abbrev  0x00004316      0x1f7 build/drivers/pmu/CMakeFiles/pmu.dir/pmu.c.o
 .debug_abbrev  0x0000450d      0x309 build/drivers/pvt_con/CMakeFiles/pvt_con.dir/pvt_con.c.o
 .debug_abbrev  0x00004816      0x22a build/drivers/watchdog/CMakeFiles/watchdog.dir/dw_apb_wdt.c.o
 .debug_abbrev  0x00004a40       0xff build/tests/common/CMakeFiles/test_common.dir/test_mailbox_cb.c.o
 .debug_abbrev  0x00004b3f      0x20f build/tests/interrupt_test_helper_example/CMakeFiles/interrupt_test_helper_example.dir/example_test.c.o
 .debug_abbrev  0x00004d4e       0xb0 build/tests/interrupt_test_helper_example/CMakeFiles/interrupt_test_helper_example.dir/example_driver.c.o
 .debug_abbrev  0x00004dfe      0x16f build/tests/arch/CMakeFiles/test_arch.dir/test_cli.c.o
 .debug_abbrev  0x00004f6d      0x182 build/tests/pcie/CMakeFiles/pcie_test.dir/test_pcie_main.c.o
 .debug_abbrev  0x000050ef      0x490 build/tests/pcie/CMakeFiles/pcie_test.dir/test_pcie_msix.c.o
 .debug_abbrev  0x0000557f      0x43f build/tests/pcie/CMakeFiles/pcie_test.dir/test_pcie_hdma.c.o
 .debug_abbrev  0x000059be      0x29b build/tests/pcie/CMakeFiles/pcie_test.dir/test_pcie_capability.c.o
 .debug_abbrev  0x00005c59      0x3dd build/tests/pcie/CMakeFiles/pcie_test.dir/test_pcie_mode.c.o
 .debug_abbrev  0x00006036      0x48d build/tests/pcie/CMakeFiles/pcie_test.dir/test_pcie_iatu.c.o
 .debug_abbrev  0x000064c3      0x348 build/tests/pcie/CMakeFiles/pcie_test.dir/test_pcie_history_store.c.o
 .debug_abbrev  0x0000680b      0x3ef build/tests/pcie/CMakeFiles/pcie_test.dir/test_pcie_doe.c.o
 .debug_abbrev  0x00006bfa      0x280 build/tests/pcie/CMakeFiles/pcie_test.dir/test_pcie_ide.c.o
 .debug_abbrev  0x00006e7a      0x3a4 build/tests/pcie/CMakeFiles/pcie_test.dir/test_pcie_ide_scenario.c.o
 .debug_abbrev  0x0000721e      0x2bc build/tests/pcie/CMakeFiles/pcie_test.dir/test_pcie_rasdp.c.o
 .debug_abbrev  0x000074da      0x375 build/tests/pcie/CMakeFiles/pcie_test.dir/test_pcie_rasdes.c.o
 .debug_abbrev  0x0000784f      0x4c1 build/tests/pcie/CMakeFiles/pcie_test.dir/test_pcie_epf.c.o
 .debug_abbrev  0x00007d10      0x20c build/tests/mailbox/CMakeFiles/mailbox_test.dir/test_mailbox_main.c.o
 .debug_abbrev  0x00007f1c      0x142 build/tests/arch/arm/CMakeFiles/test_arm.dir/test_cm7.c.o
 .debug_abbrev  0x0000805e      0x208 build/tests/log/CMakeFiles/show_log.dir/rebel_h_log.c.o
 .debug_abbrev  0x00008266      0x171 build/tests/interrupt_test/CMakeFiles/test_irq.dir/test_m7_irq.c.o
 .debug_abbrev  0x000083d7      0x14a build/tests/pvt_con/CMakeFiles/pvt_cli.dir/pvt_cli.c.o
 .debug_abbrev  0x00008521      0x2bb build/tests/pvt_con/CMakeFiles/pvt_cli.dir/pvt_cli_show.c.o
 .debug_abbrev  0x000087dc      0x1e3 build/tests/pvt_con/CMakeFiles/pvt_cli.dir/pvt_cli_enable.c.o
 .debug_abbrev  0x000089bf      0x1e3 build/tests/pvt_con/CMakeFiles/pvt_cli.dir/pvt_cli_disable.c.o
 .debug_abbrev  0x00008ba2      0x1ff build/tests/pvt_con/CMakeFiles/pvt_cli.dir/pvt_cli_set.c.o
 .debug_abbrev  0x00008da1      0x2e6 libfreertos_kernel.a(queue.c.o)
 .debug_abbrev  0x00009087      0x443 libfreertos_kernel.a(tasks.c.o)
 .debug_abbrev  0x000094ca      0x2eb libfreertos_kernel.a(timers.c.o)
 .debug_abbrev  0x000097b5      0x256 libfreertos_kernel.a(heap_4.c.o)
 .debug_abbrev  0x00009a0b       0xf3 libfreertos_kernel.a(list.c.o)
 .debug_abbrev  0x00009afe      0x325 portable/libfreertos_kernel_port.a(system_rebelh_cm7.c.o)
 .debug_abbrev  0x00009e23      0x268 portable/libfreertos_kernel_port.a(port.c.o)
 .debug_abbrev  0x0000a08b      0x100 build/drivers/common/libdriver.a(driver.c.o)
 .debug_abbrev  0x0000a18b      0x107 build/drivers/common/libassert.a(assert.c.o)
 .debug_abbrev  0x0000a292      0x22f build/drivers/common/libinterrupt.a(interrupt.c.o)
 .debug_abbrev  0x0000a4c1       0x89 build/drivers/bat/libbat.a(bat.c.o)
 .debug_abbrev  0x0000a54a      0x1b4 services/cli_service/libcli_service.a(cli_task.c.o)
 .debug_abbrev  0x0000a6fe      0x30b services/cli_service/libcli_service.a(sys_command_line.c.o)
 .debug_abbrev  0x0000aa09      0x1a7 services/terminal_service/libterminal_service.a(console_uart.c.o)
 .debug_abbrev  0x0000abb0      0x1e8 services/terminal_service/libterminal_service.a(console.c.o)
 .debug_abbrev  0x0000ad98      0x20d services/terminal_service/libterminal_service.a(terminal_task.c.o)
 .debug_abbrev  0x0000afa5      0x312 build/unity/libunity.a(unity.c.o)
 .debug_abbrev  0x0000b2b7      0x22b build/unity/libunity.a(unity_fixture.c.o)
 .debug_abbrev  0x0000b4e2      0x1fb build/interrupt_test_helper/libinterrupt_test_helper.a(interrupt_test_helper.c.o)
 .debug_abbrev  0x0000b6dd      0x2d8 libfreertos_kernel.a(event_groups.c.o)
 .debug_abbrev  0x0000b9b5      0x2cf libfreertos_kernel.a(stream_buffer.c.o)
 .debug_abbrev  0x0000bc84      0x24b build/common/arch/libcommon.a(printf.c.o)
 .debug_abbrev  0x0000becf       0xeb build/common/arch/libcommon.a(system_api.c.o)

.debug_aranges  0x00000000     0x1208
 .debug_aranges
                0x00000000       0x20 CMakeFiles/freertos_kernel.elf.dir/main_cm7.c.o
 .debug_aranges
                0x00000020       0x20 gloss/CMakeFiles/freedom_metal.dir/freedom_metal.c.o
 .debug_aranges
                0x00000040       0x20 gloss/CMakeFiles/freedom_metal.dir/nanosleep.c.o
 .debug_aranges
                0x00000060       0x20 gloss/CMakeFiles/freedom_metal.dir/sys_access.c.o
 .debug_aranges
                0x00000080       0x20 gloss/CMakeFiles/freedom_metal.dir/sys_chdir.c.o
 .debug_aranges
                0x000000a0       0x20 gloss/CMakeFiles/freedom_metal.dir/sys_chmod.c.o
 .debug_aranges
                0x000000c0       0x20 gloss/CMakeFiles/freedom_metal.dir/sys_chown.c.o
 .debug_aranges
                0x000000e0       0x20 gloss/CMakeFiles/freedom_metal.dir/sys_clock_gettime.c.o
 .debug_aranges
                0x00000100       0x20 gloss/CMakeFiles/freedom_metal.dir/sys_close.c.o
 .debug_aranges
                0x00000120       0x20 gloss/CMakeFiles/freedom_metal.dir/sys_execve.c.o
 .debug_aranges
                0x00000140       0x20 gloss/CMakeFiles/freedom_metal.dir/sys_exit.c.o
 .debug_aranges
                0x00000160       0x20 gloss/CMakeFiles/freedom_metal.dir/sys_faccessat.c.o
 .debug_aranges
                0x00000180       0x20 gloss/CMakeFiles/freedom_metal.dir/sys_fork.c.o
 .debug_aranges
                0x000001a0       0x20 gloss/CMakeFiles/freedom_metal.dir/sys_fstat.c.o
 .debug_aranges
                0x000001c0       0x20 gloss/CMakeFiles/freedom_metal.dir/sys_fstatat.c.o
 .debug_aranges
                0x000001e0       0x20 gloss/CMakeFiles/freedom_metal.dir/sys_ftime.c.o
 .debug_aranges
                0x00000200       0x20 gloss/CMakeFiles/freedom_metal.dir/sys_getcwd.c.o
 .debug_aranges
                0x00000220       0x20 gloss/CMakeFiles/freedom_metal.dir/sys_getpid.c.o
 .debug_aranges
                0x00000240       0x20 gloss/CMakeFiles/freedom_metal.dir/sys_gettimeofday.c.o
 .debug_aranges
                0x00000260       0x20 gloss/CMakeFiles/freedom_metal.dir/sys_isatty.c.o
 .debug_aranges
                0x00000280       0x20 gloss/CMakeFiles/freedom_metal.dir/sys_kill.c.o
 .debug_aranges
                0x000002a0       0x20 gloss/CMakeFiles/freedom_metal.dir/sys_link.c.o
 .debug_aranges
                0x000002c0       0x20 gloss/CMakeFiles/freedom_metal.dir/sys_lseek.c.o
 .debug_aranges
                0x000002e0       0x20 gloss/CMakeFiles/freedom_metal.dir/sys_lstat.c.o
 .debug_aranges
                0x00000300       0x20 gloss/CMakeFiles/freedom_metal.dir/sys_open.c.o
 .debug_aranges
                0x00000320       0x20 gloss/CMakeFiles/freedom_metal.dir/sys_openat.c.o
 .debug_aranges
                0x00000340       0x20 gloss/CMakeFiles/freedom_metal.dir/sys_read.c.o
 .debug_aranges
                0x00000360       0x20 gloss/CMakeFiles/freedom_metal.dir/sys_sbrk.c.o
 .debug_aranges
                0x00000380       0x20 gloss/CMakeFiles/freedom_metal.dir/sys_sysconf.c.o
 .debug_aranges
                0x000003a0       0x20 gloss/CMakeFiles/freedom_metal.dir/sys_times.c.o
 .debug_aranges
                0x000003c0       0x20 gloss/CMakeFiles/freedom_metal.dir/sys_unlink.c.o
 .debug_aranges
                0x000003e0       0x20 gloss/CMakeFiles/freedom_metal.dir/sys_utime.c.o
 .debug_aranges
                0x00000400       0x20 gloss/CMakeFiles/freedom_metal.dir/sys_wait.c.o
 .debug_aranges
                0x00000420       0x20 gloss/CMakeFiles/freedom_metal.dir/sys_write.c.o
 .debug_aranges
                0x00000440       0x20 build/drivers/uart/CMakeFiles/uart.dir/uart.c.o
 .debug_aranges
                0x00000460       0x20 build/drivers/pcie/CMakeFiles/pcie.dir/pcie_ep.c.o
 .debug_aranges
                0x00000480       0x20 build/drivers/pcie/CMakeFiles/pcie.dir/pcie_dw.c.o
 .debug_aranges
                0x000004a0       0x20 build/drivers/pcie/CMakeFiles/pcie.dir/pcie_snps_phy.c.o
 .debug_aranges
                0x000004c0       0x20 build/drivers/pcie/CMakeFiles/pcie.dir/pcie_dw_hdma.c.o
 .debug_aranges
                0x000004e0       0x20 build/drivers/pcie/CMakeFiles/pcie.dir/pcie_irq.c.o
 .debug_aranges
                0x00000500       0x20 build/drivers/pcie/CMakeFiles/pcie.dir/pcie_dw_iatu.c.o
 .debug_aranges
                0x00000520       0x20 build/drivers/pcie/CMakeFiles/pcie.dir/pcie_dw_bar.c.o
 .debug_aranges
                0x00000540       0x20 build/drivers/pcie/CMakeFiles/pcie.dir/pcie_dw_msix.c.o
 .debug_aranges
                0x00000560       0x20 build/drivers/pcie/CMakeFiles/pcie.dir/pcie_subctrl.c.o
 .debug_aranges
                0x00000580       0x20 build/drivers/pcie/CMakeFiles/pcie.dir/pcie_doe.c.o
 .debug_aranges
                0x000005a0       0x20 build/drivers/pcie/CMakeFiles/pcie.dir/pcie_dw_ide.c.o
 .debug_aranges
                0x000005c0       0x20 build/drivers/pcie/CMakeFiles/pcie.dir/pcie_sysreg.c.o
 .debug_aranges
                0x000005e0       0x20 build/drivers/mailbox/CMakeFiles/mailbox.dir/mailbox.c.o
 .debug_aranges
                0x00000600       0x20 build/drivers/mailbox/CMakeFiles/mailbox.dir/mailbox_cb.c.o
 .debug_aranges
                0x00000620       0x20 build/drivers/pmu/CMakeFiles/pmu.dir/pmu.c.o
 .debug_aranges
                0x00000640       0x20 build/drivers/pvt_con/CMakeFiles/pvt_con.dir/pvt_con.c.o
 .debug_aranges
                0x00000660       0x20 build/drivers/watchdog/CMakeFiles/watchdog.dir/dw_apb_wdt.c.o
 .debug_aranges
                0x00000680       0x20 build/tests/common/CMakeFiles/test_common.dir/test_mailbox_cb.c.o
 .debug_aranges
                0x000006a0       0x20 build/tests/interrupt_test_helper_example/CMakeFiles/interrupt_test_helper_example.dir/example_test.c.o
 .debug_aranges
                0x000006c0       0x20 build/tests/interrupt_test_helper_example/CMakeFiles/interrupt_test_helper_example.dir/example_driver.c.o
 .debug_aranges
                0x000006e0       0x20 build/tests/arch/CMakeFiles/test_arch.dir/test_cli.c.o
 .debug_aranges
                0x00000700       0x20 build/tests/pcie/CMakeFiles/pcie_test.dir/test_pcie_main.c.o
 .debug_aranges
                0x00000720       0x20 build/tests/pcie/CMakeFiles/pcie_test.dir/test_pcie_msix.c.o
 .debug_aranges
                0x00000740       0x20 build/tests/pcie/CMakeFiles/pcie_test.dir/test_pcie_hdma.c.o
 .debug_aranges
                0x00000760       0x20 build/tests/pcie/CMakeFiles/pcie_test.dir/test_pcie_capability.c.o
 .debug_aranges
                0x00000780       0x20 build/tests/pcie/CMakeFiles/pcie_test.dir/test_pcie_mode.c.o
 .debug_aranges
                0x000007a0       0x20 build/tests/pcie/CMakeFiles/pcie_test.dir/test_pcie_iatu.c.o
 .debug_aranges
                0x000007c0       0x20 build/tests/pcie/CMakeFiles/pcie_test.dir/test_pcie_history_store.c.o
 .debug_aranges
                0x000007e0       0x20 build/tests/pcie/CMakeFiles/pcie_test.dir/test_pcie_doe.c.o
 .debug_aranges
                0x00000800       0x20 build/tests/pcie/CMakeFiles/pcie_test.dir/test_pcie_ide.c.o
 .debug_aranges
                0x00000820       0x20 build/tests/pcie/CMakeFiles/pcie_test.dir/test_pcie_ide_scenario.c.o
 .debug_aranges
                0x00000840       0x20 build/tests/pcie/CMakeFiles/pcie_test.dir/test_pcie_rasdp.c.o
 .debug_aranges
                0x00000860       0x20 build/tests/pcie/CMakeFiles/pcie_test.dir/test_pcie_rasdes.c.o
 .debug_aranges
                0x00000880       0x20 build/tests/pcie/CMakeFiles/pcie_test.dir/test_pcie_epf.c.o
 .debug_aranges
                0x000008a0       0x20 build/tests/mailbox/CMakeFiles/mailbox_test.dir/test_mailbox_main.c.o
 .debug_aranges
                0x000008c0       0x20 build/tests/arch/arm/CMakeFiles/test_arm.dir/test_cm7.c.o
 .debug_aranges
                0x000008e0       0x20 build/tests/log/CMakeFiles/show_log.dir/rebel_h_log.c.o
 .debug_aranges
                0x00000900       0x20 build/tests/interrupt_test/CMakeFiles/test_irq.dir/test_m7_irq.c.o
 .debug_aranges
                0x00000920       0x20 build/tests/pvt_con/CMakeFiles/pvt_cli.dir/pvt_cli.c.o
 .debug_aranges
                0x00000940       0x20 build/tests/pvt_con/CMakeFiles/pvt_cli.dir/pvt_cli_show.c.o
 .debug_aranges
                0x00000960       0x20 build/tests/pvt_con/CMakeFiles/pvt_cli.dir/pvt_cli_enable.c.o
 .debug_aranges
                0x00000980       0x20 build/tests/pvt_con/CMakeFiles/pvt_cli.dir/pvt_cli_disable.c.o
 .debug_aranges
                0x000009a0       0x20 build/tests/pvt_con/CMakeFiles/pvt_cli.dir/pvt_cli_set.c.o
 .debug_aranges
                0x000009c0      0x158 libfreertos_kernel.a(queue.c.o)
 .debug_aranges
                0x00000b18      0x1d8 libfreertos_kernel.a(tasks.c.o)
 .debug_aranges
                0x00000cf0      0x100 libfreertos_kernel.a(timers.c.o)
 .debug_aranges
                0x00000df0       0x60 libfreertos_kernel.a(heap_4.c.o)
 .debug_aranges
                0x00000e50       0x40 libfreertos_kernel.a(list.c.o)
 .debug_aranges
                0x00000e90       0x20 portable/libfreertos_kernel_port.a(system_rebelh_cm7.c.o)
 .debug_aranges
                0x00000eb0       0x38 portable/libfreertos_kernel_port.a(port.c.o)
 .debug_aranges
                0x00000ee8       0x20 build/drivers/common/libdriver.a(driver.c.o)
 .debug_aranges
                0x00000f08       0x20 build/drivers/common/libassert.a(assert.c.o)
 .debug_aranges
                0x00000f28       0x20 build/drivers/common/libinterrupt.a(interrupt.c.o)
 .debug_aranges
                0x00000f48       0x20 build/drivers/bat/libbat.a(bat.c.o)
 .debug_aranges
                0x00000f68       0x20 services/cli_service/libcli_service.a(cli_task.c.o)
 .debug_aranges
                0x00000f88       0x20 services/cli_service/libcli_service.a(sys_command_line.c.o)
 .debug_aranges
                0x00000fa8       0x20 services/terminal_service/libterminal_service.a(console_uart.c.o)
 .debug_aranges
                0x00000fc8       0x20 services/terminal_service/libterminal_service.a(console.c.o)
 .debug_aranges
                0x00000fe8       0x20 services/terminal_service/libterminal_service.a(terminal_task.c.o)
 .debug_aranges
                0x00001008       0x20 build/unity/libunity.a(unity.c.o)
 .debug_aranges
                0x00001028       0x20 build/unity/libunity.a(unity_fixture.c.o)
 .debug_aranges
                0x00001048       0x20 build/interrupt_test_helper/libinterrupt_test_helper.a(interrupt_test_helper.c.o)
 .debug_aranges
                0x00001068       0x88 libfreertos_kernel.a(event_groups.c.o)
 .debug_aranges
                0x000010f0       0xd8 libfreertos_kernel.a(stream_buffer.c.o)
 .debug_aranges
                0x000011c8       0x20 build/common/arch/libcommon.a(printf.c.o)
 .debug_aranges
                0x000011e8       0x20 build/common/arch/libcommon.a(system_api.c.o)

.debug_line     0x00000000    0x1a86a
 .debug_line    0x00000000      0x40b CMakeFiles/freertos_kernel.elf.dir/main_cm7.c.o
 .debug_line    0x0000040b      0x189 gloss/CMakeFiles/freedom_metal.dir/freedom_metal.c.o
 .debug_line    0x00000594      0x179 gloss/CMakeFiles/freedom_metal.dir/nanosleep.c.o
 .debug_line    0x0000070d       0xf3 gloss/CMakeFiles/freedom_metal.dir/sys_access.c.o
 .debug_line    0x00000800       0xf2 gloss/CMakeFiles/freedom_metal.dir/sys_chdir.c.o
 .debug_line    0x000008f2      0x173 gloss/CMakeFiles/freedom_metal.dir/sys_chmod.c.o
 .debug_line    0x00000a65      0x109 gloss/CMakeFiles/freedom_metal.dir/sys_chown.c.o
 .debug_line    0x00000b6e      0x218 gloss/CMakeFiles/freedom_metal.dir/sys_clock_gettime.c.o
 .debug_line    0x00000d86       0xf2 gloss/CMakeFiles/freedom_metal.dir/sys_close.c.o
 .debug_line    0x00000e78       0xf3 gloss/CMakeFiles/freedom_metal.dir/sys_execve.c.o
 .debug_line    0x00000f6b       0xe9 gloss/CMakeFiles/freedom_metal.dir/sys_exit.c.o
 .debug_line    0x00001054       0xf6 gloss/CMakeFiles/freedom_metal.dir/sys_faccessat.c.o
 .debug_line    0x0000114a       0xf1 gloss/CMakeFiles/freedom_metal.dir/sys_fork.c.o
 .debug_line    0x0000123b      0x19a gloss/CMakeFiles/freedom_metal.dir/sys_fstat.c.o
 .debug_line    0x000013d5      0x19c gloss/CMakeFiles/freedom_metal.dir/sys_fstatat.c.o
 .debug_line    0x00001571      0x175 gloss/CMakeFiles/freedom_metal.dir/sys_ftime.c.o
 .debug_line    0x000016e6      0x15c gloss/CMakeFiles/freedom_metal.dir/sys_getcwd.c.o
 .debug_line    0x00001842       0x95 gloss/CMakeFiles/freedom_metal.dir/sys_getpid.c.o
 .debug_line    0x000018d7      0x1ed gloss/CMakeFiles/freedom_metal.dir/sys_gettimeofday.c.o
 .debug_line    0x00001ac4       0x8c gloss/CMakeFiles/freedom_metal.dir/sys_isatty.c.o
 .debug_line    0x00001b50       0xf1 gloss/CMakeFiles/freedom_metal.dir/sys_kill.c.o
 .debug_line    0x00001c41       0xf1 gloss/CMakeFiles/freedom_metal.dir/sys_link.c.o
 .debug_line    0x00001d32      0x109 gloss/CMakeFiles/freedom_metal.dir/sys_lseek.c.o
 .debug_line    0x00001e3b      0x19a gloss/CMakeFiles/freedom_metal.dir/sys_lstat.c.o
 .debug_line    0x00001fd5       0xf1 gloss/CMakeFiles/freedom_metal.dir/sys_open.c.o
 .debug_line    0x000020c6       0xf3 gloss/CMakeFiles/freedom_metal.dir/sys_openat.c.o
 .debug_line    0x000021b9      0x171 gloss/CMakeFiles/freedom_metal.dir/sys_read.c.o
 .debug_line    0x0000232a      0x17b gloss/CMakeFiles/freedom_metal.dir/sys_sbrk.c.o
 .debug_line    0x000024a5       0x93 gloss/CMakeFiles/freedom_metal.dir/sys_sysconf.c.o
 .debug_line    0x00002538      0x18f gloss/CMakeFiles/freedom_metal.dir/sys_times.c.o
 .debug_line    0x000026c7       0xf3 gloss/CMakeFiles/freedom_metal.dir/sys_unlink.c.o
 .debug_line    0x000027ba       0xf2 gloss/CMakeFiles/freedom_metal.dir/sys_utime.c.o
 .debug_line    0x000028ac       0xf1 gloss/CMakeFiles/freedom_metal.dir/sys_wait.c.o
 .debug_line    0x0000299d      0x1f2 gloss/CMakeFiles/freedom_metal.dir/sys_write.c.o
 .debug_line    0x00002b8f      0x519 build/drivers/uart/CMakeFiles/uart.dir/uart.c.o
 .debug_line    0x000030a8      0x6cd build/drivers/pcie/CMakeFiles/pcie.dir/pcie_ep.c.o
 .debug_line    0x00003775      0x754 build/drivers/pcie/CMakeFiles/pcie.dir/pcie_dw.c.o
 .debug_line    0x00003ec9      0x3a6 build/drivers/pcie/CMakeFiles/pcie.dir/pcie_snps_phy.c.o
 .debug_line    0x0000426f      0x5c2 build/drivers/pcie/CMakeFiles/pcie.dir/pcie_dw_hdma.c.o
 .debug_line    0x00004831      0x796 build/drivers/pcie/CMakeFiles/pcie.dir/pcie_irq.c.o
 .debug_line    0x00004fc7      0x7c3 build/drivers/pcie/CMakeFiles/pcie.dir/pcie_dw_iatu.c.o
 .debug_line    0x0000578a      0x607 build/drivers/pcie/CMakeFiles/pcie.dir/pcie_dw_bar.c.o
 .debug_line    0x00005d91      0x3c7 build/drivers/pcie/CMakeFiles/pcie.dir/pcie_dw_msix.c.o
 .debug_line    0x00006158      0x6fd build/drivers/pcie/CMakeFiles/pcie.dir/pcie_subctrl.c.o
 .debug_line    0x00006855      0x3a6 build/drivers/pcie/CMakeFiles/pcie.dir/pcie_doe.c.o
 .debug_line    0x00006bfb      0x396 build/drivers/pcie/CMakeFiles/pcie.dir/pcie_dw_ide.c.o
 .debug_line    0x00006f91      0x43f build/drivers/pcie/CMakeFiles/pcie.dir/pcie_sysreg.c.o
 .debug_line    0x000073d0      0x4c7 build/drivers/mailbox/CMakeFiles/mailbox.dir/mailbox.c.o
 .debug_line    0x00007897      0x236 build/drivers/mailbox/CMakeFiles/mailbox.dir/mailbox_cb.c.o
 .debug_line    0x00007acd      0x2b6 build/drivers/pmu/CMakeFiles/pmu.dir/pmu.c.o
 .debug_line    0x00007d83      0x8f6 build/drivers/pvt_con/CMakeFiles/pvt_con.dir/pvt_con.c.o
 .debug_line    0x00008679      0x236 build/drivers/watchdog/CMakeFiles/watchdog.dir/dw_apb_wdt.c.o
 .debug_line    0x000088af      0x288 build/tests/common/CMakeFiles/test_common.dir/test_mailbox_cb.c.o
 .debug_line    0x00008b37      0x41e build/tests/interrupt_test_helper_example/CMakeFiles/interrupt_test_helper_example.dir/example_test.c.o
 .debug_line    0x00008f55       0xbe build/tests/interrupt_test_helper_example/CMakeFiles/interrupt_test_helper_example.dir/example_driver.c.o
 .debug_line    0x00009013      0x303 build/tests/arch/CMakeFiles/test_arch.dir/test_cli.c.o
 .debug_line    0x00009316      0x568 build/tests/pcie/CMakeFiles/pcie_test.dir/test_pcie_main.c.o
 .debug_line    0x0000987e      0x7dc build/tests/pcie/CMakeFiles/pcie_test.dir/test_pcie_msix.c.o
 .debug_line    0x0000a05a      0x814 build/tests/pcie/CMakeFiles/pcie_test.dir/test_pcie_hdma.c.o
 .debug_line    0x0000a86e      0x376 build/tests/pcie/CMakeFiles/pcie_test.dir/test_pcie_capability.c.o
 .debug_line    0x0000abe4      0x671 build/tests/pcie/CMakeFiles/pcie_test.dir/test_pcie_mode.c.o
 .debug_line    0x0000b255      0x7f3 build/tests/pcie/CMakeFiles/pcie_test.dir/test_pcie_iatu.c.o
 .debug_line    0x0000ba48      0x80d build/tests/pcie/CMakeFiles/pcie_test.dir/test_pcie_history_store.c.o
 .debug_line    0x0000c255      0x6ad build/tests/pcie/CMakeFiles/pcie_test.dir/test_pcie_doe.c.o
 .debug_line    0x0000c902      0x36c build/tests/pcie/CMakeFiles/pcie_test.dir/test_pcie_ide.c.o
 .debug_line    0x0000cc6e      0x6cf build/tests/pcie/CMakeFiles/pcie_test.dir/test_pcie_ide_scenario.c.o
 .debug_line    0x0000d33d      0x3b2 build/tests/pcie/CMakeFiles/pcie_test.dir/test_pcie_rasdp.c.o
 .debug_line    0x0000d6ef      0x7c5 build/tests/pcie/CMakeFiles/pcie_test.dir/test_pcie_rasdes.c.o
 .debug_line    0x0000deb4      0xa46 build/tests/pcie/CMakeFiles/pcie_test.dir/test_pcie_epf.c.o
 .debug_line    0x0000e8fa      0x419 build/tests/mailbox/CMakeFiles/mailbox_test.dir/test_mailbox_main.c.o
 .debug_line    0x0000ed13      0x29a build/tests/arch/arm/CMakeFiles/test_arm.dir/test_cm7.c.o
 .debug_line    0x0000efad      0x389 build/tests/log/CMakeFiles/show_log.dir/rebel_h_log.c.o
 .debug_line    0x0000f336      0x316 build/tests/interrupt_test/CMakeFiles/test_irq.dir/test_m7_irq.c.o
 .debug_line    0x0000f64c      0x47c build/tests/pvt_con/CMakeFiles/pvt_cli.dir/pvt_cli.c.o
 .debug_line    0x0000fac8      0x79a build/tests/pvt_con/CMakeFiles/pvt_cli.dir/pvt_cli_show.c.o
 .debug_line    0x00010262      0x2c5 build/tests/pvt_con/CMakeFiles/pvt_cli.dir/pvt_cli_enable.c.o
 .debug_line    0x00010527      0x2a2 build/tests/pvt_con/CMakeFiles/pvt_cli.dir/pvt_cli_disable.c.o
 .debug_line    0x000107c9      0x23d build/tests/pvt_con/CMakeFiles/pvt_cli.dir/pvt_cli_set.c.o
 .debug_line    0x00010a06     0x1180 libfreertos_kernel.a(queue.c.o)
 .debug_line    0x00011b86     0x14ed libfreertos_kernel.a(tasks.c.o)
 .debug_line    0x00013073      0x860 libfreertos_kernel.a(timers.c.o)
 .debug_line    0x000138d3      0x6c7 libfreertos_kernel.a(heap_4.c.o)
 .debug_line    0x00013f9a      0x2d8 libfreertos_kernel.a(list.c.o)
 .debug_line    0x00014272      0x60e portable/libfreertos_kernel_port.a(system_rebelh_cm7.c.o)
 .debug_line    0x00014880      0x4dd portable/libfreertos_kernel_port.a(port.c.o)
 .debug_line    0x00014d5d      0x13f build/drivers/common/libdriver.a(driver.c.o)
 .debug_line    0x00014e9c      0x281 build/drivers/common/libassert.a(assert.c.o)
 .debug_line    0x0001511d      0x368 build/drivers/common/libinterrupt.a(interrupt.c.o)
 .debug_line    0x00015485      0x17b build/drivers/bat/libbat.a(bat.c.o)
 .debug_line    0x00015600      0x35b services/cli_service/libcli_service.a(cli_task.c.o)
 .debug_line    0x0001595b      0xa23 services/cli_service/libcli_service.a(sys_command_line.c.o)
 .debug_line    0x0001637e      0x26e services/terminal_service/libterminal_service.a(console_uart.c.o)
 .debug_line    0x000165ec      0x4c6 services/terminal_service/libterminal_service.a(console.c.o)
 .debug_line    0x00016ab2      0x5da services/terminal_service/libterminal_service.a(terminal_task.c.o)
 .debug_line    0x0001708c      0xf95 build/unity/libunity.a(unity.c.o)
 .debug_line    0x00018021      0x422 build/unity/libunity.a(unity_fixture.c.o)
 .debug_line    0x00018443      0x401 build/interrupt_test_helper/libinterrupt_test_helper.a(interrupt_test_helper.c.o)
 .debug_line    0x00018844      0x67f libfreertos_kernel.a(event_groups.c.o)
 .debug_line    0x00018ec3      0xaa7 libfreertos_kernel.a(stream_buffer.c.o)
 .debug_line    0x0001996a      0xc53 build/common/arch/libcommon.a(printf.c.o)
 .debug_line    0x0001a5bd      0x2ad build/common/arch/libcommon.a(system_api.c.o)

.debug_str      0x00000000    0x4f90c
 .debug_str     0x00000000    0x4f90c CMakeFiles/freertos_kernel.elf.dir/main_cm7.c.o
                                0x396 (size before relaxing)
 .debug_str     0x0004f90c      0x267 gloss/CMakeFiles/freedom_metal.dir/freedom_metal.c.o
 .debug_str     0x0004f90c      0x1f0 gloss/CMakeFiles/freedom_metal.dir/nanosleep.c.o
 .debug_str     0x0004f90c      0x1c0 gloss/CMakeFiles/freedom_metal.dir/sys_access.c.o
 .debug_str     0x0004f90c      0x1b9 gloss/CMakeFiles/freedom_metal.dir/sys_chdir.c.o
 .debug_str     0x0004f90c      0x1d9 gloss/CMakeFiles/freedom_metal.dir/sys_chmod.c.o
 .debug_str     0x0004f90c      0x1e1 gloss/CMakeFiles/freedom_metal.dir/sys_chown.c.o
 .debug_str     0x0004f90c      0x22a gloss/CMakeFiles/freedom_metal.dir/sys_clock_gettime.c.o
 .debug_str     0x0004f90c      0x1b9 gloss/CMakeFiles/freedom_metal.dir/sys_close.c.o
 .debug_str     0x0004f90c      0x1c0 gloss/CMakeFiles/freedom_metal.dir/sys_execve.c.o
 .debug_str     0x0004f90c      0x1c5 gloss/CMakeFiles/freedom_metal.dir/sys_exit.c.o
 .debug_str     0x0004f90c      0x1d2 gloss/CMakeFiles/freedom_metal.dir/sys_faccessat.c.o
 .debug_str     0x0004f90c      0x1b2 gloss/CMakeFiles/freedom_metal.dir/sys_fork.c.o
 .debug_str     0x0004f90c      0x305 gloss/CMakeFiles/freedom_metal.dir/sys_fstat.c.o
 .debug_str     0x0004f90c      0x315 gloss/CMakeFiles/freedom_metal.dir/sys_fstatat.c.o
 .debug_str     0x0004f90c      0x1ef gloss/CMakeFiles/freedom_metal.dir/sys_ftime.c.o
 .debug_str     0x0004f90c      0x1c2 gloss/CMakeFiles/freedom_metal.dir/sys_getcwd.c.o
 .debug_str     0x0004f90c      0x1c0 gloss/CMakeFiles/freedom_metal.dir/sys_getpid.c.o
 .debug_str     0x0004f90c      0x249 gloss/CMakeFiles/freedom_metal.dir/sys_gettimeofday.c.o
 .debug_str     0x0004f90c      0x1b3 gloss/CMakeFiles/freedom_metal.dir/sys_isatty.c.o
 .debug_str     0x0004f90c      0x1b2 gloss/CMakeFiles/freedom_metal.dir/sys_kill.c.o
 .debug_str     0x0004f90c      0x1c4 gloss/CMakeFiles/freedom_metal.dir/sys_link.c.o
 .debug_str     0x0004f90c      0x1ce gloss/CMakeFiles/freedom_metal.dir/sys_lseek.c.o
 .debug_str     0x0004f90c      0x305 gloss/CMakeFiles/freedom_metal.dir/sys_lstat.c.o
 .debug_str     0x0004f90c      0x1c2 gloss/CMakeFiles/freedom_metal.dir/sys_open.c.o
 .debug_str     0x0004f90c      0x1cc gloss/CMakeFiles/freedom_metal.dir/sys_openat.c.o
 .debug_str     0x0004f90c      0x1cf gloss/CMakeFiles/freedom_metal.dir/sys_read.c.o
 .debug_str     0x0004f90c      0x217 gloss/CMakeFiles/freedom_metal.dir/sys_sbrk.c.o
 .debug_str     0x0004f90c      0x1b5 gloss/CMakeFiles/freedom_metal.dir/sys_sysconf.c.o
 .debug_str     0x0004f90c      0x250 gloss/CMakeFiles/freedom_metal.dir/sys_times.c.o
 .debug_str     0x0004f90c      0x1bb gloss/CMakeFiles/freedom_metal.dir/sys_unlink.c.o
 .debug_str     0x0004f90c      0x1c7 gloss/CMakeFiles/freedom_metal.dir/sys_utime.c.o
 .debug_str     0x0004f90c      0x1b9 gloss/CMakeFiles/freedom_metal.dir/sys_wait.c.o
 .debug_str     0x0004f90c      0x1e5 gloss/CMakeFiles/freedom_metal.dir/sys_write.c.o
 .debug_str     0x0004f90c      0x5a3 build/drivers/uart/CMakeFiles/uart.dir/uart.c.o
 .debug_str     0x0004f90c    0x65ab0 build/drivers/pcie/CMakeFiles/pcie.dir/pcie_ep.c.o
 .debug_str     0x0004f90c    0x392b1 build/drivers/pcie/CMakeFiles/pcie.dir/pcie_dw.c.o
 .debug_str     0x0004f90c    0x38de0 build/drivers/pcie/CMakeFiles/pcie.dir/pcie_snps_phy.c.o
 .debug_str     0x0004f90c    0x3929e build/drivers/pcie/CMakeFiles/pcie.dir/pcie_dw_hdma.c.o
 .debug_str     0x0004f90c    0x39463 build/drivers/pcie/CMakeFiles/pcie.dir/pcie_irq.c.o
 .debug_str     0x0004f90c    0x39233 build/drivers/pcie/CMakeFiles/pcie.dir/pcie_dw_iatu.c.o
 .debug_str     0x0004f90c    0x39098 build/drivers/pcie/CMakeFiles/pcie.dir/pcie_dw_bar.c.o
 .debug_str     0x0004f90c    0x38f09 build/drivers/pcie/CMakeFiles/pcie.dir/pcie_dw_msix.c.o
 .debug_str     0x0004f90c    0x39056 build/drivers/pcie/CMakeFiles/pcie.dir/pcie_subctrl.c.o
 .debug_str     0x0004f90c    0x39126 build/drivers/pcie/CMakeFiles/pcie.dir/pcie_doe.c.o
 .debug_str     0x0004f90c    0x39176 build/drivers/pcie/CMakeFiles/pcie.dir/pcie_dw_ide.c.o
 .debug_str     0x0004f90c    0x3a1e3 build/drivers/pcie/CMakeFiles/pcie.dir/pcie_sysreg.c.o
 .debug_str     0x0004f90c      0xf46 build/drivers/mailbox/CMakeFiles/mailbox.dir/mailbox.c.o
 .debug_str     0x0004f90c      0x25e build/drivers/mailbox/CMakeFiles/mailbox.dir/mailbox_cb.c.o
 .debug_str     0x0004f90c    0x28a0a build/drivers/pmu/CMakeFiles/pmu.dir/pmu.c.o
 .debug_str     0x0004f90c     0x127e build/drivers/pvt_con/CMakeFiles/pvt_con.dir/pvt_con.c.o
 .debug_str     0x0004f90c      0x6a4 build/drivers/watchdog/CMakeFiles/watchdog.dir/dw_apb_wdt.c.o
 .debug_str     0x0004f90c      0x2c1 build/tests/common/CMakeFiles/test_common.dir/test_mailbox_cb.c.o
 .debug_str     0x0004f90c      0x899 build/tests/interrupt_test_helper_example/CMakeFiles/interrupt_test_helper_example.dir/example_test.c.o
 .debug_str     0x0004f90c      0x24b build/tests/interrupt_test_helper_example/CMakeFiles/interrupt_test_helper_example.dir/example_driver.c.o
 .debug_str     0x0004f90c      0x29e build/tests/arch/CMakeFiles/test_arch.dir/test_cli.c.o
 .debug_str     0x0004f90c      0x63a build/tests/pcie/CMakeFiles/pcie_test.dir/test_pcie_main.c.o
 .debug_str     0x0004f90c    0x3992c build/tests/pcie/CMakeFiles/pcie_test.dir/test_pcie_msix.c.o
 .debug_str     0x0004f90c    0x393bc build/tests/pcie/CMakeFiles/pcie_test.dir/test_pcie_hdma.c.o
 .debug_str     0x0004f90c    0x38ecb build/tests/pcie/CMakeFiles/pcie_test.dir/test_pcie_capability.c.o
 .debug_str     0x0004f90c    0x396d2 build/tests/pcie/CMakeFiles/pcie_test.dir/test_pcie_mode.c.o
 .debug_str     0x0004f90c    0x39687 build/tests/pcie/CMakeFiles/pcie_test.dir/test_pcie_iatu.c.o
 .debug_str     0x0004f90c    0x3903e build/tests/pcie/CMakeFiles/pcie_test.dir/test_pcie_history_store.c.o
 .debug_str     0x0004f90c    0x3949f build/tests/pcie/CMakeFiles/pcie_test.dir/test_pcie_doe.c.o
 .debug_str     0x0004f90c    0x38e87 build/tests/pcie/CMakeFiles/pcie_test.dir/test_pcie_ide.c.o
 .debug_str     0x0004f90c    0x39641 build/tests/pcie/CMakeFiles/pcie_test.dir/test_pcie_ide_scenario.c.o
 .debug_str     0x0004f90c    0x38ed4 build/tests/pcie/CMakeFiles/pcie_test.dir/test_pcie_rasdp.c.o
 .debug_str     0x0004f90c    0x39323 build/tests/pcie/CMakeFiles/pcie_test.dir/test_pcie_rasdes.c.o
 .debug_str     0x0004f90c    0x39769 build/tests/pcie/CMakeFiles/pcie_test.dir/test_pcie_epf.c.o
 .debug_str     0x0004f90c      0x545 build/tests/mailbox/CMakeFiles/mailbox_test.dir/test_mailbox_main.c.o
 .debug_str     0x0004f90c      0x2b7 build/tests/arch/arm/CMakeFiles/test_arm.dir/test_cm7.c.o
 .debug_str     0x0004f90c      0x3c9 build/tests/log/CMakeFiles/show_log.dir/rebel_h_log.c.o
 .debug_str     0x0004f90c      0x2b1 build/tests/interrupt_test/CMakeFiles/test_irq.dir/test_m7_irq.c.o
 .debug_str     0x0004f90c      0x3f7 build/tests/pvt_con/CMakeFiles/pvt_cli.dir/pvt_cli.c.o
 .debug_str     0x0004f90c      0xe9b build/tests/pvt_con/CMakeFiles/pvt_cli.dir/pvt_cli_show.c.o
 .debug_str     0x0004f90c      0xd6e build/tests/pvt_con/CMakeFiles/pvt_cli.dir/pvt_cli_enable.c.o
 .debug_str     0x0004f90c      0xd74 build/tests/pvt_con/CMakeFiles/pvt_cli.dir/pvt_cli_disable.c.o
 .debug_str     0x0004f90c      0xd52 build/tests/pvt_con/CMakeFiles/pvt_cli.dir/pvt_cli_set.c.o
 .debug_str     0x0004f90c      0xc13 libfreertos_kernel.a(queue.c.o)
 .debug_str     0x0004f90c     0x148b libfreertos_kernel.a(tasks.c.o)
 .debug_str     0x0004f90c      0xa04 libfreertos_kernel.a(timers.c.o)
 .debug_str     0x0004f90c      0x527 libfreertos_kernel.a(heap_4.c.o)
 .debug_str     0x0004f90c      0x2e7 libfreertos_kernel.a(list.c.o)
 .debug_str     0x0004f90c      0x535 portable/libfreertos_kernel_port.a(system_rebelh_cm7.c.o)
 .debug_str     0x0004f90c      0x49e portable/libfreertos_kernel_port.a(port.c.o)
 .debug_str     0x0004f90c      0x219 build/drivers/common/libdriver.a(driver.c.o)
 .debug_str     0x0004f90c      0x244 build/drivers/common/libassert.a(assert.c.o)
 .debug_str     0x0004f90c      0x613 build/drivers/common/libinterrupt.a(interrupt.c.o)
 .debug_str     0x0004f90c      0x1ce build/drivers/bat/libbat.a(bat.c.o)
 .debug_str     0x0004f90c      0x3b5 services/cli_service/libcli_service.a(cli_task.c.o)
 .debug_str     0x0004f90c      0x588 services/cli_service/libcli_service.a(sys_command_line.c.o)
 .debug_str     0x0004f90c      0x32e services/terminal_service/libterminal_service.a(console_uart.c.o)
 .debug_str     0x0004f90c      0x38c services/terminal_service/libterminal_service.a(console.c.o)
 .debug_str     0x0004f90c      0x570 services/terminal_service/libterminal_service.a(terminal_task.c.o)
 .debug_str     0x0004f90c      0xdd7 build/unity/libunity.a(unity.c.o)
 .debug_str     0x0004f90c      0x4c6 build/unity/libunity.a(unity_fixture.c.o)
 .debug_str     0x0004f90c      0x660 build/interrupt_test_helper/libinterrupt_test_helper.a(interrupt_test_helper.c.o)
 .debug_str     0x0004f90c      0x70e libfreertos_kernel.a(event_groups.c.o)
 .debug_str     0x0004f90c      0x975 libfreertos_kernel.a(stream_buffer.c.o)
 .debug_str     0x0004f90c      0x3a8 build/common/arch/libcommon.a(printf.c.o)
 .debug_str     0x0004f90c      0x281 build/common/arch/libcommon.a(system_api.c.o)

.comment        0x00000000       0x44
 .comment       0x00000000       0x44 CMakeFiles/freertos_kernel.elf.dir/main_cm7.c.o
                                 0x45 (size before relaxing)
 .comment       0x00000044       0x45 gloss/CMakeFiles/freedom_metal.dir/freedom_metal.c.o
 .comment       0x00000044       0x45 gloss/CMakeFiles/freedom_metal.dir/nanosleep.c.o
 .comment       0x00000044       0x45 gloss/CMakeFiles/freedom_metal.dir/sys_access.c.o
 .comment       0x00000044       0x45 gloss/CMakeFiles/freedom_metal.dir/sys_chdir.c.o
 .comment       0x00000044       0x45 gloss/CMakeFiles/freedom_metal.dir/sys_chmod.c.o
 .comment       0x00000044       0x45 gloss/CMakeFiles/freedom_metal.dir/sys_chown.c.o
 .comment       0x00000044       0x45 gloss/CMakeFiles/freedom_metal.dir/sys_clock_gettime.c.o
 .comment       0x00000044       0x45 gloss/CMakeFiles/freedom_metal.dir/sys_close.c.o
 .comment       0x00000044       0x45 gloss/CMakeFiles/freedom_metal.dir/sys_execve.c.o
 .comment       0x00000044       0x45 gloss/CMakeFiles/freedom_metal.dir/sys_exit.c.o
 .comment       0x00000044       0x45 gloss/CMakeFiles/freedom_metal.dir/sys_faccessat.c.o
 .comment       0x00000044       0x45 gloss/CMakeFiles/freedom_metal.dir/sys_fork.c.o
 .comment       0x00000044       0x45 gloss/CMakeFiles/freedom_metal.dir/sys_fstat.c.o
 .comment       0x00000044       0x45 gloss/CMakeFiles/freedom_metal.dir/sys_fstatat.c.o
 .comment       0x00000044       0x45 gloss/CMakeFiles/freedom_metal.dir/sys_ftime.c.o
 .comment       0x00000044       0x45 gloss/CMakeFiles/freedom_metal.dir/sys_getcwd.c.o
 .comment       0x00000044       0x45 gloss/CMakeFiles/freedom_metal.dir/sys_getpid.c.o
 .comment       0x00000044       0x45 gloss/CMakeFiles/freedom_metal.dir/sys_gettimeofday.c.o
 .comment       0x00000044       0x45 gloss/CMakeFiles/freedom_metal.dir/sys_isatty.c.o
 .comment       0x00000044       0x45 gloss/CMakeFiles/freedom_metal.dir/sys_kill.c.o
 .comment       0x00000044       0x45 gloss/CMakeFiles/freedom_metal.dir/sys_link.c.o
 .comment       0x00000044       0x45 gloss/CMakeFiles/freedom_metal.dir/sys_lseek.c.o
 .comment       0x00000044       0x45 gloss/CMakeFiles/freedom_metal.dir/sys_lstat.c.o
 .comment       0x00000044       0x45 gloss/CMakeFiles/freedom_metal.dir/sys_open.c.o
 .comment       0x00000044       0x45 gloss/CMakeFiles/freedom_metal.dir/sys_openat.c.o
 .comment       0x00000044       0x45 gloss/CMakeFiles/freedom_metal.dir/sys_read.c.o
 .comment       0x00000044       0x45 gloss/CMakeFiles/freedom_metal.dir/sys_sbrk.c.o
 .comment       0x00000044       0x45 gloss/CMakeFiles/freedom_metal.dir/sys_sysconf.c.o
 .comment       0x00000044       0x45 gloss/CMakeFiles/freedom_metal.dir/sys_times.c.o
 .comment       0x00000044       0x45 gloss/CMakeFiles/freedom_metal.dir/sys_unlink.c.o
 .comment       0x00000044       0x45 gloss/CMakeFiles/freedom_metal.dir/sys_utime.c.o
 .comment       0x00000044       0x45 gloss/CMakeFiles/freedom_metal.dir/sys_wait.c.o
 .comment       0x00000044       0x45 gloss/CMakeFiles/freedom_metal.dir/sys_write.c.o
 .comment       0x00000044       0x45 build/drivers/uart/CMakeFiles/uart.dir/uart.c.o
 .comment       0x00000044       0x45 build/drivers/pcie/CMakeFiles/pcie.dir/pcie_ep.c.o
 .comment       0x00000044       0x45 build/drivers/pcie/CMakeFiles/pcie.dir/pcie_dw.c.o
 .comment       0x00000044       0x45 build/drivers/pcie/CMakeFiles/pcie.dir/pcie_snps_phy.c.o
 .comment       0x00000044       0x45 build/drivers/pcie/CMakeFiles/pcie.dir/pcie_dw_hdma.c.o
 .comment       0x00000044       0x45 build/drivers/pcie/CMakeFiles/pcie.dir/pcie_irq.c.o
 .comment       0x00000044       0x45 build/drivers/pcie/CMakeFiles/pcie.dir/pcie_dw_iatu.c.o
 .comment       0x00000044       0x45 build/drivers/pcie/CMakeFiles/pcie.dir/pcie_dw_bar.c.o
 .comment       0x00000044       0x45 build/drivers/pcie/CMakeFiles/pcie.dir/pcie_dw_msix.c.o
 .comment       0x00000044       0x45 build/drivers/pcie/CMakeFiles/pcie.dir/pcie_subctrl.c.o
 .comment       0x00000044       0x45 build/drivers/pcie/CMakeFiles/pcie.dir/pcie_doe.c.o
 .comment       0x00000044       0x45 build/drivers/pcie/CMakeFiles/pcie.dir/pcie_dw_ide.c.o
 .comment       0x00000044       0x45 build/drivers/pcie/CMakeFiles/pcie.dir/pcie_sysreg.c.o
 .comment       0x00000044       0x45 build/drivers/mailbox/CMakeFiles/mailbox.dir/mailbox.c.o
 .comment       0x00000044       0x45 build/drivers/mailbox/CMakeFiles/mailbox.dir/mailbox_cb.c.o
 .comment       0x00000044       0x45 build/drivers/pmu/CMakeFiles/pmu.dir/pmu.c.o
 .comment       0x00000044       0x45 build/drivers/pvt_con/CMakeFiles/pvt_con.dir/pvt_con.c.o
 .comment       0x00000044       0x45 build/drivers/watchdog/CMakeFiles/watchdog.dir/dw_apb_wdt.c.o
 .comment       0x00000044       0x45 build/tests/common/CMakeFiles/test_common.dir/test_mailbox_cb.c.o
 .comment       0x00000044       0x45 build/tests/interrupt_test_helper_example/CMakeFiles/interrupt_test_helper_example.dir/example_test.c.o
 .comment       0x00000044       0x45 build/tests/interrupt_test_helper_example/CMakeFiles/interrupt_test_helper_example.dir/example_driver.c.o
 .comment       0x00000044       0x45 build/tests/arch/CMakeFiles/test_arch.dir/test_cli.c.o
 .comment       0x00000044       0x45 build/tests/pcie/CMakeFiles/pcie_test.dir/test_pcie_main.c.o
 .comment       0x00000044       0x45 build/tests/pcie/CMakeFiles/pcie_test.dir/test_pcie_msix.c.o
 .comment       0x00000044       0x45 build/tests/pcie/CMakeFiles/pcie_test.dir/test_pcie_hdma.c.o
 .comment       0x00000044       0x45 build/tests/pcie/CMakeFiles/pcie_test.dir/test_pcie_capability.c.o
 .comment       0x00000044       0x45 build/tests/pcie/CMakeFiles/pcie_test.dir/test_pcie_mode.c.o
 .comment       0x00000044       0x45 build/tests/pcie/CMakeFiles/pcie_test.dir/test_pcie_iatu.c.o
 .comment       0x00000044       0x45 build/tests/pcie/CMakeFiles/pcie_test.dir/test_pcie_history_store.c.o
 .comment       0x00000044       0x45 build/tests/pcie/CMakeFiles/pcie_test.dir/test_pcie_doe.c.o
 .comment       0x00000044       0x45 build/tests/pcie/CMakeFiles/pcie_test.dir/test_pcie_ide.c.o
 .comment       0x00000044       0x45 build/tests/pcie/CMakeFiles/pcie_test.dir/test_pcie_ide_scenario.c.o
 .comment       0x00000044       0x45 build/tests/pcie/CMakeFiles/pcie_test.dir/test_pcie_rasdp.c.o
 .comment       0x00000044       0x45 build/tests/pcie/CMakeFiles/pcie_test.dir/test_pcie_rasdes.c.o
 .comment       0x00000044       0x45 build/tests/pcie/CMakeFiles/pcie_test.dir/test_pcie_epf.c.o
 .comment       0x00000044       0x45 build/tests/mailbox/CMakeFiles/mailbox_test.dir/test_mailbox_main.c.o
 .comment       0x00000044       0x45 build/tests/arch/arm/CMakeFiles/test_arm.dir/test_cm7.c.o
 .comment       0x00000044       0x45 build/tests/log/CMakeFiles/show_log.dir/rebel_h_log.c.o
 .comment       0x00000044       0x45 build/tests/interrupt_test/CMakeFiles/test_irq.dir/test_m7_irq.c.o
 .comment       0x00000044       0x45 build/tests/pvt_con/CMakeFiles/pvt_cli.dir/pvt_cli.c.o
 .comment       0x00000044       0x45 build/tests/pvt_con/CMakeFiles/pvt_cli.dir/pvt_cli_show.c.o
 .comment       0x00000044       0x45 build/tests/pvt_con/CMakeFiles/pvt_cli.dir/pvt_cli_enable.c.o
 .comment       0x00000044       0x45 build/tests/pvt_con/CMakeFiles/pvt_cli.dir/pvt_cli_disable.c.o
 .comment       0x00000044       0x45 build/tests/pvt_con/CMakeFiles/pvt_cli.dir/pvt_cli_set.c.o
 .comment       0x00000044       0x45 libfreertos_kernel.a(queue.c.o)
 .comment       0x00000044       0x45 libfreertos_kernel.a(tasks.c.o)
 .comment       0x00000044       0x45 libfreertos_kernel.a(timers.c.o)
 .comment       0x00000044       0x45 libfreertos_kernel.a(heap_4.c.o)
 .comment       0x00000044       0x45 libfreertos_kernel.a(list.c.o)
 .comment       0x00000044       0x45 portable/libfreertos_kernel_port.a(system_rebelh_cm7.c.o)
 .comment       0x00000044       0x45 portable/libfreertos_kernel_port.a(port.c.o)
 .comment       0x00000044       0x45 build/drivers/common/libdriver.a(driver.c.o)
 .comment       0x00000044       0x45 build/drivers/common/libassert.a(assert.c.o)
 .comment       0x00000044       0x45 build/drivers/common/libinterrupt.a(interrupt.c.o)
 .comment       0x00000044       0x45 build/drivers/bat/libbat.a(bat.c.o)
 .comment       0x00000044       0x45 services/cli_service/libcli_service.a(cli_task.c.o)
 .comment       0x00000044       0x45 services/cli_service/libcli_service.a(sys_command_line.c.o)
 .comment       0x00000044       0x45 services/terminal_service/libterminal_service.a(console_uart.c.o)
 .comment       0x00000044       0x45 services/terminal_service/libterminal_service.a(console.c.o)
 .comment       0x00000044       0x45 services/terminal_service/libterminal_service.a(terminal_task.c.o)
 .comment       0x00000044       0x45 build/unity/libunity.a(unity.c.o)
 .comment       0x00000044       0x45 build/unity/libunity.a(unity_fixture.c.o)
 .comment       0x00000044       0x45 build/interrupt_test_helper/libinterrupt_test_helper.a(interrupt_test_helper.c.o)
 .comment       0x00000044       0x45 libfreertos_kernel.a(event_groups.c.o)
 .comment       0x00000044       0x45 libfreertos_kernel.a(stream_buffer.c.o)
 .comment       0x00000044       0x45 build/common/arch/libcommon.a(printf.c.o)
 .comment       0x00000044       0x45 build/common/arch/libcommon.a(system_api.c.o)

.ARM.attributes
                0x00000000       0x30
 .ARM.attributes
                0x00000000       0x32 CMakeFiles/freertos_kernel.elf.dir/main_cm7.c.o
 .ARM.attributes
                0x00000032       0x32 gloss/CMakeFiles/freedom_metal.dir/freedom_metal.c.o
 .ARM.attributes
                0x00000064       0x32 gloss/CMakeFiles/freedom_metal.dir/nanosleep.c.o
 .ARM.attributes
                0x00000096       0x32 gloss/CMakeFiles/freedom_metal.dir/sys_access.c.o
 .ARM.attributes
                0x000000c8       0x32 gloss/CMakeFiles/freedom_metal.dir/sys_chdir.c.o
 .ARM.attributes
                0x000000fa       0x32 gloss/CMakeFiles/freedom_metal.dir/sys_chmod.c.o
 .ARM.attributes
                0x0000012c       0x32 gloss/CMakeFiles/freedom_metal.dir/sys_chown.c.o
 .ARM.attributes
                0x0000015e       0x32 gloss/CMakeFiles/freedom_metal.dir/sys_clock_gettime.c.o
 .ARM.attributes
                0x00000190       0x32 gloss/CMakeFiles/freedom_metal.dir/sys_close.c.o
 .ARM.attributes
                0x000001c2       0x32 gloss/CMakeFiles/freedom_metal.dir/sys_execve.c.o
 .ARM.attributes
                0x000001f4       0x32 gloss/CMakeFiles/freedom_metal.dir/sys_exit.c.o
 .ARM.attributes
                0x00000226       0x32 gloss/CMakeFiles/freedom_metal.dir/sys_faccessat.c.o
 .ARM.attributes
                0x00000258       0x32 gloss/CMakeFiles/freedom_metal.dir/sys_fork.c.o
 .ARM.attributes
                0x0000028a       0x32 gloss/CMakeFiles/freedom_metal.dir/sys_fstat.c.o
 .ARM.attributes
                0x000002bc       0x32 gloss/CMakeFiles/freedom_metal.dir/sys_fstatat.c.o
 .ARM.attributes
                0x000002ee       0x32 gloss/CMakeFiles/freedom_metal.dir/sys_ftime.c.o
 .ARM.attributes
                0x00000320       0x32 gloss/CMakeFiles/freedom_metal.dir/sys_getcwd.c.o
 .ARM.attributes
                0x00000352       0x32 gloss/CMakeFiles/freedom_metal.dir/sys_getpid.c.o
 .ARM.attributes
                0x00000384       0x32 gloss/CMakeFiles/freedom_metal.dir/sys_gettimeofday.c.o
 .ARM.attributes
                0x000003b6       0x32 gloss/CMakeFiles/freedom_metal.dir/sys_isatty.c.o
 .ARM.attributes
                0x000003e8       0x32 gloss/CMakeFiles/freedom_metal.dir/sys_kill.c.o
 .ARM.attributes
                0x0000041a       0x32 gloss/CMakeFiles/freedom_metal.dir/sys_link.c.o
 .ARM.attributes
                0x0000044c       0x32 gloss/CMakeFiles/freedom_metal.dir/sys_lseek.c.o
 .ARM.attributes
                0x0000047e       0x32 gloss/CMakeFiles/freedom_metal.dir/sys_lstat.c.o
 .ARM.attributes
                0x000004b0       0x32 gloss/CMakeFiles/freedom_metal.dir/sys_open.c.o
 .ARM.attributes
                0x000004e2       0x32 gloss/CMakeFiles/freedom_metal.dir/sys_openat.c.o
 .ARM.attributes
                0x00000514       0x32 gloss/CMakeFiles/freedom_metal.dir/sys_read.c.o
 .ARM.attributes
                0x00000546       0x32 gloss/CMakeFiles/freedom_metal.dir/sys_sbrk.c.o
 .ARM.attributes
                0x00000578       0x32 gloss/CMakeFiles/freedom_metal.dir/sys_sysconf.c.o
 .ARM.attributes
                0x000005aa       0x32 gloss/CMakeFiles/freedom_metal.dir/sys_times.c.o
 .ARM.attributes
                0x000005dc       0x32 gloss/CMakeFiles/freedom_metal.dir/sys_unlink.c.o
 .ARM.attributes
                0x0000060e       0x32 gloss/CMakeFiles/freedom_metal.dir/sys_utime.c.o
 .ARM.attributes
                0x00000640       0x32 gloss/CMakeFiles/freedom_metal.dir/sys_wait.c.o
 .ARM.attributes
                0x00000672       0x32 gloss/CMakeFiles/freedom_metal.dir/sys_write.c.o
 .ARM.attributes
                0x000006a4       0x32 build/drivers/uart/CMakeFiles/uart.dir/uart.c.o
 .ARM.attributes
                0x000006d6       0x32 build/drivers/pcie/CMakeFiles/pcie.dir/pcie_ep.c.o
 .ARM.attributes
                0x00000708       0x32 build/drivers/pcie/CMakeFiles/pcie.dir/pcie_dw.c.o
 .ARM.attributes
                0x0000073a       0x32 build/drivers/pcie/CMakeFiles/pcie.dir/pcie_snps_phy.c.o
 .ARM.attributes
                0x0000076c       0x32 build/drivers/pcie/CMakeFiles/pcie.dir/pcie_dw_hdma.c.o
 .ARM.attributes
                0x0000079e       0x32 build/drivers/pcie/CMakeFiles/pcie.dir/pcie_irq.c.o
 .ARM.attributes
                0x000007d0       0x32 build/drivers/pcie/CMakeFiles/pcie.dir/pcie_dw_iatu.c.o
 .ARM.attributes
                0x00000802       0x32 build/drivers/pcie/CMakeFiles/pcie.dir/pcie_dw_bar.c.o
 .ARM.attributes
                0x00000834       0x32 build/drivers/pcie/CMakeFiles/pcie.dir/pcie_dw_msix.c.o
 .ARM.attributes
                0x00000866       0x32 build/drivers/pcie/CMakeFiles/pcie.dir/pcie_subctrl.c.o
 .ARM.attributes
                0x00000898       0x32 build/drivers/pcie/CMakeFiles/pcie.dir/pcie_doe.c.o
 .ARM.attributes
                0x000008ca       0x32 build/drivers/pcie/CMakeFiles/pcie.dir/pcie_dw_ide.c.o
 .ARM.attributes
                0x000008fc       0x32 build/drivers/pcie/CMakeFiles/pcie.dir/pcie_sysreg.c.o
 .ARM.attributes
                0x0000092e       0x32 build/drivers/mailbox/CMakeFiles/mailbox.dir/mailbox.c.o
 .ARM.attributes
                0x00000960       0x32 build/drivers/mailbox/CMakeFiles/mailbox.dir/mailbox_cb.c.o
 .ARM.attributes
                0x00000992       0x32 build/drivers/pmu/CMakeFiles/pmu.dir/pmu.c.o
 .ARM.attributes
                0x000009c4       0x32 build/drivers/pvt_con/CMakeFiles/pvt_con.dir/pvt_con.c.o
 .ARM.attributes
                0x000009f6       0x32 build/drivers/watchdog/CMakeFiles/watchdog.dir/dw_apb_wdt.c.o
 .ARM.attributes
                0x00000a28       0x32 build/tests/common/CMakeFiles/test_common.dir/test_mailbox_cb.c.o
 .ARM.attributes
                0x00000a5a       0x32 build/tests/interrupt_test_helper_example/CMakeFiles/interrupt_test_helper_example.dir/example_test.c.o
 .ARM.attributes
                0x00000a8c       0x32 build/tests/interrupt_test_helper_example/CMakeFiles/interrupt_test_helper_example.dir/example_driver.c.o
 .ARM.attributes
                0x00000abe       0x32 build/tests/arch/CMakeFiles/test_arch.dir/test_cli.c.o
 .ARM.attributes
                0x00000af0       0x32 build/tests/pcie/CMakeFiles/pcie_test.dir/test_pcie_main.c.o
 .ARM.attributes
                0x00000b22       0x32 build/tests/pcie/CMakeFiles/pcie_test.dir/test_pcie_msix.c.o
 .ARM.attributes
                0x00000b54       0x32 build/tests/pcie/CMakeFiles/pcie_test.dir/test_pcie_hdma.c.o
 .ARM.attributes
                0x00000b86       0x32 build/tests/pcie/CMakeFiles/pcie_test.dir/test_pcie_capability.c.o
 .ARM.attributes
                0x00000bb8       0x32 build/tests/pcie/CMakeFiles/pcie_test.dir/test_pcie_mode.c.o
 .ARM.attributes
                0x00000bea       0x32 build/tests/pcie/CMakeFiles/pcie_test.dir/test_pcie_iatu.c.o
 .ARM.attributes
                0x00000c1c       0x32 build/tests/pcie/CMakeFiles/pcie_test.dir/test_pcie_history_store.c.o
 .ARM.attributes
                0x00000c4e       0x32 build/tests/pcie/CMakeFiles/pcie_test.dir/test_pcie_doe.c.o
 .ARM.attributes
                0x00000c80       0x32 build/tests/pcie/CMakeFiles/pcie_test.dir/test_pcie_ide.c.o
 .ARM.attributes
                0x00000cb2       0x32 build/tests/pcie/CMakeFiles/pcie_test.dir/test_pcie_ide_scenario.c.o
 .ARM.attributes
                0x00000ce4       0x32 build/tests/pcie/CMakeFiles/pcie_test.dir/test_pcie_rasdp.c.o
 .ARM.attributes
                0x00000d16       0x32 build/tests/pcie/CMakeFiles/pcie_test.dir/test_pcie_rasdes.c.o
 .ARM.attributes
                0x00000d48       0x32 build/tests/pcie/CMakeFiles/pcie_test.dir/test_pcie_epf.c.o
 .ARM.attributes
                0x00000d7a       0x32 build/tests/mailbox/CMakeFiles/mailbox_test.dir/test_mailbox_main.c.o
 .ARM.attributes
                0x00000dac       0x32 build/tests/arch/arm/CMakeFiles/test_arm.dir/test_cm7.c.o
 .ARM.attributes
                0x00000dde       0x32 build/tests/log/CMakeFiles/show_log.dir/rebel_h_log.c.o
 .ARM.attributes
                0x00000e10       0x32 build/tests/interrupt_test/CMakeFiles/test_irq.dir/test_m7_irq.c.o
 .ARM.attributes
                0x00000e42       0x32 build/tests/pvt_con/CMakeFiles/pvt_cli.dir/pvt_cli.c.o
 .ARM.attributes
                0x00000e74       0x32 build/tests/pvt_con/CMakeFiles/pvt_cli.dir/pvt_cli_show.c.o
 .ARM.attributes
                0x00000ea6       0x32 build/tests/pvt_con/CMakeFiles/pvt_cli.dir/pvt_cli_enable.c.o
 .ARM.attributes
                0x00000ed8       0x32 build/tests/pvt_con/CMakeFiles/pvt_cli.dir/pvt_cli_disable.c.o
 .ARM.attributes
                0x00000f0a       0x32 build/tests/pvt_con/CMakeFiles/pvt_cli.dir/pvt_cli_set.c.o
 .ARM.attributes
                0x00000f3c       0x32 libfreertos_kernel.a(queue.c.o)
 .ARM.attributes
                0x00000f6e       0x32 libfreertos_kernel.a(tasks.c.o)
 .ARM.attributes
                0x00000fa0       0x32 libfreertos_kernel.a(timers.c.o)
 .ARM.attributes
                0x00000fd2       0x32 libfreertos_kernel.a(heap_4.c.o)
 .ARM.attributes
                0x00001004       0x32 libfreertos_kernel.a(list.c.o)
 .ARM.attributes
                0x00001036       0x1e portable/libfreertos_kernel_port.a(start.S.o)
 .ARM.attributes
                0x00001054       0x32 portable/libfreertos_kernel_port.a(system_rebelh_cm7.c.o)
 .ARM.attributes
                0x00001086       0x32 portable/libfreertos_kernel_port.a(port.c.o)
 .ARM.attributes
                0x000010b8       0x1e portable/libfreertos_kernel_port.a(fpu.S.o)
 .ARM.attributes
                0x000010d6       0x32 build/drivers/common/libdriver.a(driver.c.o)
 .ARM.attributes
                0x00001108       0x32 build/drivers/common/libassert.a(assert.c.o)
 .ARM.attributes
                0x0000113a       0x32 build/drivers/common/libinterrupt.a(interrupt.c.o)
 .ARM.attributes
                0x0000116c       0x32 build/drivers/bat/libbat.a(bat.c.o)
 .ARM.attributes
                0x0000119e       0x32 services/cli_service/libcli_service.a(cli_task.c.o)
 .ARM.attributes
                0x000011d0       0x32 services/cli_service/libcli_service.a(sys_command_line.c.o)
 .ARM.attributes
                0x00001202       0x32 services/terminal_service/libterminal_service.a(console_uart.c.o)
 .ARM.attributes
                0x00001234       0x32 services/terminal_service/libterminal_service.a(console.c.o)
 .ARM.attributes
                0x00001266       0x32 services/terminal_service/libterminal_service.a(terminal_task.c.o)
 .ARM.attributes
                0x00001298       0x32 build/unity/libunity.a(unity.c.o)
 .ARM.attributes
                0x000012ca       0x32 build/unity/libunity.a(unity_fixture.c.o)
 .ARM.attributes
                0x000012fc       0x32 build/interrupt_test_helper/libinterrupt_test_helper.a(interrupt_test_helper.c.o)
 .ARM.attributes
                0x0000132e       0x32 libfreertos_kernel.a(event_groups.c.o)
 .ARM.attributes
                0x00001360       0x32 libfreertos_kernel.a(stream_buffer.c.o)
 .ARM.attributes
                0x00001392       0x32 build/common/arch/libcommon.a(printf.c.o)
 .ARM.attributes
                0x000013c4       0x32 build/common/arch/libcommon.a(system_api.c.o)
 .ARM.attributes
                0x000013f6       0x20 /tools/arm-gnu-toolchain-13.2.Rel1-x86_64-arm-none-eabi/bin/../lib/gcc/arm-none-eabi/13.2.1/thumb/v7e-m+dp/hard/libgcc.a(_aeabi_uldivmod.o)
 .ARM.attributes
                0x00001416       0x32 /tools/arm-gnu-toolchain-13.2.Rel1-x86_64-arm-none-eabi/bin/../lib/gcc/arm-none-eabi/13.2.1/thumb/v7e-m+dp/hard/libgcc.a(_udivmoddi4.o)
 .ARM.attributes
                0x00001448       0x20 /tools/arm-gnu-toolchain-13.2.Rel1-x86_64-arm-none-eabi/bin/../lib/gcc/arm-none-eabi/13.2.1/thumb/v7e-m+dp/hard/libgcc.a(_dvmd_tls.o)
 .ARM.attributes
                0x00001468       0x32 /tools/arm-gnu-toolchain-13.2.Rel1-x86_64-arm-none-eabi/bin/../lib/gcc/arm-none-eabi/13.2.1/../../../../arm-none-eabi/lib/thumb/v7e-m+dp/hard/libg.a(libc_a-strtol.o)
 .ARM.attributes
                0x0000149a       0x32 /tools/arm-gnu-toolchain-13.2.Rel1-x86_64-arm-none-eabi/bin/../lib/gcc/arm-none-eabi/13.2.1/../../../../arm-none-eabi/lib/thumb/v7e-m+dp/hard/libg.a(libc_a-strtoul.o)
 .ARM.attributes
                0x000014cc       0x32 /tools/arm-gnu-toolchain-13.2.Rel1-x86_64-arm-none-eabi/bin/../lib/gcc/arm-none-eabi/13.2.1/../../../../arm-none-eabi/lib/thumb/v7e-m+dp/hard/libg.a(libc_a-strncmp.o)
 .ARM.attributes
                0x000014fe       0x32 /tools/arm-gnu-toolchain-13.2.Rel1-x86_64-arm-none-eabi/bin/../lib/gcc/arm-none-eabi/13.2.1/../../../../arm-none-eabi/lib/thumb/v7e-m+dp/hard/libg.a(libc_a-strtoll.o)
 .ARM.attributes
                0x00001530       0x32 /tools/arm-gnu-toolchain-13.2.Rel1-x86_64-arm-none-eabi/bin/../lib/gcc/arm-none-eabi/13.2.1/../../../../arm-none-eabi/lib/thumb/v7e-m+dp/hard/libg.a(libc_a-strncpy.o)
 .ARM.attributes
                0x00001562       0x32 /tools/arm-gnu-toolchain-13.2.Rel1-x86_64-arm-none-eabi/bin/../lib/gcc/arm-none-eabi/13.2.1/../../../../arm-none-eabi/lib/thumb/v7e-m+dp/hard/libg.a(libc_a-strtoull.o)
 .ARM.attributes
                0x00001594       0x32 /tools/arm-gnu-toolchain-13.2.Rel1-x86_64-arm-none-eabi/bin/../lib/gcc/arm-none-eabi/13.2.1/../../../../arm-none-eabi/lib/thumb/v7e-m+dp/hard/libg.a(libc_a-strpbrk.o)
 .ARM.attributes
                0x000015c6       0x1c /tools/arm-gnu-toolchain-13.2.Rel1-x86_64-arm-none-eabi/bin/../lib/gcc/arm-none-eabi/13.2.1/../../../../arm-none-eabi/lib/thumb/v7e-m+dp/hard/libg.a(libc_a-strlen.o)
 .ARM.attributes
                0x000015e2       0x32 /tools/arm-gnu-toolchain-13.2.Rel1-x86_64-arm-none-eabi/bin/../lib/gcc/arm-none-eabi/13.2.1/../../../../arm-none-eabi/lib/thumb/v7e-m+dp/hard/libg.a(libc_a-strspn.o)
 .ARM.attributes
                0x00001614       0x32 /tools/arm-gnu-toolchain-13.2.Rel1-x86_64-arm-none-eabi/bin/../lib/gcc/arm-none-eabi/13.2.1/../../../../arm-none-eabi/lib/thumb/v7e-m+dp/hard/libg.a(libc_a-strstr.o)
 .ARM.attributes
                0x00001646       0x32 /tools/arm-gnu-toolchain-13.2.Rel1-x86_64-arm-none-eabi/bin/../lib/gcc/arm-none-eabi/13.2.1/../../../../arm-none-eabi/lib/thumb/v7e-m+dp/hard/libg.a(libc_a-errno.o)
 .ARM.attributes
                0x00001678       0x32 /tools/arm-gnu-toolchain-13.2.Rel1-x86_64-arm-none-eabi/bin/../lib/gcc/arm-none-eabi/13.2.1/../../../../arm-none-eabi/lib/thumb/v7e-m+dp/hard/libg.a(libc_a-time.o)
 .ARM.attributes
                0x000016aa       0x32 /tools/arm-gnu-toolchain-13.2.Rel1-x86_64-arm-none-eabi/bin/../lib/gcc/arm-none-eabi/13.2.1/../../../../arm-none-eabi/lib/thumb/v7e-m+dp/hard/libg.a(libc_a-memcmp.o)
 .ARM.attributes
                0x000016dc       0x32 /tools/arm-gnu-toolchain-13.2.Rel1-x86_64-arm-none-eabi/bin/../lib/gcc/arm-none-eabi/13.2.1/../../../../arm-none-eabi/lib/thumb/v7e-m+dp/hard/libg.a(libc_a-memset.o)
 .ARM.attributes
                0x0000170e       0x1e /tools/arm-gnu-toolchain-13.2.Rel1-x86_64-arm-none-eabi/bin/../lib/gcc/arm-none-eabi/13.2.1/../../../../arm-none-eabi/lib/thumb/v7e-m+dp/hard/libg.a(libc_a-strcmp.o)
 .ARM.attributes
                0x0000172c       0x32 /tools/arm-gnu-toolchain-13.2.Rel1-x86_64-arm-none-eabi/bin/../lib/gcc/arm-none-eabi/13.2.1/../../../../arm-none-eabi/lib/thumb/v7e-m+dp/hard/libg.a(libc_a-atoi.o)
 .ARM.attributes
                0x0000175e       0x32 /tools/arm-gnu-toolchain-13.2.Rel1-x86_64-arm-none-eabi/bin/../lib/gcc/arm-none-eabi/13.2.1/../../../../arm-none-eabi/lib/thumb/v7e-m+dp/hard/libg.a(libc_a-strchr.o)
 .ARM.attributes
                0x00001790       0x32 /tools/arm-gnu-toolchain-13.2.Rel1-x86_64-arm-none-eabi/bin/../lib/gcc/arm-none-eabi/13.2.1/../../../../arm-none-eabi/lib/thumb/v7e-m+dp/hard/libg.a(libc_a-rand.o)
 .ARM.attributes
                0x000017c2       0x32 /tools/arm-gnu-toolchain-13.2.Rel1-x86_64-arm-none-eabi/bin/../lib/gcc/arm-none-eabi/13.2.1/../../../../arm-none-eabi/lib/thumb/v7e-m+dp/hard/libg.a(libc_a-ctype_.o)
 .ARM.attributes
                0x000017f4       0x32 /tools/arm-gnu-toolchain-13.2.Rel1-x86_64-arm-none-eabi/bin/../lib/gcc/arm-none-eabi/13.2.1/../../../../arm-none-eabi/lib/thumb/v7e-m+dp/hard/libg.a(libc_a-impure.o)
 .ARM.attributes
                0x00001826       0x32 /tools/arm-gnu-toolchain-13.2.Rel1-x86_64-arm-none-eabi/bin/../lib/gcc/arm-none-eabi/13.2.1/../../../../arm-none-eabi/lib/thumb/v7e-m+dp/hard/libg.a(libc_a-findfp.o)
 .ARM.attributes
                0x00001858       0x1e /tools/arm-gnu-toolchain-13.2.Rel1-x86_64-arm-none-eabi/bin/../lib/gcc/arm-none-eabi/13.2.1/../../../../arm-none-eabi/lib/thumb/v7e-m+dp/hard/libg.a(libc_a-memcpy.o)
 .ARM.attributes
                0x00001876       0x32 /tools/arm-gnu-toolchain-13.2.Rel1-x86_64-arm-none-eabi/bin/../lib/gcc/arm-none-eabi/13.2.1/../../../../arm-none-eabi/lib/thumb/v7e-m+dp/hard/libg.a(libc_a-strnlen.o)
 .ARM.attributes
                0x000018a8       0x32 /tools/arm-gnu-toolchain-13.2.Rel1-x86_64-arm-none-eabi/bin/../lib/gcc/arm-none-eabi/13.2.1/../../../../arm-none-eabi/lib/thumb/v7e-m+dp/hard/libg.a(libc_a-gettimeofdayr.o)
 .ARM.attributes
                0x000018da       0x32 /tools/arm-gnu-toolchain-13.2.Rel1-x86_64-arm-none-eabi/bin/../lib/gcc/arm-none-eabi/13.2.1/../../../../arm-none-eabi/lib/thumb/v7e-m+dp/hard/libg.a(libc_a-stdio.o)
 .ARM.attributes
                0x0000190c       0x32 /tools/arm-gnu-toolchain-13.2.Rel1-x86_64-arm-none-eabi/bin/../lib/gcc/arm-none-eabi/13.2.1/../../../../arm-none-eabi/lib/thumb/v7e-m+dp/hard/libg.a(libc_a-fwalk.o)
 .ARM.attributes
                0x0000193e       0x32 /tools/arm-gnu-toolchain-13.2.Rel1-x86_64-arm-none-eabi/bin/../lib/gcc/arm-none-eabi/13.2.1/../../../../arm-none-eabi/lib/thumb/v7e-m+dp/hard/libg.a(libc_a-writer.o)
 .ARM.attributes
                0x00001970       0x32 /tools/arm-gnu-toolchain-13.2.Rel1-x86_64-arm-none-eabi/bin/../lib/gcc/arm-none-eabi/13.2.1/../../../../arm-none-eabi/lib/thumb/v7e-m+dp/hard/libg.a(libc_a-mallocr.o)
 .ARM.attributes
                0x000019a2       0x32 /tools/arm-gnu-toolchain-13.2.Rel1-x86_64-arm-none-eabi/bin/../lib/gcc/arm-none-eabi/13.2.1/../../../../arm-none-eabi/lib/thumb/v7e-m+dp/hard/libg.a(libc_a-lock.o)
 .ARM.attributes
                0x000019d4       0x32 /tools/arm-gnu-toolchain-13.2.Rel1-x86_64-arm-none-eabi/bin/../lib/gcc/arm-none-eabi/13.2.1/../../../../arm-none-eabi/lib/thumb/v7e-m+dp/hard/libg.a(libc_a-fclose.o)
 .ARM.attributes
                0x00001a06       0x32 /tools/arm-gnu-toolchain-13.2.Rel1-x86_64-arm-none-eabi/bin/../lib/gcc/arm-none-eabi/13.2.1/../../../../arm-none-eabi/lib/thumb/v7e-m+dp/hard/libg.a(libc_a-mlock.o)
 .ARM.attributes
                0x00001a38       0x32 /tools/arm-gnu-toolchain-13.2.Rel1-x86_64-arm-none-eabi/bin/../lib/gcc/arm-none-eabi/13.2.1/../../../../arm-none-eabi/lib/thumb/v7e-m+dp/hard/libg.a(libc_a-closer.o)
 .ARM.attributes
                0x00001a6a       0x32 /tools/arm-gnu-toolchain-13.2.Rel1-x86_64-arm-none-eabi/bin/../lib/gcc/arm-none-eabi/13.2.1/../../../../arm-none-eabi/lib/thumb/v7e-m+dp/hard/libg.a(libc_a-reent.o)
 .ARM.attributes
                0x00001a9c       0x32 /tools/arm-gnu-toolchain-13.2.Rel1-x86_64-arm-none-eabi/bin/../lib/gcc/arm-none-eabi/13.2.1/../../../../arm-none-eabi/lib/thumb/v7e-m+dp/hard/libg.a(libc_a-fflush.o)
 .ARM.attributes
                0x00001ace       0x32 /tools/arm-gnu-toolchain-13.2.Rel1-x86_64-arm-none-eabi/bin/../lib/gcc/arm-none-eabi/13.2.1/../../../../arm-none-eabi/lib/thumb/v7e-m+dp/hard/libg.a(libc_a-freer.o)
 .ARM.attributes
                0x00001b00       0x32 /tools/arm-gnu-toolchain-13.2.Rel1-x86_64-arm-none-eabi/bin/../lib/gcc/arm-none-eabi/13.2.1/../../../../arm-none-eabi/lib/thumb/v7e-m+dp/hard/libg.a(libc_a-lseekr.o)
 .ARM.attributes
                0x00001b32       0x32 /tools/arm-gnu-toolchain-13.2.Rel1-x86_64-arm-none-eabi/bin/../lib/gcc/arm-none-eabi/13.2.1/../../../../arm-none-eabi/lib/thumb/v7e-m+dp/hard/libg.a(libc_a-readr.o)
 .ARM.attributes
                0x00001b64       0x32 /tools/arm-gnu-toolchain-13.2.Rel1-x86_64-arm-none-eabi/bin/../lib/gcc/arm-none-eabi/13.2.1/../../../../arm-none-eabi/lib/thumb/v7e-m+dp/hard/libg.a(libc_a-sbrkr.o)

.debug_frame    0x00000000     0x9518
 .debug_frame   0x00000000       0x54 CMakeFiles/freertos_kernel.elf.dir/main_cm7.c.o
 .debug_frame   0x00000054       0xf4 gloss/CMakeFiles/freedom_metal.dir/freedom_metal.c.o
 .debug_frame   0x00000148       0x34 gloss/CMakeFiles/freedom_metal.dir/nanosleep.c.o
 .debug_frame   0x0000017c       0x34 gloss/CMakeFiles/freedom_metal.dir/sys_access.c.o
 .debug_frame   0x000001b0       0x34 gloss/CMakeFiles/freedom_metal.dir/sys_chdir.c.o
 .debug_frame   0x000001e4       0x34 gloss/CMakeFiles/freedom_metal.dir/sys_chmod.c.o
 .debug_frame   0x00000218       0x34 gloss/CMakeFiles/freedom_metal.dir/sys_chown.c.o
 .debug_frame   0x0000024c       0x7c gloss/CMakeFiles/freedom_metal.dir/sys_clock_gettime.c.o
 .debug_frame   0x000002c8       0x34 gloss/CMakeFiles/freedom_metal.dir/sys_close.c.o
 .debug_frame   0x000002fc       0x34 gloss/CMakeFiles/freedom_metal.dir/sys_execve.c.o
 .debug_frame   0x00000330       0x30 gloss/CMakeFiles/freedom_metal.dir/sys_exit.c.o
 .debug_frame   0x00000360       0x34 gloss/CMakeFiles/freedom_metal.dir/sys_faccessat.c.o
 .debug_frame   0x00000394       0x2c gloss/CMakeFiles/freedom_metal.dir/sys_fork.c.o
 .debug_frame   0x000003c0       0x34 gloss/CMakeFiles/freedom_metal.dir/sys_fstat.c.o
 .debug_frame   0x000003f4       0x34 gloss/CMakeFiles/freedom_metal.dir/sys_fstatat.c.o
 .debug_frame   0x00000428       0x34 gloss/CMakeFiles/freedom_metal.dir/sys_ftime.c.o
 .debug_frame   0x0000045c       0x34 gloss/CMakeFiles/freedom_metal.dir/sys_getcwd.c.o
 .debug_frame   0x00000490       0x4c gloss/CMakeFiles/freedom_metal.dir/sys_getpid.c.o
 .debug_frame   0x000004dc       0x40 gloss/CMakeFiles/freedom_metal.dir/sys_gettimeofday.c.o
 .debug_frame   0x0000051c       0x38 gloss/CMakeFiles/freedom_metal.dir/sys_isatty.c.o
 .debug_frame   0x00000554       0x34 gloss/CMakeFiles/freedom_metal.dir/sys_kill.c.o
 .debug_frame   0x00000588       0x34 gloss/CMakeFiles/freedom_metal.dir/sys_link.c.o
 .debug_frame   0x000005bc       0x34 gloss/CMakeFiles/freedom_metal.dir/sys_lseek.c.o
 .debug_frame   0x000005f0       0x34 gloss/CMakeFiles/freedom_metal.dir/sys_lstat.c.o
 .debug_frame   0x00000624       0x34 gloss/CMakeFiles/freedom_metal.dir/sys_open.c.o
 .debug_frame   0x00000658       0x34 gloss/CMakeFiles/freedom_metal.dir/sys_openat.c.o
 .debug_frame   0x0000068c       0x34 gloss/CMakeFiles/freedom_metal.dir/sys_read.c.o
 .debug_frame   0x000006c0       0x5c gloss/CMakeFiles/freedom_metal.dir/sys_sbrk.c.o
 .debug_frame   0x0000071c       0x38 gloss/CMakeFiles/freedom_metal.dir/sys_sysconf.c.o
 .debug_frame   0x00000754       0x64 gloss/CMakeFiles/freedom_metal.dir/sys_times.c.o
 .debug_frame   0x000007b8       0x34 gloss/CMakeFiles/freedom_metal.dir/sys_unlink.c.o
 .debug_frame   0x000007ec       0x34 gloss/CMakeFiles/freedom_metal.dir/sys_utime.c.o
 .debug_frame   0x00000820       0x34 gloss/CMakeFiles/freedom_metal.dir/sys_wait.c.o
 .debug_frame   0x00000854       0x34 gloss/CMakeFiles/freedom_metal.dir/sys_write.c.o
 .debug_frame   0x00000888      0x470 build/drivers/uart/CMakeFiles/uart.dir/uart.c.o
 .debug_frame   0x00000cf8      0x1dc build/drivers/pcie/CMakeFiles/pcie.dir/pcie_ep.c.o
 .debug_frame   0x00000ed4      0x54c build/drivers/pcie/CMakeFiles/pcie.dir/pcie_dw.c.o
 .debug_frame   0x00001420       0x60 build/drivers/pcie/CMakeFiles/pcie.dir/pcie_snps_phy.c.o
 .debug_frame   0x00001480      0x218 build/drivers/pcie/CMakeFiles/pcie.dir/pcie_dw_hdma.c.o
 .debug_frame   0x00001698      0x2e4 build/drivers/pcie/CMakeFiles/pcie.dir/pcie_irq.c.o
 .debug_frame   0x0000197c      0x2bc build/drivers/pcie/CMakeFiles/pcie.dir/pcie_dw_iatu.c.o
 .debug_frame   0x00001c38      0x174 build/drivers/pcie/CMakeFiles/pcie.dir/pcie_dw_bar.c.o
 .debug_frame   0x00001dac       0x84 build/drivers/pcie/CMakeFiles/pcie.dir/pcie_dw_msix.c.o
 .debug_frame   0x00001e30      0x204 build/drivers/pcie/CMakeFiles/pcie.dir/pcie_subctrl.c.o
 .debug_frame   0x00002034       0xac build/drivers/pcie/CMakeFiles/pcie.dir/pcie_doe.c.o
 .debug_frame   0x000020e0       0xcc build/drivers/pcie/CMakeFiles/pcie.dir/pcie_dw_ide.c.o
 .debug_frame   0x000021ac       0x60 build/drivers/pcie/CMakeFiles/pcie.dir/pcie_sysreg.c.o
 .debug_frame   0x0000220c      0x1b0 build/drivers/mailbox/CMakeFiles/mailbox.dir/mailbox.c.o
 .debug_frame   0x000023bc       0x5c build/drivers/mailbox/CMakeFiles/mailbox.dir/mailbox_cb.c.o
 .debug_frame   0x00002418       0xd8 build/drivers/pmu/CMakeFiles/pmu.dir/pmu.c.o
 .debug_frame   0x000024f0      0x6dc build/drivers/pvt_con/CMakeFiles/pvt_con.dir/pvt_con.c.o
 .debug_frame   0x00002bcc      0x16c build/drivers/watchdog/CMakeFiles/watchdog.dir/dw_apb_wdt.c.o
 .debug_frame   0x00002d38       0x34 build/tests/common/CMakeFiles/test_common.dir/test_mailbox_cb.c.o
 .debug_frame   0x00002d6c      0x26c build/tests/interrupt_test_helper_example/CMakeFiles/interrupt_test_helper_example.dir/example_test.c.o
 .debug_frame   0x00002fd8       0xc0 build/tests/interrupt_test_helper_example/CMakeFiles/interrupt_test_helper_example.dir/example_driver.c.o
 .debug_frame   0x00003098       0x74 build/tests/arch/CMakeFiles/test_arch.dir/test_cli.c.o
 .debug_frame   0x0000310c       0x94 build/tests/pcie/CMakeFiles/pcie_test.dir/test_pcie_main.c.o
 .debug_frame   0x000031a0      0x784 build/tests/pcie/CMakeFiles/pcie_test.dir/test_pcie_msix.c.o
 .debug_frame   0x00003924      0x388 build/tests/pcie/CMakeFiles/pcie_test.dir/test_pcie_hdma.c.o
 .debug_frame   0x00003cac       0xa0 build/tests/pcie/CMakeFiles/pcie_test.dir/test_pcie_capability.c.o
 .debug_frame   0x00003d4c      0x518 build/tests/pcie/CMakeFiles/pcie_test.dir/test_pcie_mode.c.o
 .debug_frame   0x00004264      0x3c8 build/tests/pcie/CMakeFiles/pcie_test.dir/test_pcie_iatu.c.o
 .debug_frame   0x0000462c      0x114 build/tests/pcie/CMakeFiles/pcie_test.dir/test_pcie_history_store.c.o
 .debug_frame   0x00004740      0x1c0 build/tests/pcie/CMakeFiles/pcie_test.dir/test_pcie_doe.c.o
 .debug_frame   0x00004900       0x58 build/tests/pcie/CMakeFiles/pcie_test.dir/test_pcie_ide.c.o
 .debug_frame   0x00004958       0xf0 build/tests/pcie/CMakeFiles/pcie_test.dir/test_pcie_ide_scenario.c.o
 .debug_frame   0x00004a48       0x5c build/tests/pcie/CMakeFiles/pcie_test.dir/test_pcie_rasdp.c.o
 .debug_frame   0x00004aa4      0x164 build/tests/pcie/CMakeFiles/pcie_test.dir/test_pcie_rasdes.c.o
 .debug_frame   0x00004c08      0x1b4 build/tests/pcie/CMakeFiles/pcie_test.dir/test_pcie_epf.c.o
 .debug_frame   0x00004dbc       0xa4 build/tests/mailbox/CMakeFiles/mailbox_test.dir/test_mailbox_main.c.o
 .debug_frame   0x00004e60       0xf0 build/tests/arch/arm/CMakeFiles/test_arm.dir/test_cm7.c.o
 .debug_frame   0x00004f50      0x118 build/tests/log/CMakeFiles/show_log.dir/rebel_h_log.c.o
 .debug_frame   0x00005068       0x98 build/tests/interrupt_test/CMakeFiles/test_irq.dir/test_m7_irq.c.o
 .debug_frame   0x00005100       0x54 build/tests/pvt_con/CMakeFiles/pvt_cli.dir/pvt_cli.c.o
 .debug_frame   0x00005154      0x120 build/tests/pvt_con/CMakeFiles/pvt_cli.dir/pvt_cli_show.c.o
 .debug_frame   0x00005274       0xd8 build/tests/pvt_con/CMakeFiles/pvt_cli.dir/pvt_cli_enable.c.o
 .debug_frame   0x0000534c       0xd8 build/tests/pvt_con/CMakeFiles/pvt_cli.dir/pvt_cli_disable.c.o
 .debug_frame   0x00005424       0x5c build/tests/pvt_con/CMakeFiles/pvt_cli.dir/pvt_cli_set.c.o
 .debug_frame   0x00005480      0x5e4 libfreertos_kernel.a(queue.c.o)
 .debug_frame   0x00005a64      0x820 libfreertos_kernel.a(tasks.c.o)
 .debug_frame   0x00006284      0x434 libfreertos_kernel.a(timers.c.o)
 .debug_frame   0x000066b8      0x154 libfreertos_kernel.a(heap_4.c.o)
 .debug_frame   0x0000680c       0xd8 libfreertos_kernel.a(list.c.o)
 .debug_frame   0x000068e4      0x19c portable/libfreertos_kernel_port.a(system_rebelh_cm7.c.o)
 .debug_frame   0x00006a80      0x1a8 portable/libfreertos_kernel_port.a(port.c.o)
 .debug_frame   0x00006c28       0x34 build/drivers/common/libdriver.a(driver.c.o)
 .debug_frame   0x00006c5c       0xa4 build/drivers/common/libassert.a(assert.c.o)
 .debug_frame   0x00006d00      0x16c build/drivers/common/libinterrupt.a(interrupt.c.o)
 .debug_frame   0x00006e6c       0x38 build/drivers/bat/libbat.a(bat.c.o)
 .debug_frame   0x00006ea4       0x9c services/cli_service/libcli_service.a(cli_task.c.o)
 .debug_frame   0x00006f40      0x254 services/cli_service/libcli_service.a(sys_command_line.c.o)
 .debug_frame   0x00007194       0xbc services/terminal_service/libterminal_service.a(console_uart.c.o)
 .debug_frame   0x00007250      0x130 services/terminal_service/libterminal_service.a(console.c.o)
 .debug_frame   0x00007380      0x124 services/terminal_service/libterminal_service.a(terminal_task.c.o)
 .debug_frame   0x000074a4      0x5e4 build/unity/libunity.a(unity.c.o)
 .debug_frame   0x00007a88      0x1f4 build/unity/libunity.a(unity_fixture.c.o)
 .debug_frame   0x00007c7c      0x27c build/interrupt_test_helper/libinterrupt_test_helper.a(interrupt_test_helper.c.o)
 .debug_frame   0x00007ef8      0x218 libfreertos_kernel.a(event_groups.c.o)
 .debug_frame   0x00008110      0x3ac libfreertos_kernel.a(stream_buffer.c.o)
 .debug_frame   0x000084bc      0x378 build/common/arch/libcommon.a(printf.c.o)
 .debug_frame   0x00008834      0x130 build/common/arch/libcommon.a(system_api.c.o)
 .debug_frame   0x00008964       0x2c /tools/arm-gnu-toolchain-13.2.Rel1-x86_64-arm-none-eabi/bin/../lib/gcc/arm-none-eabi/13.2.1/thumb/v7e-m+dp/hard/libgcc.a(_aeabi_uldivmod.o)
 .debug_frame   0x00008990       0x34 /tools/arm-gnu-toolchain-13.2.Rel1-x86_64-arm-none-eabi/bin/../lib/gcc/arm-none-eabi/13.2.1/thumb/v7e-m+dp/hard/libgcc.a(_udivmoddi4.o)
 .debug_frame   0x000089c4       0x80 /tools/arm-gnu-toolchain-13.2.Rel1-x86_64-arm-none-eabi/bin/../lib/gcc/arm-none-eabi/13.2.1/../../../../arm-none-eabi/lib/thumb/v7e-m+dp/hard/libg.a(libc_a-strtol.o)
 .debug_frame   0x00008a44       0x7c /tools/arm-gnu-toolchain-13.2.Rel1-x86_64-arm-none-eabi/bin/../lib/gcc/arm-none-eabi/13.2.1/../../../../arm-none-eabi/lib/thumb/v7e-m+dp/hard/libg.a(libc_a-strtoul.o)
 .debug_frame   0x00008ac0       0x38 /tools/arm-gnu-toolchain-13.2.Rel1-x86_64-arm-none-eabi/bin/../lib/gcc/arm-none-eabi/13.2.1/../../../../arm-none-eabi/lib/thumb/v7e-m+dp/hard/libg.a(libc_a-strncmp.o)
 .debug_frame   0x00008af8       0x90 /tools/arm-gnu-toolchain-13.2.Rel1-x86_64-arm-none-eabi/bin/../lib/gcc/arm-none-eabi/13.2.1/../../../../arm-none-eabi/lib/thumb/v7e-m+dp/hard/libg.a(libc_a-strtoll.o)
 .debug_frame   0x00008b88       0x28 /tools/arm-gnu-toolchain-13.2.Rel1-x86_64-arm-none-eabi/bin/../lib/gcc/arm-none-eabi/13.2.1/../../../../arm-none-eabi/lib/thumb/v7e-m+dp/hard/libg.a(libc_a-strncpy.o)
 .debug_frame   0x00008bb0       0x88 /tools/arm-gnu-toolchain-13.2.Rel1-x86_64-arm-none-eabi/bin/../lib/gcc/arm-none-eabi/13.2.1/../../../../arm-none-eabi/lib/thumb/v7e-m+dp/hard/libg.a(libc_a-strtoull.o)
 .debug_frame   0x00008c38       0x30 /tools/arm-gnu-toolchain-13.2.Rel1-x86_64-arm-none-eabi/bin/../lib/gcc/arm-none-eabi/13.2.1/../../../../arm-none-eabi/lib/thumb/v7e-m+dp/hard/libg.a(libc_a-strpbrk.o)
 .debug_frame   0x00008c68       0x28 /tools/arm-gnu-toolchain-13.2.Rel1-x86_64-arm-none-eabi/bin/../lib/gcc/arm-none-eabi/13.2.1/../../../../arm-none-eabi/lib/thumb/v7e-m+dp/hard/libg.a(libc_a-strspn.o)
 .debug_frame   0x00008c90       0xec /tools/arm-gnu-toolchain-13.2.Rel1-x86_64-arm-none-eabi/bin/../lib/gcc/arm-none-eabi/13.2.1/../../../../arm-none-eabi/lib/thumb/v7e-m+dp/hard/libg.a(libc_a-strstr.o)
 .debug_frame   0x00008d7c       0x20 /tools/arm-gnu-toolchain-13.2.Rel1-x86_64-arm-none-eabi/bin/../lib/gcc/arm-none-eabi/13.2.1/../../../../arm-none-eabi/lib/thumb/v7e-m+dp/hard/libg.a(libc_a-errno.o)
 .debug_frame   0x00008d9c       0x34 /tools/arm-gnu-toolchain-13.2.Rel1-x86_64-arm-none-eabi/bin/../lib/gcc/arm-none-eabi/13.2.1/../../../../arm-none-eabi/lib/thumb/v7e-m+dp/hard/libg.a(libc_a-time.o)
 .debug_frame   0x00008dd0       0x34 /tools/arm-gnu-toolchain-13.2.Rel1-x86_64-arm-none-eabi/bin/../lib/gcc/arm-none-eabi/13.2.1/../../../../arm-none-eabi/lib/thumb/v7e-m+dp/hard/libg.a(libc_a-memcmp.o)
 .debug_frame   0x00008e04       0x2c /tools/arm-gnu-toolchain-13.2.Rel1-x86_64-arm-none-eabi/bin/../lib/gcc/arm-none-eabi/13.2.1/../../../../arm-none-eabi/lib/thumb/v7e-m+dp/hard/libg.a(libc_a-memset.o)
 .debug_frame   0x00008e30       0x7c /tools/arm-gnu-toolchain-13.2.Rel1-x86_64-arm-none-eabi/bin/../lib/gcc/arm-none-eabi/13.2.1/../../../../arm-none-eabi/lib/thumb/v7e-m+dp/hard/libg.a(libc_a-strcmp.o)
 .debug_frame   0x00008eac       0x30 /tools/arm-gnu-toolchain-13.2.Rel1-x86_64-arm-none-eabi/bin/../lib/gcc/arm-none-eabi/13.2.1/../../../../arm-none-eabi/lib/thumb/v7e-m+dp/hard/libg.a(libc_a-atoi.o)
 .debug_frame   0x00008edc       0x34 /tools/arm-gnu-toolchain-13.2.Rel1-x86_64-arm-none-eabi/bin/../lib/gcc/arm-none-eabi/13.2.1/../../../../arm-none-eabi/lib/thumb/v7e-m+dp/hard/libg.a(libc_a-strchr.o)
 .debug_frame   0x00008f10       0x3c /tools/arm-gnu-toolchain-13.2.Rel1-x86_64-arm-none-eabi/bin/../lib/gcc/arm-none-eabi/13.2.1/../../../../arm-none-eabi/lib/thumb/v7e-m+dp/hard/libg.a(libc_a-rand.o)
 .debug_frame   0x00008f4c       0x20 /tools/arm-gnu-toolchain-13.2.Rel1-x86_64-arm-none-eabi/bin/../lib/gcc/arm-none-eabi/13.2.1/../../../../arm-none-eabi/lib/thumb/v7e-m+dp/hard/libg.a(libc_a-ctype_.o)
 .debug_frame   0x00008f6c      0x13c /tools/arm-gnu-toolchain-13.2.Rel1-x86_64-arm-none-eabi/bin/../lib/gcc/arm-none-eabi/13.2.1/../../../../arm-none-eabi/lib/thumb/v7e-m+dp/hard/libg.a(libc_a-findfp.o)
 .debug_frame   0x000090a8       0x20 /tools/arm-gnu-toolchain-13.2.Rel1-x86_64-arm-none-eabi/bin/../lib/gcc/arm-none-eabi/13.2.1/../../../../arm-none-eabi/lib/thumb/v7e-m+dp/hard/libg.a(libc_a-strnlen.o)
 .debug_frame   0x000090c8       0x2c /tools/arm-gnu-toolchain-13.2.Rel1-x86_64-arm-none-eabi/bin/../lib/gcc/arm-none-eabi/13.2.1/../../../../arm-none-eabi/lib/thumb/v7e-m+dp/hard/libg.a(libc_a-gettimeofdayr.o)
 .debug_frame   0x000090f4       0x8c /tools/arm-gnu-toolchain-13.2.Rel1-x86_64-arm-none-eabi/bin/../lib/gcc/arm-none-eabi/13.2.1/../../../../arm-none-eabi/lib/thumb/v7e-m+dp/hard/libg.a(libc_a-stdio.o)
 .debug_frame   0x00009180       0x34 /tools/arm-gnu-toolchain-13.2.Rel1-x86_64-arm-none-eabi/bin/../lib/gcc/arm-none-eabi/13.2.1/../../../../arm-none-eabi/lib/thumb/v7e-m+dp/hard/libg.a(libc_a-fwalk.o)
 .debug_frame   0x000091b4       0x2c /tools/arm-gnu-toolchain-13.2.Rel1-x86_64-arm-none-eabi/bin/../lib/gcc/arm-none-eabi/13.2.1/../../../../arm-none-eabi/lib/thumb/v7e-m+dp/hard/libg.a(libc_a-writer.o)
 .debug_frame   0x000091e0       0x48 /tools/arm-gnu-toolchain-13.2.Rel1-x86_64-arm-none-eabi/bin/../lib/gcc/arm-none-eabi/13.2.1/../../../../arm-none-eabi/lib/thumb/v7e-m+dp/hard/libg.a(libc_a-mallocr.o)
 .debug_frame   0x00009228       0xb0 /tools/arm-gnu-toolchain-13.2.Rel1-x86_64-arm-none-eabi/bin/../lib/gcc/arm-none-eabi/13.2.1/../../../../arm-none-eabi/lib/thumb/v7e-m+dp/hard/libg.a(libc_a-lock.o)
 .debug_frame   0x000092d8       0x3c /tools/arm-gnu-toolchain-13.2.Rel1-x86_64-arm-none-eabi/bin/../lib/gcc/arm-none-eabi/13.2.1/../../../../arm-none-eabi/lib/thumb/v7e-m+dp/hard/libg.a(libc_a-fclose.o)
 .debug_frame   0x00009314       0x30 /tools/arm-gnu-toolchain-13.2.Rel1-x86_64-arm-none-eabi/bin/../lib/gcc/arm-none-eabi/13.2.1/../../../../arm-none-eabi/lib/thumb/v7e-m+dp/hard/libg.a(libc_a-mlock.o)
 .debug_frame   0x00009344       0x2c /tools/arm-gnu-toolchain-13.2.Rel1-x86_64-arm-none-eabi/bin/../lib/gcc/arm-none-eabi/13.2.1/../../../../arm-none-eabi/lib/thumb/v7e-m+dp/hard/libg.a(libc_a-closer.o)
 .debug_frame   0x00009370       0x3c /tools/arm-gnu-toolchain-13.2.Rel1-x86_64-arm-none-eabi/bin/../lib/gcc/arm-none-eabi/13.2.1/../../../../arm-none-eabi/lib/thumb/v7e-m+dp/hard/libg.a(libc_a-reent.o)
 .debug_frame   0x000093ac       0x70 /tools/arm-gnu-toolchain-13.2.Rel1-x86_64-arm-none-eabi/bin/../lib/gcc/arm-none-eabi/13.2.1/../../../../arm-none-eabi/lib/thumb/v7e-m+dp/hard/libg.a(libc_a-fflush.o)
 .debug_frame   0x0000941c       0x78 /tools/arm-gnu-toolchain-13.2.Rel1-x86_64-arm-none-eabi/bin/../lib/gcc/arm-none-eabi/13.2.1/../../../../arm-none-eabi/lib/thumb/v7e-m+dp/hard/libg.a(libc_a-freer.o)
 .debug_frame   0x00009494       0x2c /tools/arm-gnu-toolchain-13.2.Rel1-x86_64-arm-none-eabi/bin/../lib/gcc/arm-none-eabi/13.2.1/../../../../arm-none-eabi/lib/thumb/v7e-m+dp/hard/libg.a(libc_a-lseekr.o)
 .debug_frame   0x000094c0       0x2c /tools/arm-gnu-toolchain-13.2.Rel1-x86_64-arm-none-eabi/bin/../lib/gcc/arm-none-eabi/13.2.1/../../../../arm-none-eabi/lib/thumb/v7e-m+dp/hard/libg.a(libc_a-readr.o)
 .debug_frame   0x000094ec       0x2c /tools/arm-gnu-toolchain-13.2.Rel1-x86_64-arm-none-eabi/bin/../lib/gcc/arm-none-eabi/13.2.1/../../../../arm-none-eabi/lib/thumb/v7e-m+dp/hard/libg.a(libc_a-sbrkr.o)

.debug_rnglists
                0x00000000      0x4ec
 .debug_rnglists
                0x00000000      0x10a libfreertos_kernel.a(queue.c.o)
 .debug_rnglists
                0x0000010a      0x17a libfreertos_kernel.a(tasks.c.o)
 .debug_rnglists
                0x00000284       0xc0 libfreertos_kernel.a(timers.c.o)
 .debug_rnglists
                0x00000344       0x48 libfreertos_kernel.a(heap_4.c.o)
 .debug_rnglists
                0x0000038c       0x2b libfreertos_kernel.a(list.c.o)
 .debug_rnglists
                0x000003b7       0x27 portable/libfreertos_kernel_port.a(port.c.o)
 .debug_rnglists
                0x000003de       0x65 libfreertos_kernel.a(event_groups.c.o)
 .debug_rnglists
                0x00000443       0xa9 libfreertos_kernel.a(stream_buffer.c.o)

.debug_line_str
                0x00000000      0x1c8
 .debug_line_str
                0x00000000      0x1c8 /tools/arm-gnu-toolchain-13.2.Rel1-x86_64-arm-none-eabi/bin/../lib/gcc/arm-none-eabi/13.2.1/thumb/v7e-m+dp/hard/libgcc.a(_aeabi_uldivmod.o)
                                 0xc2 (size before relaxing)
 .debug_line_str
                0x000001c8       0xc6 /tools/arm-gnu-toolchain-13.2.Rel1-x86_64-arm-none-eabi/bin/../lib/gcc/arm-none-eabi/13.2.1/thumb/v7e-m+dp/hard/libgcc.a(_dvmd_tls.o)
 .debug_line_str
                0x000001c8       0xdb /tools/arm-gnu-toolchain-13.2.Rel1-x86_64-arm-none-eabi/bin/../lib/gcc/arm-none-eabi/13.2.1/../../../../arm-none-eabi/lib/thumb/v7e-m+dp/hard/libg.a(libc_a-strlen.o)
 .debug_line_str
                0x000001c8       0xdb /tools/arm-gnu-toolchain-13.2.Rel1-x86_64-arm-none-eabi/bin/../lib/gcc/arm-none-eabi/13.2.1/../../../../arm-none-eabi/lib/thumb/v7e-m+dp/hard/libg.a(libc_a-strcmp.o)
 .debug_line_str
                0x000001c8       0xdc /tools/arm-gnu-toolchain-13.2.Rel1-x86_64-arm-none-eabi/bin/../lib/gcc/arm-none-eabi/13.2.1/../../../../arm-none-eabi/lib/thumb/v7e-m+dp/hard/libg.a(libc_a-memcpy.o)
