Archive member included to satisfy reference by file (symbol)

libfreertos_kernel.a(queue.c.o)
                              build/drivers/timer/dw_apb_timer/CMakeFiles/dw_apb_timer.dir/dw_apb_timer.c.o (xQueueGenericSend)
libfreertos_kernel.a(tasks.c.o)
                              libfreertos_kernel.a(queue.c.o) (vTaskSuspendAll)
libfreertos_kernel.a(timers.c.o)
                              libfreertos_kernel.a(tasks.c.o) (xTimerCreateTimerTask)
libfreertos_kernel.a(heap_4.c.o)
                              libfreertos_kernel.a(queue.c.o) (pvPortMalloc)
libfreertos_kernel.a(list.c.o)
                              libfreertos_kernel.a(queue.c.o) (vListInitialise)
portable/libfreertos_kernel_port.a(port.c.o)
                              libfreertos_kernel.a(tasks.c.o) (pxPortInitialiseStack)
portable/libfreertos_kernel_port.a(portASM.S.o)
                              portable/libfreertos_kernel_port.a(port.c.o) (vPortRestoreTaskContext)
build/drivers/common/libdriver.a(driver.c.o)
                              CMakeFiles/freertos_kernel.elf.dir/main_cp1.c.o (init_drivers_by_calling_init_entry)
build/drivers/common/libassert.a(assert.c.o)
                              build/drivers/common/libdriver.a(driver.c.o) (assert_with_message)
build/drivers/common/libinterrupt.a(interrupt.c.o)
                              build/drivers/mailbox/CMakeFiles/mailbox.dir/mailbox.c.o (enable_all_interrupts)
build/drivers/intc/libintc.a(gicv3.c.o)
                              libfreertos_kernel.a(tasks.c.o) (gic_raise_sgi)
build/drivers/intc/libintc.a(bakery_lock.c.o)
                              build/drivers/intc/libintc.a(gicv3.c.o) (rebel_bakery_lock_acquire)
portable/libfreertos_arch.a(startup.S.o)
                              (_start)
portable/libfreertos_arch.a(vector.S.o)
                              portable/libfreertos_arch.a(startup.S.o) (_freertos_vector_table)
portable/libfreertos_arch.a(prep_c.c.o)
                              portable/libfreertos_arch.a(startup.S.o) (primary_prep_c)
libfreertos_kernel_config.a(FreeRTOS_tick_config.c.o)
                              portable/libfreertos_kernel_port.a(port.c.o) (vSetupTickInterrupt)
portable/libsmp.a(smp.c.o)    libfreertos_kernel_config.a(FreeRTOS_tick_config.c.o) (ipi_handler)
portable/libsmp.a(smp.S.o)    portable/libfreertos_kernel_port.a(port.c.o) (GateSmp_tryLock)
portable/libsmccc.a(smccc.S.o)
                              build/drivers/flash/CMakeFiles/flash.dir/mt25q_flash.c.o (arm_smccc_smc)
build/common/arch/libcommon.a(printf.c.o)
                              CMakeFiles/freertos_kernel.elf.dir/main_cp1.c.o (printf_)
build/drivers/psci/libpsci.a(psci.c.o)
                              portable/libsmp.a(smp.c.o) (psci_cpu_on)
portable/libmmu.a(mmu.c.o)    portable/libfreertos_arch.a(prep_c.c.o) (mmu_init)
build/drivers/timer/generic_timer/libgeneric_timer.a(generic_timer.c.o)
                              libfreertos_kernel_config.a(FreeRTOS_tick_config.c.o) (arch_timer_update_compare)
/tools/arm-gnu-toolchain-13.2.Rel1-x86_64-aarch64-none-elf/bin/../lib/gcc/aarch64-none-elf/13.2.1/../../../../aarch64-none-elf/lib/libg.a(libc_a-strlen.o)
                              libfreertos_kernel.a(tasks.c.o) (strlen)
/tools/arm-gnu-toolchain-13.2.Rel1-x86_64-aarch64-none-elf/bin/../lib/gcc/aarch64-none-elf/13.2.1/../../../../aarch64-none-elf/lib/libg.a(libc_a-errno.o)
                              gloss/CMakeFiles/freedom_metal.dir/nanosleep.c.o (__errno)
/tools/arm-gnu-toolchain-13.2.Rel1-x86_64-aarch64-none-elf/bin/../lib/gcc/aarch64-none-elf/13.2.1/../../../../aarch64-none-elf/lib/libg.a(libc_a-printf.o)
                              build/drivers/mailbox/CMakeFiles/mailbox.dir/mailbox_cb.c.o (printf)
/tools/arm-gnu-toolchain-13.2.Rel1-x86_64-aarch64-none-elf/bin/../lib/gcc/aarch64-none-elf/13.2.1/../../../../aarch64-none-elf/lib/libg.a(libc_a-memcpy.o)
                              libfreertos_kernel.a(queue.c.o) (memcpy)
/tools/arm-gnu-toolchain-13.2.Rel1-x86_64-aarch64-none-elf/bin/../lib/gcc/aarch64-none-elf/13.2.1/../../../../aarch64-none-elf/lib/libg.a(libc_a-putchar.o)
                              build/drivers/mailbox/CMakeFiles/mailbox.dir/mailbox_cb.c.o (putchar)
/tools/arm-gnu-toolchain-13.2.Rel1-x86_64-aarch64-none-elf/bin/../lib/gcc/aarch64-none-elf/13.2.1/../../../../aarch64-none-elf/lib/libg.a(libc_a-reent.o)
                              libfreertos_kernel.a(tasks.c.o) (_reclaim_reent)
/tools/arm-gnu-toolchain-13.2.Rel1-x86_64-aarch64-none-elf/bin/../lib/gcc/aarch64-none-elf/13.2.1/../../../../aarch64-none-elf/lib/libg.a(libc_a-impure.o)
                              libfreertos_kernel.a(tasks.c.o) (_impure_ptr)
/tools/arm-gnu-toolchain-13.2.Rel1-x86_64-aarch64-none-elf/bin/../lib/gcc/aarch64-none-elf/13.2.1/../../../../aarch64-none-elf/lib/libg.a(libc_a-findfp.o)
                              libfreertos_kernel.a(tasks.c.o) (__sf)
/tools/arm-gnu-toolchain-13.2.Rel1-x86_64-aarch64-none-elf/bin/../lib/gcc/aarch64-none-elf/13.2.1/../../../../aarch64-none-elf/lib/libg.a(libc_a-memset.o)
                              gloss/CMakeFiles/freedom_metal.dir/freedom_metal.c.o (memset)
/tools/arm-gnu-toolchain-13.2.Rel1-x86_64-aarch64-none-elf/bin/../lib/gcc/aarch64-none-elf/13.2.1/../../../../aarch64-none-elf/lib/libg.a(libc_a-freer.o)
                              /tools/arm-gnu-toolchain-13.2.Rel1-x86_64-aarch64-none-elf/bin/../lib/gcc/aarch64-none-elf/13.2.1/../../../../aarch64-none-elf/lib/libg.a(libc_a-reent.o) (_free_r)
/tools/arm-gnu-toolchain-13.2.Rel1-x86_64-aarch64-none-elf/bin/../lib/gcc/aarch64-none-elf/13.2.1/../../../../aarch64-none-elf/lib/libg.a(libc_a-stdio.o)
                              /tools/arm-gnu-toolchain-13.2.Rel1-x86_64-aarch64-none-elf/bin/../lib/gcc/aarch64-none-elf/13.2.1/../../../../aarch64-none-elf/lib/libg.a(libc_a-findfp.o) (__sread)
/tools/arm-gnu-toolchain-13.2.Rel1-x86_64-aarch64-none-elf/bin/../lib/gcc/aarch64-none-elf/13.2.1/../../../../aarch64-none-elf/lib/libg.a(libc_a-sbrkr.o)
                              /tools/arm-gnu-toolchain-13.2.Rel1-x86_64-aarch64-none-elf/bin/../lib/gcc/aarch64-none-elf/13.2.1/../../../../aarch64-none-elf/lib/libg.a(libc_a-freer.o) (_sbrk_r)
/tools/arm-gnu-toolchain-13.2.Rel1-x86_64-aarch64-none-elf/bin/../lib/gcc/aarch64-none-elf/13.2.1/../../../../aarch64-none-elf/lib/libg.a(libc_a-fwalk.o)
                              /tools/arm-gnu-toolchain-13.2.Rel1-x86_64-aarch64-none-elf/bin/../lib/gcc/aarch64-none-elf/13.2.1/../../../../aarch64-none-elf/lib/libg.a(libc_a-findfp.o) (_fwalk_sglue)
/tools/arm-gnu-toolchain-13.2.Rel1-x86_64-aarch64-none-elf/bin/../lib/gcc/aarch64-none-elf/13.2.1/../../../../aarch64-none-elf/lib/libg.a(libc_a-writer.o)
                              /tools/arm-gnu-toolchain-13.2.Rel1-x86_64-aarch64-none-elf/bin/../lib/gcc/aarch64-none-elf/13.2.1/../../../../aarch64-none-elf/lib/libg.a(libc_a-stdio.o) (_write_r)
/tools/arm-gnu-toolchain-13.2.Rel1-x86_64-aarch64-none-elf/bin/../lib/gcc/aarch64-none-elf/13.2.1/../../../../aarch64-none-elf/lib/libg.a(libc_a-vfprintf.o)
                              /tools/arm-gnu-toolchain-13.2.Rel1-x86_64-aarch64-none-elf/bin/../lib/gcc/aarch64-none-elf/13.2.1/../../../../aarch64-none-elf/lib/libg.a(libc_a-printf.o) (_vfprintf_r)
/tools/arm-gnu-toolchain-13.2.Rel1-x86_64-aarch64-none-elf/bin/../lib/gcc/aarch64-none-elf/13.2.1/../../../../aarch64-none-elf/lib/libg.a(libc_a-vfiprintf.o)
                              /tools/arm-gnu-toolchain-13.2.Rel1-x86_64-aarch64-none-elf/bin/../lib/gcc/aarch64-none-elf/13.2.1/../../../../aarch64-none-elf/lib/libg.a(libc_a-vfprintf.o) (__sprint_r)
/tools/arm-gnu-toolchain-13.2.Rel1-x86_64-aarch64-none-elf/bin/../lib/gcc/aarch64-none-elf/13.2.1/../../../../aarch64-none-elf/lib/libg.a(libc_a-mallocr.o)
                              /tools/arm-gnu-toolchain-13.2.Rel1-x86_64-aarch64-none-elf/bin/../lib/gcc/aarch64-none-elf/13.2.1/../../../../aarch64-none-elf/lib/libg.a(libc_a-findfp.o) (_malloc_r)
/tools/arm-gnu-toolchain-13.2.Rel1-x86_64-aarch64-none-elf/bin/../lib/gcc/aarch64-none-elf/13.2.1/../../../../aarch64-none-elf/lib/libg.a(libc_a-wcrtomb.o)
                              /tools/arm-gnu-toolchain-13.2.Rel1-x86_64-aarch64-none-elf/bin/../lib/gcc/aarch64-none-elf/13.2.1/../../../../aarch64-none-elf/lib/libg.a(libc_a-vfprintf.o) (_wcrtomb_r)
/tools/arm-gnu-toolchain-13.2.Rel1-x86_64-aarch64-none-elf/bin/../lib/gcc/aarch64-none-elf/13.2.1/../../../../aarch64-none-elf/lib/libg.a(libc_a-lock.o)
                              /tools/arm-gnu-toolchain-13.2.Rel1-x86_64-aarch64-none-elf/bin/../lib/gcc/aarch64-none-elf/13.2.1/../../../../aarch64-none-elf/lib/libg.a(libc_a-findfp.o) (__retarget_lock_init_recursive)
/tools/arm-gnu-toolchain-13.2.Rel1-x86_64-aarch64-none-elf/bin/../lib/gcc/aarch64-none-elf/13.2.1/../../../../aarch64-none-elf/lib/libg.a(libc_a-locale.o)
                              /tools/arm-gnu-toolchain-13.2.Rel1-x86_64-aarch64-none-elf/bin/../lib/gcc/aarch64-none-elf/13.2.1/../../../../aarch64-none-elf/lib/libg.a(libc_a-vfprintf.o) (__global_locale)
/tools/arm-gnu-toolchain-13.2.Rel1-x86_64-aarch64-none-elf/bin/../lib/gcc/aarch64-none-elf/13.2.1/../../../../aarch64-none-elf/lib/libg.a(libc_a-localeconv.o)
                              /tools/arm-gnu-toolchain-13.2.Rel1-x86_64-aarch64-none-elf/bin/../lib/gcc/aarch64-none-elf/13.2.1/../../../../aarch64-none-elf/lib/libg.a(libc_a-vfprintf.o) (_localeconv_r)
/tools/arm-gnu-toolchain-13.2.Rel1-x86_64-aarch64-none-elf/bin/../lib/gcc/aarch64-none-elf/13.2.1/../../../../aarch64-none-elf/lib/libg.a(libc_a-fclose.o)
                              /tools/arm-gnu-toolchain-13.2.Rel1-x86_64-aarch64-none-elf/bin/../lib/gcc/aarch64-none-elf/13.2.1/../../../../aarch64-none-elf/lib/libg.a(libc_a-findfp.o) (_fclose_r)
/tools/arm-gnu-toolchain-13.2.Rel1-x86_64-aarch64-none-elf/bin/../lib/gcc/aarch64-none-elf/13.2.1/../../../../aarch64-none-elf/lib/libg.a(libc_a-memchr.o)
                              /tools/arm-gnu-toolchain-13.2.Rel1-x86_64-aarch64-none-elf/bin/../lib/gcc/aarch64-none-elf/13.2.1/../../../../aarch64-none-elf/lib/libg.a(libc_a-vfprintf.o) (memchr)
/tools/arm-gnu-toolchain-13.2.Rel1-x86_64-aarch64-none-elf/bin/../lib/gcc/aarch64-none-elf/13.2.1/../../../../aarch64-none-elf/lib/libg.a(libc_a-wsetup.o)
                              /tools/arm-gnu-toolchain-13.2.Rel1-x86_64-aarch64-none-elf/bin/../lib/gcc/aarch64-none-elf/13.2.1/../../../../aarch64-none-elf/lib/libg.a(libc_a-vfprintf.o) (__swsetup_r)
/tools/arm-gnu-toolchain-13.2.Rel1-x86_64-aarch64-none-elf/bin/../lib/gcc/aarch64-none-elf/13.2.1/../../../../aarch64-none-elf/lib/libg.a(libc_a-makebuf.o)
                              /tools/arm-gnu-toolchain-13.2.Rel1-x86_64-aarch64-none-elf/bin/../lib/gcc/aarch64-none-elf/13.2.1/../../../../aarch64-none-elf/lib/libg.a(libc_a-wsetup.o) (__smakebuf_r)
/tools/arm-gnu-toolchain-13.2.Rel1-x86_64-aarch64-none-elf/bin/../lib/gcc/aarch64-none-elf/13.2.1/../../../../aarch64-none-elf/lib/libg.a(libc_a-putc.o)
                              /tools/arm-gnu-toolchain-13.2.Rel1-x86_64-aarch64-none-elf/bin/../lib/gcc/aarch64-none-elf/13.2.1/../../../../aarch64-none-elf/lib/libg.a(libc_a-putchar.o) (_putc_r)
/tools/arm-gnu-toolchain-13.2.Rel1-x86_64-aarch64-none-elf/bin/../lib/gcc/aarch64-none-elf/13.2.1/../../../../aarch64-none-elf/lib/libg.a(libc_a-mlock.o)
                              /tools/arm-gnu-toolchain-13.2.Rel1-x86_64-aarch64-none-elf/bin/../lib/gcc/aarch64-none-elf/13.2.1/../../../../aarch64-none-elf/lib/libg.a(libc_a-freer.o) (__malloc_lock)
/tools/arm-gnu-toolchain-13.2.Rel1-x86_64-aarch64-none-elf/bin/../lib/gcc/aarch64-none-elf/13.2.1/../../../../aarch64-none-elf/lib/libg.a(libc_a-wcsrtombs.o)
                              /tools/arm-gnu-toolchain-13.2.Rel1-x86_64-aarch64-none-elf/bin/../lib/gcc/aarch64-none-elf/13.2.1/../../../../aarch64-none-elf/lib/libg.a(libc_a-vfprintf.o) (_wcsrtombs_r)
/tools/arm-gnu-toolchain-13.2.Rel1-x86_64-aarch64-none-elf/bin/../lib/gcc/aarch64-none-elf/13.2.1/../../../../aarch64-none-elf/lib/libg.a(libc_a-dtoa.o)
                              /tools/arm-gnu-toolchain-13.2.Rel1-x86_64-aarch64-none-elf/bin/../lib/gcc/aarch64-none-elf/13.2.1/../../../../aarch64-none-elf/lib/libg.a(libc_a-vfprintf.o) (_dtoa_r)
/tools/arm-gnu-toolchain-13.2.Rel1-x86_64-aarch64-none-elf/bin/../lib/gcc/aarch64-none-elf/13.2.1/../../../../aarch64-none-elf/lib/libg.a(libc_a-ctype_.o)
                              /tools/arm-gnu-toolchain-13.2.Rel1-x86_64-aarch64-none-elf/bin/../lib/gcc/aarch64-none-elf/13.2.1/../../../../aarch64-none-elf/lib/libg.a(libc_a-locale.o) (__set_ctype)
/tools/arm-gnu-toolchain-13.2.Rel1-x86_64-aarch64-none-elf/bin/../lib/gcc/aarch64-none-elf/13.2.1/../../../../aarch64-none-elf/lib/libg.a(libc_a-closer.o)
                              /tools/arm-gnu-toolchain-13.2.Rel1-x86_64-aarch64-none-elf/bin/../lib/gcc/aarch64-none-elf/13.2.1/../../../../aarch64-none-elf/lib/libg.a(libc_a-stdio.o) (_close_r)
/tools/arm-gnu-toolchain-13.2.Rel1-x86_64-aarch64-none-elf/bin/../lib/gcc/aarch64-none-elf/13.2.1/../../../../aarch64-none-elf/lib/libg.a(libc_a-fflush.o)
                              /tools/arm-gnu-toolchain-13.2.Rel1-x86_64-aarch64-none-elf/bin/../lib/gcc/aarch64-none-elf/13.2.1/../../../../aarch64-none-elf/lib/libg.a(libc_a-fclose.o) (__sflush_r)
/tools/arm-gnu-toolchain-13.2.Rel1-x86_64-aarch64-none-elf/bin/../lib/gcc/aarch64-none-elf/13.2.1/../../../../aarch64-none-elf/lib/libg.a(libm_a-s_frexp.o)
                              /tools/arm-gnu-toolchain-13.2.Rel1-x86_64-aarch64-none-elf/bin/../lib/gcc/aarch64-none-elf/13.2.1/../../../../aarch64-none-elf/lib/libg.a(libc_a-vfprintf.o) (frexp)
/tools/arm-gnu-toolchain-13.2.Rel1-x86_64-aarch64-none-elf/bin/../lib/gcc/aarch64-none-elf/13.2.1/../../../../aarch64-none-elf/lib/libg.a(libc_a-strlcpy.o)
                              /tools/arm-gnu-toolchain-13.2.Rel1-x86_64-aarch64-none-elf/bin/../lib/gcc/aarch64-none-elf/13.2.1/../../../../aarch64-none-elf/lib/libg.a(libc_a-locale.o) (strlcpy)
/tools/arm-gnu-toolchain-13.2.Rel1-x86_64-aarch64-none-elf/bin/../lib/gcc/aarch64-none-elf/13.2.1/../../../../aarch64-none-elf/lib/libg.a(libc_a-strtol.o)
                              /tools/arm-gnu-toolchain-13.2.Rel1-x86_64-aarch64-none-elf/bin/../lib/gcc/aarch64-none-elf/13.2.1/../../../../aarch64-none-elf/lib/libg.a(libc_a-locale.o) (strtol)
/tools/arm-gnu-toolchain-13.2.Rel1-x86_64-aarch64-none-elf/bin/../lib/gcc/aarch64-none-elf/13.2.1/../../../../aarch64-none-elf/lib/libg.a(libc_a-strncasecmp.o)
                              /tools/arm-gnu-toolchain-13.2.Rel1-x86_64-aarch64-none-elf/bin/../lib/gcc/aarch64-none-elf/13.2.1/../../../../aarch64-none-elf/lib/libg.a(libc_a-locale.o) (strncasecmp)
/tools/arm-gnu-toolchain-13.2.Rel1-x86_64-aarch64-none-elf/bin/../lib/gcc/aarch64-none-elf/13.2.1/../../../../aarch64-none-elf/lib/libg.a(libc_a-getenv_r.o)
                              /tools/arm-gnu-toolchain-13.2.Rel1-x86_64-aarch64-none-elf/bin/../lib/gcc/aarch64-none-elf/13.2.1/../../../../aarch64-none-elf/lib/libg.a(libc_a-locale.o) (_getenv_r)
/tools/arm-gnu-toolchain-13.2.Rel1-x86_64-aarch64-none-elf/bin/../lib/gcc/aarch64-none-elf/13.2.1/../../../../aarch64-none-elf/lib/libg.a(libc_a-strncpy.o)
                              /tools/arm-gnu-toolchain-13.2.Rel1-x86_64-aarch64-none-elf/bin/../lib/gcc/aarch64-none-elf/13.2.1/../../../../aarch64-none-elf/lib/libg.a(libc_a-vfprintf.o) (strncpy)
/tools/arm-gnu-toolchain-13.2.Rel1-x86_64-aarch64-none-elf/bin/../lib/gcc/aarch64-none-elf/13.2.1/../../../../aarch64-none-elf/lib/libg.a(libc_a-fstatr.o)
                              /tools/arm-gnu-toolchain-13.2.Rel1-x86_64-aarch64-none-elf/bin/../lib/gcc/aarch64-none-elf/13.2.1/../../../../aarch64-none-elf/lib/libg.a(libc_a-makebuf.o) (_fstat_r)
/tools/arm-gnu-toolchain-13.2.Rel1-x86_64-aarch64-none-elf/bin/../lib/gcc/aarch64-none-elf/13.2.1/../../../../aarch64-none-elf/lib/libg.a(libc_a-isattyr.o)
                              /tools/arm-gnu-toolchain-13.2.Rel1-x86_64-aarch64-none-elf/bin/../lib/gcc/aarch64-none-elf/13.2.1/../../../../aarch64-none-elf/lib/libg.a(libc_a-makebuf.o) (_isatty_r)
/tools/arm-gnu-toolchain-13.2.Rel1-x86_64-aarch64-none-elf/bin/../lib/gcc/aarch64-none-elf/13.2.1/../../../../aarch64-none-elf/lib/libg.a(libc_a-lseekr.o)
                              /tools/arm-gnu-toolchain-13.2.Rel1-x86_64-aarch64-none-elf/bin/../lib/gcc/aarch64-none-elf/13.2.1/../../../../aarch64-none-elf/lib/libg.a(libc_a-stdio.o) (_lseek_r)
/tools/arm-gnu-toolchain-13.2.Rel1-x86_64-aarch64-none-elf/bin/../lib/gcc/aarch64-none-elf/13.2.1/../../../../aarch64-none-elf/lib/libg.a(libc_a-readr.o)
                              /tools/arm-gnu-toolchain-13.2.Rel1-x86_64-aarch64-none-elf/bin/../lib/gcc/aarch64-none-elf/13.2.1/../../../../aarch64-none-elf/lib/libg.a(libc_a-stdio.o) (_read_r)
/tools/arm-gnu-toolchain-13.2.Rel1-x86_64-aarch64-none-elf/bin/../lib/gcc/aarch64-none-elf/13.2.1/../../../../aarch64-none-elf/lib/libg.a(libc_a-strchr.o)
                              /tools/arm-gnu-toolchain-13.2.Rel1-x86_64-aarch64-none-elf/bin/../lib/gcc/aarch64-none-elf/13.2.1/../../../../aarch64-none-elf/lib/libg.a(libc_a-locale.o) (strchr)
/tools/arm-gnu-toolchain-13.2.Rel1-x86_64-aarch64-none-elf/bin/../lib/gcc/aarch64-none-elf/13.2.1/../../../../aarch64-none-elf/lib/libg.a(libc_a-strcmp.o)
                              /tools/arm-gnu-toolchain-13.2.Rel1-x86_64-aarch64-none-elf/bin/../lib/gcc/aarch64-none-elf/13.2.1/../../../../aarch64-none-elf/lib/libg.a(libc_a-locale.o) (strcmp)
/tools/arm-gnu-toolchain-13.2.Rel1-x86_64-aarch64-none-elf/bin/../lib/gcc/aarch64-none-elf/13.2.1/../../../../aarch64-none-elf/lib/libg.a(libc_a-strcpy.o)
                              /tools/arm-gnu-toolchain-13.2.Rel1-x86_64-aarch64-none-elf/bin/../lib/gcc/aarch64-none-elf/13.2.1/../../../../aarch64-none-elf/lib/libg.a(libc_a-locale.o) (strcpy)
/tools/arm-gnu-toolchain-13.2.Rel1-x86_64-aarch64-none-elf/bin/../lib/gcc/aarch64-none-elf/13.2.1/../../../../aarch64-none-elf/lib/libg.a(libc_a-fputwc.o)
                              /tools/arm-gnu-toolchain-13.2.Rel1-x86_64-aarch64-none-elf/bin/../lib/gcc/aarch64-none-elf/13.2.1/../../../../aarch64-none-elf/lib/libg.a(libc_a-vfiprintf.o) (_fputwc_r)
/tools/arm-gnu-toolchain-13.2.Rel1-x86_64-aarch64-none-elf/bin/../lib/gcc/aarch64-none-elf/13.2.1/../../../../aarch64-none-elf/lib/libg.a(libc_a-wctomb_r.o)
                              /tools/arm-gnu-toolchain-13.2.Rel1-x86_64-aarch64-none-elf/bin/../lib/gcc/aarch64-none-elf/13.2.1/../../../../aarch64-none-elf/lib/libg.a(libc_a-locale.o) (__ascii_wctomb)
/tools/arm-gnu-toolchain-13.2.Rel1-x86_64-aarch64-none-elf/bin/../lib/gcc/aarch64-none-elf/13.2.1/../../../../aarch64-none-elf/lib/libg.a(libc_a-fvwrite.o)
                              /tools/arm-gnu-toolchain-13.2.Rel1-x86_64-aarch64-none-elf/bin/../lib/gcc/aarch64-none-elf/13.2.1/../../../../aarch64-none-elf/lib/libg.a(libc_a-vfiprintf.o) (__sfvwrite_r)
/tools/arm-gnu-toolchain-13.2.Rel1-x86_64-aarch64-none-elf/bin/../lib/gcc/aarch64-none-elf/13.2.1/../../../../aarch64-none-elf/lib/libg.a(libc_a-strncmp.o)
                              /tools/arm-gnu-toolchain-13.2.Rel1-x86_64-aarch64-none-elf/bin/../lib/gcc/aarch64-none-elf/13.2.1/../../../../aarch64-none-elf/lib/libg.a(libc_a-getenv_r.o) (strncmp)
/tools/arm-gnu-toolchain-13.2.Rel1-x86_64-aarch64-none-elf/bin/../lib/gcc/aarch64-none-elf/13.2.1/../../../../aarch64-none-elf/lib/libg.a(libc_a-wbuf.o)
                              /tools/arm-gnu-toolchain-13.2.Rel1-x86_64-aarch64-none-elf/bin/../lib/gcc/aarch64-none-elf/13.2.1/../../../../aarch64-none-elf/lib/libg.a(libc_a-putc.o) (__swbuf_r)
/tools/arm-gnu-toolchain-13.2.Rel1-x86_64-aarch64-none-elf/bin/../lib/gcc/aarch64-none-elf/13.2.1/../../../../aarch64-none-elf/lib/libg.a(libc_a-mbtowc_r.o)
                              /tools/arm-gnu-toolchain-13.2.Rel1-x86_64-aarch64-none-elf/bin/../lib/gcc/aarch64-none-elf/13.2.1/../../../../aarch64-none-elf/lib/libg.a(libc_a-locale.o) (__ascii_mbtowc)
/tools/arm-gnu-toolchain-13.2.Rel1-x86_64-aarch64-none-elf/bin/../lib/gcc/aarch64-none-elf/13.2.1/../../../../aarch64-none-elf/lib/libg.a(libc_a-assert.o)
                              /tools/arm-gnu-toolchain-13.2.Rel1-x86_64-aarch64-none-elf/bin/../lib/gcc/aarch64-none-elf/13.2.1/../../../../aarch64-none-elf/lib/libg.a(libc_a-dtoa.o) (__assert_func)
/tools/arm-gnu-toolchain-13.2.Rel1-x86_64-aarch64-none-elf/bin/../lib/gcc/aarch64-none-elf/13.2.1/../../../../aarch64-none-elf/lib/libg.a(libc_a-strcasecmp.o)
                              /tools/arm-gnu-toolchain-13.2.Rel1-x86_64-aarch64-none-elf/bin/../lib/gcc/aarch64-none-elf/13.2.1/../../../../aarch64-none-elf/lib/libg.a(libc_a-locale.o) (strcasecmp)
/tools/arm-gnu-toolchain-13.2.Rel1-x86_64-aarch64-none-elf/bin/../lib/gcc/aarch64-none-elf/13.2.1/../../../../aarch64-none-elf/lib/libg.a(libc_a-strcat.o)
                              /tools/arm-gnu-toolchain-13.2.Rel1-x86_64-aarch64-none-elf/bin/../lib/gcc/aarch64-none-elf/13.2.1/../../../../aarch64-none-elf/lib/libg.a(libc_a-locale.o) (strcat)
/tools/arm-gnu-toolchain-13.2.Rel1-x86_64-aarch64-none-elf/bin/../lib/gcc/aarch64-none-elf/13.2.1/../../../../aarch64-none-elf/lib/libg.a(libc_a-mprec.o)
                              /tools/arm-gnu-toolchain-13.2.Rel1-x86_64-aarch64-none-elf/bin/../lib/gcc/aarch64-none-elf/13.2.1/../../../../aarch64-none-elf/lib/libg.a(libc_a-dtoa.o) (_Balloc)
/tools/arm-gnu-toolchain-13.2.Rel1-x86_64-aarch64-none-elf/bin/../lib/gcc/aarch64-none-elf/13.2.1/../../../../aarch64-none-elf/lib/libg.a(libc_a-callocr.o)
                              /tools/arm-gnu-toolchain-13.2.Rel1-x86_64-aarch64-none-elf/bin/../lib/gcc/aarch64-none-elf/13.2.1/../../../../aarch64-none-elf/lib/libg.a(libc_a-mprec.o) (_calloc_r)
/tools/arm-gnu-toolchain-13.2.Rel1-x86_64-aarch64-none-elf/bin/../lib/gcc/aarch64-none-elf/13.2.1/../../../../aarch64-none-elf/lib/libg.a(libc_a-wcsnrtombs.o)
                              /tools/arm-gnu-toolchain-13.2.Rel1-x86_64-aarch64-none-elf/bin/../lib/gcc/aarch64-none-elf/13.2.1/../../../../aarch64-none-elf/lib/libg.a(libc_a-wcsrtombs.o) (_wcsnrtombs_r)
/tools/arm-gnu-toolchain-13.2.Rel1-x86_64-aarch64-none-elf/bin/../lib/gcc/aarch64-none-elf/13.2.1/../../../../aarch64-none-elf/lib/libg.a(libc_a-environ.o)
                              /tools/arm-gnu-toolchain-13.2.Rel1-x86_64-aarch64-none-elf/bin/../lib/gcc/aarch64-none-elf/13.2.1/../../../../aarch64-none-elf/lib/libg.a(libc_a-getenv_r.o) (environ)
/tools/arm-gnu-toolchain-13.2.Rel1-x86_64-aarch64-none-elf/bin/../lib/gcc/aarch64-none-elf/13.2.1/../../../../aarch64-none-elf/lib/libg.a(libc_a-reallocr.o)
                              /tools/arm-gnu-toolchain-13.2.Rel1-x86_64-aarch64-none-elf/bin/../lib/gcc/aarch64-none-elf/13.2.1/../../../../aarch64-none-elf/lib/libg.a(libc_a-fvwrite.o) (_realloc_r)
/tools/arm-gnu-toolchain-13.2.Rel1-x86_64-aarch64-none-elf/bin/../lib/gcc/aarch64-none-elf/13.2.1/../../../../aarch64-none-elf/lib/libg.a(libc_a-envlock.o)
                              /tools/arm-gnu-toolchain-13.2.Rel1-x86_64-aarch64-none-elf/bin/../lib/gcc/aarch64-none-elf/13.2.1/../../../../aarch64-none-elf/lib/libg.a(libc_a-getenv_r.o) (__env_lock)
/tools/arm-gnu-toolchain-13.2.Rel1-x86_64-aarch64-none-elf/bin/../lib/gcc/aarch64-none-elf/13.2.1/../../../../aarch64-none-elf/lib/libg.a(libc_a-fiprintf.o)
                              /tools/arm-gnu-toolchain-13.2.Rel1-x86_64-aarch64-none-elf/bin/../lib/gcc/aarch64-none-elf/13.2.1/../../../../aarch64-none-elf/lib/libg.a(libc_a-assert.o) (fiprintf)
/tools/arm-gnu-toolchain-13.2.Rel1-x86_64-aarch64-none-elf/bin/../lib/gcc/aarch64-none-elf/13.2.1/../../../../aarch64-none-elf/lib/libg.a(libc_a-abort.o)
                              /tools/arm-gnu-toolchain-13.2.Rel1-x86_64-aarch64-none-elf/bin/../lib/gcc/aarch64-none-elf/13.2.1/../../../../aarch64-none-elf/lib/libg.a(libc_a-assert.o) (abort)
/tools/arm-gnu-toolchain-13.2.Rel1-x86_64-aarch64-none-elf/bin/../lib/gcc/aarch64-none-elf/13.2.1/../../../../aarch64-none-elf/lib/libg.a(libc_a-signal.o)
                              /tools/arm-gnu-toolchain-13.2.Rel1-x86_64-aarch64-none-elf/bin/../lib/gcc/aarch64-none-elf/13.2.1/../../../../aarch64-none-elf/lib/libg.a(libc_a-abort.o) (raise)
/tools/arm-gnu-toolchain-13.2.Rel1-x86_64-aarch64-none-elf/bin/../lib/gcc/aarch64-none-elf/13.2.1/../../../../aarch64-none-elf/lib/libg.a(libc_a-signalr.o)
                              /tools/arm-gnu-toolchain-13.2.Rel1-x86_64-aarch64-none-elf/bin/../lib/gcc/aarch64-none-elf/13.2.1/../../../../aarch64-none-elf/lib/libg.a(libc_a-signal.o) (_kill_r)
/tools/arm-gnu-toolchain-13.2.Rel1-x86_64-aarch64-none-elf/bin/../lib/gcc/aarch64-none-elf/13.2.1/libgcc.a(trunctfdf2.o)
                              /tools/arm-gnu-toolchain-13.2.Rel1-x86_64-aarch64-none-elf/bin/../lib/gcc/aarch64-none-elf/13.2.1/../../../../aarch64-none-elf/lib/libg.a(libc_a-vfprintf.o) (__trunctfdf2)
/tools/arm-gnu-toolchain-13.2.Rel1-x86_64-aarch64-none-elf/bin/../lib/gcc/aarch64-none-elf/13.2.1/libgcc.a(sfp-exceptions.o)
                              /tools/arm-gnu-toolchain-13.2.Rel1-x86_64-aarch64-none-elf/bin/../lib/gcc/aarch64-none-elf/13.2.1/libgcc.a(trunctfdf2.o) (__sfp_handle_exceptions)

Merging program properties

Removed property 0xc0000000 to merge /tools/arm-gnu-toolchain-13.2.Rel1-x86_64-aarch64-none-elf/bin/../lib/gcc/aarch64-none-elf/13.2.1/../../../../aarch64-none-elf/lib/libg.a(libc_a-strlen.o) (0x3) and CMakeFiles/freertos_kernel.elf.dir/main_cp1.c.o (not found)
Removed property 0xc0000000 to merge /tools/arm-gnu-toolchain-13.2.Rel1-x86_64-aarch64-none-elf/bin/../lib/gcc/aarch64-none-elf/13.2.1/../../../../aarch64-none-elf/lib/libg.a(libc_a-strlen.o) (not found) and /tools/arm-gnu-toolchain-13.2.Rel1-x86_64-aarch64-none-elf/bin/../lib/gcc/aarch64-none-elf/13.2.1/../../../../aarch64-none-elf/lib/libg.a(libc_a-memcpy.o) (0x3)
Removed property 0xc0000000 to merge /tools/arm-gnu-toolchain-13.2.Rel1-x86_64-aarch64-none-elf/bin/../lib/gcc/aarch64-none-elf/13.2.1/../../../../aarch64-none-elf/lib/libg.a(libc_a-strlen.o) (not found) and /tools/arm-gnu-toolchain-13.2.Rel1-x86_64-aarch64-none-elf/bin/../lib/gcc/aarch64-none-elf/13.2.1/../../../../aarch64-none-elf/lib/libg.a(libc_a-memset.o) (0x3)
Removed property 0xc0000000 to merge /tools/arm-gnu-toolchain-13.2.Rel1-x86_64-aarch64-none-elf/bin/../lib/gcc/aarch64-none-elf/13.2.1/../../../../aarch64-none-elf/lib/libg.a(libc_a-strlen.o) (not found) and /tools/arm-gnu-toolchain-13.2.Rel1-x86_64-aarch64-none-elf/bin/../lib/gcc/aarch64-none-elf/13.2.1/../../../../aarch64-none-elf/lib/libg.a(libc_a-memchr.o) (0x3)
Removed property 0xc0000000 to merge /tools/arm-gnu-toolchain-13.2.Rel1-x86_64-aarch64-none-elf/bin/../lib/gcc/aarch64-none-elf/13.2.1/../../../../aarch64-none-elf/lib/libg.a(libc_a-strlen.o) (not found) and /tools/arm-gnu-toolchain-13.2.Rel1-x86_64-aarch64-none-elf/bin/../lib/gcc/aarch64-none-elf/13.2.1/../../../../aarch64-none-elf/lib/libg.a(libc_a-strchr.o) (0x3)
Removed property 0xc0000000 to merge /tools/arm-gnu-toolchain-13.2.Rel1-x86_64-aarch64-none-elf/bin/../lib/gcc/aarch64-none-elf/13.2.1/../../../../aarch64-none-elf/lib/libg.a(libc_a-strlen.o) (not found) and /tools/arm-gnu-toolchain-13.2.Rel1-x86_64-aarch64-none-elf/bin/../lib/gcc/aarch64-none-elf/13.2.1/../../../../aarch64-none-elf/lib/libg.a(libc_a-strcmp.o) (0x3)
Removed property 0xc0000000 to merge /tools/arm-gnu-toolchain-13.2.Rel1-x86_64-aarch64-none-elf/bin/../lib/gcc/aarch64-none-elf/13.2.1/../../../../aarch64-none-elf/lib/libg.a(libc_a-strlen.o) (not found) and /tools/arm-gnu-toolchain-13.2.Rel1-x86_64-aarch64-none-elf/bin/../lib/gcc/aarch64-none-elf/13.2.1/../../../../aarch64-none-elf/lib/libg.a(libc_a-strcpy.o) (0x3)
Removed property 0xc0000000 to merge /tools/arm-gnu-toolchain-13.2.Rel1-x86_64-aarch64-none-elf/bin/../lib/gcc/aarch64-none-elf/13.2.1/../../../../aarch64-none-elf/lib/libg.a(libc_a-strlen.o) (not found) and /tools/arm-gnu-toolchain-13.2.Rel1-x86_64-aarch64-none-elf/bin/../lib/gcc/aarch64-none-elf/13.2.1/../../../../aarch64-none-elf/lib/libg.a(libc_a-strncmp.o) (0x3)

Discarded input sections

 .note.gnu.property
                0x0000000000000000       0x20 /tools/arm-gnu-toolchain-13.2.Rel1-x86_64-aarch64-none-elf/bin/../lib/gcc/aarch64-none-elf/13.2.1/../../../../aarch64-none-elf/lib/libg.a(libc_a-strlen.o)
 .eh_frame      0x0000000000000000       0x28 /tools/arm-gnu-toolchain-13.2.Rel1-x86_64-aarch64-none-elf/bin/../lib/gcc/aarch64-none-elf/13.2.1/../../../../aarch64-none-elf/lib/libg.a(libc_a-strlen.o)
 .note.gnu.property
                0x0000000000000000       0x20 /tools/arm-gnu-toolchain-13.2.Rel1-x86_64-aarch64-none-elf/bin/../lib/gcc/aarch64-none-elf/13.2.1/../../../../aarch64-none-elf/lib/libg.a(libc_a-memcpy.o)
 .eh_frame      0x0000000000000000       0x28 /tools/arm-gnu-toolchain-13.2.Rel1-x86_64-aarch64-none-elf/bin/../lib/gcc/aarch64-none-elf/13.2.1/../../../../aarch64-none-elf/lib/libg.a(libc_a-memcpy.o)
 .note.gnu.property
                0x0000000000000000       0x20 /tools/arm-gnu-toolchain-13.2.Rel1-x86_64-aarch64-none-elf/bin/../lib/gcc/aarch64-none-elf/13.2.1/../../../../aarch64-none-elf/lib/libg.a(libc_a-memset.o)
 .eh_frame      0x0000000000000000       0x28 /tools/arm-gnu-toolchain-13.2.Rel1-x86_64-aarch64-none-elf/bin/../lib/gcc/aarch64-none-elf/13.2.1/../../../../aarch64-none-elf/lib/libg.a(libc_a-memset.o)
 .note.gnu.property
                0x0000000000000000       0x20 /tools/arm-gnu-toolchain-13.2.Rel1-x86_64-aarch64-none-elf/bin/../lib/gcc/aarch64-none-elf/13.2.1/../../../../aarch64-none-elf/lib/libg.a(libc_a-memchr.o)
 .eh_frame      0x0000000000000000       0x28 /tools/arm-gnu-toolchain-13.2.Rel1-x86_64-aarch64-none-elf/bin/../lib/gcc/aarch64-none-elf/13.2.1/../../../../aarch64-none-elf/lib/libg.a(libc_a-memchr.o)
 .note.gnu.property
                0x0000000000000000       0x20 /tools/arm-gnu-toolchain-13.2.Rel1-x86_64-aarch64-none-elf/bin/../lib/gcc/aarch64-none-elf/13.2.1/../../../../aarch64-none-elf/lib/libg.a(libc_a-strchr.o)
 .eh_frame      0x0000000000000000       0x28 /tools/arm-gnu-toolchain-13.2.Rel1-x86_64-aarch64-none-elf/bin/../lib/gcc/aarch64-none-elf/13.2.1/../../../../aarch64-none-elf/lib/libg.a(libc_a-strchr.o)
 .note.gnu.property
                0x0000000000000000       0x20 /tools/arm-gnu-toolchain-13.2.Rel1-x86_64-aarch64-none-elf/bin/../lib/gcc/aarch64-none-elf/13.2.1/../../../../aarch64-none-elf/lib/libg.a(libc_a-strcmp.o)
 .eh_frame      0x0000000000000000       0x28 /tools/arm-gnu-toolchain-13.2.Rel1-x86_64-aarch64-none-elf/bin/../lib/gcc/aarch64-none-elf/13.2.1/../../../../aarch64-none-elf/lib/libg.a(libc_a-strcmp.o)
 .note.gnu.property
                0x0000000000000000       0x20 /tools/arm-gnu-toolchain-13.2.Rel1-x86_64-aarch64-none-elf/bin/../lib/gcc/aarch64-none-elf/13.2.1/../../../../aarch64-none-elf/lib/libg.a(libc_a-strcpy.o)
 .eh_frame      0x0000000000000000       0x28 /tools/arm-gnu-toolchain-13.2.Rel1-x86_64-aarch64-none-elf/bin/../lib/gcc/aarch64-none-elf/13.2.1/../../../../aarch64-none-elf/lib/libg.a(libc_a-strcpy.o)
 .note.gnu.property
                0x0000000000000000       0x20 /tools/arm-gnu-toolchain-13.2.Rel1-x86_64-aarch64-none-elf/bin/../lib/gcc/aarch64-none-elf/13.2.1/../../../../aarch64-none-elf/lib/libg.a(libc_a-strncmp.o)
 .eh_frame      0x0000000000000000       0x28 /tools/arm-gnu-toolchain-13.2.Rel1-x86_64-aarch64-none-elf/bin/../lib/gcc/aarch64-none-elf/13.2.1/../../../../aarch64-none-elf/lib/libg.a(libc_a-strncmp.o)

Memory Configuration

Name             Origin             Length             Attributes
bl31             0x0000000000000000 0x0000000000200000 !xrw
dram0_pa         0x0000000014200000 0x0000000029e00000 xrw
dram0            0x0000010014200000 0x0000000029e00000 xrw
cs_q             0x000001000fc00000 0x0000000000200000 rw
*default*        0x0000000000000000 0xffffffffffffffff

Linker script and memory map

LOAD /tools/arm-gnu-toolchain-13.2.Rel1-x86_64-aarch64-none-elf/bin/../lib/gcc/aarch64-none-elf/13.2.1/../../../../aarch64-none-elf/lib/libc.a
LOAD /tools/arm-gnu-toolchain-13.2.Rel1-x86_64-aarch64-none-elf/bin/../lib/gcc/aarch64-none-elf/13.2.1/libgcc.a
LOAD /tools/arm-gnu-toolchain-13.2.Rel1-x86_64-aarch64-none-elf/bin/../lib/gcc/aarch64-none-elf/13.2.1/../../../../aarch64-none-elf/lib/libm.a
LOAD CMakeFiles/freertos_kernel.elf.dir/main_cp1.c.o
LOAD gloss/CMakeFiles/freedom_metal.dir/freedom_metal.c.o
LOAD gloss/CMakeFiles/freedom_metal.dir/nanosleep.c.o
LOAD gloss/CMakeFiles/freedom_metal.dir/sys_access.c.o
LOAD gloss/CMakeFiles/freedom_metal.dir/sys_chdir.c.o
LOAD gloss/CMakeFiles/freedom_metal.dir/sys_chmod.c.o
LOAD gloss/CMakeFiles/freedom_metal.dir/sys_chown.c.o
LOAD gloss/CMakeFiles/freedom_metal.dir/sys_clock_gettime.c.o
LOAD gloss/CMakeFiles/freedom_metal.dir/sys_close.c.o
LOAD gloss/CMakeFiles/freedom_metal.dir/sys_execve.c.o
LOAD gloss/CMakeFiles/freedom_metal.dir/sys_exit.c.o
LOAD gloss/CMakeFiles/freedom_metal.dir/sys_faccessat.c.o
LOAD gloss/CMakeFiles/freedom_metal.dir/sys_fork.c.o
LOAD gloss/CMakeFiles/freedom_metal.dir/sys_fstat.c.o
LOAD gloss/CMakeFiles/freedom_metal.dir/sys_fstatat.c.o
LOAD gloss/CMakeFiles/freedom_metal.dir/sys_ftime.c.o
LOAD gloss/CMakeFiles/freedom_metal.dir/sys_getcwd.c.o
LOAD gloss/CMakeFiles/freedom_metal.dir/sys_getpid.c.o
LOAD gloss/CMakeFiles/freedom_metal.dir/sys_gettimeofday.c.o
LOAD gloss/CMakeFiles/freedom_metal.dir/sys_isatty.c.o
LOAD gloss/CMakeFiles/freedom_metal.dir/sys_kill.c.o
LOAD gloss/CMakeFiles/freedom_metal.dir/sys_link.c.o
LOAD gloss/CMakeFiles/freedom_metal.dir/sys_lseek.c.o
LOAD gloss/CMakeFiles/freedom_metal.dir/sys_lstat.c.o
LOAD gloss/CMakeFiles/freedom_metal.dir/sys_open.c.o
LOAD gloss/CMakeFiles/freedom_metal.dir/sys_openat.c.o
LOAD gloss/CMakeFiles/freedom_metal.dir/sys_read.c.o
LOAD gloss/CMakeFiles/freedom_metal.dir/sys_sbrk.c.o
LOAD gloss/CMakeFiles/freedom_metal.dir/sys_sysconf.c.o
LOAD gloss/CMakeFiles/freedom_metal.dir/sys_times.c.o
LOAD gloss/CMakeFiles/freedom_metal.dir/sys_unlink.c.o
LOAD gloss/CMakeFiles/freedom_metal.dir/sys_utime.c.o
LOAD gloss/CMakeFiles/freedom_metal.dir/sys_wait.c.o
LOAD gloss/CMakeFiles/freedom_metal.dir/sys_write.c.o
LOAD build/drivers/mailbox/CMakeFiles/mailbox.dir/mailbox.c.o
LOAD build/drivers/mailbox/CMakeFiles/mailbox.dir/mailbox_cb.c.o
LOAD build/drivers/pmu/CMakeFiles/pmu.dir/pmu.c.o
LOAD build/drivers/timer/dw_apb_timer/CMakeFiles/dw_apb_timer.dir/dw_apb_timer.c.o
LOAD build/drivers/qspi/qspi_apb/CMakeFiles/qspi_apb.dir/qspi_apb.c.o
LOAD build/drivers/flash/CMakeFiles/flash.dir/mt25q_flash.c.o
LOAD libfreertos_kernel.a
LOAD portable/libfreertos_kernel_port.a
LOAD build/drivers/common/libdriver.a
LOAD build/drivers/common/libassert.a
LOAD build/drivers/common/libinterrupt.a
LOAD build/drivers/intc/libintc.a
LOAD build/drivers/psci/libpsci.a
LOAD build/drivers/timer/generic_timer/libgeneric_timer.a
LOAD portable/libfreertos_arch.a
LOAD libfreertos_kernel_config.a
LOAD portable/libsmp.a
LOAD portable/libsmccc.a
LOAD build/common/arch/libcommon.a
LOAD build/drivers/psci/libpsci.a
LOAD portable/libsmccc.a
LOAD portable/libmmu.a
LOAD portable/libfreertos_arch.a
LOAD build/drivers/intc/libintc.a
LOAD build/drivers/timer/generic_timer/libgeneric_timer.a
LOAD build/drivers/common/libdriver.a
LOAD build/drivers/common/libassert.a
LOAD build/drivers/common/libinterrupt.a
LOAD /tools/arm-gnu-toolchain-13.2.Rel1-x86_64-aarch64-none-elf/bin/../lib/gcc/aarch64-none-elf/13.2.1/libgcc.a
LOAD /tools/arm-gnu-toolchain-13.2.Rel1-x86_64-aarch64-none-elf/bin/../lib/gcc/aarch64-none-elf/13.2.1/../../../../aarch64-none-elf/lib/libg.a
LOAD /tools/arm-gnu-toolchain-13.2.Rel1-x86_64-aarch64-none-elf/bin/../lib/gcc/aarch64-none-elf/13.2.1/../../../../aarch64-none-elf/lib/libc.a
LOAD /tools/arm-gnu-toolchain-13.2.Rel1-x86_64-aarch64-none-elf/bin/../lib/gcc/aarch64-none-elf/13.2.1/libgcc.a
                0x0000000000004000                isr_stack_size = 0x4000
                0x0000000000004000                _stack_size = 0x4000
                0x0000000000001000                mmu_page_size = 0x1000
                0x0000000000002000                mmu_page_2mb = 0x2000
                0x0000000000002000                dma_mcode_region_size = 0x2000
                0x0000000000001000                dma_reserved_size = 0x1000
                0x0000000000001000                smmu_cte_size = 0x1000
                0x0000000000001000                smmu_cd_size = 0x1000
                0x0000000000008000                smmu_cmdq_size = 0x8000
                0x0000000000008000                smmu_evtq_size = 0x8000
                0x0000000000001000                dma_smmu_reserved_size = 0x1000
                0x0000000000200000                dyn_heap_size = 0x200000

.text           0x0000010014200000    0x105d0 load address 0x0000000014200000
                0x0000010014200000                text_region_start = .
 *(.text.startup)
 .text.startup  0x0000010014200000       0xf8 portable/libfreertos_arch.a(startup.S.o)
                0x0000010014200000                _start
 *(.text.vectors)
 *fill*         0x00000100142000f8      0x708 
 .text.vectors  0x0000010014200800      0x784 portable/libfreertos_arch.a(vector.S.o)
                0x0000010014200800                _freertos_vector_table
 *(.text)
 *fill*         0x0000010014200f84       0x1c 
 .text          0x0000010014200fa0       0xe4 CMakeFiles/freertos_kernel.elf.dir/main_cp1.c.o
                0x0000010014200fa0                vAssertCalled
                0x0000010014200ff0                prvSetupHardware
                0x0000010014201010                main
 *fill*         0x0000010014201084       0x1c 
 .text          0x00000100142010a0       0x98 gloss/CMakeFiles/freedom_metal.dir/freedom_metal.c.o
                0x00000100142010a0                metal_cpu_get_current_hartid
                0x00000100142010b0                metal_timer_get_timebase_frequency
                0x00000100142010c0                metal_timer_get_cyclecount
                0x00000100142010d0                metal_shutdown
                0x00000100142010e0                metal_mem_scrub
                0x0000010014201130                metal_tty_putc
 *fill*         0x0000010014201138        0x8 
 .text          0x0000010014201140       0x24 gloss/CMakeFiles/freedom_metal.dir/nanosleep.c.o
                0x0000010014201140                nanosleep
 *fill*         0x0000010014201164        0xc 
 .text          0x0000010014201170       0x24 gloss/CMakeFiles/freedom_metal.dir/sys_access.c.o
                0x0000010014201170                _access
 *fill*         0x0000010014201194        0xc 
 .text          0x00000100142011a0       0x24 gloss/CMakeFiles/freedom_metal.dir/sys_chdir.c.o
                0x00000100142011a0                _chdir
 *fill*         0x00000100142011c4        0xc 
 .text          0x00000100142011d0       0x24 gloss/CMakeFiles/freedom_metal.dir/sys_chmod.c.o
                0x00000100142011d0                _chmod
 *fill*         0x00000100142011f4        0xc 
 .text          0x0000010014201200       0x24 gloss/CMakeFiles/freedom_metal.dir/sys_chown.c.o
                0x0000010014201200                _chown
 *fill*         0x0000010014201224        0xc 
 .text          0x0000010014201230       0x84 gloss/CMakeFiles/freedom_metal.dir/sys_clock_gettime.c.o
                0x0000010014201230                clock_getres
                0x0000010014201260                clock_gettime
                0x0000010014201290                clock_settime
 *fill*         0x00000100142012b4        0xc 
 .text          0x00000100142012c0       0x24 gloss/CMakeFiles/freedom_metal.dir/sys_close.c.o
                0x00000100142012c0                _close
 *fill*         0x00000100142012e4        0xc 
 .text          0x00000100142012f0       0x24 gloss/CMakeFiles/freedom_metal.dir/sys_execve.c.o
                0x00000100142012f0                _execve
 *fill*         0x0000010014201314        0xc 
 .text          0x0000010014201320       0x24 gloss/CMakeFiles/freedom_metal.dir/sys_exit.c.o
                0x0000010014201320                _exit
 *fill*         0x0000010014201344        0xc 
 .text          0x0000010014201350       0x24 gloss/CMakeFiles/freedom_metal.dir/sys_faccessat.c.o
                0x0000010014201350                _faccessat
 *fill*         0x0000010014201374        0xc 
 .text          0x0000010014201380       0x24 gloss/CMakeFiles/freedom_metal.dir/sys_fork.c.o
                0x0000010014201380                _fork
 *fill*         0x00000100142013a4        0xc 
 .text          0x00000100142013b0       0x24 gloss/CMakeFiles/freedom_metal.dir/sys_fstat.c.o
                0x00000100142013b0                _fstat
 *fill*         0x00000100142013d4        0xc 
 .text          0x00000100142013e0       0x24 gloss/CMakeFiles/freedom_metal.dir/sys_fstatat.c.o
                0x00000100142013e0                _fstatat
 *fill*         0x0000010014201404        0xc 
 .text          0x0000010014201410       0x24 gloss/CMakeFiles/freedom_metal.dir/sys_ftime.c.o
                0x0000010014201410                _ftime
 *fill*         0x0000010014201434        0xc 
 .text          0x0000010014201440       0x24 gloss/CMakeFiles/freedom_metal.dir/sys_getcwd.c.o
                0x0000010014201440                _getcwd
 *fill*         0x0000010014201464        0xc 
 .text          0x0000010014201470        0xc gloss/CMakeFiles/freedom_metal.dir/sys_getpid.c.o
                0x0000010014201470                _getpid
 *fill*         0x000001001420147c        0x4 
 .text          0x0000010014201480       0x88 gloss/CMakeFiles/freedom_metal.dir/sys_gettimeofday.c.o
                0x0000010014201480                gettimeofday
                0x0000010014201480                _gettimeofday
 *fill*         0x0000010014201508        0x8 
 .text          0x0000010014201510        0xc gloss/CMakeFiles/freedom_metal.dir/sys_isatty.c.o
                0x0000010014201510                _isatty
 *fill*         0x000001001420151c        0x4 
 .text          0x0000010014201520       0x24 gloss/CMakeFiles/freedom_metal.dir/sys_kill.c.o
                0x0000010014201520                _kill
 *fill*         0x0000010014201544        0xc 
 .text          0x0000010014201550       0x24 gloss/CMakeFiles/freedom_metal.dir/sys_link.c.o
                0x0000010014201550                _link
 *fill*         0x0000010014201574        0xc 
 .text          0x0000010014201580       0x24 gloss/CMakeFiles/freedom_metal.dir/sys_lseek.c.o
                0x0000010014201580                _lseek
 *fill*         0x00000100142015a4        0xc 
 .text          0x00000100142015b0       0x24 gloss/CMakeFiles/freedom_metal.dir/sys_lstat.c.o
                0x00000100142015b0                _lstat
 *fill*         0x00000100142015d4        0xc 
 .text          0x00000100142015e0       0x24 gloss/CMakeFiles/freedom_metal.dir/sys_open.c.o
                0x00000100142015e0                _open
 *fill*         0x0000010014201604        0xc 
 .text          0x0000010014201610       0x24 gloss/CMakeFiles/freedom_metal.dir/sys_openat.c.o
                0x0000010014201610                _openat
 *fill*         0x0000010014201634        0xc 
 .text          0x0000010014201640       0x24 gloss/CMakeFiles/freedom_metal.dir/sys_read.c.o
                0x0000010014201640                _read
 *fill*         0x0000010014201664       0x1c 
 .text          0x0000010014201680       0xa0 gloss/CMakeFiles/freedom_metal.dir/sys_sbrk.c.o
                0x0000010014201680                _brk
                0x00000100142016a0                _sbrk
 .text          0x0000010014201720       0x10 gloss/CMakeFiles/freedom_metal.dir/sys_sysconf.c.o
                0x0000010014201720                sysconf
                0x0000010014201720                _sysconf
 .text          0x0000010014201730       0x68 gloss/CMakeFiles/freedom_metal.dir/sys_times.c.o
                0x0000010014201730                times
                0x0000010014201730                _times
 *fill*         0x0000010014201798        0x8 
 .text          0x00000100142017a0       0x24 gloss/CMakeFiles/freedom_metal.dir/sys_unlink.c.o
                0x00000100142017a0                _unlink
 *fill*         0x00000100142017c4        0xc 
 .text          0x00000100142017d0       0x24 gloss/CMakeFiles/freedom_metal.dir/sys_utime.c.o
                0x00000100142017d0                _utime
 *fill*         0x00000100142017f4        0xc 
 .text          0x0000010014201800       0x24 gloss/CMakeFiles/freedom_metal.dir/sys_wait.c.o
                0x0000010014201800                _wait
 *fill*         0x0000010014201824       0x1c 
 .text          0x0000010014201840       0xb8 gloss/CMakeFiles/freedom_metal.dir/sys_write.c.o
                0x0000010014201840                _write
 *fill*         0x00000100142018f8        0x8 
 .text          0x0000010014201900      0x608 build/drivers/mailbox/CMakeFiles/mailbox.dir/mailbox.c.o
                0x0000010014201900                ipm_samsung_isr
                0x00000100142019f0                ipm_samsung_init
                0x0000010014201b00                ipm_samsung_write
                0x0000010014201c30                ipm_samsung_send
                0x0000010014201c90                ipm_samsung_receive
                0x0000010014201db0                ipm_samsung_register_callback
                0x0000010014201df0                ipm_samsung_read
 *fill*         0x0000010014201f08       0x18 
 .text          0x0000010014201f20      0x114 build/drivers/mailbox/CMakeFiles/mailbox.dir/mailbox_cb.c.o
                0x0000010014201f20                mailbox_register_callback
                0x0000010014201f30                default_cb
 *fill*         0x0000010014202034        0xc 
 .text          0x0000010014202040      0x220 build/drivers/pmu/CMakeFiles/pmu.dir/pmu.c.o
                0x0000010014202040                pmu_get_bootmode
                0x0000010014202060                pmu_sw_reset
                0x0000010014202080                pmu_rbc_lpi_entry
                0x0000010014202170                pmu_rbc_lpi_exit
                0x0000010014202250                pmu_get_num_of_secondary_chiplet
 .text          0x0000010014202260      0x5a8 build/drivers/timer/dw_apb_timer/CMakeFiles/dw_apb_timer.dir/dw_apb_timer.c.o
                0x0000010014202260                dw_apb_timer_default_callback
                0x0000010014202270                dw_apb_timer_irq_handler
                0x0000010014202390                dw_apb_timer_init
                0x00000100142024c0                dw_apb_timer_start
                0x0000010014202530                dw_apb_timer_disable
                0x0000010014202560                dw_apb_timer_get_load_count
                0x0000010014202580                dw_apb_timer_get_value
                0x00000100142025a0                dw_apb_timer_set_load_count
                0x0000010014202680                dw_apb_timer_set_alarm_callback
                0x0000010014202790                dw_apb_timer_cancel_alarm_callback
                0x0000010014202800                dw_apb_timer_get_freq
 *fill*         0x0000010014202808       0x18 
 .text          0x0000010014202820      0x428 build/drivers/qspi/qspi_apb/CMakeFiles/qspi_apb.dir/qspi_apb.c.o
                0x0000010014202820                qspi_apb_enable_loopback
                0x0000010014202860                qspi_apb_set
                0x0000010014202920                qspi_apb_init
                0x00000100142029a0                qspi_apb_transfer
 *fill*         0x0000010014202c48        0x8 
 .text          0x0000010014202c50       0xf0 build/drivers/flash/CMakeFiles/flash.dir/mt25q_flash.c.o
                0x0000010014202c50                read_flash
                0x0000010014202ca0                write_flash
                0x0000010014202cf0                erase_flash
 .text          0x0000010014202d40        0x0 libfreertos_kernel.a(queue.c.o)
 .text          0x0000010014202d40      0xb90 libfreertos_kernel.a(tasks.c.o)
                0x00000100142033e0                vTaskYieldWithinAPI
                0x0000010014203440                vTaskEnterCritical
                0x0000010014203560                vTaskCoreAffinitySet
                0x00000100142036d0                vTaskCoreAffinityGet
                0x0000010014203760                vTaskEnterCriticalFromISR
                0x0000010014203790                vTaskExitCritical
                0x00000100142037d0                vTaskExitCriticalFromISR
 .text          0x00000100142038d0        0x0 libfreertos_kernel.a(timers.c.o)
 *fill*         0x00000100142038d0       0x10 
 .text          0x00000100142038e0       0xd0 libfreertos_kernel.a(heap_4.c.o)
                0x00000100142038e0                vPortGetHeapStats
 .text          0x00000100142039b0        0x0 libfreertos_kernel.a(list.c.o)
 *fill*         0x00000100142039b0       0x10 
 .text          0x00000100142039c0      0x414 portable/libfreertos_kernel_port.a(port.c.o)
                0x00000100142039c0                FreeRTOS_Tick_Handler
                0x0000010014203a60                vPortValidateInterruptPriority
                0x0000010014203a70                vApplicationIdleHook
                0x0000010014203a80                vApplicationPassiveIdleHook
                0x0000010014203a90                vApplicationTickHook
                0x0000010014203aa0                vApplicationGetTimerTaskMemory
                0x0000010014203ad0                Get_64
                0x0000010014203ae0                Set_64
                0x0000010014203af0                vPortRecursiveLock
 *fill*         0x0000010014203dd4       0x2c 
 .text          0x0000010014203e00      0x720 portable/libfreertos_kernel_port.a(portASM.S.o)
                0x0000010014203e00                FreeRTOS_SWI_Handler
                0x0000010014204000                vPortRestoreTaskContext
                0x0000010014204100                FreeRTOS_IRQ_Handler
 .text          0x0000010014204520      0x140 build/drivers/common/libdriver.a(driver.c.o)
                0x0000010014204520                init_drivers_by_calling_init_entry
 .text          0x0000010014204660       0xd8 build/drivers/common/libassert.a(assert.c.o)
                0x0000010014204660                assert
                0x0000010014204690                assert_with_message
                0x00000100142046c0                conditional_assert
                0x00000100142046f0                conditional_assert_with_message
 *fill*         0x0000010014204738        0x8 
 .text          0x0000010014204740       0xec build/drivers/common/libinterrupt.a(interrupt.c.o)
                0x0000010014204740                set_dev_interrupt_priority
                0x0000010014204750                enable_dev_interrupt
                0x0000010014204760                enable_all_interrupts
                0x0000010014204770                disable_all_interrupts
                0x0000010014204780                connect_interrupt_with_handler
                0x00000100142047d0                connect_interrupt_with_core_handler
 *fill*         0x000001001420482c       0x14 
 .text          0x0000010014204840      0x810 build/drivers/intc/libintc.a(gicv3.c.o)
                0x0000010014204890                gic_get_active
                0x00000100142048a0                gic_eoi
                0x00000100142048b0                gic_raise_sgi
                0x0000010014204900                gic_irq_set_priority
                0x00000100142049f0                gic_irq_route_dedicated_core
                0x0000010014204a30                gic_irq_enable
                0x0000010014204aa0                gic_irq_enable_dedicated_core
                0x0000010014204b00                gic_irq_disable
                0x0000010014204b80                gic_irq_is_enabled
                0x0000010014204c10                gic_irq_connect
                0x0000010014204c30                cpuif_init
                0x0000010014204d00                rdist_init
                0x0000010014204d70                dist_init
                0x0000010014204f90                gic_init
                0x0000010014205030                gic_in_isr
 *fill*         0x0000010014205050       0x10 
 .text          0x0000010014205060      0x1e4 build/drivers/intc/libintc.a(bakery_lock.c.o)
                0x0000010014205060                rebel_bakery_lock_acquire
                0x00000100142051c0                rebel_bakery_lock_release
                0x0000010014205210                rebel_bakery_lock_init
 .text          0x0000010014205244        0x0 portable/libfreertos_arch.a(startup.S.o)
 .text          0x0000010014205244        0x0 portable/libfreertos_arch.a(vector.S.o)
 *fill*         0x0000010014205244       0x1c 
 .text          0x0000010014205260       0xb0 portable/libfreertos_arch.a(prep_c.c.o)
                0x0000010014205260                primary_prep_c
 *fill*         0x0000010014205310       0x10 
 .text          0x0000010014205320      0x124 libfreertos_kernel_config.a(FreeRTOS_tick_config.c.o)
                0x0000010014205320                vSetupTickInterrupt
                0x00000100142053b0                vClearTickInterrupt
                0x00000100142053c0                vApplicationIRQHandler
 *fill*         0x0000010014205444       0x1c 
 .text          0x0000010014205460      0x140 portable/libsmp.a(smp.c.o)
                0x0000010014205460                ipi_handler
                0x0000010014205480                secondary_prep_c
                0x00000100142054d0                init_smp
 .text          0x00000100142055a0       0x40 portable/libsmp.a(smp.S.o)
                0x00000100142055a0                GateSmp_tryLock
                0x00000100142055c8                GateSmp_unlock
 *fill*         0x00000100142055e0       0x20 
 .text          0x0000010014205600       0x1c portable/libsmccc.a(smccc.S.o)
                0x0000010014205600                arm_smccc_smc
 *fill*         0x000001001420561c        0x4 
 .text          0x0000010014205620       0x58 build/common/arch/libcommon.a(printf.c.o)
                0x0000010014205620                printf_
                0x0000010014205630                sprintf_
                0x0000010014205640                snprintf_
                0x0000010014205650                vprintf_
                0x0000010014205660                vsnprintf_
                0x0000010014205670                fctprintf
 *fill*         0x0000010014205678        0x8 
 .text          0x0000010014205680       0x98 build/drivers/psci/libpsci.a(psci.c.o)
                0x0000010014205680                psci_cpu_on
                0x00000100142056d0                psci_cpu_off
 *fill*         0x0000010014205718        0x8 
 .text          0x0000010014205720      0xfe0 portable/libmmu.a(mmu.c.o)
                0x00000100142059e0                new_table
                0x0000010014205f50                setup_page_tables
                0x00000100142063d0                va_to_pa
                0x00000100142064e0                is_pa_continuous
                0x0000010014206550                mmu_init
 .text          0x0000010014206700       0xb0 build/drivers/timer/generic_timer/libgeneric_timer.a(generic_timer.c.o)
                0x0000010014206700                arch_timer_update_compare
                0x0000010014206760                generic_timer_init
 *fill*         0x00000100142067b0       0x10 
 .text          0x00000100142067c0      0x130 /tools/arm-gnu-toolchain-13.2.Rel1-x86_64-aarch64-none-elf/bin/../lib/gcc/aarch64-none-elf/13.2.1/../../../../aarch64-none-elf/lib/libg.a(libc_a-strlen.o)
                0x00000100142067c0                strlen
 .text          0x00000100142068f0        0x0 /tools/arm-gnu-toolchain-13.2.Rel1-x86_64-aarch64-none-elf/bin/../lib/gcc/aarch64-none-elf/13.2.1/../../../../aarch64-none-elf/lib/libg.a(libc_a-errno.o)
 .text          0x00000100142068f0        0x0 /tools/arm-gnu-toolchain-13.2.Rel1-x86_64-aarch64-none-elf/bin/../lib/gcc/aarch64-none-elf/13.2.1/../../../../aarch64-none-elf/lib/libg.a(libc_a-printf.o)
 *fill*         0x00000100142068f0       0x10 
 .text          0x0000010014206900      0x22c /tools/arm-gnu-toolchain-13.2.Rel1-x86_64-aarch64-none-elf/bin/../lib/gcc/aarch64-none-elf/13.2.1/../../../../aarch64-none-elf/lib/libg.a(libc_a-memcpy.o)
                0x0000010014206900                memmove
                0x0000010014206900                memcpy
 .text          0x0000010014206b2c        0x0 /tools/arm-gnu-toolchain-13.2.Rel1-x86_64-aarch64-none-elf/bin/../lib/gcc/aarch64-none-elf/13.2.1/../../../../aarch64-none-elf/lib/libg.a(libc_a-putchar.o)
 .text          0x0000010014206b2c        0x0 /tools/arm-gnu-toolchain-13.2.Rel1-x86_64-aarch64-none-elf/bin/../lib/gcc/aarch64-none-elf/13.2.1/../../../../aarch64-none-elf/lib/libg.a(libc_a-reent.o)
 .text          0x0000010014206b2c        0x0 /tools/arm-gnu-toolchain-13.2.Rel1-x86_64-aarch64-none-elf/bin/../lib/gcc/aarch64-none-elf/13.2.1/../../../../aarch64-none-elf/lib/libg.a(libc_a-impure.o)
 .text          0x0000010014206b2c        0x0 /tools/arm-gnu-toolchain-13.2.Rel1-x86_64-aarch64-none-elf/bin/../lib/gcc/aarch64-none-elf/13.2.1/../../../../aarch64-none-elf/lib/libg.a(libc_a-findfp.o)
 *fill*         0x0000010014206b2c       0x14 
 .text          0x0000010014206b40      0x104 /tools/arm-gnu-toolchain-13.2.Rel1-x86_64-aarch64-none-elf/bin/../lib/gcc/aarch64-none-elf/13.2.1/../../../../aarch64-none-elf/lib/libg.a(libc_a-memset.o)
                0x0000010014206b40                memset
 .text          0x0000010014206c44        0x0 /tools/arm-gnu-toolchain-13.2.Rel1-x86_64-aarch64-none-elf/bin/../lib/gcc/aarch64-none-elf/13.2.1/../../../../aarch64-none-elf/lib/libg.a(libc_a-freer.o)
 .text          0x0000010014206c44        0x0 /tools/arm-gnu-toolchain-13.2.Rel1-x86_64-aarch64-none-elf/bin/../lib/gcc/aarch64-none-elf/13.2.1/../../../../aarch64-none-elf/lib/libg.a(libc_a-stdio.o)
 .text          0x0000010014206c44        0x0 /tools/arm-gnu-toolchain-13.2.Rel1-x86_64-aarch64-none-elf/bin/../lib/gcc/aarch64-none-elf/13.2.1/../../../../aarch64-none-elf/lib/libg.a(libc_a-sbrkr.o)
 .text          0x0000010014206c44        0x0 /tools/arm-gnu-toolchain-13.2.Rel1-x86_64-aarch64-none-elf/bin/../lib/gcc/aarch64-none-elf/13.2.1/../../../../aarch64-none-elf/lib/libg.a(libc_a-fwalk.o)
 .text          0x0000010014206c44        0x0 /tools/arm-gnu-toolchain-13.2.Rel1-x86_64-aarch64-none-elf/bin/../lib/gcc/aarch64-none-elf/13.2.1/../../../../aarch64-none-elf/lib/libg.a(libc_a-writer.o)
 .text          0x0000010014206c44        0x0 /tools/arm-gnu-toolchain-13.2.Rel1-x86_64-aarch64-none-elf/bin/../lib/gcc/aarch64-none-elf/13.2.1/../../../../aarch64-none-elf/lib/libg.a(libc_a-vfprintf.o)
 .text          0x0000010014206c44        0x0 /tools/arm-gnu-toolchain-13.2.Rel1-x86_64-aarch64-none-elf/bin/../lib/gcc/aarch64-none-elf/13.2.1/../../../../aarch64-none-elf/lib/libg.a(libc_a-vfiprintf.o)
 .text          0x0000010014206c44        0x0 /tools/arm-gnu-toolchain-13.2.Rel1-x86_64-aarch64-none-elf/bin/../lib/gcc/aarch64-none-elf/13.2.1/../../../../aarch64-none-elf/lib/libg.a(libc_a-mallocr.o)
 .text          0x0000010014206c44        0x0 /tools/arm-gnu-toolchain-13.2.Rel1-x86_64-aarch64-none-elf/bin/../lib/gcc/aarch64-none-elf/13.2.1/../../../../aarch64-none-elf/lib/libg.a(libc_a-wcrtomb.o)
 .text          0x0000010014206c44        0x0 /tools/arm-gnu-toolchain-13.2.Rel1-x86_64-aarch64-none-elf/bin/../lib/gcc/aarch64-none-elf/13.2.1/../../../../aarch64-none-elf/lib/libg.a(libc_a-lock.o)
 .text          0x0000010014206c44        0x0 /tools/arm-gnu-toolchain-13.2.Rel1-x86_64-aarch64-none-elf/bin/../lib/gcc/aarch64-none-elf/13.2.1/../../../../aarch64-none-elf/lib/libg.a(libc_a-locale.o)
 .text          0x0000010014206c44        0x0 /tools/arm-gnu-toolchain-13.2.Rel1-x86_64-aarch64-none-elf/bin/../lib/gcc/aarch64-none-elf/13.2.1/../../../../aarch64-none-elf/lib/libg.a(libc_a-localeconv.o)
 .text          0x0000010014206c44        0x0 /tools/arm-gnu-toolchain-13.2.Rel1-x86_64-aarch64-none-elf/bin/../lib/gcc/aarch64-none-elf/13.2.1/../../../../aarch64-none-elf/lib/libg.a(libc_a-fclose.o)
 *fill*         0x0000010014206c44       0x3c 
 .text          0x0000010014206c80       0xdc /tools/arm-gnu-toolchain-13.2.Rel1-x86_64-aarch64-none-elf/bin/../lib/gcc/aarch64-none-elf/13.2.1/../../../../aarch64-none-elf/lib/libg.a(libc_a-memchr.o)
                0x0000010014206c80                memchr
 .text          0x0000010014206d5c        0x0 /tools/arm-gnu-toolchain-13.2.Rel1-x86_64-aarch64-none-elf/bin/../lib/gcc/aarch64-none-elf/13.2.1/../../../../aarch64-none-elf/lib/libg.a(libc_a-wsetup.o)
 .text          0x0000010014206d5c        0x0 /tools/arm-gnu-toolchain-13.2.Rel1-x86_64-aarch64-none-elf/bin/../lib/gcc/aarch64-none-elf/13.2.1/../../../../aarch64-none-elf/lib/libg.a(libc_a-makebuf.o)
 .text          0x0000010014206d5c        0x0 /tools/arm-gnu-toolchain-13.2.Rel1-x86_64-aarch64-none-elf/bin/../lib/gcc/aarch64-none-elf/13.2.1/../../../../aarch64-none-elf/lib/libg.a(libc_a-putc.o)
 .text          0x0000010014206d5c        0x0 /tools/arm-gnu-toolchain-13.2.Rel1-x86_64-aarch64-none-elf/bin/../lib/gcc/aarch64-none-elf/13.2.1/../../../../aarch64-none-elf/lib/libg.a(libc_a-mlock.o)
 .text          0x0000010014206d5c        0x0 /tools/arm-gnu-toolchain-13.2.Rel1-x86_64-aarch64-none-elf/bin/../lib/gcc/aarch64-none-elf/13.2.1/../../../../aarch64-none-elf/lib/libg.a(libc_a-wcsrtombs.o)
 .text          0x0000010014206d5c        0x0 /tools/arm-gnu-toolchain-13.2.Rel1-x86_64-aarch64-none-elf/bin/../lib/gcc/aarch64-none-elf/13.2.1/../../../../aarch64-none-elf/lib/libg.a(libc_a-dtoa.o)
 .text          0x0000010014206d5c        0x0 /tools/arm-gnu-toolchain-13.2.Rel1-x86_64-aarch64-none-elf/bin/../lib/gcc/aarch64-none-elf/13.2.1/../../../../aarch64-none-elf/lib/libg.a(libc_a-ctype_.o)
 .text          0x0000010014206d5c        0x0 /tools/arm-gnu-toolchain-13.2.Rel1-x86_64-aarch64-none-elf/bin/../lib/gcc/aarch64-none-elf/13.2.1/../../../../aarch64-none-elf/lib/libg.a(libc_a-closer.o)
 .text          0x0000010014206d5c        0x0 /tools/arm-gnu-toolchain-13.2.Rel1-x86_64-aarch64-none-elf/bin/../lib/gcc/aarch64-none-elf/13.2.1/../../../../aarch64-none-elf/lib/libg.a(libc_a-fflush.o)
 .text          0x0000010014206d5c        0x0 /tools/arm-gnu-toolchain-13.2.Rel1-x86_64-aarch64-none-elf/bin/../lib/gcc/aarch64-none-elf/13.2.1/../../../../aarch64-none-elf/lib/libg.a(libm_a-s_frexp.o)
 .text          0x0000010014206d5c        0x0 /tools/arm-gnu-toolchain-13.2.Rel1-x86_64-aarch64-none-elf/bin/../lib/gcc/aarch64-none-elf/13.2.1/../../../../aarch64-none-elf/lib/libg.a(libc_a-strlcpy.o)
 .text          0x0000010014206d5c        0x0 /tools/arm-gnu-toolchain-13.2.Rel1-x86_64-aarch64-none-elf/bin/../lib/gcc/aarch64-none-elf/13.2.1/../../../../aarch64-none-elf/lib/libg.a(libc_a-strtol.o)
 .text          0x0000010014206d5c        0x0 /tools/arm-gnu-toolchain-13.2.Rel1-x86_64-aarch64-none-elf/bin/../lib/gcc/aarch64-none-elf/13.2.1/../../../../aarch64-none-elf/lib/libg.a(libc_a-strncasecmp.o)
 .text          0x0000010014206d5c        0x0 /tools/arm-gnu-toolchain-13.2.Rel1-x86_64-aarch64-none-elf/bin/../lib/gcc/aarch64-none-elf/13.2.1/../../../../aarch64-none-elf/lib/libg.a(libc_a-getenv_r.o)
 .text          0x0000010014206d5c        0x0 /tools/arm-gnu-toolchain-13.2.Rel1-x86_64-aarch64-none-elf/bin/../lib/gcc/aarch64-none-elf/13.2.1/../../../../aarch64-none-elf/lib/libg.a(libc_a-strncpy.o)
 .text          0x0000010014206d5c        0x0 /tools/arm-gnu-toolchain-13.2.Rel1-x86_64-aarch64-none-elf/bin/../lib/gcc/aarch64-none-elf/13.2.1/../../../../aarch64-none-elf/lib/libg.a(libc_a-fstatr.o)
 .text          0x0000010014206d5c        0x0 /tools/arm-gnu-toolchain-13.2.Rel1-x86_64-aarch64-none-elf/bin/../lib/gcc/aarch64-none-elf/13.2.1/../../../../aarch64-none-elf/lib/libg.a(libc_a-isattyr.o)
 .text          0x0000010014206d5c        0x0 /tools/arm-gnu-toolchain-13.2.Rel1-x86_64-aarch64-none-elf/bin/../lib/gcc/aarch64-none-elf/13.2.1/../../../../aarch64-none-elf/lib/libg.a(libc_a-lseekr.o)
 .text          0x0000010014206d5c        0x0 /tools/arm-gnu-toolchain-13.2.Rel1-x86_64-aarch64-none-elf/bin/../lib/gcc/aarch64-none-elf/13.2.1/../../../../aarch64-none-elf/lib/libg.a(libc_a-readr.o)
 *fill*         0x0000010014206d5c       0x24 
 .text          0x0000010014206d80       0xcc /tools/arm-gnu-toolchain-13.2.Rel1-x86_64-aarch64-none-elf/bin/../lib/gcc/aarch64-none-elf/13.2.1/../../../../aarch64-none-elf/lib/libg.a(libc_a-strchr.o)
                0x0000010014206d80                strchr
 *fill*         0x0000010014206e4c       0x34 
 .text          0x0000010014206e80      0x134 /tools/arm-gnu-toolchain-13.2.Rel1-x86_64-aarch64-none-elf/bin/../lib/gcc/aarch64-none-elf/13.2.1/../../../../aarch64-none-elf/lib/libg.a(libc_a-strcmp.o)
                0x0000010014206e80                strcmp
 *fill*         0x0000010014206fb4        0xc 
 .text          0x0000010014206fc0      0x12c /tools/arm-gnu-toolchain-13.2.Rel1-x86_64-aarch64-none-elf/bin/../lib/gcc/aarch64-none-elf/13.2.1/../../../../aarch64-none-elf/lib/libg.a(libc_a-strcpy.o)
                0x0000010014206fc0                strcpy
 .text          0x00000100142070ec        0x0 /tools/arm-gnu-toolchain-13.2.Rel1-x86_64-aarch64-none-elf/bin/../lib/gcc/aarch64-none-elf/13.2.1/../../../../aarch64-none-elf/lib/libg.a(libc_a-fputwc.o)
 .text          0x00000100142070ec        0x0 /tools/arm-gnu-toolchain-13.2.Rel1-x86_64-aarch64-none-elf/bin/../lib/gcc/aarch64-none-elf/13.2.1/../../../../aarch64-none-elf/lib/libg.a(libc_a-wctomb_r.o)
 .text          0x00000100142070ec        0x0 /tools/arm-gnu-toolchain-13.2.Rel1-x86_64-aarch64-none-elf/bin/../lib/gcc/aarch64-none-elf/13.2.1/../../../../aarch64-none-elf/lib/libg.a(libc_a-fvwrite.o)
 *fill*         0x00000100142070ec       0x14 
 .text          0x0000010014207100      0x1b4 /tools/arm-gnu-toolchain-13.2.Rel1-x86_64-aarch64-none-elf/bin/../lib/gcc/aarch64-none-elf/13.2.1/../../../../aarch64-none-elf/lib/libg.a(libc_a-strncmp.o)
                0x0000010014207100                strncmp
 .text          0x00000100142072b4        0x0 /tools/arm-gnu-toolchain-13.2.Rel1-x86_64-aarch64-none-elf/bin/../lib/gcc/aarch64-none-elf/13.2.1/../../../../aarch64-none-elf/lib/libg.a(libc_a-wbuf.o)
 .text          0x00000100142072b4        0x0 /tools/arm-gnu-toolchain-13.2.Rel1-x86_64-aarch64-none-elf/bin/../lib/gcc/aarch64-none-elf/13.2.1/../../../../aarch64-none-elf/lib/libg.a(libc_a-mbtowc_r.o)
 .text          0x00000100142072b4        0x0 /tools/arm-gnu-toolchain-13.2.Rel1-x86_64-aarch64-none-elf/bin/../lib/gcc/aarch64-none-elf/13.2.1/../../../../aarch64-none-elf/lib/libg.a(libc_a-assert.o)
 .text          0x00000100142072b4        0x0 /tools/arm-gnu-toolchain-13.2.Rel1-x86_64-aarch64-none-elf/bin/../lib/gcc/aarch64-none-elf/13.2.1/../../../../aarch64-none-elf/lib/libg.a(libc_a-strcasecmp.o)
 .text          0x00000100142072b4        0x0 /tools/arm-gnu-toolchain-13.2.Rel1-x86_64-aarch64-none-elf/bin/../lib/gcc/aarch64-none-elf/13.2.1/../../../../aarch64-none-elf/lib/libg.a(libc_a-strcat.o)
 .text          0x00000100142072b4        0x0 /tools/arm-gnu-toolchain-13.2.Rel1-x86_64-aarch64-none-elf/bin/../lib/gcc/aarch64-none-elf/13.2.1/../../../../aarch64-none-elf/lib/libg.a(libc_a-mprec.o)
 .text          0x00000100142072b4        0x0 /tools/arm-gnu-toolchain-13.2.Rel1-x86_64-aarch64-none-elf/bin/../lib/gcc/aarch64-none-elf/13.2.1/../../../../aarch64-none-elf/lib/libg.a(libc_a-callocr.o)
 .text          0x00000100142072b4        0x0 /tools/arm-gnu-toolchain-13.2.Rel1-x86_64-aarch64-none-elf/bin/../lib/gcc/aarch64-none-elf/13.2.1/../../../../aarch64-none-elf/lib/libg.a(libc_a-wcsnrtombs.o)
 .text          0x00000100142072b4        0x0 /tools/arm-gnu-toolchain-13.2.Rel1-x86_64-aarch64-none-elf/bin/../lib/gcc/aarch64-none-elf/13.2.1/../../../../aarch64-none-elf/lib/libg.a(libc_a-environ.o)
 .text          0x00000100142072b4        0x0 /tools/arm-gnu-toolchain-13.2.Rel1-x86_64-aarch64-none-elf/bin/../lib/gcc/aarch64-none-elf/13.2.1/../../../../aarch64-none-elf/lib/libg.a(libc_a-reallocr.o)
 .text          0x00000100142072b4        0x0 /tools/arm-gnu-toolchain-13.2.Rel1-x86_64-aarch64-none-elf/bin/../lib/gcc/aarch64-none-elf/13.2.1/../../../../aarch64-none-elf/lib/libg.a(libc_a-envlock.o)
 .text          0x00000100142072b4        0x0 /tools/arm-gnu-toolchain-13.2.Rel1-x86_64-aarch64-none-elf/bin/../lib/gcc/aarch64-none-elf/13.2.1/../../../../aarch64-none-elf/lib/libg.a(libc_a-fiprintf.o)
 .text          0x00000100142072b4        0x0 /tools/arm-gnu-toolchain-13.2.Rel1-x86_64-aarch64-none-elf/bin/../lib/gcc/aarch64-none-elf/13.2.1/../../../../aarch64-none-elf/lib/libg.a(libc_a-abort.o)
 .text          0x00000100142072b4        0x0 /tools/arm-gnu-toolchain-13.2.Rel1-x86_64-aarch64-none-elf/bin/../lib/gcc/aarch64-none-elf/13.2.1/../../../../aarch64-none-elf/lib/libg.a(libc_a-signal.o)
 .text          0x00000100142072b4        0x0 /tools/arm-gnu-toolchain-13.2.Rel1-x86_64-aarch64-none-elf/bin/../lib/gcc/aarch64-none-elf/13.2.1/../../../../aarch64-none-elf/lib/libg.a(libc_a-signalr.o)
 .text          0x00000100142072b4        0x0 /tools/arm-gnu-toolchain-13.2.Rel1-x86_64-aarch64-none-elf/bin/../lib/gcc/aarch64-none-elf/13.2.1/libgcc.a(trunctfdf2.o)
 .text          0x00000100142072b4        0x0 /tools/arm-gnu-toolchain-13.2.Rel1-x86_64-aarch64-none-elf/bin/../lib/gcc/aarch64-none-elf/13.2.1/libgcc.a(sfp-exceptions.o)
 *(privileged_functions)
 *fill*         0x00000100142072b4        0xc 
 privileged_functions
                0x00000100142072c0     0x2038 libfreertos_kernel.a(queue.c.o)
                0x00000100142075f0                xQueueGenericSend
                0x0000010014207960                xQueuePeek
                0x0000010014207bc0                xQueuePeekFromISR
                0x0000010014207d20                xQueueReceive
                0x0000010014207f80                uxQueueMessagesWaiting
                0x0000010014207ff0                uxQueueSpacesAvailable
                0x0000010014208080                xQueueGenericSendFromISR
                0x00000100142082e0                xQueueGiveFromISR
                0x00000100142084a0                xQueueReceiveFromISR
                0x0000010014208680                xQueueIsQueueEmptyFromISR
                0x00000100142086f0                xQueueIsQueueFullFromISR
                0x0000010014208750                uxQueueMessagesWaitingFromISR
                0x00000100142087a0                xQueueSemaphoreTake
                0x0000010014208b50                xQueueGetMutexHolder
                0x0000010014208be0                xQueueGetMutexHolderFromISR
                0x0000010014208c60                vQueueAddToRegistry
                0x0000010014208d80                vQueueUnregisterQueue
                0x0000010014208e40                vQueueDelete
                0x0000010014208eb0                pcQueueGetName
                0x0000010014208f80                vQueueWaitForMessageRestricted
                0x0000010014209030                xQueueGenericReset
                0x0000010014209160                xQueueGenericCreate
                0x0000010014209250                xQueueCreateMutex
                0x00000100142092b0                vQueueSetQueueNumber
                0x00000100142092c0                uxQueueGetQueueNumber
                0x00000100142092d0                ucQueueGetQueueType
                0x00000100142092e0                uxQueueGetQueueItemSize
                0x00000100142092f0                uxQueueGetQueueLength
 *fill*         0x00000100142092f8        0x8 
 privileged_functions
                0x0000010014209300     0x58cc libfreertos_kernel.a(tasks.c.o)
                0x0000010014209a10                vTaskEndScheduler
                0x0000010014209a30                vTaskSuspendAll
                0x0000010014209b20                xTaskGetTickCount
                0x0000010014209b30                xTaskGetTickCountFromISR
                0x0000010014209b50                uxTaskGetNumberOfTasks
                0x0000010014209b60                pcTaskGetName
                0x0000010014209be0                vTaskSetThreadLocalStoragePointer
                0x0000010014209c90                pvTaskGetThreadLocalStoragePointer
                0x0000010014209d30                xTaskIncrementTick
                0x000001001420a130                vTaskPlaceOnEventList
                0x000001001420a1e0                vTaskPlaceOnUnorderedEventList
                0x000001001420a360                vTaskPlaceOnEventListRestricted
                0x000001001420a480                xTaskRemoveFromEventList
                0x000001001420a6e0                vTaskSwitchContext
                0x000001001420ad30                uxTaskResetEventItemValue
                0x000001001420ada0                xTaskGetCurrentTaskHandle
                0x000001001420add0                xTaskGetCurrentTaskHandleForCore
                0x000001001420ae10                vTaskMissedYield
                0x000001001420ae30                xTaskPriorityInherit
                0x000001001420b0c0                xTaskPriorityDisinherit
                0x000001001420b310                vTaskPriorityDisinheritAfterTimeout
                0x000001001420b5c0                uxTaskGetTaskNumber
                0x000001001420b5f0                vTaskSetTaskNumber
                0x000001001420b610                pvTaskIncrementMutexHeldCount
                0x000001001420b670                vTaskInternalSetTimeOutState
                0x000001001420b9f0                xTaskCreate
                0x000001001420ba30                vTaskStartScheduler
                0x000001001420bbb0                xTaskCreateAffinitySet
                0x000001001420bc10                vTaskDelete
                0x000001001420be40                uxTaskPriorityGet
                0x000001001420bec0                uxTaskBasePriorityGet
                0x000001001420bf40                eTaskGetState
                0x000001001420c080                vTaskPrioritySet
                0x000001001420c360                vTaskSuspend
                0x000001001420c590                vTaskResume
                0x000001001420c6d0                xTaskResumeAll
                0x000001001420c980                vTaskDelay
                0x000001001420ca50                xTaskDelayUntil
                0x000001001420cc00                xTaskGetHandle
                0x000001001420ccf0                xTaskAbortDelay
                0x000001001420ce80                vTaskGetInfo
                0x000001001420d250                uxTaskGetSystemState
                0x000001001420d380                xTaskGenericNotify
                0x000001001420d6b0                xTaskGenericNotifyWait
                0x000001001420d920                ulTaskGenericNotifyTake
                0x000001001420db60                xTaskGenericNotifyStateClear
                0x000001001420dc60                ulTaskGenericNotifyValueClear
                0x000001001420dd40                vTaskSetTimeOutState
                0x000001001420dde0                xTaskCheckForTimeOut
                0x000001001420dfc0                xTaskCatchUpTicks
                0x000001001420e040                vTaskRemoveFromUnorderedEventList
                0x000001001420e250                xTaskGetSchedulerState
                0x000001001420e2e0                uxTaskPriorityGetFromISR
                0x000001001420e380                uxTaskBasePriorityGetFromISR
                0x000001001420e420                xTaskResumeFromISR
                0x000001001420e580                xTaskGenericNotifyFromISR
                0x000001001420e930                vTaskGenericNotifyGiveFromISR
 *fill*         0x000001001420ebcc       0x14 
 privileged_functions
                0x000001001420ebe0      0xeb8 libfreertos_kernel.a(timers.c.o)
                0x000001001420f2a0                xTimerCreate
                0x000001001420f370                pvTimerGetTimerID
                0x000001001420f3d0                vTimerSetTimerID
                0x000001001420f430                xTimerIsTimerActive
                0x000001001420f4b0                xTimerGetTimerDaemonTaskHandle
                0x000001001420f500                xTimerPendFunctionCallFromISR
                0x000001001420f550                xTimerPendFunctionCall
                0x000001001420f5e0                pcTimerGetName
                0x000001001420f640                vTimerSetReloadMode
                0x000001001420f6c0                xTimerGetReloadMode
                0x000001001420f730                uxTimerGetReloadMode
                0x000001001420f740                xTimerGetPeriod
                0x000001001420f7a0                xTimerGetExpiryTime
                0x000001001420f800                xTimerCreateTimerTask
                0x000001001420f890                xTimerGenericCommandFromTask
                0x000001001420f9b0                xTimerGenericCommandFromISR
                0x000001001420fa80                vTimerSetTimerNumber
                0x000001001420fa90                uxTimerGetTimerNumber
 *fill*         0x000001001420fa98        0x8 
 privileged_functions
                0x000001001420faa0      0x75c libfreertos_kernel.a(heap_4.c.o)
                0x000001001420faa0                pvPortMalloc
                0x000001001420feb0                pvPortCalloc
                0x000001001420ff10                vPortFree
                0x00000100142101d0                vPortInitialiseBlocks
                0x00000100142101e0                xPortGetFreeHeapSize
                0x00000100142101f0                xPortGetMinimumEverFreeHeapSize
 *fill*         0x00000100142101fc        0x4 
 privileged_functions
                0x0000010014210200      0x140 libfreertos_kernel.a(list.c.o)
                0x0000010014210200                vListInitialise
                0x0000010014210220                vListInitialiseItem
                0x0000010014210230                vListInsert
                0x00000100142102b0                vListInsertEnd
                0x00000100142102e0                uxListRemove
 privileged_functions
                0x0000010014210340      0x290 portable/libfreertos_kernel_port.a(port.c.o)
                0x0000010014210340                pxPortInitialiseStack
                0x00000100142104e0                xPortStartScheduler
                0x00000100142105a0                vPortEndScheduler
 *(freertos_system_calls)

.iplt           0x00000100142105d0        0x0 load address 0x00000000142105d0
 .iplt          0x00000100142105d0        0x0 CMakeFiles/freertos_kernel.elf.dir/main_cp1.c.o

.text.__errno   0x00000100142105d0        0xc load address 0x00000000142105d0
 .text.__errno  0x00000100142105d0        0xc /tools/arm-gnu-toolchain-13.2.Rel1-x86_64-aarch64-none-elf/bin/../lib/gcc/aarch64-none-elf/13.2.1/../../../../aarch64-none-elf/lib/libg.a(libc_a-errno.o)
                0x00000100142105d0                __errno

.text._printf_r
                0x00000100142105e0       0x70 load address 0x00000000142105e0
 .text._printf_r
                0x00000100142105e0       0x70 /tools/arm-gnu-toolchain-13.2.Rel1-x86_64-aarch64-none-elf/bin/../lib/gcc/aarch64-none-elf/13.2.1/../../../../aarch64-none-elf/lib/libg.a(libc_a-printf.o)
                0x00000100142105e0                _printf_r

.text.printf    0x0000010014210650       0x80 load address 0x0000000014210650
 .text.printf   0x0000010014210650       0x80 /tools/arm-gnu-toolchain-13.2.Rel1-x86_64-aarch64-none-elf/bin/../lib/gcc/aarch64-none-elf/13.2.1/../../../../aarch64-none-elf/lib/libg.a(libc_a-printf.o)
                0x0000010014210650                printf

.text._putchar_r
                0x00000100142106d0        0x8 load address 0x00000000142106d0
 .text._putchar_r
                0x00000100142106d0        0x8 /tools/arm-gnu-toolchain-13.2.Rel1-x86_64-aarch64-none-elf/bin/../lib/gcc/aarch64-none-elf/13.2.1/../../../../aarch64-none-elf/lib/libg.a(libc_a-putchar.o)
                0x00000100142106d0                _putchar_r

.text.putchar   0x00000100142106e0       0x14 load address 0x00000000142106e0
 .text.putchar  0x00000100142106e0       0x14 /tools/arm-gnu-toolchain-13.2.Rel1-x86_64-aarch64-none-elf/bin/../lib/gcc/aarch64-none-elf/13.2.1/../../../../aarch64-none-elf/lib/libg.a(libc_a-putchar.o)
                0x00000100142106e0                putchar

.text._reclaim_reent
                0x0000010014210700       0xb0 load address 0x0000000014210700
 .text._reclaim_reent
                0x0000010014210700       0xb0 /tools/arm-gnu-toolchain-13.2.Rel1-x86_64-aarch64-none-elf/bin/../lib/gcc/aarch64-none-elf/13.2.1/../../../../aarch64-none-elf/lib/libg.a(libc_a-reent.o)
                0x0000010014210700                _reclaim_reent

.text.stdio_exit_handler
                0x00000100142107b0       0x1c load address 0x00000000142107b0
 .text.stdio_exit_handler
                0x00000100142107b0       0x1c /tools/arm-gnu-toolchain-13.2.Rel1-x86_64-aarch64-none-elf/bin/../lib/gcc/aarch64-none-elf/13.2.1/../../../../aarch64-none-elf/lib/libg.a(libc_a-findfp.o)

.text.cleanup_stdio
                0x00000100142107d0       0x74 load address 0x00000000142107d0
 .text.cleanup_stdio
                0x00000100142107d0       0x74 /tools/arm-gnu-toolchain-13.2.Rel1-x86_64-aarch64-none-elf/bin/../lib/gcc/aarch64-none-elf/13.2.1/../../../../aarch64-none-elf/lib/libg.a(libc_a-findfp.o)

.text.__fp_lock
                0x0000010014210850       0x34 load address 0x0000000014210850
 .text.__fp_lock
                0x0000010014210850       0x34 /tools/arm-gnu-toolchain-13.2.Rel1-x86_64-aarch64-none-elf/bin/../lib/gcc/aarch64-none-elf/13.2.1/../../../../aarch64-none-elf/lib/libg.a(libc_a-findfp.o)

.text.__fp_unlock
                0x0000010014210890       0x34 load address 0x0000000014210890
 .text.__fp_unlock
                0x0000010014210890       0x34 /tools/arm-gnu-toolchain-13.2.Rel1-x86_64-aarch64-none-elf/bin/../lib/gcc/aarch64-none-elf/13.2.1/../../../../aarch64-none-elf/lib/libg.a(libc_a-findfp.o)

.text.global_stdio_init.part.0
                0x00000100142108d0      0x158 load address 0x00000000142108d0
 .text.global_stdio_init.part.0
                0x00000100142108d0      0x158 /tools/arm-gnu-toolchain-13.2.Rel1-x86_64-aarch64-none-elf/bin/../lib/gcc/aarch64-none-elf/13.2.1/../../../../aarch64-none-elf/lib/libg.a(libc_a-findfp.o)

.text.__sfp     0x0000010014210a30      0x144 load address 0x0000000014210a30
 .text.__sfp    0x0000010014210a30      0x144 /tools/arm-gnu-toolchain-13.2.Rel1-x86_64-aarch64-none-elf/bin/../lib/gcc/aarch64-none-elf/13.2.1/../../../../aarch64-none-elf/lib/libg.a(libc_a-findfp.o)
                0x0000010014210a30                __sfp

.text.__sinit   0x0000010014210b80       0x64 load address 0x0000000014210b80
 .text.__sinit  0x0000010014210b80       0x64 /tools/arm-gnu-toolchain-13.2.Rel1-x86_64-aarch64-none-elf/bin/../lib/gcc/aarch64-none-elf/13.2.1/../../../../aarch64-none-elf/lib/libg.a(libc_a-findfp.o)
                0x0000010014210b80                __sinit

.text.__sfp_lock_acquire
                0x0000010014210bf0        0xc load address 0x0000000014210bf0
 .text.__sfp_lock_acquire
                0x0000010014210bf0        0xc /tools/arm-gnu-toolchain-13.2.Rel1-x86_64-aarch64-none-elf/bin/../lib/gcc/aarch64-none-elf/13.2.1/../../../../aarch64-none-elf/lib/libg.a(libc_a-findfp.o)
                0x0000010014210bf0                __sfp_lock_acquire

.text.__sfp_lock_release
                0x0000010014210c00        0xc load address 0x0000000014210c00
 .text.__sfp_lock_release
                0x0000010014210c00        0xc /tools/arm-gnu-toolchain-13.2.Rel1-x86_64-aarch64-none-elf/bin/../lib/gcc/aarch64-none-elf/13.2.1/../../../../aarch64-none-elf/lib/libg.a(libc_a-findfp.o)
                0x0000010014210c00                __sfp_lock_release

.text.__fp_lock_all
                0x0000010014210c10       0x30 load address 0x0000000014210c10
 .text.__fp_lock_all
                0x0000010014210c10       0x30 /tools/arm-gnu-toolchain-13.2.Rel1-x86_64-aarch64-none-elf/bin/../lib/gcc/aarch64-none-elf/13.2.1/../../../../aarch64-none-elf/lib/libg.a(libc_a-findfp.o)
                0x0000010014210c10                __fp_lock_all

.text.__fp_unlock_all
                0x0000010014210c40       0x30 load address 0x0000000014210c40
 .text.__fp_unlock_all
                0x0000010014210c40       0x30 /tools/arm-gnu-toolchain-13.2.Rel1-x86_64-aarch64-none-elf/bin/../lib/gcc/aarch64-none-elf/13.2.1/../../../../aarch64-none-elf/lib/libg.a(libc_a-findfp.o)
                0x0000010014210c40                __fp_unlock_all

.text._malloc_trim_r
                0x0000010014210c70      0x118 load address 0x0000000014210c70
 .text._malloc_trim_r
                0x0000010014210c70      0x118 /tools/arm-gnu-toolchain-13.2.Rel1-x86_64-aarch64-none-elf/bin/../lib/gcc/aarch64-none-elf/13.2.1/../../../../aarch64-none-elf/lib/libg.a(libc_a-freer.o)
                0x0000010014210c70                _malloc_trim_r

.text._free_r   0x0000010014210d90      0x2e0 load address 0x0000000014210d90
 .text._free_r  0x0000010014210d90      0x2e0 /tools/arm-gnu-toolchain-13.2.Rel1-x86_64-aarch64-none-elf/bin/../lib/gcc/aarch64-none-elf/13.2.1/../../../../aarch64-none-elf/lib/libg.a(libc_a-freer.o)
                0x0000010014210d90                _free_r

.text.__sread   0x0000010014211070       0x50 load address 0x0000000014211070
 .text.__sread  0x0000010014211070       0x50 /tools/arm-gnu-toolchain-13.2.Rel1-x86_64-aarch64-none-elf/bin/../lib/gcc/aarch64-none-elf/13.2.1/../../../../aarch64-none-elf/lib/libg.a(libc_a-stdio.o)
                0x0000010014211070                __sread

.text.__seofread
                0x00000100142110c0        0x8 load address 0x00000000142110c0
 .text.__seofread
                0x00000100142110c0        0x8 /tools/arm-gnu-toolchain-13.2.Rel1-x86_64-aarch64-none-elf/bin/../lib/gcc/aarch64-none-elf/13.2.1/../../../../aarch64-none-elf/lib/libg.a(libc_a-stdio.o)
                0x00000100142110c0                __seofread

.text.__swrite  0x00000100142110d0       0x6c load address 0x00000000142110d0
 .text.__swrite
                0x00000100142110d0       0x6c /tools/arm-gnu-toolchain-13.2.Rel1-x86_64-aarch64-none-elf/bin/../lib/gcc/aarch64-none-elf/13.2.1/../../../../aarch64-none-elf/lib/libg.a(libc_a-stdio.o)
                0x00000100142110d0                __swrite

.text.__sseek   0x0000010014211140       0x50 load address 0x0000000014211140
 .text.__sseek  0x0000010014211140       0x50 /tools/arm-gnu-toolchain-13.2.Rel1-x86_64-aarch64-none-elf/bin/../lib/gcc/aarch64-none-elf/13.2.1/../../../../aarch64-none-elf/lib/libg.a(libc_a-stdio.o)
                0x0000010014211140                __sseek

.text.__sclose  0x0000010014211190        0x8 load address 0x0000000014211190
 .text.__sclose
                0x0000010014211190        0x8 /tools/arm-gnu-toolchain-13.2.Rel1-x86_64-aarch64-none-elf/bin/../lib/gcc/aarch64-none-elf/13.2.1/../../../../aarch64-none-elf/lib/libg.a(libc_a-stdio.o)
                0x0000010014211190                __sclose

.text._sbrk_r   0x00000100142111a0       0x4c load address 0x00000000142111a0
 .text._sbrk_r  0x00000100142111a0       0x4c /tools/arm-gnu-toolchain-13.2.Rel1-x86_64-aarch64-none-elf/bin/../lib/gcc/aarch64-none-elf/13.2.1/../../../../aarch64-none-elf/lib/libg.a(libc_a-sbrkr.o)
                0x00000100142111a0                _sbrk_r

.text._fwalk_sglue
                0x00000100142111f0       0xa0 load address 0x00000000142111f0
 .text._fwalk_sglue
                0x00000100142111f0       0xa0 /tools/arm-gnu-toolchain-13.2.Rel1-x86_64-aarch64-none-elf/bin/../lib/gcc/aarch64-none-elf/13.2.1/../../../../aarch64-none-elf/lib/libg.a(libc_a-fwalk.o)
                0x00000100142111f0                _fwalk_sglue

.text._write_r  0x0000010014211290       0x60 load address 0x0000000014211290
 .text._write_r
                0x0000010014211290       0x60 /tools/arm-gnu-toolchain-13.2.Rel1-x86_64-aarch64-none-elf/bin/../lib/gcc/aarch64-none-elf/13.2.1/../../../../aarch64-none-elf/lib/libg.a(libc_a-writer.o)
                0x0000010014211290                _write_r

.text._vfprintf_r
                0x00000100142112f0     0x32e4 load address 0x00000000142112f0
 .text._vfprintf_r
                0x00000100142112f0     0x32e4 /tools/arm-gnu-toolchain-13.2.Rel1-x86_64-aarch64-none-elf/bin/../lib/gcc/aarch64-none-elf/13.2.1/../../../../aarch64-none-elf/lib/libg.a(libc_a-vfprintf.o)
                0x00000100142112f0                _vfprintf_r

.text.vfprintf  0x00000100142145e0       0x34 load address 0x00000000142145e0
 .text.vfprintf
                0x00000100142145e0       0x34 /tools/arm-gnu-toolchain-13.2.Rel1-x86_64-aarch64-none-elf/bin/../lib/gcc/aarch64-none-elf/13.2.1/../../../../aarch64-none-elf/lib/libg.a(libc_a-vfprintf.o)
                0x00000100142145e0                vfprintf

.text.__sbprintf
                0x0000010014214620      0x1c0 load address 0x0000000014214620
 .text.__sbprintf
                0x0000010014214620       0xe0 /tools/arm-gnu-toolchain-13.2.Rel1-x86_64-aarch64-none-elf/bin/../lib/gcc/aarch64-none-elf/13.2.1/../../../../aarch64-none-elf/lib/libg.a(libc_a-vfprintf.o)
 .text.__sbprintf
                0x0000010014214700       0xe0 /tools/arm-gnu-toolchain-13.2.Rel1-x86_64-aarch64-none-elf/bin/../lib/gcc/aarch64-none-elf/13.2.1/../../../../aarch64-none-elf/lib/libg.a(libc_a-vfiprintf.o)

.text.__sprint_r.part.0
                0x00000100142147e0       0xd8 load address 0x00000000142147e0
 .text.__sprint_r.part.0
                0x00000100142147e0       0xd8 /tools/arm-gnu-toolchain-13.2.Rel1-x86_64-aarch64-none-elf/bin/../lib/gcc/aarch64-none-elf/13.2.1/../../../../aarch64-none-elf/lib/libg.a(libc_a-vfiprintf.o)

.text.__sprint_r
                0x00000100142148c0       0x18 load address 0x00000000142148c0
 .text.__sprint_r
                0x00000100142148c0       0x18 /tools/arm-gnu-toolchain-13.2.Rel1-x86_64-aarch64-none-elf/bin/../lib/gcc/aarch64-none-elf/13.2.1/../../../../aarch64-none-elf/lib/libg.a(libc_a-vfiprintf.o)
                0x00000100142148c0                __sprint_r

.text._vfiprintf_r
                0x00000100142148e0     0x1c04 load address 0x00000000142148e0
 .text._vfiprintf_r
                0x00000100142148e0     0x1c04 /tools/arm-gnu-toolchain-13.2.Rel1-x86_64-aarch64-none-elf/bin/../lib/gcc/aarch64-none-elf/13.2.1/../../../../aarch64-none-elf/lib/libg.a(libc_a-vfiprintf.o)
                0x00000100142148e0                _vfiprintf_r

.text.vfiprintf
                0x00000100142164f0       0x34 load address 0x00000000142164f0
 .text.vfiprintf
                0x00000100142164f0       0x34 /tools/arm-gnu-toolchain-13.2.Rel1-x86_64-aarch64-none-elf/bin/../lib/gcc/aarch64-none-elf/13.2.1/../../../../aarch64-none-elf/lib/libg.a(libc_a-vfiprintf.o)
                0x00000100142164f0                vfiprintf

.text._malloc_r
                0x0000010014216530      0x7f4 load address 0x0000000014216530
 .text._malloc_r
                0x0000010014216530      0x7f4 /tools/arm-gnu-toolchain-13.2.Rel1-x86_64-aarch64-none-elf/bin/../lib/gcc/aarch64-none-elf/13.2.1/../../../../aarch64-none-elf/lib/libg.a(libc_a-mallocr.o)
                0x0000010014216530                _malloc_r

.text._wcrtomb_r
                0x0000010014216d30       0x88 load address 0x0000000014216d30
 .text._wcrtomb_r
                0x0000010014216d30       0x88 /tools/arm-gnu-toolchain-13.2.Rel1-x86_64-aarch64-none-elf/bin/../lib/gcc/aarch64-none-elf/13.2.1/../../../../aarch64-none-elf/lib/libg.a(libc_a-wcrtomb.o)
                0x0000010014216d30                _wcrtomb_r

.text.wcrtomb   0x0000010014216dc0       0x9c load address 0x0000000014216dc0
 .text.wcrtomb  0x0000010014216dc0       0x9c /tools/arm-gnu-toolchain-13.2.Rel1-x86_64-aarch64-none-elf/bin/../lib/gcc/aarch64-none-elf/13.2.1/../../../../aarch64-none-elf/lib/libg.a(libc_a-wcrtomb.o)
                0x0000010014216dc0                wcrtomb

.text.__retarget_lock_init
                0x0000010014216e60        0x4 load address 0x0000000014216e60
 .text.__retarget_lock_init
                0x0000010014216e60        0x4 /tools/arm-gnu-toolchain-13.2.Rel1-x86_64-aarch64-none-elf/bin/../lib/gcc/aarch64-none-elf/13.2.1/../../../../aarch64-none-elf/lib/libg.a(libc_a-lock.o)
                0x0000010014216e60                __retarget_lock_init

.text.__retarget_lock_init_recursive
                0x0000010014216e70        0x4 load address 0x0000000014216e70
 .text.__retarget_lock_init_recursive
                0x0000010014216e70        0x4 /tools/arm-gnu-toolchain-13.2.Rel1-x86_64-aarch64-none-elf/bin/../lib/gcc/aarch64-none-elf/13.2.1/../../../../aarch64-none-elf/lib/libg.a(libc_a-lock.o)
                0x0000010014216e70                __retarget_lock_init_recursive

.text.__retarget_lock_close
                0x0000010014216e80        0x4 load address 0x0000000014216e80
 .text.__retarget_lock_close
                0x0000010014216e80        0x4 /tools/arm-gnu-toolchain-13.2.Rel1-x86_64-aarch64-none-elf/bin/../lib/gcc/aarch64-none-elf/13.2.1/../../../../aarch64-none-elf/lib/libg.a(libc_a-lock.o)
                0x0000010014216e80                __retarget_lock_close

.text.__retarget_lock_close_recursive
                0x0000010014216e90        0x4 load address 0x0000000014216e90
 .text.__retarget_lock_close_recursive
                0x0000010014216e90        0x4 /tools/arm-gnu-toolchain-13.2.Rel1-x86_64-aarch64-none-elf/bin/../lib/gcc/aarch64-none-elf/13.2.1/../../../../aarch64-none-elf/lib/libg.a(libc_a-lock.o)
                0x0000010014216e90                __retarget_lock_close_recursive

.text.__retarget_lock_acquire
                0x0000010014216ea0        0x4 load address 0x0000000014216ea0
 .text.__retarget_lock_acquire
                0x0000010014216ea0        0x4 /tools/arm-gnu-toolchain-13.2.Rel1-x86_64-aarch64-none-elf/bin/../lib/gcc/aarch64-none-elf/13.2.1/../../../../aarch64-none-elf/lib/libg.a(libc_a-lock.o)
                0x0000010014216ea0                __retarget_lock_acquire

.text.__retarget_lock_acquire_recursive
                0x0000010014216eb0        0x4 load address 0x0000000014216eb0
 .text.__retarget_lock_acquire_recursive
                0x0000010014216eb0        0x4 /tools/arm-gnu-toolchain-13.2.Rel1-x86_64-aarch64-none-elf/bin/../lib/gcc/aarch64-none-elf/13.2.1/../../../../aarch64-none-elf/lib/libg.a(libc_a-lock.o)
                0x0000010014216eb0                __retarget_lock_acquire_recursive

.text.__retarget_lock_try_acquire
                0x0000010014216ec0        0x8 load address 0x0000000014216ec0
 .text.__retarget_lock_try_acquire
                0x0000010014216ec0        0x8 /tools/arm-gnu-toolchain-13.2.Rel1-x86_64-aarch64-none-elf/bin/../lib/gcc/aarch64-none-elf/13.2.1/../../../../aarch64-none-elf/lib/libg.a(libc_a-lock.o)
                0x0000010014216ec0                __retarget_lock_try_acquire

.text.__retarget_lock_try_acquire_recursive
                0x0000010014216ed0        0x8 load address 0x0000000014216ed0
 .text.__retarget_lock_try_acquire_recursive
                0x0000010014216ed0        0x8 /tools/arm-gnu-toolchain-13.2.Rel1-x86_64-aarch64-none-elf/bin/../lib/gcc/aarch64-none-elf/13.2.1/../../../../aarch64-none-elf/lib/libg.a(libc_a-lock.o)
                0x0000010014216ed0                __retarget_lock_try_acquire_recursive

.text.__retarget_lock_release
                0x0000010014216ee0        0x4 load address 0x0000000014216ee0
 .text.__retarget_lock_release
                0x0000010014216ee0        0x4 /tools/arm-gnu-toolchain-13.2.Rel1-x86_64-aarch64-none-elf/bin/../lib/gcc/aarch64-none-elf/13.2.1/../../../../aarch64-none-elf/lib/libg.a(libc_a-lock.o)
                0x0000010014216ee0                __retarget_lock_release

.text.__retarget_lock_release_recursive
                0x0000010014216ef0        0x4 load address 0x0000000014216ef0
 .text.__retarget_lock_release_recursive
                0x0000010014216ef0        0x4 /tools/arm-gnu-toolchain-13.2.Rel1-x86_64-aarch64-none-elf/bin/../lib/gcc/aarch64-none-elf/13.2.1/../../../../aarch64-none-elf/lib/libg.a(libc_a-lock.o)
                0x0000010014216ef0                __retarget_lock_release_recursive

.text.currentlocale
                0x0000010014216f00       0xc4 load address 0x0000000014216f00
 .text.currentlocale
                0x0000010014216f00       0xc4 /tools/arm-gnu-toolchain-13.2.Rel1-x86_64-aarch64-none-elf/bin/../lib/gcc/aarch64-none-elf/13.2.1/../../../../aarch64-none-elf/lib/libg.a(libc_a-locale.o)

.text.__loadlocale
                0x0000010014216fd0      0x790 load address 0x0000000014216fd0
 .text.__loadlocale
                0x0000010014216fd0      0x790 /tools/arm-gnu-toolchain-13.2.Rel1-x86_64-aarch64-none-elf/bin/../lib/gcc/aarch64-none-elf/13.2.1/../../../../aarch64-none-elf/lib/libg.a(libc_a-locale.o)
                0x0000010014216fd0                __loadlocale

.text.__get_locale_env
                0x0000010014217760       0x7c load address 0x0000000014217760
 .text.__get_locale_env
                0x0000010014217760       0x7c /tools/arm-gnu-toolchain-13.2.Rel1-x86_64-aarch64-none-elf/bin/../lib/gcc/aarch64-none-elf/13.2.1/../../../../aarch64-none-elf/lib/libg.a(libc_a-locale.o)
                0x0000010014217760                __get_locale_env

.text._setlocale_r
                0x00000100142177e0      0x3b0 load address 0x00000000142177e0
 .text._setlocale_r
                0x00000100142177e0      0x3b0 /tools/arm-gnu-toolchain-13.2.Rel1-x86_64-aarch64-none-elf/bin/../lib/gcc/aarch64-none-elf/13.2.1/../../../../aarch64-none-elf/lib/libg.a(libc_a-locale.o)
                0x00000100142177e0                _setlocale_r

.text.__locale_mb_cur_max
                0x0000010014217b90        0xc load address 0x0000000014217b90
 .text.__locale_mb_cur_max
                0x0000010014217b90        0xc /tools/arm-gnu-toolchain-13.2.Rel1-x86_64-aarch64-none-elf/bin/../lib/gcc/aarch64-none-elf/13.2.1/../../../../aarch64-none-elf/lib/libg.a(libc_a-locale.o)
                0x0000010014217b90                __locale_mb_cur_max

.text.setlocale
                0x0000010014217ba0       0x14 load address 0x0000000014217ba0
 .text.setlocale
                0x0000010014217ba0       0x14 /tools/arm-gnu-toolchain-13.2.Rel1-x86_64-aarch64-none-elf/bin/../lib/gcc/aarch64-none-elf/13.2.1/../../../../aarch64-none-elf/lib/libg.a(libc_a-locale.o)
                0x0000010014217ba0                setlocale

.text.__localeconv_l
                0x0000010014217bc0        0x8 load address 0x0000000014217bc0
 .text.__localeconv_l
                0x0000010014217bc0        0x8 /tools/arm-gnu-toolchain-13.2.Rel1-x86_64-aarch64-none-elf/bin/../lib/gcc/aarch64-none-elf/13.2.1/../../../../aarch64-none-elf/lib/libg.a(libc_a-localeconv.o)
                0x0000010014217bc0                __localeconv_l

.text._localeconv_r
                0x0000010014217bd0        0xc load address 0x0000000014217bd0
 .text._localeconv_r
                0x0000010014217bd0        0xc /tools/arm-gnu-toolchain-13.2.Rel1-x86_64-aarch64-none-elf/bin/../lib/gcc/aarch64-none-elf/13.2.1/../../../../aarch64-none-elf/lib/libg.a(libc_a-localeconv.o)
                0x0000010014217bd0                _localeconv_r

.text.localeconv
                0x0000010014217be0        0xc load address 0x0000000014217be0
 .text.localeconv
                0x0000010014217be0        0xc /tools/arm-gnu-toolchain-13.2.Rel1-x86_64-aarch64-none-elf/bin/../lib/gcc/aarch64-none-elf/13.2.1/../../../../aarch64-none-elf/lib/libg.a(libc_a-localeconv.o)
                0x0000010014217be0                localeconv

.text._fclose_r
                0x0000010014217bf0      0x13c load address 0x0000000014217bf0
 .text._fclose_r
                0x0000010014217bf0      0x13c /tools/arm-gnu-toolchain-13.2.Rel1-x86_64-aarch64-none-elf/bin/../lib/gcc/aarch64-none-elf/13.2.1/../../../../aarch64-none-elf/lib/libg.a(libc_a-fclose.o)
                0x0000010014217bf0                _fclose_r

.text.fclose    0x0000010014217d30       0x10 load address 0x0000000014217d30
 .text.fclose   0x0000010014217d30       0x10 /tools/arm-gnu-toolchain-13.2.Rel1-x86_64-aarch64-none-elf/bin/../lib/gcc/aarch64-none-elf/13.2.1/../../../../aarch64-none-elf/lib/libg.a(libc_a-fclose.o)
                0x0000010014217d30                fclose

.text.__swsetup_r
                0x0000010014217d40      0x130 load address 0x0000000014217d40
 .text.__swsetup_r
                0x0000010014217d40      0x130 /tools/arm-gnu-toolchain-13.2.Rel1-x86_64-aarch64-none-elf/bin/../lib/gcc/aarch64-none-elf/13.2.1/../../../../aarch64-none-elf/lib/libg.a(libc_a-wsetup.o)
                0x0000010014217d40                __swsetup_r

.text.__smakebuf_r
                0x0000010014217e70      0x150 load address 0x0000000014217e70
 .text.__smakebuf_r
                0x0000010014217e70      0x150 /tools/arm-gnu-toolchain-13.2.Rel1-x86_64-aarch64-none-elf/bin/../lib/gcc/aarch64-none-elf/13.2.1/../../../../aarch64-none-elf/lib/libg.a(libc_a-makebuf.o)
                0x0000010014217e70                __smakebuf_r

.text.__swhatbuf_r
                0x0000010014217fc0       0x94 load address 0x0000000014217fc0
 .text.__swhatbuf_r
                0x0000010014217fc0       0x94 /tools/arm-gnu-toolchain-13.2.Rel1-x86_64-aarch64-none-elf/bin/../lib/gcc/aarch64-none-elf/13.2.1/../../../../aarch64-none-elf/lib/libg.a(libc_a-makebuf.o)
                0x0000010014217fc0                __swhatbuf_r

.text._putc_r   0x0000010014218060       0xe0 load address 0x0000000014218060
 .text._putc_r  0x0000010014218060       0xe0 /tools/arm-gnu-toolchain-13.2.Rel1-x86_64-aarch64-none-elf/bin/../lib/gcc/aarch64-none-elf/13.2.1/../../../../aarch64-none-elf/lib/libg.a(libc_a-putc.o)
                0x0000010014218060                _putc_r

.text.putc      0x0000010014218140       0xe8 load address 0x0000000014218140
 .text.putc     0x0000010014218140       0xe8 /tools/arm-gnu-toolchain-13.2.Rel1-x86_64-aarch64-none-elf/bin/../lib/gcc/aarch64-none-elf/13.2.1/../../../../aarch64-none-elf/lib/libg.a(libc_a-putc.o)
                0x0000010014218140                putc

.text.__malloc_lock
                0x0000010014218230        0xc load address 0x0000000014218230
 .text.__malloc_lock
                0x0000010014218230        0xc /tools/arm-gnu-toolchain-13.2.Rel1-x86_64-aarch64-none-elf/bin/../lib/gcc/aarch64-none-elf/13.2.1/../../../../aarch64-none-elf/lib/libg.a(libc_a-mlock.o)
                0x0000010014218230                __malloc_lock

.text.__malloc_unlock
                0x0000010014218240        0xc load address 0x0000000014218240
 .text.__malloc_unlock
                0x0000010014218240        0xc /tools/arm-gnu-toolchain-13.2.Rel1-x86_64-aarch64-none-elf/bin/../lib/gcc/aarch64-none-elf/13.2.1/../../../../aarch64-none-elf/lib/libg.a(libc_a-mlock.o)
                0x0000010014218240                __malloc_unlock

.text._wcsrtombs_r
                0x0000010014218250       0x10 load address 0x0000000014218250
 .text._wcsrtombs_r
                0x0000010014218250       0x10 /tools/arm-gnu-toolchain-13.2.Rel1-x86_64-aarch64-none-elf/bin/../lib/gcc/aarch64-none-elf/13.2.1/../../../../aarch64-none-elf/lib/libg.a(libc_a-wcsrtombs.o)
                0x0000010014218250                _wcsrtombs_r

.text.wcsrtombs
                0x0000010014218260       0x28 load address 0x0000000014218260
 .text.wcsrtombs
                0x0000010014218260       0x28 /tools/arm-gnu-toolchain-13.2.Rel1-x86_64-aarch64-none-elf/bin/../lib/gcc/aarch64-none-elf/13.2.1/../../../../aarch64-none-elf/lib/libg.a(libc_a-wcsrtombs.o)
                0x0000010014218260                wcsrtombs

.text.quorem    0x0000010014218290      0x1a4 load address 0x0000000014218290
 .text.quorem   0x0000010014218290      0x1a4 /tools/arm-gnu-toolchain-13.2.Rel1-x86_64-aarch64-none-elf/bin/../lib/gcc/aarch64-none-elf/13.2.1/../../../../aarch64-none-elf/lib/libg.a(libc_a-dtoa.o)

.text._dtoa_r   0x0000010014218440     0x1198 load address 0x0000000014218440
 .text._dtoa_r  0x0000010014218440     0x1198 /tools/arm-gnu-toolchain-13.2.Rel1-x86_64-aarch64-none-elf/bin/../lib/gcc/aarch64-none-elf/13.2.1/../../../../aarch64-none-elf/lib/libg.a(libc_a-dtoa.o)
                0x0000010014218440                _dtoa_r

.text.__set_ctype
                0x00000100142195e0       0x10 load address 0x00000000142195e0
 .text.__set_ctype
                0x00000100142195e0       0x10 /tools/arm-gnu-toolchain-13.2.Rel1-x86_64-aarch64-none-elf/bin/../lib/gcc/aarch64-none-elf/13.2.1/../../../../aarch64-none-elf/lib/libg.a(libc_a-ctype_.o)
                0x00000100142195e0                __set_ctype

.text._close_r  0x00000100142195f0       0x4c load address 0x00000000142195f0
 .text._close_r
                0x00000100142195f0       0x4c /tools/arm-gnu-toolchain-13.2.Rel1-x86_64-aarch64-none-elf/bin/../lib/gcc/aarch64-none-elf/13.2.1/../../../../aarch64-none-elf/lib/libg.a(libc_a-closer.o)
                0x00000100142195f0                _close_r

.text.__sflush_r
                0x0000010014219640      0x200 load address 0x0000000014219640
 .text.__sflush_r
                0x0000010014219640      0x200 /tools/arm-gnu-toolchain-13.2.Rel1-x86_64-aarch64-none-elf/bin/../lib/gcc/aarch64-none-elf/13.2.1/../../../../aarch64-none-elf/lib/libg.a(libc_a-fflush.o)
                0x0000010014219640                __sflush_r

.text._fflush_r
                0x0000010014219840       0xb8 load address 0x0000000014219840
 .text._fflush_r
                0x0000010014219840       0xb8 /tools/arm-gnu-toolchain-13.2.Rel1-x86_64-aarch64-none-elf/bin/../lib/gcc/aarch64-none-elf/13.2.1/../../../../aarch64-none-elf/lib/libg.a(libc_a-fflush.o)
                0x0000010014219840                _fflush_r

.text.fflush    0x0000010014219900       0xb8 load address 0x0000000014219900
 .text.fflush   0x0000010014219900       0xb8 /tools/arm-gnu-toolchain-13.2.Rel1-x86_64-aarch64-none-elf/bin/../lib/gcc/aarch64-none-elf/13.2.1/../../../../aarch64-none-elf/lib/libg.a(libc_a-fflush.o)
                0x0000010014219900                fflush

.text.frexp     0x00000100142199c0       0x78 load address 0x00000000142199c0
 .text.frexp    0x00000100142199c0       0x78 /tools/arm-gnu-toolchain-13.2.Rel1-x86_64-aarch64-none-elf/bin/../lib/gcc/aarch64-none-elf/13.2.1/../../../../aarch64-none-elf/lib/libg.a(libm_a-s_frexp.o)
                0x00000100142199c0                frexp

.text.strlcpy   0x0000010014219a40       0x3c load address 0x0000000014219a40
 .text.strlcpy  0x0000010014219a40       0x3c /tools/arm-gnu-toolchain-13.2.Rel1-x86_64-aarch64-none-elf/bin/../lib/gcc/aarch64-none-elf/13.2.1/../../../../aarch64-none-elf/lib/libg.a(libc_a-strlcpy.o)
                0x0000010014219a40                strlcpy

.text._strtol_l.part.0
                0x0000010014219a80      0x184 load address 0x0000000014219a80
 .text._strtol_l.part.0
                0x0000010014219a80      0x184 /tools/arm-gnu-toolchain-13.2.Rel1-x86_64-aarch64-none-elf/bin/../lib/gcc/aarch64-none-elf/13.2.1/../../../../aarch64-none-elf/lib/libg.a(libc_a-strtol.o)

.text._strtol_r
                0x0000010014219c10       0x30 load address 0x0000000014219c10
 .text._strtol_r
                0x0000010014219c10       0x30 /tools/arm-gnu-toolchain-13.2.Rel1-x86_64-aarch64-none-elf/bin/../lib/gcc/aarch64-none-elf/13.2.1/../../../../aarch64-none-elf/lib/libg.a(libc_a-strtol.o)
                0x0000010014219c10                _strtol_r

.text.strtol_l  0x0000010014219c40       0x48 load address 0x0000000014219c40
 .text.strtol_l
                0x0000010014219c40       0x48 /tools/arm-gnu-toolchain-13.2.Rel1-x86_64-aarch64-none-elf/bin/../lib/gcc/aarch64-none-elf/13.2.1/../../../../aarch64-none-elf/lib/libg.a(libc_a-strtol.o)
                0x0000010014219c40                strtol_l

.text.strtol    0x0000010014219c90       0x48 load address 0x0000000014219c90
 .text.strtol   0x0000010014219c90       0x48 /tools/arm-gnu-toolchain-13.2.Rel1-x86_64-aarch64-none-elf/bin/../lib/gcc/aarch64-none-elf/13.2.1/../../../../aarch64-none-elf/lib/libg.a(libc_a-strtol.o)
                0x0000010014219c90                strtol

.text.strncasecmp
                0x0000010014219ce0       0x7c load address 0x0000000014219ce0
 .text.strncasecmp
                0x0000010014219ce0       0x7c /tools/arm-gnu-toolchain-13.2.Rel1-x86_64-aarch64-none-elf/bin/../lib/gcc/aarch64-none-elf/13.2.1/../../../../aarch64-none-elf/lib/libg.a(libc_a-strncasecmp.o)
                0x0000010014219ce0                strncasecmp

.text._findenv_r
                0x0000010014219d60       0xfc load address 0x0000000014219d60
 .text._findenv_r
                0x0000010014219d60       0xfc /tools/arm-gnu-toolchain-13.2.Rel1-x86_64-aarch64-none-elf/bin/../lib/gcc/aarch64-none-elf/13.2.1/../../../../aarch64-none-elf/lib/libg.a(libc_a-getenv_r.o)
                0x0000010014219d60                _findenv_r

.text._getenv_r
                0x0000010014219e60       0x18 load address 0x0000000014219e60
 .text._getenv_r
                0x0000010014219e60       0x18 /tools/arm-gnu-toolchain-13.2.Rel1-x86_64-aarch64-none-elf/bin/../lib/gcc/aarch64-none-elf/13.2.1/../../../../aarch64-none-elf/lib/libg.a(libc_a-getenv_r.o)
                0x0000010014219e60                _getenv_r

.text.strncpy   0x0000010014219e80       0x90 load address 0x0000000014219e80
 .text.strncpy  0x0000010014219e80       0x90 /tools/arm-gnu-toolchain-13.2.Rel1-x86_64-aarch64-none-elf/bin/../lib/gcc/aarch64-none-elf/13.2.1/../../../../aarch64-none-elf/lib/libg.a(libc_a-strncpy.o)
                0x0000010014219e80                strncpy

.text._fstat_r  0x0000010014219f10       0x50 load address 0x0000000014219f10
 .text._fstat_r
                0x0000010014219f10       0x50 /tools/arm-gnu-toolchain-13.2.Rel1-x86_64-aarch64-none-elf/bin/../lib/gcc/aarch64-none-elf/13.2.1/../../../../aarch64-none-elf/lib/libg.a(libc_a-fstatr.o)
                0x0000010014219f10                _fstat_r

.text._isatty_r
                0x0000010014219f60       0x4c load address 0x0000000014219f60
 .text._isatty_r
                0x0000010014219f60       0x4c /tools/arm-gnu-toolchain-13.2.Rel1-x86_64-aarch64-none-elf/bin/../lib/gcc/aarch64-none-elf/13.2.1/../../../../aarch64-none-elf/lib/libg.a(libc_a-isattyr.o)
                0x0000010014219f60                _isatty_r

.text._lseek_r  0x0000010014219fb0       0x54 load address 0x0000000014219fb0
 .text._lseek_r
                0x0000010014219fb0       0x54 /tools/arm-gnu-toolchain-13.2.Rel1-x86_64-aarch64-none-elf/bin/../lib/gcc/aarch64-none-elf/13.2.1/../../../../aarch64-none-elf/lib/libg.a(libc_a-lseekr.o)
                0x0000010014219fb0                _lseek_r

.text._read_r   0x000001001421a010       0x60 load address 0x000000001421a010
 .text._read_r  0x000001001421a010       0x60 /tools/arm-gnu-toolchain-13.2.Rel1-x86_64-aarch64-none-elf/bin/../lib/gcc/aarch64-none-elf/13.2.1/../../../../aarch64-none-elf/lib/libg.a(libc_a-readr.o)
                0x000001001421a010                _read_r

.text.__fputwc  0x000001001421a070       0xe0 load address 0x000000001421a070
 .text.__fputwc
                0x000001001421a070       0xe0 /tools/arm-gnu-toolchain-13.2.Rel1-x86_64-aarch64-none-elf/bin/../lib/gcc/aarch64-none-elf/13.2.1/../../../../aarch64-none-elf/lib/libg.a(libc_a-fputwc.o)
                0x000001001421a070                __fputwc

.text._fputwc_r
                0x000001001421a150       0x9c load address 0x000000001421a150
 .text._fputwc_r
                0x000001001421a150       0x9c /tools/arm-gnu-toolchain-13.2.Rel1-x86_64-aarch64-none-elf/bin/../lib/gcc/aarch64-none-elf/13.2.1/../../../../aarch64-none-elf/lib/libg.a(libc_a-fputwc.o)
                0x000001001421a150                _fputwc_r

.text.fputwc    0x000001001421a1f0       0xc4 load address 0x000000001421a1f0
 .text.fputwc   0x000001001421a1f0       0xc4 /tools/arm-gnu-toolchain-13.2.Rel1-x86_64-aarch64-none-elf/bin/../lib/gcc/aarch64-none-elf/13.2.1/../../../../aarch64-none-elf/lib/libg.a(libc_a-fputwc.o)
                0x000001001421a1f0                fputwc

.text._wctomb_r
                0x000001001421a2c0       0x10 load address 0x000000001421a2c0
 .text._wctomb_r
                0x000001001421a2c0       0x10 /tools/arm-gnu-toolchain-13.2.Rel1-x86_64-aarch64-none-elf/bin/../lib/gcc/aarch64-none-elf/13.2.1/../../../../aarch64-none-elf/lib/libg.a(libc_a-wctomb_r.o)
                0x000001001421a2c0                _wctomb_r

.text.__ascii_wctomb
                0x000001001421a2d0       0x34 load address 0x000000001421a2d0
 .text.__ascii_wctomb
                0x000001001421a2d0       0x34 /tools/arm-gnu-toolchain-13.2.Rel1-x86_64-aarch64-none-elf/bin/../lib/gcc/aarch64-none-elf/13.2.1/../../../../aarch64-none-elf/lib/libg.a(libc_a-wctomb_r.o)
                0x000001001421a2d0                __ascii_wctomb

.text.__utf8_wctomb
                0x000001001421a310       0xe4 load address 0x000000001421a310
 .text.__utf8_wctomb
                0x000001001421a310       0xe4 /tools/arm-gnu-toolchain-13.2.Rel1-x86_64-aarch64-none-elf/bin/../lib/gcc/aarch64-none-elf/13.2.1/../../../../aarch64-none-elf/lib/libg.a(libc_a-wctomb_r.o)
                0x000001001421a310                __utf8_wctomb

.text.__sjis_wctomb
                0x000001001421a400       0x84 load address 0x000000001421a400
 .text.__sjis_wctomb
                0x000001001421a400       0x84 /tools/arm-gnu-toolchain-13.2.Rel1-x86_64-aarch64-none-elf/bin/../lib/gcc/aarch64-none-elf/13.2.1/../../../../aarch64-none-elf/lib/libg.a(libc_a-wctomb_r.o)
                0x000001001421a400                __sjis_wctomb

.text.__eucjp_wctomb
                0x000001001421a490       0xa8 load address 0x000000001421a490
 .text.__eucjp_wctomb
                0x000001001421a490       0xa8 /tools/arm-gnu-toolchain-13.2.Rel1-x86_64-aarch64-none-elf/bin/../lib/gcc/aarch64-none-elf/13.2.1/../../../../aarch64-none-elf/lib/libg.a(libc_a-wctomb_r.o)
                0x000001001421a490                __eucjp_wctomb

.text.__jis_wctomb
                0x000001001421a540       0xbc load address 0x000000001421a540
 .text.__jis_wctomb
                0x000001001421a540       0xbc /tools/arm-gnu-toolchain-13.2.Rel1-x86_64-aarch64-none-elf/bin/../lib/gcc/aarch64-none-elf/13.2.1/../../../../aarch64-none-elf/lib/libg.a(libc_a-wctomb_r.o)
                0x000001001421a540                __jis_wctomb

.text.__sfvwrite_r
                0x000001001421a600      0x4cc load address 0x000000001421a600
 .text.__sfvwrite_r
                0x000001001421a600      0x4cc /tools/arm-gnu-toolchain-13.2.Rel1-x86_64-aarch64-none-elf/bin/../lib/gcc/aarch64-none-elf/13.2.1/../../../../aarch64-none-elf/lib/libg.a(libc_a-fvwrite.o)
                0x000001001421a600                __sfvwrite_r

.text.__swbuf_r
                0x000001001421aad0      0x138 load address 0x000000001421aad0
 .text.__swbuf_r
                0x000001001421aad0      0x138 /tools/arm-gnu-toolchain-13.2.Rel1-x86_64-aarch64-none-elf/bin/../lib/gcc/aarch64-none-elf/13.2.1/../../../../aarch64-none-elf/lib/libg.a(libc_a-wbuf.o)
                0x000001001421aad0                __swbuf_r

.text.__swbuf   0x000001001421ac10       0x14 load address 0x000000001421ac10
 .text.__swbuf  0x000001001421ac10       0x14 /tools/arm-gnu-toolchain-13.2.Rel1-x86_64-aarch64-none-elf/bin/../lib/gcc/aarch64-none-elf/13.2.1/../../../../aarch64-none-elf/lib/libg.a(libc_a-wbuf.o)
                0x000001001421ac10                __swbuf

.text._mbtowc_r
                0x000001001421ac30       0x10 load address 0x000000001421ac30
 .text._mbtowc_r
                0x000001001421ac30       0x10 /tools/arm-gnu-toolchain-13.2.Rel1-x86_64-aarch64-none-elf/bin/../lib/gcc/aarch64-none-elf/13.2.1/../../../../aarch64-none-elf/lib/libg.a(libc_a-mbtowc_r.o)
                0x000001001421ac30                _mbtowc_r

.text.__ascii_mbtowc
                0x000001001421ac40       0x48 load address 0x000000001421ac40
 .text.__ascii_mbtowc
                0x000001001421ac40       0x48 /tools/arm-gnu-toolchain-13.2.Rel1-x86_64-aarch64-none-elf/bin/../lib/gcc/aarch64-none-elf/13.2.1/../../../../aarch64-none-elf/lib/libg.a(libc_a-mbtowc_r.o)
                0x000001001421ac40                __ascii_mbtowc

.text.__utf8_mbtowc
                0x000001001421ac90      0x2b8 load address 0x000000001421ac90
 .text.__utf8_mbtowc
                0x000001001421ac90      0x2b8 /tools/arm-gnu-toolchain-13.2.Rel1-x86_64-aarch64-none-elf/bin/../lib/gcc/aarch64-none-elf/13.2.1/../../../../aarch64-none-elf/lib/libg.a(libc_a-mbtowc_r.o)
                0x000001001421ac90                __utf8_mbtowc

.text.__sjis_mbtowc
                0x000001001421af50       0xcc load address 0x000000001421af50
 .text.__sjis_mbtowc
                0x000001001421af50       0xcc /tools/arm-gnu-toolchain-13.2.Rel1-x86_64-aarch64-none-elf/bin/../lib/gcc/aarch64-none-elf/13.2.1/../../../../aarch64-none-elf/lib/libg.a(libc_a-mbtowc_r.o)
                0x000001001421af50                __sjis_mbtowc

.text.__eucjp_mbtowc
                0x000001001421b020      0x124 load address 0x000000001421b020
 .text.__eucjp_mbtowc
                0x000001001421b020      0x124 /tools/arm-gnu-toolchain-13.2.Rel1-x86_64-aarch64-none-elf/bin/../lib/gcc/aarch64-none-elf/13.2.1/../../../../aarch64-none-elf/lib/libg.a(libc_a-mbtowc_r.o)
                0x000001001421b020                __eucjp_mbtowc

.text.__jis_mbtowc
                0x000001001421b150      0x1c0 load address 0x000000001421b150
 .text.__jis_mbtowc
                0x000001001421b150      0x1c0 /tools/arm-gnu-toolchain-13.2.Rel1-x86_64-aarch64-none-elf/bin/../lib/gcc/aarch64-none-elf/13.2.1/../../../../aarch64-none-elf/lib/libg.a(libc_a-mbtowc_r.o)
                0x000001001421b150                __jis_mbtowc

.text.__assert_func
                0x000001001421b310       0x54 load address 0x000000001421b310
 .text.__assert_func
                0x000001001421b310       0x54 /tools/arm-gnu-toolchain-13.2.Rel1-x86_64-aarch64-none-elf/bin/../lib/gcc/aarch64-none-elf/13.2.1/../../../../aarch64-none-elf/lib/libg.a(libc_a-assert.o)
                0x000001001421b310                __assert_func

.text.__assert  0x000001001421b370       0x14 load address 0x000000001421b370
 .text.__assert
                0x000001001421b370       0x14 /tools/arm-gnu-toolchain-13.2.Rel1-x86_64-aarch64-none-elf/bin/../lib/gcc/aarch64-none-elf/13.2.1/../../../../aarch64-none-elf/lib/libg.a(libc_a-assert.o)
                0x000001001421b370                __assert

.text.strcasecmp
                0x000001001421b390       0x6c load address 0x000000001421b390
 .text.strcasecmp
                0x000001001421b390       0x6c /tools/arm-gnu-toolchain-13.2.Rel1-x86_64-aarch64-none-elf/bin/../lib/gcc/aarch64-none-elf/13.2.1/../../../../aarch64-none-elf/lib/libg.a(libc_a-strcasecmp.o)
                0x000001001421b390                strcasecmp

.text.strcat    0x000001001421b400       0x74 load address 0x000000001421b400
 .text.strcat   0x000001001421b400       0x74 /tools/arm-gnu-toolchain-13.2.Rel1-x86_64-aarch64-none-elf/bin/../lib/gcc/aarch64-none-elf/13.2.1/../../../../aarch64-none-elf/lib/libg.a(libc_a-strcat.o)
                0x000001001421b400                strcat

.text._Balloc   0x000001001421b480       0x8c load address 0x000000001421b480
 .text._Balloc  0x000001001421b480       0x8c /tools/arm-gnu-toolchain-13.2.Rel1-x86_64-aarch64-none-elf/bin/../lib/gcc/aarch64-none-elf/13.2.1/../../../../aarch64-none-elf/lib/libg.a(libc_a-mprec.o)
                0x000001001421b480                _Balloc

.text._Bfree    0x000001001421b510       0x1c load address 0x000000001421b510
 .text._Bfree   0x000001001421b510       0x1c /tools/arm-gnu-toolchain-13.2.Rel1-x86_64-aarch64-none-elf/bin/../lib/gcc/aarch64-none-elf/13.2.1/../../../../aarch64-none-elf/lib/libg.a(libc_a-mprec.o)
                0x000001001421b510                _Bfree

.text.__multadd
                0x000001001421b530      0x110 load address 0x000000001421b530
 .text.__multadd
                0x000001001421b530      0x110 /tools/arm-gnu-toolchain-13.2.Rel1-x86_64-aarch64-none-elf/bin/../lib/gcc/aarch64-none-elf/13.2.1/../../../../aarch64-none-elf/lib/libg.a(libc_a-mprec.o)
                0x000001001421b530                __multadd

.text.__s2b     0x000001001421b640      0x130 load address 0x000000001421b640
 .text.__s2b    0x000001001421b640      0x130 /tools/arm-gnu-toolchain-13.2.Rel1-x86_64-aarch64-none-elf/bin/../lib/gcc/aarch64-none-elf/13.2.1/../../../../aarch64-none-elf/lib/libg.a(libc_a-mprec.o)
                0x000001001421b640                __s2b

.text.__hi0bits
                0x000001001421b770       0x80 load address 0x000000001421b770
 .text.__hi0bits
                0x000001001421b770       0x80 /tools/arm-gnu-toolchain-13.2.Rel1-x86_64-aarch64-none-elf/bin/../lib/gcc/aarch64-none-elf/13.2.1/../../../../aarch64-none-elf/lib/libg.a(libc_a-mprec.o)
                0x000001001421b770                __hi0bits

.text.__lo0bits
                0x000001001421b7f0       0x9c load address 0x000000001421b7f0
 .text.__lo0bits
                0x000001001421b7f0       0x9c /tools/arm-gnu-toolchain-13.2.Rel1-x86_64-aarch64-none-elf/bin/../lib/gcc/aarch64-none-elf/13.2.1/../../../../aarch64-none-elf/lib/libg.a(libc_a-mprec.o)
                0x000001001421b7f0                __lo0bits

.text.__i2b     0x000001001421b890       0xb8 load address 0x000000001421b890
 .text.__i2b    0x000001001421b890       0xb8 /tools/arm-gnu-toolchain-13.2.Rel1-x86_64-aarch64-none-elf/bin/../lib/gcc/aarch64-none-elf/13.2.1/../../../../aarch64-none-elf/lib/libg.a(libc_a-mprec.o)
                0x000001001421b890                __i2b

.text.__multiply
                0x000001001421b950      0x1e4 load address 0x000000001421b950
 .text.__multiply
                0x000001001421b950      0x1e4 /tools/arm-gnu-toolchain-13.2.Rel1-x86_64-aarch64-none-elf/bin/../lib/gcc/aarch64-none-elf/13.2.1/../../../../aarch64-none-elf/lib/libg.a(libc_a-mprec.o)
                0x000001001421b950                __multiply

.text.__pow5mult
                0x000001001421bb40      0x120 load address 0x000000001421bb40
 .text.__pow5mult
                0x000001001421bb40      0x120 /tools/arm-gnu-toolchain-13.2.Rel1-x86_64-aarch64-none-elf/bin/../lib/gcc/aarch64-none-elf/13.2.1/../../../../aarch64-none-elf/lib/libg.a(libc_a-mprec.o)
                0x000001001421bb40                __pow5mult

.text.__lshift  0x000001001421bc60      0x168 load address 0x000000001421bc60
 .text.__lshift
                0x000001001421bc60      0x168 /tools/arm-gnu-toolchain-13.2.Rel1-x86_64-aarch64-none-elf/bin/../lib/gcc/aarch64-none-elf/13.2.1/../../../../aarch64-none-elf/lib/libg.a(libc_a-mprec.o)
                0x000001001421bc60                __lshift

.text.__mcmp    0x000001001421bdd0       0x50 load address 0x000000001421bdd0
 .text.__mcmp   0x000001001421bdd0       0x50 /tools/arm-gnu-toolchain-13.2.Rel1-x86_64-aarch64-none-elf/bin/../lib/gcc/aarch64-none-elf/13.2.1/../../../../aarch64-none-elf/lib/libg.a(libc_a-mprec.o)
                0x000001001421bdd0                __mcmp

.text.__mdiff   0x000001001421be20      0x200 load address 0x000000001421be20
 .text.__mdiff  0x000001001421be20      0x200 /tools/arm-gnu-toolchain-13.2.Rel1-x86_64-aarch64-none-elf/bin/../lib/gcc/aarch64-none-elf/13.2.1/../../../../aarch64-none-elf/lib/libg.a(libc_a-mprec.o)
                0x000001001421be20                __mdiff

.text.__ulp     0x000001001421c020       0x84 load address 0x000000001421c020
 .text.__ulp    0x000001001421c020       0x84 /tools/arm-gnu-toolchain-13.2.Rel1-x86_64-aarch64-none-elf/bin/../lib/gcc/aarch64-none-elf/13.2.1/../../../../aarch64-none-elf/lib/libg.a(libc_a-mprec.o)
                0x000001001421c020                __ulp

.text.__b2d     0x000001001421c0b0      0x12c load address 0x000000001421c0b0
 .text.__b2d    0x000001001421c0b0      0x12c /tools/arm-gnu-toolchain-13.2.Rel1-x86_64-aarch64-none-elf/bin/../lib/gcc/aarch64-none-elf/13.2.1/../../../../aarch64-none-elf/lib/libg.a(libc_a-mprec.o)
                0x000001001421c0b0                __b2d

.text.__d2b     0x000001001421c1e0      0x13c load address 0x000000001421c1e0
 .text.__d2b    0x000001001421c1e0      0x13c /tools/arm-gnu-toolchain-13.2.Rel1-x86_64-aarch64-none-elf/bin/../lib/gcc/aarch64-none-elf/13.2.1/../../../../aarch64-none-elf/lib/libg.a(libc_a-mprec.o)
                0x000001001421c1e0                __d2b

.text.__ratio   0x000001001421c320       0x88 load address 0x000000001421c320
 .text.__ratio  0x000001001421c320       0x88 /tools/arm-gnu-toolchain-13.2.Rel1-x86_64-aarch64-none-elf/bin/../lib/gcc/aarch64-none-elf/13.2.1/../../../../aarch64-none-elf/lib/libg.a(libc_a-mprec.o)
                0x000001001421c320                __ratio

.text._mprec_log10
                0x000001001421c3b0       0x30 load address 0x000000001421c3b0
 .text._mprec_log10
                0x000001001421c3b0       0x30 /tools/arm-gnu-toolchain-13.2.Rel1-x86_64-aarch64-none-elf/bin/../lib/gcc/aarch64-none-elf/13.2.1/../../../../aarch64-none-elf/lib/libg.a(libc_a-mprec.o)
                0x000001001421c3b0                _mprec_log10

.text.__copybits
                0x000001001421c3e0       0x68 load address 0x000000001421c3e0
 .text.__copybits
                0x000001001421c3e0       0x68 /tools/arm-gnu-toolchain-13.2.Rel1-x86_64-aarch64-none-elf/bin/../lib/gcc/aarch64-none-elf/13.2.1/../../../../aarch64-none-elf/lib/libg.a(libc_a-mprec.o)
                0x000001001421c3e0                __copybits

.text.__any_on  0x000001001421c450       0x6c load address 0x000000001421c450
 .text.__any_on
                0x000001001421c450       0x6c /tools/arm-gnu-toolchain-13.2.Rel1-x86_64-aarch64-none-elf/bin/../lib/gcc/aarch64-none-elf/13.2.1/../../../../aarch64-none-elf/lib/libg.a(libc_a-mprec.o)
                0x000001001421c450                __any_on

.text._calloc_r
                0x000001001421c4c0       0xc0 load address 0x000000001421c4c0
 .text._calloc_r
                0x000001001421c4c0       0xc0 /tools/arm-gnu-toolchain-13.2.Rel1-x86_64-aarch64-none-elf/bin/../lib/gcc/aarch64-none-elf/13.2.1/../../../../aarch64-none-elf/lib/libg.a(libc_a-callocr.o)
                0x000001001421c4c0                _calloc_r

.text._wcsnrtombs_l
                0x000001001421c580      0x1a4 load address 0x000000001421c580
 .text._wcsnrtombs_l
                0x000001001421c580      0x1a4 /tools/arm-gnu-toolchain-13.2.Rel1-x86_64-aarch64-none-elf/bin/../lib/gcc/aarch64-none-elf/13.2.1/../../../../aarch64-none-elf/lib/libg.a(libc_a-wcsnrtombs.o)
                0x000001001421c580                _wcsnrtombs_l

.text._wcsnrtombs_r
                0x000001001421c730       0x14 load address 0x000000001421c730
 .text._wcsnrtombs_r
                0x000001001421c730       0x14 /tools/arm-gnu-toolchain-13.2.Rel1-x86_64-aarch64-none-elf/bin/../lib/gcc/aarch64-none-elf/13.2.1/../../../../aarch64-none-elf/lib/libg.a(libc_a-wcsnrtombs.o)
                0x000001001421c730                _wcsnrtombs_r

.text.wcsnrtombs
                0x000001001421c750       0x38 load address 0x000000001421c750
 .text.wcsnrtombs
                0x000001001421c750       0x38 /tools/arm-gnu-toolchain-13.2.Rel1-x86_64-aarch64-none-elf/bin/../lib/gcc/aarch64-none-elf/13.2.1/../../../../aarch64-none-elf/lib/libg.a(libc_a-wcsnrtombs.o)
                0x000001001421c750                wcsnrtombs

.text._realloc_r
                0x000001001421c790      0x524 load address 0x000000001421c790
 .text._realloc_r
                0x000001001421c790      0x524 /tools/arm-gnu-toolchain-13.2.Rel1-x86_64-aarch64-none-elf/bin/../lib/gcc/aarch64-none-elf/13.2.1/../../../../aarch64-none-elf/lib/libg.a(libc_a-reallocr.o)
                0x000001001421c790                _realloc_r

.text.__env_lock
                0x000001001421ccc0        0xc load address 0x000000001421ccc0
 .text.__env_lock
                0x000001001421ccc0        0xc /tools/arm-gnu-toolchain-13.2.Rel1-x86_64-aarch64-none-elf/bin/../lib/gcc/aarch64-none-elf/13.2.1/../../../../aarch64-none-elf/lib/libg.a(libc_a-envlock.o)
                0x000001001421ccc0                __env_lock

.text.__env_unlock
                0x000001001421ccd0        0xc load address 0x000000001421ccd0
 .text.__env_unlock
                0x000001001421ccd0        0xc /tools/arm-gnu-toolchain-13.2.Rel1-x86_64-aarch64-none-elf/bin/../lib/gcc/aarch64-none-elf/13.2.1/../../../../aarch64-none-elf/lib/libg.a(libc_a-envlock.o)
                0x000001001421ccd0                __env_unlock

.text._fiprintf_r
                0x000001001421cce0       0x68 load address 0x000000001421cce0
 .text._fiprintf_r
                0x000001001421cce0       0x68 /tools/arm-gnu-toolchain-13.2.Rel1-x86_64-aarch64-none-elf/bin/../lib/gcc/aarch64-none-elf/13.2.1/../../../../aarch64-none-elf/lib/libg.a(libc_a-fiprintf.o)
                0x000001001421cce0                _fiprintf_r

.text.fiprintf  0x000001001421cd50       0x7c load address 0x000000001421cd50
 .text.fiprintf
                0x000001001421cd50       0x7c /tools/arm-gnu-toolchain-13.2.Rel1-x86_64-aarch64-none-elf/bin/../lib/gcc/aarch64-none-elf/13.2.1/../../../../aarch64-none-elf/lib/libg.a(libc_a-fiprintf.o)
                0x000001001421cd50                fiprintf

.text.abort     0x000001001421cdd0       0x18 load address 0x000000001421cdd0
 .text.abort    0x000001001421cdd0       0x18 /tools/arm-gnu-toolchain-13.2.Rel1-x86_64-aarch64-none-elf/bin/../lib/gcc/aarch64-none-elf/13.2.1/../../../../aarch64-none-elf/lib/libg.a(libc_a-abort.o)
                0x000001001421cdd0                abort

.text._init_signal_r
                0x000001001421cdf0       0x5c load address 0x000000001421cdf0
 .text._init_signal_r
                0x000001001421cdf0       0x5c /tools/arm-gnu-toolchain-13.2.Rel1-x86_64-aarch64-none-elf/bin/../lib/gcc/aarch64-none-elf/13.2.1/../../../../aarch64-none-elf/lib/libg.a(libc_a-signal.o)
                0x000001001421cdf0                _init_signal_r

.text._signal_r
                0x000001001421ce50       0x78 load address 0x000000001421ce50
 .text._signal_r
                0x000001001421ce50       0x78 /tools/arm-gnu-toolchain-13.2.Rel1-x86_64-aarch64-none-elf/bin/../lib/gcc/aarch64-none-elf/13.2.1/../../../../aarch64-none-elf/lib/libg.a(libc_a-signal.o)
                0x000001001421ce50                _signal_r

.text._raise_r  0x000001001421ced0       0xa4 load address 0x000000001421ced0
 .text._raise_r
                0x000001001421ced0       0xa4 /tools/arm-gnu-toolchain-13.2.Rel1-x86_64-aarch64-none-elf/bin/../lib/gcc/aarch64-none-elf/13.2.1/../../../../aarch64-none-elf/lib/libg.a(libc_a-signal.o)
                0x000001001421ced0                _raise_r

.text.__sigtramp_r
                0x000001001421cf80       0xc0 load address 0x000000001421cf80
 .text.__sigtramp_r
                0x000001001421cf80       0xc0 /tools/arm-gnu-toolchain-13.2.Rel1-x86_64-aarch64-none-elf/bin/../lib/gcc/aarch64-none-elf/13.2.1/../../../../aarch64-none-elf/lib/libg.a(libc_a-signal.o)
                0x000001001421cf80                __sigtramp_r

.text.raise     0x000001001421d040       0xa4 load address 0x000000001421d040
 .text.raise    0x000001001421d040       0xa4 /tools/arm-gnu-toolchain-13.2.Rel1-x86_64-aarch64-none-elf/bin/../lib/gcc/aarch64-none-elf/13.2.1/../../../../aarch64-none-elf/lib/libg.a(libc_a-signal.o)
                0x000001001421d040                raise

.text.signal    0x000001001421d0f0       0x88 load address 0x000000001421d0f0
 .text.signal   0x000001001421d0f0       0x88 /tools/arm-gnu-toolchain-13.2.Rel1-x86_64-aarch64-none-elf/bin/../lib/gcc/aarch64-none-elf/13.2.1/../../../../aarch64-none-elf/lib/libg.a(libc_a-signal.o)
                0x000001001421d0f0                signal

.text._init_signal
                0x000001001421d180       0x60 load address 0x000000001421d180
 .text._init_signal
                0x000001001421d180       0x60 /tools/arm-gnu-toolchain-13.2.Rel1-x86_64-aarch64-none-elf/bin/../lib/gcc/aarch64-none-elf/13.2.1/../../../../aarch64-none-elf/lib/libg.a(libc_a-signal.o)
                0x000001001421d180                _init_signal

.text.__sigtramp
                0x000001001421d1e0       0xc0 load address 0x000000001421d1e0
 .text.__sigtramp
                0x000001001421d1e0       0xc0 /tools/arm-gnu-toolchain-13.2.Rel1-x86_64-aarch64-none-elf/bin/../lib/gcc/aarch64-none-elf/13.2.1/../../../../aarch64-none-elf/lib/libg.a(libc_a-signal.o)
                0x000001001421d1e0                __sigtramp

.text._kill_r   0x000001001421d2a0       0x50 load address 0x000000001421d2a0
 .text._kill_r  0x000001001421d2a0       0x50 /tools/arm-gnu-toolchain-13.2.Rel1-x86_64-aarch64-none-elf/bin/../lib/gcc/aarch64-none-elf/13.2.1/../../../../aarch64-none-elf/lib/libg.a(libc_a-signalr.o)
                0x000001001421d2a0                _kill_r

.text._getpid_r
                0x000001001421d2f0        0x4 load address 0x000000001421d2f0
 .text._getpid_r
                0x000001001421d2f0        0x4 /tools/arm-gnu-toolchain-13.2.Rel1-x86_64-aarch64-none-elf/bin/../lib/gcc/aarch64-none-elf/13.2.1/../../../../aarch64-none-elf/lib/libg.a(libc_a-signalr.o)
                0x000001001421d2f0                _getpid_r

.text.__trunctfdf2
                0x000001001421d300      0x3c4 load address 0x000000001421d300
 .text.__trunctfdf2
                0x000001001421d300      0x3c4 /tools/arm-gnu-toolchain-13.2.Rel1-x86_64-aarch64-none-elf/bin/../lib/gcc/aarch64-none-elf/13.2.1/libgcc.a(trunctfdf2.o)
                0x000001001421d300                __trunctfdf2

.text.__sfp_handle_exceptions
                0x000001001421d6d0       0x70 load address 0x000000001421d6d0
 .text.__sfp_handle_exceptions
                0x000001001421d6d0       0x70 /tools/arm-gnu-toolchain-13.2.Rel1-x86_64-aarch64-none-elf/bin/../lib/gcc/aarch64-none-elf/13.2.1/libgcc.a(sfp-exceptions.o)
                0x000001001421d6d0                __sfp_handle_exceptions

.init_func      0x000001001421d740       0x20 load address 0x000000001421d740
                0x000001001421d740                start_init_func = .
 *(SORT_BY_NAME(.init_func_[_A-Z0-9]*))
 .init_func_0   0x000001001421d740        0x8 build/drivers/intc/libintc.a(gicv3.c.o)
 .init_func_1   0x000001001421d748        0x8 build/drivers/qspi/qspi_apb/CMakeFiles/qspi_apb.dir/qspi_apb.c.o
 .init_func_5   0x000001001421d750        0x8 build/drivers/timer/dw_apb_timer/CMakeFiles/dw_apb_timer.dir/dw_apb_timer.c.o
 .init_func_8   0x000001001421d758        0x8 build/drivers/mailbox/CMakeFiles/mailbox.dir/mailbox.c.o
                0x000001001421d760                end_init_func = .

.rela.dyn       0x000001001421d760        0x0 load address 0x000000001421d760
 .rela.iplt     0x000001001421d760        0x0 CMakeFiles/freertos_kernel.elf.dir/main_cp1.c.o
 .rela.text     0x000001001421d760        0x0 CMakeFiles/freertos_kernel.elf.dir/main_cp1.c.o
 .rela.data     0x000001001421d760        0x0 CMakeFiles/freertos_kernel.elf.dir/main_cp1.c.o
 .rela.text.startup
                0x000001001421d760        0x0 CMakeFiles/freertos_kernel.elf.dir/main_cp1.c.o
 .rela.rodata   0x000001001421d760        0x0 CMakeFiles/freertos_kernel.elf.dir/main_cp1.c.o
                0x000001001421e000                . = ALIGN (mmu_page_size)
                0x000001001421e000                text_region_end = .
                0x000001001421e000                rodata_region_start = .

.rodata         0x000001001421e000     0x1bd8 load address 0x000000001421e000
                0x000001001421e000                rodata_start = .
 *(.rodata .rodata.*)
 .rodata.str1.8
                0x000001001421e000      0xd2a CMakeFiles/freertos_kernel.elf.dir/main_cp1.c.o
                                         0x15 (size before relaxing)
 .rodata.str1.8
                0x000001001421ed2a       0x4b build/drivers/mailbox/CMakeFiles/mailbox.dir/mailbox_cb.c.o
 *fill*         0x000001001421ed2a        0x6 
 .rodata        0x000001001421ed30        0xb build/drivers/mailbox/CMakeFiles/mailbox.dir/mailbox_cb.c.o
 .rodata.str1.8
                0x000001001421ed3b       0x4c libfreertos_kernel.a(queue.c.o)
 .rodata.str1.8
                0x000001001421ed3b       0x4c libfreertos_kernel.a(tasks.c.o)
 *fill*         0x000001001421ed3b        0x5 
 .rodata        0x000001001421ed40        0x8 libfreertos_kernel.a(tasks.c.o)
 .rodata.str1.8
                0x000001001421ed48       0x60 libfreertos_kernel.a(timers.c.o)
 .rodata.str1.8
                0x000001001421ed48       0x5e libfreertos_kernel.a(heap_4.c.o)
 .rodata.str1.8
                0x000001001421ed48       0x61 portable/libfreertos_kernel_port.a(port.c.o)
 .rodata        0x000001001421ed48        0x8 portable/libfreertos_kernel_port.a(port.c.o)
                0x000001001421ed48                ullMaxAPIPriorityMask
 .rodata.str1.8
                0x000001001421ed50       0xa0 build/drivers/common/libdriver.a(driver.c.o)
 .rodata.str1.8
                0x000001001421ed50       0x6a build/drivers/common/libassert.a(assert.c.o)
 .rodata.str1.8
                0x000001001421ed50       0x27 portable/libsmp.a(smp.c.o)
 .rodata.str1.8
                0x000001001421ed50      0x6a1 portable/libmmu.a(mmu.c.o)
 .rodata        0x000001001421ed50      0x750 portable/libmmu.a(mmu.c.o)
                0x000001001421ed50                mmu_os_ranges
                0x000001001421ee10                mmu_regions
 .rodata._vfprintf_r.str1.8
                0x000001001421f4a0       0x5a /tools/arm-gnu-toolchain-13.2.Rel1-x86_64-aarch64-none-elf/bin/../lib/gcc/aarch64-none-elf/13.2.1/../../../../aarch64-none-elf/lib/libg.a(libc_a-vfprintf.o)
 .rodata._vfprintf_r
                0x000001001421f4a0       0xb6 /tools/arm-gnu-toolchain-13.2.Rel1-x86_64-aarch64-none-elf/bin/../lib/gcc/aarch64-none-elf/13.2.1/../../../../aarch64-none-elf/lib/libg.a(libc_a-vfprintf.o)
 *fill*         0x000001001421f556        0xa 
 .rodata.zeroes.0
                0x000001001421f560       0x10 /tools/arm-gnu-toolchain-13.2.Rel1-x86_64-aarch64-none-elf/bin/../lib/gcc/aarch64-none-elf/13.2.1/../../../../aarch64-none-elf/lib/libg.a(libc_a-vfprintf.o)
 .rodata.blanks.1
                0x000001001421f570       0x10 /tools/arm-gnu-toolchain-13.2.Rel1-x86_64-aarch64-none-elf/bin/../lib/gcc/aarch64-none-elf/13.2.1/../../../../aarch64-none-elf/lib/libg.a(libc_a-vfprintf.o)
 .rodata._vfiprintf_r.str1.8
                0x000001001421f580       0x37 /tools/arm-gnu-toolchain-13.2.Rel1-x86_64-aarch64-none-elf/bin/../lib/gcc/aarch64-none-elf/13.2.1/../../../../aarch64-none-elf/lib/libg.a(libc_a-vfiprintf.o)
 .rodata._vfiprintf_r
                0x000001001421f580       0xb6 /tools/arm-gnu-toolchain-13.2.Rel1-x86_64-aarch64-none-elf/bin/../lib/gcc/aarch64-none-elf/13.2.1/../../../../aarch64-none-elf/lib/libg.a(libc_a-vfiprintf.o)
 *fill*         0x000001001421f636        0xa 
 .rodata.zeroes.0
                0x000001001421f640       0x10 /tools/arm-gnu-toolchain-13.2.Rel1-x86_64-aarch64-none-elf/bin/../lib/gcc/aarch64-none-elf/13.2.1/../../../../aarch64-none-elf/lib/libg.a(libc_a-vfiprintf.o)
 .rodata.blanks.1
                0x000001001421f650       0x10 /tools/arm-gnu-toolchain-13.2.Rel1-x86_64-aarch64-none-elf/bin/../lib/gcc/aarch64-none-elf/13.2.1/../../../../aarch64-none-elf/lib/libg.a(libc_a-vfiprintf.o)
 .rodata.cst16  0x000001001421f660       0x10 /tools/arm-gnu-toolchain-13.2.Rel1-x86_64-aarch64-none-elf/bin/../lib/gcc/aarch64-none-elf/13.2.1/../../../../aarch64-none-elf/lib/libg.a(libc_a-mallocr.o)
 .rodata.currentlocale.str1.8
                0x000001001421f670        0x2 /tools/arm-gnu-toolchain-13.2.Rel1-x86_64-aarch64-none-elf/bin/../lib/gcc/aarch64-none-elf/13.2.1/../../../../aarch64-none-elf/lib/libg.a(libc_a-locale.o)
 .rodata.__loadlocale.str1.8
                0x000001001421f670      0x116 /tools/arm-gnu-toolchain-13.2.Rel1-x86_64-aarch64-none-elf/bin/../lib/gcc/aarch64-none-elf/13.2.1/../../../../aarch64-none-elf/lib/libg.a(libc_a-locale.o)
 .rodata.__loadlocale
                0x000001001421f670       0x6a /tools/arm-gnu-toolchain-13.2.Rel1-x86_64-aarch64-none-elf/bin/../lib/gcc/aarch64-none-elf/13.2.1/../../../../aarch64-none-elf/lib/libg.a(libc_a-locale.o)
 .rodata.__get_locale_env.str1.8
                0x000001001421f6da        0xd /tools/arm-gnu-toolchain-13.2.Rel1-x86_64-aarch64-none-elf/bin/../lib/gcc/aarch64-none-elf/13.2.1/../../../../aarch64-none-elf/lib/libg.a(libc_a-locale.o)
 .rodata.str1.8
                0x000001001421f6da       0x64 /tools/arm-gnu-toolchain-13.2.Rel1-x86_64-aarch64-none-elf/bin/../lib/gcc/aarch64-none-elf/13.2.1/../../../../aarch64-none-elf/lib/libg.a(libc_a-locale.o)
 *fill*         0x000001001421f6da        0x6 
 .rodata.__C_locale
                0x000001001421f6e0      0x1a8 /tools/arm-gnu-toolchain-13.2.Rel1-x86_64-aarch64-none-elf/bin/../lib/gcc/aarch64-none-elf/13.2.1/../../../../aarch64-none-elf/lib/libg.a(libc_a-locale.o)
                0x000001001421f6e0                __C_locale
 *fill*         0x000001001421f888        0x8 
 .rodata.categories
                0x000001001421f890       0x38 /tools/arm-gnu-toolchain-13.2.Rel1-x86_64-aarch64-none-elf/bin/../lib/gcc/aarch64-none-elf/13.2.1/../../../../aarch64-none-elf/lib/libg.a(libc_a-locale.o)
 .rodata._dtoa_r.str1.8
                0x000001001421f8c8       0x91 /tools/arm-gnu-toolchain-13.2.Rel1-x86_64-aarch64-none-elf/bin/../lib/gcc/aarch64-none-elf/13.2.1/../../../../aarch64-none-elf/lib/libg.a(libc_a-dtoa.o)
 .rodata.cst8   0x000001001421f8c8       0x28 /tools/arm-gnu-toolchain-13.2.Rel1-x86_64-aarch64-none-elf/bin/../lib/gcc/aarch64-none-elf/13.2.1/../../../../aarch64-none-elf/lib/libg.a(libc_a-dtoa.o)
                                         0x18 (size before relaxing)
 .rodata._ctype_
                0x000001001421f8f0      0x101 /tools/arm-gnu-toolchain-13.2.Rel1-x86_64-aarch64-none-elf/bin/../lib/gcc/aarch64-none-elf/13.2.1/../../../../aarch64-none-elf/lib/libg.a(libc_a-ctype_.o)
                0x000001001421f8f0                _ctype_
 *fill*         0x000001001421f9f1        0xf 
 .rodata.JIS_action_table
                0x000001001421fa00       0x48 /tools/arm-gnu-toolchain-13.2.Rel1-x86_64-aarch64-none-elf/bin/../lib/gcc/aarch64-none-elf/13.2.1/../../../../aarch64-none-elf/lib/libg.a(libc_a-mbtowc_r.o)
 *fill*         0x000001001421fa48        0x8 
 .rodata.JIS_state_table
                0x000001001421fa50       0x48 /tools/arm-gnu-toolchain-13.2.Rel1-x86_64-aarch64-none-elf/bin/../lib/gcc/aarch64-none-elf/13.2.1/../../../../aarch64-none-elf/lib/libg.a(libc_a-mbtowc_r.o)
 .rodata.__assert_func.str1.8
                0x000001001421fa98       0x47 /tools/arm-gnu-toolchain-13.2.Rel1-x86_64-aarch64-none-elf/bin/../lib/gcc/aarch64-none-elf/13.2.1/../../../../aarch64-none-elf/lib/libg.a(libc_a-assert.o)
 .rodata.__multadd.str1.8
                0x000001001421fa98       0x72 /tools/arm-gnu-toolchain-13.2.Rel1-x86_64-aarch64-none-elf/bin/../lib/gcc/aarch64-none-elf/13.2.1/../../../../aarch64-none-elf/lib/libg.a(libc_a-mprec.o)
 .rodata.p05.0  0x000001001421fa98        0xc /tools/arm-gnu-toolchain-13.2.Rel1-x86_64-aarch64-none-elf/bin/../lib/gcc/aarch64-none-elf/13.2.1/../../../../aarch64-none-elf/lib/libg.a(libc_a-mprec.o)
 *fill*         0x000001001421faa4        0xc 
 .rodata.__mprec_tinytens
                0x000001001421fab0       0x28 /tools/arm-gnu-toolchain-13.2.Rel1-x86_64-aarch64-none-elf/bin/../lib/gcc/aarch64-none-elf/13.2.1/../../../../aarch64-none-elf/lib/libg.a(libc_a-mprec.o)
                0x000001001421fab0                __mprec_tinytens
 *fill*         0x000001001421fad8        0x8 
 .rodata.__mprec_bigtens
                0x000001001421fae0       0x28 /tools/arm-gnu-toolchain-13.2.Rel1-x86_64-aarch64-none-elf/bin/../lib/gcc/aarch64-none-elf/13.2.1/../../../../aarch64-none-elf/lib/libg.a(libc_a-mprec.o)
                0x000001001421fae0                __mprec_bigtens
 *fill*         0x000001001421fb08        0x8 
 .rodata.__mprec_tens
                0x000001001421fb10       0xc8 /tools/arm-gnu-toolchain-13.2.Rel1-x86_64-aarch64-none-elf/bin/../lib/gcc/aarch64-none-elf/13.2.1/../../../../aarch64-none-elf/lib/libg.a(libc_a-mprec.o)
                0x000001001421fb10                __mprec_tens
 .rodata.cst8   0x000001001421fbd8       0x10 /tools/arm-gnu-toolchain-13.2.Rel1-x86_64-aarch64-none-elf/bin/../lib/gcc/aarch64-none-elf/13.2.1/../../../../aarch64-none-elf/lib/libg.a(libc_a-mprec.o)
 *(.got .igot .got.plt .igot.plt)
 .igot.plt      0x000001001421fbd8        0x0 CMakeFiles/freertos_kernel.elf.dir/main_cp1.c.o
                0x000001001421fbd8                rodata_end = .
                0x0000010014220000                . = ALIGN (mmu_page_2mb)
                0x0000010014220000                rodata_region_end = .
                0x0000010014220000                data_region_start = .

.data           0x0000010014220000     0x9800 load address 0x0000000014220000
                0x0000010014220000                data_start = .
 *(.data .data.*)
 .data          0x0000010014220000        0x0 CMakeFiles/freertos_kernel.elf.dir/main_cp1.c.o
 .data          0x0000010014220000        0x0 gloss/CMakeFiles/freedom_metal.dir/freedom_metal.c.o
 .data          0x0000010014220000        0x0 gloss/CMakeFiles/freedom_metal.dir/nanosleep.c.o
 .data          0x0000010014220000        0x0 gloss/CMakeFiles/freedom_metal.dir/sys_access.c.o
 .data          0x0000010014220000        0x0 gloss/CMakeFiles/freedom_metal.dir/sys_chdir.c.o
 .data          0x0000010014220000        0x0 gloss/CMakeFiles/freedom_metal.dir/sys_chmod.c.o
 .data          0x0000010014220000        0x0 gloss/CMakeFiles/freedom_metal.dir/sys_chown.c.o
 .data          0x0000010014220000        0x0 gloss/CMakeFiles/freedom_metal.dir/sys_clock_gettime.c.o
 .data          0x0000010014220000        0x0 gloss/CMakeFiles/freedom_metal.dir/sys_close.c.o
 .data          0x0000010014220000        0x0 gloss/CMakeFiles/freedom_metal.dir/sys_execve.c.o
 .data          0x0000010014220000        0x0 gloss/CMakeFiles/freedom_metal.dir/sys_exit.c.o
 .data          0x0000010014220000        0x0 gloss/CMakeFiles/freedom_metal.dir/sys_faccessat.c.o
 .data          0x0000010014220000        0x0 gloss/CMakeFiles/freedom_metal.dir/sys_fork.c.o
 .data          0x0000010014220000        0x0 gloss/CMakeFiles/freedom_metal.dir/sys_fstat.c.o
 .data          0x0000010014220000        0x0 gloss/CMakeFiles/freedom_metal.dir/sys_fstatat.c.o
 .data          0x0000010014220000        0x0 gloss/CMakeFiles/freedom_metal.dir/sys_ftime.c.o
 .data          0x0000010014220000        0x0 gloss/CMakeFiles/freedom_metal.dir/sys_getcwd.c.o
 .data          0x0000010014220000        0x0 gloss/CMakeFiles/freedom_metal.dir/sys_getpid.c.o
 .data          0x0000010014220000        0x0 gloss/CMakeFiles/freedom_metal.dir/sys_gettimeofday.c.o
 .data          0x0000010014220000        0x0 gloss/CMakeFiles/freedom_metal.dir/sys_isatty.c.o
 .data          0x0000010014220000        0x0 gloss/CMakeFiles/freedom_metal.dir/sys_kill.c.o
 .data          0x0000010014220000        0x0 gloss/CMakeFiles/freedom_metal.dir/sys_link.c.o
 .data          0x0000010014220000        0x0 gloss/CMakeFiles/freedom_metal.dir/sys_lseek.c.o
 .data          0x0000010014220000        0x0 gloss/CMakeFiles/freedom_metal.dir/sys_lstat.c.o
 .data          0x0000010014220000        0x0 gloss/CMakeFiles/freedom_metal.dir/sys_open.c.o
 .data          0x0000010014220000        0x0 gloss/CMakeFiles/freedom_metal.dir/sys_openat.c.o
 .data          0x0000010014220000        0x0 gloss/CMakeFiles/freedom_metal.dir/sys_read.c.o
 .data          0x0000010014220000        0x8 gloss/CMakeFiles/freedom_metal.dir/sys_sbrk.c.o
 .data          0x0000010014220008        0x0 gloss/CMakeFiles/freedom_metal.dir/sys_sysconf.c.o
 .data          0x0000010014220008        0x0 gloss/CMakeFiles/freedom_metal.dir/sys_times.c.o
 .data          0x0000010014220008        0x0 gloss/CMakeFiles/freedom_metal.dir/sys_unlink.c.o
 .data          0x0000010014220008        0x0 gloss/CMakeFiles/freedom_metal.dir/sys_utime.c.o
 .data          0x0000010014220008        0x0 gloss/CMakeFiles/freedom_metal.dir/sys_wait.c.o
 .data          0x0000010014220008        0x0 gloss/CMakeFiles/freedom_metal.dir/sys_write.c.o
 .data          0x0000010014220008      0x460 build/drivers/mailbox/CMakeFiles/mailbox.dir/mailbox.c.o
 .data          0x0000010014220468        0x0 build/drivers/mailbox/CMakeFiles/mailbox.dir/mailbox_cb.c.o
 .data          0x0000010014220468        0x0 build/drivers/pmu/CMakeFiles/pmu.dir/pmu.c.o
 .data          0x0000010014220468      0x1c0 build/drivers/timer/dw_apb_timer/CMakeFiles/dw_apb_timer.dir/dw_apb_timer.c.o
                0x0000010014220468                dw_apb_timer_peri0
                0x0000010014220548                dw_apb_timer_peri1
 .data          0x0000010014220628       0x40 build/drivers/qspi/qspi_apb/CMakeFiles/qspi_apb.dir/qspi_apb.c.o
                0x0000010014220628                qspi_apb_cfg
 .data          0x0000010014220668        0x0 build/drivers/flash/CMakeFiles/flash.dir/mt25q_flash.c.o
 .data          0x0000010014220668        0x0 libfreertos_kernel.a(queue.c.o)
 .data          0x0000010014220668        0x0 libfreertos_kernel.a(tasks.c.o)
 .data          0x0000010014220668        0x0 libfreertos_kernel.a(timers.c.o)
 .data          0x0000010014220668        0x0 libfreertos_kernel.a(heap_4.c.o)
 .data          0x0000010014220668        0x0 libfreertos_kernel.a(list.c.o)
 .data          0x0000010014220668        0x8 portable/libfreertos_kernel_port.a(port.c.o)
                0x0000010014220668                ullCriticalNesting
 .data          0x0000010014220670        0x0 portable/libfreertos_kernel_port.a(portASM.S.o)
 .data          0x0000010014220670        0x0 build/drivers/common/libdriver.a(driver.c.o)
 .data          0x0000010014220670        0x0 build/drivers/common/libassert.a(assert.c.o)
 .data          0x0000010014220670        0x0 build/drivers/common/libinterrupt.a(interrupt.c.o)
 .data          0x0000010014220670        0x0 build/drivers/intc/libintc.a(gicv3.c.o)
 .data          0x0000010014220670        0x0 build/drivers/intc/libintc.a(bakery_lock.c.o)
 .data          0x0000010014220670        0x0 portable/libfreertos_arch.a(startup.S.o)
 .data          0x0000010014220670        0x0 portable/libfreertos_arch.a(vector.S.o)
 .data          0x0000010014220670        0x0 portable/libfreertos_arch.a(prep_c.c.o)
 .data          0x0000010014220670        0x0 libfreertos_kernel_config.a(FreeRTOS_tick_config.c.o)
 .data          0x0000010014220670        0x0 portable/libsmp.a(smp.c.o)
 .data          0x0000010014220670        0x0 portable/libsmp.a(smp.S.o)
 .data          0x0000010014220670        0x0 portable/libsmccc.a(smccc.S.o)
 .data          0x0000010014220670        0x0 build/common/arch/libcommon.a(printf.c.o)
 .data          0x0000010014220670        0x0 build/drivers/psci/libpsci.a(psci.c.o)
 .data          0x0000010014220670        0x0 portable/libmmu.a(mmu.c.o)
 .data          0x0000010014220670        0x0 build/drivers/timer/generic_timer/libgeneric_timer.a(generic_timer.c.o)
 .data          0x0000010014220670        0x0 /tools/arm-gnu-toolchain-13.2.Rel1-x86_64-aarch64-none-elf/bin/../lib/gcc/aarch64-none-elf/13.2.1/../../../../aarch64-none-elf/lib/libg.a(libc_a-strlen.o)
 .data          0x0000010014220670        0x0 /tools/arm-gnu-toolchain-13.2.Rel1-x86_64-aarch64-none-elf/bin/../lib/gcc/aarch64-none-elf/13.2.1/../../../../aarch64-none-elf/lib/libg.a(libc_a-errno.o)
 .data          0x0000010014220670        0x0 /tools/arm-gnu-toolchain-13.2.Rel1-x86_64-aarch64-none-elf/bin/../lib/gcc/aarch64-none-elf/13.2.1/../../../../aarch64-none-elf/lib/libg.a(libc_a-printf.o)
 .data          0x0000010014220670        0x0 /tools/arm-gnu-toolchain-13.2.Rel1-x86_64-aarch64-none-elf/bin/../lib/gcc/aarch64-none-elf/13.2.1/../../../../aarch64-none-elf/lib/libg.a(libc_a-memcpy.o)
 .data          0x0000010014220670        0x0 /tools/arm-gnu-toolchain-13.2.Rel1-x86_64-aarch64-none-elf/bin/../lib/gcc/aarch64-none-elf/13.2.1/../../../../aarch64-none-elf/lib/libg.a(libc_a-putchar.o)
 .data          0x0000010014220670        0x0 /tools/arm-gnu-toolchain-13.2.Rel1-x86_64-aarch64-none-elf/bin/../lib/gcc/aarch64-none-elf/13.2.1/../../../../aarch64-none-elf/lib/libg.a(libc_a-reent.o)
 .data          0x0000010014220670        0x0 /tools/arm-gnu-toolchain-13.2.Rel1-x86_64-aarch64-none-elf/bin/../lib/gcc/aarch64-none-elf/13.2.1/../../../../aarch64-none-elf/lib/libg.a(libc_a-impure.o)
 .data._impure_ptr
                0x0000010014220670        0x8 /tools/arm-gnu-toolchain-13.2.Rel1-x86_64-aarch64-none-elf/bin/../lib/gcc/aarch64-none-elf/13.2.1/../../../../aarch64-none-elf/lib/libg.a(libc_a-impure.o)
                0x0000010014220670                _impure_ptr
 .data._impure_data
                0x0000010014220678      0x158 /tools/arm-gnu-toolchain-13.2.Rel1-x86_64-aarch64-none-elf/bin/../lib/gcc/aarch64-none-elf/13.2.1/../../../../aarch64-none-elf/lib/libg.a(libc_a-impure.o)
                0x0000010014220678                _impure_data
 .data          0x00000100142207d0        0x0 /tools/arm-gnu-toolchain-13.2.Rel1-x86_64-aarch64-none-elf/bin/../lib/gcc/aarch64-none-elf/13.2.1/../../../../aarch64-none-elf/lib/libg.a(libc_a-findfp.o)
 .data.__sglue  0x00000100142207d0       0x18 /tools/arm-gnu-toolchain-13.2.Rel1-x86_64-aarch64-none-elf/bin/../lib/gcc/aarch64-none-elf/13.2.1/../../../../aarch64-none-elf/lib/libg.a(libc_a-findfp.o)
                0x00000100142207d0                __sglue
 .data          0x00000100142207e8        0x0 /tools/arm-gnu-toolchain-13.2.Rel1-x86_64-aarch64-none-elf/bin/../lib/gcc/aarch64-none-elf/13.2.1/../../../../aarch64-none-elf/lib/libg.a(libc_a-memset.o)
 .data          0x00000100142207e8        0x0 /tools/arm-gnu-toolchain-13.2.Rel1-x86_64-aarch64-none-elf/bin/../lib/gcc/aarch64-none-elf/13.2.1/../../../../aarch64-none-elf/lib/libg.a(libc_a-freer.o)
 .data          0x00000100142207e8        0x0 /tools/arm-gnu-toolchain-13.2.Rel1-x86_64-aarch64-none-elf/bin/../lib/gcc/aarch64-none-elf/13.2.1/../../../../aarch64-none-elf/lib/libg.a(libc_a-stdio.o)
 .data          0x00000100142207e8        0x0 /tools/arm-gnu-toolchain-13.2.Rel1-x86_64-aarch64-none-elf/bin/../lib/gcc/aarch64-none-elf/13.2.1/../../../../aarch64-none-elf/lib/libg.a(libc_a-sbrkr.o)
 .data          0x00000100142207e8        0x0 /tools/arm-gnu-toolchain-13.2.Rel1-x86_64-aarch64-none-elf/bin/../lib/gcc/aarch64-none-elf/13.2.1/../../../../aarch64-none-elf/lib/libg.a(libc_a-fwalk.o)
 .data          0x00000100142207e8        0x0 /tools/arm-gnu-toolchain-13.2.Rel1-x86_64-aarch64-none-elf/bin/../lib/gcc/aarch64-none-elf/13.2.1/../../../../aarch64-none-elf/lib/libg.a(libc_a-writer.o)
 .data          0x00000100142207e8        0x0 /tools/arm-gnu-toolchain-13.2.Rel1-x86_64-aarch64-none-elf/bin/../lib/gcc/aarch64-none-elf/13.2.1/../../../../aarch64-none-elf/lib/libg.a(libc_a-vfprintf.o)
 .data          0x00000100142207e8        0x0 /tools/arm-gnu-toolchain-13.2.Rel1-x86_64-aarch64-none-elf/bin/../lib/gcc/aarch64-none-elf/13.2.1/../../../../aarch64-none-elf/lib/libg.a(libc_a-vfiprintf.o)
 .data          0x00000100142207e8        0x0 /tools/arm-gnu-toolchain-13.2.Rel1-x86_64-aarch64-none-elf/bin/../lib/gcc/aarch64-none-elf/13.2.1/../../../../aarch64-none-elf/lib/libg.a(libc_a-mallocr.o)
 .data.__malloc_sbrk_base
                0x00000100142207e8        0x8 /tools/arm-gnu-toolchain-13.2.Rel1-x86_64-aarch64-none-elf/bin/../lib/gcc/aarch64-none-elf/13.2.1/../../../../aarch64-none-elf/lib/libg.a(libc_a-mallocr.o)
                0x00000100142207e8                __malloc_sbrk_base
 .data.__malloc_trim_threshold
                0x00000100142207f0        0x8 /tools/arm-gnu-toolchain-13.2.Rel1-x86_64-aarch64-none-elf/bin/../lib/gcc/aarch64-none-elf/13.2.1/../../../../aarch64-none-elf/lib/libg.a(libc_a-mallocr.o)
                0x00000100142207f0                __malloc_trim_threshold
 *fill*         0x00000100142207f8        0x8 
 .data.__malloc_av_
                0x0000010014220800      0x810 /tools/arm-gnu-toolchain-13.2.Rel1-x86_64-aarch64-none-elf/bin/../lib/gcc/aarch64-none-elf/13.2.1/../../../../aarch64-none-elf/lib/libg.a(libc_a-mallocr.o)
                0x0000010014220800                __malloc_av_
 .data          0x0000010014221010        0x0 /tools/arm-gnu-toolchain-13.2.Rel1-x86_64-aarch64-none-elf/bin/../lib/gcc/aarch64-none-elf/13.2.1/../../../../aarch64-none-elf/lib/libg.a(libc_a-wcrtomb.o)
 .data          0x0000010014221010        0x0 /tools/arm-gnu-toolchain-13.2.Rel1-x86_64-aarch64-none-elf/bin/../lib/gcc/aarch64-none-elf/13.2.1/../../../../aarch64-none-elf/lib/libg.a(libc_a-lock.o)
 .data          0x0000010014221010        0x0 /tools/arm-gnu-toolchain-13.2.Rel1-x86_64-aarch64-none-elf/bin/../lib/gcc/aarch64-none-elf/13.2.1/../../../../aarch64-none-elf/lib/libg.a(libc_a-locale.o)
 .data.global_locale_string
                0x0000010014221010       0xe7 /tools/arm-gnu-toolchain-13.2.Rel1-x86_64-aarch64-none-elf/bin/../lib/gcc/aarch64-none-elf/13.2.1/../../../../aarch64-none-elf/lib/libg.a(libc_a-locale.o)
 *fill*         0x00000100142210f7        0x9 
 .data.__global_locale
                0x0000010014221100      0x1a8 /tools/arm-gnu-toolchain-13.2.Rel1-x86_64-aarch64-none-elf/bin/../lib/gcc/aarch64-none-elf/13.2.1/../../../../aarch64-none-elf/lib/libg.a(libc_a-locale.o)
                0x0000010014221100                __global_locale
 *fill*         0x00000100142212a8        0x8 
 .data.__default_locale
                0x00000100142212b0       0x20 /tools/arm-gnu-toolchain-13.2.Rel1-x86_64-aarch64-none-elf/bin/../lib/gcc/aarch64-none-elf/13.2.1/../../../../aarch64-none-elf/lib/libg.a(libc_a-locale.o)
                0x00000100142212b0                __default_locale
 .data          0x00000100142212d0        0x0 /tools/arm-gnu-toolchain-13.2.Rel1-x86_64-aarch64-none-elf/bin/../lib/gcc/aarch64-none-elf/13.2.1/../../../../aarch64-none-elf/lib/libg.a(libc_a-localeconv.o)
 .data          0x00000100142212d0        0x0 /tools/arm-gnu-toolchain-13.2.Rel1-x86_64-aarch64-none-elf/bin/../lib/gcc/aarch64-none-elf/13.2.1/../../../../aarch64-none-elf/lib/libg.a(libc_a-fclose.o)
 .data          0x00000100142212d0        0x0 /tools/arm-gnu-toolchain-13.2.Rel1-x86_64-aarch64-none-elf/bin/../lib/gcc/aarch64-none-elf/13.2.1/../../../../aarch64-none-elf/lib/libg.a(libc_a-memchr.o)
 .data          0x00000100142212d0        0x0 /tools/arm-gnu-toolchain-13.2.Rel1-x86_64-aarch64-none-elf/bin/../lib/gcc/aarch64-none-elf/13.2.1/../../../../aarch64-none-elf/lib/libg.a(libc_a-wsetup.o)
 .data          0x00000100142212d0        0x0 /tools/arm-gnu-toolchain-13.2.Rel1-x86_64-aarch64-none-elf/bin/../lib/gcc/aarch64-none-elf/13.2.1/../../../../aarch64-none-elf/lib/libg.a(libc_a-makebuf.o)
 .data          0x00000100142212d0        0x0 /tools/arm-gnu-toolchain-13.2.Rel1-x86_64-aarch64-none-elf/bin/../lib/gcc/aarch64-none-elf/13.2.1/../../../../aarch64-none-elf/lib/libg.a(libc_a-putc.o)
 .data          0x00000100142212d0        0x0 /tools/arm-gnu-toolchain-13.2.Rel1-x86_64-aarch64-none-elf/bin/../lib/gcc/aarch64-none-elf/13.2.1/../../../../aarch64-none-elf/lib/libg.a(libc_a-mlock.o)
 .data          0x00000100142212d0        0x0 /tools/arm-gnu-toolchain-13.2.Rel1-x86_64-aarch64-none-elf/bin/../lib/gcc/aarch64-none-elf/13.2.1/../../../../aarch64-none-elf/lib/libg.a(libc_a-wcsrtombs.o)
 .data          0x00000100142212d0        0x0 /tools/arm-gnu-toolchain-13.2.Rel1-x86_64-aarch64-none-elf/bin/../lib/gcc/aarch64-none-elf/13.2.1/../../../../aarch64-none-elf/lib/libg.a(libc_a-dtoa.o)
 .data          0x00000100142212d0        0x0 /tools/arm-gnu-toolchain-13.2.Rel1-x86_64-aarch64-none-elf/bin/../lib/gcc/aarch64-none-elf/13.2.1/../../../../aarch64-none-elf/lib/libg.a(libc_a-ctype_.o)
 .data          0x00000100142212d0        0x0 /tools/arm-gnu-toolchain-13.2.Rel1-x86_64-aarch64-none-elf/bin/../lib/gcc/aarch64-none-elf/13.2.1/../../../../aarch64-none-elf/lib/libg.a(libc_a-closer.o)
 .data          0x00000100142212d0        0x0 /tools/arm-gnu-toolchain-13.2.Rel1-x86_64-aarch64-none-elf/bin/../lib/gcc/aarch64-none-elf/13.2.1/../../../../aarch64-none-elf/lib/libg.a(libc_a-fflush.o)
 .data          0x00000100142212d0        0x0 /tools/arm-gnu-toolchain-13.2.Rel1-x86_64-aarch64-none-elf/bin/../lib/gcc/aarch64-none-elf/13.2.1/../../../../aarch64-none-elf/lib/libg.a(libm_a-s_frexp.o)
 .data          0x00000100142212d0        0x0 /tools/arm-gnu-toolchain-13.2.Rel1-x86_64-aarch64-none-elf/bin/../lib/gcc/aarch64-none-elf/13.2.1/../../../../aarch64-none-elf/lib/libg.a(libc_a-strlcpy.o)
 .data          0x00000100142212d0        0x0 /tools/arm-gnu-toolchain-13.2.Rel1-x86_64-aarch64-none-elf/bin/../lib/gcc/aarch64-none-elf/13.2.1/../../../../aarch64-none-elf/lib/libg.a(libc_a-strtol.o)
 .data          0x00000100142212d0        0x0 /tools/arm-gnu-toolchain-13.2.Rel1-x86_64-aarch64-none-elf/bin/../lib/gcc/aarch64-none-elf/13.2.1/../../../../aarch64-none-elf/lib/libg.a(libc_a-strncasecmp.o)
 .data          0x00000100142212d0        0x0 /tools/arm-gnu-toolchain-13.2.Rel1-x86_64-aarch64-none-elf/bin/../lib/gcc/aarch64-none-elf/13.2.1/../../../../aarch64-none-elf/lib/libg.a(libc_a-getenv_r.o)
 .data          0x00000100142212d0        0x0 /tools/arm-gnu-toolchain-13.2.Rel1-x86_64-aarch64-none-elf/bin/../lib/gcc/aarch64-none-elf/13.2.1/../../../../aarch64-none-elf/lib/libg.a(libc_a-strncpy.o)
 .data          0x00000100142212d0        0x0 /tools/arm-gnu-toolchain-13.2.Rel1-x86_64-aarch64-none-elf/bin/../lib/gcc/aarch64-none-elf/13.2.1/../../../../aarch64-none-elf/lib/libg.a(libc_a-fstatr.o)
 .data          0x00000100142212d0        0x0 /tools/arm-gnu-toolchain-13.2.Rel1-x86_64-aarch64-none-elf/bin/../lib/gcc/aarch64-none-elf/13.2.1/../../../../aarch64-none-elf/lib/libg.a(libc_a-isattyr.o)
 .data          0x00000100142212d0        0x0 /tools/arm-gnu-toolchain-13.2.Rel1-x86_64-aarch64-none-elf/bin/../lib/gcc/aarch64-none-elf/13.2.1/../../../../aarch64-none-elf/lib/libg.a(libc_a-lseekr.o)
 .data          0x00000100142212d0        0x0 /tools/arm-gnu-toolchain-13.2.Rel1-x86_64-aarch64-none-elf/bin/../lib/gcc/aarch64-none-elf/13.2.1/../../../../aarch64-none-elf/lib/libg.a(libc_a-readr.o)
 .data          0x00000100142212d0        0x0 /tools/arm-gnu-toolchain-13.2.Rel1-x86_64-aarch64-none-elf/bin/../lib/gcc/aarch64-none-elf/13.2.1/../../../../aarch64-none-elf/lib/libg.a(libc_a-strchr.o)
 .data          0x00000100142212d0        0x0 /tools/arm-gnu-toolchain-13.2.Rel1-x86_64-aarch64-none-elf/bin/../lib/gcc/aarch64-none-elf/13.2.1/../../../../aarch64-none-elf/lib/libg.a(libc_a-strcmp.o)
 .data          0x00000100142212d0        0x0 /tools/arm-gnu-toolchain-13.2.Rel1-x86_64-aarch64-none-elf/bin/../lib/gcc/aarch64-none-elf/13.2.1/../../../../aarch64-none-elf/lib/libg.a(libc_a-strcpy.o)
 .data          0x00000100142212d0        0x0 /tools/arm-gnu-toolchain-13.2.Rel1-x86_64-aarch64-none-elf/bin/../lib/gcc/aarch64-none-elf/13.2.1/../../../../aarch64-none-elf/lib/libg.a(libc_a-fputwc.o)
 .data          0x00000100142212d0        0x0 /tools/arm-gnu-toolchain-13.2.Rel1-x86_64-aarch64-none-elf/bin/../lib/gcc/aarch64-none-elf/13.2.1/../../../../aarch64-none-elf/lib/libg.a(libc_a-wctomb_r.o)
 .data          0x00000100142212d0        0x0 /tools/arm-gnu-toolchain-13.2.Rel1-x86_64-aarch64-none-elf/bin/../lib/gcc/aarch64-none-elf/13.2.1/../../../../aarch64-none-elf/lib/libg.a(libc_a-fvwrite.o)
 .data          0x00000100142212d0        0x0 /tools/arm-gnu-toolchain-13.2.Rel1-x86_64-aarch64-none-elf/bin/../lib/gcc/aarch64-none-elf/13.2.1/../../../../aarch64-none-elf/lib/libg.a(libc_a-strncmp.o)
 .data          0x00000100142212d0        0x0 /tools/arm-gnu-toolchain-13.2.Rel1-x86_64-aarch64-none-elf/bin/../lib/gcc/aarch64-none-elf/13.2.1/../../../../aarch64-none-elf/lib/libg.a(libc_a-wbuf.o)
 .data          0x00000100142212d0        0x0 /tools/arm-gnu-toolchain-13.2.Rel1-x86_64-aarch64-none-elf/bin/../lib/gcc/aarch64-none-elf/13.2.1/../../../../aarch64-none-elf/lib/libg.a(libc_a-mbtowc_r.o)
 .data          0x00000100142212d0        0x0 /tools/arm-gnu-toolchain-13.2.Rel1-x86_64-aarch64-none-elf/bin/../lib/gcc/aarch64-none-elf/13.2.1/../../../../aarch64-none-elf/lib/libg.a(libc_a-assert.o)
 .data          0x00000100142212d0        0x0 /tools/arm-gnu-toolchain-13.2.Rel1-x86_64-aarch64-none-elf/bin/../lib/gcc/aarch64-none-elf/13.2.1/../../../../aarch64-none-elf/lib/libg.a(libc_a-strcasecmp.o)
 .data          0x00000100142212d0        0x0 /tools/arm-gnu-toolchain-13.2.Rel1-x86_64-aarch64-none-elf/bin/../lib/gcc/aarch64-none-elf/13.2.1/../../../../aarch64-none-elf/lib/libg.a(libc_a-strcat.o)
 .data          0x00000100142212d0        0x0 /tools/arm-gnu-toolchain-13.2.Rel1-x86_64-aarch64-none-elf/bin/../lib/gcc/aarch64-none-elf/13.2.1/../../../../aarch64-none-elf/lib/libg.a(libc_a-mprec.o)
 .data          0x00000100142212d0        0x0 /tools/arm-gnu-toolchain-13.2.Rel1-x86_64-aarch64-none-elf/bin/../lib/gcc/aarch64-none-elf/13.2.1/../../../../aarch64-none-elf/lib/libg.a(libc_a-callocr.o)
 .data          0x00000100142212d0        0x0 /tools/arm-gnu-toolchain-13.2.Rel1-x86_64-aarch64-none-elf/bin/../lib/gcc/aarch64-none-elf/13.2.1/../../../../aarch64-none-elf/lib/libg.a(libc_a-wcsnrtombs.o)
 .data          0x00000100142212d0        0x0 /tools/arm-gnu-toolchain-13.2.Rel1-x86_64-aarch64-none-elf/bin/../lib/gcc/aarch64-none-elf/13.2.1/../../../../aarch64-none-elf/lib/libg.a(libc_a-environ.o)
 .data.environ  0x00000100142212d0        0x8 /tools/arm-gnu-toolchain-13.2.Rel1-x86_64-aarch64-none-elf/bin/../lib/gcc/aarch64-none-elf/13.2.1/../../../../aarch64-none-elf/lib/libg.a(libc_a-environ.o)
                0x00000100142212d0                environ
 .data          0x00000100142212d8        0x0 /tools/arm-gnu-toolchain-13.2.Rel1-x86_64-aarch64-none-elf/bin/../lib/gcc/aarch64-none-elf/13.2.1/../../../../aarch64-none-elf/lib/libg.a(libc_a-reallocr.o)
 .data          0x00000100142212d8        0x0 /tools/arm-gnu-toolchain-13.2.Rel1-x86_64-aarch64-none-elf/bin/../lib/gcc/aarch64-none-elf/13.2.1/../../../../aarch64-none-elf/lib/libg.a(libc_a-envlock.o)
 .data          0x00000100142212d8        0x0 /tools/arm-gnu-toolchain-13.2.Rel1-x86_64-aarch64-none-elf/bin/../lib/gcc/aarch64-none-elf/13.2.1/../../../../aarch64-none-elf/lib/libg.a(libc_a-fiprintf.o)
 .data          0x00000100142212d8        0x0 /tools/arm-gnu-toolchain-13.2.Rel1-x86_64-aarch64-none-elf/bin/../lib/gcc/aarch64-none-elf/13.2.1/../../../../aarch64-none-elf/lib/libg.a(libc_a-abort.o)
 .data          0x00000100142212d8        0x0 /tools/arm-gnu-toolchain-13.2.Rel1-x86_64-aarch64-none-elf/bin/../lib/gcc/aarch64-none-elf/13.2.1/../../../../aarch64-none-elf/lib/libg.a(libc_a-signal.o)
 .data          0x00000100142212d8        0x0 /tools/arm-gnu-toolchain-13.2.Rel1-x86_64-aarch64-none-elf/bin/../lib/gcc/aarch64-none-elf/13.2.1/../../../../aarch64-none-elf/lib/libg.a(libc_a-signalr.o)
 .data          0x00000100142212d8        0x0 /tools/arm-gnu-toolchain-13.2.Rel1-x86_64-aarch64-none-elf/bin/../lib/gcc/aarch64-none-elf/13.2.1/libgcc.a(trunctfdf2.o)
 .data          0x00000100142212d8        0x0 /tools/arm-gnu-toolchain-13.2.Rel1-x86_64-aarch64-none-elf/bin/../lib/gcc/aarch64-none-elf/13.2.1/libgcc.a(sfp-exceptions.o)
 *(privileged_data)
 privileged_data
                0x00000100142212d8       0xa0 libfreertos_kernel.a(queue.c.o)
                0x00000100142212d8                xQueueRegistry
 privileged_data
                0x0000010014221378      0x250 libfreertos_kernel.a(tasks.c.o)
                0x0000010014221390                pxCurrentTCBs
 privileged_data
                0x00000100142215c8       0x78 libfreertos_kernel.a(timers.c.o)
 privileged_data
                0x0000010014221640       0x38 libfreertos_kernel.a(heap_4.c.o)
                [!provide]                        PROVIDE (__cli_register_funcs_start = .)
 *(.cli_register_funcs)
                [!provide]                        PROVIDE (__cli_register_funcs_end = .)
                0x0000010014221800                . = ALIGN (0x400)
 *fill*         0x0000010014221678      0x188 
                0x0000010014225800                . = (. + isr_stack_size)
 *fill*         0x0000010014221800     0x4000 
                0x0000010014225800                PROVIDE (isr_stack_top = .)
                0x0000010014225800                . = ALIGN (0x400)
                0x0000010014229800                . = (. + _stack_size)
 *fill*         0x0000010014225800     0x4000 
                0x0000010014229800                PROVIDE (_stack_top = .)
                0x0000010014229800                data_end = .
                0x000001001422a000                . = ALIGN (mmu_page_size)

.bss            0x000001001422a000    0x30490 load address 0x000000001422a000
                0x000001001422a000                bss_start = .
 *(.sbss*)
 *(.bss .bss.*)
 .bss           0x000001001422a000        0x0 CMakeFiles/freertos_kernel.elf.dir/main_cp1.c.o
 .bss           0x000001001422a000        0x0 gloss/CMakeFiles/freedom_metal.dir/freedom_metal.c.o
 .bss           0x000001001422a000        0x0 gloss/CMakeFiles/freedom_metal.dir/nanosleep.c.o
 .bss           0x000001001422a000        0x0 gloss/CMakeFiles/freedom_metal.dir/sys_access.c.o
 .bss           0x000001001422a000        0x0 gloss/CMakeFiles/freedom_metal.dir/sys_chdir.c.o
 .bss           0x000001001422a000        0x0 gloss/CMakeFiles/freedom_metal.dir/sys_chmod.c.o
 .bss           0x000001001422a000        0x0 gloss/CMakeFiles/freedom_metal.dir/sys_chown.c.o
 .bss           0x000001001422a000        0x0 gloss/CMakeFiles/freedom_metal.dir/sys_clock_gettime.c.o
 .bss           0x000001001422a000        0x0 gloss/CMakeFiles/freedom_metal.dir/sys_close.c.o
 .bss           0x000001001422a000        0x0 gloss/CMakeFiles/freedom_metal.dir/sys_execve.c.o
 .bss           0x000001001422a000        0x0 gloss/CMakeFiles/freedom_metal.dir/sys_exit.c.o
 .bss           0x000001001422a000        0x0 gloss/CMakeFiles/freedom_metal.dir/sys_faccessat.c.o
 .bss           0x000001001422a000        0x0 gloss/CMakeFiles/freedom_metal.dir/sys_fork.c.o
 .bss           0x000001001422a000        0x0 gloss/CMakeFiles/freedom_metal.dir/sys_fstat.c.o
 .bss           0x000001001422a000        0x0 gloss/CMakeFiles/freedom_metal.dir/sys_fstatat.c.o
 .bss           0x000001001422a000        0x0 gloss/CMakeFiles/freedom_metal.dir/sys_ftime.c.o
 .bss           0x000001001422a000        0x0 gloss/CMakeFiles/freedom_metal.dir/sys_getcwd.c.o
 .bss           0x000001001422a000        0x0 gloss/CMakeFiles/freedom_metal.dir/sys_getpid.c.o
 .bss           0x000001001422a000        0x0 gloss/CMakeFiles/freedom_metal.dir/sys_gettimeofday.c.o
 .bss           0x000001001422a000        0x0 gloss/CMakeFiles/freedom_metal.dir/sys_isatty.c.o
 .bss           0x000001001422a000        0x0 gloss/CMakeFiles/freedom_metal.dir/sys_kill.c.o
 .bss           0x000001001422a000        0x0 gloss/CMakeFiles/freedom_metal.dir/sys_link.c.o
 .bss           0x000001001422a000        0x0 gloss/CMakeFiles/freedom_metal.dir/sys_lseek.c.o
 .bss           0x000001001422a000        0x0 gloss/CMakeFiles/freedom_metal.dir/sys_lstat.c.o
 .bss           0x000001001422a000        0x0 gloss/CMakeFiles/freedom_metal.dir/sys_open.c.o
 .bss           0x000001001422a000        0x0 gloss/CMakeFiles/freedom_metal.dir/sys_openat.c.o
 .bss           0x000001001422a000        0x0 gloss/CMakeFiles/freedom_metal.dir/sys_read.c.o
 .bss           0x000001001422a000        0x0 gloss/CMakeFiles/freedom_metal.dir/sys_sbrk.c.o
 .bss           0x000001001422a000        0x0 gloss/CMakeFiles/freedom_metal.dir/sys_sysconf.c.o
 .bss           0x000001001422a000        0x0 gloss/CMakeFiles/freedom_metal.dir/sys_times.c.o
 .bss           0x000001001422a000        0x0 gloss/CMakeFiles/freedom_metal.dir/sys_unlink.c.o
 .bss           0x000001001422a000        0x0 gloss/CMakeFiles/freedom_metal.dir/sys_utime.c.o
 .bss           0x000001001422a000        0x0 gloss/CMakeFiles/freedom_metal.dir/sys_wait.c.o
 .bss           0x000001001422a000        0x0 gloss/CMakeFiles/freedom_metal.dir/sys_write.c.o
 .bss           0x000001001422a000        0x0 build/drivers/mailbox/CMakeFiles/mailbox.dir/mailbox.c.o
 .bss           0x000001001422a000        0x8 build/drivers/mailbox/CMakeFiles/mailbox.dir/mailbox_cb.c.o
 .bss           0x000001001422a008        0x0 build/drivers/pmu/CMakeFiles/pmu.dir/pmu.c.o
 .bss           0x000001001422a008        0x0 build/drivers/timer/dw_apb_timer/CMakeFiles/dw_apb_timer.dir/dw_apb_timer.c.o
 .bss           0x000001001422a008        0x0 build/drivers/qspi/qspi_apb/CMakeFiles/qspi_apb.dir/qspi_apb.c.o
 .bss           0x000001001422a008        0x0 build/drivers/flash/CMakeFiles/flash.dir/mt25q_flash.c.o
 .bss           0x000001001422a008        0x0 libfreertos_kernel.a(queue.c.o)
 .bss           0x000001001422a008        0x0 libfreertos_kernel.a(tasks.c.o)
 .bss           0x000001001422a008        0x0 libfreertos_kernel.a(timers.c.o)
 .bss           0x000001001422a008        0x0 libfreertos_kernel.a(heap_4.c.o)
 .bss           0x000001001422a008        0x0 libfreertos_kernel.a(list.c.o)
 .bss           0x000001001422a008     0x22f0 portable/libfreertos_kernel_port.a(port.c.o)
                0x000001001422a008                ullPortTaskHasFPUContext
                0x000001001422a028                ullPortSchedularRunning
                0x000001001422a030                ullPortYieldRequired
                0x000001001422a2a0                GateWord
                0x000001001422a2a8                ucRecursionCountByLock
                0x000001001422a2b8                ucOwnedByCore
                0x000001001422c2d8                ullPortInterruptNesting
 .bss           0x000001001422c2f8        0x0 portable/libfreertos_kernel_port.a(portASM.S.o)
 .bss           0x000001001422c2f8        0x0 build/drivers/common/libdriver.a(driver.c.o)
 .bss           0x000001001422c2f8        0x0 build/drivers/common/libassert.a(assert.c.o)
 .bss           0x000001001422c2f8        0x0 build/drivers/common/libinterrupt.a(interrupt.c.o)
 .bss           0x000001001422c2f8     0x3e10 build/drivers/intc/libintc.a(gicv3.c.o)
                0x000001001422c2f8                gic_rdists
                0x000001001422c318                isr_table
 .bss           0x0000010014230108        0x0 build/drivers/intc/libintc.a(bakery_lock.c.o)
 .bss           0x0000010014230108        0x0 portable/libfreertos_arch.a(startup.S.o)
 .bss           0x0000010014230108        0x0 portable/libfreertos_arch.a(vector.S.o)
 .bss           0x0000010014230108        0x0 portable/libfreertos_arch.a(prep_c.c.o)
 .bss           0x0000010014230108       0x10 libfreertos_kernel_config.a(FreeRTOS_tick_config.c.o)
                0x0000010014230108                isr_flag
 .bss           0x0000010014230118       0x10 portable/libsmp.a(smp.c.o)
                0x0000010014230118                ulSecondaryHoldingPen
 .bss           0x0000010014230128        0x0 portable/libsmp.a(smp.S.o)
 .bss           0x0000010014230128        0x0 portable/libsmccc.a(smccc.S.o)
 .bss           0x0000010014230128        0x0 build/common/arch/libcommon.a(printf.c.o)
 .bss           0x0000010014230128        0x0 build/drivers/psci/libpsci.a(psci.c.o)
 *fill*         0x0000010014230128      0xed8 
 .bss           0x0000010014231000    0x29000 portable/libmmu.a(mmu.c.o)
 .bss           0x000001001425a000        0x8 build/drivers/timer/generic_timer/libgeneric_timer.a(generic_timer.c.o)
 .bss           0x000001001425a008        0x0 /tools/arm-gnu-toolchain-13.2.Rel1-x86_64-aarch64-none-elf/bin/../lib/gcc/aarch64-none-elf/13.2.1/../../../../aarch64-none-elf/lib/libg.a(libc_a-strlen.o)
 .bss           0x000001001425a008        0x0 /tools/arm-gnu-toolchain-13.2.Rel1-x86_64-aarch64-none-elf/bin/../lib/gcc/aarch64-none-elf/13.2.1/../../../../aarch64-none-elf/lib/libg.a(libc_a-errno.o)
 .bss           0x000001001425a008        0x0 /tools/arm-gnu-toolchain-13.2.Rel1-x86_64-aarch64-none-elf/bin/../lib/gcc/aarch64-none-elf/13.2.1/../../../../aarch64-none-elf/lib/libg.a(libc_a-printf.o)
 .bss           0x000001001425a008        0x0 /tools/arm-gnu-toolchain-13.2.Rel1-x86_64-aarch64-none-elf/bin/../lib/gcc/aarch64-none-elf/13.2.1/../../../../aarch64-none-elf/lib/libg.a(libc_a-memcpy.o)
 .bss           0x000001001425a008        0x0 /tools/arm-gnu-toolchain-13.2.Rel1-x86_64-aarch64-none-elf/bin/../lib/gcc/aarch64-none-elf/13.2.1/../../../../aarch64-none-elf/lib/libg.a(libc_a-putchar.o)
 .bss           0x000001001425a008        0x0 /tools/arm-gnu-toolchain-13.2.Rel1-x86_64-aarch64-none-elf/bin/../lib/gcc/aarch64-none-elf/13.2.1/../../../../aarch64-none-elf/lib/libg.a(libc_a-reent.o)
 .bss.errno     0x000001001425a008        0x4 /tools/arm-gnu-toolchain-13.2.Rel1-x86_64-aarch64-none-elf/bin/../lib/gcc/aarch64-none-elf/13.2.1/../../../../aarch64-none-elf/lib/libg.a(libc_a-reent.o)
                0x000001001425a008                errno
 .bss           0x000001001425a00c        0x0 /tools/arm-gnu-toolchain-13.2.Rel1-x86_64-aarch64-none-elf/bin/../lib/gcc/aarch64-none-elf/13.2.1/../../../../aarch64-none-elf/lib/libg.a(libc_a-impure.o)
 .bss           0x000001001425a00c        0x0 /tools/arm-gnu-toolchain-13.2.Rel1-x86_64-aarch64-none-elf/bin/../lib/gcc/aarch64-none-elf/13.2.1/../../../../aarch64-none-elf/lib/libg.a(libc_a-findfp.o)
 *fill*         0x000001001425a00c        0x4 
 .bss.__sf      0x000001001425a010      0x228 /tools/arm-gnu-toolchain-13.2.Rel1-x86_64-aarch64-none-elf/bin/../lib/gcc/aarch64-none-elf/13.2.1/../../../../aarch64-none-elf/lib/libg.a(libc_a-findfp.o)
                0x000001001425a010                __sf
 .bss.__stdio_exit_handler
                0x000001001425a238        0x8 /tools/arm-gnu-toolchain-13.2.Rel1-x86_64-aarch64-none-elf/bin/../lib/gcc/aarch64-none-elf/13.2.1/../../../../aarch64-none-elf/lib/libg.a(libc_a-findfp.o)
                0x000001001425a238                __stdio_exit_handler
 .bss           0x000001001425a240        0x0 /tools/arm-gnu-toolchain-13.2.Rel1-x86_64-aarch64-none-elf/bin/../lib/gcc/aarch64-none-elf/13.2.1/../../../../aarch64-none-elf/lib/libg.a(libc_a-memset.o)
 .bss           0x000001001425a240        0x0 /tools/arm-gnu-toolchain-13.2.Rel1-x86_64-aarch64-none-elf/bin/../lib/gcc/aarch64-none-elf/13.2.1/../../../../aarch64-none-elf/lib/libg.a(libc_a-freer.o)
 .bss           0x000001001425a240        0x0 /tools/arm-gnu-toolchain-13.2.Rel1-x86_64-aarch64-none-elf/bin/../lib/gcc/aarch64-none-elf/13.2.1/../../../../aarch64-none-elf/lib/libg.a(libc_a-stdio.o)
 .bss           0x000001001425a240        0x0 /tools/arm-gnu-toolchain-13.2.Rel1-x86_64-aarch64-none-elf/bin/../lib/gcc/aarch64-none-elf/13.2.1/../../../../aarch64-none-elf/lib/libg.a(libc_a-sbrkr.o)
 .bss           0x000001001425a240        0x0 /tools/arm-gnu-toolchain-13.2.Rel1-x86_64-aarch64-none-elf/bin/../lib/gcc/aarch64-none-elf/13.2.1/../../../../aarch64-none-elf/lib/libg.a(libc_a-fwalk.o)
 .bss           0x000001001425a240        0x0 /tools/arm-gnu-toolchain-13.2.Rel1-x86_64-aarch64-none-elf/bin/../lib/gcc/aarch64-none-elf/13.2.1/../../../../aarch64-none-elf/lib/libg.a(libc_a-writer.o)
 .bss           0x000001001425a240        0x0 /tools/arm-gnu-toolchain-13.2.Rel1-x86_64-aarch64-none-elf/bin/../lib/gcc/aarch64-none-elf/13.2.1/../../../../aarch64-none-elf/lib/libg.a(libc_a-vfprintf.o)
 .bss           0x000001001425a240        0x0 /tools/arm-gnu-toolchain-13.2.Rel1-x86_64-aarch64-none-elf/bin/../lib/gcc/aarch64-none-elf/13.2.1/../../../../aarch64-none-elf/lib/libg.a(libc_a-vfiprintf.o)
 .bss           0x000001001425a240        0x0 /tools/arm-gnu-toolchain-13.2.Rel1-x86_64-aarch64-none-elf/bin/../lib/gcc/aarch64-none-elf/13.2.1/../../../../aarch64-none-elf/lib/libg.a(libc_a-mallocr.o)
 .bss.__malloc_current_mallinfo
                0x000001001425a240       0x28 /tools/arm-gnu-toolchain-13.2.Rel1-x86_64-aarch64-none-elf/bin/../lib/gcc/aarch64-none-elf/13.2.1/../../../../aarch64-none-elf/lib/libg.a(libc_a-mallocr.o)
                0x000001001425a240                __malloc_current_mallinfo
 .bss.__malloc_max_total_mem
                0x000001001425a268        0x8 /tools/arm-gnu-toolchain-13.2.Rel1-x86_64-aarch64-none-elf/bin/../lib/gcc/aarch64-none-elf/13.2.1/../../../../aarch64-none-elf/lib/libg.a(libc_a-mallocr.o)
                0x000001001425a268                __malloc_max_total_mem
 .bss.__malloc_max_sbrked_mem
                0x000001001425a270        0x8 /tools/arm-gnu-toolchain-13.2.Rel1-x86_64-aarch64-none-elf/bin/../lib/gcc/aarch64-none-elf/13.2.1/../../../../aarch64-none-elf/lib/libg.a(libc_a-mallocr.o)
                0x000001001425a270                __malloc_max_sbrked_mem
 .bss.__malloc_top_pad
                0x000001001425a278        0x8 /tools/arm-gnu-toolchain-13.2.Rel1-x86_64-aarch64-none-elf/bin/../lib/gcc/aarch64-none-elf/13.2.1/../../../../aarch64-none-elf/lib/libg.a(libc_a-mallocr.o)
                0x000001001425a278                __malloc_top_pad
 .bss           0x000001001425a280        0x0 /tools/arm-gnu-toolchain-13.2.Rel1-x86_64-aarch64-none-elf/bin/../lib/gcc/aarch64-none-elf/13.2.1/../../../../aarch64-none-elf/lib/libg.a(libc_a-wcrtomb.o)
 .bss           0x000001001425a280        0x0 /tools/arm-gnu-toolchain-13.2.Rel1-x86_64-aarch64-none-elf/bin/../lib/gcc/aarch64-none-elf/13.2.1/../../../../aarch64-none-elf/lib/libg.a(libc_a-lock.o)
 .bss.__lock___arc4random_mutex
                0x000001001425a280        0x1 /tools/arm-gnu-toolchain-13.2.Rel1-x86_64-aarch64-none-elf/bin/../lib/gcc/aarch64-none-elf/13.2.1/../../../../aarch64-none-elf/lib/libg.a(libc_a-lock.o)
                0x000001001425a280                __lock___arc4random_mutex
 *fill*         0x000001001425a281        0x7 
 .bss.__lock___dd_hash_mutex
                0x000001001425a288        0x1 /tools/arm-gnu-toolchain-13.2.Rel1-x86_64-aarch64-none-elf/bin/../lib/gcc/aarch64-none-elf/13.2.1/../../../../aarch64-none-elf/lib/libg.a(libc_a-lock.o)
                0x000001001425a288                __lock___dd_hash_mutex
 *fill*         0x000001001425a289        0x7 
 .bss.__lock___tz_mutex
                0x000001001425a290        0x1 /tools/arm-gnu-toolchain-13.2.Rel1-x86_64-aarch64-none-elf/bin/../lib/gcc/aarch64-none-elf/13.2.1/../../../../aarch64-none-elf/lib/libg.a(libc_a-lock.o)
                0x000001001425a290                __lock___tz_mutex
 *fill*         0x000001001425a291        0x7 
 .bss.__lock___env_recursive_mutex
                0x000001001425a298        0x1 /tools/arm-gnu-toolchain-13.2.Rel1-x86_64-aarch64-none-elf/bin/../lib/gcc/aarch64-none-elf/13.2.1/../../../../aarch64-none-elf/lib/libg.a(libc_a-lock.o)
                0x000001001425a298                __lock___env_recursive_mutex
 *fill*         0x000001001425a299        0x7 
 .bss.__lock___malloc_recursive_mutex
                0x000001001425a2a0        0x1 /tools/arm-gnu-toolchain-13.2.Rel1-x86_64-aarch64-none-elf/bin/../lib/gcc/aarch64-none-elf/13.2.1/../../../../aarch64-none-elf/lib/libg.a(libc_a-lock.o)
                0x000001001425a2a0                __lock___malloc_recursive_mutex
 *fill*         0x000001001425a2a1        0x7 
 .bss.__lock___at_quick_exit_mutex
                0x000001001425a2a8        0x1 /tools/arm-gnu-toolchain-13.2.Rel1-x86_64-aarch64-none-elf/bin/../lib/gcc/aarch64-none-elf/13.2.1/../../../../aarch64-none-elf/lib/libg.a(libc_a-lock.o)
                0x000001001425a2a8                __lock___at_quick_exit_mutex
 *fill*         0x000001001425a2a9        0x7 
 .bss.__lock___atexit_recursive_mutex
                0x000001001425a2b0        0x1 /tools/arm-gnu-toolchain-13.2.Rel1-x86_64-aarch64-none-elf/bin/../lib/gcc/aarch64-none-elf/13.2.1/../../../../aarch64-none-elf/lib/libg.a(libc_a-lock.o)
                0x000001001425a2b0                __lock___atexit_recursive_mutex
 *fill*         0x000001001425a2b1        0x7 
 .bss.__lock___sfp_recursive_mutex
                0x000001001425a2b8        0x1 /tools/arm-gnu-toolchain-13.2.Rel1-x86_64-aarch64-none-elf/bin/../lib/gcc/aarch64-none-elf/13.2.1/../../../../aarch64-none-elf/lib/libg.a(libc_a-lock.o)
                0x000001001425a2b8                __lock___sfp_recursive_mutex
 .bss           0x000001001425a2b9        0x0 /tools/arm-gnu-toolchain-13.2.Rel1-x86_64-aarch64-none-elf/bin/../lib/gcc/aarch64-none-elf/13.2.1/../../../../aarch64-none-elf/lib/libg.a(libc_a-locale.o)
 *fill*         0x000001001425a2b9        0x7 
 .bss.saved_categories.0
                0x000001001425a2c0       0xe0 /tools/arm-gnu-toolchain-13.2.Rel1-x86_64-aarch64-none-elf/bin/../lib/gcc/aarch64-none-elf/13.2.1/../../../../aarch64-none-elf/lib/libg.a(libc_a-locale.o)
 .bss.new_categories.1
                0x000001001425a3a0       0xe0 /tools/arm-gnu-toolchain-13.2.Rel1-x86_64-aarch64-none-elf/bin/../lib/gcc/aarch64-none-elf/13.2.1/../../../../aarch64-none-elf/lib/libg.a(libc_a-locale.o)
 .bss._PathLocale
                0x000001001425a480        0x8 /tools/arm-gnu-toolchain-13.2.Rel1-x86_64-aarch64-none-elf/bin/../lib/gcc/aarch64-none-elf/13.2.1/../../../../aarch64-none-elf/lib/libg.a(libc_a-locale.o)
                0x000001001425a480                _PathLocale
 .bss           0x000001001425a488        0x0 /tools/arm-gnu-toolchain-13.2.Rel1-x86_64-aarch64-none-elf/bin/../lib/gcc/aarch64-none-elf/13.2.1/../../../../aarch64-none-elf/lib/libg.a(libc_a-localeconv.o)
 .bss           0x000001001425a488        0x0 /tools/arm-gnu-toolchain-13.2.Rel1-x86_64-aarch64-none-elf/bin/../lib/gcc/aarch64-none-elf/13.2.1/../../../../aarch64-none-elf/lib/libg.a(libc_a-fclose.o)
 .bss           0x000001001425a488        0x0 /tools/arm-gnu-toolchain-13.2.Rel1-x86_64-aarch64-none-elf/bin/../lib/gcc/aarch64-none-elf/13.2.1/../../../../aarch64-none-elf/lib/libg.a(libc_a-memchr.o)
 .bss           0x000001001425a488        0x0 /tools/arm-gnu-toolchain-13.2.Rel1-x86_64-aarch64-none-elf/bin/../lib/gcc/aarch64-none-elf/13.2.1/../../../../aarch64-none-elf/lib/libg.a(libc_a-wsetup.o)
 .bss           0x000001001425a488        0x0 /tools/arm-gnu-toolchain-13.2.Rel1-x86_64-aarch64-none-elf/bin/../lib/gcc/aarch64-none-elf/13.2.1/../../../../aarch64-none-elf/lib/libg.a(libc_a-makebuf.o)
 .bss           0x000001001425a488        0x0 /tools/arm-gnu-toolchain-13.2.Rel1-x86_64-aarch64-none-elf/bin/../lib/gcc/aarch64-none-elf/13.2.1/../../../../aarch64-none-elf/lib/libg.a(libc_a-putc.o)
 .bss           0x000001001425a488        0x0 /tools/arm-gnu-toolchain-13.2.Rel1-x86_64-aarch64-none-elf/bin/../lib/gcc/aarch64-none-elf/13.2.1/../../../../aarch64-none-elf/lib/libg.a(libc_a-mlock.o)
 .bss           0x000001001425a488        0x0 /tools/arm-gnu-toolchain-13.2.Rel1-x86_64-aarch64-none-elf/bin/../lib/gcc/aarch64-none-elf/13.2.1/../../../../aarch64-none-elf/lib/libg.a(libc_a-wcsrtombs.o)
 .bss           0x000001001425a488        0x0 /tools/arm-gnu-toolchain-13.2.Rel1-x86_64-aarch64-none-elf/bin/../lib/gcc/aarch64-none-elf/13.2.1/../../../../aarch64-none-elf/lib/libg.a(libc_a-dtoa.o)
 .bss           0x000001001425a488        0x0 /tools/arm-gnu-toolchain-13.2.Rel1-x86_64-aarch64-none-elf/bin/../lib/gcc/aarch64-none-elf/13.2.1/../../../../aarch64-none-elf/lib/libg.a(libc_a-ctype_.o)
 .bss           0x000001001425a488        0x0 /tools/arm-gnu-toolchain-13.2.Rel1-x86_64-aarch64-none-elf/bin/../lib/gcc/aarch64-none-elf/13.2.1/../../../../aarch64-none-elf/lib/libg.a(libc_a-closer.o)
 .bss           0x000001001425a488        0x0 /tools/arm-gnu-toolchain-13.2.Rel1-x86_64-aarch64-none-elf/bin/../lib/gcc/aarch64-none-elf/13.2.1/../../../../aarch64-none-elf/lib/libg.a(libc_a-fflush.o)
 .bss           0x000001001425a488        0x0 /tools/arm-gnu-toolchain-13.2.Rel1-x86_64-aarch64-none-elf/bin/../lib/gcc/aarch64-none-elf/13.2.1/../../../../aarch64-none-elf/lib/libg.a(libm_a-s_frexp.o)
 .bss           0x000001001425a488        0x0 /tools/arm-gnu-toolchain-13.2.Rel1-x86_64-aarch64-none-elf/bin/../lib/gcc/aarch64-none-elf/13.2.1/../../../../aarch64-none-elf/lib/libg.a(libc_a-strlcpy.o)
 .bss           0x000001001425a488        0x0 /tools/arm-gnu-toolchain-13.2.Rel1-x86_64-aarch64-none-elf/bin/../lib/gcc/aarch64-none-elf/13.2.1/../../../../aarch64-none-elf/lib/libg.a(libc_a-strtol.o)
 .bss           0x000001001425a488        0x0 /tools/arm-gnu-toolchain-13.2.Rel1-x86_64-aarch64-none-elf/bin/../lib/gcc/aarch64-none-elf/13.2.1/../../../../aarch64-none-elf/lib/libg.a(libc_a-strncasecmp.o)
 .bss           0x000001001425a488        0x0 /tools/arm-gnu-toolchain-13.2.Rel1-x86_64-aarch64-none-elf/bin/../lib/gcc/aarch64-none-elf/13.2.1/../../../../aarch64-none-elf/lib/libg.a(libc_a-getenv_r.o)
 .bss           0x000001001425a488        0x0 /tools/arm-gnu-toolchain-13.2.Rel1-x86_64-aarch64-none-elf/bin/../lib/gcc/aarch64-none-elf/13.2.1/../../../../aarch64-none-elf/lib/libg.a(libc_a-strncpy.o)
 .bss           0x000001001425a488        0x0 /tools/arm-gnu-toolchain-13.2.Rel1-x86_64-aarch64-none-elf/bin/../lib/gcc/aarch64-none-elf/13.2.1/../../../../aarch64-none-elf/lib/libg.a(libc_a-fstatr.o)
 .bss           0x000001001425a488        0x0 /tools/arm-gnu-toolchain-13.2.Rel1-x86_64-aarch64-none-elf/bin/../lib/gcc/aarch64-none-elf/13.2.1/../../../../aarch64-none-elf/lib/libg.a(libc_a-isattyr.o)
 .bss           0x000001001425a488        0x0 /tools/arm-gnu-toolchain-13.2.Rel1-x86_64-aarch64-none-elf/bin/../lib/gcc/aarch64-none-elf/13.2.1/../../../../aarch64-none-elf/lib/libg.a(libc_a-lseekr.o)
 .bss           0x000001001425a488        0x0 /tools/arm-gnu-toolchain-13.2.Rel1-x86_64-aarch64-none-elf/bin/../lib/gcc/aarch64-none-elf/13.2.1/../../../../aarch64-none-elf/lib/libg.a(libc_a-readr.o)
 .bss           0x000001001425a488        0x0 /tools/arm-gnu-toolchain-13.2.Rel1-x86_64-aarch64-none-elf/bin/../lib/gcc/aarch64-none-elf/13.2.1/../../../../aarch64-none-elf/lib/libg.a(libc_a-strchr.o)
 .bss           0x000001001425a488        0x0 /tools/arm-gnu-toolchain-13.2.Rel1-x86_64-aarch64-none-elf/bin/../lib/gcc/aarch64-none-elf/13.2.1/../../../../aarch64-none-elf/lib/libg.a(libc_a-strcmp.o)
 .bss           0x000001001425a488        0x0 /tools/arm-gnu-toolchain-13.2.Rel1-x86_64-aarch64-none-elf/bin/../lib/gcc/aarch64-none-elf/13.2.1/../../../../aarch64-none-elf/lib/libg.a(libc_a-strcpy.o)
 .bss           0x000001001425a488        0x0 /tools/arm-gnu-toolchain-13.2.Rel1-x86_64-aarch64-none-elf/bin/../lib/gcc/aarch64-none-elf/13.2.1/../../../../aarch64-none-elf/lib/libg.a(libc_a-fputwc.o)
 .bss           0x000001001425a488        0x0 /tools/arm-gnu-toolchain-13.2.Rel1-x86_64-aarch64-none-elf/bin/../lib/gcc/aarch64-none-elf/13.2.1/../../../../aarch64-none-elf/lib/libg.a(libc_a-wctomb_r.o)
 .bss           0x000001001425a488        0x0 /tools/arm-gnu-toolchain-13.2.Rel1-x86_64-aarch64-none-elf/bin/../lib/gcc/aarch64-none-elf/13.2.1/../../../../aarch64-none-elf/lib/libg.a(libc_a-fvwrite.o)
 .bss           0x000001001425a488        0x0 /tools/arm-gnu-toolchain-13.2.Rel1-x86_64-aarch64-none-elf/bin/../lib/gcc/aarch64-none-elf/13.2.1/../../../../aarch64-none-elf/lib/libg.a(libc_a-strncmp.o)
 .bss           0x000001001425a488        0x0 /tools/arm-gnu-toolchain-13.2.Rel1-x86_64-aarch64-none-elf/bin/../lib/gcc/aarch64-none-elf/13.2.1/../../../../aarch64-none-elf/lib/libg.a(libc_a-wbuf.o)
 .bss           0x000001001425a488        0x0 /tools/arm-gnu-toolchain-13.2.Rel1-x86_64-aarch64-none-elf/bin/../lib/gcc/aarch64-none-elf/13.2.1/../../../../aarch64-none-elf/lib/libg.a(libc_a-mbtowc_r.o)
 .bss           0x000001001425a488        0x0 /tools/arm-gnu-toolchain-13.2.Rel1-x86_64-aarch64-none-elf/bin/../lib/gcc/aarch64-none-elf/13.2.1/../../../../aarch64-none-elf/lib/libg.a(libc_a-assert.o)
 .bss           0x000001001425a488        0x0 /tools/arm-gnu-toolchain-13.2.Rel1-x86_64-aarch64-none-elf/bin/../lib/gcc/aarch64-none-elf/13.2.1/../../../../aarch64-none-elf/lib/libg.a(libc_a-strcasecmp.o)
 .bss           0x000001001425a488        0x0 /tools/arm-gnu-toolchain-13.2.Rel1-x86_64-aarch64-none-elf/bin/../lib/gcc/aarch64-none-elf/13.2.1/../../../../aarch64-none-elf/lib/libg.a(libc_a-strcat.o)
 .bss           0x000001001425a488        0x0 /tools/arm-gnu-toolchain-13.2.Rel1-x86_64-aarch64-none-elf/bin/../lib/gcc/aarch64-none-elf/13.2.1/../../../../aarch64-none-elf/lib/libg.a(libc_a-mprec.o)
 .bss           0x000001001425a488        0x0 /tools/arm-gnu-toolchain-13.2.Rel1-x86_64-aarch64-none-elf/bin/../lib/gcc/aarch64-none-elf/13.2.1/../../../../aarch64-none-elf/lib/libg.a(libc_a-callocr.o)
 .bss           0x000001001425a488        0x0 /tools/arm-gnu-toolchain-13.2.Rel1-x86_64-aarch64-none-elf/bin/../lib/gcc/aarch64-none-elf/13.2.1/../../../../aarch64-none-elf/lib/libg.a(libc_a-wcsnrtombs.o)
 .bss           0x000001001425a488        0x0 /tools/arm-gnu-toolchain-13.2.Rel1-x86_64-aarch64-none-elf/bin/../lib/gcc/aarch64-none-elf/13.2.1/../../../../aarch64-none-elf/lib/libg.a(libc_a-environ.o)
 .bss.initial_env
                0x000001001425a488        0x8 /tools/arm-gnu-toolchain-13.2.Rel1-x86_64-aarch64-none-elf/bin/../lib/gcc/aarch64-none-elf/13.2.1/../../../../aarch64-none-elf/lib/libg.a(libc_a-environ.o)
 .bss           0x000001001425a490        0x0 /tools/arm-gnu-toolchain-13.2.Rel1-x86_64-aarch64-none-elf/bin/../lib/gcc/aarch64-none-elf/13.2.1/../../../../aarch64-none-elf/lib/libg.a(libc_a-reallocr.o)
 .bss           0x000001001425a490        0x0 /tools/arm-gnu-toolchain-13.2.Rel1-x86_64-aarch64-none-elf/bin/../lib/gcc/aarch64-none-elf/13.2.1/../../../../aarch64-none-elf/lib/libg.a(libc_a-envlock.o)
 .bss           0x000001001425a490        0x0 /tools/arm-gnu-toolchain-13.2.Rel1-x86_64-aarch64-none-elf/bin/../lib/gcc/aarch64-none-elf/13.2.1/../../../../aarch64-none-elf/lib/libg.a(libc_a-fiprintf.o)
 .bss           0x000001001425a490        0x0 /tools/arm-gnu-toolchain-13.2.Rel1-x86_64-aarch64-none-elf/bin/../lib/gcc/aarch64-none-elf/13.2.1/../../../../aarch64-none-elf/lib/libg.a(libc_a-abort.o)
 .bss           0x000001001425a490        0x0 /tools/arm-gnu-toolchain-13.2.Rel1-x86_64-aarch64-none-elf/bin/../lib/gcc/aarch64-none-elf/13.2.1/../../../../aarch64-none-elf/lib/libg.a(libc_a-signal.o)
 .bss           0x000001001425a490        0x0 /tools/arm-gnu-toolchain-13.2.Rel1-x86_64-aarch64-none-elf/bin/../lib/gcc/aarch64-none-elf/13.2.1/../../../../aarch64-none-elf/lib/libg.a(libc_a-signalr.o)
 .bss           0x000001001425a490        0x0 /tools/arm-gnu-toolchain-13.2.Rel1-x86_64-aarch64-none-elf/bin/../lib/gcc/aarch64-none-elf/13.2.1/libgcc.a(trunctfdf2.o)
 .bss           0x000001001425a490        0x0 /tools/arm-gnu-toolchain-13.2.Rel1-x86_64-aarch64-none-elf/bin/../lib/gcc/aarch64-none-elf/13.2.1/libgcc.a(sfp-exceptions.o)
 *(COMMON)
                0x000001001425a490                . = ALIGN (0x10)
                0x000001001425a490                bss_end = .
                0x000001001425c000                . = ALIGN (mmu_page_2mb)
                0x000001001425c000                data_region_end = .
                0x000001001425c000                dma_mcode_start = .

.nocache_data   0x000001001425c000     0x2000 load address 0x000000001425c000
                [!provide]                        PROVIDE (dma_mcode_base = .)
 *(.nocache .nocache.*)
                0x000001001425e000                . = (. + dma_mcode_region_size)
 *fill*         0x000001001425c000     0x2000 
                0x000001001425e000                . = ALIGN (mmu_page_size)
                0x000001001425e000                dma_mcode_end = .
                0x000001001425e000                dma_reserved_start = .

.dma_reserved   0x000001001425e000     0x1000 load address 0x000000001425e000
 *(.dma_reserved .dma_reserved.*)
                0x000001001425f000                . = (. + dma_reserved_size)
 *fill*         0x000001001425e000     0x1000 
                0x000001001425f000                . = ALIGN (mmu_page_size)
                0x000001001425f000                dma_reserved_end = .
                0x000001001425f000                dma_smmu_region_start = .

.dma_smmu_region
                0x000001001425f000    0x12000 load address 0x000000001425f000
                0x000001001425f000                smmu_cte_start = .
                0x0000010014260000                . = (. + smmu_cte_size)
 *fill*         0x000001001425f000     0x1000 
                0x0000010014260000                smmu_cte_end = .
                0x0000010014260000                smmu_cd_start = .
                0x0000010014261000                . = (. + smmu_cd_size)
 *fill*         0x0000010014260000     0x1000 
                0x0000010014261000                smmu_cd_end = .
                0x0000010014261000                smmu_cmdq_start = .
                0x0000010014269000                . = (. + smmu_cmdq_size)
 *fill*         0x0000010014261000     0x8000 
                0x0000010014269000                smmu_cmdq_end = .
                0x0000010014269000                smmu_evtq_start = .
                0x0000010014271000                . = (. + smmu_evtq_size)
 *fill*         0x0000010014269000     0x8000 
                0x0000010014271000                smmu_evtq_end = .
                0x0000010014271000                . = ALIGN (mmu_page_size)
                0x0000010014271000                dma_smmu_region_end = .
                0x0000010014271000                dma_smmu_reserved_start = .

.dma_smmu_reserved
                0x0000010014271000     0x1000 load address 0x0000000014271000
 *(.dma_smmu_reserved .dma_smmu_reserved.*)
                0x0000010014272000                . = (. + dma_smmu_reserved_size)
 *fill*         0x0000010014271000     0x1000 
                0x0000010014272000                . = ALIGN (mmu_page_2mb)
                0x0000010014272000                dma_smmu_reserved_end = .
                0x0000010014272000                heap_region_start = .

.heap           0x0000010014272000  0x8000000 load address 0x0000000014272000
 *(.heap*)
 .heap          0x0000010014272000  0x8000000 portable/libfreertos_kernel_port.a(port.c.o)
                0x0000010014272000                ucHeap
                0x000001001c272000                . = ALIGN (mmu_page_2mb)
                0x000001001c272000                heap_region_end = .
                0x000001001c272000                dyn_heap_region_start = .

.dyn_heap       0x000001001c272000   0x200000 load address 0x000000001c272000
                0x000001001c272000                PROVIDE (metal_segment_heap_target_start = .)
                0x000001001c472000                . = (. + dyn_heap_size)
 *fill*         0x000001001c272000   0x200000 
                0x000001001c472000                . = ALIGN (0x8)
                0x000001001c472000                PROVIDE (metal_segment_heap_target_end = .)
                0x000001001c472000                . = ALIGN (mmu_page_2mb)
                0x000001001c472000                dyn_heap_region_end = .

/DISCARD/
 *(.eh_frame)
OUTPUT(freertos_kernel.elf elf64-littleaarch64)
LOAD linker stubs

.debug_info     0x0000000000000000    0x71674
 .debug_info    0x0000000000000000      0x35d CMakeFiles/freertos_kernel.elf.dir/main_cp1.c.o
 .debug_info    0x000000000000035d      0x21b gloss/CMakeFiles/freedom_metal.dir/freedom_metal.c.o
 .debug_info    0x0000000000000578      0x129 gloss/CMakeFiles/freedom_metal.dir/nanosleep.c.o
 .debug_info    0x00000000000006a1       0xee gloss/CMakeFiles/freedom_metal.dir/sys_access.c.o
 .debug_info    0x000000000000078f       0xde gloss/CMakeFiles/freedom_metal.dir/sys_chdir.c.o
 .debug_info    0x000000000000086d      0x112 gloss/CMakeFiles/freedom_metal.dir/sys_chmod.c.o
 .debug_info    0x000000000000097f      0x130 gloss/CMakeFiles/freedom_metal.dir/sys_chown.c.o
 .debug_info    0x0000000000000aaf      0x18d gloss/CMakeFiles/freedom_metal.dir/sys_clock_gettime.c.o
 .debug_info    0x0000000000000c3c       0xd5 gloss/CMakeFiles/freedom_metal.dir/sys_close.c.o
 .debug_info    0x0000000000000d11      0x115 gloss/CMakeFiles/freedom_metal.dir/sys_execve.c.o
 .debug_info    0x0000000000000e26       0xdd gloss/CMakeFiles/freedom_metal.dir/sys_exit.c.o
 .debug_info    0x0000000000000f03      0x112 gloss/CMakeFiles/freedom_metal.dir/sys_faccessat.c.o
 .debug_info    0x0000000000001015       0xc1 gloss/CMakeFiles/freedom_metal.dir/sys_fork.c.o
 .debug_info    0x00000000000010d6      0x2e6 gloss/CMakeFiles/freedom_metal.dir/sys_fstat.c.o
 .debug_info    0x00000000000013bc      0x312 gloss/CMakeFiles/freedom_metal.dir/sys_fstatat.c.o
 .debug_info    0x00000000000016ce      0x126 gloss/CMakeFiles/freedom_metal.dir/sys_ftime.c.o
 .debug_info    0x00000000000017f4       0xf9 gloss/CMakeFiles/freedom_metal.dir/sys_getcwd.c.o
 .debug_info    0x00000000000018ed      0x103 gloss/CMakeFiles/freedom_metal.dir/sys_getpid.c.o
 .debug_info    0x00000000000019f0      0x1b3 gloss/CMakeFiles/freedom_metal.dir/sys_gettimeofday.c.o
 .debug_info    0x0000000000001ba3       0xb6 gloss/CMakeFiles/freedom_metal.dir/sys_isatty.c.o
 .debug_info    0x0000000000001c59       0xe5 gloss/CMakeFiles/freedom_metal.dir/sys_kill.c.o
 .debug_info    0x0000000000001d3e       0xee gloss/CMakeFiles/freedom_metal.dir/sys_link.c.o
 .debug_info    0x0000000000001e2c      0x11d gloss/CMakeFiles/freedom_metal.dir/sys_lseek.c.o
 .debug_info    0x0000000000001f49      0x2f0 gloss/CMakeFiles/freedom_metal.dir/sys_lstat.c.o
 .debug_info    0x0000000000002239      0x100 gloss/CMakeFiles/freedom_metal.dir/sys_open.c.o
 .debug_info    0x0000000000002339      0x112 gloss/CMakeFiles/freedom_metal.dir/sys_openat.c.o
 .debug_info    0x000000000000244b      0x11f gloss/CMakeFiles/freedom_metal.dir/sys_read.c.o
 .debug_info    0x000000000000256a      0x173 gloss/CMakeFiles/freedom_metal.dir/sys_sbrk.c.o
 .debug_info    0x00000000000026dd       0xb6 gloss/CMakeFiles/freedom_metal.dir/sys_sysconf.c.o
 .debug_info    0x0000000000002793      0x22a gloss/CMakeFiles/freedom_metal.dir/sys_times.c.o
 .debug_info    0x00000000000029bd       0xde gloss/CMakeFiles/freedom_metal.dir/sys_unlink.c.o
 .debug_info    0x0000000000002a9b      0x101 gloss/CMakeFiles/freedom_metal.dir/sys_utime.c.o
 .debug_info    0x0000000000002b9c       0xd5 gloss/CMakeFiles/freedom_metal.dir/sys_wait.c.o
 .debug_info    0x0000000000002c71      0x187 gloss/CMakeFiles/freedom_metal.dir/sys_write.c.o
 .debug_info    0x0000000000002df8     0x1c6a build/drivers/mailbox/CMakeFiles/mailbox.dir/mailbox.c.o
 .debug_info    0x0000000000004a62      0x2e3 build/drivers/mailbox/CMakeFiles/mailbox.dir/mailbox_cb.c.o
 .debug_info    0x0000000000004d45    0x30af2 build/drivers/pmu/CMakeFiles/pmu.dir/pmu.c.o
 .debug_info    0x0000000000035837      0xd1d build/drivers/timer/dw_apb_timer/CMakeFiles/dw_apb_timer.dir/dw_apb_timer.c.o
 .debug_info    0x0000000000036554     0x1a70 build/drivers/qspi/qspi_apb/CMakeFiles/qspi_apb.dir/qspi_apb.c.o
 .debug_info    0x0000000000037fc4      0x31b build/drivers/flash/CMakeFiles/flash.dir/mt25q_flash.c.o
 .debug_info    0x00000000000382df     0x2ada libfreertos_kernel.a(queue.c.o)
 .debug_info    0x000000000003adb9     0x95f0 libfreertos_kernel.a(tasks.c.o)
 .debug_info    0x00000000000443a9     0x1ae8 libfreertos_kernel.a(timers.c.o)
 .debug_info    0x0000000000045e91      0x914 libfreertos_kernel.a(heap_4.c.o)
 .debug_info    0x00000000000467a5      0x3f7 libfreertos_kernel.a(list.c.o)
 .debug_info    0x0000000000046b9c     0x14e0 portable/libfreertos_kernel_port.a(port.c.o)
 .debug_info    0x000000000004807c      0x1cf build/drivers/common/libdriver.a(driver.c.o)
 .debug_info    0x000000000004824b      0x2a6 build/drivers/common/libassert.a(assert.c.o)
 .debug_info    0x00000000000484f1      0x4a2 build/drivers/common/libinterrupt.a(interrupt.c.o)
 .debug_info    0x0000000000048993     0x1671 build/drivers/intc/libintc.a(gicv3.c.o)
 .debug_info    0x000000000004a004      0x174 build/drivers/intc/libintc.a(bakery_lock.c.o)
 .debug_info    0x000000000004a178      0x17f portable/libfreertos_arch.a(prep_c.c.o)
 .debug_info    0x000000000004a2f7      0x40a libfreertos_kernel_config.a(FreeRTOS_tick_config.c.o)
 .debug_info    0x000000000004a701      0x440 portable/libsmp.a(smp.c.o)
 .debug_info    0x000000000004ab41      0x2ca build/common/arch/libcommon.a(printf.c.o)
 .debug_info    0x000000000004ae0b      0x2ff build/drivers/psci/libpsci.a(psci.c.o)
 .debug_info    0x000000000004b10a     0x1b64 portable/libmmu.a(mmu.c.o)
 .debug_info    0x000000000004cc6e      0x440 build/drivers/timer/generic_timer/libgeneric_timer.a(generic_timer.c.o)
 .debug_info    0x000000000004d0ae       0x3b /tools/arm-gnu-toolchain-13.2.Rel1-x86_64-aarch64-none-elf/bin/../lib/gcc/aarch64-none-elf/13.2.1/../../../../aarch64-none-elf/lib/libg.a(libc_a-strlen.o)
 .debug_info    0x000000000004d0e9      0x725 /tools/arm-gnu-toolchain-13.2.Rel1-x86_64-aarch64-none-elf/bin/../lib/gcc/aarch64-none-elf/13.2.1/../../../../aarch64-none-elf/lib/libg.a(libc_a-errno.o)
 .debug_info    0x000000000004d80e      0x8aa /tools/arm-gnu-toolchain-13.2.Rel1-x86_64-aarch64-none-elf/bin/../lib/gcc/aarch64-none-elf/13.2.1/../../../../aarch64-none-elf/lib/libg.a(libc_a-printf.o)
 .debug_info    0x000000000004e0b8       0x3b /tools/arm-gnu-toolchain-13.2.Rel1-x86_64-aarch64-none-elf/bin/../lib/gcc/aarch64-none-elf/13.2.1/../../../../aarch64-none-elf/lib/libg.a(libc_a-memcpy.o)
 .debug_info    0x000000000004e0f3      0x7f1 /tools/arm-gnu-toolchain-13.2.Rel1-x86_64-aarch64-none-elf/bin/../lib/gcc/aarch64-none-elf/13.2.1/../../../../aarch64-none-elf/lib/libg.a(libc_a-putchar.o)
 .debug_info    0x000000000004e8e4      0x82b /tools/arm-gnu-toolchain-13.2.Rel1-x86_64-aarch64-none-elf/bin/../lib/gcc/aarch64-none-elf/13.2.1/../../../../aarch64-none-elf/lib/libg.a(libc_a-reent.o)
 .debug_info    0x000000000004f10f      0x73b /tools/arm-gnu-toolchain-13.2.Rel1-x86_64-aarch64-none-elf/bin/../lib/gcc/aarch64-none-elf/13.2.1/../../../../aarch64-none-elf/lib/libg.a(libc_a-impure.o)
 .debug_info    0x000000000004f84a     0x128d /tools/arm-gnu-toolchain-13.2.Rel1-x86_64-aarch64-none-elf/bin/../lib/gcc/aarch64-none-elf/13.2.1/../../../../aarch64-none-elf/lib/libg.a(libc_a-findfp.o)
 .debug_info    0x0000000000050ad7       0x3b /tools/arm-gnu-toolchain-13.2.Rel1-x86_64-aarch64-none-elf/bin/../lib/gcc/aarch64-none-elf/13.2.1/../../../../aarch64-none-elf/lib/libg.a(libc_a-memset.o)
 .debug_info    0x0000000000050b12      0xb61 /tools/arm-gnu-toolchain-13.2.Rel1-x86_64-aarch64-none-elf/bin/../lib/gcc/aarch64-none-elf/13.2.1/../../../../aarch64-none-elf/lib/libg.a(libc_a-freer.o)
 .debug_info    0x0000000000051673      0xabc /tools/arm-gnu-toolchain-13.2.Rel1-x86_64-aarch64-none-elf/bin/../lib/gcc/aarch64-none-elf/13.2.1/../../../../aarch64-none-elf/lib/libg.a(libc_a-stdio.o)
 .debug_info    0x000000000005212f      0x7aa /tools/arm-gnu-toolchain-13.2.Rel1-x86_64-aarch64-none-elf/bin/../lib/gcc/aarch64-none-elf/13.2.1/../../../../aarch64-none-elf/lib/libg.a(libc_a-sbrkr.o)
 .debug_info    0x00000000000528d9      0x7fe /tools/arm-gnu-toolchain-13.2.Rel1-x86_64-aarch64-none-elf/bin/../lib/gcc/aarch64-none-elf/13.2.1/../../../../aarch64-none-elf/lib/libg.a(libc_a-fwalk.o)
 .debug_info    0x00000000000530d7      0x7e1 /tools/arm-gnu-toolchain-13.2.Rel1-x86_64-aarch64-none-elf/bin/../lib/gcc/aarch64-none-elf/13.2.1/../../../../aarch64-none-elf/lib/libg.a(libc_a-writer.o)
 .debug_info    0x00000000000538b8     0x2064 /tools/arm-gnu-toolchain-13.2.Rel1-x86_64-aarch64-none-elf/bin/../lib/gcc/aarch64-none-elf/13.2.1/../../../../aarch64-none-elf/lib/libg.a(libc_a-vfprintf.o)
 .debug_info    0x000000000005591c     0x1e17 /tools/arm-gnu-toolchain-13.2.Rel1-x86_64-aarch64-none-elf/bin/../lib/gcc/aarch64-none-elf/13.2.1/../../../../aarch64-none-elf/lib/libg.a(libc_a-vfiprintf.o)
 .debug_info    0x0000000000057733      0xd11 /tools/arm-gnu-toolchain-13.2.Rel1-x86_64-aarch64-none-elf/bin/../lib/gcc/aarch64-none-elf/13.2.1/../../../../aarch64-none-elf/lib/libg.a(libc_a-mallocr.o)
 .debug_info    0x0000000000058444      0xb53 /tools/arm-gnu-toolchain-13.2.Rel1-x86_64-aarch64-none-elf/bin/../lib/gcc/aarch64-none-elf/13.2.1/../../../../aarch64-none-elf/lib/libg.a(libc_a-wcrtomb.o)
 .debug_info    0x0000000000058f97      0x23e /tools/arm-gnu-toolchain-13.2.Rel1-x86_64-aarch64-none-elf/bin/../lib/gcc/aarch64-none-elf/13.2.1/../../../../aarch64-none-elf/lib/libg.a(libc_a-lock.o)
 .debug_info    0x00000000000591d5     0x1b8d /tools/arm-gnu-toolchain-13.2.Rel1-x86_64-aarch64-none-elf/bin/../lib/gcc/aarch64-none-elf/13.2.1/../../../../aarch64-none-elf/lib/libg.a(libc_a-locale.o)
 .debug_info    0x000000000005ad62      0xa6f /tools/arm-gnu-toolchain-13.2.Rel1-x86_64-aarch64-none-elf/bin/../lib/gcc/aarch64-none-elf/13.2.1/../../../../aarch64-none-elf/lib/libg.a(libc_a-localeconv.o)
 .debug_info    0x000000000005b7d1      0x92d /tools/arm-gnu-toolchain-13.2.Rel1-x86_64-aarch64-none-elf/bin/../lib/gcc/aarch64-none-elf/13.2.1/../../../../aarch64-none-elf/lib/libg.a(libc_a-fclose.o)
 .debug_info    0x000000000005c0fe       0x3b /tools/arm-gnu-toolchain-13.2.Rel1-x86_64-aarch64-none-elf/bin/../lib/gcc/aarch64-none-elf/13.2.1/../../../../aarch64-none-elf/lib/libg.a(libc_a-memchr.o)
 .debug_info    0x000000000005c139      0x7f1 /tools/arm-gnu-toolchain-13.2.Rel1-x86_64-aarch64-none-elf/bin/../lib/gcc/aarch64-none-elf/13.2.1/../../../../aarch64-none-elf/lib/libg.a(libc_a-wsetup.o)
 .debug_info    0x000000000005c92a      0xc2e /tools/arm-gnu-toolchain-13.2.Rel1-x86_64-aarch64-none-elf/bin/../lib/gcc/aarch64-none-elf/13.2.1/../../../../aarch64-none-elf/lib/libg.a(libc_a-makebuf.o)
 .debug_info    0x000000000005d558      0x9be /tools/arm-gnu-toolchain-13.2.Rel1-x86_64-aarch64-none-elf/bin/../lib/gcc/aarch64-none-elf/13.2.1/../../../../aarch64-none-elf/lib/libg.a(libc_a-putc.o)
 .debug_info    0x000000000005df16      0x7a5 /tools/arm-gnu-toolchain-13.2.Rel1-x86_64-aarch64-none-elf/bin/../lib/gcc/aarch64-none-elf/13.2.1/../../../../aarch64-none-elf/lib/libg.a(libc_a-mlock.o)
 .debug_info    0x000000000005e6bb      0x8c9 /tools/arm-gnu-toolchain-13.2.Rel1-x86_64-aarch64-none-elf/bin/../lib/gcc/aarch64-none-elf/13.2.1/../../../../aarch64-none-elf/lib/libg.a(libc_a-wcsrtombs.o)
 .debug_info    0x000000000005ef84     0x16ce /tools/arm-gnu-toolchain-13.2.Rel1-x86_64-aarch64-none-elf/bin/../lib/gcc/aarch64-none-elf/13.2.1/../../../../aarch64-none-elf/lib/libg.a(libc_a-dtoa.o)
 .debug_info    0x0000000000060652      0xa03 /tools/arm-gnu-toolchain-13.2.Rel1-x86_64-aarch64-none-elf/bin/../lib/gcc/aarch64-none-elf/13.2.1/../../../../aarch64-none-elf/lib/libg.a(libc_a-ctype_.o)
 .debug_info    0x0000000000061055      0x784 /tools/arm-gnu-toolchain-13.2.Rel1-x86_64-aarch64-none-elf/bin/../lib/gcc/aarch64-none-elf/13.2.1/../../../../aarch64-none-elf/lib/libg.a(libc_a-closer.o)
 .debug_info    0x00000000000617d9      0xb2c /tools/arm-gnu-toolchain-13.2.Rel1-x86_64-aarch64-none-elf/bin/../lib/gcc/aarch64-none-elf/13.2.1/../../../../aarch64-none-elf/lib/libg.a(libc_a-fflush.o)
 .debug_info    0x0000000000062305      0x1d8 /tools/arm-gnu-toolchain-13.2.Rel1-x86_64-aarch64-none-elf/bin/../lib/gcc/aarch64-none-elf/13.2.1/../../../../aarch64-none-elf/lib/libg.a(libm_a-s_frexp.o)
 .debug_info    0x00000000000624dd      0x119 /tools/arm-gnu-toolchain-13.2.Rel1-x86_64-aarch64-none-elf/bin/../lib/gcc/aarch64-none-elf/13.2.1/../../../../aarch64-none-elf/lib/libg.a(libc_a-strlcpy.o)
 .debug_info    0x00000000000625f6      0xed2 /tools/arm-gnu-toolchain-13.2.Rel1-x86_64-aarch64-none-elf/bin/../lib/gcc/aarch64-none-elf/13.2.1/../../../../aarch64-none-elf/lib/libg.a(libc_a-strtol.o)
 .debug_info    0x00000000000634c8      0x172 /tools/arm-gnu-toolchain-13.2.Rel1-x86_64-aarch64-none-elf/bin/../lib/gcc/aarch64-none-elf/13.2.1/../../../../aarch64-none-elf/lib/libg.a(libc_a-strncasecmp.o)
 .debug_info    0x000000000006363a      0x8d1 /tools/arm-gnu-toolchain-13.2.Rel1-x86_64-aarch64-none-elf/bin/../lib/gcc/aarch64-none-elf/13.2.1/../../../../aarch64-none-elf/lib/libg.a(libc_a-getenv_r.o)
 .debug_info    0x0000000000063f0b      0x156 /tools/arm-gnu-toolchain-13.2.Rel1-x86_64-aarch64-none-elf/bin/../lib/gcc/aarch64-none-elf/13.2.1/../../../../aarch64-none-elf/lib/libg.a(libc_a-strncpy.o)
 .debug_info    0x0000000000064061      0x997 /tools/arm-gnu-toolchain-13.2.Rel1-x86_64-aarch64-none-elf/bin/../lib/gcc/aarch64-none-elf/13.2.1/../../../../aarch64-none-elf/lib/libg.a(libc_a-fstatr.o)
 .debug_info    0x00000000000649f8      0x784 /tools/arm-gnu-toolchain-13.2.Rel1-x86_64-aarch64-none-elf/bin/../lib/gcc/aarch64-none-elf/13.2.1/../../../../aarch64-none-elf/lib/libg.a(libc_a-isattyr.o)
 .debug_info    0x000000000006517c      0x7c4 /tools/arm-gnu-toolchain-13.2.Rel1-x86_64-aarch64-none-elf/bin/../lib/gcc/aarch64-none-elf/13.2.1/../../../../aarch64-none-elf/lib/libg.a(libc_a-lseekr.o)
 .debug_info    0x0000000000065940      0x7db /tools/arm-gnu-toolchain-13.2.Rel1-x86_64-aarch64-none-elf/bin/../lib/gcc/aarch64-none-elf/13.2.1/../../../../aarch64-none-elf/lib/libg.a(libc_a-readr.o)
 .debug_info    0x000000000006611b       0x3b /tools/arm-gnu-toolchain-13.2.Rel1-x86_64-aarch64-none-elf/bin/../lib/gcc/aarch64-none-elf/13.2.1/../../../../aarch64-none-elf/lib/libg.a(libc_a-strchr.o)
 .debug_info    0x0000000000066156       0x3b /tools/arm-gnu-toolchain-13.2.Rel1-x86_64-aarch64-none-elf/bin/../lib/gcc/aarch64-none-elf/13.2.1/../../../../aarch64-none-elf/lib/libg.a(libc_a-strcmp.o)
 .debug_info    0x0000000000066191       0x3b /tools/arm-gnu-toolchain-13.2.Rel1-x86_64-aarch64-none-elf/bin/../lib/gcc/aarch64-none-elf/13.2.1/../../../../aarch64-none-elf/lib/libg.a(libc_a-strcpy.o)
 .debug_info    0x00000000000661cc      0xafb /tools/arm-gnu-toolchain-13.2.Rel1-x86_64-aarch64-none-elf/bin/../lib/gcc/aarch64-none-elf/13.2.1/../../../../aarch64-none-elf/lib/libg.a(libc_a-fputwc.o)
 .debug_info    0x0000000000066cc7      0xd3c /tools/arm-gnu-toolchain-13.2.Rel1-x86_64-aarch64-none-elf/bin/../lib/gcc/aarch64-none-elf/13.2.1/../../../../aarch64-none-elf/lib/libg.a(libc_a-wctomb_r.o)
 .debug_info    0x0000000000067a03      0xb5c /tools/arm-gnu-toolchain-13.2.Rel1-x86_64-aarch64-none-elf/bin/../lib/gcc/aarch64-none-elf/13.2.1/../../../../aarch64-none-elf/lib/libg.a(libc_a-fvwrite.o)
 .debug_info    0x000000000006855f       0x3b /tools/arm-gnu-toolchain-13.2.Rel1-x86_64-aarch64-none-elf/bin/../lib/gcc/aarch64-none-elf/13.2.1/../../../../aarch64-none-elf/lib/libg.a(libc_a-strncmp.o)
 .debug_info    0x000000000006859a      0x8a7 /tools/arm-gnu-toolchain-13.2.Rel1-x86_64-aarch64-none-elf/bin/../lib/gcc/aarch64-none-elf/13.2.1/../../../../aarch64-none-elf/lib/libg.a(libc_a-wbuf.o)
 .debug_info    0x0000000000068e41      0xf6e /tools/arm-gnu-toolchain-13.2.Rel1-x86_64-aarch64-none-elf/bin/../lib/gcc/aarch64-none-elf/13.2.1/../../../../aarch64-none-elf/lib/libg.a(libc_a-mbtowc_r.o)
 .debug_info    0x0000000000069daf      0x84b /tools/arm-gnu-toolchain-13.2.Rel1-x86_64-aarch64-none-elf/bin/../lib/gcc/aarch64-none-elf/13.2.1/../../../../aarch64-none-elf/lib/libg.a(libc_a-assert.o)
 .debug_info    0x000000000006a5fa      0x15c /tools/arm-gnu-toolchain-13.2.Rel1-x86_64-aarch64-none-elf/bin/../lib/gcc/aarch64-none-elf/13.2.1/../../../../aarch64-none-elf/lib/libg.a(libc_a-strcasecmp.o)
 .debug_info    0x000000000006a756      0x148 /tools/arm-gnu-toolchain-13.2.Rel1-x86_64-aarch64-none-elf/bin/../lib/gcc/aarch64-none-elf/13.2.1/../../../../aarch64-none-elf/lib/libg.a(libc_a-strcat.o)
 .debug_info    0x000000000006a89e     0x201f /tools/arm-gnu-toolchain-13.2.Rel1-x86_64-aarch64-none-elf/bin/../lib/gcc/aarch64-none-elf/13.2.1/../../../../aarch64-none-elf/lib/libg.a(libc_a-mprec.o)
 .debug_info    0x000000000006c8bd      0x8e8 /tools/arm-gnu-toolchain-13.2.Rel1-x86_64-aarch64-none-elf/bin/../lib/gcc/aarch64-none-elf/13.2.1/../../../../aarch64-none-elf/lib/libg.a(libc_a-callocr.o)
 .debug_info    0x000000000006d1a5      0xd21 /tools/arm-gnu-toolchain-13.2.Rel1-x86_64-aarch64-none-elf/bin/../lib/gcc/aarch64-none-elf/13.2.1/../../../../aarch64-none-elf/lib/libg.a(libc_a-wcsnrtombs.o)
 .debug_info    0x000000000006dec6       0x73 /tools/arm-gnu-toolchain-13.2.Rel1-x86_64-aarch64-none-elf/bin/../lib/gcc/aarch64-none-elf/13.2.1/../../../../aarch64-none-elf/lib/libg.a(libc_a-environ.o)
 .debug_info    0x000000000006df39      0xc19 /tools/arm-gnu-toolchain-13.2.Rel1-x86_64-aarch64-none-elf/bin/../lib/gcc/aarch64-none-elf/13.2.1/../../../../aarch64-none-elf/lib/libg.a(libc_a-reallocr.o)
 .debug_info    0x000000000006eb52      0x7a5 /tools/arm-gnu-toolchain-13.2.Rel1-x86_64-aarch64-none-elf/bin/../lib/gcc/aarch64-none-elf/13.2.1/../../../../aarch64-none-elf/lib/libg.a(libc_a-envlock.o)
 .debug_info    0x000000000006f2f7      0x8be /tools/arm-gnu-toolchain-13.2.Rel1-x86_64-aarch64-none-elf/bin/../lib/gcc/aarch64-none-elf/13.2.1/../../../../aarch64-none-elf/lib/libg.a(libc_a-fiprintf.o)
 .debug_info    0x000000000006fbb5       0xec /tools/arm-gnu-toolchain-13.2.Rel1-x86_64-aarch64-none-elf/bin/../lib/gcc/aarch64-none-elf/13.2.1/../../../../aarch64-none-elf/lib/libg.a(libc_a-abort.o)
 .debug_info    0x000000000006fca1      0xd41 /tools/arm-gnu-toolchain-13.2.Rel1-x86_64-aarch64-none-elf/bin/../lib/gcc/aarch64-none-elf/13.2.1/../../../../aarch64-none-elf/lib/libg.a(libc_a-signal.o)
 .debug_info    0x00000000000709e2      0x817 /tools/arm-gnu-toolchain-13.2.Rel1-x86_64-aarch64-none-elf/bin/../lib/gcc/aarch64-none-elf/13.2.1/../../../../aarch64-none-elf/lib/libg.a(libc_a-signalr.o)
 .debug_info    0x00000000000711f9      0x39e /tools/arm-gnu-toolchain-13.2.Rel1-x86_64-aarch64-none-elf/bin/../lib/gcc/aarch64-none-elf/13.2.1/libgcc.a(trunctfdf2.o)
 .debug_info    0x0000000000071597       0xdd /tools/arm-gnu-toolchain-13.2.Rel1-x86_64-aarch64-none-elf/bin/../lib/gcc/aarch64-none-elf/13.2.1/libgcc.a(sfp-exceptions.o)

.debug_abbrev   0x0000000000000000     0xd643
 .debug_abbrev  0x0000000000000000      0x1a9 CMakeFiles/freertos_kernel.elf.dir/main_cp1.c.o
 .debug_abbrev  0x00000000000001a9      0x158 gloss/CMakeFiles/freedom_metal.dir/freedom_metal.c.o
 .debug_abbrev  0x0000000000000301       0xbe gloss/CMakeFiles/freedom_metal.dir/nanosleep.c.o
 .debug_abbrev  0x00000000000003bf       0x8a gloss/CMakeFiles/freedom_metal.dir/sys_access.c.o
 .debug_abbrev  0x0000000000000449       0x88 gloss/CMakeFiles/freedom_metal.dir/sys_chdir.c.o
 .debug_abbrev  0x00000000000004d1       0x99 gloss/CMakeFiles/freedom_metal.dir/sys_chmod.c.o
 .debug_abbrev  0x000000000000056a       0x99 gloss/CMakeFiles/freedom_metal.dir/sys_chown.c.o
 .debug_abbrev  0x0000000000000603      0x118 gloss/CMakeFiles/freedom_metal.dir/sys_clock_gettime.c.o
 .debug_abbrev  0x000000000000071b       0x80 gloss/CMakeFiles/freedom_metal.dir/sys_close.c.o
 .debug_abbrev  0x000000000000079b       0xa0 gloss/CMakeFiles/freedom_metal.dir/sys_execve.c.o
 .debug_abbrev  0x000000000000083b       0x8a gloss/CMakeFiles/freedom_metal.dir/sys_exit.c.o
 .debug_abbrev  0x00000000000008c5       0x8a gloss/CMakeFiles/freedom_metal.dir/sys_faccessat.c.o
 .debug_abbrev  0x000000000000094f       0x6a gloss/CMakeFiles/freedom_metal.dir/sys_fork.c.o
 .debug_abbrev  0x00000000000009b9       0xdb gloss/CMakeFiles/freedom_metal.dir/sys_fstat.c.o
 .debug_abbrev  0x0000000000000a94       0xe4 gloss/CMakeFiles/freedom_metal.dir/sys_fstatat.c.o
 .debug_abbrev  0x0000000000000b78       0xb5 gloss/CMakeFiles/freedom_metal.dir/sys_ftime.c.o
 .debug_abbrev  0x0000000000000c2d       0xa4 gloss/CMakeFiles/freedom_metal.dir/sys_getcwd.c.o
 .debug_abbrev  0x0000000000000cd1       0x9a gloss/CMakeFiles/freedom_metal.dir/sys_getpid.c.o
 .debug_abbrev  0x0000000000000d6b      0x113 gloss/CMakeFiles/freedom_metal.dir/sys_gettimeofday.c.o
 .debug_abbrev  0x0000000000000e7e       0x59 gloss/CMakeFiles/freedom_metal.dir/sys_isatty.c.o
 .debug_abbrev  0x0000000000000ed7       0x82 gloss/CMakeFiles/freedom_metal.dir/sys_kill.c.o
 .debug_abbrev  0x0000000000000f59       0x8a gloss/CMakeFiles/freedom_metal.dir/sys_link.c.o
 .debug_abbrev  0x0000000000000fe3       0xa5 gloss/CMakeFiles/freedom_metal.dir/sys_lseek.c.o
 .debug_abbrev  0x0000000000001088       0xe2 gloss/CMakeFiles/freedom_metal.dir/sys_lstat.c.o
 .debug_abbrev  0x000000000000116a       0x8a gloss/CMakeFiles/freedom_metal.dir/sys_open.c.o
 .debug_abbrev  0x00000000000011f4       0x8a gloss/CMakeFiles/freedom_metal.dir/sys_openat.c.o
 .debug_abbrev  0x000000000000127e       0xac gloss/CMakeFiles/freedom_metal.dir/sys_read.c.o
 .debug_abbrev  0x000000000000132a      0x100 gloss/CMakeFiles/freedom_metal.dir/sys_sbrk.c.o
 .debug_abbrev  0x000000000000142a       0x59 gloss/CMakeFiles/freedom_metal.dir/sys_sysconf.c.o
 .debug_abbrev  0x0000000000001483      0x16f gloss/CMakeFiles/freedom_metal.dir/sys_times.c.o
 .debug_abbrev  0x00000000000015f2       0x88 gloss/CMakeFiles/freedom_metal.dir/sys_unlink.c.o
 .debug_abbrev  0x000000000000167a       0x95 gloss/CMakeFiles/freedom_metal.dir/sys_utime.c.o
 .debug_abbrev  0x000000000000170f       0x80 gloss/CMakeFiles/freedom_metal.dir/sys_wait.c.o
 .debug_abbrev  0x000000000000178f      0x100 gloss/CMakeFiles/freedom_metal.dir/sys_write.c.o
 .debug_abbrev  0x000000000000188f      0x3d4 build/drivers/mailbox/CMakeFiles/mailbox.dir/mailbox.c.o
 .debug_abbrev  0x0000000000001c63      0x15f build/drivers/mailbox/CMakeFiles/mailbox.dir/mailbox_cb.c.o
 .debug_abbrev  0x0000000000001dc2      0x219 build/drivers/pmu/CMakeFiles/pmu.dir/pmu.c.o
 .debug_abbrev  0x0000000000001fdb      0x27e build/drivers/timer/dw_apb_timer/CMakeFiles/dw_apb_timer.dir/dw_apb_timer.c.o
 .debug_abbrev  0x0000000000002259      0x34f build/drivers/qspi/qspi_apb/CMakeFiles/qspi_apb.dir/qspi_apb.c.o
 .debug_abbrev  0x00000000000025a8       0xfd build/drivers/flash/CMakeFiles/flash.dir/mt25q_flash.c.o
 .debug_abbrev  0x00000000000026a5      0x384 libfreertos_kernel.a(queue.c.o)
 .debug_abbrev  0x0000000000002a29      0x5dd libfreertos_kernel.a(tasks.c.o)
 .debug_abbrev  0x0000000000003006      0x3a5 libfreertos_kernel.a(timers.c.o)
 .debug_abbrev  0x00000000000033ab      0x30d libfreertos_kernel.a(heap_4.c.o)
 .debug_abbrev  0x00000000000036b8      0x11e libfreertos_kernel.a(list.c.o)
 .debug_abbrev  0x00000000000037d6      0x4a8 portable/libfreertos_kernel_port.a(port.c.o)
 .debug_abbrev  0x0000000000003c7e      0x11e build/drivers/common/libdriver.a(driver.c.o)
 .debug_abbrev  0x0000000000003d9c      0x102 build/drivers/common/libassert.a(assert.c.o)
 .debug_abbrev  0x0000000000003e9e      0x122 build/drivers/common/libinterrupt.a(interrupt.c.o)
 .debug_abbrev  0x0000000000003fc0      0x41a build/drivers/intc/libintc.a(gicv3.c.o)
 .debug_abbrev  0x00000000000043da       0xd8 build/drivers/intc/libintc.a(bakery_lock.c.o)
 .debug_abbrev  0x00000000000044b2      0x127 portable/libfreertos_arch.a(prep_c.c.o)
 .debug_abbrev  0x00000000000045d9      0x207 libfreertos_kernel_config.a(FreeRTOS_tick_config.c.o)
 .debug_abbrev  0x00000000000047e0      0x1f7 portable/libsmp.a(smp.c.o)
 .debug_abbrev  0x00000000000049d7      0x109 build/common/arch/libcommon.a(printf.c.o)
 .debug_abbrev  0x0000000000004ae0      0x159 build/drivers/psci/libpsci.a(psci.c.o)
 .debug_abbrev  0x0000000000004c39      0x469 portable/libmmu.a(mmu.c.o)
 .debug_abbrev  0x00000000000050a2      0x1c7 build/drivers/timer/generic_timer/libgeneric_timer.a(generic_timer.c.o)
 .debug_abbrev  0x0000000000005269       0x28 /tools/arm-gnu-toolchain-13.2.Rel1-x86_64-aarch64-none-elf/bin/../lib/gcc/aarch64-none-elf/13.2.1/../../../../aarch64-none-elf/lib/libg.a(libc_a-strlen.o)
 .debug_abbrev  0x0000000000005291      0x19a /tools/arm-gnu-toolchain-13.2.Rel1-x86_64-aarch64-none-elf/bin/../lib/gcc/aarch64-none-elf/13.2.1/../../../../aarch64-none-elf/lib/libg.a(libc_a-errno.o)
 .debug_abbrev  0x000000000000542b      0x245 /tools/arm-gnu-toolchain-13.2.Rel1-x86_64-aarch64-none-elf/bin/../lib/gcc/aarch64-none-elf/13.2.1/../../../../aarch64-none-elf/lib/libg.a(libc_a-printf.o)
 .debug_abbrev  0x0000000000005670       0x28 /tools/arm-gnu-toolchain-13.2.Rel1-x86_64-aarch64-none-elf/bin/../lib/gcc/aarch64-none-elf/13.2.1/../../../../aarch64-none-elf/lib/libg.a(libc_a-memcpy.o)
 .debug_abbrev  0x0000000000005698      0x20c /tools/arm-gnu-toolchain-13.2.Rel1-x86_64-aarch64-none-elf/bin/../lib/gcc/aarch64-none-elf/13.2.1/../../../../aarch64-none-elf/lib/libg.a(libc_a-putchar.o)
 .debug_abbrev  0x00000000000058a4      0x230 /tools/arm-gnu-toolchain-13.2.Rel1-x86_64-aarch64-none-elf/bin/../lib/gcc/aarch64-none-elf/13.2.1/../../../../aarch64-none-elf/lib/libg.a(libc_a-reent.o)
 .debug_abbrev  0x0000000000005ad4      0x185 /tools/arm-gnu-toolchain-13.2.Rel1-x86_64-aarch64-none-elf/bin/../lib/gcc/aarch64-none-elf/13.2.1/../../../../aarch64-none-elf/lib/libg.a(libc_a-impure.o)
 .debug_abbrev  0x0000000000005c59      0x484 /tools/arm-gnu-toolchain-13.2.Rel1-x86_64-aarch64-none-elf/bin/../lib/gcc/aarch64-none-elf/13.2.1/../../../../aarch64-none-elf/lib/libg.a(libc_a-findfp.o)
 .debug_abbrev  0x00000000000060dd       0x28 /tools/arm-gnu-toolchain-13.2.Rel1-x86_64-aarch64-none-elf/bin/../lib/gcc/aarch64-none-elf/13.2.1/../../../../aarch64-none-elf/lib/libg.a(libc_a-memset.o)
 .debug_abbrev  0x0000000000006105      0x290 /tools/arm-gnu-toolchain-13.2.Rel1-x86_64-aarch64-none-elf/bin/../lib/gcc/aarch64-none-elf/13.2.1/../../../../aarch64-none-elf/lib/libg.a(libc_a-freer.o)
 .debug_abbrev  0x0000000000006395      0x24e /tools/arm-gnu-toolchain-13.2.Rel1-x86_64-aarch64-none-elf/bin/../lib/gcc/aarch64-none-elf/13.2.1/../../../../aarch64-none-elf/lib/libg.a(libc_a-stdio.o)
 .debug_abbrev  0x00000000000065e3      0x216 /tools/arm-gnu-toolchain-13.2.Rel1-x86_64-aarch64-none-elf/bin/../lib/gcc/aarch64-none-elf/13.2.1/../../../../aarch64-none-elf/lib/libg.a(libc_a-sbrkr.o)
 .debug_abbrev  0x00000000000067f9      0x1d9 /tools/arm-gnu-toolchain-13.2.Rel1-x86_64-aarch64-none-elf/bin/../lib/gcc/aarch64-none-elf/13.2.1/../../../../aarch64-none-elf/lib/libg.a(libc_a-fwalk.o)
 .debug_abbrev  0x00000000000069d2      0x1f1 /tools/arm-gnu-toolchain-13.2.Rel1-x86_64-aarch64-none-elf/bin/../lib/gcc/aarch64-none-elf/13.2.1/../../../../aarch64-none-elf/lib/libg.a(libc_a-writer.o)
 .debug_abbrev  0x0000000000006bc3      0x4d4 /tools/arm-gnu-toolchain-13.2.Rel1-x86_64-aarch64-none-elf/bin/../lib/gcc/aarch64-none-elf/13.2.1/../../../../aarch64-none-elf/lib/libg.a(libc_a-vfprintf.o)
 .debug_abbrev  0x0000000000007097      0x4b3 /tools/arm-gnu-toolchain-13.2.Rel1-x86_64-aarch64-none-elf/bin/../lib/gcc/aarch64-none-elf/13.2.1/../../../../aarch64-none-elf/lib/libg.a(libc_a-vfiprintf.o)
 .debug_abbrev  0x000000000000754a      0x2d7 /tools/arm-gnu-toolchain-13.2.Rel1-x86_64-aarch64-none-elf/bin/../lib/gcc/aarch64-none-elf/13.2.1/../../../../aarch64-none-elf/lib/libg.a(libc_a-mallocr.o)
 .debug_abbrev  0x0000000000007821      0x254 /tools/arm-gnu-toolchain-13.2.Rel1-x86_64-aarch64-none-elf/bin/../lib/gcc/aarch64-none-elf/13.2.1/../../../../aarch64-none-elf/lib/libg.a(libc_a-wcrtomb.o)
 .debug_abbrev  0x0000000000007a75      0x115 /tools/arm-gnu-toolchain-13.2.Rel1-x86_64-aarch64-none-elf/bin/../lib/gcc/aarch64-none-elf/13.2.1/../../../../aarch64-none-elf/lib/libg.a(libc_a-lock.o)
 .debug_abbrev  0x0000000000007b8a      0x3c4 /tools/arm-gnu-toolchain-13.2.Rel1-x86_64-aarch64-none-elf/bin/../lib/gcc/aarch64-none-elf/13.2.1/../../../../aarch64-none-elf/lib/libg.a(libc_a-locale.o)
 .debug_abbrev  0x0000000000007f4e      0x285 /tools/arm-gnu-toolchain-13.2.Rel1-x86_64-aarch64-none-elf/bin/../lib/gcc/aarch64-none-elf/13.2.1/../../../../aarch64-none-elf/lib/libg.a(libc_a-localeconv.o)
 .debug_abbrev  0x00000000000081d3      0x2a2 /tools/arm-gnu-toolchain-13.2.Rel1-x86_64-aarch64-none-elf/bin/../lib/gcc/aarch64-none-elf/13.2.1/../../../../aarch64-none-elf/lib/libg.a(libc_a-fclose.o)
 .debug_abbrev  0x0000000000008475       0x28 /tools/arm-gnu-toolchain-13.2.Rel1-x86_64-aarch64-none-elf/bin/../lib/gcc/aarch64-none-elf/13.2.1/../../../../aarch64-none-elf/lib/libg.a(libc_a-memchr.o)
 .debug_abbrev  0x000000000000849d      0x21e /tools/arm-gnu-toolchain-13.2.Rel1-x86_64-aarch64-none-elf/bin/../lib/gcc/aarch64-none-elf/13.2.1/../../../../aarch64-none-elf/lib/libg.a(libc_a-wsetup.o)
 .debug_abbrev  0x00000000000086bb      0x2c1 /tools/arm-gnu-toolchain-13.2.Rel1-x86_64-aarch64-none-elf/bin/../lib/gcc/aarch64-none-elf/13.2.1/../../../../aarch64-none-elf/lib/libg.a(libc_a-makebuf.o)
 .debug_abbrev  0x000000000000897c      0x28b /tools/arm-gnu-toolchain-13.2.Rel1-x86_64-aarch64-none-elf/bin/../lib/gcc/aarch64-none-elf/13.2.1/../../../../aarch64-none-elf/lib/libg.a(libc_a-putc.o)
 .debug_abbrev  0x0000000000008c07      0x1fb /tools/arm-gnu-toolchain-13.2.Rel1-x86_64-aarch64-none-elf/bin/../lib/gcc/aarch64-none-elf/13.2.1/../../../../aarch64-none-elf/lib/libg.a(libc_a-mlock.o)
 .debug_abbrev  0x0000000000008e02      0x1ff /tools/arm-gnu-toolchain-13.2.Rel1-x86_64-aarch64-none-elf/bin/../lib/gcc/aarch64-none-elf/13.2.1/../../../../aarch64-none-elf/lib/libg.a(libc_a-wcsrtombs.o)
 .debug_abbrev  0x0000000000009001      0x342 /tools/arm-gnu-toolchain-13.2.Rel1-x86_64-aarch64-none-elf/bin/../lib/gcc/aarch64-none-elf/13.2.1/../../../../aarch64-none-elf/lib/libg.a(libc_a-dtoa.o)
 .debug_abbrev  0x0000000000009343      0x20c /tools/arm-gnu-toolchain-13.2.Rel1-x86_64-aarch64-none-elf/bin/../lib/gcc/aarch64-none-elf/13.2.1/../../../../aarch64-none-elf/lib/libg.a(libc_a-ctype_.o)
 .debug_abbrev  0x000000000000954f      0x1ec /tools/arm-gnu-toolchain-13.2.Rel1-x86_64-aarch64-none-elf/bin/../lib/gcc/aarch64-none-elf/13.2.1/../../../../aarch64-none-elf/lib/libg.a(libc_a-closer.o)
 .debug_abbrev  0x000000000000973b      0x317 /tools/arm-gnu-toolchain-13.2.Rel1-x86_64-aarch64-none-elf/bin/../lib/gcc/aarch64-none-elf/13.2.1/../../../../aarch64-none-elf/lib/libg.a(libc_a-fflush.o)
 .debug_abbrev  0x0000000000009a52      0x150 /tools/arm-gnu-toolchain-13.2.Rel1-x86_64-aarch64-none-elf/bin/../lib/gcc/aarch64-none-elf/13.2.1/../../../../aarch64-none-elf/lib/libg.a(libm_a-s_frexp.o)
 .debug_abbrev  0x0000000000009ba2       0xa3 /tools/arm-gnu-toolchain-13.2.Rel1-x86_64-aarch64-none-elf/bin/../lib/gcc/aarch64-none-elf/13.2.1/../../../../aarch64-none-elf/lib/libg.a(libc_a-strlcpy.o)
 .debug_abbrev  0x0000000000009c45      0x335 /tools/arm-gnu-toolchain-13.2.Rel1-x86_64-aarch64-none-elf/bin/../lib/gcc/aarch64-none-elf/13.2.1/../../../../aarch64-none-elf/lib/libg.a(libc_a-strtol.o)
 .debug_abbrev  0x0000000000009f7a       0xd0 /tools/arm-gnu-toolchain-13.2.Rel1-x86_64-aarch64-none-elf/bin/../lib/gcc/aarch64-none-elf/13.2.1/../../../../aarch64-none-elf/lib/libg.a(libc_a-strncasecmp.o)
 .debug_abbrev  0x000000000000a04a      0x233 /tools/arm-gnu-toolchain-13.2.Rel1-x86_64-aarch64-none-elf/bin/../lib/gcc/aarch64-none-elf/13.2.1/../../../../aarch64-none-elf/lib/libg.a(libc_a-getenv_r.o)
 .debug_abbrev  0x000000000000a27d       0xbe /tools/arm-gnu-toolchain-13.2.Rel1-x86_64-aarch64-none-elf/bin/../lib/gcc/aarch64-none-elf/13.2.1/../../../../aarch64-none-elf/lib/libg.a(libc_a-strncpy.o)
 .debug_abbrev  0x000000000000a33b      0x1ff /tools/arm-gnu-toolchain-13.2.Rel1-x86_64-aarch64-none-elf/bin/../lib/gcc/aarch64-none-elf/13.2.1/../../../../aarch64-none-elf/lib/libg.a(libc_a-fstatr.o)
 .debug_abbrev  0x000000000000a53a      0x1ec /tools/arm-gnu-toolchain-13.2.Rel1-x86_64-aarch64-none-elf/bin/../lib/gcc/aarch64-none-elf/13.2.1/../../../../aarch64-none-elf/lib/libg.a(libc_a-isattyr.o)
 .debug_abbrev  0x000000000000a726      0x200 /tools/arm-gnu-toolchain-13.2.Rel1-x86_64-aarch64-none-elf/bin/../lib/gcc/aarch64-none-elf/13.2.1/../../../../aarch64-none-elf/lib/libg.a(libc_a-lseekr.o)
 .debug_abbrev  0x000000000000a926      0x1ec /tools/arm-gnu-toolchain-13.2.Rel1-x86_64-aarch64-none-elf/bin/../lib/gcc/aarch64-none-elf/13.2.1/../../../../aarch64-none-elf/lib/libg.a(libc_a-readr.o)
 .debug_abbrev  0x000000000000ab12       0x28 /tools/arm-gnu-toolchain-13.2.Rel1-x86_64-aarch64-none-elf/bin/../lib/gcc/aarch64-none-elf/13.2.1/../../../../aarch64-none-elf/lib/libg.a(libc_a-strchr.o)
 .debug_abbrev  0x000000000000ab3a       0x28 /tools/arm-gnu-toolchain-13.2.Rel1-x86_64-aarch64-none-elf/bin/../lib/gcc/aarch64-none-elf/13.2.1/../../../../aarch64-none-elf/lib/libg.a(libc_a-strcmp.o)
 .debug_abbrev  0x000000000000ab62       0x28 /tools/arm-gnu-toolchain-13.2.Rel1-x86_64-aarch64-none-elf/bin/../lib/gcc/aarch64-none-elf/13.2.1/../../../../aarch64-none-elf/lib/libg.a(libc_a-strcpy.o)
 .debug_abbrev  0x000000000000ab8a      0x337 /tools/arm-gnu-toolchain-13.2.Rel1-x86_64-aarch64-none-elf/bin/../lib/gcc/aarch64-none-elf/13.2.1/../../../../aarch64-none-elf/lib/libg.a(libc_a-fputwc.o)
 .debug_abbrev  0x000000000000aec1      0x287 /tools/arm-gnu-toolchain-13.2.Rel1-x86_64-aarch64-none-elf/bin/../lib/gcc/aarch64-none-elf/13.2.1/../../../../aarch64-none-elf/lib/libg.a(libc_a-wctomb_r.o)
 .debug_abbrev  0x000000000000b148      0x254 /tools/arm-gnu-toolchain-13.2.Rel1-x86_64-aarch64-none-elf/bin/../lib/gcc/aarch64-none-elf/13.2.1/../../../../aarch64-none-elf/lib/libg.a(libc_a-fvwrite.o)
 .debug_abbrev  0x000000000000b39c       0x28 /tools/arm-gnu-toolchain-13.2.Rel1-x86_64-aarch64-none-elf/bin/../lib/gcc/aarch64-none-elf/13.2.1/../../../../aarch64-none-elf/lib/libg.a(libc_a-strncmp.o)
 .debug_abbrev  0x000000000000b3c4      0x272 /tools/arm-gnu-toolchain-13.2.Rel1-x86_64-aarch64-none-elf/bin/../lib/gcc/aarch64-none-elf/13.2.1/../../../../aarch64-none-elf/lib/libg.a(libc_a-wbuf.o)
 .debug_abbrev  0x000000000000b636      0x34d /tools/arm-gnu-toolchain-13.2.Rel1-x86_64-aarch64-none-elf/bin/../lib/gcc/aarch64-none-elf/13.2.1/../../../../aarch64-none-elf/lib/libg.a(libc_a-mbtowc_r.o)
 .debug_abbrev  0x000000000000b983      0x226 /tools/arm-gnu-toolchain-13.2.Rel1-x86_64-aarch64-none-elf/bin/../lib/gcc/aarch64-none-elf/13.2.1/../../../../aarch64-none-elf/lib/libg.a(libc_a-assert.o)
 .debug_abbrev  0x000000000000bba9       0xb2 /tools/arm-gnu-toolchain-13.2.Rel1-x86_64-aarch64-none-elf/bin/../lib/gcc/aarch64-none-elf/13.2.1/../../../../aarch64-none-elf/lib/libg.a(libc_a-strcasecmp.o)
 .debug_abbrev  0x000000000000bc5b       0xce /tools/arm-gnu-toolchain-13.2.Rel1-x86_64-aarch64-none-elf/bin/../lib/gcc/aarch64-none-elf/13.2.1/../../../../aarch64-none-elf/lib/libg.a(libc_a-strcat.o)
 .debug_abbrev  0x000000000000bd29      0x503 /tools/arm-gnu-toolchain-13.2.Rel1-x86_64-aarch64-none-elf/bin/../lib/gcc/aarch64-none-elf/13.2.1/../../../../aarch64-none-elf/lib/libg.a(libc_a-mprec.o)
 .debug_abbrev  0x000000000000c22c      0x25b /tools/arm-gnu-toolchain-13.2.Rel1-x86_64-aarch64-none-elf/bin/../lib/gcc/aarch64-none-elf/13.2.1/../../../../aarch64-none-elf/lib/libg.a(libc_a-callocr.o)
 .debug_abbrev  0x000000000000c487      0x2a1 /tools/arm-gnu-toolchain-13.2.Rel1-x86_64-aarch64-none-elf/bin/../lib/gcc/aarch64-none-elf/13.2.1/../../../../aarch64-none-elf/lib/libg.a(libc_a-wcsnrtombs.o)
 .debug_abbrev  0x000000000000c728       0x5b /tools/arm-gnu-toolchain-13.2.Rel1-x86_64-aarch64-none-elf/bin/../lib/gcc/aarch64-none-elf/13.2.1/../../../../aarch64-none-elf/lib/libg.a(libc_a-environ.o)
 .debug_abbrev  0x000000000000c783      0x2a3 /tools/arm-gnu-toolchain-13.2.Rel1-x86_64-aarch64-none-elf/bin/../lib/gcc/aarch64-none-elf/13.2.1/../../../../aarch64-none-elf/lib/libg.a(libc_a-reallocr.o)
 .debug_abbrev  0x000000000000ca26      0x1fb /tools/arm-gnu-toolchain-13.2.Rel1-x86_64-aarch64-none-elf/bin/../lib/gcc/aarch64-none-elf/13.2.1/../../../../aarch64-none-elf/lib/libg.a(libc_a-envlock.o)
 .debug_abbrev  0x000000000000cc21      0x23f /tools/arm-gnu-toolchain-13.2.Rel1-x86_64-aarch64-none-elf/bin/../lib/gcc/aarch64-none-elf/13.2.1/../../../../aarch64-none-elf/lib/libg.a(libc_a-fiprintf.o)
 .debug_abbrev  0x000000000000ce60       0x99 /tools/arm-gnu-toolchain-13.2.Rel1-x86_64-aarch64-none-elf/bin/../lib/gcc/aarch64-none-elf/13.2.1/../../../../aarch64-none-elf/lib/libg.a(libc_a-abort.o)
 .debug_abbrev  0x000000000000cef9      0x30c /tools/arm-gnu-toolchain-13.2.Rel1-x86_64-aarch64-none-elf/bin/../lib/gcc/aarch64-none-elf/13.2.1/../../../../aarch64-none-elf/lib/libg.a(libc_a-signal.o)
 .debug_abbrev  0x000000000000d205      0x239 /tools/arm-gnu-toolchain-13.2.Rel1-x86_64-aarch64-none-elf/bin/../lib/gcc/aarch64-none-elf/13.2.1/../../../../aarch64-none-elf/lib/libg.a(libc_a-signalr.o)
 .debug_abbrev  0x000000000000d43e      0x183 /tools/arm-gnu-toolchain-13.2.Rel1-x86_64-aarch64-none-elf/bin/../lib/gcc/aarch64-none-elf/13.2.1/libgcc.a(trunctfdf2.o)
 .debug_abbrev  0x000000000000d5c1       0x82 /tools/arm-gnu-toolchain-13.2.Rel1-x86_64-aarch64-none-elf/bin/../lib/gcc/aarch64-none-elf/13.2.1/libgcc.a(sfp-exceptions.o)

.debug_loclists
                0x0000000000000000    0x22448
 .debug_loclists
                0x0000000000000000       0x82 CMakeFiles/freertos_kernel.elf.dir/main_cp1.c.o
 .debug_loclists
                0x0000000000000082       0x89 gloss/CMakeFiles/freedom_metal.dir/freedom_metal.c.o
 .debug_loclists
                0x000000000000010b       0x30 gloss/CMakeFiles/freedom_metal.dir/nanosleep.c.o
 .debug_loclists
                0x000000000000013b       0x30 gloss/CMakeFiles/freedom_metal.dir/sys_access.c.o
 .debug_loclists
                0x000000000000016b       0x1e gloss/CMakeFiles/freedom_metal.dir/sys_chdir.c.o
 .debug_loclists
                0x0000000000000189       0x30 gloss/CMakeFiles/freedom_metal.dir/sys_chmod.c.o
 .debug_loclists
                0x00000000000001b9       0x42 gloss/CMakeFiles/freedom_metal.dir/sys_chown.c.o
 .debug_loclists
                0x00000000000001fb       0x32 gloss/CMakeFiles/freedom_metal.dir/sys_clock_gettime.c.o
 .debug_loclists
                0x000000000000022d       0x1e gloss/CMakeFiles/freedom_metal.dir/sys_close.c.o
 .debug_loclists
                0x000000000000024b       0x42 gloss/CMakeFiles/freedom_metal.dir/sys_execve.c.o
 .debug_loclists
                0x000000000000028d       0x1e gloss/CMakeFiles/freedom_metal.dir/sys_exit.c.o
 .debug_loclists
                0x00000000000002ab       0x54 gloss/CMakeFiles/freedom_metal.dir/sys_faccessat.c.o
 .debug_loclists
                0x00000000000002ff       0x30 gloss/CMakeFiles/freedom_metal.dir/sys_fstat.c.o
 .debug_loclists
                0x000000000000032f       0x54 gloss/CMakeFiles/freedom_metal.dir/sys_fstatat.c.o
 .debug_loclists
                0x0000000000000383       0x1e gloss/CMakeFiles/freedom_metal.dir/sys_ftime.c.o
 .debug_loclists
                0x00000000000003a1       0x30 gloss/CMakeFiles/freedom_metal.dir/sys_getcwd.c.o
 .debug_loclists
                0x00000000000003d1       0x1b gloss/CMakeFiles/freedom_metal.dir/sys_getpid.c.o
 .debug_loclists
                0x00000000000003ec       0x57 gloss/CMakeFiles/freedom_metal.dir/sys_gettimeofday.c.o
 .debug_loclists
                0x0000000000000443       0x1e gloss/CMakeFiles/freedom_metal.dir/sys_isatty.c.o
 .debug_loclists
                0x0000000000000461       0x30 gloss/CMakeFiles/freedom_metal.dir/sys_kill.c.o
 .debug_loclists
                0x0000000000000491       0x30 gloss/CMakeFiles/freedom_metal.dir/sys_link.c.o
 .debug_loclists
                0x00000000000004c1       0x42 gloss/CMakeFiles/freedom_metal.dir/sys_lseek.c.o
 .debug_loclists
                0x0000000000000503       0x30 gloss/CMakeFiles/freedom_metal.dir/sys_lstat.c.o
 .debug_loclists
                0x0000000000000533       0x42 gloss/CMakeFiles/freedom_metal.dir/sys_open.c.o
 .debug_loclists
                0x0000000000000575       0x54 gloss/CMakeFiles/freedom_metal.dir/sys_openat.c.o
 .debug_loclists
                0x00000000000005c9       0x42 gloss/CMakeFiles/freedom_metal.dir/sys_read.c.o
 .debug_loclists
                0x000000000000060b       0x6a gloss/CMakeFiles/freedom_metal.dir/sys_sbrk.c.o
 .debug_loclists
                0x0000000000000675       0x1e gloss/CMakeFiles/freedom_metal.dir/sys_sysconf.c.o
 .debug_loclists
                0x0000000000000693       0x56 gloss/CMakeFiles/freedom_metal.dir/sys_times.c.o
 .debug_loclists
                0x00000000000006e9       0x1e gloss/CMakeFiles/freedom_metal.dir/sys_unlink.c.o
 .debug_loclists
                0x0000000000000707       0x30 gloss/CMakeFiles/freedom_metal.dir/sys_utime.c.o
 .debug_loclists
                0x0000000000000737       0x1e gloss/CMakeFiles/freedom_metal.dir/sys_wait.c.o
 .debug_loclists
                0x0000000000000755       0xbc gloss/CMakeFiles/freedom_metal.dir/sys_write.c.o
 .debug_loclists
                0x0000000000000811      0x854 build/drivers/mailbox/CMakeFiles/mailbox.dir/mailbox.c.o
 .debug_loclists
                0x0000000000001065       0xfe build/drivers/mailbox/CMakeFiles/mailbox.dir/mailbox_cb.c.o
 .debug_loclists
                0x0000000000001163      0x1d2 build/drivers/pmu/CMakeFiles/pmu.dir/pmu.c.o
 .debug_loclists
                0x0000000000001335      0x438 build/drivers/timer/dw_apb_timer/CMakeFiles/dw_apb_timer.dir/dw_apb_timer.c.o
 .debug_loclists
                0x000000000000176d      0x433 build/drivers/qspi/qspi_apb/CMakeFiles/qspi_apb.dir/qspi_apb.c.o
 .debug_loclists
                0x0000000000001ba0       0xfb build/drivers/flash/CMakeFiles/flash.dir/mt25q_flash.c.o
 .debug_loclists
                0x0000000000001c9b     0x1c38 libfreertos_kernel.a(queue.c.o)
 .debug_loclists
                0x00000000000038d3     0x495c libfreertos_kernel.a(tasks.c.o)
 .debug_loclists
                0x000000000000822f      0xf6f libfreertos_kernel.a(timers.c.o)
 .debug_loclists
                0x000000000000919e      0x47e libfreertos_kernel.a(heap_4.c.o)
 .debug_loclists
                0x000000000000961c       0xc1 libfreertos_kernel.a(list.c.o)
 .debug_loclists
                0x00000000000096dd      0x58c portable/libfreertos_kernel_port.a(port.c.o)
 .debug_loclists
                0x0000000000009c69       0x70 build/drivers/common/libdriver.a(driver.c.o)
 .debug_loclists
                0x0000000000009cd9       0xc5 build/drivers/common/libassert.a(assert.c.o)
 .debug_loclists
                0x0000000000009d9e      0x13e build/drivers/common/libinterrupt.a(interrupt.c.o)
 .debug_loclists
                0x0000000000009edc      0xe3e build/drivers/intc/libintc.a(gicv3.c.o)
 .debug_loclists
                0x000000000000ad1a      0x19d build/drivers/intc/libintc.a(bakery_lock.c.o)
 .debug_loclists
                0x000000000000aeb7       0x3d portable/libfreertos_arch.a(prep_c.c.o)
 .debug_loclists
                0x000000000000aef4       0x80 libfreertos_kernel_config.a(FreeRTOS_tick_config.c.o)
 .debug_loclists
                0x000000000000af74       0x97 portable/libsmp.a(smp.c.o)
 .debug_loclists
                0x000000000000b00b       0x78 build/common/arch/libcommon.a(printf.c.o)
 .debug_loclists
                0x000000000000b083       0xb9 build/drivers/psci/libpsci.a(psci.c.o)
 .debug_loclists
                0x000000000000b13c     0x1a08 portable/libmmu.a(mmu.c.o)
 .debug_loclists
                0x000000000000cb44      0x14f build/drivers/timer/generic_timer/libgeneric_timer.a(generic_timer.c.o)
 .debug_loclists
                0x000000000000cc93       0x99 /tools/arm-gnu-toolchain-13.2.Rel1-x86_64-aarch64-none-elf/bin/../lib/gcc/aarch64-none-elf/13.2.1/../../../../aarch64-none-elf/lib/libg.a(libc_a-printf.o)
 .debug_loclists
                0x000000000000cd2c       0x73 /tools/arm-gnu-toolchain-13.2.Rel1-x86_64-aarch64-none-elf/bin/../lib/gcc/aarch64-none-elf/13.2.1/../../../../aarch64-none-elf/lib/libg.a(libc_a-putchar.o)
 .debug_loclists
                0x000000000000cd9f       0xa5 /tools/arm-gnu-toolchain-13.2.Rel1-x86_64-aarch64-none-elf/bin/../lib/gcc/aarch64-none-elf/13.2.1/../../../../aarch64-none-elf/lib/libg.a(libc_a-reent.o)
 .debug_loclists
                0x000000000000ce44      0x2c5 /tools/arm-gnu-toolchain-13.2.Rel1-x86_64-aarch64-none-elf/bin/../lib/gcc/aarch64-none-elf/13.2.1/../../../../aarch64-none-elf/lib/libg.a(libc_a-findfp.o)
 .debug_loclists
                0x000000000000d109      0x47a /tools/arm-gnu-toolchain-13.2.Rel1-x86_64-aarch64-none-elf/bin/../lib/gcc/aarch64-none-elf/13.2.1/../../../../aarch64-none-elf/lib/libg.a(libc_a-freer.o)
 .debug_loclists
                0x000000000000d583      0x303 /tools/arm-gnu-toolchain-13.2.Rel1-x86_64-aarch64-none-elf/bin/../lib/gcc/aarch64-none-elf/13.2.1/../../../../aarch64-none-elf/lib/libg.a(libc_a-stdio.o)
 .debug_loclists
                0x000000000000d886       0x69 /tools/arm-gnu-toolchain-13.2.Rel1-x86_64-aarch64-none-elf/bin/../lib/gcc/aarch64-none-elf/13.2.1/../../../../aarch64-none-elf/lib/libg.a(libc_a-sbrkr.o)
 .debug_loclists
                0x000000000000d8ef       0xc9 /tools/arm-gnu-toolchain-13.2.Rel1-x86_64-aarch64-none-elf/bin/../lib/gcc/aarch64-none-elf/13.2.1/../../../../aarch64-none-elf/lib/libg.a(libc_a-fwalk.o)
 .debug_loclists
                0x000000000000d9b8       0xad /tools/arm-gnu-toolchain-13.2.Rel1-x86_64-aarch64-none-elf/bin/../lib/gcc/aarch64-none-elf/13.2.1/../../../../aarch64-none-elf/lib/libg.a(libc_a-writer.o)
 .debug_loclists
                0x000000000000da65     0x568a /tools/arm-gnu-toolchain-13.2.Rel1-x86_64-aarch64-none-elf/bin/../lib/gcc/aarch64-none-elf/13.2.1/../../../../aarch64-none-elf/lib/libg.a(libc_a-vfprintf.o)
 .debug_loclists
                0x00000000000130ef     0x380a /tools/arm-gnu-toolchain-13.2.Rel1-x86_64-aarch64-none-elf/bin/../lib/gcc/aarch64-none-elf/13.2.1/../../../../aarch64-none-elf/lib/libg.a(libc_a-vfiprintf.o)
 .debug_loclists
                0x00000000000168f9      0xb3b /tools/arm-gnu-toolchain-13.2.Rel1-x86_64-aarch64-none-elf/bin/../lib/gcc/aarch64-none-elf/13.2.1/../../../../aarch64-none-elf/lib/libg.a(libc_a-mallocr.o)
 .debug_loclists
                0x0000000000017434      0x20d /tools/arm-gnu-toolchain-13.2.Rel1-x86_64-aarch64-none-elf/bin/../lib/gcc/aarch64-none-elf/13.2.1/../../../../aarch64-none-elf/lib/libg.a(libc_a-wcrtomb.o)
 .debug_loclists
                0x0000000000017641       0x27 /tools/arm-gnu-toolchain-13.2.Rel1-x86_64-aarch64-none-elf/bin/../lib/gcc/aarch64-none-elf/13.2.1/../../../../aarch64-none-elf/lib/libg.a(libc_a-lock.o)
 .debug_loclists
                0x0000000000017668      0xa61 /tools/arm-gnu-toolchain-13.2.Rel1-x86_64-aarch64-none-elf/bin/../lib/gcc/aarch64-none-elf/13.2.1/../../../../aarch64-none-elf/lib/libg.a(libc_a-locale.o)
 .debug_loclists
                0x00000000000180c9       0x5d /tools/arm-gnu-toolchain-13.2.Rel1-x86_64-aarch64-none-elf/bin/../lib/gcc/aarch64-none-elf/13.2.1/../../../../aarch64-none-elf/lib/libg.a(libc_a-localeconv.o)
 .debug_loclists
                0x0000000000018126      0x167 /tools/arm-gnu-toolchain-13.2.Rel1-x86_64-aarch64-none-elf/bin/../lib/gcc/aarch64-none-elf/13.2.1/../../../../aarch64-none-elf/lib/libg.a(libc_a-fclose.o)
 .debug_loclists
                0x000000000001828d       0x7a /tools/arm-gnu-toolchain-13.2.Rel1-x86_64-aarch64-none-elf/bin/../lib/gcc/aarch64-none-elf/13.2.1/../../../../aarch64-none-elf/lib/libg.a(libc_a-wsetup.o)
 .debug_loclists
                0x0000000000018307      0x301 /tools/arm-gnu-toolchain-13.2.Rel1-x86_64-aarch64-none-elf/bin/../lib/gcc/aarch64-none-elf/13.2.1/../../../../aarch64-none-elf/lib/libg.a(libc_a-makebuf.o)
 .debug_loclists
                0x0000000000018608      0x32e /tools/arm-gnu-toolchain-13.2.Rel1-x86_64-aarch64-none-elf/bin/../lib/gcc/aarch64-none-elf/13.2.1/../../../../aarch64-none-elf/lib/libg.a(libc_a-putc.o)
 .debug_loclists
                0x0000000000018936       0x42 /tools/arm-gnu-toolchain-13.2.Rel1-x86_64-aarch64-none-elf/bin/../lib/gcc/aarch64-none-elf/13.2.1/../../../../aarch64-none-elf/lib/libg.a(libc_a-mlock.o)
 .debug_loclists
                0x0000000000018978      0x130 /tools/arm-gnu-toolchain-13.2.Rel1-x86_64-aarch64-none-elf/bin/../lib/gcc/aarch64-none-elf/13.2.1/../../../../aarch64-none-elf/lib/libg.a(libc_a-wcsrtombs.o)
 .debug_loclists
                0x0000000000018aa8     0x24b6 /tools/arm-gnu-toolchain-13.2.Rel1-x86_64-aarch64-none-elf/bin/../lib/gcc/aarch64-none-elf/13.2.1/../../../../aarch64-none-elf/lib/libg.a(libc_a-dtoa.o)
 .debug_loclists
                0x000000000001af5e       0x49 /tools/arm-gnu-toolchain-13.2.Rel1-x86_64-aarch64-none-elf/bin/../lib/gcc/aarch64-none-elf/13.2.1/../../../../aarch64-none-elf/lib/libg.a(libc_a-ctype_.o)
 .debug_loclists
                0x000000000001afa7       0x69 /tools/arm-gnu-toolchain-13.2.Rel1-x86_64-aarch64-none-elf/bin/../lib/gcc/aarch64-none-elf/13.2.1/../../../../aarch64-none-elf/lib/libg.a(libc_a-closer.o)
 .debug_loclists
                0x000000000001b010      0x323 /tools/arm-gnu-toolchain-13.2.Rel1-x86_64-aarch64-none-elf/bin/../lib/gcc/aarch64-none-elf/13.2.1/../../../../aarch64-none-elf/lib/libg.a(libc_a-fflush.o)
 .debug_loclists
                0x000000000001b333       0xac /tools/arm-gnu-toolchain-13.2.Rel1-x86_64-aarch64-none-elf/bin/../lib/gcc/aarch64-none-elf/13.2.1/../../../../aarch64-none-elf/lib/libg.a(libm_a-s_frexp.o)
 .debug_loclists
                0x000000000001b3df       0xbf /tools/arm-gnu-toolchain-13.2.Rel1-x86_64-aarch64-none-elf/bin/../lib/gcc/aarch64-none-elf/13.2.1/../../../../aarch64-none-elf/lib/libg.a(libc_a-strlcpy.o)
 .debug_loclists
                0x000000000001b49e      0x7a0 /tools/arm-gnu-toolchain-13.2.Rel1-x86_64-aarch64-none-elf/bin/../lib/gcc/aarch64-none-elf/13.2.1/../../../../aarch64-none-elf/lib/libg.a(libc_a-strtol.o)
 .debug_loclists
                0x000000000001bc3e      0x208 /tools/arm-gnu-toolchain-13.2.Rel1-x86_64-aarch64-none-elf/bin/../lib/gcc/aarch64-none-elf/13.2.1/../../../../aarch64-none-elf/lib/libg.a(libc_a-strncasecmp.o)
 .debug_loclists
                0x000000000001be46      0x173 /tools/arm-gnu-toolchain-13.2.Rel1-x86_64-aarch64-none-elf/bin/../lib/gcc/aarch64-none-elf/13.2.1/../../../../aarch64-none-elf/lib/libg.a(libc_a-getenv_r.o)
 .debug_loclists
                0x000000000001bfb9      0x131 /tools/arm-gnu-toolchain-13.2.Rel1-x86_64-aarch64-none-elf/bin/../lib/gcc/aarch64-none-elf/13.2.1/../../../../aarch64-none-elf/lib/libg.a(libc_a-strncpy.o)
 .debug_loclists
                0x000000000001c0ea       0x8b /tools/arm-gnu-toolchain-13.2.Rel1-x86_64-aarch64-none-elf/bin/../lib/gcc/aarch64-none-elf/13.2.1/../../../../aarch64-none-elf/lib/libg.a(libc_a-fstatr.o)
 .debug_loclists
                0x000000000001c175       0x69 /tools/arm-gnu-toolchain-13.2.Rel1-x86_64-aarch64-none-elf/bin/../lib/gcc/aarch64-none-elf/13.2.1/../../../../aarch64-none-elf/lib/libg.a(libc_a-isattyr.o)
 .debug_loclists
                0x000000000001c1de       0xad /tools/arm-gnu-toolchain-13.2.Rel1-x86_64-aarch64-none-elf/bin/../lib/gcc/aarch64-none-elf/13.2.1/../../../../aarch64-none-elf/lib/libg.a(libc_a-lseekr.o)
 .debug_loclists
                0x000000000001c28b       0xad /tools/arm-gnu-toolchain-13.2.Rel1-x86_64-aarch64-none-elf/bin/../lib/gcc/aarch64-none-elf/13.2.1/../../../../aarch64-none-elf/lib/libg.a(libc_a-readr.o)
 .debug_loclists
                0x000000000001c338      0x37f /tools/arm-gnu-toolchain-13.2.Rel1-x86_64-aarch64-none-elf/bin/../lib/gcc/aarch64-none-elf/13.2.1/../../../../aarch64-none-elf/lib/libg.a(libc_a-fputwc.o)
 .debug_loclists
                0x000000000001c6b7      0x768 /tools/arm-gnu-toolchain-13.2.Rel1-x86_64-aarch64-none-elf/bin/../lib/gcc/aarch64-none-elf/13.2.1/../../../../aarch64-none-elf/lib/libg.a(libc_a-wctomb_r.o)
 .debug_loclists
                0x000000000001ce1f      0x538 /tools/arm-gnu-toolchain-13.2.Rel1-x86_64-aarch64-none-elf/bin/../lib/gcc/aarch64-none-elf/13.2.1/../../../../aarch64-none-elf/lib/libg.a(libc_a-fvwrite.o)
 .debug_loclists
                0x000000000001d357      0x155 /tools/arm-gnu-toolchain-13.2.Rel1-x86_64-aarch64-none-elf/bin/../lib/gcc/aarch64-none-elf/13.2.1/../../../../aarch64-none-elf/lib/libg.a(libc_a-wbuf.o)
 .debug_loclists
                0x000000000001d4ac      0xb24 /tools/arm-gnu-toolchain-13.2.Rel1-x86_64-aarch64-none-elf/bin/../lib/gcc/aarch64-none-elf/13.2.1/../../../../aarch64-none-elf/lib/libg.a(libc_a-mbtowc_r.o)
 .debug_loclists
                0x000000000001dfd0      0x119 /tools/arm-gnu-toolchain-13.2.Rel1-x86_64-aarch64-none-elf/bin/../lib/gcc/aarch64-none-elf/13.2.1/../../../../aarch64-none-elf/lib/libg.a(libc_a-assert.o)
 .debug_loclists
                0x000000000001e0e9      0x1f4 /tools/arm-gnu-toolchain-13.2.Rel1-x86_64-aarch64-none-elf/bin/../lib/gcc/aarch64-none-elf/13.2.1/../../../../aarch64-none-elf/lib/libg.a(libc_a-strcasecmp.o)
 .debug_loclists
                0x000000000001e2dd       0x96 /tools/arm-gnu-toolchain-13.2.Rel1-x86_64-aarch64-none-elf/bin/../lib/gcc/aarch64-none-elf/13.2.1/../../../../aarch64-none-elf/lib/libg.a(libc_a-strcat.o)
 .debug_loclists
                0x000000000001e373     0x1d29 /tools/arm-gnu-toolchain-13.2.Rel1-x86_64-aarch64-none-elf/bin/../lib/gcc/aarch64-none-elf/13.2.1/../../../../aarch64-none-elf/lib/libg.a(libc_a-mprec.o)
 .debug_loclists
                0x000000000002009c      0x1b3 /tools/arm-gnu-toolchain-13.2.Rel1-x86_64-aarch64-none-elf/bin/../lib/gcc/aarch64-none-elf/13.2.1/../../../../aarch64-none-elf/lib/libg.a(libc_a-callocr.o)
 .debug_loclists
                0x000000000002024f      0x5bd /tools/arm-gnu-toolchain-13.2.Rel1-x86_64-aarch64-none-elf/bin/../lib/gcc/aarch64-none-elf/13.2.1/../../../../aarch64-none-elf/lib/libg.a(libc_a-wcsnrtombs.o)
 .debug_loclists
                0x000000000002080c      0xc81 /tools/arm-gnu-toolchain-13.2.Rel1-x86_64-aarch64-none-elf/bin/../lib/gcc/aarch64-none-elf/13.2.1/../../../../aarch64-none-elf/lib/libg.a(libc_a-reallocr.o)
 .debug_loclists
                0x000000000002148d       0x42 /tools/arm-gnu-toolchain-13.2.Rel1-x86_64-aarch64-none-elf/bin/../lib/gcc/aarch64-none-elf/13.2.1/../../../../aarch64-none-elf/lib/libg.a(libc_a-envlock.o)
 .debug_loclists
                0x00000000000214cf       0xbf /tools/arm-gnu-toolchain-13.2.Rel1-x86_64-aarch64-none-elf/bin/../lib/gcc/aarch64-none-elf/13.2.1/../../../../aarch64-none-elf/lib/libg.a(libc_a-fiprintf.o)
 .debug_loclists
                0x000000000002158e      0x79a /tools/arm-gnu-toolchain-13.2.Rel1-x86_64-aarch64-none-elf/bin/../lib/gcc/aarch64-none-elf/13.2.1/../../../../aarch64-none-elf/lib/libg.a(libc_a-signal.o)
 .debug_loclists
                0x0000000000021d28       0xa6 /tools/arm-gnu-toolchain-13.2.Rel1-x86_64-aarch64-none-elf/bin/../lib/gcc/aarch64-none-elf/13.2.1/../../../../aarch64-none-elf/lib/libg.a(libc_a-signalr.o)
 .debug_loclists
                0x0000000000021dce      0x653 /tools/arm-gnu-toolchain-13.2.Rel1-x86_64-aarch64-none-elf/bin/../lib/gcc/aarch64-none-elf/13.2.1/libgcc.a(trunctfdf2.o)
 .debug_loclists
                0x0000000000022421       0x27 /tools/arm-gnu-toolchain-13.2.Rel1-x86_64-aarch64-none-elf/bin/../lib/gcc/aarch64-none-elf/13.2.1/libgcc.a(sfp-exceptions.o)

.debug_aranges  0x0000000000000000     0x2560
 .debug_aranges
                0x0000000000000000       0x30 CMakeFiles/freertos_kernel.elf.dir/main_cp1.c.o
 .debug_aranges
                0x0000000000000030       0x30 gloss/CMakeFiles/freedom_metal.dir/freedom_metal.c.o
 .debug_aranges
                0x0000000000000060       0x30 gloss/CMakeFiles/freedom_metal.dir/nanosleep.c.o
 .debug_aranges
                0x0000000000000090       0x30 gloss/CMakeFiles/freedom_metal.dir/sys_access.c.o
 .debug_aranges
                0x00000000000000c0       0x30 gloss/CMakeFiles/freedom_metal.dir/sys_chdir.c.o
 .debug_aranges
                0x00000000000000f0       0x30 gloss/CMakeFiles/freedom_metal.dir/sys_chmod.c.o
 .debug_aranges
                0x0000000000000120       0x30 gloss/CMakeFiles/freedom_metal.dir/sys_chown.c.o
 .debug_aranges
                0x0000000000000150       0x30 gloss/CMakeFiles/freedom_metal.dir/sys_clock_gettime.c.o
 .debug_aranges
                0x0000000000000180       0x30 gloss/CMakeFiles/freedom_metal.dir/sys_close.c.o
 .debug_aranges
                0x00000000000001b0       0x30 gloss/CMakeFiles/freedom_metal.dir/sys_execve.c.o
 .debug_aranges
                0x00000000000001e0       0x30 gloss/CMakeFiles/freedom_metal.dir/sys_exit.c.o
 .debug_aranges
                0x0000000000000210       0x30 gloss/CMakeFiles/freedom_metal.dir/sys_faccessat.c.o
 .debug_aranges
                0x0000000000000240       0x30 gloss/CMakeFiles/freedom_metal.dir/sys_fork.c.o
 .debug_aranges
                0x0000000000000270       0x30 gloss/CMakeFiles/freedom_metal.dir/sys_fstat.c.o
 .debug_aranges
                0x00000000000002a0       0x30 gloss/CMakeFiles/freedom_metal.dir/sys_fstatat.c.o
 .debug_aranges
                0x00000000000002d0       0x30 gloss/CMakeFiles/freedom_metal.dir/sys_ftime.c.o
 .debug_aranges
                0x0000000000000300       0x30 gloss/CMakeFiles/freedom_metal.dir/sys_getcwd.c.o
 .debug_aranges
                0x0000000000000330       0x30 gloss/CMakeFiles/freedom_metal.dir/sys_getpid.c.o
 .debug_aranges
                0x0000000000000360       0x30 gloss/CMakeFiles/freedom_metal.dir/sys_gettimeofday.c.o
 .debug_aranges
                0x0000000000000390       0x30 gloss/CMakeFiles/freedom_metal.dir/sys_isatty.c.o
 .debug_aranges
                0x00000000000003c0       0x30 gloss/CMakeFiles/freedom_metal.dir/sys_kill.c.o
 .debug_aranges
                0x00000000000003f0       0x30 gloss/CMakeFiles/freedom_metal.dir/sys_link.c.o
 .debug_aranges
                0x0000000000000420       0x30 gloss/CMakeFiles/freedom_metal.dir/sys_lseek.c.o
 .debug_aranges
                0x0000000000000450       0x30 gloss/CMakeFiles/freedom_metal.dir/sys_lstat.c.o
 .debug_aranges
                0x0000000000000480       0x30 gloss/CMakeFiles/freedom_metal.dir/sys_open.c.o
 .debug_aranges
                0x00000000000004b0       0x30 gloss/CMakeFiles/freedom_metal.dir/sys_openat.c.o
 .debug_aranges
                0x00000000000004e0       0x30 gloss/CMakeFiles/freedom_metal.dir/sys_read.c.o
 .debug_aranges
                0x0000000000000510       0x30 gloss/CMakeFiles/freedom_metal.dir/sys_sbrk.c.o
 .debug_aranges
                0x0000000000000540       0x30 gloss/CMakeFiles/freedom_metal.dir/sys_sysconf.c.o
 .debug_aranges
                0x0000000000000570       0x30 gloss/CMakeFiles/freedom_metal.dir/sys_times.c.o
 .debug_aranges
                0x00000000000005a0       0x30 gloss/CMakeFiles/freedom_metal.dir/sys_unlink.c.o
 .debug_aranges
                0x00000000000005d0       0x30 gloss/CMakeFiles/freedom_metal.dir/sys_utime.c.o
 .debug_aranges
                0x0000000000000600       0x30 gloss/CMakeFiles/freedom_metal.dir/sys_wait.c.o
 .debug_aranges
                0x0000000000000630       0x30 gloss/CMakeFiles/freedom_metal.dir/sys_write.c.o
 .debug_aranges
                0x0000000000000660       0x30 build/drivers/mailbox/CMakeFiles/mailbox.dir/mailbox.c.o
 .debug_aranges
                0x0000000000000690       0x30 build/drivers/mailbox/CMakeFiles/mailbox.dir/mailbox_cb.c.o
 .debug_aranges
                0x00000000000006c0       0x30 build/drivers/pmu/CMakeFiles/pmu.dir/pmu.c.o
 .debug_aranges
                0x00000000000006f0       0x30 build/drivers/timer/dw_apb_timer/CMakeFiles/dw_apb_timer.dir/dw_apb_timer.c.o
 .debug_aranges
                0x0000000000000720       0x30 build/drivers/qspi/qspi_apb/CMakeFiles/qspi_apb.dir/qspi_apb.c.o
 .debug_aranges
                0x0000000000000750       0x30 build/drivers/flash/CMakeFiles/flash.dir/mt25q_flash.c.o
 .debug_aranges
                0x0000000000000780      0x210 libfreertos_kernel.a(queue.c.o)
 .debug_aranges
                0x0000000000000990      0x450 libfreertos_kernel.a(tasks.c.o)
 .debug_aranges
                0x0000000000000de0      0x1a0 libfreertos_kernel.a(timers.c.o)
 .debug_aranges
                0x0000000000000f80       0x90 libfreertos_kernel.a(heap_4.c.o)
 .debug_aranges
                0x0000000000001010       0x70 libfreertos_kernel.a(list.c.o)
 .debug_aranges
                0x0000000000001080       0x60 portable/libfreertos_kernel_port.a(port.c.o)
 .debug_aranges
                0x00000000000010e0       0x30 build/drivers/common/libdriver.a(driver.c.o)
 .debug_aranges
                0x0000000000001110       0x30 build/drivers/common/libassert.a(assert.c.o)
 .debug_aranges
                0x0000000000001140       0x30 build/drivers/common/libinterrupt.a(interrupt.c.o)
 .debug_aranges
                0x0000000000001170       0x30 build/drivers/intc/libintc.a(gicv3.c.o)
 .debug_aranges
                0x00000000000011a0       0x30 build/drivers/intc/libintc.a(bakery_lock.c.o)
 .debug_aranges
                0x00000000000011d0       0x30 portable/libfreertos_arch.a(prep_c.c.o)
 .debug_aranges
                0x0000000000001200       0x30 libfreertos_kernel_config.a(FreeRTOS_tick_config.c.o)
 .debug_aranges
                0x0000000000001230       0x30 portable/libsmp.a(smp.c.o)
 .debug_aranges
                0x0000000000001260       0x30 build/common/arch/libcommon.a(printf.c.o)
 .debug_aranges
                0x0000000000001290       0x30 build/drivers/psci/libpsci.a(psci.c.o)
 .debug_aranges
                0x00000000000012c0       0x30 portable/libmmu.a(mmu.c.o)
 .debug_aranges
                0x00000000000012f0       0x30 build/drivers/timer/generic_timer/libgeneric_timer.a(generic_timer.c.o)
 .debug_aranges
                0x0000000000001320       0x30 /tools/arm-gnu-toolchain-13.2.Rel1-x86_64-aarch64-none-elf/bin/../lib/gcc/aarch64-none-elf/13.2.1/../../../../aarch64-none-elf/lib/libg.a(libc_a-strlen.o)
 .debug_aranges
                0x0000000000001350       0x30 /tools/arm-gnu-toolchain-13.2.Rel1-x86_64-aarch64-none-elf/bin/../lib/gcc/aarch64-none-elf/13.2.1/../../../../aarch64-none-elf/lib/libg.a(libc_a-errno.o)
 .debug_aranges
                0x0000000000001380       0x40 /tools/arm-gnu-toolchain-13.2.Rel1-x86_64-aarch64-none-elf/bin/../lib/gcc/aarch64-none-elf/13.2.1/../../../../aarch64-none-elf/lib/libg.a(libc_a-printf.o)
 .debug_aranges
                0x00000000000013c0       0x30 /tools/arm-gnu-toolchain-13.2.Rel1-x86_64-aarch64-none-elf/bin/../lib/gcc/aarch64-none-elf/13.2.1/../../../../aarch64-none-elf/lib/libg.a(libc_a-memcpy.o)
 .debug_aranges
                0x00000000000013f0       0x40 /tools/arm-gnu-toolchain-13.2.Rel1-x86_64-aarch64-none-elf/bin/../lib/gcc/aarch64-none-elf/13.2.1/../../../../aarch64-none-elf/lib/libg.a(libc_a-putchar.o)
 .debug_aranges
                0x0000000000001430       0x30 /tools/arm-gnu-toolchain-13.2.Rel1-x86_64-aarch64-none-elf/bin/../lib/gcc/aarch64-none-elf/13.2.1/../../../../aarch64-none-elf/lib/libg.a(libc_a-reent.o)
 .debug_aranges
                0x0000000000001460       0x20 /tools/arm-gnu-toolchain-13.2.Rel1-x86_64-aarch64-none-elf/bin/../lib/gcc/aarch64-none-elf/13.2.1/../../../../aarch64-none-elf/lib/libg.a(libc_a-impure.o)
 .debug_aranges
                0x0000000000001480       0xd0 /tools/arm-gnu-toolchain-13.2.Rel1-x86_64-aarch64-none-elf/bin/../lib/gcc/aarch64-none-elf/13.2.1/../../../../aarch64-none-elf/lib/libg.a(libc_a-findfp.o)
 .debug_aranges
                0x0000000000001550       0x30 /tools/arm-gnu-toolchain-13.2.Rel1-x86_64-aarch64-none-elf/bin/../lib/gcc/aarch64-none-elf/13.2.1/../../../../aarch64-none-elf/lib/libg.a(libc_a-memset.o)
 .debug_aranges
                0x0000000000001580       0x40 /tools/arm-gnu-toolchain-13.2.Rel1-x86_64-aarch64-none-elf/bin/../lib/gcc/aarch64-none-elf/13.2.1/../../../../aarch64-none-elf/lib/libg.a(libc_a-freer.o)
 .debug_aranges
                0x00000000000015c0       0x70 /tools/arm-gnu-toolchain-13.2.Rel1-x86_64-aarch64-none-elf/bin/../lib/gcc/aarch64-none-elf/13.2.1/../../../../aarch64-none-elf/lib/libg.a(libc_a-stdio.o)
 .debug_aranges
                0x0000000000001630       0x30 /tools/arm-gnu-toolchain-13.2.Rel1-x86_64-aarch64-none-elf/bin/../lib/gcc/aarch64-none-elf/13.2.1/../../../../aarch64-none-elf/lib/libg.a(libc_a-sbrkr.o)
 .debug_aranges
                0x0000000000001660       0x30 /tools/arm-gnu-toolchain-13.2.Rel1-x86_64-aarch64-none-elf/bin/../lib/gcc/aarch64-none-elf/13.2.1/../../../../aarch64-none-elf/lib/libg.a(libc_a-fwalk.o)
 .debug_aranges
                0x0000000000001690       0x30 /tools/arm-gnu-toolchain-13.2.Rel1-x86_64-aarch64-none-elf/bin/../lib/gcc/aarch64-none-elf/13.2.1/../../../../aarch64-none-elf/lib/libg.a(libc_a-writer.o)
 .debug_aranges
                0x00000000000016c0       0x50 /tools/arm-gnu-toolchain-13.2.Rel1-x86_64-aarch64-none-elf/bin/../lib/gcc/aarch64-none-elf/13.2.1/../../../../aarch64-none-elf/lib/libg.a(libc_a-vfprintf.o)
 .debug_aranges
                0x0000000000001710       0x70 /tools/arm-gnu-toolchain-13.2.Rel1-x86_64-aarch64-none-elf/bin/../lib/gcc/aarch64-none-elf/13.2.1/../../../../aarch64-none-elf/lib/libg.a(libc_a-vfiprintf.o)
 .debug_aranges
                0x0000000000001780       0x30 /tools/arm-gnu-toolchain-13.2.Rel1-x86_64-aarch64-none-elf/bin/../lib/gcc/aarch64-none-elf/13.2.1/../../../../aarch64-none-elf/lib/libg.a(libc_a-mallocr.o)
 .debug_aranges
                0x00000000000017b0       0x40 /tools/arm-gnu-toolchain-13.2.Rel1-x86_64-aarch64-none-elf/bin/../lib/gcc/aarch64-none-elf/13.2.1/../../../../aarch64-none-elf/lib/libg.a(libc_a-wcrtomb.o)
 .debug_aranges
                0x00000000000017f0       0xc0 /tools/arm-gnu-toolchain-13.2.Rel1-x86_64-aarch64-none-elf/bin/../lib/gcc/aarch64-none-elf/13.2.1/../../../../aarch64-none-elf/lib/libg.a(libc_a-lock.o)
 .debug_aranges
                0x00000000000018b0       0x80 /tools/arm-gnu-toolchain-13.2.Rel1-x86_64-aarch64-none-elf/bin/../lib/gcc/aarch64-none-elf/13.2.1/../../../../aarch64-none-elf/lib/libg.a(libc_a-locale.o)
 .debug_aranges
                0x0000000000001930       0x50 /tools/arm-gnu-toolchain-13.2.Rel1-x86_64-aarch64-none-elf/bin/../lib/gcc/aarch64-none-elf/13.2.1/../../../../aarch64-none-elf/lib/libg.a(libc_a-localeconv.o)
 .debug_aranges
                0x0000000000001980       0x40 /tools/arm-gnu-toolchain-13.2.Rel1-x86_64-aarch64-none-elf/bin/../lib/gcc/aarch64-none-elf/13.2.1/../../../../aarch64-none-elf/lib/libg.a(libc_a-fclose.o)
 .debug_aranges
                0x00000000000019c0       0x30 /tools/arm-gnu-toolchain-13.2.Rel1-x86_64-aarch64-none-elf/bin/../lib/gcc/aarch64-none-elf/13.2.1/../../../../aarch64-none-elf/lib/libg.a(libc_a-memchr.o)
 .debug_aranges
                0x00000000000019f0       0x30 /tools/arm-gnu-toolchain-13.2.Rel1-x86_64-aarch64-none-elf/bin/../lib/gcc/aarch64-none-elf/13.2.1/../../../../aarch64-none-elf/lib/libg.a(libc_a-wsetup.o)
 .debug_aranges
                0x0000000000001a20       0x40 /tools/arm-gnu-toolchain-13.2.Rel1-x86_64-aarch64-none-elf/bin/../lib/gcc/aarch64-none-elf/13.2.1/../../../../aarch64-none-elf/lib/libg.a(libc_a-makebuf.o)
 .debug_aranges
                0x0000000000001a60       0x40 /tools/arm-gnu-toolchain-13.2.Rel1-x86_64-aarch64-none-elf/bin/../lib/gcc/aarch64-none-elf/13.2.1/../../../../aarch64-none-elf/lib/libg.a(libc_a-putc.o)
 .debug_aranges
                0x0000000000001aa0       0x40 /tools/arm-gnu-toolchain-13.2.Rel1-x86_64-aarch64-none-elf/bin/../lib/gcc/aarch64-none-elf/13.2.1/../../../../aarch64-none-elf/lib/libg.a(libc_a-mlock.o)
 .debug_aranges
                0x0000000000001ae0       0x40 /tools/arm-gnu-toolchain-13.2.Rel1-x86_64-aarch64-none-elf/bin/../lib/gcc/aarch64-none-elf/13.2.1/../../../../aarch64-none-elf/lib/libg.a(libc_a-wcsrtombs.o)
 .debug_aranges
                0x0000000000001b20       0x40 /tools/arm-gnu-toolchain-13.2.Rel1-x86_64-aarch64-none-elf/bin/../lib/gcc/aarch64-none-elf/13.2.1/../../../../aarch64-none-elf/lib/libg.a(libc_a-dtoa.o)
 .debug_aranges
                0x0000000000001b60       0x30 /tools/arm-gnu-toolchain-13.2.Rel1-x86_64-aarch64-none-elf/bin/../lib/gcc/aarch64-none-elf/13.2.1/../../../../aarch64-none-elf/lib/libg.a(libc_a-ctype_.o)
 .debug_aranges
                0x0000000000001b90       0x30 /tools/arm-gnu-toolchain-13.2.Rel1-x86_64-aarch64-none-elf/bin/../lib/gcc/aarch64-none-elf/13.2.1/../../../../aarch64-none-elf/lib/libg.a(libc_a-closer.o)
 .debug_aranges
                0x0000000000001bc0       0x50 /tools/arm-gnu-toolchain-13.2.Rel1-x86_64-aarch64-none-elf/bin/../lib/gcc/aarch64-none-elf/13.2.1/../../../../aarch64-none-elf/lib/libg.a(libc_a-fflush.o)
 .debug_aranges
                0x0000000000001c10       0x30 /tools/arm-gnu-toolchain-13.2.Rel1-x86_64-aarch64-none-elf/bin/../lib/gcc/aarch64-none-elf/13.2.1/../../../../aarch64-none-elf/lib/libg.a(libm_a-s_frexp.o)
 .debug_aranges
                0x0000000000001c40       0x30 /tools/arm-gnu-toolchain-13.2.Rel1-x86_64-aarch64-none-elf/bin/../lib/gcc/aarch64-none-elf/13.2.1/../../../../aarch64-none-elf/lib/libg.a(libc_a-strlcpy.o)
 .debug_aranges
                0x0000000000001c70       0x60 /tools/arm-gnu-toolchain-13.2.Rel1-x86_64-aarch64-none-elf/bin/../lib/gcc/aarch64-none-elf/13.2.1/../../../../aarch64-none-elf/lib/libg.a(libc_a-strtol.o)
 .debug_aranges
                0x0000000000001cd0       0x30 /tools/arm-gnu-toolchain-13.2.Rel1-x86_64-aarch64-none-elf/bin/../lib/gcc/aarch64-none-elf/13.2.1/../../../../aarch64-none-elf/lib/libg.a(libc_a-strncasecmp.o)
 .debug_aranges
                0x0000000000001d00       0x40 /tools/arm-gnu-toolchain-13.2.Rel1-x86_64-aarch64-none-elf/bin/../lib/gcc/aarch64-none-elf/13.2.1/../../../../aarch64-none-elf/lib/libg.a(libc_a-getenv_r.o)
 .debug_aranges
                0x0000000000001d40       0x30 /tools/arm-gnu-toolchain-13.2.Rel1-x86_64-aarch64-none-elf/bin/../lib/gcc/aarch64-none-elf/13.2.1/../../../../aarch64-none-elf/lib/libg.a(libc_a-strncpy.o)
 .debug_aranges
                0x0000000000001d70       0x30 /tools/arm-gnu-toolchain-13.2.Rel1-x86_64-aarch64-none-elf/bin/../lib/gcc/aarch64-none-elf/13.2.1/../../../../aarch64-none-elf/lib/libg.a(libc_a-fstatr.o)
 .debug_aranges
                0x0000000000001da0       0x30 /tools/arm-gnu-toolchain-13.2.Rel1-x86_64-aarch64-none-elf/bin/../lib/gcc/aarch64-none-elf/13.2.1/../../../../aarch64-none-elf/lib/libg.a(libc_a-isattyr.o)
 .debug_aranges
                0x0000000000001dd0       0x30 /tools/arm-gnu-toolchain-13.2.Rel1-x86_64-aarch64-none-elf/bin/../lib/gcc/aarch64-none-elf/13.2.1/../../../../aarch64-none-elf/lib/libg.a(libc_a-lseekr.o)
 .debug_aranges
                0x0000000000001e00       0x30 /tools/arm-gnu-toolchain-13.2.Rel1-x86_64-aarch64-none-elf/bin/../lib/gcc/aarch64-none-elf/13.2.1/../../../../aarch64-none-elf/lib/libg.a(libc_a-readr.o)
 .debug_aranges
                0x0000000000001e30       0x30 /tools/arm-gnu-toolchain-13.2.Rel1-x86_64-aarch64-none-elf/bin/../lib/gcc/aarch64-none-elf/13.2.1/../../../../aarch64-none-elf/lib/libg.a(libc_a-strchr.o)
 .debug_aranges
                0x0000000000001e60       0x30 /tools/arm-gnu-toolchain-13.2.Rel1-x86_64-aarch64-none-elf/bin/../lib/gcc/aarch64-none-elf/13.2.1/../../../../aarch64-none-elf/lib/libg.a(libc_a-strcmp.o)
 .debug_aranges
                0x0000000000001e90       0x30 /tools/arm-gnu-toolchain-13.2.Rel1-x86_64-aarch64-none-elf/bin/../lib/gcc/aarch64-none-elf/13.2.1/../../../../aarch64-none-elf/lib/libg.a(libc_a-strcpy.o)
 .debug_aranges
                0x0000000000001ec0       0x50 /tools/arm-gnu-toolchain-13.2.Rel1-x86_64-aarch64-none-elf/bin/../lib/gcc/aarch64-none-elf/13.2.1/../../../../aarch64-none-elf/lib/libg.a(libc_a-fputwc.o)
 .debug_aranges
                0x0000000000001f10       0x80 /tools/arm-gnu-toolchain-13.2.Rel1-x86_64-aarch64-none-elf/bin/../lib/gcc/aarch64-none-elf/13.2.1/../../../../aarch64-none-elf/lib/libg.a(libc_a-wctomb_r.o)
 .debug_aranges
                0x0000000000001f90       0x30 /tools/arm-gnu-toolchain-13.2.Rel1-x86_64-aarch64-none-elf/bin/../lib/gcc/aarch64-none-elf/13.2.1/../../../../aarch64-none-elf/lib/libg.a(libc_a-fvwrite.o)
 .debug_aranges
                0x0000000000001fc0       0x30 /tools/arm-gnu-toolchain-13.2.Rel1-x86_64-aarch64-none-elf/bin/../lib/gcc/aarch64-none-elf/13.2.1/../../../../aarch64-none-elf/lib/libg.a(libc_a-strncmp.o)
 .debug_aranges
                0x0000000000001ff0       0x40 /tools/arm-gnu-toolchain-13.2.Rel1-x86_64-aarch64-none-elf/bin/../lib/gcc/aarch64-none-elf/13.2.1/../../../../aarch64-none-elf/lib/libg.a(libc_a-wbuf.o)
 .debug_aranges
                0x0000000000002030       0x80 /tools/arm-gnu-toolchain-13.2.Rel1-x86_64-aarch64-none-elf/bin/../lib/gcc/aarch64-none-elf/13.2.1/../../../../aarch64-none-elf/lib/libg.a(libc_a-mbtowc_r.o)
 .debug_aranges
                0x00000000000020b0       0x40 /tools/arm-gnu-toolchain-13.2.Rel1-x86_64-aarch64-none-elf/bin/../lib/gcc/aarch64-none-elf/13.2.1/../../../../aarch64-none-elf/lib/libg.a(libc_a-assert.o)
 .debug_aranges
                0x00000000000020f0       0x30 /tools/arm-gnu-toolchain-13.2.Rel1-x86_64-aarch64-none-elf/bin/../lib/gcc/aarch64-none-elf/13.2.1/../../../../aarch64-none-elf/lib/libg.a(libc_a-strcasecmp.o)
 .debug_aranges
                0x0000000000002120       0x30 /tools/arm-gnu-toolchain-13.2.Rel1-x86_64-aarch64-none-elf/bin/../lib/gcc/aarch64-none-elf/13.2.1/../../../../aarch64-none-elf/lib/libg.a(libc_a-strcat.o)
 .debug_aranges
                0x0000000000002150      0x150 /tools/arm-gnu-toolchain-13.2.Rel1-x86_64-aarch64-none-elf/bin/../lib/gcc/aarch64-none-elf/13.2.1/../../../../aarch64-none-elf/lib/libg.a(libc_a-mprec.o)
 .debug_aranges
                0x00000000000022a0       0x30 /tools/arm-gnu-toolchain-13.2.Rel1-x86_64-aarch64-none-elf/bin/../lib/gcc/aarch64-none-elf/13.2.1/../../../../aarch64-none-elf/lib/libg.a(libc_a-callocr.o)
 .debug_aranges
                0x00000000000022d0       0x50 /tools/arm-gnu-toolchain-13.2.Rel1-x86_64-aarch64-none-elf/bin/../lib/gcc/aarch64-none-elf/13.2.1/../../../../aarch64-none-elf/lib/libg.a(libc_a-wcsnrtombs.o)
 .debug_aranges
                0x0000000000002320       0x20 /tools/arm-gnu-toolchain-13.2.Rel1-x86_64-aarch64-none-elf/bin/../lib/gcc/aarch64-none-elf/13.2.1/../../../../aarch64-none-elf/lib/libg.a(libc_a-environ.o)
 .debug_aranges
                0x0000000000002340       0x30 /tools/arm-gnu-toolchain-13.2.Rel1-x86_64-aarch64-none-elf/bin/../lib/gcc/aarch64-none-elf/13.2.1/../../../../aarch64-none-elf/lib/libg.a(libc_a-reallocr.o)
 .debug_aranges
                0x0000000000002370       0x40 /tools/arm-gnu-toolchain-13.2.Rel1-x86_64-aarch64-none-elf/bin/../lib/gcc/aarch64-none-elf/13.2.1/../../../../aarch64-none-elf/lib/libg.a(libc_a-envlock.o)
 .debug_aranges
                0x00000000000023b0       0x40 /tools/arm-gnu-toolchain-13.2.Rel1-x86_64-aarch64-none-elf/bin/../lib/gcc/aarch64-none-elf/13.2.1/../../../../aarch64-none-elf/lib/libg.a(libc_a-fiprintf.o)
 .debug_aranges
                0x00000000000023f0       0x30 /tools/arm-gnu-toolchain-13.2.Rel1-x86_64-aarch64-none-elf/bin/../lib/gcc/aarch64-none-elf/13.2.1/../../../../aarch64-none-elf/lib/libg.a(libc_a-abort.o)
 .debug_aranges
                0x0000000000002420       0xa0 /tools/arm-gnu-toolchain-13.2.Rel1-x86_64-aarch64-none-elf/bin/../lib/gcc/aarch64-none-elf/13.2.1/../../../../aarch64-none-elf/lib/libg.a(libc_a-signal.o)
 .debug_aranges
                0x00000000000024c0       0x40 /tools/arm-gnu-toolchain-13.2.Rel1-x86_64-aarch64-none-elf/bin/../lib/gcc/aarch64-none-elf/13.2.1/../../../../aarch64-none-elf/lib/libg.a(libc_a-signalr.o)
 .debug_aranges
                0x0000000000002500       0x30 /tools/arm-gnu-toolchain-13.2.Rel1-x86_64-aarch64-none-elf/bin/../lib/gcc/aarch64-none-elf/13.2.1/libgcc.a(trunctfdf2.o)
 .debug_aranges
                0x0000000000002530       0x30 /tools/arm-gnu-toolchain-13.2.Rel1-x86_64-aarch64-none-elf/bin/../lib/gcc/aarch64-none-elf/13.2.1/libgcc.a(sfp-exceptions.o)

.debug_rnglists
                0x0000000000000000     0x2ae6
 .debug_rnglists
                0x0000000000000000       0x26 CMakeFiles/freertos_kernel.elf.dir/main_cp1.c.o
 .debug_rnglists
                0x0000000000000026       0x16 gloss/CMakeFiles/freedom_metal.dir/freedom_metal.c.o
 .debug_rnglists
                0x000000000000003c       0x17 gloss/CMakeFiles/freedom_metal.dir/sys_getpid.c.o
 .debug_rnglists
                0x0000000000000053       0x13 gloss/CMakeFiles/freedom_metal.dir/sys_times.c.o
 .debug_rnglists
                0x0000000000000066       0x28 build/drivers/mailbox/CMakeFiles/mailbox.dir/mailbox.c.o
 .debug_rnglists
                0x000000000000008e       0x2a build/drivers/mailbox/CMakeFiles/mailbox.dir/mailbox_cb.c.o
 .debug_rnglists
                0x00000000000000b8       0x17 build/drivers/timer/dw_apb_timer/CMakeFiles/dw_apb_timer.dir/dw_apb_timer.c.o
 .debug_rnglists
                0x00000000000000cf       0x77 build/drivers/qspi/qspi_apb/CMakeFiles/qspi_apb.dir/qspi_apb.c.o
 .debug_rnglists
                0x0000000000000146      0x2ce libfreertos_kernel.a(queue.c.o)
 .debug_rnglists
                0x0000000000000414      0xb10 libfreertos_kernel.a(tasks.c.o)
 .debug_rnglists
                0x0000000000000f24      0x17a libfreertos_kernel.a(timers.c.o)
 .debug_rnglists
                0x000000000000109e       0x83 libfreertos_kernel.a(heap_4.c.o)
 .debug_rnglists
                0x0000000000001121       0x3f libfreertos_kernel.a(list.c.o)
 .debug_rnglists
                0x0000000000001160       0x97 portable/libfreertos_kernel_port.a(port.c.o)
 .debug_rnglists
                0x00000000000011f7      0x1cb build/drivers/intc/libintc.a(gicv3.c.o)
 .debug_rnglists
                0x00000000000013c2       0x33 build/drivers/intc/libintc.a(bakery_lock.c.o)
 .debug_rnglists
                0x00000000000013f5       0x16 portable/libfreertos_arch.a(prep_c.c.o)
 .debug_rnglists
                0x000000000000140b       0x38 libfreertos_kernel_config.a(FreeRTOS_tick_config.c.o)
 .debug_rnglists
                0x0000000000001443       0x42 portable/libsmp.a(smp.c.o)
 .debug_rnglists
                0x0000000000001485       0x1e build/drivers/psci/libpsci.a(psci.c.o)
 .debug_rnglists
                0x00000000000014a3      0x278 portable/libmmu.a(mmu.c.o)
 .debug_rnglists
                0x000000000000171b       0x48 build/drivers/timer/generic_timer/libgeneric_timer.a(generic_timer.c.o)
 .debug_rnglists
                0x0000000000001763       0x17 /tools/arm-gnu-toolchain-13.2.Rel1-x86_64-aarch64-none-elf/bin/../lib/gcc/aarch64-none-elf/13.2.1/../../../../aarch64-none-elf/lib/libg.a(libc_a-errno.o)
 .debug_rnglists
                0x000000000000177a       0x22 /tools/arm-gnu-toolchain-13.2.Rel1-x86_64-aarch64-none-elf/bin/../lib/gcc/aarch64-none-elf/13.2.1/../../../../aarch64-none-elf/lib/libg.a(libc_a-printf.o)
 .debug_rnglists
                0x000000000000179c       0x21 /tools/arm-gnu-toolchain-13.2.Rel1-x86_64-aarch64-none-elf/bin/../lib/gcc/aarch64-none-elf/13.2.1/../../../../aarch64-none-elf/lib/libg.a(libc_a-putchar.o)
 .debug_rnglists
                0x00000000000017bd       0x18 /tools/arm-gnu-toolchain-13.2.Rel1-x86_64-aarch64-none-elf/bin/../lib/gcc/aarch64-none-elf/13.2.1/../../../../aarch64-none-elf/lib/libg.a(libc_a-reent.o)
 .debug_rnglists
                0x00000000000017d5      0x14b /tools/arm-gnu-toolchain-13.2.Rel1-x86_64-aarch64-none-elf/bin/../lib/gcc/aarch64-none-elf/13.2.1/../../../../aarch64-none-elf/lib/libg.a(libc_a-findfp.o)
 .debug_rnglists
                0x0000000000001920       0x23 /tools/arm-gnu-toolchain-13.2.Rel1-x86_64-aarch64-none-elf/bin/../lib/gcc/aarch64-none-elf/13.2.1/../../../../aarch64-none-elf/lib/libg.a(libc_a-freer.o)
 .debug_rnglists
                0x0000000000001943       0x3f /tools/arm-gnu-toolchain-13.2.Rel1-x86_64-aarch64-none-elf/bin/../lib/gcc/aarch64-none-elf/13.2.1/../../../../aarch64-none-elf/lib/libg.a(libc_a-stdio.o)
 .debug_rnglists
                0x0000000000001982       0x17 /tools/arm-gnu-toolchain-13.2.Rel1-x86_64-aarch64-none-elf/bin/../lib/gcc/aarch64-none-elf/13.2.1/../../../../aarch64-none-elf/lib/libg.a(libc_a-sbrkr.o)
 .debug_rnglists
                0x0000000000001999       0x18 /tools/arm-gnu-toolchain-13.2.Rel1-x86_64-aarch64-none-elf/bin/../lib/gcc/aarch64-none-elf/13.2.1/../../../../aarch64-none-elf/lib/libg.a(libc_a-fwalk.o)
 .debug_rnglists
                0x00000000000019b1       0x17 /tools/arm-gnu-toolchain-13.2.Rel1-x86_64-aarch64-none-elf/bin/../lib/gcc/aarch64-none-elf/13.2.1/../../../../aarch64-none-elf/lib/libg.a(libc_a-writer.o)
 .debug_rnglists
                0x00000000000019c8      0x1ef /tools/arm-gnu-toolchain-13.2.Rel1-x86_64-aarch64-none-elf/bin/../lib/gcc/aarch64-none-elf/13.2.1/../../../../aarch64-none-elf/lib/libg.a(libc_a-vfprintf.o)
 .debug_rnglists
                0x0000000000001bb7      0x196 /tools/arm-gnu-toolchain-13.2.Rel1-x86_64-aarch64-none-elf/bin/../lib/gcc/aarch64-none-elf/13.2.1/../../../../aarch64-none-elf/lib/libg.a(libc_a-vfiprintf.o)
 .debug_rnglists
                0x0000000000001d4d       0x49 /tools/arm-gnu-toolchain-13.2.Rel1-x86_64-aarch64-none-elf/bin/../lib/gcc/aarch64-none-elf/13.2.1/../../../../aarch64-none-elf/lib/libg.a(libc_a-mallocr.o)
 .debug_rnglists
                0x0000000000001d96       0x23 /tools/arm-gnu-toolchain-13.2.Rel1-x86_64-aarch64-none-elf/bin/../lib/gcc/aarch64-none-elf/13.2.1/../../../../aarch64-none-elf/lib/libg.a(libc_a-wcrtomb.o)
 .debug_rnglists
                0x0000000000001db9       0x71 /tools/arm-gnu-toolchain-13.2.Rel1-x86_64-aarch64-none-elf/bin/../lib/gcc/aarch64-none-elf/13.2.1/../../../../aarch64-none-elf/lib/libg.a(libc_a-lock.o)
 .debug_rnglists
                0x0000000000001e2a       0x5e /tools/arm-gnu-toolchain-13.2.Rel1-x86_64-aarch64-none-elf/bin/../lib/gcc/aarch64-none-elf/13.2.1/../../../../aarch64-none-elf/lib/libg.a(libc_a-locale.o)
 .debug_rnglists
                0x0000000000001e88       0x2b /tools/arm-gnu-toolchain-13.2.Rel1-x86_64-aarch64-none-elf/bin/../lib/gcc/aarch64-none-elf/13.2.1/../../../../aarch64-none-elf/lib/libg.a(libc_a-localeconv.o)
 .debug_rnglists
                0x0000000000001eb3       0x34 /tools/arm-gnu-toolchain-13.2.Rel1-x86_64-aarch64-none-elf/bin/../lib/gcc/aarch64-none-elf/13.2.1/../../../../aarch64-none-elf/lib/libg.a(libc_a-fclose.o)
 .debug_rnglists
                0x0000000000001ee7       0x30 /tools/arm-gnu-toolchain-13.2.Rel1-x86_64-aarch64-none-elf/bin/../lib/gcc/aarch64-none-elf/13.2.1/../../../../aarch64-none-elf/lib/libg.a(libc_a-wsetup.o)
 .debug_rnglists
                0x0000000000001f17       0x7b /tools/arm-gnu-toolchain-13.2.Rel1-x86_64-aarch64-none-elf/bin/../lib/gcc/aarch64-none-elf/13.2.1/../../../../aarch64-none-elf/lib/libg.a(libc_a-makebuf.o)
 .debug_rnglists
                0x0000000000001f92       0x6d /tools/arm-gnu-toolchain-13.2.Rel1-x86_64-aarch64-none-elf/bin/../lib/gcc/aarch64-none-elf/13.2.1/../../../../aarch64-none-elf/lib/libg.a(libc_a-putc.o)
 .debug_rnglists
                0x0000000000001fff       0x21 /tools/arm-gnu-toolchain-13.2.Rel1-x86_64-aarch64-none-elf/bin/../lib/gcc/aarch64-none-elf/13.2.1/../../../../aarch64-none-elf/lib/libg.a(libc_a-mlock.o)
 .debug_rnglists
                0x0000000000002020       0x21 /tools/arm-gnu-toolchain-13.2.Rel1-x86_64-aarch64-none-elf/bin/../lib/gcc/aarch64-none-elf/13.2.1/../../../../aarch64-none-elf/lib/libg.a(libc_a-wcsrtombs.o)
 .debug_rnglists
                0x0000000000002041       0x4c /tools/arm-gnu-toolchain-13.2.Rel1-x86_64-aarch64-none-elf/bin/../lib/gcc/aarch64-none-elf/13.2.1/../../../../aarch64-none-elf/lib/libg.a(libc_a-dtoa.o)
 .debug_rnglists
                0x000000000000208d       0x17 /tools/arm-gnu-toolchain-13.2.Rel1-x86_64-aarch64-none-elf/bin/../lib/gcc/aarch64-none-elf/13.2.1/../../../../aarch64-none-elf/lib/libg.a(libc_a-ctype_.o)
 .debug_rnglists
                0x00000000000020a4       0x17 /tools/arm-gnu-toolchain-13.2.Rel1-x86_64-aarch64-none-elf/bin/../lib/gcc/aarch64-none-elf/13.2.1/../../../../aarch64-none-elf/lib/libg.a(libc_a-closer.o)
 .debug_rnglists
                0x00000000000020bb       0xa9 /tools/arm-gnu-toolchain-13.2.Rel1-x86_64-aarch64-none-elf/bin/../lib/gcc/aarch64-none-elf/13.2.1/../../../../aarch64-none-elf/lib/libg.a(libc_a-fflush.o)
 .debug_rnglists
                0x0000000000002164       0x3d /tools/arm-gnu-toolchain-13.2.Rel1-x86_64-aarch64-none-elf/bin/../lib/gcc/aarch64-none-elf/13.2.1/../../../../aarch64-none-elf/lib/libg.a(libm_a-s_frexp.o)
 .debug_rnglists
                0x00000000000021a1       0x17 /tools/arm-gnu-toolchain-13.2.Rel1-x86_64-aarch64-none-elf/bin/../lib/gcc/aarch64-none-elf/13.2.1/../../../../aarch64-none-elf/lib/libg.a(libc_a-strlcpy.o)
 .debug_rnglists
                0x00000000000021b8       0x6c /tools/arm-gnu-toolchain-13.2.Rel1-x86_64-aarch64-none-elf/bin/../lib/gcc/aarch64-none-elf/13.2.1/../../../../aarch64-none-elf/lib/libg.a(libc_a-strtol.o)
 .debug_rnglists
                0x0000000000002224       0x65 /tools/arm-gnu-toolchain-13.2.Rel1-x86_64-aarch64-none-elf/bin/../lib/gcc/aarch64-none-elf/13.2.1/../../../../aarch64-none-elf/lib/libg.a(libc_a-strncasecmp.o)
 .debug_rnglists
                0x0000000000002289       0x22 /tools/arm-gnu-toolchain-13.2.Rel1-x86_64-aarch64-none-elf/bin/../lib/gcc/aarch64-none-elf/13.2.1/../../../../aarch64-none-elf/lib/libg.a(libc_a-getenv_r.o)
 .debug_rnglists
                0x00000000000022ab       0x18 /tools/arm-gnu-toolchain-13.2.Rel1-x86_64-aarch64-none-elf/bin/../lib/gcc/aarch64-none-elf/13.2.1/../../../../aarch64-none-elf/lib/libg.a(libc_a-strncpy.o)
 .debug_rnglists
                0x00000000000022c3       0x17 /tools/arm-gnu-toolchain-13.2.Rel1-x86_64-aarch64-none-elf/bin/../lib/gcc/aarch64-none-elf/13.2.1/../../../../aarch64-none-elf/lib/libg.a(libc_a-fstatr.o)
 .debug_rnglists
                0x00000000000022da       0x17 /tools/arm-gnu-toolchain-13.2.Rel1-x86_64-aarch64-none-elf/bin/../lib/gcc/aarch64-none-elf/13.2.1/../../../../aarch64-none-elf/lib/libg.a(libc_a-isattyr.o)
 .debug_rnglists
                0x00000000000022f1       0x17 /tools/arm-gnu-toolchain-13.2.Rel1-x86_64-aarch64-none-elf/bin/../lib/gcc/aarch64-none-elf/13.2.1/../../../../aarch64-none-elf/lib/libg.a(libc_a-lseekr.o)
 .debug_rnglists
                0x0000000000002308       0x17 /tools/arm-gnu-toolchain-13.2.Rel1-x86_64-aarch64-none-elf/bin/../lib/gcc/aarch64-none-elf/13.2.1/../../../../aarch64-none-elf/lib/libg.a(libc_a-readr.o)
 .debug_rnglists
                0x000000000000231f       0x6a /tools/arm-gnu-toolchain-13.2.Rel1-x86_64-aarch64-none-elf/bin/../lib/gcc/aarch64-none-elf/13.2.1/../../../../aarch64-none-elf/lib/libg.a(libc_a-fputwc.o)
 .debug_rnglists
                0x0000000000002389       0x4d /tools/arm-gnu-toolchain-13.2.Rel1-x86_64-aarch64-none-elf/bin/../lib/gcc/aarch64-none-elf/13.2.1/../../../../aarch64-none-elf/lib/libg.a(libc_a-wctomb_r.o)
 .debug_rnglists
                0x00000000000023d6       0x4b /tools/arm-gnu-toolchain-13.2.Rel1-x86_64-aarch64-none-elf/bin/../lib/gcc/aarch64-none-elf/13.2.1/../../../../aarch64-none-elf/lib/libg.a(libc_a-fvwrite.o)
 .debug_rnglists
                0x0000000000002421       0x37 /tools/arm-gnu-toolchain-13.2.Rel1-x86_64-aarch64-none-elf/bin/../lib/gcc/aarch64-none-elf/13.2.1/../../../../aarch64-none-elf/lib/libg.a(libc_a-wbuf.o)
 .debug_rnglists
                0x0000000000002458       0x81 /tools/arm-gnu-toolchain-13.2.Rel1-x86_64-aarch64-none-elf/bin/../lib/gcc/aarch64-none-elf/13.2.1/../../../../aarch64-none-elf/lib/libg.a(libc_a-mbtowc_r.o)
 .debug_rnglists
                0x00000000000024d9       0x21 /tools/arm-gnu-toolchain-13.2.Rel1-x86_64-aarch64-none-elf/bin/../lib/gcc/aarch64-none-elf/13.2.1/../../../../aarch64-none-elf/lib/libg.a(libc_a-assert.o)
 .debug_rnglists
                0x00000000000024fa       0x56 /tools/arm-gnu-toolchain-13.2.Rel1-x86_64-aarch64-none-elf/bin/../lib/gcc/aarch64-none-elf/13.2.1/../../../../aarch64-none-elf/lib/libg.a(libc_a-strcasecmp.o)
 .debug_rnglists
                0x0000000000002550       0x17 /tools/arm-gnu-toolchain-13.2.Rel1-x86_64-aarch64-none-elf/bin/../lib/gcc/aarch64-none-elf/13.2.1/../../../../aarch64-none-elf/lib/libg.a(libc_a-strcat.o)
 .debug_rnglists
                0x0000000000002567      0x1ba /tools/arm-gnu-toolchain-13.2.Rel1-x86_64-aarch64-none-elf/bin/../lib/gcc/aarch64-none-elf/13.2.1/../../../../aarch64-none-elf/lib/libg.a(libc_a-mprec.o)
 .debug_rnglists
                0x0000000000002721       0x3e /tools/arm-gnu-toolchain-13.2.Rel1-x86_64-aarch64-none-elf/bin/../lib/gcc/aarch64-none-elf/13.2.1/../../../../aarch64-none-elf/lib/libg.a(libc_a-callocr.o)
 .debug_rnglists
                0x000000000000275f       0x45 /tools/arm-gnu-toolchain-13.2.Rel1-x86_64-aarch64-none-elf/bin/../lib/gcc/aarch64-none-elf/13.2.1/../../../../aarch64-none-elf/lib/libg.a(libc_a-wcsnrtombs.o)
 .debug_rnglists
                0x00000000000027a4       0xc2 /tools/arm-gnu-toolchain-13.2.Rel1-x86_64-aarch64-none-elf/bin/../lib/gcc/aarch64-none-elf/13.2.1/../../../../aarch64-none-elf/lib/libg.a(libc_a-reallocr.o)
 .debug_rnglists
                0x0000000000002866       0x21 /tools/arm-gnu-toolchain-13.2.Rel1-x86_64-aarch64-none-elf/bin/../lib/gcc/aarch64-none-elf/13.2.1/../../../../aarch64-none-elf/lib/libg.a(libc_a-envlock.o)
 .debug_rnglists
                0x0000000000002887       0x21 /tools/arm-gnu-toolchain-13.2.Rel1-x86_64-aarch64-none-elf/bin/../lib/gcc/aarch64-none-elf/13.2.1/../../../../aarch64-none-elf/lib/libg.a(libc_a-fiprintf.o)
 .debug_rnglists
                0x00000000000028a8       0x17 /tools/arm-gnu-toolchain-13.2.Rel1-x86_64-aarch64-none-elf/bin/../lib/gcc/aarch64-none-elf/13.2.1/../../../../aarch64-none-elf/lib/libg.a(libc_a-abort.o)
 .debug_rnglists
                0x00000000000028bf       0xb4 /tools/arm-gnu-toolchain-13.2.Rel1-x86_64-aarch64-none-elf/bin/../lib/gcc/aarch64-none-elf/13.2.1/../../../../aarch64-none-elf/lib/libg.a(libc_a-signal.o)
 .debug_rnglists
                0x0000000000002973       0x21 /tools/arm-gnu-toolchain-13.2.Rel1-x86_64-aarch64-none-elf/bin/../lib/gcc/aarch64-none-elf/13.2.1/../../../../aarch64-none-elf/lib/libg.a(libc_a-signalr.o)
 .debug_rnglists
                0x0000000000002994      0x13b /tools/arm-gnu-toolchain-13.2.Rel1-x86_64-aarch64-none-elf/bin/../lib/gcc/aarch64-none-elf/13.2.1/libgcc.a(trunctfdf2.o)
 .debug_rnglists
                0x0000000000002acf       0x17 /tools/arm-gnu-toolchain-13.2.Rel1-x86_64-aarch64-none-elf/bin/../lib/gcc/aarch64-none-elf/13.2.1/libgcc.a(sfp-exceptions.o)

.debug_line     0x0000000000000000    0x1c392
 .debug_line    0x0000000000000000      0x15f CMakeFiles/freertos_kernel.elf.dir/main_cp1.c.o
 .debug_line    0x000000000000015f       0xb2 gloss/CMakeFiles/freedom_metal.dir/freedom_metal.c.o
 .debug_line    0x0000000000000211       0x84 gloss/CMakeFiles/freedom_metal.dir/nanosleep.c.o
 .debug_line    0x0000000000000295       0x7a gloss/CMakeFiles/freedom_metal.dir/sys_access.c.o
 .debug_line    0x000000000000030f       0x7a gloss/CMakeFiles/freedom_metal.dir/sys_chdir.c.o
 .debug_line    0x0000000000000389       0x8d gloss/CMakeFiles/freedom_metal.dir/sys_chmod.c.o
 .debug_line    0x0000000000000416       0x84 gloss/CMakeFiles/freedom_metal.dir/sys_chown.c.o
 .debug_line    0x000000000000049a       0xa3 gloss/CMakeFiles/freedom_metal.dir/sys_clock_gettime.c.o
 .debug_line    0x000000000000053d       0x7a gloss/CMakeFiles/freedom_metal.dir/sys_close.c.o
 .debug_line    0x00000000000005b7       0x7a gloss/CMakeFiles/freedom_metal.dir/sys_execve.c.o
 .debug_line    0x0000000000000631       0x6b gloss/CMakeFiles/freedom_metal.dir/sys_exit.c.o
 .debug_line    0x000000000000069c       0x7a gloss/CMakeFiles/freedom_metal.dir/sys_faccessat.c.o
 .debug_line    0x0000000000000716       0x79 gloss/CMakeFiles/freedom_metal.dir/sys_fork.c.o
 .debug_line    0x000000000000078f       0x9c gloss/CMakeFiles/freedom_metal.dir/sys_fstat.c.o
 .debug_line    0x000000000000082b       0x9c gloss/CMakeFiles/freedom_metal.dir/sys_fstatat.c.o
 .debug_line    0x00000000000008c7       0x84 gloss/CMakeFiles/freedom_metal.dir/sys_ftime.c.o
 .debug_line    0x000000000000094b       0x83 gloss/CMakeFiles/freedom_metal.dir/sys_getcwd.c.o
 .debug_line    0x00000000000009ce       0x84 gloss/CMakeFiles/freedom_metal.dir/sys_getpid.c.o
 .debug_line    0x0000000000000a52       0xb9 gloss/CMakeFiles/freedom_metal.dir/sys_gettimeofday.c.o
 .debug_line    0x0000000000000b0b       0x58 gloss/CMakeFiles/freedom_metal.dir/sys_isatty.c.o
 .debug_line    0x0000000000000b63       0x7a gloss/CMakeFiles/freedom_metal.dir/sys_kill.c.o
 .debug_line    0x0000000000000bdd       0x7a gloss/CMakeFiles/freedom_metal.dir/sys_link.c.o
 .debug_line    0x0000000000000c57       0x84 gloss/CMakeFiles/freedom_metal.dir/sys_lseek.c.o
 .debug_line    0x0000000000000cdb       0x9c gloss/CMakeFiles/freedom_metal.dir/sys_lstat.c.o
 .debug_line    0x0000000000000d77       0x7a gloss/CMakeFiles/freedom_metal.dir/sys_open.c.o
 .debug_line    0x0000000000000df1       0x7a gloss/CMakeFiles/freedom_metal.dir/sys_openat.c.o
 .debug_line    0x0000000000000e6b       0x91 gloss/CMakeFiles/freedom_metal.dir/sys_read.c.o
 .debug_line    0x0000000000000efc       0xd8 gloss/CMakeFiles/freedom_metal.dir/sys_sbrk.c.o
 .debug_line    0x0000000000000fd4       0x58 gloss/CMakeFiles/freedom_metal.dir/sys_sysconf.c.o
 .debug_line    0x000000000000102c       0xbd gloss/CMakeFiles/freedom_metal.dir/sys_times.c.o
 .debug_line    0x00000000000010e9       0x7a gloss/CMakeFiles/freedom_metal.dir/sys_unlink.c.o
 .debug_line    0x0000000000001163       0x7a gloss/CMakeFiles/freedom_metal.dir/sys_utime.c.o
 .debug_line    0x00000000000011dd       0x7a gloss/CMakeFiles/freedom_metal.dir/sys_wait.c.o
 .debug_line    0x0000000000001257       0xdb gloss/CMakeFiles/freedom_metal.dir/sys_write.c.o
 .debug_line    0x0000000000001332      0x4d5 build/drivers/mailbox/CMakeFiles/mailbox.dir/mailbox.c.o
 .debug_line    0x0000000000001807       0xfe build/drivers/mailbox/CMakeFiles/mailbox.dir/mailbox_cb.c.o
 .debug_line    0x0000000000001905      0x20b build/drivers/pmu/CMakeFiles/pmu.dir/pmu.c.o
 .debug_line    0x0000000000001b10      0x3df build/drivers/timer/dw_apb_timer/CMakeFiles/dw_apb_timer.dir/dw_apb_timer.c.o
 .debug_line    0x0000000000001eef      0x48e build/drivers/qspi/qspi_apb/CMakeFiles/qspi_apb.dir/qspi_apb.c.o
 .debug_line    0x000000000000237d       0xbb build/drivers/flash/CMakeFiles/flash.dir/mt25q_flash.c.o
 .debug_line    0x0000000000002438     0x188f libfreertos_kernel.a(queue.c.o)
 .debug_line    0x0000000000003cc7     0x64a1 libfreertos_kernel.a(tasks.c.o)
 .debug_line    0x000000000000a168      0xb18 libfreertos_kernel.a(timers.c.o)
 .debug_line    0x000000000000ac80      0x63f libfreertos_kernel.a(heap_4.c.o)
 .debug_line    0x000000000000b2bf      0x22e libfreertos_kernel.a(list.c.o)
 .debug_line    0x000000000000b4ed      0x652 portable/libfreertos_kernel_port.a(port.c.o)
 .debug_line    0x000000000000bb3f       0xef build/drivers/common/libdriver.a(driver.c.o)
 .debug_line    0x000000000000bc2e      0x100 build/drivers/common/libassert.a(assert.c.o)
 .debug_line    0x000000000000bd2e       0xe9 build/drivers/common/libinterrupt.a(interrupt.c.o)
 .debug_line    0x000000000000be17      0xc02 build/drivers/intc/libintc.a(gicv3.c.o)
 .debug_line    0x000000000000ca19      0x257 build/drivers/intc/libintc.a(bakery_lock.c.o)
 .debug_line    0x000000000000cc70       0xd9 portable/libfreertos_arch.a(prep_c.c.o)
 .debug_line    0x000000000000cd49      0x152 libfreertos_kernel_config.a(FreeRTOS_tick_config.c.o)
 .debug_line    0x000000000000ce9b      0x189 portable/libsmp.a(smp.c.o)
 .debug_line    0x000000000000d024       0xa1 build/common/arch/libcommon.a(printf.c.o)
 .debug_line    0x000000000000d0c5       0xbc build/drivers/psci/libpsci.a(psci.c.o)
 .debug_line    0x000000000000d181      0xe90 portable/libmmu.a(mmu.c.o)
 .debug_line    0x000000000000e011      0x161 build/drivers/timer/generic_timer/libgeneric_timer.a(generic_timer.c.o)
 .debug_line    0x000000000000e172       0x9b /tools/arm-gnu-toolchain-13.2.Rel1-x86_64-aarch64-none-elf/bin/../lib/gcc/aarch64-none-elf/13.2.1/../../../../aarch64-none-elf/lib/libg.a(libc_a-strlen.o)
 .debug_line    0x000000000000e20d       0x7a /tools/arm-gnu-toolchain-13.2.Rel1-x86_64-aarch64-none-elf/bin/../lib/gcc/aarch64-none-elf/13.2.1/../../../../aarch64-none-elf/lib/libg.a(libc_a-errno.o)
 .debug_line    0x000000000000e287      0x126 /tools/arm-gnu-toolchain-13.2.Rel1-x86_64-aarch64-none-elf/bin/../lib/gcc/aarch64-none-elf/13.2.1/../../../../aarch64-none-elf/lib/libg.a(libc_a-printf.o)
 .debug_line    0x000000000000e3ad       0xd3 /tools/arm-gnu-toolchain-13.2.Rel1-x86_64-aarch64-none-elf/bin/../lib/gcc/aarch64-none-elf/13.2.1/../../../../aarch64-none-elf/lib/libg.a(libc_a-memcpy.o)
 .debug_line    0x000000000000e480       0xab /tools/arm-gnu-toolchain-13.2.Rel1-x86_64-aarch64-none-elf/bin/../lib/gcc/aarch64-none-elf/13.2.1/../../../../aarch64-none-elf/lib/libg.a(libc_a-putchar.o)
 .debug_line    0x000000000000e52b      0x10e /tools/arm-gnu-toolchain-13.2.Rel1-x86_64-aarch64-none-elf/bin/../lib/gcc/aarch64-none-elf/13.2.1/../../../../aarch64-none-elf/lib/libg.a(libc_a-reent.o)
 .debug_line    0x000000000000e639       0x51 /tools/arm-gnu-toolchain-13.2.Rel1-x86_64-aarch64-none-elf/bin/../lib/gcc/aarch64-none-elf/13.2.1/../../../../aarch64-none-elf/lib/libg.a(libc_a-impure.o)
 .debug_line    0x000000000000e68a      0x642 /tools/arm-gnu-toolchain-13.2.Rel1-x86_64-aarch64-none-elf/bin/../lib/gcc/aarch64-none-elf/13.2.1/../../../../aarch64-none-elf/lib/libg.a(libc_a-findfp.o)
 .debug_line    0x000000000000eccc       0x8c /tools/arm-gnu-toolchain-13.2.Rel1-x86_64-aarch64-none-elf/bin/../lib/gcc/aarch64-none-elf/13.2.1/../../../../aarch64-none-elf/lib/libg.a(libc_a-memset.o)
 .debug_line    0x000000000000ed58      0x48f /tools/arm-gnu-toolchain-13.2.Rel1-x86_64-aarch64-none-elf/bin/../lib/gcc/aarch64-none-elf/13.2.1/../../../../aarch64-none-elf/lib/libg.a(libc_a-freer.o)
 .debug_line    0x000000000000f1e7      0x1c1 /tools/arm-gnu-toolchain-13.2.Rel1-x86_64-aarch64-none-elf/bin/../lib/gcc/aarch64-none-elf/13.2.1/../../../../aarch64-none-elf/lib/libg.a(libc_a-stdio.o)
 .debug_line    0x000000000000f3a8       0xbe /tools/arm-gnu-toolchain-13.2.Rel1-x86_64-aarch64-none-elf/bin/../lib/gcc/aarch64-none-elf/13.2.1/../../../../aarch64-none-elf/lib/libg.a(libc_a-sbrkr.o)
 .debug_line    0x000000000000f466       0xf1 /tools/arm-gnu-toolchain-13.2.Rel1-x86_64-aarch64-none-elf/bin/../lib/gcc/aarch64-none-elf/13.2.1/../../../../aarch64-none-elf/lib/libg.a(libc_a-fwalk.o)
 .debug_line    0x000000000000f557       0xd1 /tools/arm-gnu-toolchain-13.2.Rel1-x86_64-aarch64-none-elf/bin/../lib/gcc/aarch64-none-elf/13.2.1/../../../../aarch64-none-elf/lib/libg.a(libc_a-writer.o)
 .debug_line    0x000000000000f628     0x2696 /tools/arm-gnu-toolchain-13.2.Rel1-x86_64-aarch64-none-elf/bin/../lib/gcc/aarch64-none-elf/13.2.1/../../../../aarch64-none-elf/lib/libg.a(libc_a-vfprintf.o)
 .debug_line    0x0000000000011cbe     0x1970 /tools/arm-gnu-toolchain-13.2.Rel1-x86_64-aarch64-none-elf/bin/../lib/gcc/aarch64-none-elf/13.2.1/../../../../aarch64-none-elf/lib/libg.a(libc_a-vfiprintf.o)
 .debug_line    0x000000000001362e      0x824 /tools/arm-gnu-toolchain-13.2.Rel1-x86_64-aarch64-none-elf/bin/../lib/gcc/aarch64-none-elf/13.2.1/../../../../aarch64-none-elf/lib/libg.a(libc_a-mallocr.o)
 .debug_line    0x0000000000013e52      0x1e0 /tools/arm-gnu-toolchain-13.2.Rel1-x86_64-aarch64-none-elf/bin/../lib/gcc/aarch64-none-elf/13.2.1/../../../../aarch64-none-elf/lib/libg.a(libc_a-wcrtomb.o)
 .debug_line    0x0000000000014032      0x130 /tools/arm-gnu-toolchain-13.2.Rel1-x86_64-aarch64-none-elf/bin/../lib/gcc/aarch64-none-elf/13.2.1/../../../../aarch64-none-elf/lib/libg.a(libc_a-lock.o)
 .debug_line    0x0000000000014162      0x9e7 /tools/arm-gnu-toolchain-13.2.Rel1-x86_64-aarch64-none-elf/bin/../lib/gcc/aarch64-none-elf/13.2.1/../../../../aarch64-none-elf/lib/libg.a(libc_a-locale.o)
 .debug_line    0x0000000000014b49       0xce /tools/arm-gnu-toolchain-13.2.Rel1-x86_64-aarch64-none-elf/bin/../lib/gcc/aarch64-none-elf/13.2.1/../../../../aarch64-none-elf/lib/libg.a(libc_a-localeconv.o)
 .debug_line    0x0000000000014c17      0x1c9 /tools/arm-gnu-toolchain-13.2.Rel1-x86_64-aarch64-none-elf/bin/../lib/gcc/aarch64-none-elf/13.2.1/../../../../aarch64-none-elf/lib/libg.a(libc_a-fclose.o)
 .debug_line    0x0000000000014de0       0x83 /tools/arm-gnu-toolchain-13.2.Rel1-x86_64-aarch64-none-elf/bin/../lib/gcc/aarch64-none-elf/13.2.1/../../../../aarch64-none-elf/lib/libg.a(libc_a-memchr.o)
 .debug_line    0x0000000000014e63      0x1e3 /tools/arm-gnu-toolchain-13.2.Rel1-x86_64-aarch64-none-elf/bin/../lib/gcc/aarch64-none-elf/13.2.1/../../../../aarch64-none-elf/lib/libg.a(libc_a-wsetup.o)
 .debug_line    0x0000000000015046      0x2a0 /tools/arm-gnu-toolchain-13.2.Rel1-x86_64-aarch64-none-elf/bin/../lib/gcc/aarch64-none-elf/13.2.1/../../../../aarch64-none-elf/lib/libg.a(libc_a-makebuf.o)
 .debug_line    0x00000000000152e6      0x20c /tools/arm-gnu-toolchain-13.2.Rel1-x86_64-aarch64-none-elf/bin/../lib/gcc/aarch64-none-elf/13.2.1/../../../../aarch64-none-elf/lib/libg.a(libc_a-putc.o)
 .debug_line    0x00000000000154f2       0x93 /tools/arm-gnu-toolchain-13.2.Rel1-x86_64-aarch64-none-elf/bin/../lib/gcc/aarch64-none-elf/13.2.1/../../../../aarch64-none-elf/lib/libg.a(libc_a-mlock.o)
 .debug_line    0x0000000000015585       0xa2 /tools/arm-gnu-toolchain-13.2.Rel1-x86_64-aarch64-none-elf/bin/../lib/gcc/aarch64-none-elf/13.2.1/../../../../aarch64-none-elf/lib/libg.a(libc_a-wcsrtombs.o)
 .debug_line    0x0000000000015627     0x119b /tools/arm-gnu-toolchain-13.2.Rel1-x86_64-aarch64-none-elf/bin/../lib/gcc/aarch64-none-elf/13.2.1/../../../../aarch64-none-elf/lib/libg.a(libc_a-dtoa.o)
 .debug_line    0x00000000000167c2       0xa2 /tools/arm-gnu-toolchain-13.2.Rel1-x86_64-aarch64-none-elf/bin/../lib/gcc/aarch64-none-elf/13.2.1/../../../../aarch64-none-elf/lib/libg.a(libc_a-ctype_.o)
 .debug_line    0x0000000000016864       0xbd /tools/arm-gnu-toolchain-13.2.Rel1-x86_64-aarch64-none-elf/bin/../lib/gcc/aarch64-none-elf/13.2.1/../../../../aarch64-none-elf/lib/libg.a(libc_a-closer.o)
 .debug_line    0x0000000000016921      0x3e0 /tools/arm-gnu-toolchain-13.2.Rel1-x86_64-aarch64-none-elf/bin/../lib/gcc/aarch64-none-elf/13.2.1/../../../../aarch64-none-elf/lib/libg.a(libc_a-fflush.o)
 .debug_line    0x0000000000016d01       0xe3 /tools/arm-gnu-toolchain-13.2.Rel1-x86_64-aarch64-none-elf/bin/../lib/gcc/aarch64-none-elf/13.2.1/../../../../aarch64-none-elf/lib/libg.a(libm_a-s_frexp.o)
 .debug_line    0x0000000000016de4       0xa9 /tools/arm-gnu-toolchain-13.2.Rel1-x86_64-aarch64-none-elf/bin/../lib/gcc/aarch64-none-elf/13.2.1/../../../../aarch64-none-elf/lib/libg.a(libc_a-strlcpy.o)
 .debug_line    0x0000000000016e8d      0x39f /tools/arm-gnu-toolchain-13.2.Rel1-x86_64-aarch64-none-elf/bin/../lib/gcc/aarch64-none-elf/13.2.1/../../../../aarch64-none-elf/lib/libg.a(libc_a-strtol.o)
 .debug_line    0x000000000001722c      0x105 /tools/arm-gnu-toolchain-13.2.Rel1-x86_64-aarch64-none-elf/bin/../lib/gcc/aarch64-none-elf/13.2.1/../../../../aarch64-none-elf/lib/libg.a(libc_a-strncasecmp.o)
 .debug_line    0x0000000000017331      0x19c /tools/arm-gnu-toolchain-13.2.Rel1-x86_64-aarch64-none-elf/bin/../lib/gcc/aarch64-none-elf/13.2.1/../../../../aarch64-none-elf/lib/libg.a(libc_a-getenv_r.o)
 .debug_line    0x00000000000174cd       0xe6 /tools/arm-gnu-toolchain-13.2.Rel1-x86_64-aarch64-none-elf/bin/../lib/gcc/aarch64-none-elf/13.2.1/../../../../aarch64-none-elf/lib/libg.a(libc_a-strncpy.o)
 .debug_line    0x00000000000175b3       0xd6 /tools/arm-gnu-toolchain-13.2.Rel1-x86_64-aarch64-none-elf/bin/../lib/gcc/aarch64-none-elf/13.2.1/../../../../aarch64-none-elf/lib/libg.a(libc_a-fstatr.o)
 .debug_line    0x0000000000017689       0xbd /tools/arm-gnu-toolchain-13.2.Rel1-x86_64-aarch64-none-elf/bin/../lib/gcc/aarch64-none-elf/13.2.1/../../../../aarch64-none-elf/lib/libg.a(libc_a-isattyr.o)
 .debug_line    0x0000000000017746       0xbf /tools/arm-gnu-toolchain-13.2.Rel1-x86_64-aarch64-none-elf/bin/../lib/gcc/aarch64-none-elf/13.2.1/../../../../aarch64-none-elf/lib/libg.a(libc_a-lseekr.o)
 .debug_line    0x0000000000017805       0xd1 /tools/arm-gnu-toolchain-13.2.Rel1-x86_64-aarch64-none-elf/bin/../lib/gcc/aarch64-none-elf/13.2.1/../../../../aarch64-none-elf/lib/libg.a(libc_a-readr.o)
 .debug_line    0x00000000000178d6       0x7e /tools/arm-gnu-toolchain-13.2.Rel1-x86_64-aarch64-none-elf/bin/../lib/gcc/aarch64-none-elf/13.2.1/../../../../aarch64-none-elf/lib/libg.a(libc_a-strchr.o)
 .debug_line    0x0000000000017954       0x95 /tools/arm-gnu-toolchain-13.2.Rel1-x86_64-aarch64-none-elf/bin/../lib/gcc/aarch64-none-elf/13.2.1/../../../../aarch64-none-elf/lib/libg.a(libc_a-strcmp.o)
 .debug_line    0x00000000000179e9       0x96 /tools/arm-gnu-toolchain-13.2.Rel1-x86_64-aarch64-none-elf/bin/../lib/gcc/aarch64-none-elf/13.2.1/../../../../aarch64-none-elf/lib/libg.a(libc_a-strcpy.o)
 .debug_line    0x0000000000017a7f      0x2c1 /tools/arm-gnu-toolchain-13.2.Rel1-x86_64-aarch64-none-elf/bin/../lib/gcc/aarch64-none-elf/13.2.1/../../../../aarch64-none-elf/lib/libg.a(libc_a-fputwc.o)
 .debug_line    0x0000000000017d40      0x4a5 /tools/arm-gnu-toolchain-13.2.Rel1-x86_64-aarch64-none-elf/bin/../lib/gcc/aarch64-none-elf/13.2.1/../../../../aarch64-none-elf/lib/libg.a(libc_a-wctomb_r.o)
 .debug_line    0x00000000000181e5      0x53c /tools/arm-gnu-toolchain-13.2.Rel1-x86_64-aarch64-none-elf/bin/../lib/gcc/aarch64-none-elf/13.2.1/../../../../aarch64-none-elf/lib/libg.a(libc_a-fvwrite.o)
 .debug_line    0x0000000000018721       0xc0 /tools/arm-gnu-toolchain-13.2.Rel1-x86_64-aarch64-none-elf/bin/../lib/gcc/aarch64-none-elf/13.2.1/../../../../aarch64-none-elf/lib/libg.a(libc_a-strncmp.o)
 .debug_line    0x00000000000187e1      0x1cd /tools/arm-gnu-toolchain-13.2.Rel1-x86_64-aarch64-none-elf/bin/../lib/gcc/aarch64-none-elf/13.2.1/../../../../aarch64-none-elf/lib/libg.a(libc_a-wbuf.o)
 .debug_line    0x00000000000189ae      0x87b /tools/arm-gnu-toolchain-13.2.Rel1-x86_64-aarch64-none-elf/bin/../lib/gcc/aarch64-none-elf/13.2.1/../../../../aarch64-none-elf/lib/libg.a(libc_a-mbtowc_r.o)
 .debug_line    0x0000000000019229       0xe3 /tools/arm-gnu-toolchain-13.2.Rel1-x86_64-aarch64-none-elf/bin/../lib/gcc/aarch64-none-elf/13.2.1/../../../../aarch64-none-elf/lib/libg.a(libc_a-assert.o)
 .debug_line    0x000000000001930c       0xdb /tools/arm-gnu-toolchain-13.2.Rel1-x86_64-aarch64-none-elf/bin/../lib/gcc/aarch64-none-elf/13.2.1/../../../../aarch64-none-elf/lib/libg.a(libc_a-strcasecmp.o)
 .debug_line    0x00000000000193e7       0xa1 /tools/arm-gnu-toolchain-13.2.Rel1-x86_64-aarch64-none-elf/bin/../lib/gcc/aarch64-none-elf/13.2.1/../../../../aarch64-none-elf/lib/libg.a(libc_a-strcat.o)
 .debug_line    0x0000000000019488     0x133c /tools/arm-gnu-toolchain-13.2.Rel1-x86_64-aarch64-none-elf/bin/../lib/gcc/aarch64-none-elf/13.2.1/../../../../aarch64-none-elf/lib/libg.a(libc_a-mprec.o)
 .debug_line    0x000000000001a7c4      0x15b /tools/arm-gnu-toolchain-13.2.Rel1-x86_64-aarch64-none-elf/bin/../lib/gcc/aarch64-none-elf/13.2.1/../../../../aarch64-none-elf/lib/libg.a(libc_a-callocr.o)
 .debug_line    0x000000000001a91f      0x2a1 /tools/arm-gnu-toolchain-13.2.Rel1-x86_64-aarch64-none-elf/bin/../lib/gcc/aarch64-none-elf/13.2.1/../../../../aarch64-none-elf/lib/libg.a(libc_a-wcsnrtombs.o)
 .debug_line    0x000000000001abc0       0x3a /tools/arm-gnu-toolchain-13.2.Rel1-x86_64-aarch64-none-elf/bin/../lib/gcc/aarch64-none-elf/13.2.1/../../../../aarch64-none-elf/lib/libg.a(libc_a-environ.o)
 .debug_line    0x000000000001abfa      0x628 /tools/arm-gnu-toolchain-13.2.Rel1-x86_64-aarch64-none-elf/bin/../lib/gcc/aarch64-none-elf/13.2.1/../../../../aarch64-none-elf/lib/libg.a(libc_a-reallocr.o)
 .debug_line    0x000000000001b222       0x93 /tools/arm-gnu-toolchain-13.2.Rel1-x86_64-aarch64-none-elf/bin/../lib/gcc/aarch64-none-elf/13.2.1/../../../../aarch64-none-elf/lib/libg.a(libc_a-envlock.o)
 .debug_line    0x000000000001b2b5      0x10f /tools/arm-gnu-toolchain-13.2.Rel1-x86_64-aarch64-none-elf/bin/../lib/gcc/aarch64-none-elf/13.2.1/../../../../aarch64-none-elf/lib/libg.a(libc_a-fiprintf.o)
 .debug_line    0x000000000001b3c4       0x7f /tools/arm-gnu-toolchain-13.2.Rel1-x86_64-aarch64-none-elf/bin/../lib/gcc/aarch64-none-elf/13.2.1/../../../../aarch64-none-elf/lib/libg.a(libc_a-abort.o)
 .debug_line    0x000000000001b443      0x5d9 /tools/arm-gnu-toolchain-13.2.Rel1-x86_64-aarch64-none-elf/bin/../lib/gcc/aarch64-none-elf/13.2.1/../../../../aarch64-none-elf/lib/libg.a(libc_a-signal.o)
 .debug_line    0x000000000001ba1c       0xe5 /tools/arm-gnu-toolchain-13.2.Rel1-x86_64-aarch64-none-elf/bin/../lib/gcc/aarch64-none-elf/13.2.1/../../../../aarch64-none-elf/lib/libg.a(libc_a-signalr.o)
 .debug_line    0x000000000001bb01      0x7f9 /tools/arm-gnu-toolchain-13.2.Rel1-x86_64-aarch64-none-elf/bin/../lib/gcc/aarch64-none-elf/13.2.1/libgcc.a(trunctfdf2.o)
 .debug_line    0x000000000001c2fa       0x98 /tools/arm-gnu-toolchain-13.2.Rel1-x86_64-aarch64-none-elf/bin/../lib/gcc/aarch64-none-elf/13.2.1/libgcc.a(sfp-exceptions.o)

.debug_str      0x0000000000000000    0x1d097
 .debug_str     0x0000000000000000    0x1d097 CMakeFiles/freertos_kernel.elf.dir/main_cp1.c.o
                                        0x2e1 (size before relaxing)
 .debug_str     0x000000000001d097      0x239 gloss/CMakeFiles/freedom_metal.dir/freedom_metal.c.o
 .debug_str     0x000000000001d097      0x1a8 gloss/CMakeFiles/freedom_metal.dir/nanosleep.c.o
 .debug_str     0x000000000001d097      0x187 gloss/CMakeFiles/freedom_metal.dir/sys_access.c.o
 .debug_str     0x000000000001d097      0x181 gloss/CMakeFiles/freedom_metal.dir/sys_chdir.c.o
 .debug_str     0x000000000001d097      0x1a1 gloss/CMakeFiles/freedom_metal.dir/sys_chmod.c.o
 .debug_str     0x000000000001d097      0x1a9 gloss/CMakeFiles/freedom_metal.dir/sys_chown.c.o
 .debug_str     0x000000000001d097      0x1da gloss/CMakeFiles/freedom_metal.dir/sys_clock_gettime.c.o
 .debug_str     0x000000000001d097      0x181 gloss/CMakeFiles/freedom_metal.dir/sys_close.c.o
 .debug_str     0x000000000001d097      0x187 gloss/CMakeFiles/freedom_metal.dir/sys_execve.c.o
 .debug_str     0x000000000001d097      0x18e gloss/CMakeFiles/freedom_metal.dir/sys_exit.c.o
 .debug_str     0x000000000001d097      0x196 gloss/CMakeFiles/freedom_metal.dir/sys_faccessat.c.o
 .debug_str     0x000000000001d097      0x17b gloss/CMakeFiles/freedom_metal.dir/sys_fork.c.o
 .debug_str     0x000000000001d097      0x2bd gloss/CMakeFiles/freedom_metal.dir/sys_fstat.c.o
 .debug_str     0x000000000001d097      0x2cb gloss/CMakeFiles/freedom_metal.dir/sys_fstatat.c.o
 .debug_str     0x000000000001d097      0x1a7 gloss/CMakeFiles/freedom_metal.dir/sys_ftime.c.o
 .debug_str     0x000000000001d097      0x189 gloss/CMakeFiles/freedom_metal.dir/sys_getcwd.c.o
 .debug_str     0x000000000001d097      0x19b gloss/CMakeFiles/freedom_metal.dir/sys_getpid.c.o
 .debug_str     0x000000000001d097      0x1fa gloss/CMakeFiles/freedom_metal.dir/sys_gettimeofday.c.o
 .debug_str     0x000000000001d097      0x17a gloss/CMakeFiles/freedom_metal.dir/sys_isatty.c.o
 .debug_str     0x000000000001d097      0x17b gloss/CMakeFiles/freedom_metal.dir/sys_kill.c.o
 .debug_str     0x000000000001d097      0x18d gloss/CMakeFiles/freedom_metal.dir/sys_link.c.o
 .debug_str     0x000000000001d097      0x196 gloss/CMakeFiles/freedom_metal.dir/sys_lseek.c.o
 .debug_str     0x000000000001d097      0x2bd gloss/CMakeFiles/freedom_metal.dir/sys_lstat.c.o
 .debug_str     0x000000000001d097      0x18b gloss/CMakeFiles/freedom_metal.dir/sys_open.c.o
 .debug_str     0x000000000001d097      0x193 gloss/CMakeFiles/freedom_metal.dir/sys_openat.c.o
 .debug_str     0x000000000001d097      0x198 gloss/CMakeFiles/freedom_metal.dir/sys_read.c.o
 .debug_str     0x000000000001d097      0x1e0 gloss/CMakeFiles/freedom_metal.dir/sys_sbrk.c.o
 .debug_str     0x000000000001d097      0x17b gloss/CMakeFiles/freedom_metal.dir/sys_sysconf.c.o
 .debug_str     0x000000000001d097      0x218 gloss/CMakeFiles/freedom_metal.dir/sys_times.c.o
 .debug_str     0x000000000001d097      0x182 gloss/CMakeFiles/freedom_metal.dir/sys_unlink.c.o
 .debug_str     0x000000000001d097      0x18f gloss/CMakeFiles/freedom_metal.dir/sys_utime.c.o
 .debug_str     0x000000000001d097      0x182 gloss/CMakeFiles/freedom_metal.dir/sys_wait.c.o
 .debug_str     0x000000000001d097      0x1ad gloss/CMakeFiles/freedom_metal.dir/sys_write.c.o
 .debug_str     0x000000000001d097      0xf79 build/drivers/mailbox/CMakeFiles/mailbox.dir/mailbox.c.o
 .debug_str     0x000000000001d097      0x202 build/drivers/mailbox/CMakeFiles/mailbox.dir/mailbox_cb.c.o
 .debug_str     0x000000000001d097    0x289da build/drivers/pmu/CMakeFiles/pmu.dir/pmu.c.o
 .debug_str     0x000000000001d097      0x64f build/drivers/timer/dw_apb_timer/CMakeFiles/dw_apb_timer.dir/dw_apb_timer.c.o
 .debug_str     0x000000000001d097      0xb4a build/drivers/qspi/qspi_apb/CMakeFiles/qspi_apb.dir/qspi_apb.c.o
 .debug_str     0x000000000001d097      0x1a2 build/drivers/flash/CMakeFiles/flash.dir/mt25q_flash.c.o
 .debug_str     0x000000000001d097      0xc21 libfreertos_kernel.a(queue.c.o)
 .debug_str     0x000000000001d097     0x1a4a libfreertos_kernel.a(tasks.c.o)
 .debug_str     0x000000000001d097      0xabd libfreertos_kernel.a(timers.c.o)
 .debug_str     0x000000000001d097      0x5c1 libfreertos_kernel.a(heap_4.c.o)
 .debug_str     0x000000000001d097      0x380 libfreertos_kernel.a(list.c.o)
 .debug_str     0x000000000001d097      0xa0e portable/libfreertos_kernel_port.a(port.c.o)
 .debug_str     0x000000000001d097      0x1e0 build/drivers/common/libdriver.a(driver.c.o)
 .debug_str     0x000000000001d097      0x1fa build/drivers/common/libassert.a(assert.c.o)
 .debug_str     0x000000000001d097      0x383 build/drivers/common/libinterrupt.a(interrupt.c.o)
 .debug_str     0x000000000001d097      0x50e build/drivers/intc/libintc.a(gicv3.c.o)
 .debug_str     0x000000000001d097      0x1af build/drivers/intc/libintc.a(bakery_lock.c.o)
 .debug_str     0x000000000001d097      0x1ad portable/libfreertos_arch.a(prep_c.c.o)
 .debug_str     0x000000000001d097      0x348 libfreertos_kernel_config.a(FreeRTOS_tick_config.c.o)
 .debug_str     0x000000000001d097      0x32d portable/libsmp.a(smp.c.o)
 .debug_str     0x000000000001d097      0x1f9 build/common/arch/libcommon.a(printf.c.o)
 .debug_str     0x000000000001d097      0x1be build/drivers/psci/libpsci.a(psci.c.o)
 .debug_str     0x000000000001d097      0x7a1 portable/libmmu.a(mmu.c.o)
 .debug_str     0x000000000001d097      0x328 build/drivers/timer/generic_timer/libgeneric_timer.a(generic_timer.c.o)
 .debug_str     0x000000000001d097       0xe0 /tools/arm-gnu-toolchain-13.2.Rel1-x86_64-aarch64-none-elf/bin/../lib/gcc/aarch64-none-elf/13.2.1/../../../../aarch64-none-elf/lib/libg.a(libc_a-strlen.o)
 .debug_str     0x000000000001d097      0x41a /tools/arm-gnu-toolchain-13.2.Rel1-x86_64-aarch64-none-elf/bin/../lib/gcc/aarch64-none-elf/13.2.1/../../../../aarch64-none-elf/lib/libg.a(libc_a-errno.o)
 .debug_str     0x000000000001d097      0x483 /tools/arm-gnu-toolchain-13.2.Rel1-x86_64-aarch64-none-elf/bin/../lib/gcc/aarch64-none-elf/13.2.1/../../../../aarch64-none-elf/lib/libg.a(libc_a-printf.o)
 .debug_str     0x000000000001d097       0xe0 /tools/arm-gnu-toolchain-13.2.Rel1-x86_64-aarch64-none-elf/bin/../lib/gcc/aarch64-none-elf/13.2.1/../../../../aarch64-none-elf/lib/libg.a(libc_a-memcpy.o)
 .debug_str     0x000000000001d097      0x438 /tools/arm-gnu-toolchain-13.2.Rel1-x86_64-aarch64-none-elf/bin/../lib/gcc/aarch64-none-elf/13.2.1/../../../../aarch64-none-elf/lib/libg.a(libc_a-putchar.o)
 .debug_str     0x000000000001d097      0x43f /tools/arm-gnu-toolchain-13.2.Rel1-x86_64-aarch64-none-elf/bin/../lib/gcc/aarch64-none-elf/13.2.1/../../../../aarch64-none-elf/lib/libg.a(libc_a-reent.o)
 .debug_str     0x000000000001d097      0x424 /tools/arm-gnu-toolchain-13.2.Rel1-x86_64-aarch64-none-elf/bin/../lib/gcc/aarch64-none-elf/13.2.1/../../../../aarch64-none-elf/lib/libg.a(libc_a-impure.o)
 .debug_str     0x000000000001d097      0x6a7 /tools/arm-gnu-toolchain-13.2.Rel1-x86_64-aarch64-none-elf/bin/../lib/gcc/aarch64-none-elf/13.2.1/../../../../aarch64-none-elf/lib/libg.a(libc_a-findfp.o)
 .debug_str     0x000000000001d097       0xe0 /tools/arm-gnu-toolchain-13.2.Rel1-x86_64-aarch64-none-elf/bin/../lib/gcc/aarch64-none-elf/13.2.1/../../../../aarch64-none-elf/lib/libg.a(libc_a-memset.o)
 .debug_str     0x000000000001d097      0x587 /tools/arm-gnu-toolchain-13.2.Rel1-x86_64-aarch64-none-elf/bin/../lib/gcc/aarch64-none-elf/13.2.1/../../../../aarch64-none-elf/lib/libg.a(libc_a-freer.o)
 .debug_str     0x000000000001d097      0x48d /tools/arm-gnu-toolchain-13.2.Rel1-x86_64-aarch64-none-elf/bin/../lib/gcc/aarch64-none-elf/13.2.1/../../../../aarch64-none-elf/lib/libg.a(libc_a-stdio.o)
 .debug_str     0x000000000001d097      0x429 /tools/arm-gnu-toolchain-13.2.Rel1-x86_64-aarch64-none-elf/bin/../lib/gcc/aarch64-none-elf/13.2.1/../../../../aarch64-none-elf/lib/libg.a(libc_a-sbrkr.o)
 .debug_str     0x000000000001d097      0x430 /tools/arm-gnu-toolchain-13.2.Rel1-x86_64-aarch64-none-elf/bin/../lib/gcc/aarch64-none-elf/13.2.1/../../../../aarch64-none-elf/lib/libg.a(libc_a-fwalk.o)
 .debug_str     0x000000000001d097      0x425 /tools/arm-gnu-toolchain-13.2.Rel1-x86_64-aarch64-none-elf/bin/../lib/gcc/aarch64-none-elf/13.2.1/../../../../aarch64-none-elf/lib/libg.a(libc_a-writer.o)
 .debug_str     0x000000000001d097      0x9b4 /tools/arm-gnu-toolchain-13.2.Rel1-x86_64-aarch64-none-elf/bin/../lib/gcc/aarch64-none-elf/13.2.1/../../../../aarch64-none-elf/lib/libg.a(libc_a-vfprintf.o)
 .debug_str     0x000000000001d097      0x90d /tools/arm-gnu-toolchain-13.2.Rel1-x86_64-aarch64-none-elf/bin/../lib/gcc/aarch64-none-elf/13.2.1/../../../../aarch64-none-elf/lib/libg.a(libc_a-vfiprintf.o)
 .debug_str     0x000000000001d097      0x63d /tools/arm-gnu-toolchain-13.2.Rel1-x86_64-aarch64-none-elf/bin/../lib/gcc/aarch64-none-elf/13.2.1/../../../../aarch64-none-elf/lib/libg.a(libc_a-mallocr.o)
 .debug_str     0x000000000001d097      0x649 /tools/arm-gnu-toolchain-13.2.Rel1-x86_64-aarch64-none-elf/bin/../lib/gcc/aarch64-none-elf/13.2.1/../../../../aarch64-none-elf/lib/libg.a(libc_a-wcrtomb.o)
 .debug_str     0x000000000001d097      0x285 /tools/arm-gnu-toolchain-13.2.Rel1-x86_64-aarch64-none-elf/bin/../lib/gcc/aarch64-none-elf/13.2.1/../../../../aarch64-none-elf/lib/libg.a(libc_a-lock.o)
 .debug_str     0x000000000001d097      0x85e /tools/arm-gnu-toolchain-13.2.Rel1-x86_64-aarch64-none-elf/bin/../lib/gcc/aarch64-none-elf/13.2.1/../../../../aarch64-none-elf/lib/libg.a(libc_a-locale.o)
 .debug_str     0x000000000001d097      0x66b /tools/arm-gnu-toolchain-13.2.Rel1-x86_64-aarch64-none-elf/bin/../lib/gcc/aarch64-none-elf/13.2.1/../../../../aarch64-none-elf/lib/libg.a(libc_a-localeconv.o)
 .debug_str     0x000000000001d097      0x4e2 /tools/arm-gnu-toolchain-13.2.Rel1-x86_64-aarch64-none-elf/bin/../lib/gcc/aarch64-none-elf/13.2.1/../../../../aarch64-none-elf/lib/libg.a(libc_a-fclose.o)
 .debug_str     0x000000000001d097       0xe0 /tools/arm-gnu-toolchain-13.2.Rel1-x86_64-aarch64-none-elf/bin/../lib/gcc/aarch64-none-elf/13.2.1/../../../../aarch64-none-elf/lib/libg.a(libc_a-memchr.o)
 .debug_str     0x000000000001d097      0x450 /tools/arm-gnu-toolchain-13.2.Rel1-x86_64-aarch64-none-elf/bin/../lib/gcc/aarch64-none-elf/13.2.1/../../../../aarch64-none-elf/lib/libg.a(libc_a-wsetup.o)
 .debug_str     0x000000000001d097      0x5a1 /tools/arm-gnu-toolchain-13.2.Rel1-x86_64-aarch64-none-elf/bin/../lib/gcc/aarch64-none-elf/13.2.1/../../../../aarch64-none-elf/lib/libg.a(libc_a-makebuf.o)
 .debug_str     0x000000000001d097      0x4a6 /tools/arm-gnu-toolchain-13.2.Rel1-x86_64-aarch64-none-elf/bin/../lib/gcc/aarch64-none-elf/13.2.1/../../../../aarch64-none-elf/lib/libg.a(libc_a-putc.o)
 .debug_str     0x000000000001d097      0x4a1 /tools/arm-gnu-toolchain-13.2.Rel1-x86_64-aarch64-none-elf/bin/../lib/gcc/aarch64-none-elf/13.2.1/../../../../aarch64-none-elf/lib/libg.a(libc_a-mlock.o)
 .debug_str     0x000000000001d097      0x450 /tools/arm-gnu-toolchain-13.2.Rel1-x86_64-aarch64-none-elf/bin/../lib/gcc/aarch64-none-elf/13.2.1/../../../../aarch64-none-elf/lib/libg.a(libc_a-wcsrtombs.o)
 .debug_str     0x000000000001d097      0x762 /tools/arm-gnu-toolchain-13.2.Rel1-x86_64-aarch64-none-elf/bin/../lib/gcc/aarch64-none-elf/13.2.1/../../../../aarch64-none-elf/lib/libg.a(libc_a-dtoa.o)
 .debug_str     0x000000000001d097      0x600 /tools/arm-gnu-toolchain-13.2.Rel1-x86_64-aarch64-none-elf/bin/../lib/gcc/aarch64-none-elf/13.2.1/../../../../aarch64-none-elf/lib/libg.a(libc_a-ctype_.o)
 .debug_str     0x000000000001d097      0x415 /tools/arm-gnu-toolchain-13.2.Rel1-x86_64-aarch64-none-elf/bin/../lib/gcc/aarch64-none-elf/13.2.1/../../../../aarch64-none-elf/lib/libg.a(libc_a-closer.o)
 .debug_str     0x000000000001d097      0x4ea /tools/arm-gnu-toolchain-13.2.Rel1-x86_64-aarch64-none-elf/bin/../lib/gcc/aarch64-none-elf/13.2.1/../../../../aarch64-none-elf/lib/libg.a(libc_a-fflush.o)
 .debug_str     0x000000000001d097      0x165 /tools/arm-gnu-toolchain-13.2.Rel1-x86_64-aarch64-none-elf/bin/../lib/gcc/aarch64-none-elf/13.2.1/../../../../aarch64-none-elf/lib/libg.a(libm_a-s_frexp.o)
 .debug_str     0x000000000001d097      0x120 /tools/arm-gnu-toolchain-13.2.Rel1-x86_64-aarch64-none-elf/bin/../lib/gcc/aarch64-none-elf/13.2.1/../../../../aarch64-none-elf/lib/libg.a(libc_a-strlcpy.o)
 .debug_str     0x000000000001d097      0x69f /tools/arm-gnu-toolchain-13.2.Rel1-x86_64-aarch64-none-elf/bin/../lib/gcc/aarch64-none-elf/13.2.1/../../../../aarch64-none-elf/lib/libg.a(libc_a-strtol.o)
 .debug_str     0x000000000001d097      0x104 /tools/arm-gnu-toolchain-13.2.Rel1-x86_64-aarch64-none-elf/bin/../lib/gcc/aarch64-none-elf/13.2.1/../../../../aarch64-none-elf/lib/libg.a(libc_a-strncasecmp.o)
 .debug_str     0x000000000001d097      0x46a /tools/arm-gnu-toolchain-13.2.Rel1-x86_64-aarch64-none-elf/bin/../lib/gcc/aarch64-none-elf/13.2.1/../../../../aarch64-none-elf/lib/libg.a(libc_a-getenv_r.o)
 .debug_str     0x000000000001d097      0x137 /tools/arm-gnu-toolchain-13.2.Rel1-x86_64-aarch64-none-elf/bin/../lib/gcc/aarch64-none-elf/13.2.1/../../../../aarch64-none-elf/lib/libg.a(libc_a-strncpy.o)
 .debug_str     0x000000000001d097      0x557 /tools/arm-gnu-toolchain-13.2.Rel1-x86_64-aarch64-none-elf/bin/../lib/gcc/aarch64-none-elf/13.2.1/../../../../aarch64-none-elf/lib/libg.a(libc_a-fstatr.o)
 .debug_str     0x000000000001d097      0x41e /tools/arm-gnu-toolchain-13.2.Rel1-x86_64-aarch64-none-elf/bin/../lib/gcc/aarch64-none-elf/13.2.1/../../../../aarch64-none-elf/lib/libg.a(libc_a-isattyr.o)
 .debug_str     0x000000000001d097      0x423 /tools/arm-gnu-toolchain-13.2.Rel1-x86_64-aarch64-none-elf/bin/../lib/gcc/aarch64-none-elf/13.2.1/../../../../aarch64-none-elf/lib/libg.a(libc_a-lseekr.o)
 .debug_str     0x000000000001d097      0x424 /tools/arm-gnu-toolchain-13.2.Rel1-x86_64-aarch64-none-elf/bin/../lib/gcc/aarch64-none-elf/13.2.1/../../../../aarch64-none-elf/lib/libg.a(libc_a-readr.o)
 .debug_str     0x000000000001d097       0xe0 /tools/arm-gnu-toolchain-13.2.Rel1-x86_64-aarch64-none-elf/bin/../lib/gcc/aarch64-none-elf/13.2.1/../../../../aarch64-none-elf/lib/libg.a(libc_a-strchr.o)
 .debug_str     0x000000000001d097       0xe0 /tools/arm-gnu-toolchain-13.2.Rel1-x86_64-aarch64-none-elf/bin/../lib/gcc/aarch64-none-elf/13.2.1/../../../../aarch64-none-elf/lib/libg.a(libc_a-strcmp.o)
 .debug_str     0x000000000001d097       0xe0 /tools/arm-gnu-toolchain-13.2.Rel1-x86_64-aarch64-none-elf/bin/../lib/gcc/aarch64-none-elf/13.2.1/../../../../aarch64-none-elf/lib/libg.a(libc_a-strcpy.o)
 .debug_str     0x000000000001d097      0x4e4 /tools/arm-gnu-toolchain-13.2.Rel1-x86_64-aarch64-none-elf/bin/../lib/gcc/aarch64-none-elf/13.2.1/../../../../aarch64-none-elf/lib/libg.a(libc_a-fputwc.o)
 .debug_str     0x000000000001d097      0x68d /tools/arm-gnu-toolchain-13.2.Rel1-x86_64-aarch64-none-elf/bin/../lib/gcc/aarch64-none-elf/13.2.1/../../../../aarch64-none-elf/lib/libg.a(libc_a-wctomb_r.o)
 .debug_str     0x000000000001d097      0x4c2 /tools/arm-gnu-toolchain-13.2.Rel1-x86_64-aarch64-none-elf/bin/../lib/gcc/aarch64-none-elf/13.2.1/../../../../aarch64-none-elf/lib/libg.a(libc_a-fvwrite.o)
 .debug_str     0x000000000001d097       0xe2 /tools/arm-gnu-toolchain-13.2.Rel1-x86_64-aarch64-none-elf/bin/../lib/gcc/aarch64-none-elf/13.2.1/../../../../aarch64-none-elf/lib/libg.a(libc_a-strncmp.o)
 .debug_str     0x000000000001d097      0x457 /tools/arm-gnu-toolchain-13.2.Rel1-x86_64-aarch64-none-elf/bin/../lib/gcc/aarch64-none-elf/13.2.1/../../../../aarch64-none-elf/lib/libg.a(libc_a-wbuf.o)
 .debug_str     0x000000000001d097      0x76a /tools/arm-gnu-toolchain-13.2.Rel1-x86_64-aarch64-none-elf/bin/../lib/gcc/aarch64-none-elf/13.2.1/../../../../aarch64-none-elf/lib/libg.a(libc_a-mbtowc_r.o)
 .debug_str     0x000000000001d097      0x457 /tools/arm-gnu-toolchain-13.2.Rel1-x86_64-aarch64-none-elf/bin/../lib/gcc/aarch64-none-elf/13.2.1/../../../../aarch64-none-elf/lib/libg.a(libc_a-assert.o)
 .debug_str     0x000000000001d097       0xfc /tools/arm-gnu-toolchain-13.2.Rel1-x86_64-aarch64-none-elf/bin/../lib/gcc/aarch64-none-elf/13.2.1/../../../../aarch64-none-elf/lib/libg.a(libc_a-strcasecmp.o)
 .debug_str     0x000000000001d097      0x119 /tools/arm-gnu-toolchain-13.2.Rel1-x86_64-aarch64-none-elf/bin/../lib/gcc/aarch64-none-elf/13.2.1/../../../../aarch64-none-elf/lib/libg.a(libc_a-strcat.o)
 .debug_str     0x000000000001d097      0x71b /tools/arm-gnu-toolchain-13.2.Rel1-x86_64-aarch64-none-elf/bin/../lib/gcc/aarch64-none-elf/13.2.1/../../../../aarch64-none-elf/lib/libg.a(libc_a-mprec.o)
 .debug_str     0x000000000001d097      0x46f /tools/arm-gnu-toolchain-13.2.Rel1-x86_64-aarch64-none-elf/bin/../lib/gcc/aarch64-none-elf/13.2.1/../../../../aarch64-none-elf/lib/libg.a(libc_a-callocr.o)
 .debug_str     0x000000000001d097      0x666 /tools/arm-gnu-toolchain-13.2.Rel1-x86_64-aarch64-none-elf/bin/../lib/gcc/aarch64-none-elf/13.2.1/../../../../aarch64-none-elf/lib/libg.a(libc_a-wcsnrtombs.o)
 .debug_str     0x000000000001d097       0x96 /tools/arm-gnu-toolchain-13.2.Rel1-x86_64-aarch64-none-elf/bin/../lib/gcc/aarch64-none-elf/13.2.1/../../../../aarch64-none-elf/lib/libg.a(libc_a-environ.o)
 .debug_str     0x000000000001d097      0x50f /tools/arm-gnu-toolchain-13.2.Rel1-x86_64-aarch64-none-elf/bin/../lib/gcc/aarch64-none-elf/13.2.1/../../../../aarch64-none-elf/lib/libg.a(libc_a-reallocr.o)
 .debug_str     0x000000000001d097      0x495 /tools/arm-gnu-toolchain-13.2.Rel1-x86_64-aarch64-none-elf/bin/../lib/gcc/aarch64-none-elf/13.2.1/../../../../aarch64-none-elf/lib/libg.a(libc_a-envlock.o)
 .debug_str     0x000000000001d097      0x488 /tools/arm-gnu-toolchain-13.2.Rel1-x86_64-aarch64-none-elf/bin/../lib/gcc/aarch64-none-elf/13.2.1/../../../../aarch64-none-elf/lib/libg.a(libc_a-fiprintf.o)
 .debug_str     0x000000000001d097      0x112 /tools/arm-gnu-toolchain-13.2.Rel1-x86_64-aarch64-none-elf/bin/../lib/gcc/aarch64-none-elf/13.2.1/../../../../aarch64-none-elf/lib/libg.a(libc_a-abort.o)
 .debug_str     0x000000000001d097      0x4a5 /tools/arm-gnu-toolchain-13.2.Rel1-x86_64-aarch64-none-elf/bin/../lib/gcc/aarch64-none-elf/13.2.1/../../../../aarch64-none-elf/lib/libg.a(libc_a-signal.o)
 .debug_str     0x000000000001d097      0x43a /tools/arm-gnu-toolchain-13.2.Rel1-x86_64-aarch64-none-elf/bin/../lib/gcc/aarch64-none-elf/13.2.1/../../../../aarch64-none-elf/lib/libg.a(libc_a-signalr.o)
 .debug_str     0x000000000001d097      0x252 /tools/arm-gnu-toolchain-13.2.Rel1-x86_64-aarch64-none-elf/bin/../lib/gcc/aarch64-none-elf/13.2.1/libgcc.a(trunctfdf2.o)
 .debug_str     0x000000000001d097      0x11c /tools/arm-gnu-toolchain-13.2.Rel1-x86_64-aarch64-none-elf/bin/../lib/gcc/aarch64-none-elf/13.2.1/libgcc.a(sfp-exceptions.o)

.debug_line_str
                0x0000000000000000     0x3fbc
 .debug_line_str
                0x0000000000000000     0x3fbc CMakeFiles/freertos_kernel.elf.dir/main_cp1.c.o
                                        0x3c9 (size before relaxing)
 .debug_line_str
                0x0000000000003fbc      0x1db gloss/CMakeFiles/freedom_metal.dir/freedom_metal.c.o
 .debug_line_str
                0x0000000000003fbc      0x1cf gloss/CMakeFiles/freedom_metal.dir/nanosleep.c.o
 .debug_line_str
                0x0000000000003fbc      0x1bb gloss/CMakeFiles/freedom_metal.dir/sys_access.c.o
 .debug_line_str
                0x0000000000003fbc      0x1b8 gloss/CMakeFiles/freedom_metal.dir/sys_chdir.c.o
 .debug_line_str
                0x0000000000003fbc      0x236 gloss/CMakeFiles/freedom_metal.dir/sys_chmod.c.o
 .debug_line_str
                0x0000000000003fbc      0x1c9 gloss/CMakeFiles/freedom_metal.dir/sys_chown.c.o
 .debug_line_str
                0x0000000000003fbc      0x253 gloss/CMakeFiles/freedom_metal.dir/sys_clock_gettime.c.o
 .debug_line_str
                0x0000000000003fbc      0x1b8 gloss/CMakeFiles/freedom_metal.dir/sys_close.c.o
 .debug_line_str
                0x0000000000003fbc      0x1bb gloss/CMakeFiles/freedom_metal.dir/sys_execve.c.o
 .debug_line_str
                0x0000000000003fbc      0x1b1 gloss/CMakeFiles/freedom_metal.dir/sys_exit.c.o
 .debug_line_str
                0x0000000000003fbc      0x1c4 gloss/CMakeFiles/freedom_metal.dir/sys_faccessat.c.o
 .debug_line_str
                0x0000000000003fbc      0x1b5 gloss/CMakeFiles/freedom_metal.dir/sys_fork.c.o
 .debug_line_str
                0x0000000000003fbc      0x254 gloss/CMakeFiles/freedom_metal.dir/sys_fstat.c.o
 .debug_line_str
                0x0000000000003fbc      0x25a gloss/CMakeFiles/freedom_metal.dir/sys_fstatat.c.o
 .debug_line_str
                0x0000000000003fbc      0x1cb gloss/CMakeFiles/freedom_metal.dir/sys_ftime.c.o
 .debug_line_str
                0x0000000000003fbc      0x227 gloss/CMakeFiles/freedom_metal.dir/sys_getcwd.c.o
 .debug_line_str
                0x0000000000003fbc      0x28f gloss/CMakeFiles/freedom_metal.dir/sys_getpid.c.o
 .debug_line_str
                0x0000000000003fbc      0x235 gloss/CMakeFiles/freedom_metal.dir/sys_gettimeofday.c.o
 .debug_line_str
                0x0000000000003fbc      0x15b gloss/CMakeFiles/freedom_metal.dir/sys_isatty.c.o
 .debug_line_str
                0x0000000000003fbc      0x1b5 gloss/CMakeFiles/freedom_metal.dir/sys_kill.c.o
 .debug_line_str
                0x0000000000003fbc      0x1b5 gloss/CMakeFiles/freedom_metal.dir/sys_link.c.o
 .debug_line_str
                0x0000000000003fbc      0x1c9 gloss/CMakeFiles/freedom_metal.dir/sys_lseek.c.o
 .debug_line_str
                0x0000000000003fbc      0x254 gloss/CMakeFiles/freedom_metal.dir/sys_lstat.c.o
 .debug_line_str
                0x0000000000003fbc      0x1b5 gloss/CMakeFiles/freedom_metal.dir/sys_open.c.o
 .debug_line_str
                0x0000000000003fbc      0x1bb gloss/CMakeFiles/freedom_metal.dir/sys_openat.c.o
 .debug_line_str
                0x0000000000003fbc      0x28e gloss/CMakeFiles/freedom_metal.dir/sys_read.c.o
 .debug_line_str
                0x0000000000003fbc      0x21d gloss/CMakeFiles/freedom_metal.dir/sys_sbrk.c.o
 .debug_line_str
                0x0000000000003fbc      0x15e gloss/CMakeFiles/freedom_metal.dir/sys_sysconf.c.o
 .debug_line_str
                0x0000000000003fbc      0x21c gloss/CMakeFiles/freedom_metal.dir/sys_times.c.o
 .debug_line_str
                0x0000000000003fbc      0x1bb gloss/CMakeFiles/freedom_metal.dir/sys_unlink.c.o
 .debug_line_str
                0x0000000000003fbc      0x1b8 gloss/CMakeFiles/freedom_metal.dir/sys_utime.c.o
 .debug_line_str
                0x0000000000003fbc      0x1b5 gloss/CMakeFiles/freedom_metal.dir/sys_wait.c.o
 .debug_line_str
                0x0000000000003fbc      0x2ed gloss/CMakeFiles/freedom_metal.dir/sys_write.c.o
 .debug_line_str
                0x0000000000003fbc      0x2e6 build/drivers/mailbox/CMakeFiles/mailbox.dir/mailbox.c.o
 .debug_line_str
                0x0000000000003fbc      0x1d8 build/drivers/mailbox/CMakeFiles/mailbox.dir/mailbox_cb.c.o
 .debug_line_str
                0x0000000000003fbc      0x217 build/drivers/pmu/CMakeFiles/pmu.dir/pmu.c.o
 .debug_line_str
                0x0000000000003fbc      0x3db build/drivers/timer/dw_apb_timer/CMakeFiles/dw_apb_timer.dir/dw_apb_timer.c.o
 .debug_line_str
                0x0000000000003fbc      0x303 build/drivers/qspi/qspi_apb/CMakeFiles/qspi_apb.dir/qspi_apb.c.o
 .debug_line_str
                0x0000000000003fbc      0x27e build/drivers/flash/CMakeFiles/flash.dir/mt25q_flash.c.o
 .debug_line_str
                0x0000000000003fbc      0x46b libfreertos_kernel.a(queue.c.o)
 .debug_line_str
                0x0000000000003fbc      0x4f4 libfreertos_kernel.a(tasks.c.o)
 .debug_line_str
                0x0000000000003fbc      0x41a libfreertos_kernel.a(timers.c.o)
 .debug_line_str
                0x0000000000003fbc      0x481 libfreertos_kernel.a(heap_4.c.o)
 .debug_line_str
                0x0000000000003fbc      0x30e libfreertos_kernel.a(list.c.o)
 .debug_line_str
                0x0000000000003fbc      0x4b3 portable/libfreertos_kernel_port.a(port.c.o)
 .debug_line_str
                0x0000000000003fbc      0x1cb build/drivers/common/libdriver.a(driver.c.o)
 .debug_line_str
                0x0000000000003fbc      0x2f4 build/drivers/common/libassert.a(assert.c.o)
 .debug_line_str
                0x0000000000003fbc      0x27c build/drivers/common/libinterrupt.a(interrupt.c.o)
 .debug_line_str
                0x0000000000003fbc      0x32f build/drivers/intc/libintc.a(gicv3.c.o)
 .debug_line_str
                0x0000000000003fbc      0x245 build/drivers/intc/libintc.a(bakery_lock.c.o)
 .debug_line_str
                0x0000000000003fbc      0x2a9 portable/libfreertos_arch.a(prep_c.c.o)
 .debug_line_str
                0x0000000000003fbc      0x437 libfreertos_kernel_config.a(FreeRTOS_tick_config.c.o)
 .debug_line_str
                0x0000000000003fbc      0x3f2 portable/libsmp.a(smp.c.o)
 .debug_line_str
                0x0000000000003fbc      0x1cb build/common/arch/libcommon.a(printf.c.o)
 .debug_line_str
                0x0000000000003fbc      0x21f build/drivers/psci/libpsci.a(psci.c.o)
 .debug_line_str
                0x0000000000003fbc      0x361 portable/libmmu.a(mmu.c.o)
 .debug_line_str
                0x0000000000003fbc      0x2bc build/drivers/timer/generic_timer/libgeneric_timer.a(generic_timer.c.o)
 .debug_line_str
                0x0000000000003fbc       0xcb /tools/arm-gnu-toolchain-13.2.Rel1-x86_64-aarch64-none-elf/bin/../lib/gcc/aarch64-none-elf/13.2.1/../../../../aarch64-none-elf/lib/libg.a(libc_a-strlen.o)
 .debug_line_str
                0x0000000000003fbc      0x261 /tools/arm-gnu-toolchain-13.2.Rel1-x86_64-aarch64-none-elf/bin/../lib/gcc/aarch64-none-elf/13.2.1/../../../../aarch64-none-elf/lib/libg.a(libc_a-errno.o)
 .debug_line_str
                0x0000000000003fbc      0x2cb /tools/arm-gnu-toolchain-13.2.Rel1-x86_64-aarch64-none-elf/bin/../lib/gcc/aarch64-none-elf/13.2.1/../../../../aarch64-none-elf/lib/libg.a(libc_a-printf.o)
 .debug_line_str
                0x0000000000003fbc       0xcb /tools/arm-gnu-toolchain-13.2.Rel1-x86_64-aarch64-none-elf/bin/../lib/gcc/aarch64-none-elf/13.2.1/../../../../aarch64-none-elf/lib/libg.a(libc_a-memcpy.o)
 .debug_line_str
                0x0000000000003fbc      0x2ba /tools/arm-gnu-toolchain-13.2.Rel1-x86_64-aarch64-none-elf/bin/../lib/gcc/aarch64-none-elf/13.2.1/../../../../aarch64-none-elf/lib/libg.a(libc_a-putchar.o)
 .debug_line_str
                0x0000000000003fbc      0x2b5 /tools/arm-gnu-toolchain-13.2.Rel1-x86_64-aarch64-none-elf/bin/../lib/gcc/aarch64-none-elf/13.2.1/../../../../aarch64-none-elf/lib/libg.a(libc_a-reent.o)
 .debug_line_str
                0x0000000000003fbc      0x253 /tools/arm-gnu-toolchain-13.2.Rel1-x86_64-aarch64-none-elf/bin/../lib/gcc/aarch64-none-elf/13.2.1/../../../../aarch64-none-elf/lib/libg.a(libc_a-impure.o)
 .debug_line_str
                0x0000000000003fbc      0x2d1 /tools/arm-gnu-toolchain-13.2.Rel1-x86_64-aarch64-none-elf/bin/../lib/gcc/aarch64-none-elf/13.2.1/../../../../aarch64-none-elf/lib/libg.a(libc_a-findfp.o)
 .debug_line_str
                0x0000000000003fbc       0xcb /tools/arm-gnu-toolchain-13.2.Rel1-x86_64-aarch64-none-elf/bin/../lib/gcc/aarch64-none-elf/13.2.1/../../../../aarch64-none-elf/lib/libg.a(libc_a-memset.o)
 .debug_line_str
                0x0000000000003fbc      0x2b9 /tools/arm-gnu-toolchain-13.2.Rel1-x86_64-aarch64-none-elf/bin/../lib/gcc/aarch64-none-elf/13.2.1/../../../../aarch64-none-elf/lib/libg.a(libc_a-freer.o)
 .debug_line_str
                0x0000000000003fbc      0x341 /tools/arm-gnu-toolchain-13.2.Rel1-x86_64-aarch64-none-elf/bin/../lib/gcc/aarch64-none-elf/13.2.1/../../../../aarch64-none-elf/lib/libg.a(libc_a-stdio.o)
 .debug_line_str
                0x0000000000003fbc      0x2bd /tools/arm-gnu-toolchain-13.2.Rel1-x86_64-aarch64-none-elf/bin/../lib/gcc/aarch64-none-elf/13.2.1/../../../../aarch64-none-elf/lib/libg.a(libc_a-sbrkr.o)
 .debug_line_str
                0x0000000000003fbc      0x2b4 /tools/arm-gnu-toolchain-13.2.Rel1-x86_64-aarch64-none-elf/bin/../lib/gcc/aarch64-none-elf/13.2.1/../../../../aarch64-none-elf/lib/libg.a(libc_a-fwalk.o)
 .debug_line_str
                0x0000000000003fbc      0x345 /tools/arm-gnu-toolchain-13.2.Rel1-x86_64-aarch64-none-elf/bin/../lib/gcc/aarch64-none-elf/13.2.1/../../../../aarch64-none-elf/lib/libg.a(libc_a-writer.o)
 .debug_line_str
                0x0000000000003fbc      0x407 /tools/arm-gnu-toolchain-13.2.Rel1-x86_64-aarch64-none-elf/bin/../lib/gcc/aarch64-none-elf/13.2.1/../../../../aarch64-none-elf/lib/libg.a(libc_a-vfprintf.o)
 .debug_line_str
                0x0000000000003fbc      0x3f7 /tools/arm-gnu-toolchain-13.2.Rel1-x86_64-aarch64-none-elf/bin/../lib/gcc/aarch64-none-elf/13.2.1/../../../../aarch64-none-elf/lib/libg.a(libc_a-vfiprintf.o)
 .debug_line_str
                0x0000000000003fbc      0x2bd /tools/arm-gnu-toolchain-13.2.Rel1-x86_64-aarch64-none-elf/bin/../lib/gcc/aarch64-none-elf/13.2.1/../../../../aarch64-none-elf/lib/libg.a(libc_a-mallocr.o)
 .debug_line_str
                0x0000000000003fbc      0x32d /tools/arm-gnu-toolchain-13.2.Rel1-x86_64-aarch64-none-elf/bin/../lib/gcc/aarch64-none-elf/13.2.1/../../../../aarch64-none-elf/lib/libg.a(libc_a-wcrtomb.o)
 .debug_line_str
                0x0000000000003fbc      0x1e1 /tools/arm-gnu-toolchain-13.2.Rel1-x86_64-aarch64-none-elf/bin/../lib/gcc/aarch64-none-elf/13.2.1/../../../../aarch64-none-elf/lib/libg.a(libc_a-lock.o)
 .debug_line_str
                0x0000000000003fbc      0x356 /tools/arm-gnu-toolchain-13.2.Rel1-x86_64-aarch64-none-elf/bin/../lib/gcc/aarch64-none-elf/13.2.1/../../../../aarch64-none-elf/lib/libg.a(libc_a-locale.o)
 .debug_line_str
                0x0000000000003fbc      0x2da /tools/arm-gnu-toolchain-13.2.Rel1-x86_64-aarch64-none-elf/bin/../lib/gcc/aarch64-none-elf/13.2.1/../../../../aarch64-none-elf/lib/libg.a(libc_a-localeconv.o)
 .debug_line_str
                0x0000000000003fbc      0x2c8 /tools/arm-gnu-toolchain-13.2.Rel1-x86_64-aarch64-none-elf/bin/../lib/gcc/aarch64-none-elf/13.2.1/../../../../aarch64-none-elf/lib/libg.a(libc_a-fclose.o)
 .debug_line_str
                0x0000000000003fbc       0xcb /tools/arm-gnu-toolchain-13.2.Rel1-x86_64-aarch64-none-elf/bin/../lib/gcc/aarch64-none-elf/13.2.1/../../../../aarch64-none-elf/lib/libg.a(libc_a-memchr.o)
 .debug_line_str
                0x0000000000003fbc      0x2c8 /tools/arm-gnu-toolchain-13.2.Rel1-x86_64-aarch64-none-elf/bin/../lib/gcc/aarch64-none-elf/13.2.1/../../../../aarch64-none-elf/lib/libg.a(libc_a-wsetup.o)
 .debug_line_str
                0x0000000000003fbc      0x35d /tools/arm-gnu-toolchain-13.2.Rel1-x86_64-aarch64-none-elf/bin/../lib/gcc/aarch64-none-elf/13.2.1/../../../../aarch64-none-elf/lib/libg.a(libc_a-makebuf.o)
 .debug_line_str
                0x0000000000003fbc      0x2b9 /tools/arm-gnu-toolchain-13.2.Rel1-x86_64-aarch64-none-elf/bin/../lib/gcc/aarch64-none-elf/13.2.1/../../../../aarch64-none-elf/lib/libg.a(libc_a-putc.o)
 .debug_line_str
                0x0000000000003fbc      0x2b7 /tools/arm-gnu-toolchain-13.2.Rel1-x86_64-aarch64-none-elf/bin/../lib/gcc/aarch64-none-elf/13.2.1/../../../../aarch64-none-elf/lib/libg.a(libc_a-mlock.o)
 .debug_line_str
                0x0000000000003fbc      0x2c2 /tools/arm-gnu-toolchain-13.2.Rel1-x86_64-aarch64-none-elf/bin/../lib/gcc/aarch64-none-elf/13.2.1/../../../../aarch64-none-elf/lib/libg.a(libc_a-wcsrtombs.o)
 .debug_line_str
                0x0000000000003fbc      0x3b3 /tools/arm-gnu-toolchain-13.2.Rel1-x86_64-aarch64-none-elf/bin/../lib/gcc/aarch64-none-elf/13.2.1/../../../../aarch64-none-elf/lib/libg.a(libc_a-dtoa.o)
 .debug_line_str
                0x0000000000003fbc      0x32f /tools/arm-gnu-toolchain-13.2.Rel1-x86_64-aarch64-none-elf/bin/../lib/gcc/aarch64-none-elf/13.2.1/../../../../aarch64-none-elf/lib/libg.a(libc_a-ctype_.o)
 .debug_line_str
                0x0000000000003fbc      0x2c0 /tools/arm-gnu-toolchain-13.2.Rel1-x86_64-aarch64-none-elf/bin/../lib/gcc/aarch64-none-elf/13.2.1/../../../../aarch64-none-elf/lib/libg.a(libc_a-closer.o)
 .debug_line_str
                0x0000000000003fbc      0x2c8 /tools/arm-gnu-toolchain-13.2.Rel1-x86_64-aarch64-none-elf/bin/../lib/gcc/aarch64-none-elf/13.2.1/../../../../aarch64-none-elf/lib/libg.a(libc_a-fflush.o)
 .debug_line_str
                0x0000000000003fbc      0x2ad /tools/arm-gnu-toolchain-13.2.Rel1-x86_64-aarch64-none-elf/bin/../lib/gcc/aarch64-none-elf/13.2.1/../../../../aarch64-none-elf/lib/libg.a(libm_a-s_frexp.o)
 .debug_line_str
                0x0000000000003fbc      0x24e /tools/arm-gnu-toolchain-13.2.Rel1-x86_64-aarch64-none-elf/bin/../lib/gcc/aarch64-none-elf/13.2.1/../../../../aarch64-none-elf/lib/libg.a(libc_a-strlcpy.o)
 .debug_line_str
                0x0000000000003fbc      0x34d /tools/arm-gnu-toolchain-13.2.Rel1-x86_64-aarch64-none-elf/bin/../lib/gcc/aarch64-none-elf/13.2.1/../../../../aarch64-none-elf/lib/libg.a(libc_a-strtol.o)
 .debug_line_str
                0x0000000000003fbc      0x263 /tools/arm-gnu-toolchain-13.2.Rel1-x86_64-aarch64-none-elf/bin/../lib/gcc/aarch64-none-elf/13.2.1/../../../../aarch64-none-elf/lib/libg.a(libc_a-strncasecmp.o)
 .debug_line_str
                0x0000000000003fbc      0x2d3 /tools/arm-gnu-toolchain-13.2.Rel1-x86_64-aarch64-none-elf/bin/../lib/gcc/aarch64-none-elf/13.2.1/../../../../aarch64-none-elf/lib/libg.a(libc_a-getenv_r.o)
 .debug_line_str
                0x0000000000003fbc      0x24e /tools/arm-gnu-toolchain-13.2.Rel1-x86_64-aarch64-none-elf/bin/../lib/gcc/aarch64-none-elf/13.2.1/../../../../aarch64-none-elf/lib/libg.a(libc_a-strncpy.o)
 .debug_line_str
                0x0000000000003fbc      0x349 /tools/arm-gnu-toolchain-13.2.Rel1-x86_64-aarch64-none-elf/bin/../lib/gcc/aarch64-none-elf/13.2.1/../../../../aarch64-none-elf/lib/libg.a(libc_a-fstatr.o)
 .debug_line_str
                0x0000000000003fbc      0x2c3 /tools/arm-gnu-toolchain-13.2.Rel1-x86_64-aarch64-none-elf/bin/../lib/gcc/aarch64-none-elf/13.2.1/../../../../aarch64-none-elf/lib/libg.a(libc_a-isattyr.o)
 .debug_line_str
                0x0000000000003fbc      0x2c0 /tools/arm-gnu-toolchain-13.2.Rel1-x86_64-aarch64-none-elf/bin/../lib/gcc/aarch64-none-elf/13.2.1/../../../../aarch64-none-elf/lib/libg.a(libc_a-lseekr.o)
 .debug_line_str
                0x0000000000003fbc      0x342 /tools/arm-gnu-toolchain-13.2.Rel1-x86_64-aarch64-none-elf/bin/../lib/gcc/aarch64-none-elf/13.2.1/../../../../aarch64-none-elf/lib/libg.a(libc_a-readr.o)
 .debug_line_str
                0x0000000000003fbc       0xcb /tools/arm-gnu-toolchain-13.2.Rel1-x86_64-aarch64-none-elf/bin/../lib/gcc/aarch64-none-elf/13.2.1/../../../../aarch64-none-elf/lib/libg.a(libc_a-strchr.o)
 .debug_line_str
                0x0000000000003fbc       0xcb /tools/arm-gnu-toolchain-13.2.Rel1-x86_64-aarch64-none-elf/bin/../lib/gcc/aarch64-none-elf/13.2.1/../../../../aarch64-none-elf/lib/libg.a(libc_a-strcmp.o)
 .debug_line_str
                0x0000000000003fbc       0xcb /tools/arm-gnu-toolchain-13.2.Rel1-x86_64-aarch64-none-elf/bin/../lib/gcc/aarch64-none-elf/13.2.1/../../../../aarch64-none-elf/lib/libg.a(libc_a-strcpy.o)
 .debug_line_str
                0x0000000000003fbc      0x2d0 /tools/arm-gnu-toolchain-13.2.Rel1-x86_64-aarch64-none-elf/bin/../lib/gcc/aarch64-none-elf/13.2.1/../../../../aarch64-none-elf/lib/libg.a(libc_a-fputwc.o)
 .debug_line_str
                0x0000000000003fbc      0x339 /tools/arm-gnu-toolchain-13.2.Rel1-x86_64-aarch64-none-elf/bin/../lib/gcc/aarch64-none-elf/13.2.1/../../../../aarch64-none-elf/lib/libg.a(libc_a-wctomb_r.o)
 .debug_line_str
                0x0000000000003fbc      0x2d6 /tools/arm-gnu-toolchain-13.2.Rel1-x86_64-aarch64-none-elf/bin/../lib/gcc/aarch64-none-elf/13.2.1/../../../../aarch64-none-elf/lib/libg.a(libc_a-fvwrite.o)
 .debug_line_str
                0x0000000000003fbc       0xcc /tools/arm-gnu-toolchain-13.2.Rel1-x86_64-aarch64-none-elf/bin/../lib/gcc/aarch64-none-elf/13.2.1/../../../../aarch64-none-elf/lib/libg.a(libc_a-strncmp.o)
 .debug_line_str
                0x0000000000003fbc      0x2c3 /tools/arm-gnu-toolchain-13.2.Rel1-x86_64-aarch64-none-elf/bin/../lib/gcc/aarch64-none-elf/13.2.1/../../../../aarch64-none-elf/lib/libg.a(libc_a-wbuf.o)
 .debug_line_str
                0x0000000000003fbc      0x339 /tools/arm-gnu-toolchain-13.2.Rel1-x86_64-aarch64-none-elf/bin/../lib/gcc/aarch64-none-elf/13.2.1/../../../../aarch64-none-elf/lib/libg.a(libc_a-mbtowc_r.o)
 .debug_line_str
                0x0000000000003fbc      0x2cb /tools/arm-gnu-toolchain-13.2.Rel1-x86_64-aarch64-none-elf/bin/../lib/gcc/aarch64-none-elf/13.2.1/../../../../aarch64-none-elf/lib/libg.a(libc_a-assert.o)
 .debug_line_str
                0x0000000000003fbc      0x1fe /tools/arm-gnu-toolchain-13.2.Rel1-x86_64-aarch64-none-elf/bin/../lib/gcc/aarch64-none-elf/13.2.1/../../../../aarch64-none-elf/lib/libg.a(libc_a-strcasecmp.o)
 .debug_line_str
                0x0000000000003fbc      0x1e9 /tools/arm-gnu-toolchain-13.2.Rel1-x86_64-aarch64-none-elf/bin/../lib/gcc/aarch64-none-elf/13.2.1/../../../../aarch64-none-elf/lib/libg.a(libc_a-strcat.o)
 .debug_line_str
                0x0000000000003fbc      0x3b6 /tools/arm-gnu-toolchain-13.2.Rel1-x86_64-aarch64-none-elf/bin/../lib/gcc/aarch64-none-elf/13.2.1/../../../../aarch64-none-elf/lib/libg.a(libc_a-mprec.o)
 .debug_line_str
                0x0000000000003fbc      0x26a /tools/arm-gnu-toolchain-13.2.Rel1-x86_64-aarch64-none-elf/bin/../lib/gcc/aarch64-none-elf/13.2.1/../../../../aarch64-none-elf/lib/libg.a(libc_a-callocr.o)
 .debug_line_str
                0x0000000000003fbc      0x336 /tools/arm-gnu-toolchain-13.2.Rel1-x86_64-aarch64-none-elf/bin/../lib/gcc/aarch64-none-elf/13.2.1/../../../../aarch64-none-elf/lib/libg.a(libc_a-wcsnrtombs.o)
 .debug_line_str
                0x0000000000003fbc      0x190 /tools/arm-gnu-toolchain-13.2.Rel1-x86_64-aarch64-none-elf/bin/../lib/gcc/aarch64-none-elf/13.2.1/../../../../aarch64-none-elf/lib/libg.a(libc_a-environ.o)
 .debug_line_str
                0x0000000000003fbc      0x264 /tools/arm-gnu-toolchain-13.2.Rel1-x86_64-aarch64-none-elf/bin/../lib/gcc/aarch64-none-elf/13.2.1/../../../../aarch64-none-elf/lib/libg.a(libc_a-reallocr.o)
 .debug_line_str
                0x0000000000003fbc      0x2be /tools/arm-gnu-toolchain-13.2.Rel1-x86_64-aarch64-none-elf/bin/../lib/gcc/aarch64-none-elf/13.2.1/../../../../aarch64-none-elf/lib/libg.a(libc_a-envlock.o)
 .debug_line_str
                0x0000000000003fbc      0x2d1 /tools/arm-gnu-toolchain-13.2.Rel1-x86_64-aarch64-none-elf/bin/../lib/gcc/aarch64-none-elf/13.2.1/../../../../aarch64-none-elf/lib/libg.a(libc_a-fiprintf.o)
 .debug_line_str
                0x0000000000003fbc      0x24f /tools/arm-gnu-toolchain-13.2.Rel1-x86_64-aarch64-none-elf/bin/../lib/gcc/aarch64-none-elf/13.2.1/../../../../aarch64-none-elf/lib/libg.a(libc_a-abort.o)
 .debug_line_str
                0x0000000000003fbc      0x2d4 /tools/arm-gnu-toolchain-13.2.Rel1-x86_64-aarch64-none-elf/bin/../lib/gcc/aarch64-none-elf/13.2.1/../../../../aarch64-none-elf/lib/libg.a(libc_a-signal.o)
 .debug_line_str
                0x0000000000003fbc      0x2d4 /tools/arm-gnu-toolchain-13.2.Rel1-x86_64-aarch64-none-elf/bin/../lib/gcc/aarch64-none-elf/13.2.1/../../../../aarch64-none-elf/lib/libg.a(libc_a-signalr.o)
 .debug_line_str
                0x0000000000003fbc      0x199 /tools/arm-gnu-toolchain-13.2.Rel1-x86_64-aarch64-none-elf/bin/../lib/gcc/aarch64-none-elf/13.2.1/libgcc.a(trunctfdf2.o)
 .debug_line_str
                0x0000000000003fbc      0x193 /tools/arm-gnu-toolchain-13.2.Rel1-x86_64-aarch64-none-elf/bin/../lib/gcc/aarch64-none-elf/13.2.1/libgcc.a(sfp-exceptions.o)

.comment        0x0000000000000000       0x44
 .comment       0x0000000000000000       0x44 CMakeFiles/freertos_kernel.elf.dir/main_cp1.c.o
                                         0x45 (size before relaxing)
 .comment       0x0000000000000044       0x45 gloss/CMakeFiles/freedom_metal.dir/freedom_metal.c.o
 .comment       0x0000000000000044       0x45 gloss/CMakeFiles/freedom_metal.dir/nanosleep.c.o
 .comment       0x0000000000000044       0x45 gloss/CMakeFiles/freedom_metal.dir/sys_access.c.o
 .comment       0x0000000000000044       0x45 gloss/CMakeFiles/freedom_metal.dir/sys_chdir.c.o
 .comment       0x0000000000000044       0x45 gloss/CMakeFiles/freedom_metal.dir/sys_chmod.c.o
 .comment       0x0000000000000044       0x45 gloss/CMakeFiles/freedom_metal.dir/sys_chown.c.o
 .comment       0x0000000000000044       0x45 gloss/CMakeFiles/freedom_metal.dir/sys_clock_gettime.c.o
 .comment       0x0000000000000044       0x45 gloss/CMakeFiles/freedom_metal.dir/sys_close.c.o
 .comment       0x0000000000000044       0x45 gloss/CMakeFiles/freedom_metal.dir/sys_execve.c.o
 .comment       0x0000000000000044       0x45 gloss/CMakeFiles/freedom_metal.dir/sys_exit.c.o
 .comment       0x0000000000000044       0x45 gloss/CMakeFiles/freedom_metal.dir/sys_faccessat.c.o
 .comment       0x0000000000000044       0x45 gloss/CMakeFiles/freedom_metal.dir/sys_fork.c.o
 .comment       0x0000000000000044       0x45 gloss/CMakeFiles/freedom_metal.dir/sys_fstat.c.o
 .comment       0x0000000000000044       0x45 gloss/CMakeFiles/freedom_metal.dir/sys_fstatat.c.o
 .comment       0x0000000000000044       0x45 gloss/CMakeFiles/freedom_metal.dir/sys_ftime.c.o
 .comment       0x0000000000000044       0x45 gloss/CMakeFiles/freedom_metal.dir/sys_getcwd.c.o
 .comment       0x0000000000000044       0x45 gloss/CMakeFiles/freedom_metal.dir/sys_getpid.c.o
 .comment       0x0000000000000044       0x45 gloss/CMakeFiles/freedom_metal.dir/sys_gettimeofday.c.o
 .comment       0x0000000000000044       0x45 gloss/CMakeFiles/freedom_metal.dir/sys_isatty.c.o
 .comment       0x0000000000000044       0x45 gloss/CMakeFiles/freedom_metal.dir/sys_kill.c.o
 .comment       0x0000000000000044       0x45 gloss/CMakeFiles/freedom_metal.dir/sys_link.c.o
 .comment       0x0000000000000044       0x45 gloss/CMakeFiles/freedom_metal.dir/sys_lseek.c.o
 .comment       0x0000000000000044       0x45 gloss/CMakeFiles/freedom_metal.dir/sys_lstat.c.o
 .comment       0x0000000000000044       0x45 gloss/CMakeFiles/freedom_metal.dir/sys_open.c.o
 .comment       0x0000000000000044       0x45 gloss/CMakeFiles/freedom_metal.dir/sys_openat.c.o
 .comment       0x0000000000000044       0x45 gloss/CMakeFiles/freedom_metal.dir/sys_read.c.o
 .comment       0x0000000000000044       0x45 gloss/CMakeFiles/freedom_metal.dir/sys_sbrk.c.o
 .comment       0x0000000000000044       0x45 gloss/CMakeFiles/freedom_metal.dir/sys_sysconf.c.o
 .comment       0x0000000000000044       0x45 gloss/CMakeFiles/freedom_metal.dir/sys_times.c.o
 .comment       0x0000000000000044       0x45 gloss/CMakeFiles/freedom_metal.dir/sys_unlink.c.o
 .comment       0x0000000000000044       0x45 gloss/CMakeFiles/freedom_metal.dir/sys_utime.c.o
 .comment       0x0000000000000044       0x45 gloss/CMakeFiles/freedom_metal.dir/sys_wait.c.o
 .comment       0x0000000000000044       0x45 gloss/CMakeFiles/freedom_metal.dir/sys_write.c.o
 .comment       0x0000000000000044       0x45 build/drivers/mailbox/CMakeFiles/mailbox.dir/mailbox.c.o
 .comment       0x0000000000000044       0x45 build/drivers/mailbox/CMakeFiles/mailbox.dir/mailbox_cb.c.o
 .comment       0x0000000000000044       0x45 build/drivers/pmu/CMakeFiles/pmu.dir/pmu.c.o
 .comment       0x0000000000000044       0x45 build/drivers/timer/dw_apb_timer/CMakeFiles/dw_apb_timer.dir/dw_apb_timer.c.o
 .comment       0x0000000000000044       0x45 build/drivers/qspi/qspi_apb/CMakeFiles/qspi_apb.dir/qspi_apb.c.o
 .comment       0x0000000000000044       0x45 build/drivers/flash/CMakeFiles/flash.dir/mt25q_flash.c.o
 .comment       0x0000000000000044       0x45 libfreertos_kernel.a(queue.c.o)
 .comment       0x0000000000000044       0x45 libfreertos_kernel.a(tasks.c.o)
 .comment       0x0000000000000044       0x45 libfreertos_kernel.a(timers.c.o)
 .comment       0x0000000000000044       0x45 libfreertos_kernel.a(heap_4.c.o)
 .comment       0x0000000000000044       0x45 libfreertos_kernel.a(list.c.o)
 .comment       0x0000000000000044       0x45 portable/libfreertos_kernel_port.a(port.c.o)
 .comment       0x0000000000000044       0x45 build/drivers/common/libdriver.a(driver.c.o)
 .comment       0x0000000000000044       0x45 build/drivers/common/libassert.a(assert.c.o)
 .comment       0x0000000000000044       0x45 build/drivers/common/libinterrupt.a(interrupt.c.o)
 .comment       0x0000000000000044       0x45 build/drivers/intc/libintc.a(gicv3.c.o)
 .comment       0x0000000000000044       0x45 build/drivers/intc/libintc.a(bakery_lock.c.o)
 .comment       0x0000000000000044       0x45 portable/libfreertos_arch.a(prep_c.c.o)
 .comment       0x0000000000000044       0x45 libfreertos_kernel_config.a(FreeRTOS_tick_config.c.o)
 .comment       0x0000000000000044       0x45 portable/libsmp.a(smp.c.o)
 .comment       0x0000000000000044       0x45 build/common/arch/libcommon.a(printf.c.o)
 .comment       0x0000000000000044       0x45 build/drivers/psci/libpsci.a(psci.c.o)
 .comment       0x0000000000000044       0x45 portable/libmmu.a(mmu.c.o)
 .comment       0x0000000000000044       0x45 build/drivers/timer/generic_timer/libgeneric_timer.a(generic_timer.c.o)
 .comment       0x0000000000000044       0x45 /tools/arm-gnu-toolchain-13.2.Rel1-x86_64-aarch64-none-elf/bin/../lib/gcc/aarch64-none-elf/13.2.1/../../../../aarch64-none-elf/lib/libg.a(libc_a-errno.o)
 .comment       0x0000000000000044       0x45 /tools/arm-gnu-toolchain-13.2.Rel1-x86_64-aarch64-none-elf/bin/../lib/gcc/aarch64-none-elf/13.2.1/../../../../aarch64-none-elf/lib/libg.a(libc_a-printf.o)
 .comment       0x0000000000000044       0x45 /tools/arm-gnu-toolchain-13.2.Rel1-x86_64-aarch64-none-elf/bin/../lib/gcc/aarch64-none-elf/13.2.1/../../../../aarch64-none-elf/lib/libg.a(libc_a-putchar.o)
 .comment       0x0000000000000044       0x45 /tools/arm-gnu-toolchain-13.2.Rel1-x86_64-aarch64-none-elf/bin/../lib/gcc/aarch64-none-elf/13.2.1/../../../../aarch64-none-elf/lib/libg.a(libc_a-reent.o)
 .comment       0x0000000000000044       0x45 /tools/arm-gnu-toolchain-13.2.Rel1-x86_64-aarch64-none-elf/bin/../lib/gcc/aarch64-none-elf/13.2.1/../../../../aarch64-none-elf/lib/libg.a(libc_a-impure.o)
 .comment       0x0000000000000044       0x45 /tools/arm-gnu-toolchain-13.2.Rel1-x86_64-aarch64-none-elf/bin/../lib/gcc/aarch64-none-elf/13.2.1/../../../../aarch64-none-elf/lib/libg.a(libc_a-findfp.o)
 .comment       0x0000000000000044       0x45 /tools/arm-gnu-toolchain-13.2.Rel1-x86_64-aarch64-none-elf/bin/../lib/gcc/aarch64-none-elf/13.2.1/../../../../aarch64-none-elf/lib/libg.a(libc_a-freer.o)
 .comment       0x0000000000000044       0x45 /tools/arm-gnu-toolchain-13.2.Rel1-x86_64-aarch64-none-elf/bin/../lib/gcc/aarch64-none-elf/13.2.1/../../../../aarch64-none-elf/lib/libg.a(libc_a-stdio.o)
 .comment       0x0000000000000044       0x45 /tools/arm-gnu-toolchain-13.2.Rel1-x86_64-aarch64-none-elf/bin/../lib/gcc/aarch64-none-elf/13.2.1/../../../../aarch64-none-elf/lib/libg.a(libc_a-sbrkr.o)
 .comment       0x0000000000000044       0x45 /tools/arm-gnu-toolchain-13.2.Rel1-x86_64-aarch64-none-elf/bin/../lib/gcc/aarch64-none-elf/13.2.1/../../../../aarch64-none-elf/lib/libg.a(libc_a-fwalk.o)
 .comment       0x0000000000000044       0x45 /tools/arm-gnu-toolchain-13.2.Rel1-x86_64-aarch64-none-elf/bin/../lib/gcc/aarch64-none-elf/13.2.1/../../../../aarch64-none-elf/lib/libg.a(libc_a-writer.o)
 .comment       0x0000000000000044       0x45 /tools/arm-gnu-toolchain-13.2.Rel1-x86_64-aarch64-none-elf/bin/../lib/gcc/aarch64-none-elf/13.2.1/../../../../aarch64-none-elf/lib/libg.a(libc_a-vfprintf.o)
 .comment       0x0000000000000044       0x45 /tools/arm-gnu-toolchain-13.2.Rel1-x86_64-aarch64-none-elf/bin/../lib/gcc/aarch64-none-elf/13.2.1/../../../../aarch64-none-elf/lib/libg.a(libc_a-vfiprintf.o)
 .comment       0x0000000000000044       0x45 /tools/arm-gnu-toolchain-13.2.Rel1-x86_64-aarch64-none-elf/bin/../lib/gcc/aarch64-none-elf/13.2.1/../../../../aarch64-none-elf/lib/libg.a(libc_a-mallocr.o)
 .comment       0x0000000000000044       0x45 /tools/arm-gnu-toolchain-13.2.Rel1-x86_64-aarch64-none-elf/bin/../lib/gcc/aarch64-none-elf/13.2.1/../../../../aarch64-none-elf/lib/libg.a(libc_a-wcrtomb.o)
 .comment       0x0000000000000044       0x45 /tools/arm-gnu-toolchain-13.2.Rel1-x86_64-aarch64-none-elf/bin/../lib/gcc/aarch64-none-elf/13.2.1/../../../../aarch64-none-elf/lib/libg.a(libc_a-lock.o)
 .comment       0x0000000000000044       0x45 /tools/arm-gnu-toolchain-13.2.Rel1-x86_64-aarch64-none-elf/bin/../lib/gcc/aarch64-none-elf/13.2.1/../../../../aarch64-none-elf/lib/libg.a(libc_a-locale.o)
 .comment       0x0000000000000044       0x45 /tools/arm-gnu-toolchain-13.2.Rel1-x86_64-aarch64-none-elf/bin/../lib/gcc/aarch64-none-elf/13.2.1/../../../../aarch64-none-elf/lib/libg.a(libc_a-localeconv.o)
 .comment       0x0000000000000044       0x45 /tools/arm-gnu-toolchain-13.2.Rel1-x86_64-aarch64-none-elf/bin/../lib/gcc/aarch64-none-elf/13.2.1/../../../../aarch64-none-elf/lib/libg.a(libc_a-fclose.o)
 .comment       0x0000000000000044       0x45 /tools/arm-gnu-toolchain-13.2.Rel1-x86_64-aarch64-none-elf/bin/../lib/gcc/aarch64-none-elf/13.2.1/../../../../aarch64-none-elf/lib/libg.a(libc_a-wsetup.o)
 .comment       0x0000000000000044       0x45 /tools/arm-gnu-toolchain-13.2.Rel1-x86_64-aarch64-none-elf/bin/../lib/gcc/aarch64-none-elf/13.2.1/../../../../aarch64-none-elf/lib/libg.a(libc_a-makebuf.o)
 .comment       0x0000000000000044       0x45 /tools/arm-gnu-toolchain-13.2.Rel1-x86_64-aarch64-none-elf/bin/../lib/gcc/aarch64-none-elf/13.2.1/../../../../aarch64-none-elf/lib/libg.a(libc_a-putc.o)
 .comment       0x0000000000000044       0x45 /tools/arm-gnu-toolchain-13.2.Rel1-x86_64-aarch64-none-elf/bin/../lib/gcc/aarch64-none-elf/13.2.1/../../../../aarch64-none-elf/lib/libg.a(libc_a-mlock.o)
 .comment       0x0000000000000044       0x45 /tools/arm-gnu-toolchain-13.2.Rel1-x86_64-aarch64-none-elf/bin/../lib/gcc/aarch64-none-elf/13.2.1/../../../../aarch64-none-elf/lib/libg.a(libc_a-wcsrtombs.o)
 .comment       0x0000000000000044       0x45 /tools/arm-gnu-toolchain-13.2.Rel1-x86_64-aarch64-none-elf/bin/../lib/gcc/aarch64-none-elf/13.2.1/../../../../aarch64-none-elf/lib/libg.a(libc_a-dtoa.o)
 .comment       0x0000000000000044       0x45 /tools/arm-gnu-toolchain-13.2.Rel1-x86_64-aarch64-none-elf/bin/../lib/gcc/aarch64-none-elf/13.2.1/../../../../aarch64-none-elf/lib/libg.a(libc_a-ctype_.o)
 .comment       0x0000000000000044       0x45 /tools/arm-gnu-toolchain-13.2.Rel1-x86_64-aarch64-none-elf/bin/../lib/gcc/aarch64-none-elf/13.2.1/../../../../aarch64-none-elf/lib/libg.a(libc_a-closer.o)
 .comment       0x0000000000000044       0x45 /tools/arm-gnu-toolchain-13.2.Rel1-x86_64-aarch64-none-elf/bin/../lib/gcc/aarch64-none-elf/13.2.1/../../../../aarch64-none-elf/lib/libg.a(libc_a-fflush.o)
 .comment       0x0000000000000044       0x45 /tools/arm-gnu-toolchain-13.2.Rel1-x86_64-aarch64-none-elf/bin/../lib/gcc/aarch64-none-elf/13.2.1/../../../../aarch64-none-elf/lib/libg.a(libm_a-s_frexp.o)
 .comment       0x0000000000000044       0x45 /tools/arm-gnu-toolchain-13.2.Rel1-x86_64-aarch64-none-elf/bin/../lib/gcc/aarch64-none-elf/13.2.1/../../../../aarch64-none-elf/lib/libg.a(libc_a-strlcpy.o)
 .comment       0x0000000000000044       0x45 /tools/arm-gnu-toolchain-13.2.Rel1-x86_64-aarch64-none-elf/bin/../lib/gcc/aarch64-none-elf/13.2.1/../../../../aarch64-none-elf/lib/libg.a(libc_a-strtol.o)
 .comment       0x0000000000000044       0x45 /tools/arm-gnu-toolchain-13.2.Rel1-x86_64-aarch64-none-elf/bin/../lib/gcc/aarch64-none-elf/13.2.1/../../../../aarch64-none-elf/lib/libg.a(libc_a-strncasecmp.o)
 .comment       0x0000000000000044       0x45 /tools/arm-gnu-toolchain-13.2.Rel1-x86_64-aarch64-none-elf/bin/../lib/gcc/aarch64-none-elf/13.2.1/../../../../aarch64-none-elf/lib/libg.a(libc_a-getenv_r.o)
 .comment       0x0000000000000044       0x45 /tools/arm-gnu-toolchain-13.2.Rel1-x86_64-aarch64-none-elf/bin/../lib/gcc/aarch64-none-elf/13.2.1/../../../../aarch64-none-elf/lib/libg.a(libc_a-strncpy.o)
 .comment       0x0000000000000044       0x45 /tools/arm-gnu-toolchain-13.2.Rel1-x86_64-aarch64-none-elf/bin/../lib/gcc/aarch64-none-elf/13.2.1/../../../../aarch64-none-elf/lib/libg.a(libc_a-fstatr.o)
 .comment       0x0000000000000044       0x45 /tools/arm-gnu-toolchain-13.2.Rel1-x86_64-aarch64-none-elf/bin/../lib/gcc/aarch64-none-elf/13.2.1/../../../../aarch64-none-elf/lib/libg.a(libc_a-isattyr.o)
 .comment       0x0000000000000044       0x45 /tools/arm-gnu-toolchain-13.2.Rel1-x86_64-aarch64-none-elf/bin/../lib/gcc/aarch64-none-elf/13.2.1/../../../../aarch64-none-elf/lib/libg.a(libc_a-lseekr.o)
 .comment       0x0000000000000044       0x45 /tools/arm-gnu-toolchain-13.2.Rel1-x86_64-aarch64-none-elf/bin/../lib/gcc/aarch64-none-elf/13.2.1/../../../../aarch64-none-elf/lib/libg.a(libc_a-readr.o)
 .comment       0x0000000000000044       0x45 /tools/arm-gnu-toolchain-13.2.Rel1-x86_64-aarch64-none-elf/bin/../lib/gcc/aarch64-none-elf/13.2.1/../../../../aarch64-none-elf/lib/libg.a(libc_a-fputwc.o)
 .comment       0x0000000000000044       0x45 /tools/arm-gnu-toolchain-13.2.Rel1-x86_64-aarch64-none-elf/bin/../lib/gcc/aarch64-none-elf/13.2.1/../../../../aarch64-none-elf/lib/libg.a(libc_a-wctomb_r.o)
 .comment       0x0000000000000044       0x45 /tools/arm-gnu-toolchain-13.2.Rel1-x86_64-aarch64-none-elf/bin/../lib/gcc/aarch64-none-elf/13.2.1/../../../../aarch64-none-elf/lib/libg.a(libc_a-fvwrite.o)
 .comment       0x0000000000000044       0x45 /tools/arm-gnu-toolchain-13.2.Rel1-x86_64-aarch64-none-elf/bin/../lib/gcc/aarch64-none-elf/13.2.1/../../../../aarch64-none-elf/lib/libg.a(libc_a-wbuf.o)
 .comment       0x0000000000000044       0x45 /tools/arm-gnu-toolchain-13.2.Rel1-x86_64-aarch64-none-elf/bin/../lib/gcc/aarch64-none-elf/13.2.1/../../../../aarch64-none-elf/lib/libg.a(libc_a-mbtowc_r.o)
 .comment       0x0000000000000044       0x45 /tools/arm-gnu-toolchain-13.2.Rel1-x86_64-aarch64-none-elf/bin/../lib/gcc/aarch64-none-elf/13.2.1/../../../../aarch64-none-elf/lib/libg.a(libc_a-assert.o)
 .comment       0x0000000000000044       0x45 /tools/arm-gnu-toolchain-13.2.Rel1-x86_64-aarch64-none-elf/bin/../lib/gcc/aarch64-none-elf/13.2.1/../../../../aarch64-none-elf/lib/libg.a(libc_a-strcasecmp.o)
 .comment       0x0000000000000044       0x45 /tools/arm-gnu-toolchain-13.2.Rel1-x86_64-aarch64-none-elf/bin/../lib/gcc/aarch64-none-elf/13.2.1/../../../../aarch64-none-elf/lib/libg.a(libc_a-strcat.o)
 .comment       0x0000000000000044       0x45 /tools/arm-gnu-toolchain-13.2.Rel1-x86_64-aarch64-none-elf/bin/../lib/gcc/aarch64-none-elf/13.2.1/../../../../aarch64-none-elf/lib/libg.a(libc_a-mprec.o)
 .comment       0x0000000000000044       0x45 /tools/arm-gnu-toolchain-13.2.Rel1-x86_64-aarch64-none-elf/bin/../lib/gcc/aarch64-none-elf/13.2.1/../../../../aarch64-none-elf/lib/libg.a(libc_a-callocr.o)
 .comment       0x0000000000000044       0x45 /tools/arm-gnu-toolchain-13.2.Rel1-x86_64-aarch64-none-elf/bin/../lib/gcc/aarch64-none-elf/13.2.1/../../../../aarch64-none-elf/lib/libg.a(libc_a-wcsnrtombs.o)
 .comment       0x0000000000000044       0x45 /tools/arm-gnu-toolchain-13.2.Rel1-x86_64-aarch64-none-elf/bin/../lib/gcc/aarch64-none-elf/13.2.1/../../../../aarch64-none-elf/lib/libg.a(libc_a-environ.o)
 .comment       0x0000000000000044       0x45 /tools/arm-gnu-toolchain-13.2.Rel1-x86_64-aarch64-none-elf/bin/../lib/gcc/aarch64-none-elf/13.2.1/../../../../aarch64-none-elf/lib/libg.a(libc_a-reallocr.o)
 .comment       0x0000000000000044       0x45 /tools/arm-gnu-toolchain-13.2.Rel1-x86_64-aarch64-none-elf/bin/../lib/gcc/aarch64-none-elf/13.2.1/../../../../aarch64-none-elf/lib/libg.a(libc_a-envlock.o)
 .comment       0x0000000000000044       0x45 /tools/arm-gnu-toolchain-13.2.Rel1-x86_64-aarch64-none-elf/bin/../lib/gcc/aarch64-none-elf/13.2.1/../../../../aarch64-none-elf/lib/libg.a(libc_a-fiprintf.o)
 .comment       0x0000000000000044       0x45 /tools/arm-gnu-toolchain-13.2.Rel1-x86_64-aarch64-none-elf/bin/../lib/gcc/aarch64-none-elf/13.2.1/../../../../aarch64-none-elf/lib/libg.a(libc_a-abort.o)
 .comment       0x0000000000000044       0x45 /tools/arm-gnu-toolchain-13.2.Rel1-x86_64-aarch64-none-elf/bin/../lib/gcc/aarch64-none-elf/13.2.1/../../../../aarch64-none-elf/lib/libg.a(libc_a-signal.o)
 .comment       0x0000000000000044       0x45 /tools/arm-gnu-toolchain-13.2.Rel1-x86_64-aarch64-none-elf/bin/../lib/gcc/aarch64-none-elf/13.2.1/../../../../aarch64-none-elf/lib/libg.a(libc_a-signalr.o)
 .comment       0x0000000000000044       0x45 /tools/arm-gnu-toolchain-13.2.Rel1-x86_64-aarch64-none-elf/bin/../lib/gcc/aarch64-none-elf/13.2.1/libgcc.a(trunctfdf2.o)
 .comment       0x0000000000000044       0x45 /tools/arm-gnu-toolchain-13.2.Rel1-x86_64-aarch64-none-elf/bin/../lib/gcc/aarch64-none-elf/13.2.1/libgcc.a(sfp-exceptions.o)

.debug_frame    0x0000000000000000     0x5828
 .debug_frame   0x0000000000000000       0x78 CMakeFiles/freertos_kernel.elf.dir/main_cp1.c.o
 .debug_frame   0x0000000000000078       0xb0 gloss/CMakeFiles/freedom_metal.dir/freedom_metal.c.o
 .debug_frame   0x0000000000000128       0x38 gloss/CMakeFiles/freedom_metal.dir/nanosleep.c.o
 .debug_frame   0x0000000000000160       0x38 gloss/CMakeFiles/freedom_metal.dir/sys_access.c.o
 .debug_frame   0x0000000000000198       0x38 gloss/CMakeFiles/freedom_metal.dir/sys_chdir.c.o
 .debug_frame   0x00000000000001d0       0x38 gloss/CMakeFiles/freedom_metal.dir/sys_chmod.c.o
 .debug_frame   0x0000000000000208       0x38 gloss/CMakeFiles/freedom_metal.dir/sys_chown.c.o
 .debug_frame   0x0000000000000240       0x88 gloss/CMakeFiles/freedom_metal.dir/sys_clock_gettime.c.o
 .debug_frame   0x00000000000002c8       0x38 gloss/CMakeFiles/freedom_metal.dir/sys_close.c.o
 .debug_frame   0x0000000000000300       0x38 gloss/CMakeFiles/freedom_metal.dir/sys_execve.c.o
 .debug_frame   0x0000000000000338       0x30 gloss/CMakeFiles/freedom_metal.dir/sys_exit.c.o
 .debug_frame   0x0000000000000368       0x38 gloss/CMakeFiles/freedom_metal.dir/sys_faccessat.c.o
 .debug_frame   0x00000000000003a0       0x38 gloss/CMakeFiles/freedom_metal.dir/sys_fork.c.o
 .debug_frame   0x00000000000003d8       0x38 gloss/CMakeFiles/freedom_metal.dir/sys_fstat.c.o
 .debug_frame   0x0000000000000410       0x38 gloss/CMakeFiles/freedom_metal.dir/sys_fstatat.c.o
 .debug_frame   0x0000000000000448       0x38 gloss/CMakeFiles/freedom_metal.dir/sys_ftime.c.o
 .debug_frame   0x0000000000000480       0x38 gloss/CMakeFiles/freedom_metal.dir/sys_getcwd.c.o
 .debug_frame   0x00000000000004b8       0x28 gloss/CMakeFiles/freedom_metal.dir/sys_getpid.c.o
 .debug_frame   0x00000000000004e0       0x40 gloss/CMakeFiles/freedom_metal.dir/sys_gettimeofday.c.o
 .debug_frame   0x0000000000000520       0x28 gloss/CMakeFiles/freedom_metal.dir/sys_isatty.c.o
 .debug_frame   0x0000000000000548       0x38 gloss/CMakeFiles/freedom_metal.dir/sys_kill.c.o
 .debug_frame   0x0000000000000580       0x38 gloss/CMakeFiles/freedom_metal.dir/sys_link.c.o
 .debug_frame   0x00000000000005b8       0x38 gloss/CMakeFiles/freedom_metal.dir/sys_lseek.c.o
 .debug_frame   0x00000000000005f0       0x38 gloss/CMakeFiles/freedom_metal.dir/sys_lstat.c.o
 .debug_frame   0x0000000000000628       0x38 gloss/CMakeFiles/freedom_metal.dir/sys_open.c.o
 .debug_frame   0x0000000000000660       0x38 gloss/CMakeFiles/freedom_metal.dir/sys_openat.c.o
 .debug_frame   0x0000000000000698       0x38 gloss/CMakeFiles/freedom_metal.dir/sys_read.c.o
 .debug_frame   0x00000000000006d0       0x60 gloss/CMakeFiles/freedom_metal.dir/sys_sbrk.c.o
 .debug_frame   0x0000000000000730       0x28 gloss/CMakeFiles/freedom_metal.dir/sys_sysconf.c.o
 .debug_frame   0x0000000000000758       0x40 gloss/CMakeFiles/freedom_metal.dir/sys_times.c.o
 .debug_frame   0x0000000000000798       0x38 gloss/CMakeFiles/freedom_metal.dir/sys_unlink.c.o
 .debug_frame   0x00000000000007d0       0x38 gloss/CMakeFiles/freedom_metal.dir/sys_utime.c.o
 .debug_frame   0x0000000000000808       0x38 gloss/CMakeFiles/freedom_metal.dir/sys_wait.c.o
 .debug_frame   0x0000000000000840       0x48 gloss/CMakeFiles/freedom_metal.dir/sys_write.c.o
 .debug_frame   0x0000000000000888       0xf0 build/drivers/mailbox/CMakeFiles/mailbox.dir/mailbox.c.o
 .debug_frame   0x0000000000000978       0x68 build/drivers/mailbox/CMakeFiles/mailbox.dir/mailbox_cb.c.o
 .debug_frame   0x00000000000009e0       0x88 build/drivers/pmu/CMakeFiles/pmu.dir/pmu.c.o
 .debug_frame   0x0000000000000a68      0x220 build/drivers/timer/dw_apb_timer/CMakeFiles/dw_apb_timer.dir/dw_apb_timer.c.o
 .debug_frame   0x0000000000000c88       0x88 build/drivers/qspi/qspi_apb/CMakeFiles/qspi_apb.dir/qspi_apb.c.o
 .debug_frame   0x0000000000000d10       0x88 build/drivers/flash/CMakeFiles/flash.dir/mt25q_flash.c.o
 .debug_frame   0x0000000000000d98      0x670 libfreertos_kernel.a(queue.c.o)
 .debug_frame   0x0000000000001408     0x1058 libfreertos_kernel.a(tasks.c.o)
 .debug_frame   0x0000000000002460      0x500 libfreertos_kernel.a(timers.c.o)
 .debug_frame   0x0000000000002960      0x1b0 libfreertos_kernel.a(heap_4.c.o)
 .debug_frame   0x0000000000002b10       0x88 libfreertos_kernel.a(list.c.o)
 .debug_frame   0x0000000000002b98      0x1c8 portable/libfreertos_kernel_port.a(port.c.o)
 .debug_frame   0x0000000000002d60       0x60 build/drivers/common/libdriver.a(driver.c.o)
 .debug_frame   0x0000000000002dc0       0xa0 build/drivers/common/libassert.a(assert.c.o)
 .debug_frame   0x0000000000002e60       0xd8 build/drivers/common/libinterrupt.a(interrupt.c.o)
 .debug_frame   0x0000000000002f38      0x1d8 build/drivers/intc/libintc.a(gicv3.c.o)
 .debug_frame   0x0000000000003110       0x58 build/drivers/intc/libintc.a(bakery_lock.c.o)
 .debug_frame   0x0000000000003168       0x38 portable/libfreertos_arch.a(prep_c.c.o)
 .debug_frame   0x00000000000031a0       0x80 libfreertos_kernel_config.a(FreeRTOS_tick_config.c.o)
 .debug_frame   0x0000000000003220       0x90 portable/libsmp.a(smp.c.o)
 .debug_frame   0x00000000000032b0       0xa0 build/common/arch/libcommon.a(printf.c.o)
 .debug_frame   0x0000000000003350       0x60 build/drivers/psci/libpsci.a(psci.c.o)
 .debug_frame   0x00000000000033b0      0x1e8 portable/libmmu.a(mmu.c.o)
 .debug_frame   0x0000000000003598       0x50 build/drivers/timer/generic_timer/libgeneric_timer.a(generic_timer.c.o)
 .debug_frame   0x00000000000035e8       0x28 /tools/arm-gnu-toolchain-13.2.Rel1-x86_64-aarch64-none-elf/bin/../lib/gcc/aarch64-none-elf/13.2.1/../../../../aarch64-none-elf/lib/libg.a(libc_a-errno.o)
 .debug_frame   0x0000000000003610       0x60 /tools/arm-gnu-toolchain-13.2.Rel1-x86_64-aarch64-none-elf/bin/../lib/gcc/aarch64-none-elf/13.2.1/../../../../aarch64-none-elf/lib/libg.a(libc_a-printf.o)
 .debug_frame   0x0000000000003670       0x40 /tools/arm-gnu-toolchain-13.2.Rel1-x86_64-aarch64-none-elf/bin/../lib/gcc/aarch64-none-elf/13.2.1/../../../../aarch64-none-elf/lib/libg.a(libc_a-putchar.o)
 .debug_frame   0x00000000000036b0       0x50 /tools/arm-gnu-toolchain-13.2.Rel1-x86_64-aarch64-none-elf/bin/../lib/gcc/aarch64-none-elf/13.2.1/../../../../aarch64-none-elf/lib/libg.a(libc_a-reent.o)
 .debug_frame   0x0000000000003700      0x1d8 /tools/arm-gnu-toolchain-13.2.Rel1-x86_64-aarch64-none-elf/bin/../lib/gcc/aarch64-none-elf/13.2.1/../../../../aarch64-none-elf/lib/libg.a(libc_a-findfp.o)
 .debug_frame   0x00000000000038d8       0xa0 /tools/arm-gnu-toolchain-13.2.Rel1-x86_64-aarch64-none-elf/bin/../lib/gcc/aarch64-none-elf/13.2.1/../../../../aarch64-none-elf/lib/libg.a(libc_a-freer.o)
 .debug_frame   0x0000000000003978       0xe8 /tools/arm-gnu-toolchain-13.2.Rel1-x86_64-aarch64-none-elf/bin/../lib/gcc/aarch64-none-elf/13.2.1/../../../../aarch64-none-elf/lib/libg.a(libc_a-stdio.o)
 .debug_frame   0x0000000000003a60       0x48 /tools/arm-gnu-toolchain-13.2.Rel1-x86_64-aarch64-none-elf/bin/../lib/gcc/aarch64-none-elf/13.2.1/../../../../aarch64-none-elf/lib/libg.a(libc_a-sbrkr.o)
 .debug_frame   0x0000000000003aa8       0x50 /tools/arm-gnu-toolchain-13.2.Rel1-x86_64-aarch64-none-elf/bin/../lib/gcc/aarch64-none-elf/13.2.1/../../../../aarch64-none-elf/lib/libg.a(libc_a-fwalk.o)
 .debug_frame   0x0000000000003af8       0x48 /tools/arm-gnu-toolchain-13.2.Rel1-x86_64-aarch64-none-elf/bin/../lib/gcc/aarch64-none-elf/13.2.1/../../../../aarch64-none-elf/lib/libg.a(libc_a-writer.o)
 .debug_frame   0x0000000000003b40      0x198 /tools/arm-gnu-toolchain-13.2.Rel1-x86_64-aarch64-none-elf/bin/../lib/gcc/aarch64-none-elf/13.2.1/../../../../aarch64-none-elf/lib/libg.a(libc_a-vfprintf.o)
 .debug_frame   0x0000000000003cd8      0x1c0 /tools/arm-gnu-toolchain-13.2.Rel1-x86_64-aarch64-none-elf/bin/../lib/gcc/aarch64-none-elf/13.2.1/../../../../aarch64-none-elf/lib/libg.a(libc_a-vfiprintf.o)
 .debug_frame   0x0000000000003e98       0xf8 /tools/arm-gnu-toolchain-13.2.Rel1-x86_64-aarch64-none-elf/bin/../lib/gcc/aarch64-none-elf/13.2.1/../../../../aarch64-none-elf/lib/libg.a(libc_a-mallocr.o)
 .debug_frame   0x0000000000003f90       0x80 /tools/arm-gnu-toolchain-13.2.Rel1-x86_64-aarch64-none-elf/bin/../lib/gcc/aarch64-none-elf/13.2.1/../../../../aarch64-none-elf/lib/libg.a(libc_a-wcrtomb.o)
 .debug_frame   0x0000000000004010      0x100 /tools/arm-gnu-toolchain-13.2.Rel1-x86_64-aarch64-none-elf/bin/../lib/gcc/aarch64-none-elf/13.2.1/../../../../aarch64-none-elf/lib/libg.a(libc_a-lock.o)
 .debug_frame   0x0000000000004110      0x1f0 /tools/arm-gnu-toolchain-13.2.Rel1-x86_64-aarch64-none-elf/bin/../lib/gcc/aarch64-none-elf/13.2.1/../../../../aarch64-none-elf/lib/libg.a(libc_a-locale.o)
 .debug_frame   0x0000000000004300       0x58 /tools/arm-gnu-toolchain-13.2.Rel1-x86_64-aarch64-none-elf/bin/../lib/gcc/aarch64-none-elf/13.2.1/../../../../aarch64-none-elf/lib/libg.a(libc_a-localeconv.o)
 .debug_frame   0x0000000000004358       0x78 /tools/arm-gnu-toolchain-13.2.Rel1-x86_64-aarch64-none-elf/bin/../lib/gcc/aarch64-none-elf/13.2.1/../../../../aarch64-none-elf/lib/libg.a(libc_a-fclose.o)
 .debug_frame   0x00000000000043d0       0x40 /tools/arm-gnu-toolchain-13.2.Rel1-x86_64-aarch64-none-elf/bin/../lib/gcc/aarch64-none-elf/13.2.1/../../../../aarch64-none-elf/lib/libg.a(libc_a-wsetup.o)
 .debug_frame   0x0000000000004410       0xa8 /tools/arm-gnu-toolchain-13.2.Rel1-x86_64-aarch64-none-elf/bin/../lib/gcc/aarch64-none-elf/13.2.1/../../../../aarch64-none-elf/lib/libg.a(libc_a-makebuf.o)
 .debug_frame   0x00000000000044b8       0x90 /tools/arm-gnu-toolchain-13.2.Rel1-x86_64-aarch64-none-elf/bin/../lib/gcc/aarch64-none-elf/13.2.1/../../../../aarch64-none-elf/lib/libg.a(libc_a-putc.o)
 .debug_frame   0x0000000000004548       0x40 /tools/arm-gnu-toolchain-13.2.Rel1-x86_64-aarch64-none-elf/bin/../lib/gcc/aarch64-none-elf/13.2.1/../../../../aarch64-none-elf/lib/libg.a(libc_a-mlock.o)
 .debug_frame   0x0000000000004588       0x40 /tools/arm-gnu-toolchain-13.2.Rel1-x86_64-aarch64-none-elf/bin/../lib/gcc/aarch64-none-elf/13.2.1/../../../../aarch64-none-elf/lib/libg.a(libc_a-wcsrtombs.o)
 .debug_frame   0x00000000000045c8       0xc0 /tools/arm-gnu-toolchain-13.2.Rel1-x86_64-aarch64-none-elf/bin/../lib/gcc/aarch64-none-elf/13.2.1/../../../../aarch64-none-elf/lib/libg.a(libc_a-dtoa.o)
 .debug_frame   0x0000000000004688       0x28 /tools/arm-gnu-toolchain-13.2.Rel1-x86_64-aarch64-none-elf/bin/../lib/gcc/aarch64-none-elf/13.2.1/../../../../aarch64-none-elf/lib/libg.a(libc_a-ctype_.o)
 .debug_frame   0x00000000000046b0       0x48 /tools/arm-gnu-toolchain-13.2.Rel1-x86_64-aarch64-none-elf/bin/../lib/gcc/aarch64-none-elf/13.2.1/../../../../aarch64-none-elf/lib/libg.a(libc_a-closer.o)
 .debug_frame   0x00000000000046f8       0xd8 /tools/arm-gnu-toolchain-13.2.Rel1-x86_64-aarch64-none-elf/bin/../lib/gcc/aarch64-none-elf/13.2.1/../../../../aarch64-none-elf/lib/libg.a(libc_a-fflush.o)
 .debug_frame   0x00000000000047d0       0x28 /tools/arm-gnu-toolchain-13.2.Rel1-x86_64-aarch64-none-elf/bin/../lib/gcc/aarch64-none-elf/13.2.1/../../../../aarch64-none-elf/lib/libg.a(libm_a-s_frexp.o)
 .debug_frame   0x00000000000047f8       0x28 /tools/arm-gnu-toolchain-13.2.Rel1-x86_64-aarch64-none-elf/bin/../lib/gcc/aarch64-none-elf/13.2.1/../../../../aarch64-none-elf/lib/libg.a(libc_a-strlcpy.o)
 .debug_frame   0x0000000000004820       0xa0 /tools/arm-gnu-toolchain-13.2.Rel1-x86_64-aarch64-none-elf/bin/../lib/gcc/aarch64-none-elf/13.2.1/../../../../aarch64-none-elf/lib/libg.a(libc_a-strtol.o)
 .debug_frame   0x00000000000048c0       0x28 /tools/arm-gnu-toolchain-13.2.Rel1-x86_64-aarch64-none-elf/bin/../lib/gcc/aarch64-none-elf/13.2.1/../../../../aarch64-none-elf/lib/libg.a(libc_a-strncasecmp.o)
 .debug_frame   0x00000000000048e8       0x98 /tools/arm-gnu-toolchain-13.2.Rel1-x86_64-aarch64-none-elf/bin/../lib/gcc/aarch64-none-elf/13.2.1/../../../../aarch64-none-elf/lib/libg.a(libc_a-getenv_r.o)
 .debug_frame   0x0000000000004980       0x28 /tools/arm-gnu-toolchain-13.2.Rel1-x86_64-aarch64-none-elf/bin/../lib/gcc/aarch64-none-elf/13.2.1/../../../../aarch64-none-elf/lib/libg.a(libc_a-strncpy.o)
 .debug_frame   0x00000000000049a8       0x48 /tools/arm-gnu-toolchain-13.2.Rel1-x86_64-aarch64-none-elf/bin/../lib/gcc/aarch64-none-elf/13.2.1/../../../../aarch64-none-elf/lib/libg.a(libc_a-fstatr.o)
 .debug_frame   0x00000000000049f0       0x48 /tools/arm-gnu-toolchain-13.2.Rel1-x86_64-aarch64-none-elf/bin/../lib/gcc/aarch64-none-elf/13.2.1/../../../../aarch64-none-elf/lib/libg.a(libc_a-isattyr.o)
 .debug_frame   0x0000000000004a38       0x48 /tools/arm-gnu-toolchain-13.2.Rel1-x86_64-aarch64-none-elf/bin/../lib/gcc/aarch64-none-elf/13.2.1/../../../../aarch64-none-elf/lib/libg.a(libc_a-lseekr.o)
 .debug_frame   0x0000000000004a80       0x48 /tools/arm-gnu-toolchain-13.2.Rel1-x86_64-aarch64-none-elf/bin/../lib/gcc/aarch64-none-elf/13.2.1/../../../../aarch64-none-elf/lib/libg.a(libc_a-readr.o)
 .debug_frame   0x0000000000004ac8       0xc8 /tools/arm-gnu-toolchain-13.2.Rel1-x86_64-aarch64-none-elf/bin/../lib/gcc/aarch64-none-elf/13.2.1/../../../../aarch64-none-elf/lib/libg.a(libc_a-fputwc.o)
 .debug_frame   0x0000000000004b90       0xa0 /tools/arm-gnu-toolchain-13.2.Rel1-x86_64-aarch64-none-elf/bin/../lib/gcc/aarch64-none-elf/13.2.1/../../../../aarch64-none-elf/lib/libg.a(libc_a-wctomb_r.o)
 .debug_frame   0x0000000000004c30       0xc8 /tools/arm-gnu-toolchain-13.2.Rel1-x86_64-aarch64-none-elf/bin/../lib/gcc/aarch64-none-elf/13.2.1/../../../../aarch64-none-elf/lib/libg.a(libc_a-fvwrite.o)
 .debug_frame   0x0000000000004cf8       0x60 /tools/arm-gnu-toolchain-13.2.Rel1-x86_64-aarch64-none-elf/bin/../lib/gcc/aarch64-none-elf/13.2.1/../../../../aarch64-none-elf/lib/libg.a(libc_a-wbuf.o)
 .debug_frame   0x0000000000004d58      0x128 /tools/arm-gnu-toolchain-13.2.Rel1-x86_64-aarch64-none-elf/bin/../lib/gcc/aarch64-none-elf/13.2.1/../../../../aarch64-none-elf/lib/libg.a(libc_a-mbtowc_r.o)
 .debug_frame   0x0000000000004e80       0x50 /tools/arm-gnu-toolchain-13.2.Rel1-x86_64-aarch64-none-elf/bin/../lib/gcc/aarch64-none-elf/13.2.1/../../../../aarch64-none-elf/lib/libg.a(libc_a-assert.o)
 .debug_frame   0x0000000000004ed0       0x28 /tools/arm-gnu-toolchain-13.2.Rel1-x86_64-aarch64-none-elf/bin/../lib/gcc/aarch64-none-elf/13.2.1/../../../../aarch64-none-elf/lib/libg.a(libc_a-strcasecmp.o)
 .debug_frame   0x0000000000004ef8       0x38 /tools/arm-gnu-toolchain-13.2.Rel1-x86_64-aarch64-none-elf/bin/../lib/gcc/aarch64-none-elf/13.2.1/../../../../aarch64-none-elf/lib/libg.a(libc_a-strcat.o)
 .debug_frame   0x0000000000004f30      0x360 /tools/arm-gnu-toolchain-13.2.Rel1-x86_64-aarch64-none-elf/bin/../lib/gcc/aarch64-none-elf/13.2.1/../../../../aarch64-none-elf/lib/libg.a(libc_a-mprec.o)
 .debug_frame   0x0000000000005290       0x50 /tools/arm-gnu-toolchain-13.2.Rel1-x86_64-aarch64-none-elf/bin/../lib/gcc/aarch64-none-elf/13.2.1/../../../../aarch64-none-elf/lib/libg.a(libc_a-callocr.o)
 .debug_frame   0x00000000000052e0       0xb0 /tools/arm-gnu-toolchain-13.2.Rel1-x86_64-aarch64-none-elf/bin/../lib/gcc/aarch64-none-elf/13.2.1/../../../../aarch64-none-elf/lib/libg.a(libc_a-wcsnrtombs.o)
 .debug_frame   0x0000000000005390       0xf0 /tools/arm-gnu-toolchain-13.2.Rel1-x86_64-aarch64-none-elf/bin/../lib/gcc/aarch64-none-elf/13.2.1/../../../../aarch64-none-elf/lib/libg.a(libc_a-reallocr.o)
 .debug_frame   0x0000000000005480       0x40 /tools/arm-gnu-toolchain-13.2.Rel1-x86_64-aarch64-none-elf/bin/../lib/gcc/aarch64-none-elf/13.2.1/../../../../aarch64-none-elf/lib/libg.a(libc_a-envlock.o)
 .debug_frame   0x00000000000054c0       0x60 /tools/arm-gnu-toolchain-13.2.Rel1-x86_64-aarch64-none-elf/bin/../lib/gcc/aarch64-none-elf/13.2.1/../../../../aarch64-none-elf/lib/libg.a(libc_a-fiprintf.o)
 .debug_frame   0x0000000000005520       0x30 /tools/arm-gnu-toolchain-13.2.Rel1-x86_64-aarch64-none-elf/bin/../lib/gcc/aarch64-none-elf/13.2.1/../../../../aarch64-none-elf/lib/libg.a(libc_a-abort.o)
 .debug_frame   0x0000000000005550      0x200 /tools/arm-gnu-toolchain-13.2.Rel1-x86_64-aarch64-none-elf/bin/../lib/gcc/aarch64-none-elf/13.2.1/../../../../aarch64-none-elf/lib/libg.a(libc_a-signal.o)
 .debug_frame   0x0000000000005750       0x60 /tools/arm-gnu-toolchain-13.2.Rel1-x86_64-aarch64-none-elf/bin/../lib/gcc/aarch64-none-elf/13.2.1/../../../../aarch64-none-elf/lib/libg.a(libc_a-signalr.o)
 .debug_frame   0x00000000000057b0       0x50 /tools/arm-gnu-toolchain-13.2.Rel1-x86_64-aarch64-none-elf/bin/../lib/gcc/aarch64-none-elf/13.2.1/libgcc.a(trunctfdf2.o)
 .debug_frame   0x0000000000005800       0x28 /tools/arm-gnu-toolchain-13.2.Rel1-x86_64-aarch64-none-elf/bin/../lib/gcc/aarch64-none-elf/13.2.1/libgcc.a(sfp-exceptions.o)
