Archive member included to satisfy reference by file (symbol)

libfreertos_kernel.a(queue.c.o)
                              build/drivers/dma/CMakeFiles/dma.dir/pl330.c.o (xQueueGenericSend)
libfreertos_kernel.a(tasks.c.o)
                              libfreertos_kernel.a(queue.c.o) (vTaskSuspendAll)
libfreertos_kernel.a(timers.c.o)
                              libfreertos_kernel.a(tasks.c.o) (xTimerCreateTimerTask)
libfreertos_kernel.a(heap_4.c.o)
                              build/drivers/rbc/CMakeFiles/rbc.dir/rbc_driver.c.o (pvPortMalloc)
libfreertos_kernel.a(list.c.o)
                              libfreertos_kernel.a(queue.c.o) (vListInitialise)
portable/libfreertos_kernel_port.a(port.c.o)
                              libfreertos_kernel.a(tasks.c.o) (pxPortInitialiseStack)
portable/libfreertos_kernel_port.a(portASM.S.o)
                              portable/libfreertos_kernel_port.a(port.c.o) (vPortRestoreTaskContext)
build/drivers/common/libdriver.a(driver.c.o)
                              CMakeFiles/freertos_kernel.elf.dir/main.c.o (init_drivers_by_calling_init_entry)
build/drivers/common/libassert.a(assert.c.o)
                              build/drivers/gpio/CMakeFiles/gpio.dir/gpio.c.o (assert)
build/drivers/common/libinterrupt.a(interrupt.c.o)
                              build/drivers/mailbox/CMakeFiles/mailbox.dir/mailbox.c.o (enable_all_interrupts)
build/drivers/intc/libintc.a(gicv3.c.o)
                              libfreertos_kernel.a(tasks.c.o) (gic_raise_sgi)
build/drivers/intc/libintc.a(bakery_lock.c.o)
                              build/drivers/intc/libintc.a(gicv3.c.o) (rebel_bakery_lock_acquire)
services/cli_service/libcli_service.a(cli_task.c.o)
                              CMakeFiles/freertos_kernel.elf.dir/main.c.o (cli_task_init)
services/cli_service/libcli_service.a(sys_command_line.c.o)
                              services/cli_service/libcli_service.a(cli_task.c.o) (cli_init)
services/terminal_service/libterminal_service.a(console_uart.c.o)
                              CMakeFiles/freertos_kernel.elf.dir/main.c.o (console_uart_init)
services/terminal_service/libterminal_service.a(console.c.o)
                              services/terminal_service/libterminal_service.a(console_uart.c.o) (console_dev_register)
services/terminal_service/libterminal_service.a(terminal_task.c.o)
                              CMakeFiles/freertos_kernel.elf.dir/main.c.o (terminal_init)
services/replay_service/libreplay_service.a(replay.c.o)
                              CMakeFiles/freertos_kernel.elf.dir/main.c.o (replay_task_init)
services/replay_service/libreplay_service.a(sub_function.c.o)
                              services/replay_service/libreplay_service.a(replay.c.o) (rbdma_test)
services/replay_service/libreplay_service.a(rush_cli.c.o)
                              services/replay_service/libreplay_service.a(replay.c.o) (rush_cli_init)
services/replay_service/libreplay_service.a(rush_cli_msg_buf.c.o)
                              services/replay_service/libreplay_service.a(rush_cli.c.o) (rush_cli_msg_buf_init)
services/replay_service/libreplay_service.a(tpg_cli.c.o)
                              services/replay_service/libreplay_service.a(rush_cli.c.o) (tpg_cli)
services/replay_service/libreplay_service.a(rbdma_cli.c.o)
                              services/replay_service/libreplay_service.a(rush_cli.c.o) (rbdma_cli)
services/replay_service/libreplay_service.a(mem_cli.c.o)
                              services/replay_service/libreplay_service.a(rush_cli.c.o) (mem_cli)
services/replay_service/libreplay_service.a(chiplet.c.o)
                              services/replay_service/libreplay_service.a(replay.c.o) (get_chiplet_id)
services/replay_service/libreplay_service.a(cmgr_if.c.o)
                              services/replay_service/libreplay_service.a(replay.c.o) (cmgr_init)
services/replay_service/libreplay_service.a(dnc_if.c.o)
                              services/replay_service/libreplay_service.a(replay.c.o) (comp_tlb_interleaving)
services/replay_service/libreplay_service.a(dnc_if_evt1.c.o)
                              services/replay_service/libreplay_service.a(dnc_if.c.o) (evt_dnc_register_ops)
services/replay_service/libreplay_service.a(rdsn_if.c.o)
                              services/replay_service/libreplay_service.a(replay.c.o) (rdsn_init)
services/replay_service/libreplay_service.a(ptw.c.o)
                              services/replay_service/libreplay_service.a(replay.c.o) (ptw_register_s2t_handler)
services/replay_service/libreplay_service.a(rbdma_if.c.o)
                              services/replay_service/libreplay_service.a(replay.c.o) (rbdma_init)
services/replay_service/libreplay_service.a(shm_if.c.o)
                              services/replay_service/libreplay_service.a(replay.c.o) (shm_randomize_cdp_register)
services/replay_service/libreplay_service.a(tbu_wrapper.c.o)
                              services/replay_service/libreplay_service.a(replay.c.o) (tbu_wrapper_deinit)
services/replay_service/libreplay_service.a(debug.c.o)
                              services/replay_service/libreplay_service.a(dnc_if.c.o) (print_regs)
services/replay_service/libreplay_service.a(ici.c.o)
                              services/replay_service/libreplay_service.a(replay.c.o) (print_ici_chip_sorting_entry)
services/replay_service/libreplay_service.a(page_table_gen.c.o)
                              services/replay_service/libreplay_service.a(dnc_if.c.o) (page_table_get)
services/replay_service/libreplay_service.a(profile.c.o)
                              services/replay_service/libreplay_service.a(dnc_if.c.o) (rl_profile_log_start)
services/replay_service/libreplay_service.a(rl_queue.c.o)
                              services/replay_service/libreplay_service.a(replay.c.o) (rl_cs_enqueue)
services/replay_service/libreplay_service.a(abort.c.o)
                              services/replay_service/libreplay_service.a(dnc_if.c.o) (abort_other_cores)
services/replay_service/libreplay_service.a(context.S.o)
                              services/replay_service/libreplay_service.a(abort.c.o) (dump_gp_regs)
services/replay_service/libreplay_service.a(cpu_data.c.o)
                              services/replay_service/libreplay_service.a(abort.c.o) (get_cpu_data)
services/replay_service/libreplay_service.a(spinlock.c.o)
                              services/replay_service/libreplay_service.a(ici.c.o) (spin_lock_irqsave)
services/replay_service/libreplay_service.a(core.c.o)
                              services/replay_service/libreplay_service.a(replay.c.o) (rl_cpu_set_core_ready_status)
services/replay_service/libreplay_service.a(log.c.o)
                              services/replay_service/libreplay_service.a(replay.c.o) (rl_log_msg)
services/replay_service/libreplay_service.a(rand.c.o)
                              services/replay_service/libreplay_service.a(replay.c.o) (rand_fill)
services/replay_service/libreplay_service.a(backtrace.c.o)
                              services/replay_service/libreplay_service.a(abort.c.o) (backtrace)
services/replay_service/libreplay_service.a(argparse.c.o)
                              services/replay_service/libreplay_service.a(rbdma_cli.c.o) (argparse_error)
services/replay_service/libreplay_service.a(rush_cli_util.c.o)
                              services/replay_service/libreplay_service.a(tpg_cli.c.o) (rush_cli_parse_size)
services/replay_service/libreplay_service.a(spinlock.S.o)
                              services/replay_service/libreplay_service.a(spinlock.c.o) (spin_lock)
services/task_adder_service/libtask_adder_service.a(task_adder.c.o)
                              CMakeFiles/freertos_kernel.elf.dir/main.c.o (task_adder_init)
portable/libfreertos_arch.a(startup.S.o)
                              (_start)
portable/libfreertos_arch.a(vector.S.o)
                              portable/libfreertos_arch.a(startup.S.o) (_freertos_vector_table)
portable/libfreertos_arch.a(prep_c.c.o)
                              portable/libfreertos_arch.a(startup.S.o) (primary_prep_c)
libfreertos_kernel_config.a(FreeRTOS_tick_config.c.o)
                              portable/libfreertos_kernel_port.a(port.c.o) (vSetupTickInterrupt)
portable/libsmp.a(smp.c.o)    libfreertos_kernel_config.a(FreeRTOS_tick_config.c.o) (ipi_handler)
portable/libsmp.a(smp.S.o)    portable/libfreertos_kernel_port.a(port.c.o) (GateSmp_tryLock)
portable/libsmccc.a(smccc.S.o)
                              build/drivers/sic/CMakeFiles/sic.dir/sic.c.o (arm_smccc_smc)
portable/libmmu.a(mmu.c.o)    services/replay_service/libreplay_service.a(ptw.c.o) (new_table)
build/interrupt_test_helper/libinterrupt_test_helper.a(interrupt_test_helper.c.o)
                              build/tests/interrupt_test_helper_example/CMakeFiles/interrupt_test_helper_example.dir/example_test.c.o (interrupt_test_init)
build/unity/libunity.a(unity.c.o)
                              build/tests/interrupt_test_helper_example/CMakeFiles/interrupt_test_helper_example.dir/example_test.c.o (UnityAssertEqualNumber)
build/unity/libunity.a(unity_fixture.c.o)
                              build/unity/libunity.a(unity.c.o) (set_up)
build/drivers/psci/libpsci.a(psci.c.o)
                              portable/libsmp.a(smp.c.o) (psci_cpu_on)
libfreertos_kernel.a(event_groups.c.o)
                              services/terminal_service/libterminal_service.a(terminal_task.c.o) (xEventGroupCreate)
libfreertos_kernel.a(stream_buffer.c.o)
                              services/terminal_service/libterminal_service.a(terminal_task.c.o) (xStreamBufferReceive)
build/common/arch/libcommon.a(printf.c.o)
                              CMakeFiles/freertos_kernel.elf.dir/main.c.o (printf_)
build/common/arch/libcommon.a(system_api.c.o)
                              build/drivers/hbm3/CMakeFiles/hbm3.dir/hbm3.c.o (udelay)
build/drivers/timer/generic_timer/libgeneric_timer.a(generic_timer.c.o)
                              libfreertos_kernel_config.a(FreeRTOS_tick_config.c.o) (arch_timer_update_compare)
/tools/arm-gnu-toolchain-13.2.Rel1-x86_64-aarch64-none-elf/bin/../lib/gcc/aarch64-none-elf/13.2.1/libgcc.a(ldset_8_4.o)
                              services/replay_service/libreplay_service.a(abort.c.o) (__aarch64_ldset8_acq_rel)
/tools/arm-gnu-toolchain-13.2.Rel1-x86_64-aarch64-none-elf/bin/../lib/gcc/aarch64-none-elf/13.2.1/libgcc.a(lse-init.o)
                              /tools/arm-gnu-toolchain-13.2.Rel1-x86_64-aarch64-none-elf/bin/../lib/gcc/aarch64-none-elf/13.2.1/libgcc.a(ldset_8_4.o) (__aarch64_have_lse_atomics)
/tools/arm-gnu-toolchain-13.2.Rel1-x86_64-aarch64-none-elf/bin/../lib/gcc/aarch64-none-elf/13.2.1/../../../../aarch64-none-elf/lib/libg.a(libc_a-strtod.o)
                              services/replay_service/libreplay_service.a(argparse.c.o) (strtof)
/tools/arm-gnu-toolchain-13.2.Rel1-x86_64-aarch64-none-elf/bin/../lib/gcc/aarch64-none-elf/13.2.1/../../../../aarch64-none-elf/lib/libg.a(libc_a-strtol.o)
                              build/tests/smmu/CMakeFiles/test_mmu.dir/test_mmu_main.c.o (strtol)
/tools/arm-gnu-toolchain-13.2.Rel1-x86_64-aarch64-none-elf/bin/../lib/gcc/aarch64-none-elf/13.2.1/../../../../aarch64-none-elf/lib/libg.a(libc_a-gdtoa-gethex.o)
                              /tools/arm-gnu-toolchain-13.2.Rel1-x86_64-aarch64-none-elf/bin/../lib/gcc/aarch64-none-elf/13.2.1/../../../../aarch64-none-elf/lib/libg.a(libc_a-strtod.o) (__gethex)
/tools/arm-gnu-toolchain-13.2.Rel1-x86_64-aarch64-none-elf/bin/../lib/gcc/aarch64-none-elf/13.2.1/../../../../aarch64-none-elf/lib/libg.a(libc_a-strtoul.o)
                              build/tests/rbcm/CMakeFiles/test_rbcm.dir/rbcm_test.c.o (strtoul)
/tools/arm-gnu-toolchain-13.2.Rel1-x86_64-aarch64-none-elf/bin/../lib/gcc/aarch64-none-elf/13.2.1/../../../../aarch64-none-elf/lib/libg.a(libc_a-gdtoa-hexnan.o)
                              /tools/arm-gnu-toolchain-13.2.Rel1-x86_64-aarch64-none-elf/bin/../lib/gcc/aarch64-none-elf/13.2.1/../../../../aarch64-none-elf/lib/libg.a(libc_a-strtod.o) (__match)
/tools/arm-gnu-toolchain-13.2.Rel1-x86_64-aarch64-none-elf/bin/../lib/gcc/aarch64-none-elf/13.2.1/../../../../aarch64-none-elf/lib/libg.a(libc_a-strtoll.o)
                              services/replay_service/libreplay_service.a(sub_function.c.o) (strtoll)
/tools/arm-gnu-toolchain-13.2.Rel1-x86_64-aarch64-none-elf/bin/../lib/gcc/aarch64-none-elf/13.2.1/../../../../aarch64-none-elf/lib/libg.a(libc_a-strncpy.o)
                              build/tests/rbcm/CMakeFiles/test_rbcm.dir/rbcm_test.c.o (strncpy)
/tools/arm-gnu-toolchain-13.2.Rel1-x86_64-aarch64-none-elf/bin/../lib/gcc/aarch64-none-elf/13.2.1/../../../../aarch64-none-elf/lib/libg.a(libc_a-strtoull.o)
                              build/tests/rbcm/CMakeFiles/test_rbcm.dir/rbcm_test.c.o (strtoull)
/tools/arm-gnu-toolchain-13.2.Rel1-x86_64-aarch64-none-elf/bin/../lib/gcc/aarch64-none-elf/13.2.1/../../../../aarch64-none-elf/lib/libg.a(libc_a-strchr.o)
                              services/cli_service/libcli_service.a(sys_command_line.c.o) (strchr)
/tools/arm-gnu-toolchain-13.2.Rel1-x86_64-aarch64-none-elf/bin/../lib/gcc/aarch64-none-elf/13.2.1/../../../../aarch64-none-elf/lib/libg.a(libc_a-strcmp.o)
                              build/tests/mailbox/CMakeFiles/mailbox_test.dir/test_mailbox_main.c.o (strcmp)
/tools/arm-gnu-toolchain-13.2.Rel1-x86_64-aarch64-none-elf/bin/../lib/gcc/aarch64-none-elf/13.2.1/../../../../aarch64-none-elf/lib/libg.a(libc_a-sprintf.o)
                              services/replay_service/libreplay_service.a(rush_cli_msg_buf.c.o) (sprintf)
/tools/arm-gnu-toolchain-13.2.Rel1-x86_64-aarch64-none-elf/bin/../lib/gcc/aarch64-none-elf/13.2.1/../../../../aarch64-none-elf/lib/libg.a(libc_a-strlen.o)
                              build/drivers/rbc/CMakeFiles/rbc.dir/aw_ucie.c.o (strlen)
/tools/arm-gnu-toolchain-13.2.Rel1-x86_64-aarch64-none-elf/bin/../lib/gcc/aarch64-none-elf/13.2.1/../../../../aarch64-none-elf/lib/libg.a(libc_a-strspn.o)
                              services/cli_service/libcli_service.a(sys_command_line.c.o) (strspn)
/tools/arm-gnu-toolchain-13.2.Rel1-x86_64-aarch64-none-elf/bin/../lib/gcc/aarch64-none-elf/13.2.1/../../../../aarch64-none-elf/lib/libg.a(libc_a-strtok.o)
                              build/tests/rbcm/CMakeFiles/test_rbcm.dir/rbcm_test.c.o (strtok)
/tools/arm-gnu-toolchain-13.2.Rel1-x86_64-aarch64-none-elf/bin/../lib/gcc/aarch64-none-elf/13.2.1/../../../../aarch64-none-elf/lib/libg.a(libc_a-strtok_r.o)
                              /tools/arm-gnu-toolchain-13.2.Rel1-x86_64-aarch64-none-elf/bin/../lib/gcc/aarch64-none-elf/13.2.1/../../../../aarch64-none-elf/lib/libg.a(libc_a-strtok.o) (__strtok_r)
/tools/arm-gnu-toolchain-13.2.Rel1-x86_64-aarch64-none-elf/bin/../lib/gcc/aarch64-none-elf/13.2.1/../../../../aarch64-none-elf/lib/libg.a(libc_a-strstr.o)
                              build/tests/rbcm/CMakeFiles/test_rbcm.dir/rbcm_test.c.o (strstr)
/tools/arm-gnu-toolchain-13.2.Rel1-x86_64-aarch64-none-elf/bin/../lib/gcc/aarch64-none-elf/13.2.1/../../../../aarch64-none-elf/lib/libg.a(libc_a-getopt.o)
                              build/tests/rbcm/CMakeFiles/test_rbcm.dir/rbcm_test.c.o (getopt)
/tools/arm-gnu-toolchain-13.2.Rel1-x86_64-aarch64-none-elf/bin/../lib/gcc/aarch64-none-elf/13.2.1/../../../../aarch64-none-elf/lib/libg.a(libc_a-errno.o)
                              gloss/CMakeFiles/freedom_metal.dir/nanosleep.c.o (__errno)
/tools/arm-gnu-toolchain-13.2.Rel1-x86_64-aarch64-none-elf/bin/../lib/gcc/aarch64-none-elf/13.2.1/../../../../aarch64-none-elf/lib/libg.a(libc_a-svfprintf.o)
                              /tools/arm-gnu-toolchain-13.2.Rel1-x86_64-aarch64-none-elf/bin/../lib/gcc/aarch64-none-elf/13.2.1/../../../../aarch64-none-elf/lib/libg.a(libc_a-sprintf.o) (_svfprintf_r)
/tools/arm-gnu-toolchain-13.2.Rel1-x86_64-aarch64-none-elf/bin/../lib/gcc/aarch64-none-elf/13.2.1/../../../../aarch64-none-elf/lib/libg.a(libc_a-strncmp.o)
                              services/cli_service/libcli_service.a(sys_command_line.c.o) (strncmp)
/tools/arm-gnu-toolchain-13.2.Rel1-x86_64-aarch64-none-elf/bin/../lib/gcc/aarch64-none-elf/13.2.1/../../../../aarch64-none-elf/lib/libg.a(libc_a-strnlen.o)
                              /tools/arm-gnu-toolchain-13.2.Rel1-x86_64-aarch64-none-elf/bin/../lib/gcc/aarch64-none-elf/13.2.1/../../../../aarch64-none-elf/lib/libg.a(libc_a-strstr.o) (strnlen)
/tools/arm-gnu-toolchain-13.2.Rel1-x86_64-aarch64-none-elf/bin/../lib/gcc/aarch64-none-elf/13.2.1/../../../../aarch64-none-elf/lib/libg.a(libc_a-vsnprintf.o)
                              services/replay_service/libreplay_service.a(rush_cli_msg_buf.c.o) (vsnprintf)
/tools/arm-gnu-toolchain-13.2.Rel1-x86_64-aarch64-none-elf/bin/../lib/gcc/aarch64-none-elf/13.2.1/../../../../aarch64-none-elf/lib/libg.a(libc_a-malloc.o)
                              build/drivers/rbc/CMakeFiles/rbc.dir/rbc_driver.c.o (free)
/tools/arm-gnu-toolchain-13.2.Rel1-x86_64-aarch64-none-elf/bin/../lib/gcc/aarch64-none-elf/13.2.1/../../../../aarch64-none-elf/lib/libg.a(libc_a-mallocr.o)
                              /tools/arm-gnu-toolchain-13.2.Rel1-x86_64-aarch64-none-elf/bin/../lib/gcc/aarch64-none-elf/13.2.1/../../../../aarch64-none-elf/lib/libg.a(libc_a-svfprintf.o) (_malloc_r)
/tools/arm-gnu-toolchain-13.2.Rel1-x86_64-aarch64-none-elf/bin/../lib/gcc/aarch64-none-elf/13.2.1/../../../../aarch64-none-elf/lib/libg.a(libc_a-assert.o)
                              /tools/arm-gnu-toolchain-13.2.Rel1-x86_64-aarch64-none-elf/bin/../lib/gcc/aarch64-none-elf/13.2.1/../../../../aarch64-none-elf/lib/libg.a(libc_a-gdtoa-gethex.o) (__assert_func)
/tools/arm-gnu-toolchain-13.2.Rel1-x86_64-aarch64-none-elf/bin/../lib/gcc/aarch64-none-elf/13.2.1/../../../../aarch64-none-elf/lib/libg.a(libc_a-strcasecmp.o)
                              build/tests/rbcm/CMakeFiles/test_rbcm.dir/rbcm_test.c.o (strcasecmp)
/tools/arm-gnu-toolchain-13.2.Rel1-x86_64-aarch64-none-elf/bin/../lib/gcc/aarch64-none-elf/13.2.1/../../../../aarch64-none-elf/lib/libg.a(libc_a-wcrtomb.o)
                              /tools/arm-gnu-toolchain-13.2.Rel1-x86_64-aarch64-none-elf/bin/../lib/gcc/aarch64-none-elf/13.2.1/../../../../aarch64-none-elf/lib/libg.a(libc_a-svfprintf.o) (_wcrtomb_r)
/tools/arm-gnu-toolchain-13.2.Rel1-x86_64-aarch64-none-elf/bin/../lib/gcc/aarch64-none-elf/13.2.1/../../../../aarch64-none-elf/lib/libg.a(libc_a-locale.o)
                              /tools/arm-gnu-toolchain-13.2.Rel1-x86_64-aarch64-none-elf/bin/../lib/gcc/aarch64-none-elf/13.2.1/../../../../aarch64-none-elf/lib/libg.a(libc_a-strtod.o) (__global_locale)
/tools/arm-gnu-toolchain-13.2.Rel1-x86_64-aarch64-none-elf/bin/../lib/gcc/aarch64-none-elf/13.2.1/../../../../aarch64-none-elf/lib/libg.a(libc_a-localeconv.o)
                              /tools/arm-gnu-toolchain-13.2.Rel1-x86_64-aarch64-none-elf/bin/../lib/gcc/aarch64-none-elf/13.2.1/../../../../aarch64-none-elf/lib/libg.a(libc_a-svfprintf.o) (_localeconv_r)
/tools/arm-gnu-toolchain-13.2.Rel1-x86_64-aarch64-none-elf/bin/../lib/gcc/aarch64-none-elf/13.2.1/../../../../aarch64-none-elf/lib/libg.a(libc_a-memchr.o)
                              /tools/arm-gnu-toolchain-13.2.Rel1-x86_64-aarch64-none-elf/bin/../lib/gcc/aarch64-none-elf/13.2.1/../../../../aarch64-none-elf/lib/libg.a(libc_a-svfprintf.o) (memchr)
/tools/arm-gnu-toolchain-13.2.Rel1-x86_64-aarch64-none-elf/bin/../lib/gcc/aarch64-none-elf/13.2.1/../../../../aarch64-none-elf/lib/libg.a(libc_a-memcmp.o)
                              build/tests/system_test/CMakeFiles/system_test.dir/test_dma_transaction.c.o (memcmp)
/tools/arm-gnu-toolchain-13.2.Rel1-x86_64-aarch64-none-elf/bin/../lib/gcc/aarch64-none-elf/13.2.1/../../../../aarch64-none-elf/lib/libg.a(libc_a-printf.o)
                              build/tests/system_test/CMakeFiles/system_test.dir/data_process.c.o (printf)
/tools/arm-gnu-toolchain-13.2.Rel1-x86_64-aarch64-none-elf/bin/../lib/gcc/aarch64-none-elf/13.2.1/../../../../aarch64-none-elf/lib/libg.a(libc_a-memcpy.o)
                              services/replay_service/libreplay_service.a(argparse.c.o) (memmove)
/tools/arm-gnu-toolchain-13.2.Rel1-x86_64-aarch64-none-elf/bin/../lib/gcc/aarch64-none-elf/13.2.1/../../../../aarch64-none-elf/lib/libg.a(libc_a-putchar.o)
                              build/tests/system_test/CMakeFiles/system_test.dir/data_process.c.o (putchar)
/tools/arm-gnu-toolchain-13.2.Rel1-x86_64-aarch64-none-elf/bin/../lib/gcc/aarch64-none-elf/13.2.1/../../../../aarch64-none-elf/lib/libg.a(libc_a-puts.o)
                              services/replay_service/libreplay_service.a(backtrace.c.o) (puts)
/tools/arm-gnu-toolchain-13.2.Rel1-x86_64-aarch64-none-elf/bin/../lib/gcc/aarch64-none-elf/13.2.1/../../../../aarch64-none-elf/lib/libg.a(libc_a-mlock.o)
                              /tools/arm-gnu-toolchain-13.2.Rel1-x86_64-aarch64-none-elf/bin/../lib/gcc/aarch64-none-elf/13.2.1/../../../../aarch64-none-elf/lib/libg.a(libc_a-mallocr.o) (__malloc_lock)
/tools/arm-gnu-toolchain-13.2.Rel1-x86_64-aarch64-none-elf/bin/../lib/gcc/aarch64-none-elf/13.2.1/../../../../aarch64-none-elf/lib/libg.a(libc_a-mprec.o)
                              /tools/arm-gnu-toolchain-13.2.Rel1-x86_64-aarch64-none-elf/bin/../lib/gcc/aarch64-none-elf/13.2.1/../../../../aarch64-none-elf/lib/libg.a(libc_a-strtod.o) (_Balloc)
/tools/arm-gnu-toolchain-13.2.Rel1-x86_64-aarch64-none-elf/bin/../lib/gcc/aarch64-none-elf/13.2.1/../../../../aarch64-none-elf/lib/libg.a(libc_a-atoi.o)
                              build/tests/dma/CMakeFiles/test_dma.dir/test_dma_main.c.o (atoi)
/tools/arm-gnu-toolchain-13.2.Rel1-x86_64-aarch64-none-elf/bin/../lib/gcc/aarch64-none-elf/13.2.1/../../../../aarch64-none-elf/lib/libg.a(libc_a-rand.o)
                              build/tests/hbm3/CMakeFiles/hbm3_test.dir/memtest.c.o (rand)
/tools/arm-gnu-toolchain-13.2.Rel1-x86_64-aarch64-none-elf/bin/../lib/gcc/aarch64-none-elf/13.2.1/../../../../aarch64-none-elf/lib/libg.a(libc_a-callocr.o)
                              /tools/arm-gnu-toolchain-13.2.Rel1-x86_64-aarch64-none-elf/bin/../lib/gcc/aarch64-none-elf/13.2.1/../../../../aarch64-none-elf/lib/libg.a(libc_a-mprec.o) (_calloc_r)
/tools/arm-gnu-toolchain-13.2.Rel1-x86_64-aarch64-none-elf/bin/../lib/gcc/aarch64-none-elf/13.2.1/../../../../aarch64-none-elf/lib/libg.a(libc_a-wcsrtombs.o)
                              /tools/arm-gnu-toolchain-13.2.Rel1-x86_64-aarch64-none-elf/bin/../lib/gcc/aarch64-none-elf/13.2.1/../../../../aarch64-none-elf/lib/libg.a(libc_a-svfprintf.o) (_wcsrtombs_r)
/tools/arm-gnu-toolchain-13.2.Rel1-x86_64-aarch64-none-elf/bin/../lib/gcc/aarch64-none-elf/13.2.1/../../../../aarch64-none-elf/lib/libg.a(libc_a-dtoa.o)
                              /tools/arm-gnu-toolchain-13.2.Rel1-x86_64-aarch64-none-elf/bin/../lib/gcc/aarch64-none-elf/13.2.1/../../../../aarch64-none-elf/lib/libg.a(libc_a-svfprintf.o) (_dtoa_r)
/tools/arm-gnu-toolchain-13.2.Rel1-x86_64-aarch64-none-elf/bin/../lib/gcc/aarch64-none-elf/13.2.1/../../../../aarch64-none-elf/lib/libg.a(libc_a-strerror.o)
                              services/replay_service/libreplay_service.a(argparse.c.o) (strerror)
/tools/arm-gnu-toolchain-13.2.Rel1-x86_64-aarch64-none-elf/bin/../lib/gcc/aarch64-none-elf/13.2.1/../../../../aarch64-none-elf/lib/libg.a(libc_a-ctype_.o)
                              /tools/arm-gnu-toolchain-13.2.Rel1-x86_64-aarch64-none-elf/bin/../lib/gcc/aarch64-none-elf/13.2.1/../../../../aarch64-none-elf/lib/libg.a(libc_a-locale.o) (__set_ctype)
/tools/arm-gnu-toolchain-13.2.Rel1-x86_64-aarch64-none-elf/bin/../lib/gcc/aarch64-none-elf/13.2.1/../../../../aarch64-none-elf/lib/libg.a(libc_a-reent.o)
                              libfreertos_kernel.a(tasks.c.o) (_reclaim_reent)
/tools/arm-gnu-toolchain-13.2.Rel1-x86_64-aarch64-none-elf/bin/../lib/gcc/aarch64-none-elf/13.2.1/../../../../aarch64-none-elf/lib/libg.a(libc_a-impure.o)
                              libfreertos_kernel.a(tasks.c.o) (_impure_ptr)
/tools/arm-gnu-toolchain-13.2.Rel1-x86_64-aarch64-none-elf/bin/../lib/gcc/aarch64-none-elf/13.2.1/../../../../aarch64-none-elf/lib/libg.a(libc_a-findfp.o)
                              libfreertos_kernel.a(tasks.c.o) (__sf)
/tools/arm-gnu-toolchain-13.2.Rel1-x86_64-aarch64-none-elf/bin/../lib/gcc/aarch64-none-elf/13.2.1/../../../../aarch64-none-elf/lib/libg.a(libc_a-memset.o)
                              gloss/CMakeFiles/freedom_metal.dir/freedom_metal.c.o (memset)
/tools/arm-gnu-toolchain-13.2.Rel1-x86_64-aarch64-none-elf/bin/../lib/gcc/aarch64-none-elf/13.2.1/../../../../aarch64-none-elf/lib/libg.a(libm_a-s_nan.o)
                              /tools/arm-gnu-toolchain-13.2.Rel1-x86_64-aarch64-none-elf/bin/../lib/gcc/aarch64-none-elf/13.2.1/../../../../aarch64-none-elf/lib/libg.a(libc_a-strtod.o) (nan)
/tools/arm-gnu-toolchain-13.2.Rel1-x86_64-aarch64-none-elf/bin/../lib/gcc/aarch64-none-elf/13.2.1/../../../../aarch64-none-elf/lib/libg.a(libm_a-sf_nan.o)
                              /tools/arm-gnu-toolchain-13.2.Rel1-x86_64-aarch64-none-elf/bin/../lib/gcc/aarch64-none-elf/13.2.1/../../../../aarch64-none-elf/lib/libg.a(libc_a-strtod.o) (nanf)
/tools/arm-gnu-toolchain-13.2.Rel1-x86_64-aarch64-none-elf/bin/../lib/gcc/aarch64-none-elf/13.2.1/../../../../aarch64-none-elf/lib/libg.a(libm_a-s_frexp.o)
                              /tools/arm-gnu-toolchain-13.2.Rel1-x86_64-aarch64-none-elf/bin/../lib/gcc/aarch64-none-elf/13.2.1/../../../../aarch64-none-elf/lib/libg.a(libc_a-svfprintf.o) (frexp)
/tools/arm-gnu-toolchain-13.2.Rel1-x86_64-aarch64-none-elf/bin/../lib/gcc/aarch64-none-elf/13.2.1/../../../../aarch64-none-elf/lib/libg.a(libc_a-strlcpy.o)
                              /tools/arm-gnu-toolchain-13.2.Rel1-x86_64-aarch64-none-elf/bin/../lib/gcc/aarch64-none-elf/13.2.1/../../../../aarch64-none-elf/lib/libg.a(libc_a-locale.o) (strlcpy)
/tools/arm-gnu-toolchain-13.2.Rel1-x86_64-aarch64-none-elf/bin/../lib/gcc/aarch64-none-elf/13.2.1/../../../../aarch64-none-elf/lib/libg.a(libc_a-freer.o)
                              /tools/arm-gnu-toolchain-13.2.Rel1-x86_64-aarch64-none-elf/bin/../lib/gcc/aarch64-none-elf/13.2.1/../../../../aarch64-none-elf/lib/libg.a(libc_a-svfprintf.o) (_free_r)
/tools/arm-gnu-toolchain-13.2.Rel1-x86_64-aarch64-none-elf/bin/../lib/gcc/aarch64-none-elf/13.2.1/../../../../aarch64-none-elf/lib/libg.a(libc_a-strncasecmp.o)
                              /tools/arm-gnu-toolchain-13.2.Rel1-x86_64-aarch64-none-elf/bin/../lib/gcc/aarch64-none-elf/13.2.1/../../../../aarch64-none-elf/lib/libg.a(libc_a-locale.o) (strncasecmp)
/tools/arm-gnu-toolchain-13.2.Rel1-x86_64-aarch64-none-elf/bin/../lib/gcc/aarch64-none-elf/13.2.1/../../../../aarch64-none-elf/lib/libg.a(libc_a-getenv.o)
                              /tools/arm-gnu-toolchain-13.2.Rel1-x86_64-aarch64-none-elf/bin/../lib/gcc/aarch64-none-elf/13.2.1/../../../../aarch64-none-elf/lib/libg.a(libc_a-getopt.o) (getenv)
/tools/arm-gnu-toolchain-13.2.Rel1-x86_64-aarch64-none-elf/bin/../lib/gcc/aarch64-none-elf/13.2.1/../../../../aarch64-none-elf/lib/libg.a(libc_a-getenv_r.o)
                              /tools/arm-gnu-toolchain-13.2.Rel1-x86_64-aarch64-none-elf/bin/../lib/gcc/aarch64-none-elf/13.2.1/../../../../aarch64-none-elf/lib/libg.a(libc_a-getenv.o) (_findenv_r)
/tools/arm-gnu-toolchain-13.2.Rel1-x86_64-aarch64-none-elf/bin/../lib/gcc/aarch64-none-elf/13.2.1/../../../../aarch64-none-elf/lib/libg.a(libc_a-fputc.o)
                              /tools/arm-gnu-toolchain-13.2.Rel1-x86_64-aarch64-none-elf/bin/../lib/gcc/aarch64-none-elf/13.2.1/../../../../aarch64-none-elf/lib/libg.a(libc_a-getopt.o) (fputc)
/tools/arm-gnu-toolchain-13.2.Rel1-x86_64-aarch64-none-elf/bin/../lib/gcc/aarch64-none-elf/13.2.1/../../../../aarch64-none-elf/lib/libg.a(libc_a-fputs.o)
                              /tools/arm-gnu-toolchain-13.2.Rel1-x86_64-aarch64-none-elf/bin/../lib/gcc/aarch64-none-elf/13.2.1/../../../../aarch64-none-elf/lib/libg.a(libc_a-getopt.o) (fputs)
/tools/arm-gnu-toolchain-13.2.Rel1-x86_64-aarch64-none-elf/bin/../lib/gcc/aarch64-none-elf/13.2.1/../../../../aarch64-none-elf/lib/libg.a(libc_a-fiprintf.o)
                              /tools/arm-gnu-toolchain-13.2.Rel1-x86_64-aarch64-none-elf/bin/../lib/gcc/aarch64-none-elf/13.2.1/../../../../aarch64-none-elf/lib/libg.a(libc_a-assert.o) (fiprintf)
/tools/arm-gnu-toolchain-13.2.Rel1-x86_64-aarch64-none-elf/bin/../lib/gcc/aarch64-none-elf/13.2.1/../../../../aarch64-none-elf/lib/libg.a(libc_a-strcpy.o)
                              /tools/arm-gnu-toolchain-13.2.Rel1-x86_64-aarch64-none-elf/bin/../lib/gcc/aarch64-none-elf/13.2.1/../../../../aarch64-none-elf/lib/libg.a(libc_a-locale.o) (strcpy)
/tools/arm-gnu-toolchain-13.2.Rel1-x86_64-aarch64-none-elf/bin/../lib/gcc/aarch64-none-elf/13.2.1/../../../../aarch64-none-elf/lib/libg.a(libc_a-stdio.o)
                              /tools/arm-gnu-toolchain-13.2.Rel1-x86_64-aarch64-none-elf/bin/../lib/gcc/aarch64-none-elf/13.2.1/../../../../aarch64-none-elf/lib/libg.a(libc_a-findfp.o) (__sread)
/tools/arm-gnu-toolchain-13.2.Rel1-x86_64-aarch64-none-elf/bin/../lib/gcc/aarch64-none-elf/13.2.1/../../../../aarch64-none-elf/lib/libg.a(libc_a-wctomb_r.o)
                              /tools/arm-gnu-toolchain-13.2.Rel1-x86_64-aarch64-none-elf/bin/../lib/gcc/aarch64-none-elf/13.2.1/../../../../aarch64-none-elf/lib/libg.a(libc_a-locale.o) (__ascii_wctomb)
/tools/arm-gnu-toolchain-13.2.Rel1-x86_64-aarch64-none-elf/bin/../lib/gcc/aarch64-none-elf/13.2.1/../../../../aarch64-none-elf/lib/libg.a(libc_a-sbrkr.o)
                              /tools/arm-gnu-toolchain-13.2.Rel1-x86_64-aarch64-none-elf/bin/../lib/gcc/aarch64-none-elf/13.2.1/../../../../aarch64-none-elf/lib/libg.a(libc_a-mallocr.o) (_sbrk_r)
/tools/arm-gnu-toolchain-13.2.Rel1-x86_64-aarch64-none-elf/bin/../lib/gcc/aarch64-none-elf/13.2.1/../../../../aarch64-none-elf/lib/libg.a(libc_a-fvwrite.o)
                              /tools/arm-gnu-toolchain-13.2.Rel1-x86_64-aarch64-none-elf/bin/../lib/gcc/aarch64-none-elf/13.2.1/../../../../aarch64-none-elf/lib/libg.a(libc_a-puts.o) (__sfvwrite_r)
/tools/arm-gnu-toolchain-13.2.Rel1-x86_64-aarch64-none-elf/bin/../lib/gcc/aarch64-none-elf/13.2.1/../../../../aarch64-none-elf/lib/libg.a(libc_a-fwalk.o)
                              /tools/arm-gnu-toolchain-13.2.Rel1-x86_64-aarch64-none-elf/bin/../lib/gcc/aarch64-none-elf/13.2.1/../../../../aarch64-none-elf/lib/libg.a(libc_a-findfp.o) (_fwalk_sglue)
/tools/arm-gnu-toolchain-13.2.Rel1-x86_64-aarch64-none-elf/bin/../lib/gcc/aarch64-none-elf/13.2.1/../../../../aarch64-none-elf/lib/libg.a(libc_a-writer.o)
                              /tools/arm-gnu-toolchain-13.2.Rel1-x86_64-aarch64-none-elf/bin/../lib/gcc/aarch64-none-elf/13.2.1/../../../../aarch64-none-elf/lib/libg.a(libc_a-stdio.o) (_write_r)
/tools/arm-gnu-toolchain-13.2.Rel1-x86_64-aarch64-none-elf/bin/../lib/gcc/aarch64-none-elf/13.2.1/../../../../aarch64-none-elf/lib/libg.a(libc_a-svfiprintf.o)
                              /tools/arm-gnu-toolchain-13.2.Rel1-x86_64-aarch64-none-elf/bin/../lib/gcc/aarch64-none-elf/13.2.1/../../../../aarch64-none-elf/lib/libg.a(libc_a-svfprintf.o) (__ssprint_r)
/tools/arm-gnu-toolchain-13.2.Rel1-x86_64-aarch64-none-elf/bin/../lib/gcc/aarch64-none-elf/13.2.1/../../../../aarch64-none-elf/lib/libg.a(libc_a-vfprintf.o)
                              /tools/arm-gnu-toolchain-13.2.Rel1-x86_64-aarch64-none-elf/bin/../lib/gcc/aarch64-none-elf/13.2.1/../../../../aarch64-none-elf/lib/libg.a(libc_a-printf.o) (_vfprintf_r)
/tools/arm-gnu-toolchain-13.2.Rel1-x86_64-aarch64-none-elf/bin/../lib/gcc/aarch64-none-elf/13.2.1/../../../../aarch64-none-elf/lib/libg.a(libc_a-vfiprintf.o)
                              /tools/arm-gnu-toolchain-13.2.Rel1-x86_64-aarch64-none-elf/bin/../lib/gcc/aarch64-none-elf/13.2.1/../../../../aarch64-none-elf/lib/libg.a(libc_a-vfprintf.o) (__sprint_r)
/tools/arm-gnu-toolchain-13.2.Rel1-x86_64-aarch64-none-elf/bin/../lib/gcc/aarch64-none-elf/13.2.1/../../../../aarch64-none-elf/lib/libg.a(libc_a-u_strerr.o)
                              /tools/arm-gnu-toolchain-13.2.Rel1-x86_64-aarch64-none-elf/bin/../lib/gcc/aarch64-none-elf/13.2.1/../../../../aarch64-none-elf/lib/libg.a(libc_a-strerror.o) (_user_strerror)
/tools/arm-gnu-toolchain-13.2.Rel1-x86_64-aarch64-none-elf/bin/../lib/gcc/aarch64-none-elf/13.2.1/../../../../aarch64-none-elf/lib/libg.a(libc_a-abort.o)
                              /tools/arm-gnu-toolchain-13.2.Rel1-x86_64-aarch64-none-elf/bin/../lib/gcc/aarch64-none-elf/13.2.1/../../../../aarch64-none-elf/lib/libg.a(libc_a-assert.o) (abort)
/tools/arm-gnu-toolchain-13.2.Rel1-x86_64-aarch64-none-elf/bin/../lib/gcc/aarch64-none-elf/13.2.1/../../../../aarch64-none-elf/lib/libg.a(libc_a-mbtowc_r.o)
                              /tools/arm-gnu-toolchain-13.2.Rel1-x86_64-aarch64-none-elf/bin/../lib/gcc/aarch64-none-elf/13.2.1/../../../../aarch64-none-elf/lib/libg.a(libc_a-locale.o) (__ascii_mbtowc)
/tools/arm-gnu-toolchain-13.2.Rel1-x86_64-aarch64-none-elf/bin/../lib/gcc/aarch64-none-elf/13.2.1/../../../../aarch64-none-elf/lib/libg.a(libc_a-strcat.o)
                              /tools/arm-gnu-toolchain-13.2.Rel1-x86_64-aarch64-none-elf/bin/../lib/gcc/aarch64-none-elf/13.2.1/../../../../aarch64-none-elf/lib/libg.a(libc_a-locale.o) (strcat)
/tools/arm-gnu-toolchain-13.2.Rel1-x86_64-aarch64-none-elf/bin/../lib/gcc/aarch64-none-elf/13.2.1/../../../../aarch64-none-elf/lib/libg.a(libc_a-lock.o)
                              /tools/arm-gnu-toolchain-13.2.Rel1-x86_64-aarch64-none-elf/bin/../lib/gcc/aarch64-none-elf/13.2.1/../../../../aarch64-none-elf/lib/libg.a(libc_a-findfp.o) (__retarget_lock_init_recursive)
/tools/arm-gnu-toolchain-13.2.Rel1-x86_64-aarch64-none-elf/bin/../lib/gcc/aarch64-none-elf/13.2.1/../../../../aarch64-none-elf/lib/libg.a(libc_a-fclose.o)
                              /tools/arm-gnu-toolchain-13.2.Rel1-x86_64-aarch64-none-elf/bin/../lib/gcc/aarch64-none-elf/13.2.1/../../../../aarch64-none-elf/lib/libg.a(libc_a-findfp.o) (_fclose_r)
/tools/arm-gnu-toolchain-13.2.Rel1-x86_64-aarch64-none-elf/bin/../lib/gcc/aarch64-none-elf/13.2.1/../../../../aarch64-none-elf/lib/libg.a(libc_a-wsetup.o)
                              /tools/arm-gnu-toolchain-13.2.Rel1-x86_64-aarch64-none-elf/bin/../lib/gcc/aarch64-none-elf/13.2.1/../../../../aarch64-none-elf/lib/libg.a(libc_a-fvwrite.o) (__swsetup_r)
/tools/arm-gnu-toolchain-13.2.Rel1-x86_64-aarch64-none-elf/bin/../lib/gcc/aarch64-none-elf/13.2.1/../../../../aarch64-none-elf/lib/libg.a(libc_a-makebuf.o)
                              /tools/arm-gnu-toolchain-13.2.Rel1-x86_64-aarch64-none-elf/bin/../lib/gcc/aarch64-none-elf/13.2.1/../../../../aarch64-none-elf/lib/libg.a(libc_a-wsetup.o) (__smakebuf_r)
/tools/arm-gnu-toolchain-13.2.Rel1-x86_64-aarch64-none-elf/bin/../lib/gcc/aarch64-none-elf/13.2.1/../../../../aarch64-none-elf/lib/libg.a(libc_a-putc.o)
                              /tools/arm-gnu-toolchain-13.2.Rel1-x86_64-aarch64-none-elf/bin/../lib/gcc/aarch64-none-elf/13.2.1/../../../../aarch64-none-elf/lib/libg.a(libc_a-putchar.o) (_putc_r)
/tools/arm-gnu-toolchain-13.2.Rel1-x86_64-aarch64-none-elf/bin/../lib/gcc/aarch64-none-elf/13.2.1/../../../../aarch64-none-elf/lib/libg.a(libc_a-wcsnrtombs.o)
                              /tools/arm-gnu-toolchain-13.2.Rel1-x86_64-aarch64-none-elf/bin/../lib/gcc/aarch64-none-elf/13.2.1/../../../../aarch64-none-elf/lib/libg.a(libc_a-wcsrtombs.o) (_wcsnrtombs_r)
/tools/arm-gnu-toolchain-13.2.Rel1-x86_64-aarch64-none-elf/bin/../lib/gcc/aarch64-none-elf/13.2.1/../../../../aarch64-none-elf/lib/libg.a(libc_a-closer.o)
                              /tools/arm-gnu-toolchain-13.2.Rel1-x86_64-aarch64-none-elf/bin/../lib/gcc/aarch64-none-elf/13.2.1/../../../../aarch64-none-elf/lib/libg.a(libc_a-stdio.o) (_close_r)
/tools/arm-gnu-toolchain-13.2.Rel1-x86_64-aarch64-none-elf/bin/../lib/gcc/aarch64-none-elf/13.2.1/../../../../aarch64-none-elf/lib/libg.a(libc_a-fflush.o)
                              /tools/arm-gnu-toolchain-13.2.Rel1-x86_64-aarch64-none-elf/bin/../lib/gcc/aarch64-none-elf/13.2.1/../../../../aarch64-none-elf/lib/libg.a(libc_a-fclose.o) (__sflush_r)
/tools/arm-gnu-toolchain-13.2.Rel1-x86_64-aarch64-none-elf/bin/../lib/gcc/aarch64-none-elf/13.2.1/../../../../aarch64-none-elf/lib/libg.a(libc_a-environ.o)
                              /tools/arm-gnu-toolchain-13.2.Rel1-x86_64-aarch64-none-elf/bin/../lib/gcc/aarch64-none-elf/13.2.1/../../../../aarch64-none-elf/lib/libg.a(libc_a-getenv_r.o) (environ)
/tools/arm-gnu-toolchain-13.2.Rel1-x86_64-aarch64-none-elf/bin/../lib/gcc/aarch64-none-elf/13.2.1/../../../../aarch64-none-elf/lib/libg.a(libc_a-reallocr.o)
                              /tools/arm-gnu-toolchain-13.2.Rel1-x86_64-aarch64-none-elf/bin/../lib/gcc/aarch64-none-elf/13.2.1/../../../../aarch64-none-elf/lib/libg.a(libc_a-fvwrite.o) (_realloc_r)
/tools/arm-gnu-toolchain-13.2.Rel1-x86_64-aarch64-none-elf/bin/../lib/gcc/aarch64-none-elf/13.2.1/../../../../aarch64-none-elf/lib/libg.a(libc_a-envlock.o)
                              /tools/arm-gnu-toolchain-13.2.Rel1-x86_64-aarch64-none-elf/bin/../lib/gcc/aarch64-none-elf/13.2.1/../../../../aarch64-none-elf/lib/libg.a(libc_a-getenv_r.o) (__env_lock)
/tools/arm-gnu-toolchain-13.2.Rel1-x86_64-aarch64-none-elf/bin/../lib/gcc/aarch64-none-elf/13.2.1/../../../../aarch64-none-elf/lib/libg.a(libc_a-fstatr.o)
                              /tools/arm-gnu-toolchain-13.2.Rel1-x86_64-aarch64-none-elf/bin/../lib/gcc/aarch64-none-elf/13.2.1/../../../../aarch64-none-elf/lib/libg.a(libc_a-makebuf.o) (_fstat_r)
/tools/arm-gnu-toolchain-13.2.Rel1-x86_64-aarch64-none-elf/bin/../lib/gcc/aarch64-none-elf/13.2.1/../../../../aarch64-none-elf/lib/libg.a(libc_a-signal.o)
                              /tools/arm-gnu-toolchain-13.2.Rel1-x86_64-aarch64-none-elf/bin/../lib/gcc/aarch64-none-elf/13.2.1/../../../../aarch64-none-elf/lib/libg.a(libc_a-abort.o) (raise)
/tools/arm-gnu-toolchain-13.2.Rel1-x86_64-aarch64-none-elf/bin/../lib/gcc/aarch64-none-elf/13.2.1/../../../../aarch64-none-elf/lib/libg.a(libc_a-isattyr.o)
                              /tools/arm-gnu-toolchain-13.2.Rel1-x86_64-aarch64-none-elf/bin/../lib/gcc/aarch64-none-elf/13.2.1/../../../../aarch64-none-elf/lib/libg.a(libc_a-makebuf.o) (_isatty_r)
/tools/arm-gnu-toolchain-13.2.Rel1-x86_64-aarch64-none-elf/bin/../lib/gcc/aarch64-none-elf/13.2.1/../../../../aarch64-none-elf/lib/libg.a(libc_a-lseekr.o)
                              /tools/arm-gnu-toolchain-13.2.Rel1-x86_64-aarch64-none-elf/bin/../lib/gcc/aarch64-none-elf/13.2.1/../../../../aarch64-none-elf/lib/libg.a(libc_a-stdio.o) (_lseek_r)
/tools/arm-gnu-toolchain-13.2.Rel1-x86_64-aarch64-none-elf/bin/../lib/gcc/aarch64-none-elf/13.2.1/../../../../aarch64-none-elf/lib/libg.a(libc_a-readr.o)
                              /tools/arm-gnu-toolchain-13.2.Rel1-x86_64-aarch64-none-elf/bin/../lib/gcc/aarch64-none-elf/13.2.1/../../../../aarch64-none-elf/lib/libg.a(libc_a-stdio.o) (_read_r)
/tools/arm-gnu-toolchain-13.2.Rel1-x86_64-aarch64-none-elf/bin/../lib/gcc/aarch64-none-elf/13.2.1/../../../../aarch64-none-elf/lib/libg.a(libc_a-fputwc.o)
                              /tools/arm-gnu-toolchain-13.2.Rel1-x86_64-aarch64-none-elf/bin/../lib/gcc/aarch64-none-elf/13.2.1/../../../../aarch64-none-elf/lib/libg.a(libc_a-vfiprintf.o) (_fputwc_r)
/tools/arm-gnu-toolchain-13.2.Rel1-x86_64-aarch64-none-elf/bin/../lib/gcc/aarch64-none-elf/13.2.1/../../../../aarch64-none-elf/lib/libg.a(libc_a-signalr.o)
                              /tools/arm-gnu-toolchain-13.2.Rel1-x86_64-aarch64-none-elf/bin/../lib/gcc/aarch64-none-elf/13.2.1/../../../../aarch64-none-elf/lib/libg.a(libc_a-signal.o) (_kill_r)
/tools/arm-gnu-toolchain-13.2.Rel1-x86_64-aarch64-none-elf/bin/../lib/gcc/aarch64-none-elf/13.2.1/../../../../aarch64-none-elf/lib/libg.a(libc_a-wbuf.o)
                              /tools/arm-gnu-toolchain-13.2.Rel1-x86_64-aarch64-none-elf/bin/../lib/gcc/aarch64-none-elf/13.2.1/../../../../aarch64-none-elf/lib/libg.a(libc_a-putc.o) (__swbuf_r)
/tools/arm-gnu-toolchain-13.2.Rel1-x86_64-aarch64-none-elf/bin/../lib/gcc/aarch64-none-elf/13.2.1/libgcc.a(trunctfdf2.o)
                              /tools/arm-gnu-toolchain-13.2.Rel1-x86_64-aarch64-none-elf/bin/../lib/gcc/aarch64-none-elf/13.2.1/../../../../aarch64-none-elf/lib/libg.a(libc_a-svfprintf.o) (__trunctfdf2)
/tools/arm-gnu-toolchain-13.2.Rel1-x86_64-aarch64-none-elf/bin/../lib/gcc/aarch64-none-elf/13.2.1/libgcc.a(sfp-exceptions.o)
                              /tools/arm-gnu-toolchain-13.2.Rel1-x86_64-aarch64-none-elf/bin/../lib/gcc/aarch64-none-elf/13.2.1/libgcc.a(trunctfdf2.o) (__sfp_handle_exceptions)

Merging program properties

Removed property 0xc0000000 to merge /tools/arm-gnu-toolchain-13.2.Rel1-x86_64-aarch64-none-elf/bin/../lib/gcc/aarch64-none-elf/13.2.1/../../../../aarch64-none-elf/lib/libg.a(libc_a-strchr.o) (0x3) and CMakeFiles/freertos_kernel.elf.dir/main.c.o (not found)
Removed property 0xc0000000 to merge /tools/arm-gnu-toolchain-13.2.Rel1-x86_64-aarch64-none-elf/bin/../lib/gcc/aarch64-none-elf/13.2.1/../../../../aarch64-none-elf/lib/libg.a(libc_a-strchr.o) (not found) and /tools/arm-gnu-toolchain-13.2.Rel1-x86_64-aarch64-none-elf/bin/../lib/gcc/aarch64-none-elf/13.2.1/../../../../aarch64-none-elf/lib/libg.a(libc_a-strcmp.o) (0x3)
Removed property 0xc0000000 to merge /tools/arm-gnu-toolchain-13.2.Rel1-x86_64-aarch64-none-elf/bin/../lib/gcc/aarch64-none-elf/13.2.1/../../../../aarch64-none-elf/lib/libg.a(libc_a-strchr.o) (not found) and /tools/arm-gnu-toolchain-13.2.Rel1-x86_64-aarch64-none-elf/bin/../lib/gcc/aarch64-none-elf/13.2.1/../../../../aarch64-none-elf/lib/libg.a(libc_a-strlen.o) (0x3)
Removed property 0xc0000000 to merge /tools/arm-gnu-toolchain-13.2.Rel1-x86_64-aarch64-none-elf/bin/../lib/gcc/aarch64-none-elf/13.2.1/../../../../aarch64-none-elf/lib/libg.a(libc_a-strchr.o) (not found) and /tools/arm-gnu-toolchain-13.2.Rel1-x86_64-aarch64-none-elf/bin/../lib/gcc/aarch64-none-elf/13.2.1/../../../../aarch64-none-elf/lib/libg.a(libc_a-strncmp.o) (0x3)
Removed property 0xc0000000 to merge /tools/arm-gnu-toolchain-13.2.Rel1-x86_64-aarch64-none-elf/bin/../lib/gcc/aarch64-none-elf/13.2.1/../../../../aarch64-none-elf/lib/libg.a(libc_a-strchr.o) (not found) and /tools/arm-gnu-toolchain-13.2.Rel1-x86_64-aarch64-none-elf/bin/../lib/gcc/aarch64-none-elf/13.2.1/../../../../aarch64-none-elf/lib/libg.a(libc_a-strnlen.o) (0x3)
Removed property 0xc0000000 to merge /tools/arm-gnu-toolchain-13.2.Rel1-x86_64-aarch64-none-elf/bin/../lib/gcc/aarch64-none-elf/13.2.1/../../../../aarch64-none-elf/lib/libg.a(libc_a-strchr.o) (not found) and /tools/arm-gnu-toolchain-13.2.Rel1-x86_64-aarch64-none-elf/bin/../lib/gcc/aarch64-none-elf/13.2.1/../../../../aarch64-none-elf/lib/libg.a(libc_a-memchr.o) (0x3)
Removed property 0xc0000000 to merge /tools/arm-gnu-toolchain-13.2.Rel1-x86_64-aarch64-none-elf/bin/../lib/gcc/aarch64-none-elf/13.2.1/../../../../aarch64-none-elf/lib/libg.a(libc_a-strchr.o) (not found) and /tools/arm-gnu-toolchain-13.2.Rel1-x86_64-aarch64-none-elf/bin/../lib/gcc/aarch64-none-elf/13.2.1/../../../../aarch64-none-elf/lib/libg.a(libc_a-memcmp.o) (0x3)
Removed property 0xc0000000 to merge /tools/arm-gnu-toolchain-13.2.Rel1-x86_64-aarch64-none-elf/bin/../lib/gcc/aarch64-none-elf/13.2.1/../../../../aarch64-none-elf/lib/libg.a(libc_a-strchr.o) (not found) and /tools/arm-gnu-toolchain-13.2.Rel1-x86_64-aarch64-none-elf/bin/../lib/gcc/aarch64-none-elf/13.2.1/../../../../aarch64-none-elf/lib/libg.a(libc_a-memcpy.o) (0x3)
Removed property 0xc0000000 to merge /tools/arm-gnu-toolchain-13.2.Rel1-x86_64-aarch64-none-elf/bin/../lib/gcc/aarch64-none-elf/13.2.1/../../../../aarch64-none-elf/lib/libg.a(libc_a-strchr.o) (not found) and /tools/arm-gnu-toolchain-13.2.Rel1-x86_64-aarch64-none-elf/bin/../lib/gcc/aarch64-none-elf/13.2.1/../../../../aarch64-none-elf/lib/libg.a(libc_a-memset.o) (0x3)
Removed property 0xc0000000 to merge /tools/arm-gnu-toolchain-13.2.Rel1-x86_64-aarch64-none-elf/bin/../lib/gcc/aarch64-none-elf/13.2.1/../../../../aarch64-none-elf/lib/libg.a(libc_a-strchr.o) (not found) and /tools/arm-gnu-toolchain-13.2.Rel1-x86_64-aarch64-none-elf/bin/../lib/gcc/aarch64-none-elf/13.2.1/../../../../aarch64-none-elf/lib/libg.a(libc_a-strcpy.o) (0x3)

Discarded input sections

 .eh_frame      0x0000000000000000       0x28 /tools/arm-gnu-toolchain-13.2.Rel1-x86_64-aarch64-none-elf/bin/../lib/gcc/aarch64-none-elf/13.2.1/libgcc.a(ldset_8_4.o)
 .note.gnu.property
                0x0000000000000000       0x20 /tools/arm-gnu-toolchain-13.2.Rel1-x86_64-aarch64-none-elf/bin/../lib/gcc/aarch64-none-elf/13.2.1/../../../../aarch64-none-elf/lib/libg.a(libc_a-strchr.o)
 .eh_frame      0x0000000000000000       0x28 /tools/arm-gnu-toolchain-13.2.Rel1-x86_64-aarch64-none-elf/bin/../lib/gcc/aarch64-none-elf/13.2.1/../../../../aarch64-none-elf/lib/libg.a(libc_a-strchr.o)
 .note.gnu.property
                0x0000000000000000       0x20 /tools/arm-gnu-toolchain-13.2.Rel1-x86_64-aarch64-none-elf/bin/../lib/gcc/aarch64-none-elf/13.2.1/../../../../aarch64-none-elf/lib/libg.a(libc_a-strcmp.o)
 .eh_frame      0x0000000000000000       0x28 /tools/arm-gnu-toolchain-13.2.Rel1-x86_64-aarch64-none-elf/bin/../lib/gcc/aarch64-none-elf/13.2.1/../../../../aarch64-none-elf/lib/libg.a(libc_a-strcmp.o)
 .note.gnu.property
                0x0000000000000000       0x20 /tools/arm-gnu-toolchain-13.2.Rel1-x86_64-aarch64-none-elf/bin/../lib/gcc/aarch64-none-elf/13.2.1/../../../../aarch64-none-elf/lib/libg.a(libc_a-strlen.o)
 .eh_frame      0x0000000000000000       0x28 /tools/arm-gnu-toolchain-13.2.Rel1-x86_64-aarch64-none-elf/bin/../lib/gcc/aarch64-none-elf/13.2.1/../../../../aarch64-none-elf/lib/libg.a(libc_a-strlen.o)
 .note.gnu.property
                0x0000000000000000       0x20 /tools/arm-gnu-toolchain-13.2.Rel1-x86_64-aarch64-none-elf/bin/../lib/gcc/aarch64-none-elf/13.2.1/../../../../aarch64-none-elf/lib/libg.a(libc_a-strncmp.o)
 .eh_frame      0x0000000000000000       0x28 /tools/arm-gnu-toolchain-13.2.Rel1-x86_64-aarch64-none-elf/bin/../lib/gcc/aarch64-none-elf/13.2.1/../../../../aarch64-none-elf/lib/libg.a(libc_a-strncmp.o)
 .note.gnu.property
                0x0000000000000000       0x20 /tools/arm-gnu-toolchain-13.2.Rel1-x86_64-aarch64-none-elf/bin/../lib/gcc/aarch64-none-elf/13.2.1/../../../../aarch64-none-elf/lib/libg.a(libc_a-strnlen.o)
 .eh_frame      0x0000000000000000       0x28 /tools/arm-gnu-toolchain-13.2.Rel1-x86_64-aarch64-none-elf/bin/../lib/gcc/aarch64-none-elf/13.2.1/../../../../aarch64-none-elf/lib/libg.a(libc_a-strnlen.o)
 .note.gnu.property
                0x0000000000000000       0x20 /tools/arm-gnu-toolchain-13.2.Rel1-x86_64-aarch64-none-elf/bin/../lib/gcc/aarch64-none-elf/13.2.1/../../../../aarch64-none-elf/lib/libg.a(libc_a-memchr.o)
 .eh_frame      0x0000000000000000       0x28 /tools/arm-gnu-toolchain-13.2.Rel1-x86_64-aarch64-none-elf/bin/../lib/gcc/aarch64-none-elf/13.2.1/../../../../aarch64-none-elf/lib/libg.a(libc_a-memchr.o)
 .note.gnu.property
                0x0000000000000000       0x20 /tools/arm-gnu-toolchain-13.2.Rel1-x86_64-aarch64-none-elf/bin/../lib/gcc/aarch64-none-elf/13.2.1/../../../../aarch64-none-elf/lib/libg.a(libc_a-memcmp.o)
 .eh_frame      0x0000000000000000       0x28 /tools/arm-gnu-toolchain-13.2.Rel1-x86_64-aarch64-none-elf/bin/../lib/gcc/aarch64-none-elf/13.2.1/../../../../aarch64-none-elf/lib/libg.a(libc_a-memcmp.o)
 .note.gnu.property
                0x0000000000000000       0x20 /tools/arm-gnu-toolchain-13.2.Rel1-x86_64-aarch64-none-elf/bin/../lib/gcc/aarch64-none-elf/13.2.1/../../../../aarch64-none-elf/lib/libg.a(libc_a-memcpy.o)
 .eh_frame      0x0000000000000000       0x28 /tools/arm-gnu-toolchain-13.2.Rel1-x86_64-aarch64-none-elf/bin/../lib/gcc/aarch64-none-elf/13.2.1/../../../../aarch64-none-elf/lib/libg.a(libc_a-memcpy.o)
 .note.gnu.property
                0x0000000000000000       0x20 /tools/arm-gnu-toolchain-13.2.Rel1-x86_64-aarch64-none-elf/bin/../lib/gcc/aarch64-none-elf/13.2.1/../../../../aarch64-none-elf/lib/libg.a(libc_a-memset.o)
 .eh_frame      0x0000000000000000       0x28 /tools/arm-gnu-toolchain-13.2.Rel1-x86_64-aarch64-none-elf/bin/../lib/gcc/aarch64-none-elf/13.2.1/../../../../aarch64-none-elf/lib/libg.a(libc_a-memset.o)
 .note.gnu.property
                0x0000000000000000       0x20 /tools/arm-gnu-toolchain-13.2.Rel1-x86_64-aarch64-none-elf/bin/../lib/gcc/aarch64-none-elf/13.2.1/../../../../aarch64-none-elf/lib/libg.a(libc_a-strcpy.o)
 .eh_frame      0x0000000000000000       0x28 /tools/arm-gnu-toolchain-13.2.Rel1-x86_64-aarch64-none-elf/bin/../lib/gcc/aarch64-none-elf/13.2.1/../../../../aarch64-none-elf/lib/libg.a(libc_a-strcpy.o)

Memory Configuration

Name             Origin             Length             Attributes
bl31             0x0000000000000000 0x0000000000200000 !xrw
dram0_pa         0x0000000000200000 0x000000000fc00000 xrw
dram0            0x0000010000200000 0x000000000fc00000 xrw
cs_q             0x000001000fc00000 0x0000000000200000 rw
logbuf           0x0000010020000000 0x0000000000200000 xrw
*default*        0x0000000000000000 0xffffffffffffffff

Linker script and memory map

LOAD /tools/arm-gnu-toolchain-13.2.Rel1-x86_64-aarch64-none-elf/bin/../lib/gcc/aarch64-none-elf/13.2.1/../../../../aarch64-none-elf/lib/libc.a
LOAD /tools/arm-gnu-toolchain-13.2.Rel1-x86_64-aarch64-none-elf/bin/../lib/gcc/aarch64-none-elf/13.2.1/libgcc.a
LOAD /tools/arm-gnu-toolchain-13.2.Rel1-x86_64-aarch64-none-elf/bin/../lib/gcc/aarch64-none-elf/13.2.1/../../../../aarch64-none-elf/lib/libm.a
LOAD CMakeFiles/freertos_kernel.elf.dir/main.c.o
LOAD gloss/CMakeFiles/freedom_metal.dir/freedom_metal.c.o
LOAD gloss/CMakeFiles/freedom_metal.dir/nanosleep.c.o
LOAD gloss/CMakeFiles/freedom_metal.dir/sys_access.c.o
LOAD gloss/CMakeFiles/freedom_metal.dir/sys_chdir.c.o
LOAD gloss/CMakeFiles/freedom_metal.dir/sys_chmod.c.o
LOAD gloss/CMakeFiles/freedom_metal.dir/sys_chown.c.o
LOAD gloss/CMakeFiles/freedom_metal.dir/sys_clock_gettime.c.o
LOAD gloss/CMakeFiles/freedom_metal.dir/sys_close.c.o
LOAD gloss/CMakeFiles/freedom_metal.dir/sys_execve.c.o
LOAD gloss/CMakeFiles/freedom_metal.dir/sys_exit.c.o
LOAD gloss/CMakeFiles/freedom_metal.dir/sys_faccessat.c.o
LOAD gloss/CMakeFiles/freedom_metal.dir/sys_fork.c.o
LOAD gloss/CMakeFiles/freedom_metal.dir/sys_fstat.c.o
LOAD gloss/CMakeFiles/freedom_metal.dir/sys_fstatat.c.o
LOAD gloss/CMakeFiles/freedom_metal.dir/sys_ftime.c.o
LOAD gloss/CMakeFiles/freedom_metal.dir/sys_getcwd.c.o
LOAD gloss/CMakeFiles/freedom_metal.dir/sys_getpid.c.o
LOAD gloss/CMakeFiles/freedom_metal.dir/sys_gettimeofday.c.o
LOAD gloss/CMakeFiles/freedom_metal.dir/sys_isatty.c.o
LOAD gloss/CMakeFiles/freedom_metal.dir/sys_kill.c.o
LOAD gloss/CMakeFiles/freedom_metal.dir/sys_link.c.o
LOAD gloss/CMakeFiles/freedom_metal.dir/sys_lseek.c.o
LOAD gloss/CMakeFiles/freedom_metal.dir/sys_lstat.c.o
LOAD gloss/CMakeFiles/freedom_metal.dir/sys_open.c.o
LOAD gloss/CMakeFiles/freedom_metal.dir/sys_openat.c.o
LOAD gloss/CMakeFiles/freedom_metal.dir/sys_read.c.o
LOAD gloss/CMakeFiles/freedom_metal.dir/sys_sbrk.c.o
LOAD gloss/CMakeFiles/freedom_metal.dir/sys_sysconf.c.o
LOAD gloss/CMakeFiles/freedom_metal.dir/sys_times.c.o
LOAD gloss/CMakeFiles/freedom_metal.dir/sys_unlink.c.o
LOAD gloss/CMakeFiles/freedom_metal.dir/sys_utime.c.o
LOAD gloss/CMakeFiles/freedom_metal.dir/sys_wait.c.o
LOAD gloss/CMakeFiles/freedom_metal.dir/sys_write.c.o
LOAD build/drivers/mailbox/CMakeFiles/mailbox.dir/mailbox.c.o
LOAD build/drivers/mailbox/CMakeFiles/mailbox.dir/mailbox_cb.c.o
LOAD build/drivers/pmu/CMakeFiles/pmu.dir/pmu.c.o
LOAD build/drivers/uart/CMakeFiles/uart.dir/uart.c.o
LOAD build/drivers/dma/CMakeFiles/dma.dir/pl330.c.o
LOAD build/drivers/gpio/CMakeFiles/gpio.dir/gpio.c.o
LOAD build/drivers/smmu/CMakeFiles/smmu.dir/smmu.c.o
LOAD build/drivers/smmu/CMakeFiles/smmu.dir/smmu_pmu.c.o
LOAD build/drivers/pvt_con/CMakeFiles/pvt_con.dir/pvt_con.c.o
LOAD build/drivers/cmu/CMakeFiles/cmu.dir/cmu.c.o
LOAD build/drivers/watchdog/CMakeFiles/watchdog.dir/dw_apb_wdt.c.o
LOAD build/drivers/rbc/CMakeFiles/rbc.dir/aw_ucie.c.o
LOAD build/drivers/rbc/CMakeFiles/rbc.dir/rbc_driver.c.o
LOAD build/drivers/rbc/CMakeFiles/rbc.dir/rbc_cmd.c.o
LOAD build/drivers/rbcm/CMakeFiles/rbcm.dir/rbcm_core.c.o
LOAD build/drivers/rbcm/CMakeFiles/rbcm.dir/rbcm_driver.c.o
LOAD build/drivers/i2c/CMakeFiles/i2c.dir/i2c.c.o
LOAD build/drivers/noc_logger/CMakeFiles/noc_logger.dir/noc_logger.c.o
LOAD build/drivers/hbm3/CMakeFiles/hbm3.dir/hbm3.c.o
LOAD build/drivers/hbm3/CMakeFiles/hbm3.dir/tmrs.c.o
LOAD build/drivers/hbm3/CMakeFiles/hbm3.dir/icon.c.o
LOAD build/drivers/hbm3/CMakeFiles/hbm3.dir/hbm3_irq.c.o
LOAD build/drivers/hbm3/CMakeFiles/hbm3.dir/hbm3_am.c.o
LOAD build/drivers/pmic/CMakeFiles/pmic.dir/ltc1427cs8.c.o
LOAD build/drivers/pmic/CMakeFiles/pmic.dir/tca9548a.c.o
LOAD build/drivers/pmic/CMakeFiles/pmic.dir/mp5998.c.o
LOAD build/drivers/pmic/CMakeFiles/pmic.dir/mpq8785.c.o
LOAD build/drivers/pmic/CMakeFiles/pmic.dir/mp29816a.c.o
LOAD build/drivers/pmic/CMakeFiles/pmic.dir/g1505.c.o
LOAD build/drivers/pmic/CMakeFiles/pmic.dir/pmic_mgr.c.o
LOAD build/drivers/dvfs/CMakeFiles/dvfs.dir/dvfs.c.o
LOAD build/drivers/sic/CMakeFiles/sic.dir/sic.c.o
LOAD build/drivers/timer/dw_apb_timer/CMakeFiles/dw_apb_timer.dir/dw_apb_timer.c.o
LOAD build/drivers/qspi/qspi_apb/CMakeFiles/qspi_apb.dir/qspi_apb.c.o
LOAD build/drivers/flash/CMakeFiles/flash.dir/mt25q_flash.c.o
LOAD build/tests/common/CMakeFiles/test_common.dir/test_mailbox_cb.c.o
LOAD build/tests/interrupt_test_helper_example/CMakeFiles/interrupt_test_helper_example.dir/example_test.c.o
LOAD build/tests/interrupt_test_helper_example/CMakeFiles/interrupt_test_helper_example.dir/example_driver.c.o
LOAD build/tests/arch/CMakeFiles/test_arch.dir/test_cli.c.o
LOAD build/tests/gpio/CMakeFiles/test_gpio.dir/test_gpio.c.o
LOAD build/tests/dma/CMakeFiles/test_dma.dir/test_dma_main.c.o
LOAD build/tests/mailbox/CMakeFiles/mailbox_test.dir/test_mailbox_main.c.o
LOAD build/tests/pvt_con/CMakeFiles/test_pvt_con.dir/test_pvt_con.c.o
LOAD build/tests/arch/arm64/CMakeFiles/test_arm64.dir/test_ca73.c.o
LOAD build/tests/timer/dw_apb_timer/CMakeFiles/test_dw_apb_timer.dir/test_dw_apb_timer.c.o
LOAD build/tests/cmu/CMakeFiles/test_cmu.dir/test_cmu_main.c.o
LOAD build/tests/smmu/CMakeFiles/test_mmu.dir/test_mmu_main.c.o
LOAD build/tests/log/CMakeFiles/show_log.dir/rebel_h_log.c.o
LOAD build/tests/rbc/CMakeFiles/test_rbc.dir/test/all_test.c.o
LOAD build/tests/rbc/CMakeFiles/test_rbc.dir/test/test_aw_ucie_init.c.o
LOAD build/tests/rbc/CMakeFiles/test_rbc.dir/test/test_aw_ucie_d2d_comp.c.o
LOAD build/tests/rbc/CMakeFiles/test_rbc.dir/test/test_aw_ucie_d2d_err_and_link.c.o
LOAD build/tests/rbc/CMakeFiles/test_rbc.dir/test/test_aw_ucie_retraining.c.o
LOAD build/tests/rbc/CMakeFiles/test_rbc.dir/test/test_aw_ucie_sideband.c.o
LOAD build/tests/rbc/CMakeFiles/test_rbc.dir/test/test_aw_ucie_training.c.o
LOAD build/tests/rbc/CMakeFiles/test_rbc.dir/test/test_aw_ucie_runtime_link_test.c.o
LOAD build/tests/rbc/CMakeFiles/test_rbc.dir/test/test_aw_ucie_phy_compliance_test.c.o
LOAD build/tests/rbc/CMakeFiles/test_rbc.dir/test/test_aw_ucie_exception.c.o
LOAD build/tests/rbc/CMakeFiles/test_rbc.dir/test/test_aw_ucie_eye_of_margin.c.o
LOAD build/tests/rbc/CMakeFiles/test_rbc.dir/test/test_aw_ucie_util.c.o
LOAD build/tests/rbc/CMakeFiles/test_rbc.dir/test/test_fake_timer.c.o
LOAD build/tests/rbc/CMakeFiles/test_rbc.dir/test/test_rbc_driver.c.o
LOAD build/tests/rbc/CMakeFiles/test_rbc.dir/mocks/fake_timer.c.o
LOAD build/tests/rbc/CMakeFiles/test_rbc.dir/mocks/fake_gic.c.o
LOAD build/tests/rbcm/CMakeFiles/test_rbcm.dir/rbcm_test.c.o
LOAD build/tests/rbcm/CMakeFiles/test_rbcm.dir/rbcm_reg_access_test.c.o
LOAD build/tests/i2c/CMakeFiles/test_i2c.dir/test_i2c_main.c.o
LOAD build/tests/hbm3/CMakeFiles/hbm3_test.dir/memtest.c.o
LOAD build/tests/hbm3/CMakeFiles/hbm3_test.dir/hbm3_irq_test.c.o
LOAD build/tests/system_test/CMakeFiles/system_test.dir/test_system.c.o
LOAD build/tests/system_test/CMakeFiles/system_test.dir/dma_transaction.c.o
LOAD build/tests/system_test/CMakeFiles/system_test.dir/test_dma_transaction.c.o
LOAD build/tests/system_test/CMakeFiles/system_test.dir/data_process.c.o
LOAD build/tests/system_test/CMakeFiles/system_test.dir/test_data_process.c.o
LOAD build/tests/dvfs/CMakeFiles/test_dvfs.dir/test_dvfs_main.c.o
LOAD build/tests/pmic/CMakeFiles/test_pmic.dir/test_pmic_main.c.o
LOAD build/tests/pvt_con/CMakeFiles/pvt_cli.dir/pvt_cli.c.o
LOAD build/tests/pvt_con/CMakeFiles/pvt_cli.dir/pvt_cli_show.c.o
LOAD build/tests/pvt_con/CMakeFiles/pvt_cli.dir/pvt_cli_enable.c.o
LOAD build/tests/pvt_con/CMakeFiles/pvt_cli.dir/pvt_cli_disable.c.o
LOAD build/tests/pvt_con/CMakeFiles/pvt_cli.dir/pvt_cli_set.c.o
LOAD build/tests/sic/CMakeFiles/test_sic.dir/test_sic.c.o
LOAD build/tests/chipid/CMakeFiles/test_chipid.dir/read_chipid.c.o
LOAD build/tests/flash/CMakeFiles/test_flash.dir/test_flash.c.o
LOAD build/tests/qspi/CMakeFiles/test_qspiapb.dir/test_qspiapb.c.o
LOAD build/tests/rbdma/CMakeFiles/test_rbdma.dir/rbdma_tsync_test.c.o
LOAD build/tests/rbdma/CMakeFiles/test_rbdma.dir/test_main_rbdma.c.o
LOAD build/tests/rbdma/CMakeFiles/test_rbdma.dir/cache.S.o
LOAD libfreertos_kernel.a
LOAD portable/libfreertos_kernel_port.a
LOAD build/drivers/common/libdriver.a
LOAD build/drivers/common/libassert.a
LOAD build/drivers/common/libinterrupt.a
LOAD build/drivers/intc/libintc.a
LOAD build/drivers/psci/libpsci.a
LOAD build/drivers/timer/generic_timer/libgeneric_timer.a
LOAD services/cli_service/libcli_service.a
LOAD services/terminal_service/libterminal_service.a
LOAD services/replay_service/libreplay_service.a
LOAD services/task_adder_service/libtask_adder_service.a
LOAD portable/libfreertos_arch.a
LOAD libfreertos_kernel_config.a
LOAD portable/libsmp.a
LOAD portable/libsmccc.a
LOAD portable/libmmu.a
LOAD portable/libfreertos_arch.a
LOAD services/terminal_service/libterminal_service.a
LOAD build/interrupt_test_helper/libinterrupt_test_helper.a
LOAD build/unity/libunity.a
LOAD build/drivers/psci/libpsci.a
LOAD portable/libsmccc.a
LOAD services/cli_service/libcli_service.a
LOAD libfreertos_kernel.a
LOAD build/common/arch/libcommon.a
LOAD build/drivers/intc/libintc.a
LOAD build/drivers/timer/generic_timer/libgeneric_timer.a
LOAD build/drivers/common/libdriver.a
LOAD build/drivers/common/libassert.a
LOAD build/drivers/common/libinterrupt.a
LOAD /tools/arm-gnu-toolchain-13.2.Rel1-x86_64-aarch64-none-elf/bin/../lib/gcc/aarch64-none-elf/13.2.1/libgcc.a
LOAD /tools/arm-gnu-toolchain-13.2.Rel1-x86_64-aarch64-none-elf/bin/../lib/gcc/aarch64-none-elf/13.2.1/../../../../aarch64-none-elf/lib/libg.a
LOAD /tools/arm-gnu-toolchain-13.2.Rel1-x86_64-aarch64-none-elf/bin/../lib/gcc/aarch64-none-elf/13.2.1/../../../../aarch64-none-elf/lib/libc.a
LOAD /tools/arm-gnu-toolchain-13.2.Rel1-x86_64-aarch64-none-elf/bin/../lib/gcc/aarch64-none-elf/13.2.1/libgcc.a
                0x0000000000004000                isr_stack_size = 0x4000
                0x0000000000004000                _stack_size = 0x4000
                0x0000000000001000                mmu_page_size = 0x1000
                0x0000000000200000                mmu_page_2mb = 0x200000
                0x0000000000002000                dma_mcode_region_size = 0x2000
                0x0000000000001000                dma_reserved_size = 0x1000
                0x0000000000001000                smmu_cte_size = 0x1000
                0x0000000000001000                smmu_cd_size = 0x1000
                0x0000000000008000                smmu_cmdq_size = 0x8000
                0x0000000000008000                smmu_evtq_size = 0x8000
                0x0000000000001000                dma_smmu_reserved_size = 0x1000
                0x0000000000200000                dyn_heap_size = 0x200000

.text           0x0000010000200000    0x812cc load address 0x0000000000200000
                0x0000010000200000                text_region_start = .
 *(.text.startup)
 .text.startup  0x0000010000200000       0xf8 portable/libfreertos_arch.a(startup.S.o)
                0x0000010000200000                _start
 *(.text.vectors)
 *fill*         0x00000100002000f8      0x708 
 .text.vectors  0x0000010000200800      0x784 portable/libfreertos_arch.a(vector.S.o)
                0x0000010000200800                _freertos_vector_table
 *(.text)
 *fill*         0x0000010000200f84       0x1c 
 .text          0x0000010000200fa0      0x364 CMakeFiles/freertos_kernel.elf.dir/main.c.o
                0x0000010000200fa0                vAssertCalled
                0x0000010000200ff0                prvSetupHardware
                0x0000010000201010                main
 *fill*         0x0000010000201304       0x1c 
 .text          0x0000010000201320       0xa8 gloss/CMakeFiles/freedom_metal.dir/freedom_metal.c.o
                0x0000010000201320                metal_cpu_get_current_hartid
                0x0000010000201330                metal_timer_get_timebase_frequency
                0x0000010000201340                metal_timer_get_cyclecount
                0x0000010000201350                metal_shutdown
                0x0000010000201360                metal_mem_scrub
                0x00000100002013b0                metal_tty_putc
 *fill*         0x00000100002013c8        0x8 
 .text          0x00000100002013d0       0x24 gloss/CMakeFiles/freedom_metal.dir/nanosleep.c.o
                0x00000100002013d0                nanosleep
 *fill*         0x00000100002013f4        0xc 
 .text          0x0000010000201400       0x24 gloss/CMakeFiles/freedom_metal.dir/sys_access.c.o
                0x0000010000201400                _access
 *fill*         0x0000010000201424        0xc 
 .text          0x0000010000201430       0x24 gloss/CMakeFiles/freedom_metal.dir/sys_chdir.c.o
                0x0000010000201430                _chdir
 *fill*         0x0000010000201454        0xc 
 .text          0x0000010000201460       0x24 gloss/CMakeFiles/freedom_metal.dir/sys_chmod.c.o
                0x0000010000201460                _chmod
 *fill*         0x0000010000201484        0xc 
 .text          0x0000010000201490       0x24 gloss/CMakeFiles/freedom_metal.dir/sys_chown.c.o
                0x0000010000201490                _chown
 *fill*         0x00000100002014b4        0xc 
 .text          0x00000100002014c0       0x84 gloss/CMakeFiles/freedom_metal.dir/sys_clock_gettime.c.o
                0x00000100002014c0                clock_getres
                0x00000100002014f0                clock_gettime
                0x0000010000201520                clock_settime
 *fill*         0x0000010000201544        0xc 
 .text          0x0000010000201550       0x24 gloss/CMakeFiles/freedom_metal.dir/sys_close.c.o
                0x0000010000201550                _close
 *fill*         0x0000010000201574        0xc 
 .text          0x0000010000201580       0x24 gloss/CMakeFiles/freedom_metal.dir/sys_execve.c.o
                0x0000010000201580                _execve
 *fill*         0x00000100002015a4       0x1c 
 .text          0x00000100002015c0       0x24 gloss/CMakeFiles/freedom_metal.dir/sys_exit.c.o
                0x00000100002015c0                _exit
 *fill*         0x00000100002015e4        0xc 
 .text          0x00000100002015f0       0x24 gloss/CMakeFiles/freedom_metal.dir/sys_faccessat.c.o
                0x00000100002015f0                _faccessat
 *fill*         0x0000010000201614        0xc 
 .text          0x0000010000201620       0x24 gloss/CMakeFiles/freedom_metal.dir/sys_fork.c.o
                0x0000010000201620                _fork
 *fill*         0x0000010000201644        0xc 
 .text          0x0000010000201650       0x24 gloss/CMakeFiles/freedom_metal.dir/sys_fstat.c.o
                0x0000010000201650                _fstat
 *fill*         0x0000010000201674        0xc 
 .text          0x0000010000201680       0x24 gloss/CMakeFiles/freedom_metal.dir/sys_fstatat.c.o
                0x0000010000201680                _fstatat
 *fill*         0x00000100002016a4        0xc 
 .text          0x00000100002016b0       0x24 gloss/CMakeFiles/freedom_metal.dir/sys_ftime.c.o
                0x00000100002016b0                _ftime
 *fill*         0x00000100002016d4        0xc 
 .text          0x00000100002016e0       0x24 gloss/CMakeFiles/freedom_metal.dir/sys_getcwd.c.o
                0x00000100002016e0                _getcwd
 *fill*         0x0000010000201704        0xc 
 .text          0x0000010000201710        0xc gloss/CMakeFiles/freedom_metal.dir/sys_getpid.c.o
                0x0000010000201710                _getpid
 *fill*         0x000001000020171c        0x4 
 .text          0x0000010000201720       0x88 gloss/CMakeFiles/freedom_metal.dir/sys_gettimeofday.c.o
                0x0000010000201720                gettimeofday
                0x0000010000201720                _gettimeofday
 *fill*         0x00000100002017a8        0x8 
 .text          0x00000100002017b0        0xc gloss/CMakeFiles/freedom_metal.dir/sys_isatty.c.o
                0x00000100002017b0                _isatty
 *fill*         0x00000100002017bc        0x4 
 .text          0x00000100002017c0       0x24 gloss/CMakeFiles/freedom_metal.dir/sys_kill.c.o
                0x00000100002017c0                _kill
 *fill*         0x00000100002017e4        0xc 
 .text          0x00000100002017f0       0x24 gloss/CMakeFiles/freedom_metal.dir/sys_link.c.o
                0x00000100002017f0                _link
 *fill*         0x0000010000201814        0xc 
 .text          0x0000010000201820       0x24 gloss/CMakeFiles/freedom_metal.dir/sys_lseek.c.o
                0x0000010000201820                _lseek
 *fill*         0x0000010000201844        0xc 
 .text          0x0000010000201850       0x24 gloss/CMakeFiles/freedom_metal.dir/sys_lstat.c.o
                0x0000010000201850                _lstat
 *fill*         0x0000010000201874        0xc 
 .text          0x0000010000201880       0x24 gloss/CMakeFiles/freedom_metal.dir/sys_open.c.o
                0x0000010000201880                _open
 *fill*         0x00000100002018a4        0xc 
 .text          0x00000100002018b0       0x24 gloss/CMakeFiles/freedom_metal.dir/sys_openat.c.o
                0x00000100002018b0                _openat
 *fill*         0x00000100002018d4        0xc 
 .text          0x00000100002018e0       0x24 gloss/CMakeFiles/freedom_metal.dir/sys_read.c.o
                0x00000100002018e0                _read
 *fill*         0x0000010000201904       0x1c 
 .text          0x0000010000201920       0xa0 gloss/CMakeFiles/freedom_metal.dir/sys_sbrk.c.o
                0x0000010000201920                _brk
                0x0000010000201940                _sbrk
 .text          0x00000100002019c0       0x10 gloss/CMakeFiles/freedom_metal.dir/sys_sysconf.c.o
                0x00000100002019c0                sysconf
                0x00000100002019c0                _sysconf
 .text          0x00000100002019d0       0x68 gloss/CMakeFiles/freedom_metal.dir/sys_times.c.o
                0x00000100002019d0                times
                0x00000100002019d0                _times
 *fill*         0x0000010000201a38        0x8 
 .text          0x0000010000201a40       0x24 gloss/CMakeFiles/freedom_metal.dir/sys_unlink.c.o
                0x0000010000201a40                _unlink
 *fill*         0x0000010000201a64        0xc 
 .text          0x0000010000201a70       0x24 gloss/CMakeFiles/freedom_metal.dir/sys_utime.c.o
                0x0000010000201a70                _utime
 *fill*         0x0000010000201a94        0xc 
 .text          0x0000010000201aa0       0x24 gloss/CMakeFiles/freedom_metal.dir/sys_wait.c.o
                0x0000010000201aa0                _wait
 *fill*         0x0000010000201ac4       0x1c 
 .text          0x0000010000201ae0       0xb8 gloss/CMakeFiles/freedom_metal.dir/sys_write.c.o
                0x0000010000201ae0                _write
 *fill*         0x0000010000201b98        0x8 
 .text          0x0000010000201ba0      0x6a8 build/drivers/mailbox/CMakeFiles/mailbox.dir/mailbox.c.o
                0x0000010000201ba0                ipm_samsung_init
                0x0000010000201ca0                ipm_samsung_isr
                0x0000010000201e50                ipm_samsung_write
                0x0000010000201f70                ipm_samsung_send
                0x0000010000201fd0                ipm_samsung_receive
                0x00000100002020f0                ipm_samsung_register_callback
                0x0000010000202130                ipm_samsung_read
 *fill*         0x0000010000202248       0x18 
 .text          0x0000010000202260      0x1b4 build/drivers/mailbox/CMakeFiles/mailbox.dir/mailbox_cb.c.o
                0x0000010000202260                mailbox_register_callback
                0x0000010000202270                default_cb
 *fill*         0x0000010000202414        0xc 
 .text          0x0000010000202420      0x220 build/drivers/pmu/CMakeFiles/pmu.dir/pmu.c.o
                0x0000010000202420                pmu_get_bootmode
                0x0000010000202440                pmu_sw_reset
                0x0000010000202460                pmu_rbc_lpi_entry
                0x0000010000202550                pmu_rbc_lpi_exit
                0x0000010000202630                pmu_get_num_of_secondary_chiplet
 .text          0x0000010000202640      0x5b0 build/drivers/uart/CMakeFiles/uart.dir/uart.c.o
                0x0000010000202640                uart_init
                0x0000010000202820                uart_register_rx_callback
                0x0000010000202880                uart_register_tx_callback
                0x00000100002028e0                uart_is_tx_fifo_empty
                0x0000010000202910                uart_putc
                0x00000100002029a0                uart_puts
                0x00000100002029f0                uart_out_all_fifo
                0x0000010000202aa0                uart_getc
                0x0000010000202ae0                uart_irq_rx_enable
                0x0000010000202b00                uart_irq_rx_disable
                0x0000010000202b20                uart_irq_tx_enable
                0x0000010000202b40                uart_irq_tx_disable
                0x0000010000202b60                uart_is_irq_rx_ready
                0x0000010000202b80                uart_int_config
 *fill*         0x0000010000202bf0       0x10 
 .text          0x0000010000202c00      0xe48 build/drivers/dma/CMakeFiles/dma.dir/pl330.c.o
                0x0000010000202c00                dma_isr
                0x0000010000202cb0                dma_fault_isr
                0x0000010000202d80                dma_init
                0x00000100002036f0                dma_set_amba_ovrd
                0x00000100002037d0                dma_configure
                0x0000010000203990                dma_start
 *fill*         0x0000010000203a48       0x18 
 .text          0x0000010000203a60      0x7b4 build/drivers/gpio/CMakeFiles/gpio.dir/gpio.c.o
                0x0000010000203a60                gpio_init
                0x0000010000203ec0                gpio_set_con
                0x0000010000203ef0                gpio_get_con
                0x0000010000203f10                gpio_set_dat
                0x0000010000203f40                gpio_get_dat
                0x0000010000203f60                gpio_set_pud
                0x0000010000203f70                gpio_get_pud
                0x0000010000203f80                gpio_set_drv
                0x0000010000203f90                gpio_get_drv
                0x0000010000203fa0                gpio_set_toggle
                0x0000010000203fb0                gpio_set_eint_grppri
                0x0000010000203fc0                gpio_get_eint_grppri
                0x0000010000203fd0                gpio_set_eint_pri
                0x0000010000203ff0                gpio_get_eint_pri
                0x0000010000204000                gpio_set_eint_svc
                0x0000010000204020                gpio_get_eint_svc
                0x0000010000204030                gpio_set_eint_svcpend
                0x0000010000204040                gpio_get_eint_svcpend
                0x0000010000204050                gpio_set_eint_grpfixpri
                0x0000010000204060                gpio_get_eint_grpfixpri
                0x0000010000204070                gpio_set_nweint_con
                0x00000100002040a0                gpio_get_nweint_con
                0x00000100002040c0                gpio_set_nweint_mask
                0x00000100002040d0                gpio_get_nweint_mask
                0x00000100002040f0                gpio_set_nweint_pend
                0x0000010000204100                gpio_get_nweint_pend
                0x0000010000204120                gpio_set_nweint_fixpri
                0x0000010000204130                gpio_get_nweint_fixpri
                0x0000010000204140                gpio_set_nweint_fltcon
                0x0000010000204190                gpio_get_nweint_fltcon
                0x00000100002041d0                gpio_set_tzpc
                0x0000010000204200                gpio_get_tzpc
 *fill*         0x0000010000204214        0xc 
 .text          0x0000010000204220     0x1118 build/drivers/smmu/CMakeFiles/smmu.dir/smmu.c.o
                0x00000100002049d0                smmu_cmdq_enqueue_cmd
                0x0000010000204af0                smmu_sync
                0x0000010000204c00                smmu_invalidate_all_cd
                0x0000010000204c20                smmu_invalidate_sid
                0x0000010000204c50                smmu_prefetch
                0x0000010000204c80                smmu_sync_cd
                0x0000010000204cb0                smmu_invalidate_tlb_asid
                0x0000010000204ce0                smmu_activate_ctx
                0x0000010000204d50                smmu_s2_disable
                0x0000010000204d90                smmu_deinit_ste
                0x0000010000204de0                smmu_init_ste
                0x0000010000204e80                smmu_init_cd
                0x0000010000204ee0                smmu_invalidate_all_sid
                0x0000010000204f00                smmu_s2_enable
                0x0000010000204f80                smmu_tlbi_all
                0x0000010000204fa0                smmu_init
                0x0000010000205210                smmu_disable
                0x0000010000205240                smmu_enable
                0x0000010000205250                smmu_check_early_event
                0x0000010000205290                smmu_attach_ptable
 *fill*         0x0000010000205338        0x8 
 .text          0x0000010000205340      0x6e4 build/drivers/smmu/CMakeFiles/smmu.dir/smmu_pmu.c.o
                0x0000010000205340                smmu_pmu_capture_counter
                0x0000010000205400                smmu_pmu_print_enabled_cnt
                0x0000010000205530                smmu_pmu_reset_counter_by_evt
                0x00000100002055e0                smmu_pmu_add_evt
                0x00000100002057e0                smmu_pmu_del_evt
                0x00000100002058e0                smmu_pmu_set_filter
                0x0000010000205900                smmu_pmu_enable
                0x00000100002059a0                smmu_pmu_disable
                0x00000100002059d0                smmu_pmu_reset_all_counters
 *fill*         0x0000010000205a24       0x1c 
 .text          0x0000010000205a40     0x2f34 build/drivers/pvt_con/CMakeFiles/pvt_con.dir/pvt_con.c.o
                0x0000010000205a40                pvt_trip_handler
                0x0000010000205b50                pvt_dfs_handler
                0x00000100002060d0                PVT_GET_INSTANCE
                0x0000010000206110                PVT_CONTROL_RISE_INTERRUPT
                0x00000100002062c0                PVT_CONTROL_FALL_INTERRUPT
                0x0000010000206420                pvt_init_intreq
                0x00000100002065a0                pvt_init
                0x00000100002070f0                pvt_intreq_handler
                0x0000010000207490                PVT_GET_RISE_INTERRUPT_PENDING
                0x00000100002074b0                PVT_GET_FALL_INTERRUPT_PENDING
                0x00000100002074d0                PVT_CLEAR_RISE_INTERRUPT
                0x00000100002074f0                PVT_CLEAR_FALL_INTERRUPT
                0x0000010000207510                PVT_GET_RISE_INTERRUPT_STATE
                0x0000010000207690                PVT_GET_FALL_INTERRUPT_STATE
                0x00000100002077f0                PVT_CONVERT_TO_PROC
                0x0000010000207820                PVT_CONVERT_TO_VOLT
                0x0000010000207860                PVT_CONVERT_TO_CALIBRATED_VOLT
                0x00000100002078b0                PVT_CONVERT_TO_TEMP
                0x0000010000207960                PVT_CONVERT_TO_CALIBRATED_TEMP
                0x0000010000207a10                PVT_GET_CURRENT_PROC_VALUE
                0x0000010000207a90                PVT_GET_CURRENT_VOLT_VALUE
                0x0000010000207b30                PVT_GET_CURRENT_TEMP_VALUE
                0x0000010000207c20                PVT_GET_PAST_PROC_VALUE
                0x0000010000207d20                PVT_GET_PAST_VOLT_VALUE
                0x0000010000207e50                PVT_GET_PAST_TEMP_VALUE
                0x00000100002080c0                PVT_SET_FALL_THRESHOLD
                0x00000100002082f0                PVT_GET_FALL_THRESHOLD
                0x0000010000208520                PVT_SET_RISE_THRESHOLD
                0x0000010000208750                PVT_GET_RISE_THRESHOLD
 *fill*         0x0000010000208974        0xc 
 .text          0x0000010000208980     0x14ec build/drivers/cmu/CMakeFiles/cmu.dir/cmu.c.o
                0x0000010000208980                set_clk_out
                0x00000100002089d0                set_pll_freq_f0434
                0x0000010000208a90                set_pll_freq_f0435
                0x0000010000208b50                get_pll_freq_f0434
                0x0000010000208bf0                get_pll_freq_f0435
                0x0000010000208c10                set_div_ratio
                0x0000010000208c30                set_hch_div_ratio
                0x0000010000208cb0                get_div_ratio
                0x0000010000208cc0                get_hch_div_ratio
                0x0000010000208d10                set_user_mux_sel
                0x0000010000208d30                set_mux_sel
                0x0000010000208d50                get_user_mux_sel
                0x0000010000208d60                get_mux_sel
                0x0000010000208d70                is_clk_gated
                0x0000010000208d80                clk_gating
                0x0000010000208da0                get_user_mux_freq
                0x0000010000208db0                get_mux_freq
                0x0000010000208dc0                get_hch_div_freq
                0x0000010000208e10                get_div_freq
                0x0000010000208e20                cmu_blk_cp_init
                0x0000010000209010                cmu_blk_pcie_init
                0x0000010000209150                cmu_blk_rot_init
                0x0000010000209250                cmu_blk_peri_init
                0x0000010000209310                cmu_blk_ebus_d_init
                0x00000100002093f0                cmu_blk_ebus_r_init
                0x0000010000209430                cmu_blk_ebus_u_init
                0x0000010000209530                cmu_blk_nbus_d_init
                0x0000010000209610                cmu_blk_nbus_l_init
                0x0000010000209670                cmu_blk_nbus_u_init
                0x00000100002096d0                cmu_blk_sbus_d_init
                0x0000010000209710                cmu_blk_sbus_l_init
                0x0000010000209750                cmu_blk_sbus_u_init
                0x0000010000209830                cmu_blk_wbus_d_init
                0x0000010000209870                cmu_blk_wbus_u_init
                0x0000010000209930                cmu_blk_dram_init_evt0
                0x0000010000209bd0                cmu_blk_dram_init_evt1
 *fill*         0x0000010000209e6c       0x14 
 .text          0x0000010000209e80      0x198 build/drivers/watchdog/CMakeFiles/watchdog.dir/dw_apb_wdt.c.o
                0x0000010000209e80                dw_apb_wdt_init
                0x0000010000209f50                dw_apb_wdt_get_version
                0x0000010000209f60                dw_apb_wdt_get_enabled
                0x0000010000209f70                dw_apb_wdt_set_timeout
                0x0000010000209fa0                dw_apb_wdt_enable
                0x0000010000209fc0                dw_apb_wdt_set_rmod
                0x0000010000209fe0                dw_apb_wdt_disable
                0x000001000020a000                dw_apb_wdt_kick
 *fill*         0x000001000020a018        0x8 
 .text          0x000001000020a020     0x44c8 build/drivers/rbc/CMakeFiles/rbc.dir/aw_ucie.c.o
                0x000001000020a020                aw_ucie_link_training_impl
                0x000001000020a0f0                aw_ucie_link_retraining_impl
                0x000001000020a430                aw_ucie_mb_crc_err_inject_impl
                0x000001000020ab50                aw_ucie_clear_intr_log
                0x000001000020abd0                aw_ucie_get_intr_log_count
                0x000001000020ac10                aw_ucie_get_intr_log_arr
                0x000001000020ad50                aw_ucie_get_log_data
                0x000001000020aed0                aw_ucie_show_intr_counter
                0x000001000020af50                aw_ucie_set_target_ss
                0x000001000020afd0                ucie_irq_handler
                0x000001000020b310                aw_ucie_get_target_ss
                0x000001000020b320                aw_ucie_get_pcie_cap_hdr
                0x000001000020b370                aw_ucie_get_dvs_hdr1
                0x000001000020b3b0                aw_ucie_get_dvs_hdr2_cap_desc
                0x000001000020b3f0                aw_ucie_set_corr_err_noti
                0x000001000020b450                aw_ucie_set_non_fatal_uncorr_err_noti
                0x000001000020b4b0                aw_ucie_set_fatal_uncorr_err_noti
                0x000001000020b510                aw_ucie_set_link_cap_APMW
                0x000001000020b550                aw_ucie_clear_link_cap_APMW
                0x000001000020b590                aw_ucie_get_link_capability
                0x000001000020b5d0                aw_ucie_get_link_control
                0x000001000020b610                aw_ucie_set_link_control
                0x000001000020b650                aw_ucie_get_link_status
                0x000001000020b690                aw_ucie_set_link_event_noti
                0x000001000020b6f0                aw_ucie_set_phy_init_debug
                0x000001000020b730                aw_ucie_set_phy_control
                0x000001000020b770                aw_ucie_get_phy_control
                0x000001000020b7b0                aw_ucie_get_phy_status
                0x000001000020b7f0                aw_ucie_set_phy_train_setup_1
                0x000001000020b8f0                aw_ucie_get_phy_train_setup_1
                0x000001000020ba10                aw_ucie_get_phy_err_log0
                0x000001000020bb30                aw_ucie_get_aw_ucie_ltsm_state
                0x000001000020bc50                aw_ucie_get_phy_err_log1
                0x000001000020bd70                aw_ucie_set_intr_summary_mask
                0x000001000020bdb0                aw_ucie_get_intr_summary_mask
                0x000001000020bdf0                aw_ucie_set_d2d_uncorr_err_status
                0x000001000020be30                aw_ucie_get_d2d_uncorr_err_status
                0x000001000020be70                aw_ucie_set_d2d_uncorr_err_mask
                0x000001000020beb0                aw_ucie_set_uncorr_err_mask
                0x000001000020bf30                aw_ucie_get_d2d_uncorr_err_mask
                0x000001000020bf70                aw_ucie_get_d2d_uncorr_err_severity
                0x000001000020bfb0                aw_ucie_set_d2d_uncorr_err_severity
                0x000001000020bff0                aw_ucie_set_uncorr_err_severity
                0x000001000020c070                aw_ucie_set_d2d_corr_err_status
                0x000001000020c0b0                aw_ucie_get_d2d_corr_err_status
                0x000001000020c0f0                aw_ucie_set_corr_err_mask
                0x000001000020c170                aw_ucie_get_crc_err_detected
                0x000001000020c1d0                aw_ucie_get_d2d_runtime_link_parity_log
                0x000001000020c370                aw_ucie_set_d2d_adv_adp_log1
                0x000001000020c3b0                aw_ucie_get_d2d_adv_adp_log1
                0x000001000020c3f0                aw_ucie_get_d2d_fin_adp_log1
                0x000001000020c430                aw_ucie_get_phy_cap
                0x000001000020c470                aw_ucie_get_phy_extnd_cap_hdr
                0x000001000020c4b0                aw_ucie_get_uhm_dvsec_hdr1
                0x000001000020c4f0                aw_ucie_get_uhm_dvsec_hdr2
                0x000001000020c530                aw_ucie_get_d2d_hdr_log1_1
                0x000001000020c570                aw_ucie_get_d2d_hdr_log1_2
                0x000001000020c5b0                aw_ucie_get_d2d_hdr_log2
                0x000001000020c5f0                aw_ucie_set_d2d_runtime_link_test_cntrl
                0x000001000020c630                aw_ucie_get_d2d_runtime_link_test_cntrl
                0x000001000020c670                aw_ucie_set_adap_test_comp_ctrl
                0x000001000020c6b0                aw_ucie_get_adap_test_comp_ctrl
                0x000001000020c6f0                aw_ucie_get_adap_test_comp_stat
                0x000001000020c730                aw_ucie_set_adap_test_comp_phy_only_mode
                0x000001000020c790                aw_ucie_set_adap_test_comp_adap_mode
                0x000001000020c7f0                aw_ucie_set_adap_test_comp_normal_mode
                0x000001000020c830                aw_ucie_adap_test_comp_force_reset
                0x000001000020c890                aw_ucie_set_adap_test_comp_flit_injt_ctrl
                0x000001000020c8d0                aw_ucie_get_cmn_mcu_scratch_reg1
                0x000001000020c910                aw_ucie_sb_mbox_manual
                0x000001000020ca10                aw_ucie_sb_mem_rd64
                0x000001000020ca30                aw_ucie_sb_mem_wr64
                0x000001000020ca50                aw_ucie_sb_config_rd32
                0x000001000020ca70                aw_ucie_sb_config_wr32
                0x000001000020ca90                aw_ucie_sb_config_rd64
                0x000001000020cab0                aw_ucie_sb_config_wr64
                0x000001000020cad0                aw_ucie_get_sb_mbox_status
                0x000001000020cb30                aw_ucie_mb_runtime_link_test_enable
                0x000001000020cc30                aw_ucie_mb_runtime_link_test_disable
                0x000001000020cc70                aw_ucie_mb_inject_flit_disable
                0x000001000020ccb0                aw_ucie_mb_inject_alt_flit
                0x000001000020cd30                aw_ucie_link_state_req_inject_stack0
                0x000001000020cd90                aw_ucie_link_state_resp_inject_stack0
                0x000001000020ce10                aw_ucie_mb_inject_error
                0x000001000020ced0                do_runtime_link_test
                0x000001000020cf50                aw_ucie_get_m0_lane_repair_stat
                0x000001000020cfb0                aw_ucie_get_m1_lane_repair_stat
                0x000001000020d010                aw_ucie_set_phy_compliance_enable
                0x000001000020d0b0                aw_ucie_get_phy_compliance_mode
                0x000001000020d130                aw_ucie_set_scrambling_disable
                0x000001000020d1d0                aw_ucie_get_scrambling_disable
                0x000001000020d250                aw_ucie_do_phy_compliance_operation
                0x000001000020d310                aw_ucie_get_phy_compliance_operation_status
                0x000001000020d390                aw_ucie_set_data_pattern_of_train_setup1
                0x000001000020d430                aw_ucie_get_data_pattern_of_train_setup1
                0x000001000020d4b0                aw_ucie_set_valid_pattern_of_train_setup1
                0x000001000020d550                aw_ucie_get_valid_pattern_of_train_setup1
                0x000001000020d5d0                aw_ucie_set_clk_phase_cntrl_of_train_setup1
                0x000001000020d670                aw_ucie_get_clk_phase_cntrl_of_train_setup1
                0x000001000020d6f0                aw_ucie_set_train_mode_of_train_setup1
                0x000001000020d790                aw_ucie_get_train_mode_of_train_setup1
                0x000001000020d810                aw_ucie_set_burst_cnt_of_train_setup1
                0x000001000020d8b0                aw_ucie_get_burst_cnt_of_train_setup1
                0x000001000020d930                aw_ucie_set_idle_cnt_of_train_setup2
                0x000001000020d9d0                aw_ucie_get_idle_cnt_of_train_setup2
                0x000001000020da50                aw_ucie_set_iterations_of_train_setup2
                0x000001000020daf0                aw_ucie_get_iterations_of_train_setup2
                0x000001000020db70                aw_ucie_set_lane_mask_of_train_setup3
                0x000001000020dbf0                aw_ucie_get_lane_mask_of_train_setup3
                0x000001000020dc90                aw_ucie_set_repair_lane_mask_of_train_setup4
                0x000001000020dd30                aw_ucie_get_repair_lane_mask_of_train_setup4
                0x000001000020ddb0                aw_ucie_set_max_err_th_per_lane_of_train_setup4
                0x000001000020de50                aw_ucie_get_max_err_th_per_lane_of_train_setup4
                0x000001000020ded0                aw_ucie_set_max_err_th_aggregate_of_train_setup4
                0x000001000020df70                aw_ucie_get_max_err_th_aggregate_of_train_setup4
                0x000001000020dff0                aw_ucie_get_rx_vref_offset_operation_status
                0x000001000020e070                aw_ucie_set_even_ui_compare_mask
                0x000001000020e110                aw_ucie_get_even_ui_compare_mask
                0x000001000020e190                aw_ucie_set_odd_ui_compare_mask
                0x000001000020e230                aw_ucie_get_odd_ui_compare_mask
                0x000001000020e2b0                aw_ucie_set_track_enable
                0x000001000020e350                aw_ucie_get_track_enable
                0x000001000020e3d0                aw_ucie_set_compare_setup
                0x000001000020e470                aw_ucie_get_compare_setup
 *fill*         0x000001000020e4e8       0x18 
 .text          0x000001000020e500      0xac8 build/drivers/rbc/CMakeFiles/rbc.dir/rbc_driver.c.o
                0x000001000020e570                rbc_driver_init
                0x000001000020e5d0                rebel_h_rbc_init
                0x000001000020e760                rbc_set_target_blk_id
                0x000001000020e7d0                rbc_get_target_blk_id
                0x000001000020e7e0                rbc_set_lp_mode
                0x000001000020e8b0                rbc_lp_entry
                0x000001000020e8c0                rbc_lp_exit
                0x000001000020e8d0                rbc_pch_mux_on
                0x000001000020ea90                rbc_pch_mux_off
                0x000001000020ec10                rbc_aw_ucie_print_eye_diagram
 *fill*         0x000001000020efc8       0x18 
 .text          0x000001000020efe0      0x4dc build/drivers/rbc/CMakeFiles/rbc.dir/rbc_cmd.c.o
                0x000001000020efe0                _check_ucie_link_speed
                0x000001000020f1b0                get_crc_err_cnt
                0x000001000020f270                get_retrain_cnt
                0x000001000020f330                show_crc_err_count
 *fill*         0x000001000020f4bc        0x4 
 .text          0x000001000020f4c0     0x28c4 build/drivers/rbcm/CMakeFiles/rbcm.dir/rbcm_core.c.o
                0x000001000020fc00                rbcm_core_dump_ucie_link_health
                0x0000010000210270                rbcm_core_dump_ucie_crc
                0x00000100002102f0                rbcm_core_user_traffic_generation
                0x0000010000210510                rbcm_core_dump_incomplete_ttreg
                0x0000010000210760                rbcm_core_dump_chiplet_incomplete_ttreg
                0x00000100002107c0                rbcm_core_is_link_up
                0x00000100002107f0                rbcm_core_check_all_chiplet_link_up
                0x0000010000210940                rbcm_core_dump_all_chiplet_incomplete_ttreg
                0x00000100002109b0                rbcm_core_dump_ttreg
                0x0000010000210a20                rbcm_core_is_utg_recorded
                0x0000010000210af0                rbcm_core_configure_interrupts
                0x0000010000210da0                rbcm_core_clear_ttreg
                0x0000010000210dc0                rbcm_core_set_loopback_mode
                0x0000010000210e80                rbcm_core_sw_reset
                0x0000010000210eb0                rbcm_core_recover_from_reset
                0x0000010000210ec0                rbcm_core_addr_remap
                0x0000010000210f30                rbcm_core_set_timeout_interval
                0x0000010000211130                rbcm_core_get_timeout_interval
                0x0000010000211230                rbcm_irq_handler
 *fill*         0x0000010000211d84       0x1c 
 .text          0x0000010000211da0      0x708 build/drivers/rbcm/CMakeFiles/rbcm.dir/rbcm_driver.c.o
                0x0000010000211da0                rbcm_driver_init
                0x0000010000211f20                rbcm_sw_reset
                0x0000010000211f70                rbcm_sw_reset_all
                0x0000010000211fa0                rbcm_clear_ttreg
                0x0000010000211ff0                rbcm_clear_ttreg_all
                0x0000010000212020                rbcm_dump_chiplet_incomplete_ttreg
                0x00000100002120b0                rbcm_dump_incomplete_ttreg
                0x00000100002120f0                rbcm_recover_from_reset
                0x0000010000212130                rbcm_addr_remap
                0x00000100002121a0                rbcm_user_traffic_generation
                0x00000100002121d0                rbcm_dump_ttreg
                0x0000010000212230                rbcm_enable_loopback
                0x0000010000212270                rbcm_disable_loopback
                0x00000100002122b0                rbcm_set_timeout_interval
                0x00000100002122f0                rbcm_get_timeout_interval
                0x0000010000212330                rbcm_configure_interrupts
                0x0000010000212370                rbcm_dump_ucie_link_health
                0x00000100002123b0                rbcm_dump_ucie_crc
                0x00000100002123f0                get_rbcm_base
                0x0000010000212430                get_module_name
                0x0000010000212470                rbcm_is_utg_recorded
 *fill*         0x00000100002124a8       0x18 
 .text          0x00000100002124c0      0xc2c build/drivers/i2c/CMakeFiles/i2c.dir/i2c.c.o
                0x0000010000212770                i2c_probe_device
                0x00000100002129c0                i2c_enable_interrupt
                0x00000100002129e0                i2c_disable_interrupt
                0x0000010000212a00                i2c_intr_timeout_high
                0x0000010000212a90                i2c_intr_timeout_low
                0x0000010000212b30                i2c_configure_baudrate
                0x0000010000212c90                i2c_set_sar
                0x0000010000212d00                i2c_get_sar
                0x0000010000212d10                i2c_set_tar
                0x0000010000212d80                i2c_get_tar
                0x0000010000212d90                i2c_putdata
                0x0000010000212da0                i2c_putready
                0x0000010000212df0                i2c_tfe_ready
                0x0000010000212e30                i2c_getdata
                0x0000010000212e40                i2c_busy_check
                0x0000010000212e70                i2c_idle_ready
                0x0000010000212eb0                i2c_getready
                0x0000010000212ef0                i2c_set_master_mode
                0x0000010000212f60                i2c_set_slave_mode
 *fill*         0x00000100002130ec       0x14 
 .text          0x0000010000213100      0x28c build/drivers/noc_logger/CMakeFiles/noc_logger.dir/noc_logger.c.o
                0x0000010000213100                noc_logger_init
 *fill*         0x000001000021338c       0x14 
 .text          0x00000100002133a0      0x6e0 build/drivers/hbm3/CMakeFiles/hbm3.dir/hbm3.c.o
                0x00000100002133a0                hbm3_config_init
                0x0000010000213410                get_hbm_cfg
                0x0000010000213430                get_phy_lock_value
                0x0000010000213450                phy_do_training
                0x00000100002134c0                phy_gen_pattern
                0x0000010000213540                phy_update_dll_code
                0x0000010000213590                phy_clear_feedback_data
                0x00000100002135e0                mrw_mask
                0x0000010000213690                mrw
                0x00000100002136a0                mrw_phy_direct_cmd
                0x00000100002137d0                phy_set_read_vref
                0x0000010000213810                phy_set_write_vref
                0x0000010000213820                phy_dq_offset_control
                0x00000100002138a0                phy_ecc_offset_control
                0x0000010000213900                phy_sev_offset_control
                0x0000010000213960                phy_dbi_offset_control
                0x0000010000213a00                phy_rdqs_offset_control
                0x0000010000213a30                phy_offset_update
 .text          0x0000010000213a80      0x100 build/drivers/hbm3/CMakeFiles/hbm3.dir/tmrs.c.o
                0x0000010000213a80                tmrs_write
                0x0000010000213ad0                tmrs_gen_inst
                0x0000010000213b20                tmrs_bypass
 .text          0x0000010000213b80     0x27d8 build/drivers/hbm3/CMakeFiles/hbm3.dir/icon.c.o
                0x0000010000213b80                wait_for_test_instruction_req_done
                0x0000010000213bd0                wait_for_test_instruction_req_done_clear
                0x0000010000213c10                icon_test_instruction_req
                0x0000010000213cb0                icon_sw_instruction_req
                0x0000010000213d00                icon_hbm_reset
                0x0000010000213e30                icon_lane_repair
                0x0000010000213f10                icon_rx_lane_search
                0x00000100002140e0                icon_rx_extest
                0x00000100002144e0                icon_tx_lane_search
                0x0000010000214700                icon_tx_extest
                0x0000010000214b80                hbm3_lane_repair
                0x0000010000214dd0                icon_extest
                0x0000010000214ef0                icon_cdc_result
                0x0000010000214fc0                icon_cdc_wdr
                0x0000010000215030                icon_cdc_wir
                0x0000010000215090                icon_hbm_chipping_detection
                0x00000100002152c0                icon_mbist_wdr
                0x00000100002153d0                icon_mbist_result
                0x0000010000215540                icon_mbist_wir
                0x00000100002155b0                icon_get_device_id
                0x0000010000215620                icon_get_dram_temperature
                0x0000010000215650                icon_get_channel_temperature
                0x0000010000215690                icon_get_ecs_error_log
                0x0000010000215710                icon_print_device_id
                0x00000100002159a0                icon_print_dram_temperature
                0x0000010000215a40                icon_print_channel_temperature
                0x0000010000215bc0                icon_print_ecs_error_log
                0x0000010000215fc0                icon_mrw_idx
                0x00000100002160d0                icon_mrs_ch
                0x0000010000216130                icon_mrr
                0x00000100002162e0                icon_rd_feedback
 *fill*         0x0000010000216358        0x8 
 .text          0x0000010000216360      0x6f4 build/drivers/hbm3/CMakeFiles/hbm3.dir/hbm3_irq.c.o
                0x0000010000216360                hbm3_interrupt_handler
                0x0000010000216910                hbm3_interrupt_mask
                0x0000010000216940                hbm3_interrupt_clear
                0x0000010000216970                hbm3_interrupt_gen
                0x0000010000216990                hbm3_interrupt_enable
                0x00000100002169d0                hbm3_interrupt_init
                0x0000010000216a50                hbm3_interrupt_disable
 *fill*         0x0000010000216a54        0xc 
 .text          0x0000010000216a60      0x6a8 build/drivers/hbm3/CMakeFiles/hbm3.dir/hbm3_am.c.o
                0x0000010000216a60                hbm3_activity_monitor_result_print
                0x0000010000216f30                hbm3_activity_monitor_enable
                0x0000010000217040                hbm3_activity_monitor_report
 *fill*         0x0000010000217108       0x18 
 .text          0x0000010000217120      0x328 build/drivers/pmic/CMakeFiles/pmic.dir/ltc1427cs8.c.o
                0x0000010000217120                ltc1427_disable
                0x0000010000217210                ltc1427_enable
                0x00000100002172f0                ltc1427_set_vout
 *fill*         0x0000010000217448        0x8 
 .text          0x0000010000217450       0xcc build/drivers/pmic/CMakeFiles/pmic.dir/tca9548a.c.o
                0x0000010000217450                i2c_mux_check_channel_state
                0x0000010000217480                i2c_mux_enable_channel
                0x00000100002174d0                i2c_mux_disable_channel
 *fill*         0x000001000021751c        0x4 
 .text          0x0000010000217520      0x3ac build/drivers/pmic/CMakeFiles/pmic.dir/mp5998.c.o
                0x0000010000217520                mp5998_set_enable
                0x0000010000217550                mp5998_set_disable
                0x0000010000217580                mp5998_clear_fault
                0x00000100002175b0                mp5998_store_all
                0x00000100002175e0                mp5998_restore_all
                0x0000010000217610                mp5998_set_vin_on
                0x0000010000217640                mp5998_set_vin_off
                0x0000010000217670                mp5998_set_power_good_on
                0x00000100002176a0                mp5998_set_power_good_off
                0x00000100002176d0                mp5998_set_ton_delay
                0x0000010000217710                mp5998_set_toff_delay
                0x0000010000217750                mp5998_read_status_byte
                0x0000010000217790                mp5998_read_status_word
                0x00000100002177d0                mp5998_read_status_cml
                0x0000010000217810                mp5998_read_vout
                0x0000010000217870                mp5998_read_iout
 *fill*         0x00000100002178cc       0x14 
 .text          0x00000100002178e0      0x4a4 build/drivers/pmic/CMakeFiles/pmic.dir/mpq8785.c.o
                0x00000100002178e0                mpq8785_set_page
                0x0000010000217910                mpq8785_set_operation
                0x0000010000217920                mpq8785_set_on_off_config
                0x0000010000217950                mpq8785_clear_fault
                0x0000010000217980                mpq8785_store_all
                0x00000100002179b0                mpq8785_restore_all
                0x00000100002179e0                mpq8785_set_vout_mode
                0x0000010000217a10                mpq8785_read_vout_mode
                0x0000010000217a50                mpq8785_read_vout
                0x0000010000217ad0                mpq8785_set_vout_command
                0x0000010000217b40                mpq8785_set_vin_on
                0x0000010000217b80                mpq8785_set_vin_off
                0x0000010000217bc0                mpq8785_read_word
                0x0000010000217c00                mpq8785_read_status_vout
                0x0000010000217c40                mpq8785_set_vout
                0x0000010000217c50                mpq8785_get_vout
                0x0000010000217c60                mpq8785_enable
                0x0000010000217d10                mpq8785_disable
 *fill*         0x0000010000217d84       0x1c 
 .text          0x0000010000217da0      0x714 build/drivers/pmic/CMakeFiles/pmic.dir/mp29816a.c.o
                0x0000010000217da0                mp29816a_set_page
                0x0000010000217dd0                mp29816a_get_page
                0x0000010000217e10                mp29816a_set_operation_page
                0x0000010000217e40                mp29816a_set_on_off_config_page
                0x0000010000217e70                mp29816a_clear_fault
                0x0000010000217ea0                mp29816a_set_phase
                0x0000010000217ed0                mp29816a_store_user_all
                0x0000010000217f00                mp29816a_restore_user_all
                0x0000010000217f30                mp29816a_store_user_code
                0x0000010000217f60                mp29816a_restore_user_code
                0x0000010000217f90                mp29816a_set_vout_mode
                0x0000010000217fc0                mp29816a_set_vout_command
                0x0000010000218000                mp29816a_mfr_vout_droop
                0x0000010000218030                mp29816a_read_byte_page
                0x0000010000218070                mp29816a_read_word_page
                0x00000100002180b0                mp29816a_read_vout_pmbus
                0x00000100002180f0                mp29816a_set_vout
                0x0000010000218140                mp29816a_get_vout
                0x0000010000218160                mp29816a_enable_rail1
                0x0000010000218230                mp29816a_disable_rail1
                0x00000100002182c0                mp29816a_enable_rail1_rail2
                0x0000010000218400                mp29816a_disable_rail1_rail2
 *fill*         0x00000100002184b4        0xc 
 .text          0x00000100002184c0      0x2e4 build/drivers/pmic/CMakeFiles/pmic.dir/g1505.c.o
                0x00000100002184c0                g1505_set_page
                0x00000100002184f0                g1505_get_page
                0x0000010000218530                g1505_set_operation
                0x0000010000218560                g1505_set_on_off_config
                0x0000010000218590                g1505_get_on_off_config
                0x00000100002185d0                g1505_clear_fault
                0x0000010000218600                g1505_set_vout_command
                0x0000010000218680                g1505_get_vout_command
                0x00000100002186f0                g1505_get_status_word
                0x0000010000218730                g1505_get_status_vout
                0x0000010000218770                g1505_get_status_iout
 *fill*         0x00000100002187a4       0x1c 
 .text          0x00000100002187c0      0x834 build/drivers/pmic/CMakeFiles/pmic.dir/pmic_mgr.c.o
                0x00000100002187c0                i2c_write_polling_o_d
                0x0000010000218900                i2c_write_polling_d
                0x0000010000218a10                i2c_read_polling_o_d
                0x0000010000218bd0                i2c_read_polling_d
                0x0000010000218d70                i2c_write_int_o_d
                0x0000010000218e70                i2c_read_int_o_d
 *fill*         0x0000010000218ff4        0xc 
 .text          0x0000010000219000      0x364 build/drivers/dvfs/CMakeFiles/dvfs.dir/dvfs.c.o
                0x0000010000219110                set_dvfs_lvl
                0x0000010000219250                get_dvfs_lvl
 *fill*         0x0000010000219364       0x1c 
 .text          0x0000010000219380      0x3b0 build/drivers/sic/CMakeFiles/sic.dir/sic.c.o
                0x00000100002194c0                request_to_cmrt
 *fill*         0x0000010000219730       0x10 
 .text          0x0000010000219740      0x5a8 build/drivers/timer/dw_apb_timer/CMakeFiles/dw_apb_timer.dir/dw_apb_timer.c.o
                0x0000010000219740                dw_apb_timer_default_callback
                0x0000010000219750                dw_apb_timer_irq_handler
                0x0000010000219870                dw_apb_timer_init
                0x00000100002199a0                dw_apb_timer_start
                0x0000010000219a10                dw_apb_timer_disable
                0x0000010000219a40                dw_apb_timer_get_load_count
                0x0000010000219a60                dw_apb_timer_get_value
                0x0000010000219a80                dw_apb_timer_set_load_count
                0x0000010000219b60                dw_apb_timer_set_alarm_callback
                0x0000010000219c70                dw_apb_timer_cancel_alarm_callback
                0x0000010000219ce0                dw_apb_timer_get_freq
 *fill*         0x0000010000219ce8       0x18 
 .text          0x0000010000219d00      0x428 build/drivers/qspi/qspi_apb/CMakeFiles/qspi_apb.dir/qspi_apb.c.o
                0x0000010000219d00                qspi_apb_enable_loopback
                0x0000010000219d40                qspi_apb_set
                0x0000010000219e00                qspi_apb_init
                0x0000010000219e80                qspi_apb_transfer
 *fill*         0x000001000021a128        0x8 
 .text          0x000001000021a130       0xf0 build/drivers/flash/CMakeFiles/flash.dir/mt25q_flash.c.o
                0x000001000021a130                read_flash
                0x000001000021a180                write_flash
                0x000001000021a1d0                erase_flash
 .text          0x000001000021a220      0x1b8 build/tests/common/CMakeFiles/test_common.dir/test_mailbox_cb.c.o
                0x000001000021a220                test_cb
 *fill*         0x000001000021a3d8        0x8 
 .text          0x000001000021a3e0      0x468 build/tests/interrupt_test_helper_example/CMakeFiles/interrupt_test_helper_example.dir/example_test.c.o
                0x000001000021a3e0                TEST_interrupt_test_helper_example_check_device_init_
                0x000001000021a430                TEST_interrupt_test_helper_example_check_set_device_state_
                0x000001000021a460                TEST_interrupt_test_helper_example_is_isr_called_
                0x000001000021a4b0                TEST_interrupt_test_helper_example_check_updating_dev_state_by_isr_
                0x000001000021a510                TEST_interrupt_test_helper_example_check_multi_calling_isr_
                0x000001000021a5d0                example_driver_isr_test
                0x000001000021a600                cli_register_interrupt_helper_example
                0x000001000021a620                TEST_interrupt_test_helper_example_SETUP
                0x000001000021a670                TEST_interrupt_test_helper_example_TEAR_DOWN
                0x000001000021a6b0                TEST_interrupt_test_helper_example_check_device_init_run
                0x000001000021a6f0                TEST_interrupt_test_helper_example_check_set_device_state_run
                0x000001000021a730                TEST_interrupt_test_helper_example_is_isr_called_run
                0x000001000021a770                TEST_interrupt_test_helper_example_check_updating_dev_state_by_isr_run
                0x000001000021a7b0                TEST_interrupt_test_helper_example_check_multi_calling_isr_run
                0x000001000021a7f0                TEST_interrupt_test_helper_example_1_GROUP_RUNNER
                0x000001000021a810                TEST_interrupt_test_helper_example_2_GROUP_RUNNER
 *fill*         0x000001000021a848        0x8 
 .text          0x000001000021a850       0x70 build/tests/interrupt_test_helper_example/CMakeFiles/interrupt_test_helper_example.dir/example_driver.c.o
                0x000001000021a850                driver_init
                0x000001000021a870                set_device_state
                0x000001000021a880                get_device_state
                0x000001000021a890                get_isr_call_count
                0x000001000021a8a0                driver_isr
 .text          0x000001000021a8c0       0x80 build/tests/arch/CMakeFiles/test_arch.dir/test_cli.c.o
                0x000001000021a8c0                test_cli
                0x000001000021a920                cli_register_cli
 .text          0x000001000021a940     0x2440 build/tests/gpio/CMakeFiles/test_gpio.dir/test_gpio.c.o
                0x000001000021a940                test_gpio
                0x000001000021c470                test_gpio_cli
                0x000001000021cd60                cli_register_gpio
 .text          0x000001000021cd80      0x1f0 build/tests/dma/CMakeFiles/test_dma.dir/test_dma_main.c.o
                0x000001000021cd90                test_main_dma
                0x000001000021cf50                cli_register_test_dma
 *fill*         0x000001000021cf70       0x10 
 .text          0x000001000021cf80      0x530 build/tests/mailbox/CMakeFiles/mailbox_test.dir/test_mailbox_main.c.o
                0x000001000021cf80                cli_register_test_mailbox
                0x000001000021cfa0                test_mailbox_inter_chiplet
                0x000001000021d0c0                test_mailbox_loopback
                0x000001000021d200                test_main_mailbox
 *fill*         0x000001000021d4b0       0x10 
 .text          0x000001000021d4c0      0xa34 build/tests/pvt_con/CMakeFiles/test_pvt_con.dir/test_pvt_con.c.o
                0x000001000021d4c0                cli_register_test_pvt
                0x000001000021d4e0                test_pvt
 *fill*         0x000001000021def4        0xc 
 .text          0x000001000021df00      0x4f0 build/tests/arch/arm64/CMakeFiles/test_arm64.dir/test_ca73.c.o
                0x000001000021df50                test_ca73_cli
                0x000001000021e3d0                cli_register_ca73
 *fill*         0x000001000021e3f0       0x10 
 .text          0x000001000021e400      0x1e4 build/tests/timer/dw_apb_timer/CMakeFiles/test_dw_apb_timer.dir/test_dw_apb_timer.c.o
                0x000001000021e400                dw_apb_timer_test_alarm_callback
                0x000001000021e410                cli_register_dw_apb_timer
                0x000001000021e430                test_dw_apb_timer
                0x000001000021e5c0                test_dw_apb_timer_cli
 *fill*         0x000001000021e5e4       0x1c 
 .text          0x000001000021e600     0x3570 build/tests/cmu/CMakeFiles/test_cmu.dir/test_cmu_main.c.o
                0x000001000021e600                cli_register_test_cmu
                0x000001000021e620                cli_register_cmu_freq
                0x000001000021e640                cli_register_cmu_set
                0x000001000021e670                set_pll_freq_f0434_test
                0x000001000021e720                set_pll_freq_f0435_test
                0x000001000021e7d0                set_hch_div_ratio_test
                0x000001000021e860                set_div_ratio_test
                0x000001000021e8e0                set_mux_sel_test
                0x000001000021e960                clk_gating_test
                0x000001000021ea10                set_clkout_test
                0x000001000021ea30                test_cmu_cp
                0x000001000021ecd0                test_cmu_pcie
                0x000001000021efa0                test_cmu_rot
                0x000001000021f1e0                test_cmu_peri
                0x000001000021f710                test_cmu_dram
                0x000001000021fa50                test_main_cmu
                0x000001000021fcd0                freq_cmu_cp
                0x000001000021ff30                set_freq_cp
                0x00000100002200b0                cmu_set_freq
                0x00000100002201a0                freq_cmu_pcie
                0x0000010000220380                freq_cmu_rot
                0x0000010000220570                freq_cmu_peri
                0x0000010000220600                freq_cmu_wbus
                0x0000010000220770                freq_cmu_sbus
                0x00000100002209f0                freq_cmu_nbus
                0x0000010000220d00                freq_cmu_ebus
                0x0000010000221040                freq_cmu_dram
                0x0000010000221350                freq_cmu_dcl
                0x0000010000221790                cmu_freq_main
 *fill*         0x0000010000221b70       0x10 
 .text          0x0000010000221b80      0x170 build/tests/smmu/CMakeFiles/test_mmu.dir/test_mmu_main.c.o
                0x0000010000221b80                test_mmu_main
                0x0000010000221cd0                cli_register_test_mmu
 *fill*         0x0000010000221cf0       0x10 
 .text          0x0000010000221d00      0x3b8 build/tests/log/CMakeFiles/show_log.dir/rebel_h_log.c.o
                0x0000010000221d00                cli_register_show_log
                0x0000010000221d20                print_log
                0x0000010000222090                test_main_log
 *fill*         0x00000100002220b8        0x8 
 .text          0x00000100002220c0      0x674 build/tests/rbc/CMakeFiles/test_rbc.dir/test/all_test.c.o
                0x00000100002220c0                cli_register_rbc
 *fill*         0x0000010000222734        0xc 
 .text          0x0000010000222740     0x11e4 build/tests/rbc/CMakeFiles/test_rbc.dir/test/test_aw_ucie_init.c.o
                0x0000010000222740                TEST_ucie_init_TEAR_DOWN
                0x0000010000222750                TEST_ucie_init_SETUP
                0x0000010000222790                TEST_ucie_init_normal_init_aw_ucie_
                0x00000100002227d0                TEST_ucie_init_fail_init_due_to_invalid_d2d_test_comp_blk_offset_
                0x0000010000222820                TEST_ucie_init_fail_init_due_to_invalid_d2d_test_comp_blk_length_
                0x0000010000222870                TEST_ucie_init_fail_init_due_to_invalid_phy_test_comp_blk_offset_
                0x00000100002228c0                TEST_ucie_init_fail_init_due_to_invalid_phy_test_comp_blk_length_
                0x0000010000222910                TEST_ucie_init_fail_init_due_to_invalid_pcie_ext_dvsec_cap_hdr_
                0x0000010000222960                TEST_ucie_init_fail_init_due_to_invalid_dvsec_vendor_id_
                0x00000100002229b0                TEST_ucie_init_fail_init_due_to_invalid_reg_loc0_
                0x0000010000222a10                TEST_ucie_init_fail_init_due_to_invalid_reg_loc1_
                0x0000010000222a70                TEST_ucie_init_fail_init_due_to_invalid_reg_loc2_
                0x0000010000222ad0                TEST_ucie_init_fail_init_due_to_invalid_reg_loc3_
                0x0000010000222b30                TEST_ucie_init_fail_init_due_to_invalid_vndr_id_of_d2d_phy_blk_hdr_
                0x0000010000222b80                TEST_ucie_init_fail_init_due_to_invalid_blk_id_of_d2d_phy_blk_hdr_
                0x0000010000222bd0                TEST_ucie_init_fail_init_due_to_invalid_vndr_id_of_test_comp_blk_hdr_
                0x0000010000222c20                TEST_ucie_init_fail_init_due_to_invalid_blk_id_of_test_comp_blk_hdr_
                0x0000010000222c70                TEST_ucie_init_fail_init_due_to_invalid_vndr_id_of_d2d_imp_blk_hdr_
                0x0000010000222cc0                TEST_ucie_init_fail_init_due_to_invalid_blk_id_of_d2d_imp_blk_hdr_
                0x0000010000222d10                TEST_ucie_init_fail_init_due_to_invalid_vndr_id_of_phy_imp_blk_hdr_
                0x0000010000222d60                TEST_ucie_init_fail_init_due_to_invalid_blk_id_of_phy_imp_blk_hdr_
                0x0000010000222db0                TEST_ucie_init_fail_set_target_ss_before_setting_
                0x0000010000222de0                TEST_ucie_init_fail_set_target_ss_w_invalid_value_
                0x0000010000222e50                TEST_ucie_init_set_target_ss_w_valid_value_
                0x0000010000222eb0                TEST_ucie_init_check_dvsec_hdr_after_init_
                0x0000010000222fa0                TEST_ucie_init_check_link_capability_after_init_
                0x0000010000223050                TEST_ucie_init_check_phy_capability_after_init_
                0x00000100002230c0                TEST_ucie_init_check_phy_extended_cap_hdr_after_init_
                0x0000010000223130                TEST_ucie_init_check_uhm_dvsec_hdr_after_init_
                0x00000100002231e0                TEST_ucie_init_normal_init_aw_ucie_run
                0x0000010000223220                TEST_ucie_init_fail_set_target_ss_before_setting_run
                0x0000010000223260                TEST_ucie_init_fail_set_target_ss_w_invalid_value_run
                0x00000100002232a0                TEST_ucie_init_set_target_ss_w_valid_value_run
                0x00000100002232e0                TEST_ucie_init_check_dvsec_hdr_after_init_run
                0x0000010000223320                TEST_ucie_init_check_link_capability_after_init_run
                0x0000010000223360                TEST_ucie_init_fail_init_due_to_invalid_d2d_test_comp_blk_offset_run
                0x00000100002233a0                TEST_ucie_init_fail_init_due_to_invalid_d2d_test_comp_blk_length_run
                0x00000100002233e0                TEST_ucie_init_fail_init_due_to_invalid_phy_test_comp_blk_offset_run
                0x0000010000223420                TEST_ucie_init_fail_init_due_to_invalid_phy_test_comp_blk_length_run
                0x0000010000223460                TEST_ucie_init_fail_init_due_to_invalid_pcie_ext_dvsec_cap_hdr_run
                0x00000100002234a0                TEST_ucie_init_fail_init_due_to_invalid_dvsec_vendor_id_run
                0x00000100002234e0                TEST_ucie_init_fail_init_due_to_invalid_reg_loc0_run
                0x0000010000223520                TEST_ucie_init_fail_init_due_to_invalid_reg_loc1_run
                0x0000010000223560                TEST_ucie_init_fail_init_due_to_invalid_reg_loc2_run
                0x00000100002235a0                TEST_ucie_init_fail_init_due_to_invalid_reg_loc3_run
                0x00000100002235e0                TEST_ucie_init_fail_init_due_to_invalid_vndr_id_of_d2d_phy_blk_hdr_run
                0x0000010000223620                TEST_ucie_init_fail_init_due_to_invalid_blk_id_of_d2d_phy_blk_hdr_run
                0x0000010000223660                TEST_ucie_init_fail_init_due_to_invalid_vndr_id_of_test_comp_blk_hdr_run
                0x00000100002236a0                TEST_ucie_init_fail_init_due_to_invalid_blk_id_of_test_comp_blk_hdr_run
                0x00000100002236e0                TEST_ucie_init_fail_init_due_to_invalid_vndr_id_of_d2d_imp_blk_hdr_run
                0x0000010000223720                TEST_ucie_init_fail_init_due_to_invalid_blk_id_of_d2d_imp_blk_hdr_run
                0x0000010000223760                TEST_ucie_init_fail_init_due_to_invalid_vndr_id_of_phy_imp_blk_hdr_run
                0x00000100002237a0                TEST_ucie_init_fail_init_due_to_invalid_blk_id_of_phy_imp_blk_hdr_run
                0x00000100002237e0                TEST_ucie_init_check_phy_capability_after_init_run
                0x0000010000223820                TEST_ucie_init_check_phy_extended_cap_hdr_after_init_run
                0x0000010000223860                TEST_ucie_init_check_uhm_dvsec_hdr_after_init_run
                0x00000100002238a0                TEST_ucie_init_except_only_for_mock_GROUP_RUNNER
                0x00000100002238d0                TEST_ucie_init_only_for_mock_GROUP_RUNNER
 *fill*         0x0000010000223924       0x1c 
 .text          0x0000010000223940     0x2794 build/tests/rbc/CMakeFiles/test_rbc.dir/test/test_aw_ucie_d2d_comp.c.o
                0x0000010000223980                TEST_ucie_d2d_comp_SETUP
                0x0000010000223ba0                TEST_ucie_d2d_comp_TEAR_DOWN
                0x0000010000223cb0                TEST_ucie_d2d_comp_adap_compliance_ctrl_phy_only_
                0x0000010000223d30                TEST_ucie_d2d_comp_adap_compliance_ctrl_adapter_
                0x0000010000223db0                TEST_ucie_d2d_comp_adap_compliance_force_reset_
                0x0000010000224020                TEST_ucie_d2d_comp_inject_nop_flits_20_
                0x0000010000224070                TEST_ucie_d2d_comp_inject_test_flits_20_fixed_pattern_all_
                0x00000100002240c0                TEST_ucie_d2d_comp_inject_test_flits_20_fixed_pattern_offset_once_
                0x0000010000224110                TEST_ucie_d2d_comp_inject_test_flits_20_fixed_pattern_offset_rep_0_
                0x0000010000224160                TEST_ucie_d2d_comp_inject_test_flits_20_fixed_pattern_offset_rep_1_
                0x00000100002241b0                TEST_ucie_d2d_comp_inject_test_flits_20_fixed_pattern_offset_rep_2_
                0x0000010000224200                TEST_ucie_d2d_comp_inject_test_flits_20_fixed_pattern_offset_rep_33_
                0x0000010000224250                TEST_ucie_d2d_comp_inject_test_flits_20_random_pattern_all_
                0x00000100002242a0                TEST_ucie_d2d_comp_inject_test_flits_20_random_pattern_offset_once_
                0x00000100002242f0                TEST_ucie_d2d_comp_inject_test_flits_20_random_pattern_offset_rep_0_
                0x0000010000224340                TEST_ucie_d2d_comp_inject_test_flits_20_random_pattern_offset_rep_1_
                0x0000010000224390                TEST_ucie_d2d_comp_inject_test_flits_20_random_pattern_offset_rep_2_
                0x00000100002243e0                TEST_ucie_d2d_comp_inject_test_flits_20_random_pattern_offset_rep_33_
                0x0000010000224430                TEST_ucie_d2d_comp_inject_alt_flits_50_random_pattern_all_
                0x0000010000224480                TEST_ucie_d2d_comp_inject_nop_flits_cont_
                0x00000100002244f0                TEST_ucie_d2d_comp_inject_nop_flits_cont_with_prot_flit_
                0x0000010000224560                TEST_ucie_d2d_comp_inject_test_flits_cont_fixed_pattern_all_
                0x00000100002245d0                TEST_ucie_d2d_comp_inject_test_flits_cont_fixed_pattern_offset_once_
                0x0000010000224640                TEST_ucie_d2d_comp_inject_test_flits_cont_fixed_pattern_offset_rep_0_
                0x00000100002246b0                TEST_ucie_d2d_comp_inject_test_flits_cont_fixed_pattern_offset_rep_1_
                0x0000010000224720                TEST_ucie_d2d_comp_inject_test_flits_cont_fixed_pattern_offset_rep_2_
                0x0000010000224790                TEST_ucie_d2d_comp_inject_test_flits_cont_fixed_pattern_offset_rep_33_
                0x0000010000224800                TEST_ucie_d2d_comp_inject_test_flits_cont_random_pattern_all_
                0x0000010000224870                TEST_ucie_d2d_comp_inject_test_flits_cont_random_pattern_offset_once_
                0x00000100002248e0                TEST_ucie_d2d_comp_inject_test_flits_cont_random_pattern_offset_rep_0_
                0x0000010000224950                TEST_ucie_d2d_comp_inject_test_flits_cont_random_pattern_offset_rep_1_
                0x00000100002249c0                TEST_ucie_d2d_comp_inject_test_flits_cont_random_pattern_offset_rep_2_
                0x0000010000224a30                TEST_ucie_d2d_comp_inject_test_flits_cont_random_pattern_offset_rep_33_
                0x0000010000224b50                TEST_ucie_d2d_comp_inject_req_fdi_state_nop_
                0x0000010000224b60                TEST_ucie_d2d_comp_inject_req_fdi_state_active_
                0x0000010000224b70                TEST_ucie_d2d_comp_inject_req_fdi_state_l1_
                0x0000010000224b80                TEST_ucie_d2d_comp_inject_req_fdi_state_l2_
                0x0000010000224b90                TEST_ucie_d2d_comp_inject_req_fdi_state_linkreset_
                0x0000010000224ba0                TEST_ucie_d2d_comp_inject_req_fdi_state_retrain_
                0x0000010000224bb0                TEST_ucie_d2d_comp_inject_req_fdi_state_disabled_
                0x0000010000224c70                TEST_ucie_d2d_comp_inject_resp_fdi_state_nop_
                0x0000010000224c80                TEST_ucie_d2d_comp_inject_resp_fdi_state_active_
                0x0000010000224c90                TEST_ucie_d2d_comp_inject_resp_fdi_state_l1_
                0x0000010000224ca0                TEST_ucie_d2d_comp_inject_resp_fdi_state_l2_
                0x0000010000224cb0                TEST_ucie_d2d_comp_inject_resp_fdi_state_linkreset_
                0x0000010000224cc0                TEST_ucie_d2d_comp_inject_resp_fdi_state_retrain_
                0x0000010000224cd0                TEST_ucie_d2d_comp_inject_resp_fdi_state_disabled_
                0x0000010000224de0                TEST_ucie_d2d_comp_inject_retry_1bit_error_w_threshold_
                0x0000010000224eb0                TEST_ucie_d2d_comp_inject_retry_1bit_error_wo_threshold_
                0x0000010000224f80                TEST_ucie_d2d_comp_inject_retry_2bit_error_w_threshold_
                0x0000010000225050                TEST_ucie_d2d_comp_inject_retry_2bit_error_wo_threshold_
                0x0000010000225120                TEST_ucie_d2d_comp_inject_retry_3bit_error_w_threshold_
                0x00000100002251e0                TEST_ucie_d2d_comp_inject_retry_3bit_error_wo_threshold_
                0x00000100002252a0                TEST_ucie_d2d_comp_adap_compliance_ctrl_phy_only_run
                0x00000100002252e0                TEST_ucie_d2d_comp_adap_compliance_ctrl_adapter_run
                0x0000010000225320                TEST_ucie_d2d_comp_adap_compliance_force_reset_run
                0x0000010000225360                TEST_ucie_d2d_comp_inject_nop_flits_20_run
                0x00000100002253a0                TEST_ucie_d2d_comp_inject_test_flits_20_fixed_pattern_all_run
                0x00000100002253e0                TEST_ucie_d2d_comp_inject_test_flits_20_fixed_pattern_offset_once_run
                0x0000010000225420                TEST_ucie_d2d_comp_inject_test_flits_20_fixed_pattern_offset_rep_0_run
                0x0000010000225460                TEST_ucie_d2d_comp_inject_test_flits_20_fixed_pattern_offset_rep_1_run
                0x00000100002254a0                TEST_ucie_d2d_comp_inject_test_flits_20_fixed_pattern_offset_rep_2_run
                0x00000100002254e0                TEST_ucie_d2d_comp_inject_test_flits_20_fixed_pattern_offset_rep_33_run
                0x0000010000225520                TEST_ucie_d2d_comp_inject_test_flits_20_random_pattern_all_run
                0x0000010000225560                TEST_ucie_d2d_comp_inject_test_flits_20_random_pattern_offset_once_run
                0x00000100002255a0                TEST_ucie_d2d_comp_inject_test_flits_20_random_pattern_offset_rep_0_run
                0x00000100002255e0                TEST_ucie_d2d_comp_inject_test_flits_20_random_pattern_offset_rep_1_run
                0x0000010000225620                TEST_ucie_d2d_comp_inject_test_flits_20_random_pattern_offset_rep_2_run
                0x0000010000225660                TEST_ucie_d2d_comp_inject_test_flits_20_random_pattern_offset_rep_33_run
                0x00000100002256a0                TEST_ucie_d2d_comp_inject_nop_flits_cont_run
                0x00000100002256e0                TEST_ucie_d2d_comp_inject_nop_flits_cont_with_prot_flit_run
                0x0000010000225720                TEST_ucie_d2d_comp_inject_test_flits_cont_fixed_pattern_all_run
                0x0000010000225760                TEST_ucie_d2d_comp_inject_test_flits_cont_fixed_pattern_offset_once_run
                0x00000100002257a0                TEST_ucie_d2d_comp_inject_test_flits_cont_fixed_pattern_offset_rep_0_run
                0x00000100002257e0                TEST_ucie_d2d_comp_inject_test_flits_cont_fixed_pattern_offset_rep_1_run
                0x0000010000225820                TEST_ucie_d2d_comp_inject_test_flits_cont_fixed_pattern_offset_rep_2_run
                0x0000010000225860                TEST_ucie_d2d_comp_inject_test_flits_cont_fixed_pattern_offset_rep_33_run
                0x00000100002258a0                TEST_ucie_d2d_comp_inject_test_flits_cont_random_pattern_all_run
                0x00000100002258e0                TEST_ucie_d2d_comp_inject_test_flits_cont_random_pattern_offset_once_run
                0x0000010000225920                TEST_ucie_d2d_comp_inject_test_flits_cont_random_pattern_offset_rep_0_run
                0x0000010000225960                TEST_ucie_d2d_comp_inject_test_flits_cont_random_pattern_offset_rep_1_run
                0x00000100002259a0                TEST_ucie_d2d_comp_inject_test_flits_cont_random_pattern_offset_rep_2_run
                0x00000100002259e0                TEST_ucie_d2d_comp_inject_test_flits_cont_random_pattern_offset_rep_33_run
                0x0000010000225a20                TEST_ucie_d2d_comp_inject_test_flits_cont_interleaving_random_pattern_all_run
                0x0000010000225a40                TEST_ucie_d2d_comp_inject_test_flits_cont_interleaving_random_pattern_all_
                0x0000010000225ab0                TEST_ucie_d2d_comp_inject_alt_flits_50_random_pattern_all_run
                0x0000010000225af0                TEST_ucie_d2d_comp_inject_req_fdi_state_nop_run
                0x0000010000225b30                TEST_ucie_d2d_comp_inject_req_fdi_state_active_run
                0x0000010000225b70                TEST_ucie_d2d_comp_inject_req_fdi_state_l1_run
                0x0000010000225bb0                TEST_ucie_d2d_comp_inject_req_fdi_state_l2_run
                0x0000010000225bf0                TEST_ucie_d2d_comp_inject_req_fdi_state_linkreset_run
                0x0000010000225c30                TEST_ucie_d2d_comp_inject_req_fdi_state_retrain_run
                0x0000010000225c70                TEST_ucie_d2d_comp_inject_req_fdi_state_disabled_run
                0x0000010000225cb0                TEST_ucie_d2d_comp_inject_resp_fdi_state_nop_run
                0x0000010000225cf0                TEST_ucie_d2d_comp_inject_resp_fdi_state_active_run
                0x0000010000225d30                TEST_ucie_d2d_comp_inject_resp_fdi_state_l1_run
                0x0000010000225d70                TEST_ucie_d2d_comp_inject_resp_fdi_state_l2_run
                0x0000010000225db0                TEST_ucie_d2d_comp_inject_resp_fdi_state_linkreset_run
                0x0000010000225df0                TEST_ucie_d2d_comp_inject_resp_fdi_state_retrain_run
                0x0000010000225e30                TEST_ucie_d2d_comp_inject_resp_fdi_state_disabled_run
                0x0000010000225e70                TEST_ucie_d2d_comp_inject_retry_1bit_error_w_threshold_run
                0x0000010000225eb0                TEST_ucie_d2d_comp_inject_retry_1bit_error_wo_threshold_run
                0x0000010000225ef0                TEST_ucie_d2d_comp_inject_retry_2bit_error_w_threshold_run
                0x0000010000225f30                TEST_ucie_d2d_comp_inject_retry_2bit_error_wo_threshold_run
                0x0000010000225f70                TEST_ucie_d2d_comp_inject_retry_3bit_error_w_threshold_run
                0x0000010000225fb0                TEST_ucie_d2d_comp_inject_retry_3bit_error_wo_threshold_run
                0x0000010000225ff0                TEST_ucie_d2d_comp_except_only_for_mock_GROUP_RUNNER
                0x00000100002260d0                TEST_ucie_d2d_comp_only_for_mock_GROUP_RUNNER
 *fill*         0x00000100002260d4        0xc 
 .text          0x00000100002260e0      0xc14 build/tests/rbc/CMakeFiles/test_rbc.dir/test/test_aw_ucie_d2d_err_and_link.c.o
                0x00000100002260e0                TEST_ucie_d2d_crc_err_injection_TEAR_DOWN
                0x00000100002261d0                TEST_ucie_d2d_runtime_link_test_SETUP
                0x00000100002261e0                TEST_ucie_d2d_crc_err_injection_crc_injection_fail_due_to_invalid_inverted_bits_
                0x0000010000226250                TEST_ucie_d2d_crc_err_injection_crc_injection_fail_due_to_invalid_inj_count_
                0x00000100002262c0                TEST_ucie_d2d_runtime_link_test_TEAR_DOWN
                0x0000010000226490                TEST_ucie_d2d_runtime_link_test_runtime_link_test_fail_due_to_invalid_parity_bytes_
                0x00000100002264e0                TEST_ucie_d2d_runtime_link_test_runtime_link_test_fail_due_to_nak_
                0x00000100002267b0                TEST_ucie_d2d_runtime_link_test_no_err_runtime_link_test_w_one_parity_bytes_
                0x00000100002267c0                TEST_ucie_d2d_runtime_link_test_no_err_runtime_link_test_w_two_parity_bytes_
                0x00000100002267d0                TEST_ucie_d2d_runtime_link_test_no_err_runtime_link_test_w_three_parity_bytes_
                0x0000010000226970                TEST_ucie_d2d_crc_err_injection_no_err_crc_inject_one_bit_inverted_
                0x00000100002269b0                TEST_ucie_d2d_crc_err_injection_no_err_crc_inject_two_bit_inverted_
                0x00000100002269f0                TEST_ucie_d2d_crc_err_injection_no_err_crc_inject_three_bit_inverted_
                0x0000010000226a30                TEST_ucie_d2d_crc_err_injection_SETUP
                0x0000010000226a40                TEST_ucie_d2d_runtime_link_test_runtime_link_test_fail_due_to_invalid_parity_bytes_run
                0x0000010000226a80                TEST_ucie_d2d_runtime_link_test_runtime_link_test_fail_due_to_nak_run
                0x0000010000226ac0                TEST_ucie_d2d_runtime_link_test_no_err_runtime_link_test_w_one_parity_bytes_run
                0x0000010000226b00                TEST_ucie_d2d_runtime_link_test_no_err_runtime_link_test_w_two_parity_bytes_run
                0x0000010000226b40                TEST_ucie_d2d_runtime_link_test_no_err_runtime_link_test_w_three_parity_bytes_run
                0x0000010000226b80                TEST_ucie_d2d_crc_err_injection_crc_injection_fail_due_to_invalid_inverted_bits_run
                0x0000010000226bc0                TEST_ucie_d2d_crc_err_injection_crc_injection_fail_due_to_invalid_inj_count_run
                0x0000010000226c00                TEST_ucie_d2d_crc_err_injection_no_err_crc_inject_one_bit_inverted_run
                0x0000010000226c40                TEST_ucie_d2d_crc_err_injection_no_err_crc_inject_two_bit_inverted_run
                0x0000010000226c80                TEST_ucie_d2d_crc_err_injection_no_err_crc_inject_three_bit_inverted_run
                0x0000010000226cc0                TEST_ucie_d2d_err_and_link_except_only_for_mock_GROUP_RUNNER
                0x0000010000226cf0                TEST_ucie_d2d_err_and_link_only_for_mock_GROUP_RUNNER
 *fill*         0x0000010000226cf4        0xc 
 .text          0x0000010000226d00      0x41c build/tests/rbc/CMakeFiles/test_rbc.dir/test/test_aw_ucie_retraining.c.o
                0x0000010000226d00                TEST_ucie_retraining_TEAR_DOWN
                0x0000010000226d20                TEST_ucie_retraining_SETUP
                0x0000010000226d90                TEST_ucie_retraining_retraining_fail_in_link_down_
                0x0000010000226de0                TEST_ucie_retraining_retraining_fail_when_trainig_already_ongoing_
                0x0000010000226ec0                TEST_ucie_retraining_retraining_success_w_default_config_
                0x0000010000226f50                TEST_ucie_retraining_retraining_fail_due_to_keeping_link_down_after_ending_training_
                0x0000010000226f80                TEST_ucie_retraining_retraining_fail_due_to_keeping_training_status_after_ending_training_
                0x0000010000226fb0                TEST_ucie_retraining_retraining_success_w_default_config_run
                0x0000010000226ff0                TEST_ucie_retraining_retraining_fail_due_to_keeping_link_down_after_ending_training_run
                0x0000010000227030                TEST_ucie_retraining_retraining_fail_due_to_keeping_training_status_after_ending_training_run
                0x0000010000227070                TEST_ucie_retraining_retraining_fail_in_link_down_run
                0x00000100002270b0                TEST_ucie_retraining_retraining_fail_when_trainig_already_ongoing_run
                0x00000100002270f0                TEST_ucie_retraining_except_only_for_mock_GROUP_RUNNER
                0x0000010000227100                TEST_ucie_retraining_only_for_mock_GROUP_RUNNER
 *fill*         0x000001000022711c        0x4 
 .text          0x0000010000227120     0x1304 build/tests/rbc/CMakeFiles/test_rbc.dir/test/test_aw_ucie_sideband.c.o
                0x0000010000227120                TEST_ucie_sideband_TEAR_DOWN
                0x0000010000227140                TEST_ucie_sideband_SETUP
                0x00000100002271b0                TEST_ucie_sideband_fail_send_sb_msg_due_to_be_in_progress_already_
                0x0000010000227210                TEST_ucie_sideband_fail_send_sb_mem_rd32_w_ur_
                0x00000100002274d0                TEST_ucie_sideband_fail_send_w_invalid_arg_
                0x0000010000227ae0                TEST_ucie_sideband_normal_send_sb_config_rd64_
                0x0000010000227b80                TEST_ucie_sideband_normal_send_sb_config_rd32_
                0x0000010000227c00                TEST_ucie_sideband_normal_send_sb_mem_rd64_
                0x0000010000227ca0                TEST_ucie_sideband_normal_send_sb_config_wr64_
                0x0000010000227d70                TEST_ucie_sideband_normal_send_sb_config_wr32_
                0x0000010000227e40                TEST_ucie_sideband_normal_send_sb_mem_wr64_
                0x0000010000227f30                TEST_ucie_sideband_normal_send_sb_mem_wr32_
                0x0000010000228020                TEST_ucie_sideband_normal_send_sb_mem_rd32_
                0x00000100002280b0                TEST_ucie_sideband_normal_send_sb_mem_rd32_run
                0x00000100002280f0                TEST_ucie_sideband_fail_send_sb_msg_due_to_be_in_progress_already_run
                0x0000010000228130                TEST_ucie_sideband_fail_send_sb_mem_rd32_w_ur_run
                0x0000010000228170                TEST_ucie_sideband_fail_send_sb_mem_rd32_w_ca_run
                0x0000010000228190                TEST_ucie_sideband_fail_send_sb_mem_rd32_w_ca_
                0x00000100002281b0                TEST_ucie_sideband_fail_send_w_invalid_arg_run
                0x00000100002281f0                TEST_ucie_sideband_normal_send_sb_mem_wr32_run
                0x0000010000228230                TEST_ucie_sideband_normal_send_sb_mem_rd64_run
                0x0000010000228270                TEST_ucie_sideband_normal_send_sb_mem_wr64_run
                0x00000100002282b0                TEST_ucie_sideband_normal_send_sb_config_rd32_run
                0x00000100002282f0                TEST_ucie_sideband_normal_send_sb_config_wr32_run
                0x0000010000228330                TEST_ucie_sideband_normal_send_sb_config_rd64_run
                0x0000010000228370                TEST_ucie_sideband_normal_send_sb_config_wr64_run
                0x00000100002283b0                TEST_ucie_sideband_four_credit_for_sb_run
                0x00000100002283d0                TEST_ucie_sideband_four_credit_for_sb_
                0x00000100002283e0                TEST_ucie_sideband_except_only_for_mock_GROUP_RUNNER
                0x0000010000228420                TEST_ucie_sideband_only_for_mock_GROUP_RUNNER
 *fill*         0x0000010000228424       0x1c 
 .text          0x0000010000228440     0x2fc8 build/tests/rbc/CMakeFiles/test_rbc.dir/test/test_aw_ucie_training.c.o
                0x0000010000228440                TEST_ucie_training_TEAR_DOWN
                0x0000010000228450                TEST_ucie_training_SETUP
                0x00000100002284b0                TEST_ucie_training_training_fail_when_trainig_already_ongoing_
                0x00000100002285f0                TEST_ucie_training_training_success_w_default_config_
                0x00000100002286e0                TEST_ucie_training_training_success_when_link_was_already_up_
                0x00000100002288a0                TEST_ucie_training_training_fail_due_to_keeping_training_status_after_ending_training_
                0x0000010000228910                TEST_ucie_training_training_fail_due_to_keeping_link_down_after_ending_training_
                0x0000010000228980                TEST_ucie_training_training_with_multi_stack_enable_disable_of_link_control_register_
                0x0000010000228a80                TEST_ucie_training_training_with_all_target_link_width_of_link_control_register_
                0x0000010000228b80                TEST_ucie_training_training_with_all_target_link_speed_of_link_control_register_
                0x0000010000228c80                TEST_ucie_training_training_with_phy_layer_clock_gating_enable_disable_of_link_control_register_
                0x0000010000228d10                TEST_ucie_training_training_with_enhanced_multi_protocol_enable_disable_of_link_control_register_
                0x0000010000228e20                TEST_ucie_training_training_with_initialization_and_debug_register_
                0x0000010000229000                TEST_ucie_training_training_with_invalid_flit_formats_of_link_control_register_w_unmasking_
                0x0000010000229320                TEST_ucie_training_training_with_invalid_flit_formats_of_link_control_register_w_masking_
                0x0000010000229640                TEST_ucie_training_training_with_random_configuration_of_link_control_register_
                0x0000010000229c50                TEST_ucie_training_training_with_force_x32_width_mode_of_phy_control_register_
                0x0000010000229da0                TEST_ucie_training_training_fail_with_byte_mapping_disable_of_phy_control_register_
                0x0000010000229ea0                TEST_ucie_training_training_with_rx_terminated_enable_disable_of_phy_control_register_
                0x0000010000229fe0                TEST_ucie_training_training_with_tx_equal_enable_disable_of_phy_control_register_
                0x000001000022a120                TEST_ucie_training_training_with_clock_mode_strobe_freerun_of_phy_control_register_
                0x000001000022a260                TEST_ucie_training_training_with_clock_phase_differ_quad_of_phy_control_register_
                0x000001000022a3a0                TEST_ucie_training_training_with_random_configuration_of_phy_control_register_
                0x000001000022a870                TEST_ucie_training_training_with_lat_w_formats_of_link_control_register_
                0x000001000022aa40                TEST_ucie_training_training_with_raw_flit_formats_of_link_control_register_
                0x000001000022add0                TEST_ucie_training_training_success_w_default_config_run
                0x000001000022ae10                TEST_ucie_training_training_success_when_link_was_already_up_run
                0x000001000022ae50                TEST_ucie_training_training_fail_when_trainig_already_ongoing_run
                0x000001000022ae90                TEST_ucie_training_training_fail_due_to_keeping_training_status_after_ending_training_run
                0x000001000022aed0                TEST_ucie_training_training_fail_due_to_keeping_link_down_after_ending_training_run
                0x000001000022af10                TEST_ucie_training_training_with_initialization_and_debug_register_run
                0x000001000022af50                TEST_ucie_training_training_with_multi_stack_enable_disable_of_link_control_register_run
                0x000001000022af90                TEST_ucie_training_training_with_all_target_link_width_of_link_control_register_run
                0x000001000022afd0                TEST_ucie_training_training_with_all_target_link_speed_of_link_control_register_run
                0x000001000022b010                TEST_ucie_training_training_with_phy_layer_clock_gating_enable_disable_of_link_control_register_run
                0x000001000022b050                TEST_ucie_training_training_with_raw_flit_formats_of_link_control_register_run
                0x000001000022b090                TEST_ucie_training_training_with_lat_w_formats_of_link_control_register_run
                0x000001000022b0d0                TEST_ucie_training_training_with_invalid_flit_formats_of_link_control_register_w_unmasking_run
                0x000001000022b110                TEST_ucie_training_training_with_invalid_flit_formats_of_link_control_register_w_masking_run
                0x000001000022b150                TEST_ucie_training_training_with_enhanced_multi_protocol_enable_disable_of_link_control_register_run
                0x000001000022b190                TEST_ucie_training_training_with_random_configuration_of_link_control_register_run
                0x000001000022b1d0                TEST_ucie_training_training_fail_with_byte_mapping_disable_of_phy_control_register_run
                0x000001000022b210                TEST_ucie_training_training_with_rx_terminated_enable_disable_of_phy_control_register_run
                0x000001000022b250                TEST_ucie_training_training_with_tx_equal_enable_disable_of_phy_control_register_run
                0x000001000022b290                TEST_ucie_training_training_with_clock_mode_strobe_freerun_of_phy_control_register_run
                0x000001000022b2d0                TEST_ucie_training_training_with_clock_phase_differ_quad_of_phy_control_register_run
                0x000001000022b310                TEST_ucie_training_training_with_force_x32_width_mode_of_phy_control_register_run
                0x000001000022b350                TEST_ucie_training_training_with_random_configuration_of_phy_control_register_run
                0x000001000022b390                TEST_ucie_training_except_only_for_mock_GROUP_RUNNER
                0x000001000022b3f0                TEST_ucie_training_only_for_mock_GROUP_RUNNER
 *fill*         0x000001000022b408       0x18 
 .text          0x000001000022b420     0x7ae4 build/tests/rbc/CMakeFiles/test_rbc.dir/test/test_aw_ucie_runtime_link_test.c.o
                0x000001000022b420                TEST_ucie_runtime_link_test_TEAR_DOWN
                0x000001000022b520                TEST_ucie_runtime_link_test_SETUP
                0x000001000022bdb0                TEST_ucie_runtime_link_test_check_m0_lane_repair_id00_by_runtime_link_test_
                0x000001000022be40                TEST_ucie_runtime_link_test_check_m0_lane_repair_id01_by_runtime_link_test_
                0x000001000022bed0                TEST_ucie_runtime_link_test_check_m0_lane_repair_id02_by_runtime_link_test_
                0x000001000022bf60                TEST_ucie_runtime_link_test_check_m0_lane_repair_id03_by_runtime_link_test_
                0x000001000022bff0                TEST_ucie_runtime_link_test_check_m0_lane_repair_id04_by_runtime_link_test_
                0x000001000022c080                TEST_ucie_runtime_link_test_check_m0_lane_repair_id05_by_runtime_link_test_
                0x000001000022c110                TEST_ucie_runtime_link_test_check_m0_lane_repair_id06_by_runtime_link_test_
                0x000001000022c1a0                TEST_ucie_runtime_link_test_check_m0_lane_repair_id07_by_runtime_link_test_
                0x000001000022c230                TEST_ucie_runtime_link_test_check_m0_lane_repair_id08_by_runtime_link_test_
                0x000001000022c2c0                TEST_ucie_runtime_link_test_check_m0_lane_repair_id09_by_runtime_link_test_
                0x000001000022c350                TEST_ucie_runtime_link_test_check_m0_lane_repair_id10_by_runtime_link_test_
                0x000001000022c3e0                TEST_ucie_runtime_link_test_check_m0_lane_repair_id11_by_runtime_link_test_
                0x000001000022c470                TEST_ucie_runtime_link_test_check_m0_lane_repair_id12_by_runtime_link_test_
                0x000001000022c500                TEST_ucie_runtime_link_test_check_m0_lane_repair_id13_by_runtime_link_test_
                0x000001000022c590                TEST_ucie_runtime_link_test_check_m0_lane_repair_id14_by_runtime_link_test_
                0x000001000022c620                TEST_ucie_runtime_link_test_check_m0_lane_repair_id15_by_runtime_link_test_
                0x000001000022c6b0                TEST_ucie_runtime_link_test_check_m0_lane_repair_id16_by_runtime_link_test_
                0x000001000022c740                TEST_ucie_runtime_link_test_check_m0_lane_repair_id17_by_runtime_link_test_
                0x000001000022c7d0                TEST_ucie_runtime_link_test_check_m0_lane_repair_id18_by_runtime_link_test_
                0x000001000022c860                TEST_ucie_runtime_link_test_check_m0_lane_repair_id19_by_runtime_link_test_
                0x000001000022c8f0                TEST_ucie_runtime_link_test_check_m0_lane_repair_id20_by_runtime_link_test_
                0x000001000022c980                TEST_ucie_runtime_link_test_check_m0_lane_repair_id21_by_runtime_link_test_
                0x000001000022ca10                TEST_ucie_runtime_link_test_check_m0_lane_repair_id22_by_runtime_link_test_
                0x000001000022caa0                TEST_ucie_runtime_link_test_check_m0_lane_repair_id23_by_runtime_link_test_
                0x000001000022cb30                TEST_ucie_runtime_link_test_check_m0_lane_repair_id24_by_runtime_link_test_
                0x000001000022cbc0                TEST_ucie_runtime_link_test_check_m0_lane_repair_id25_by_runtime_link_test_
                0x000001000022cc50                TEST_ucie_runtime_link_test_check_m0_lane_repair_id26_by_runtime_link_test_
                0x000001000022cce0                TEST_ucie_runtime_link_test_check_m0_lane_repair_id27_by_runtime_link_test_
                0x000001000022cd70                TEST_ucie_runtime_link_test_check_m0_lane_repair_id28_by_runtime_link_test_
                0x000001000022ce00                TEST_ucie_runtime_link_test_check_m0_lane_repair_id29_by_runtime_link_test_
                0x000001000022ce90                TEST_ucie_runtime_link_test_check_m0_lane_repair_id30_by_runtime_link_test_
                0x000001000022cf20                TEST_ucie_runtime_link_test_check_m0_lane_repair_id31_by_runtime_link_test_
                0x000001000022cfb0                TEST_ucie_runtime_link_test_check_m0_lane_repair_id32_by_runtime_link_test_
                0x000001000022d040                TEST_ucie_runtime_link_test_check_m0_lane_repair_id33_by_runtime_link_test_
                0x000001000022d0d0                TEST_ucie_runtime_link_test_check_m0_lane_repair_id34_by_runtime_link_test_
                0x000001000022d160                TEST_ucie_runtime_link_test_check_m0_lane_repair_id35_by_runtime_link_test_
                0x000001000022d1f0                TEST_ucie_runtime_link_test_check_m0_lane_repair_id36_by_runtime_link_test_
                0x000001000022d280                TEST_ucie_runtime_link_test_check_m0_lane_repair_id37_by_runtime_link_test_
                0x000001000022d310                TEST_ucie_runtime_link_test_check_m0_lane_repair_id38_by_runtime_link_test_
                0x000001000022d3a0                TEST_ucie_runtime_link_test_check_m0_lane_repair_id39_by_runtime_link_test_
                0x000001000022d430                TEST_ucie_runtime_link_test_check_m0_lane_repair_id40_by_runtime_link_test_
                0x000001000022d4c0                TEST_ucie_runtime_link_test_check_m0_lane_repair_id41_by_runtime_link_test_
                0x000001000022d550                TEST_ucie_runtime_link_test_check_m0_lane_repair_id42_by_runtime_link_test_
                0x000001000022d5e0                TEST_ucie_runtime_link_test_check_m0_lane_repair_id43_by_runtime_link_test_
                0x000001000022d670                TEST_ucie_runtime_link_test_check_m0_lane_repair_id44_by_runtime_link_test_
                0x000001000022d700                TEST_ucie_runtime_link_test_check_m0_lane_repair_id45_by_runtime_link_test_
                0x000001000022d790                TEST_ucie_runtime_link_test_check_m0_lane_repair_id46_by_runtime_link_test_
                0x000001000022d820                TEST_ucie_runtime_link_test_check_m0_lane_repair_id47_by_runtime_link_test_
                0x000001000022d8b0                TEST_ucie_runtime_link_test_check_m0_lane_repair_id48_by_runtime_link_test_
                0x000001000022d940                TEST_ucie_runtime_link_test_check_m0_lane_repair_id49_by_runtime_link_test_
                0x000001000022d9d0                TEST_ucie_runtime_link_test_check_m0_lane_repair_id50_by_runtime_link_test_
                0x000001000022da60                TEST_ucie_runtime_link_test_check_m0_lane_repair_id51_by_runtime_link_test_
                0x000001000022daf0                TEST_ucie_runtime_link_test_check_m0_lane_repair_id52_by_runtime_link_test_
                0x000001000022db80                TEST_ucie_runtime_link_test_check_m0_lane_repair_id53_by_runtime_link_test_
                0x000001000022dc10                TEST_ucie_runtime_link_test_check_m0_lane_repair_id54_by_runtime_link_test_
                0x000001000022dca0                TEST_ucie_runtime_link_test_check_m0_lane_repair_id55_by_runtime_link_test_
                0x000001000022dd30                TEST_ucie_runtime_link_test_check_m0_lane_repair_id56_by_runtime_link_test_
                0x000001000022ddc0                TEST_ucie_runtime_link_test_check_m0_lane_repair_id57_by_runtime_link_test_
                0x000001000022de50                TEST_ucie_runtime_link_test_check_m0_lane_repair_id58_by_runtime_link_test_
                0x000001000022dee0                TEST_ucie_runtime_link_test_check_m0_lane_repair_id59_by_runtime_link_test_
                0x000001000022df70                TEST_ucie_runtime_link_test_check_m0_lane_repair_id60_by_runtime_link_test_
                0x000001000022e000                TEST_ucie_runtime_link_test_check_m0_lane_repair_id61_by_runtime_link_test_
                0x000001000022e090                TEST_ucie_runtime_link_test_check_m0_lane_repair_id62_by_runtime_link_test_
                0x000001000022e120                TEST_ucie_runtime_link_test_check_m0_lane_repair_id63_by_runtime_link_test_
                0x000001000022e1b0                TEST_ucie_runtime_link_test_check_m0_lane_repair_id64_by_runtime_link_test_
                0x000001000022e240                TEST_ucie_runtime_link_test_check_m0_lane_repair_id65_by_runtime_link_test_
                0x000001000022e2d0                TEST_ucie_runtime_link_test_check_m0_lane_repair_id66_by_runtime_link_test_
                0x000001000022e360                TEST_ucie_runtime_link_test_check_m0_lane_repair_id67_by_runtime_link_test_
                0x000001000022e3f0                TEST_ucie_runtime_link_test_check_m1_lane_repair_id00_by_runtime_link_test_
                0x000001000022e480                TEST_ucie_runtime_link_test_check_m1_lane_repair_id01_by_runtime_link_test_
                0x000001000022e510                TEST_ucie_runtime_link_test_check_m1_lane_repair_id02_by_runtime_link_test_
                0x000001000022e5a0                TEST_ucie_runtime_link_test_check_m1_lane_repair_id03_by_runtime_link_test_
                0x000001000022e630                TEST_ucie_runtime_link_test_check_m1_lane_repair_id04_by_runtime_link_test_
                0x000001000022e6c0                TEST_ucie_runtime_link_test_check_m1_lane_repair_id05_by_runtime_link_test_
                0x000001000022e750                TEST_ucie_runtime_link_test_check_m1_lane_repair_id06_by_runtime_link_test_
                0x000001000022e7e0                TEST_ucie_runtime_link_test_check_m1_lane_repair_id07_by_runtime_link_test_
                0x000001000022e870                TEST_ucie_runtime_link_test_check_m1_lane_repair_id08_by_runtime_link_test_
                0x000001000022e900                TEST_ucie_runtime_link_test_check_m1_lane_repair_id09_by_runtime_link_test_
                0x000001000022e990                TEST_ucie_runtime_link_test_check_m1_lane_repair_id10_by_runtime_link_test_
                0x000001000022ea20                TEST_ucie_runtime_link_test_check_m1_lane_repair_id11_by_runtime_link_test_
                0x000001000022eab0                TEST_ucie_runtime_link_test_check_m1_lane_repair_id12_by_runtime_link_test_
                0x000001000022eb40                TEST_ucie_runtime_link_test_check_m1_lane_repair_id13_by_runtime_link_test_
                0x000001000022ebd0                TEST_ucie_runtime_link_test_check_m1_lane_repair_id14_by_runtime_link_test_
                0x000001000022ec60                TEST_ucie_runtime_link_test_check_m1_lane_repair_id15_by_runtime_link_test_
                0x000001000022ecf0                TEST_ucie_runtime_link_test_check_m1_lane_repair_id16_by_runtime_link_test_
                0x000001000022ed80                TEST_ucie_runtime_link_test_check_m1_lane_repair_id17_by_runtime_link_test_
                0x000001000022ee10                TEST_ucie_runtime_link_test_check_m1_lane_repair_id18_by_runtime_link_test_
                0x000001000022eea0                TEST_ucie_runtime_link_test_check_m1_lane_repair_id19_by_runtime_link_test_
                0x000001000022ef30                TEST_ucie_runtime_link_test_check_m1_lane_repair_id20_by_runtime_link_test_
                0x000001000022efc0                TEST_ucie_runtime_link_test_check_m1_lane_repair_id21_by_runtime_link_test_
                0x000001000022f050                TEST_ucie_runtime_link_test_check_m1_lane_repair_id22_by_runtime_link_test_
                0x000001000022f0e0                TEST_ucie_runtime_link_test_check_m1_lane_repair_id23_by_runtime_link_test_
                0x000001000022f170                TEST_ucie_runtime_link_test_check_m1_lane_repair_id24_by_runtime_link_test_
                0x000001000022f200                TEST_ucie_runtime_link_test_check_m1_lane_repair_id25_by_runtime_link_test_
                0x000001000022f290                TEST_ucie_runtime_link_test_check_m1_lane_repair_id26_by_runtime_link_test_
                0x000001000022f320                TEST_ucie_runtime_link_test_check_m1_lane_repair_id27_by_runtime_link_test_
                0x000001000022f3b0                TEST_ucie_runtime_link_test_check_m1_lane_repair_id28_by_runtime_link_test_
                0x000001000022f440                TEST_ucie_runtime_link_test_check_m1_lane_repair_id29_by_runtime_link_test_
                0x000001000022f4d0                TEST_ucie_runtime_link_test_check_m1_lane_repair_id30_by_runtime_link_test_
                0x000001000022f560                TEST_ucie_runtime_link_test_check_m1_lane_repair_id31_by_runtime_link_test_
                0x000001000022f5f0                TEST_ucie_runtime_link_test_check_m1_lane_repair_id32_by_runtime_link_test_
                0x000001000022f680                TEST_ucie_runtime_link_test_check_m1_lane_repair_id33_by_runtime_link_test_
                0x000001000022f710                TEST_ucie_runtime_link_test_check_m1_lane_repair_id34_by_runtime_link_test_
                0x000001000022f7a0                TEST_ucie_runtime_link_test_check_m1_lane_repair_id35_by_runtime_link_test_
                0x000001000022f830                TEST_ucie_runtime_link_test_check_m1_lane_repair_id36_by_runtime_link_test_
                0x000001000022f8c0                TEST_ucie_runtime_link_test_check_m1_lane_repair_id37_by_runtime_link_test_
                0x000001000022f950                TEST_ucie_runtime_link_test_check_m1_lane_repair_id38_by_runtime_link_test_
                0x000001000022f9e0                TEST_ucie_runtime_link_test_check_m1_lane_repair_id39_by_runtime_link_test_
                0x000001000022fa70                TEST_ucie_runtime_link_test_check_m1_lane_repair_id40_by_runtime_link_test_
                0x000001000022fb00                TEST_ucie_runtime_link_test_check_m1_lane_repair_id41_by_runtime_link_test_
                0x000001000022fb90                TEST_ucie_runtime_link_test_check_m1_lane_repair_id42_by_runtime_link_test_
                0x000001000022fc20                TEST_ucie_runtime_link_test_check_m1_lane_repair_id43_by_runtime_link_test_
                0x000001000022fcb0                TEST_ucie_runtime_link_test_check_m1_lane_repair_id44_by_runtime_link_test_
                0x000001000022fd40                TEST_ucie_runtime_link_test_check_m1_lane_repair_id45_by_runtime_link_test_
                0x000001000022fdd0                TEST_ucie_runtime_link_test_check_m1_lane_repair_id46_by_runtime_link_test_
                0x000001000022fe60                TEST_ucie_runtime_link_test_check_m1_lane_repair_id47_by_runtime_link_test_
                0x000001000022fef0                TEST_ucie_runtime_link_test_check_m1_lane_repair_id48_by_runtime_link_test_
                0x000001000022ff80                TEST_ucie_runtime_link_test_check_m1_lane_repair_id49_by_runtime_link_test_
                0x0000010000230010                TEST_ucie_runtime_link_test_check_m1_lane_repair_id50_by_runtime_link_test_
                0x00000100002300a0                TEST_ucie_runtime_link_test_check_m1_lane_repair_id51_by_runtime_link_test_
                0x0000010000230130                TEST_ucie_runtime_link_test_check_m1_lane_repair_id52_by_runtime_link_test_
                0x00000100002301c0                TEST_ucie_runtime_link_test_check_m1_lane_repair_id53_by_runtime_link_test_
                0x0000010000230250                TEST_ucie_runtime_link_test_check_m1_lane_repair_id54_by_runtime_link_test_
                0x00000100002302e0                TEST_ucie_runtime_link_test_check_m1_lane_repair_id55_by_runtime_link_test_
                0x0000010000230370                TEST_ucie_runtime_link_test_check_m1_lane_repair_id56_by_runtime_link_test_
                0x0000010000230400                TEST_ucie_runtime_link_test_check_m1_lane_repair_id57_by_runtime_link_test_
                0x0000010000230490                TEST_ucie_runtime_link_test_check_m1_lane_repair_id58_by_runtime_link_test_
                0x0000010000230520                TEST_ucie_runtime_link_test_check_m1_lane_repair_id59_by_runtime_link_test_
                0x00000100002305b0                TEST_ucie_runtime_link_test_check_m1_lane_repair_id60_by_runtime_link_test_
                0x0000010000230640                TEST_ucie_runtime_link_test_check_m1_lane_repair_id61_by_runtime_link_test_
                0x00000100002306d0                TEST_ucie_runtime_link_test_check_m1_lane_repair_id62_by_runtime_link_test_
                0x0000010000230760                TEST_ucie_runtime_link_test_check_m1_lane_repair_id63_by_runtime_link_test_
                0x00000100002307f0                TEST_ucie_runtime_link_test_check_m1_lane_repair_id64_by_runtime_link_test_
                0x0000010000230880                TEST_ucie_runtime_link_test_check_m1_lane_repair_id65_by_runtime_link_test_
                0x0000010000230910                TEST_ucie_runtime_link_test_check_m1_lane_repair_id66_by_runtime_link_test_
                0x00000100002309a0                TEST_ucie_runtime_link_test_check_m1_lane_repair_id67_by_runtime_link_test_
                0x0000010000230a30                TEST_ucie_runtime_link_test_check_m0_lane_repair_id00_by_runtime_link_test_run
                0x0000010000230a70                TEST_ucie_runtime_link_test_check_m0_lane_repair_id01_by_runtime_link_test_run
                0x0000010000230ab0                TEST_ucie_runtime_link_test_check_m0_lane_repair_id02_by_runtime_link_test_run
                0x0000010000230af0                TEST_ucie_runtime_link_test_check_m0_lane_repair_id03_by_runtime_link_test_run
                0x0000010000230b30                TEST_ucie_runtime_link_test_check_m0_lane_repair_id04_by_runtime_link_test_run
                0x0000010000230b70                TEST_ucie_runtime_link_test_check_m0_lane_repair_id05_by_runtime_link_test_run
                0x0000010000230bb0                TEST_ucie_runtime_link_test_check_m0_lane_repair_id06_by_runtime_link_test_run
                0x0000010000230bf0                TEST_ucie_runtime_link_test_check_m0_lane_repair_id07_by_runtime_link_test_run
                0x0000010000230c30                TEST_ucie_runtime_link_test_check_m0_lane_repair_id08_by_runtime_link_test_run
                0x0000010000230c70                TEST_ucie_runtime_link_test_check_m0_lane_repair_id09_by_runtime_link_test_run
                0x0000010000230cb0                TEST_ucie_runtime_link_test_check_m0_lane_repair_id10_by_runtime_link_test_run
                0x0000010000230cf0                TEST_ucie_runtime_link_test_check_m0_lane_repair_id11_by_runtime_link_test_run
                0x0000010000230d30                TEST_ucie_runtime_link_test_check_m0_lane_repair_id12_by_runtime_link_test_run
                0x0000010000230d70                TEST_ucie_runtime_link_test_check_m0_lane_repair_id13_by_runtime_link_test_run
                0x0000010000230db0                TEST_ucie_runtime_link_test_check_m0_lane_repair_id14_by_runtime_link_test_run
                0x0000010000230df0                TEST_ucie_runtime_link_test_check_m0_lane_repair_id15_by_runtime_link_test_run
                0x0000010000230e30                TEST_ucie_runtime_link_test_check_m0_lane_repair_id16_by_runtime_link_test_run
                0x0000010000230e70                TEST_ucie_runtime_link_test_check_m0_lane_repair_id17_by_runtime_link_test_run
                0x0000010000230eb0                TEST_ucie_runtime_link_test_check_m0_lane_repair_id18_by_runtime_link_test_run
                0x0000010000230ef0                TEST_ucie_runtime_link_test_check_m0_lane_repair_id19_by_runtime_link_test_run
                0x0000010000230f30                TEST_ucie_runtime_link_test_check_m0_lane_repair_id20_by_runtime_link_test_run
                0x0000010000230f70                TEST_ucie_runtime_link_test_check_m0_lane_repair_id21_by_runtime_link_test_run
                0x0000010000230fb0                TEST_ucie_runtime_link_test_check_m0_lane_repair_id22_by_runtime_link_test_run
                0x0000010000230ff0                TEST_ucie_runtime_link_test_check_m0_lane_repair_id23_by_runtime_link_test_run
                0x0000010000231030                TEST_ucie_runtime_link_test_check_m0_lane_repair_id24_by_runtime_link_test_run
                0x0000010000231070                TEST_ucie_runtime_link_test_check_m0_lane_repair_id25_by_runtime_link_test_run
                0x00000100002310b0                TEST_ucie_runtime_link_test_check_m0_lane_repair_id26_by_runtime_link_test_run
                0x00000100002310f0                TEST_ucie_runtime_link_test_check_m0_lane_repair_id27_by_runtime_link_test_run
                0x0000010000231130                TEST_ucie_runtime_link_test_check_m0_lane_repair_id28_by_runtime_link_test_run
                0x0000010000231170                TEST_ucie_runtime_link_test_check_m0_lane_repair_id29_by_runtime_link_test_run
                0x00000100002311b0                TEST_ucie_runtime_link_test_check_m0_lane_repair_id30_by_runtime_link_test_run
                0x00000100002311f0                TEST_ucie_runtime_link_test_check_m0_lane_repair_id31_by_runtime_link_test_run
                0x0000010000231230                TEST_ucie_runtime_link_test_check_m0_lane_repair_id32_by_runtime_link_test_run
                0x0000010000231270                TEST_ucie_runtime_link_test_check_m0_lane_repair_id33_by_runtime_link_test_run
                0x00000100002312b0                TEST_ucie_runtime_link_test_check_m0_lane_repair_id34_by_runtime_link_test_run
                0x00000100002312f0                TEST_ucie_runtime_link_test_check_m0_lane_repair_id35_by_runtime_link_test_run
                0x0000010000231330                TEST_ucie_runtime_link_test_check_m0_lane_repair_id36_by_runtime_link_test_run
                0x0000010000231370                TEST_ucie_runtime_link_test_check_m0_lane_repair_id37_by_runtime_link_test_run
                0x00000100002313b0                TEST_ucie_runtime_link_test_check_m0_lane_repair_id38_by_runtime_link_test_run
                0x00000100002313f0                TEST_ucie_runtime_link_test_check_m0_lane_repair_id39_by_runtime_link_test_run
                0x0000010000231430                TEST_ucie_runtime_link_test_check_m0_lane_repair_id40_by_runtime_link_test_run
                0x0000010000231470                TEST_ucie_runtime_link_test_check_m0_lane_repair_id41_by_runtime_link_test_run
                0x00000100002314b0                TEST_ucie_runtime_link_test_check_m0_lane_repair_id42_by_runtime_link_test_run
                0x00000100002314f0                TEST_ucie_runtime_link_test_check_m0_lane_repair_id43_by_runtime_link_test_run
                0x0000010000231530                TEST_ucie_runtime_link_test_check_m0_lane_repair_id44_by_runtime_link_test_run
                0x0000010000231570                TEST_ucie_runtime_link_test_check_m0_lane_repair_id45_by_runtime_link_test_run
                0x00000100002315b0                TEST_ucie_runtime_link_test_check_m0_lane_repair_id46_by_runtime_link_test_run
                0x00000100002315f0                TEST_ucie_runtime_link_test_check_m0_lane_repair_id47_by_runtime_link_test_run
                0x0000010000231630                TEST_ucie_runtime_link_test_check_m0_lane_repair_id48_by_runtime_link_test_run
                0x0000010000231670                TEST_ucie_runtime_link_test_check_m0_lane_repair_id49_by_runtime_link_test_run
                0x00000100002316b0                TEST_ucie_runtime_link_test_check_m0_lane_repair_id50_by_runtime_link_test_run
                0x00000100002316f0                TEST_ucie_runtime_link_test_check_m0_lane_repair_id51_by_runtime_link_test_run
                0x0000010000231730                TEST_ucie_runtime_link_test_check_m0_lane_repair_id52_by_runtime_link_test_run
                0x0000010000231770                TEST_ucie_runtime_link_test_check_m0_lane_repair_id53_by_runtime_link_test_run
                0x00000100002317b0                TEST_ucie_runtime_link_test_check_m0_lane_repair_id54_by_runtime_link_test_run
                0x00000100002317f0                TEST_ucie_runtime_link_test_check_m0_lane_repair_id55_by_runtime_link_test_run
                0x0000010000231830                TEST_ucie_runtime_link_test_check_m0_lane_repair_id56_by_runtime_link_test_run
                0x0000010000231870                TEST_ucie_runtime_link_test_check_m0_lane_repair_id57_by_runtime_link_test_run
                0x00000100002318b0                TEST_ucie_runtime_link_test_check_m0_lane_repair_id58_by_runtime_link_test_run
                0x00000100002318f0                TEST_ucie_runtime_link_test_check_m0_lane_repair_id59_by_runtime_link_test_run
                0x0000010000231930                TEST_ucie_runtime_link_test_check_m0_lane_repair_id60_by_runtime_link_test_run
                0x0000010000231970                TEST_ucie_runtime_link_test_check_m0_lane_repair_id61_by_runtime_link_test_run
                0x00000100002319b0                TEST_ucie_runtime_link_test_check_m0_lane_repair_id62_by_runtime_link_test_run
                0x00000100002319f0                TEST_ucie_runtime_link_test_check_m0_lane_repair_id63_by_runtime_link_test_run
                0x0000010000231a30                TEST_ucie_runtime_link_test_check_m0_lane_repair_id64_by_runtime_link_test_run
                0x0000010000231a70                TEST_ucie_runtime_link_test_check_m0_lane_repair_id65_by_runtime_link_test_run
                0x0000010000231ab0                TEST_ucie_runtime_link_test_check_m0_lane_repair_id66_by_runtime_link_test_run
                0x0000010000231af0                TEST_ucie_runtime_link_test_check_m0_lane_repair_id67_by_runtime_link_test_run
                0x0000010000231b30                TEST_ucie_runtime_link_test_check_m1_lane_repair_id00_by_runtime_link_test_run
                0x0000010000231b70                TEST_ucie_runtime_link_test_check_m1_lane_repair_id01_by_runtime_link_test_run
                0x0000010000231bb0                TEST_ucie_runtime_link_test_check_m1_lane_repair_id02_by_runtime_link_test_run
                0x0000010000231bf0                TEST_ucie_runtime_link_test_check_m1_lane_repair_id03_by_runtime_link_test_run
                0x0000010000231c30                TEST_ucie_runtime_link_test_check_m1_lane_repair_id04_by_runtime_link_test_run
                0x0000010000231c70                TEST_ucie_runtime_link_test_check_m1_lane_repair_id05_by_runtime_link_test_run
                0x0000010000231cb0                TEST_ucie_runtime_link_test_check_m1_lane_repair_id06_by_runtime_link_test_run
                0x0000010000231cf0                TEST_ucie_runtime_link_test_check_m1_lane_repair_id07_by_runtime_link_test_run
                0x0000010000231d30                TEST_ucie_runtime_link_test_check_m1_lane_repair_id08_by_runtime_link_test_run
                0x0000010000231d70                TEST_ucie_runtime_link_test_check_m1_lane_repair_id09_by_runtime_link_test_run
                0x0000010000231db0                TEST_ucie_runtime_link_test_check_m1_lane_repair_id10_by_runtime_link_test_run
                0x0000010000231df0                TEST_ucie_runtime_link_test_check_m1_lane_repair_id11_by_runtime_link_test_run
                0x0000010000231e30                TEST_ucie_runtime_link_test_check_m1_lane_repair_id12_by_runtime_link_test_run
                0x0000010000231e70                TEST_ucie_runtime_link_test_check_m1_lane_repair_id13_by_runtime_link_test_run
                0x0000010000231eb0                TEST_ucie_runtime_link_test_check_m1_lane_repair_id14_by_runtime_link_test_run
                0x0000010000231ef0                TEST_ucie_runtime_link_test_check_m1_lane_repair_id15_by_runtime_link_test_run
                0x0000010000231f30                TEST_ucie_runtime_link_test_check_m1_lane_repair_id16_by_runtime_link_test_run
                0x0000010000231f70                TEST_ucie_runtime_link_test_check_m1_lane_repair_id17_by_runtime_link_test_run
                0x0000010000231fb0                TEST_ucie_runtime_link_test_check_m1_lane_repair_id18_by_runtime_link_test_run
                0x0000010000231ff0                TEST_ucie_runtime_link_test_check_m1_lane_repair_id19_by_runtime_link_test_run
                0x0000010000232030                TEST_ucie_runtime_link_test_check_m1_lane_repair_id20_by_runtime_link_test_run
                0x0000010000232070                TEST_ucie_runtime_link_test_check_m1_lane_repair_id21_by_runtime_link_test_run
                0x00000100002320b0                TEST_ucie_runtime_link_test_check_m1_lane_repair_id22_by_runtime_link_test_run
                0x00000100002320f0                TEST_ucie_runtime_link_test_check_m1_lane_repair_id23_by_runtime_link_test_run
                0x0000010000232130                TEST_ucie_runtime_link_test_check_m1_lane_repair_id24_by_runtime_link_test_run
                0x0000010000232170                TEST_ucie_runtime_link_test_check_m1_lane_repair_id25_by_runtime_link_test_run
                0x00000100002321b0                TEST_ucie_runtime_link_test_check_m1_lane_repair_id26_by_runtime_link_test_run
                0x00000100002321f0                TEST_ucie_runtime_link_test_check_m1_lane_repair_id27_by_runtime_link_test_run
                0x0000010000232230                TEST_ucie_runtime_link_test_check_m1_lane_repair_id28_by_runtime_link_test_run
                0x0000010000232270                TEST_ucie_runtime_link_test_check_m1_lane_repair_id29_by_runtime_link_test_run
                0x00000100002322b0                TEST_ucie_runtime_link_test_check_m1_lane_repair_id30_by_runtime_link_test_run
                0x00000100002322f0                TEST_ucie_runtime_link_test_check_m1_lane_repair_id31_by_runtime_link_test_run
                0x0000010000232330                TEST_ucie_runtime_link_test_check_m1_lane_repair_id32_by_runtime_link_test_run
                0x0000010000232370                TEST_ucie_runtime_link_test_check_m1_lane_repair_id33_by_runtime_link_test_run
                0x00000100002323b0                TEST_ucie_runtime_link_test_check_m1_lane_repair_id34_by_runtime_link_test_run
                0x00000100002323f0                TEST_ucie_runtime_link_test_check_m1_lane_repair_id35_by_runtime_link_test_run
                0x0000010000232430                TEST_ucie_runtime_link_test_check_m1_lane_repair_id36_by_runtime_link_test_run
                0x0000010000232470                TEST_ucie_runtime_link_test_check_m1_lane_repair_id37_by_runtime_link_test_run
                0x00000100002324b0                TEST_ucie_runtime_link_test_check_m1_lane_repair_id38_by_runtime_link_test_run
                0x00000100002324f0                TEST_ucie_runtime_link_test_check_m1_lane_repair_id39_by_runtime_link_test_run
                0x0000010000232530                TEST_ucie_runtime_link_test_check_m1_lane_repair_id40_by_runtime_link_test_run
                0x0000010000232570                TEST_ucie_runtime_link_test_check_m1_lane_repair_id41_by_runtime_link_test_run
                0x00000100002325b0                TEST_ucie_runtime_link_test_check_m1_lane_repair_id42_by_runtime_link_test_run
                0x00000100002325f0                TEST_ucie_runtime_link_test_check_m1_lane_repair_id43_by_runtime_link_test_run
                0x0000010000232630                TEST_ucie_runtime_link_test_check_m1_lane_repair_id44_by_runtime_link_test_run
                0x0000010000232670                TEST_ucie_runtime_link_test_check_m1_lane_repair_id45_by_runtime_link_test_run
                0x00000100002326b0                TEST_ucie_runtime_link_test_check_m1_lane_repair_id46_by_runtime_link_test_run
                0x00000100002326f0                TEST_ucie_runtime_link_test_check_m1_lane_repair_id47_by_runtime_link_test_run
                0x0000010000232730                TEST_ucie_runtime_link_test_check_m1_lane_repair_id48_by_runtime_link_test_run
                0x0000010000232770                TEST_ucie_runtime_link_test_check_m1_lane_repair_id49_by_runtime_link_test_run
                0x00000100002327b0                TEST_ucie_runtime_link_test_check_m1_lane_repair_id50_by_runtime_link_test_run
                0x00000100002327f0                TEST_ucie_runtime_link_test_check_m1_lane_repair_id51_by_runtime_link_test_run
                0x0000010000232830                TEST_ucie_runtime_link_test_check_m1_lane_repair_id52_by_runtime_link_test_run
                0x0000010000232870                TEST_ucie_runtime_link_test_check_m1_lane_repair_id53_by_runtime_link_test_run
                0x00000100002328b0                TEST_ucie_runtime_link_test_check_m1_lane_repair_id54_by_runtime_link_test_run
                0x00000100002328f0                TEST_ucie_runtime_link_test_check_m1_lane_repair_id55_by_runtime_link_test_run
                0x0000010000232930                TEST_ucie_runtime_link_test_check_m1_lane_repair_id56_by_runtime_link_test_run
                0x0000010000232970                TEST_ucie_runtime_link_test_check_m1_lane_repair_id57_by_runtime_link_test_run
                0x00000100002329b0                TEST_ucie_runtime_link_test_check_m1_lane_repair_id58_by_runtime_link_test_run
                0x00000100002329f0                TEST_ucie_runtime_link_test_check_m1_lane_repair_id59_by_runtime_link_test_run
                0x0000010000232a30                TEST_ucie_runtime_link_test_check_m1_lane_repair_id60_by_runtime_link_test_run
                0x0000010000232a70                TEST_ucie_runtime_link_test_check_m1_lane_repair_id61_by_runtime_link_test_run
                0x0000010000232ab0                TEST_ucie_runtime_link_test_check_m1_lane_repair_id62_by_runtime_link_test_run
                0x0000010000232af0                TEST_ucie_runtime_link_test_check_m1_lane_repair_id63_by_runtime_link_test_run
                0x0000010000232b30                TEST_ucie_runtime_link_test_check_m1_lane_repair_id64_by_runtime_link_test_run
                0x0000010000232b70                TEST_ucie_runtime_link_test_check_m1_lane_repair_id65_by_runtime_link_test_run
                0x0000010000232bb0                TEST_ucie_runtime_link_test_check_m1_lane_repair_id66_by_runtime_link_test_run
                0x0000010000232bf0                TEST_ucie_runtime_link_test_check_m1_lane_repair_id67_by_runtime_link_test_run
                0x0000010000232c30                TEST_ucie_runtime_link_test_check_m0_lane_repair_id00_inject_stuck_at_fault_by_runtime_link_test_run
                0x0000010000232c50                TEST_ucie_runtime_link_test_check_m0_lane_repair_id00_inject_stuck_at_fault_by_runtime_link_test_
                0x0000010000232cd0                TEST_ucie_runtime_link_test_except_only_for_mock_GROUP_RUNNER
                0x0000010000232f00                TEST_ucie_runtime_link_test_only_for_mock_GROUP_RUNNER
 *fill*         0x0000010000232f04       0x1c 
 .text          0x0000010000232f20     0x37d4 build/tests/rbc/CMakeFiles/test_rbc.dir/test/test_aw_ucie_phy_compliance_test.c.o
                0x0000010000233080                TEST_ucie_phy_compliance_test_no_change_m0_rx_vref_offset_by_phy_compliance_test_
                0x0000010000233090                TEST_ucie_phy_compliance_test_no_change_m1_rx_vref_offset_by_phy_compliance_test_
                0x0000010000233210                TEST_ucie_phy_compliance_test_SETUP
                0x00000100002333d0                TEST_ucie_phy_compliance_test_TEAR_DOWN
                0x0000010000233410                TEST_ucie_phy_compliance_test_check_m0_phy_compliance_mode_
                0x0000010000233430                TEST_ucie_phy_compliance_test_check_m1_phy_compliance_mode_
                0x0000010000233590                TEST_ucie_phy_compliance_test_m0_scrambling_disable_by_phy_compliance_test_
                0x00000100002335a0                TEST_ucie_phy_compliance_test_m1_scrambling_disable_by_phy_compliance_test_
                0x00000100002336f0                TEST_ucie_phy_compliance_test_check_m0_phy_compliance_no_operation_
                0x0000010000233700                TEST_ucie_phy_compliance_test_check_m0_phy_compliance_tx_point_operation_
                0x0000010000233710                TEST_ucie_phy_compliance_test_check_m0_phy_compliance_tx_sweep_operation_
                0x0000010000233720                TEST_ucie_phy_compliance_test_check_m0_phy_compliance_rx_point_operation_
                0x0000010000233730                TEST_ucie_phy_compliance_test_check_m0_phy_compliance_rx_sweep_operation_
                0x0000010000233740                TEST_ucie_phy_compliance_test_check_m1_phy_compliance_no_operation_
                0x0000010000233750                TEST_ucie_phy_compliance_test_check_m1_phy_compliance_tx_point_operation_
                0x0000010000233760                TEST_ucie_phy_compliance_test_check_m1_phy_compliance_tx_sweep_operation_
                0x0000010000233770                TEST_ucie_phy_compliance_test_check_m1_phy_compliance_rx_point_operation_
                0x0000010000233780                TEST_ucie_phy_compliance_test_check_m1_phy_compliance_rx_sweep_operation_
                0x0000010000233970                TEST_ucie_phy_compliance_test_check_m0_16bit_idle_cnt0_of_train_setup2_
                0x0000010000233980                TEST_ucie_phy_compliance_test_check_m0_16bit_iterations0_of_train_setup2_
                0x0000010000233990                TEST_ucie_phy_compliance_test_check_m0_16bit_idle_cnt1_of_train_setup2_
                0x00000100002339a0                TEST_ucie_phy_compliance_test_check_m0_16bit_idle_cnt4_of_train_setup2_
                0x00000100002339b0                TEST_ucie_phy_compliance_test_check_m0_16bit_idle_cntFFFF_of_train_setup2_
                0x00000100002339c0                TEST_ucie_phy_compliance_test_check_m0_16bit_iterations1_of_train_setup2_
                0x00000100002339d0                TEST_ucie_phy_compliance_test_check_m0_16bit_iterations4_of_train_setup2_
                0x00000100002339e0                TEST_ucie_phy_compliance_test_check_m0_16bit_iterationsFFFF_of_train_setup2_
                0x00000100002339f0                TEST_ucie_phy_compliance_test_check_m1_16bit_idle_cnt0_of_train_setup2_
                0x0000010000233a00                TEST_ucie_phy_compliance_test_check_m1_16bit_iterations0_of_train_setup2_
                0x0000010000233a10                TEST_ucie_phy_compliance_test_check_m1_16bit_idle_cnt1_of_train_setup2_
                0x0000010000233a20                TEST_ucie_phy_compliance_test_check_m1_16bit_idle_cnt4_of_train_setup2_
                0x0000010000233a30                TEST_ucie_phy_compliance_test_check_m1_16bit_idle_cntFFFF_of_train_setup2_
                0x0000010000233a40                TEST_ucie_phy_compliance_test_check_m1_16bit_iterations1_of_train_setup2_
                0x0000010000233a50                TEST_ucie_phy_compliance_test_check_m1_16bit_iterations4_of_train_setup2_
                0x0000010000233a60                TEST_ucie_phy_compliance_test_check_m1_16bit_iterationsFFFF_of_train_setup2_
                0x0000010000233bd0                TEST_ucie_phy_compliance_test_check_m0_lane_mask_all_0_of_train_setup3_
                0x0000010000233be0                TEST_ucie_phy_compliance_test_check_m0_lane_mask_all_1_of_train_setup3_
                0x0000010000233bf0                TEST_ucie_phy_compliance_test_check_m1_lane_mask_all_0_of_train_setup3_
                0x0000010000233c00                TEST_ucie_phy_compliance_test_check_m1_lane_mask_all_1_of_train_setup3_
                0x0000010000233e30                TEST_ucie_phy_compliance_test_check_m0_repair_lane_no_mask_of_train_setup4_
                0x0000010000233e50                TEST_ucie_phy_compliance_test_check_m0_max_err_th_per_lane0_of_train_setup4_
                0x0000010000233e60                TEST_ucie_phy_compliance_test_check_m0_max_err_th_aggregate0_of_train_setup4_
                0x0000010000233e70                TEST_ucie_phy_compliance_test_check_m0_repair_lane_rd1_mask_of_train_setup4_
                0x0000010000233e90                TEST_ucie_phy_compliance_test_check_m0_repair_lane_rd2_mask_of_train_setup4_
                0x0000010000233eb0                TEST_ucie_phy_compliance_test_check_m0_max_err_th_per_lane1_of_train_setup4_
                0x0000010000233ed0                TEST_ucie_phy_compliance_test_check_m0_max_err_th_per_laneFFF_of_train_setup4_
                0x0000010000233ef0                TEST_ucie_phy_compliance_test_check_m0_max_err_th_aggregate1_of_train_setup4_
                0x0000010000233f10                TEST_ucie_phy_compliance_test_check_m0_max_err_th_aggregateFFF_of_train_setup4_
                0x0000010000233f30                TEST_ucie_phy_compliance_test_check_m1_repair_lane_no_mask_of_train_setup4_
                0x0000010000233f50                TEST_ucie_phy_compliance_test_check_m1_max_err_th_per_lane0_of_train_setup4_
                0x0000010000233f60                TEST_ucie_phy_compliance_test_check_m1_max_err_th_aggregate0_of_train_setup4_
                0x0000010000233f70                TEST_ucie_phy_compliance_test_check_m1_repair_lane_rd1_mask_of_train_setup4_
                0x0000010000233f90                TEST_ucie_phy_compliance_test_check_m1_repair_lane_rd2_mask_of_train_setup4_
                0x0000010000233fb0                TEST_ucie_phy_compliance_test_check_m1_max_err_th_per_lane1_of_train_setup4_
                0x0000010000233fd0                TEST_ucie_phy_compliance_test_check_m1_max_err_th_per_laneFFF_of_train_setup4_
                0x0000010000233ff0                TEST_ucie_phy_compliance_test_check_m1_max_err_th_aggregate1_of_train_setup4_
                0x0000010000234010                TEST_ucie_phy_compliance_test_check_m1_max_err_th_aggregateFFF_of_train_setup4_
                0x0000010000234170                TEST_ucie_phy_compliance_test_add_m0_rx_vref_offset_in_per_lane_comp_by_phy_compliance_test_
                0x00000100002341b0                TEST_ucie_phy_compliance_test_sub_m0_rx_vref_offset_in_aggregate_comp_by_phy_compliance_test_
                0x00000100002341f0                TEST_ucie_phy_compliance_test_check_m0_compare_setup_by_phy_compliance_test_
                0x0000010000234200                TEST_ucie_phy_compliance_test_add_m1_rx_vref_offset_in_per_lane_comp_by_phy_compliance_test_
                0x0000010000234240                TEST_ucie_phy_compliance_test_sub_m1_rx_vref_offset_in_aggregate_comp_by_phy_compliance_test_
                0x0000010000234280                TEST_ucie_phy_compliance_test_check_m1_compare_setup_by_phy_compliance_test_
                0x0000010000234380                TEST_ucie_phy_compliance_test_check_m0_even_ui_compare_mask_
                0x0000010000234390                TEST_ucie_phy_compliance_test_check_m1_even_ui_compare_mask_
                0x00000100002344d0                TEST_ucie_phy_compliance_test_check_m0_odd_ui_compare_mask_
                0x00000100002344e0                TEST_ucie_phy_compliance_test_check_m1_odd_ui_compare_mask_
                0x0000010000234630                TEST_ucie_phy_compliance_test_check_m0_track_enable_by_phy_compliance_test_
                0x0000010000234640                TEST_ucie_phy_compliance_test_check_m1_track_enable_by_phy_compliance_test_
                0x0000010000234950                TEST_ucie_phy_compliance_test_check_m1_16bit_burst_cntFFFF_of_train_setup1_
                0x0000010000234970                TEST_ucie_phy_compliance_test_check_m1_16bit_burst_cnt4_of_train_setup1_
                0x0000010000234990                TEST_ucie_phy_compliance_test_check_m1_16bit_burst_cnt1_of_train_setup1_
                0x00000100002349b0                TEST_ucie_phy_compliance_test_check_m1_training_mode_burst_of_train_setup1_
                0x00000100002349d0                TEST_ucie_phy_compliance_test_check_m1_clk_phase_cntrl_right_of_train_setup1_
                0x00000100002349f0                TEST_ucie_phy_compliance_test_check_m1_clk_phase_cntrl_left_of_train_setup1_
                0x0000010000234a10                TEST_ucie_phy_compliance_test_check_m1_data_pattern101_of_train_setup1_
                0x0000010000234a30                TEST_ucie_phy_compliance_test_check_m1_data_pattern100_of_train_setup1_
                0x0000010000234a50                TEST_ucie_phy_compliance_test_check_m1_data_pattern011_of_train_setup1_
                0x0000010000234a70                TEST_ucie_phy_compliance_test_check_m1_data_pattern010_of_train_setup1_
                0x0000010000234a90                TEST_ucie_phy_compliance_test_check_m1_data_pattern001_of_train_setup1_
                0x0000010000234ab0                TEST_ucie_phy_compliance_test_check_m1_data_pattern000_of_train_setup1_
                0x0000010000234ad0                TEST_ucie_phy_compliance_test_check_m1_valid_pattern_of_train_setup1_
                0x0000010000234ae0                TEST_ucie_phy_compliance_test_check_m1_clk_phase_cntrl_center_of_train_setup1_
                0x0000010000234af0                TEST_ucie_phy_compliance_test_check_m1_training_mode_conti_of_train_setup1_
                0x0000010000234b00                TEST_ucie_phy_compliance_test_check_m1_16bit_burst_cnt0_of_train_setup1_
                0x0000010000234b10                TEST_ucie_phy_compliance_test_check_m0_16bit_burst_cntFFFF_of_train_setup1_
                0x0000010000234b30                TEST_ucie_phy_compliance_test_check_m0_16bit_burst_cnt4_of_train_setup1_
                0x0000010000234b50                TEST_ucie_phy_compliance_test_check_m0_16bit_burst_cnt1_of_train_setup1_
                0x0000010000234b70                TEST_ucie_phy_compliance_test_check_m0_training_mode_burst_of_train_setup1_
                0x0000010000234b90                TEST_ucie_phy_compliance_test_check_m0_clk_phase_cntrl_right_of_train_setup1_
                0x0000010000234bb0                TEST_ucie_phy_compliance_test_check_m0_clk_phase_cntrl_left_of_train_setup1_
                0x0000010000234bd0                TEST_ucie_phy_compliance_test_check_m0_data_pattern101_of_train_setup1_
                0x0000010000234bf0                TEST_ucie_phy_compliance_test_check_m0_data_pattern100_of_train_setup1_
                0x0000010000234c10                TEST_ucie_phy_compliance_test_check_m0_data_pattern011_of_train_setup1_
                0x0000010000234c30                TEST_ucie_phy_compliance_test_check_m0_data_pattern010_of_train_setup1_
                0x0000010000234c50                TEST_ucie_phy_compliance_test_check_m0_data_pattern001_of_train_setup1_
                0x0000010000234c70                TEST_ucie_phy_compliance_test_check_m0_data_pattern000_of_train_setup1_
                0x0000010000234c90                TEST_ucie_phy_compliance_test_check_m0_valid_pattern_of_train_setup1_
                0x0000010000234ca0                TEST_ucie_phy_compliance_test_check_m0_clk_phase_cntrl_center_of_train_setup1_
                0x0000010000234cb0                TEST_ucie_phy_compliance_test_check_m0_training_mode_conti_of_train_setup1_
                0x0000010000234cc0                TEST_ucie_phy_compliance_test_check_m0_16bit_burst_cnt0_of_train_setup1_
                0x0000010000234cd0                TEST_ucie_phy_compliance_test_check_m0_phy_compliance_mode_run
                0x0000010000234d10                TEST_ucie_phy_compliance_test_m0_scrambling_disable_by_phy_compliance_test_run
                0x0000010000234d50                TEST_ucie_phy_compliance_test_check_m0_phy_compliance_no_operation_run
                0x0000010000234d90                TEST_ucie_phy_compliance_test_check_m0_phy_compliance_tx_point_operation_run
                0x0000010000234dd0                TEST_ucie_phy_compliance_test_check_m0_phy_compliance_tx_sweep_operation_run
                0x0000010000234e10                TEST_ucie_phy_compliance_test_check_m0_phy_compliance_rx_point_operation_run
                0x0000010000234e50                TEST_ucie_phy_compliance_test_check_m0_phy_compliance_rx_sweep_operation_run
                0x0000010000234e90                TEST_ucie_phy_compliance_test_check_m0_data_pattern000_of_train_setup1_run
                0x0000010000234ed0                TEST_ucie_phy_compliance_test_check_m0_data_pattern001_of_train_setup1_run
                0x0000010000234f10                TEST_ucie_phy_compliance_test_check_m0_data_pattern010_of_train_setup1_run
                0x0000010000234f50                TEST_ucie_phy_compliance_test_check_m0_data_pattern011_of_train_setup1_run
                0x0000010000234f90                TEST_ucie_phy_compliance_test_check_m0_data_pattern100_of_train_setup1_run
                0x0000010000234fd0                TEST_ucie_phy_compliance_test_check_m0_data_pattern101_of_train_setup1_run
                0x0000010000235010                TEST_ucie_phy_compliance_test_check_m0_valid_pattern_of_train_setup1_run
                0x0000010000235050                TEST_ucie_phy_compliance_test_check_m0_clk_phase_cntrl_center_of_train_setup1_run
                0x0000010000235090                TEST_ucie_phy_compliance_test_check_m0_clk_phase_cntrl_left_of_train_setup1_run
                0x00000100002350d0                TEST_ucie_phy_compliance_test_check_m0_clk_phase_cntrl_right_of_train_setup1_run
                0x0000010000235110                TEST_ucie_phy_compliance_test_check_m0_training_mode_conti_of_train_setup1_run
                0x0000010000235150                TEST_ucie_phy_compliance_test_check_m0_training_mode_burst_of_train_setup1_run
                0x0000010000235190                TEST_ucie_phy_compliance_test_check_m0_16bit_burst_cnt0_of_train_setup1_run
                0x00000100002351d0                TEST_ucie_phy_compliance_test_check_m0_16bit_burst_cnt1_of_train_setup1_run
                0x0000010000235210                TEST_ucie_phy_compliance_test_check_m0_16bit_burst_cnt4_of_train_setup1_run
                0x0000010000235250                TEST_ucie_phy_compliance_test_check_m0_16bit_burst_cntFFFF_of_train_setup1_run
                0x0000010000235290                TEST_ucie_phy_compliance_test_check_m0_16bit_idle_cnt0_of_train_setup2_run
                0x00000100002352d0                TEST_ucie_phy_compliance_test_check_m0_16bit_idle_cnt1_of_train_setup2_run
                0x0000010000235310                TEST_ucie_phy_compliance_test_check_m0_16bit_idle_cnt4_of_train_setup2_run
                0x0000010000235350                TEST_ucie_phy_compliance_test_check_m0_16bit_idle_cntFFFF_of_train_setup2_run
                0x0000010000235390                TEST_ucie_phy_compliance_test_check_m0_16bit_iterations0_of_train_setup2_run
                0x00000100002353d0                TEST_ucie_phy_compliance_test_check_m0_16bit_iterations1_of_train_setup2_run
                0x0000010000235410                TEST_ucie_phy_compliance_test_check_m0_16bit_iterations4_of_train_setup2_run
                0x0000010000235450                TEST_ucie_phy_compliance_test_check_m0_16bit_iterationsFFFF_of_train_setup2_run
                0x0000010000235490                TEST_ucie_phy_compliance_test_check_m0_lane_mask_all_0_of_train_setup3_run
                0x00000100002354d0                TEST_ucie_phy_compliance_test_check_m0_lane_mask_all_1_of_train_setup3_run
                0x0000010000235510                TEST_ucie_phy_compliance_test_check_m0_repair_lane_no_mask_of_train_setup4_run
                0x0000010000235550                TEST_ucie_phy_compliance_test_check_m0_repair_lane_rd1_mask_of_train_setup4_run
                0x0000010000235590                TEST_ucie_phy_compliance_test_check_m0_repair_lane_rd2_mask_of_train_setup4_run
                0x00000100002355d0                TEST_ucie_phy_compliance_test_check_m0_max_err_th_per_lane0_of_train_setup4_run
                0x0000010000235610                TEST_ucie_phy_compliance_test_check_m0_max_err_th_per_lane1_of_train_setup4_run
                0x0000010000235650                TEST_ucie_phy_compliance_test_check_m0_max_err_th_per_laneFFF_of_train_setup4_run
                0x0000010000235690                TEST_ucie_phy_compliance_test_check_m0_max_err_th_aggregate0_of_train_setup4_run
                0x00000100002356d0                TEST_ucie_phy_compliance_test_check_m0_max_err_th_aggregate1_of_train_setup4_run
                0x0000010000235710                TEST_ucie_phy_compliance_test_check_m0_max_err_th_aggregateFFF_of_train_setup4_run
                0x0000010000235750                TEST_ucie_phy_compliance_test_no_change_m0_rx_vref_offset_by_phy_compliance_test_run
                0x0000010000235790                TEST_ucie_phy_compliance_test_add_m0_rx_vref_offset_in_per_lane_comp_by_phy_compliance_test_run
                0x00000100002357d0                TEST_ucie_phy_compliance_test_sub_m0_rx_vref_offset_in_aggregate_comp_by_phy_compliance_test_run
                0x0000010000235810                TEST_ucie_phy_compliance_test_check_m0_even_ui_compare_mask_run
                0x0000010000235850                TEST_ucie_phy_compliance_test_check_m0_odd_ui_compare_mask_run
                0x0000010000235890                TEST_ucie_phy_compliance_test_check_m0_track_enable_by_phy_compliance_test_run
                0x00000100002358d0                TEST_ucie_phy_compliance_test_check_m0_compare_setup_by_phy_compliance_test_run
                0x0000010000235910                TEST_ucie_phy_compliance_test_check_m1_phy_compliance_mode_run
                0x0000010000235950                TEST_ucie_phy_compliance_test_m1_scrambling_disable_by_phy_compliance_test_run
                0x0000010000235990                TEST_ucie_phy_compliance_test_check_m1_phy_compliance_no_operation_run
                0x00000100002359d0                TEST_ucie_phy_compliance_test_check_m1_phy_compliance_tx_point_operation_run
                0x0000010000235a10                TEST_ucie_phy_compliance_test_check_m1_phy_compliance_tx_sweep_operation_run
                0x0000010000235a50                TEST_ucie_phy_compliance_test_check_m1_phy_compliance_rx_point_operation_run
                0x0000010000235a90                TEST_ucie_phy_compliance_test_check_m1_phy_compliance_rx_sweep_operation_run
                0x0000010000235ad0                TEST_ucie_phy_compliance_test_check_m1_data_pattern000_of_train_setup1_run
                0x0000010000235b10                TEST_ucie_phy_compliance_test_check_m1_data_pattern001_of_train_setup1_run
                0x0000010000235b50                TEST_ucie_phy_compliance_test_check_m1_data_pattern010_of_train_setup1_run
                0x0000010000235b90                TEST_ucie_phy_compliance_test_check_m1_data_pattern011_of_train_setup1_run
                0x0000010000235bd0                TEST_ucie_phy_compliance_test_check_m1_data_pattern100_of_train_setup1_run
                0x0000010000235c10                TEST_ucie_phy_compliance_test_check_m1_data_pattern101_of_train_setup1_run
                0x0000010000235c50                TEST_ucie_phy_compliance_test_check_m1_valid_pattern_of_train_setup1_run
                0x0000010000235c90                TEST_ucie_phy_compliance_test_check_m1_clk_phase_cntrl_center_of_train_setup1_run
                0x0000010000235cd0                TEST_ucie_phy_compliance_test_check_m1_clk_phase_cntrl_left_of_train_setup1_run
                0x0000010000235d10                TEST_ucie_phy_compliance_test_check_m1_clk_phase_cntrl_right_of_train_setup1_run
                0x0000010000235d50                TEST_ucie_phy_compliance_test_check_m1_training_mode_conti_of_train_setup1_run
                0x0000010000235d90                TEST_ucie_phy_compliance_test_check_m1_training_mode_burst_of_train_setup1_run
                0x0000010000235dd0                TEST_ucie_phy_compliance_test_check_m1_16bit_burst_cnt0_of_train_setup1_run
                0x0000010000235e10                TEST_ucie_phy_compliance_test_check_m1_16bit_burst_cnt1_of_train_setup1_run
                0x0000010000235e50                TEST_ucie_phy_compliance_test_check_m1_16bit_burst_cnt4_of_train_setup1_run
                0x0000010000235e90                TEST_ucie_phy_compliance_test_check_m1_16bit_burst_cntFFFF_of_train_setup1_run
                0x0000010000235ed0                TEST_ucie_phy_compliance_test_check_m1_16bit_idle_cnt0_of_train_setup2_run
                0x0000010000235f10                TEST_ucie_phy_compliance_test_check_m1_16bit_idle_cnt1_of_train_setup2_run
                0x0000010000235f50                TEST_ucie_phy_compliance_test_check_m1_16bit_idle_cnt4_of_train_setup2_run
                0x0000010000235f90                TEST_ucie_phy_compliance_test_check_m1_16bit_idle_cntFFFF_of_train_setup2_run
                0x0000010000235fd0                TEST_ucie_phy_compliance_test_check_m1_16bit_iterations0_of_train_setup2_run
                0x0000010000236010                TEST_ucie_phy_compliance_test_check_m1_16bit_iterations1_of_train_setup2_run
                0x0000010000236050                TEST_ucie_phy_compliance_test_check_m1_16bit_iterations4_of_train_setup2_run
                0x0000010000236090                TEST_ucie_phy_compliance_test_check_m1_16bit_iterationsFFFF_of_train_setup2_run
                0x00000100002360d0                TEST_ucie_phy_compliance_test_check_m1_lane_mask_all_0_of_train_setup3_run
                0x0000010000236110                TEST_ucie_phy_compliance_test_check_m1_lane_mask_all_1_of_train_setup3_run
                0x0000010000236150                TEST_ucie_phy_compliance_test_check_m1_repair_lane_no_mask_of_train_setup4_run
                0x0000010000236190                TEST_ucie_phy_compliance_test_check_m1_repair_lane_rd1_mask_of_train_setup4_run
                0x00000100002361d0                TEST_ucie_phy_compliance_test_check_m1_repair_lane_rd2_mask_of_train_setup4_run
                0x0000010000236210                TEST_ucie_phy_compliance_test_check_m1_max_err_th_per_lane0_of_train_setup4_run
                0x0000010000236250                TEST_ucie_phy_compliance_test_check_m1_max_err_th_per_lane1_of_train_setup4_run
                0x0000010000236290                TEST_ucie_phy_compliance_test_check_m1_max_err_th_per_laneFFF_of_train_setup4_run
                0x00000100002362d0                TEST_ucie_phy_compliance_test_check_m1_max_err_th_aggregate0_of_train_setup4_run
                0x0000010000236310                TEST_ucie_phy_compliance_test_check_m1_max_err_th_aggregate1_of_train_setup4_run
                0x0000010000236350                TEST_ucie_phy_compliance_test_check_m1_max_err_th_aggregateFFF_of_train_setup4_run
                0x0000010000236390                TEST_ucie_phy_compliance_test_no_change_m1_rx_vref_offset_by_phy_compliance_test_run
                0x00000100002363d0                TEST_ucie_phy_compliance_test_add_m1_rx_vref_offset_in_per_lane_comp_by_phy_compliance_test_run
                0x0000010000236410                TEST_ucie_phy_compliance_test_sub_m1_rx_vref_offset_in_aggregate_comp_by_phy_compliance_test_run
                0x0000010000236450                TEST_ucie_phy_compliance_test_check_m1_even_ui_compare_mask_run
                0x0000010000236490                TEST_ucie_phy_compliance_test_check_m1_odd_ui_compare_mask_run
                0x00000100002364d0                TEST_ucie_phy_compliance_test_check_m1_track_enable_by_phy_compliance_test_run
                0x0000010000236510                TEST_ucie_phy_compliance_test_check_m1_compare_setup_by_phy_compliance_test_run
                0x0000010000236550                TEST_ucie_phy_compliance_test_except_only_for_mock_GROUP_RUNNER
                0x00000100002366f0                TEST_ucie_phy_compliance_test_only_for_mock_GROUP_RUNNER
 *fill*         0x00000100002366f4        0xc 
 .text          0x0000010000236700     0x2130 build/tests/rbc/CMakeFiles/test_rbc.dir/test/test_aw_ucie_exception.c.o
                0x0000010000236700                TEST_ucie_exception_TEAR_DOWN
                0x0000010000236730                TEST_ucie_exception_SETUP
                0x00000100002367f0                TEST_ucie_exception_clear_intr_log_
                0x00000100002368e0                TEST_ucie_exception_overflow_intr_log_
                0x0000010000236a50                TEST_ucie_exception_check_log_dump_
                0x0000010000236ef0                TEST_ucie_exception_assert_intr_corr_err_by_crc_err_detecting_
                0x0000010000236f50                TEST_ucie_exception_assert_intr_corr_err_by_adap_lsm_retrain_
                0x0000010000236fb0                TEST_ucie_exception_assert_intr_corr_err_by_internal_err_
                0x0000010000237010                TEST_ucie_exception_assert_intr_corr_err_by_sb_corr_err_msg_
                0x0000010000237070                TEST_ucie_exception_assert_intr_corr_err_by_runtime_link_test_
                0x00000100002370d0                TEST_ucie_exception_invalid_intr_corr_error_with_none_of_reason_
                0x00000100002373d0                TEST_ucie_exception_assert_intr_non_fatal_uncorr_err_by_adap_timeout_
                0x0000010000237430                TEST_ucie_exception_assert_intr_non_fatal_uncorr_err_by_recv_overflow_
                0x0000010000237490                TEST_ucie_exception_assert_intr_non_fatal_uncorr_err_by_internal_error_
                0x00000100002374f0                TEST_ucie_exception_assert_intr_non_fatal_uncorr_err_by_sb_fatal_err_msg_
                0x0000010000237550                TEST_ucie_exception_assert_intr_non_fatal_uncorr_err_by_sb_non_fatal_err_msg_
                0x00000100002375b0                TEST_ucie_exception_assert_intr_non_fatal_uncorr_err_from_invalid_param_exchange_
                0x0000010000237610                TEST_ucie_exception_assert_intr_fatal_uncorr_err_by_sb_non_fatal_err_msg_
                0x0000010000237670                TEST_ucie_exception_invalid_intr_non_fatal_uncorr_error_with_none_of_reason_
                0x0000010000237790                TEST_ucie_exception_invalid_intr_fatal_uncorr_error_with_none_of_reason_
                0x00000100002379f0                TEST_ucie_exception_assert_intr_fatal_uncorr_err_from_invalid_param_exchange_
                0x0000010000237a50                TEST_ucie_exception_assert_intr_fatal_uncorr_err_by_sb_fatal_err_msg_
                0x0000010000237ab0                TEST_ucie_exception_assert_intr_fatal_uncorr_err_by_internal_error_
                0x0000010000237b10                TEST_ucie_exception_assert_intr_fatal_uncorr_err_by_recv_overflow_
                0x0000010000237b70                TEST_ucie_exception_assert_intr_fatal_uncorr_err_by_adap_timeout_
                0x0000010000237c40                TEST_ucie_exception_not_assert_intr_by_link_status_changed_cleared_
                0x0000010000237d30                TEST_ucie_exception_assert_intr_by_link_status_changed_set_
                0x0000010000237e60                TEST_ucie_exception_clear_intr_log_run
                0x0000010000237ea0                TEST_ucie_exception_assert_intr_by_link_status_changed_set_run
                0x0000010000237ee0                TEST_ucie_exception_not_assert_intr_by_link_status_changed_cleared_run
                0x0000010000237f20                TEST_ucie_exception_overflow_intr_log_run
                0x0000010000237f60                TEST_ucie_exception_check_log_dump_run
                0x0000010000237fa0                TEST_ucie_exception_unmasking_corr_err_intr_from_crc_err_run
                0x0000010000237fc0                TEST_ucie_exception_unmasking_corr_err_intr_from_crc_err_
                0x0000010000238120                TEST_ucie_exception_masking_corr_err_intr_from_crc_err_run
                0x0000010000238140                TEST_ucie_exception_masking_corr_err_intr_from_crc_err_
                0x00000100002382a0                TEST_ucie_exception_assert_intr_corr_err_by_crc_err_detecting_run
                0x00000100002382e0                TEST_ucie_exception_assert_intr_corr_err_by_adap_lsm_retrain_run
                0x0000010000238320                TEST_ucie_exception_assert_intr_corr_err_by_internal_err_run
                0x0000010000238360                TEST_ucie_exception_assert_intr_corr_err_by_sb_corr_err_msg_run
                0x00000100002383a0                TEST_ucie_exception_assert_intr_corr_err_by_runtime_link_test_run
                0x00000100002383e0                TEST_ucie_exception_invalid_intr_corr_error_with_none_of_reason_run
                0x0000010000238420                TEST_ucie_exception_assert_intr_non_fatal_uncorr_err_by_adap_timeout_run
                0x0000010000238460                TEST_ucie_exception_assert_intr_non_fatal_uncorr_err_by_recv_overflow_run
                0x00000100002384a0                TEST_ucie_exception_assert_intr_non_fatal_uncorr_err_by_internal_error_run
                0x00000100002384e0                TEST_ucie_exception_assert_intr_non_fatal_uncorr_err_by_sb_fatal_err_msg_run
                0x0000010000238520                TEST_ucie_exception_assert_intr_non_fatal_uncorr_err_by_sb_non_fatal_err_msg_run
                0x0000010000238560                TEST_ucie_exception_assert_intr_non_fatal_uncorr_err_from_invalid_param_exchange_run
                0x00000100002385a0                TEST_ucie_exception_invalid_intr_non_fatal_uncorr_error_with_none_of_reason_run
                0x00000100002385e0                TEST_ucie_exception_assert_intr_fatal_uncorr_err_by_adap_timeout_run
                0x0000010000238620                TEST_ucie_exception_assert_intr_fatal_uncorr_err_by_recv_overflow_run
                0x0000010000238660                TEST_ucie_exception_assert_intr_fatal_uncorr_err_by_internal_error_run
                0x00000100002386a0                TEST_ucie_exception_assert_intr_fatal_uncorr_err_by_sb_fatal_err_msg_run
                0x00000100002386e0                TEST_ucie_exception_assert_intr_fatal_uncorr_err_by_sb_non_fatal_err_msg_run
                0x0000010000238720                TEST_ucie_exception_assert_intr_fatal_uncorr_err_from_invalid_param_exchange_run
                0x0000010000238760                TEST_ucie_exception_invalid_intr_fatal_uncorr_error_with_none_of_reason_run
                0x00000100002387a0                TEST_ucie_exception_except_only_for_mock_GROUP_RUNNER
                0x00000100002387d0                TEST_ucie_exception_only_for_mock_GROUP_RUNNER
 *fill*         0x0000010000238830       0x10 
 .text          0x0000010000238840      0xfa4 build/tests/rbc/CMakeFiles/test_rbc.dir/test/test_aw_ucie_eye_of_margin.c.o
                0x0000010000238840                TEST_ucie_eye_of_margin_TEAR_DOWN
                0x0000010000238a20                TEST_ucie_eye_of_margin_SETUP
                0x0000010000238aa0                TEST_ucie_eye_of_margin_normal_m0_eom_status_check_
                0x0000010000238bb0                TEST_ucie_eye_of_margin_fail_m0_eom_status_check_
                0x0000010000238c70                TEST_ucie_eye_of_margin_check_m0_eom_by_rx_vref_offset_none_
                0x0000010000238da0                TEST_ucie_eye_of_margin_check_m0_eom_by_rx_vref_offset_add_max_
                0x0000010000238ec0                TEST_ucie_eye_of_margin_check_m0_eom_by_rx_vref_offset_sub_max_
                0x0000010000238fe0                TEST_ucie_eye_of_margin_normal_m1_eom_status_check_
                0x00000100002390f0                TEST_ucie_eye_of_margin_fail_m1_eom_status_check_
                0x00000100002391b0                TEST_ucie_eye_of_margin_check_m1_eom_by_rx_vref_offset_none_
                0x00000100002392e0                TEST_ucie_eye_of_margin_check_m1_eom_by_rx_vref_offset_add_max_
                0x0000010000239400                TEST_ucie_eye_of_margin_check_m1_eom_by_rx_vref_offset_sub_max_
                0x0000010000239520                TEST_ucie_eye_of_margin_normal_m0_eom_status_check_run
                0x0000010000239560                TEST_ucie_eye_of_margin_fail_m0_eom_status_check_run
                0x00000100002395a0                TEST_ucie_eye_of_margin_check_m0_eom_by_rx_vref_offset_none_run
                0x00000100002395e0                TEST_ucie_eye_of_margin_check_m0_eom_by_rx_vref_offset_add_max_run
                0x0000010000239620                TEST_ucie_eye_of_margin_check_m0_eom_by_rx_vref_offset_sub_max_run
                0x0000010000239660                TEST_ucie_eye_of_margin_normal_m1_eom_status_check_run
                0x00000100002396a0                TEST_ucie_eye_of_margin_fail_m1_eom_status_check_run
                0x00000100002396e0                TEST_ucie_eye_of_margin_check_m1_eom_by_rx_vref_offset_none_run
                0x0000010000239720                TEST_ucie_eye_of_margin_check_m1_eom_by_rx_vref_offset_add_max_run
                0x0000010000239760                TEST_ucie_eye_of_margin_check_m1_eom_by_rx_vref_offset_sub_max_run
                0x00000100002397a0                TEST_ucie_eye_of_margin_except_only_for_mock_GROUP_RUNNER
                0x00000100002397e0                TEST_ucie_eye_of_margin_only_for_mock_GROUP_RUNNER
 *fill*         0x00000100002397e4        0xc 
 .text          0x00000100002397f0      0x298 build/tests/rbc/CMakeFiles/test_rbc.dir/test/test_aw_ucie_util.c.o
                0x00000100002397f0                get_default_pcie_extnd_cap_hdr
                0x0000010000239800                get_default_dvs_hdr1
                0x0000010000239810                get_default_dvs_hdr2_cap_desc
                0x0000010000239820                get_default_link_cap
                0x0000010000239830                get_default_link_stat
                0x0000010000239840                get_done_link_stat
                0x0000010000239850                get_default_link_ctrl
                0x0000010000239860                get_default_phy_ctrl
                0x0000010000239870                get_default_phy_impsp_blk_hdr1
                0x0000010000239880                get_default_phy_impsp_blk_hdr2
                0x0000010000239890                get_default_phy_capability
                0x00000100002398a0                get_default_phy_extnd_cap_hdr
                0x00000100002398b0                get_default_uhm_dvsec_hdr1
                0x00000100002398c0                get_default_uhm_dvsec_hdr2
                0x00000100002398d0                get_aw_ucie_mmio_var
                0x00000100002398e0                get_aw_ucie_mmio_write_buf
                0x00000100002398f0                get_aw_ucie_real_map
                0x0000010000239900                init_mmio_map
                0x0000010000239a50                get_random_of_range
 *fill*         0x0000010000239a88        0x8 
 .text          0x0000010000239a90      0x120 build/tests/rbc/CMakeFiles/test_rbc.dir/test/test_fake_timer.c.o
                0x0000010000239a90                TEST_fake_timer_SETUP
                0x0000010000239aa0                TEST_fake_timer_set_fake_tick_
                0x0000010000239ad0                TEST_fake_timer_set_fake_tick_increment_
                0x0000010000239b20                TEST_fake_timer_TEAR_DOWN
                0x0000010000239b30                TEST_fake_timer_set_fake_tick_run
                0x0000010000239b70                TEST_fake_timer_set_fake_tick_increment_run
 *fill*         0x0000010000239bb0       0x10 
 .text          0x0000010000239bc0      0xa00 build/tests/rbc/CMakeFiles/test_rbc.dir/test/test_rbc_driver.c.o
                0x0000010000239bc0                TEST_rbc_driver_TEAR_DOWN
                0x0000010000239bf0                TEST_rbc_driver_rbc_driver_init_
                0x0000010000239c70                TEST_rbc_driver_set_target_rbc_blk_
                0x0000010000239d10                TEST_rbc_driver_SETUP
                0x0000010000239da0                TEST_rbc_driver_check_print_eye_diagram_
                0x0000010000239f50                TEST_rbc_driver_l2_abort_rbcv11_w_chiplet1_rbcv00_
                0x000001000023a060                TEST_rbc_driver_l1_abort_rbcv11_w_chiplet1_rbcv00_
                0x000001000023a170                TEST_rbc_driver_l2_rbcv11_w_chiplet1_rbcv00_
                0x000001000023a2a0                TEST_rbc_driver_l1_rbcv11_w_chiplet1_rbcv00_
                0x000001000023a3d0                TEST_rbc_driver_rbc_driver_init_run
                0x000001000023a410                TEST_rbc_driver_set_target_rbc_blk_run
                0x000001000023a450                TEST_rbc_driver_l1_rbcv11_w_chiplet1_rbcv00_run
                0x000001000023a490                TEST_rbc_driver_l2_rbcv11_w_chiplet1_rbcv00_run
                0x000001000023a4d0                TEST_rbc_driver_l1_abort_rbcv11_w_chiplet1_rbcv00_run
                0x000001000023a510                TEST_rbc_driver_l2_abort_rbcv11_w_chiplet1_rbcv00_run
                0x000001000023a550                TEST_rbc_driver_except_only_for_mock_GROUP_RUNNER
                0x000001000023a570                TEST_rbc_driver_only_for_mock_GROUP_RUNNER
                0x000001000023a580                TEST_rbc_driver_check_print_eye_diagram_run
 .text          0x000001000023a5c0       0x3c build/tests/rbc/CMakeFiles/test_rbc.dir/mocks/fake_timer.c.o
                0x000001000023a5c0                fake_set_tick
                0x000001000023a5d0                fake_set_tick_increment
                0x000001000023a5e0                get_tick
 *fill*         0x000001000023a5fc        0x4 
 .text          0x000001000023a600       0x20 build/tests/rbc/CMakeFiles/test_rbc.dir/mocks/fake_gic.c.o
                0x000001000023a600                call_interrupt_handler
 .text          0x000001000023a620     0x2970 build/tests/rbcm/CMakeFiles/test_rbcm.dir/rbcm_test.c.o
                0x000001000023a6e0                rbcm_cli_handler
                0x000001000023a9a0                cli_register_rbc_test
                0x000001000023a9d0                rbcm_module_valid
                0x000001000023aa10                get_rbc_module_argument
                0x000001000023c310                rbcm_test_loopback
 *fill*         0x000001000023cf90       0x10 
 .text          0x000001000023cfa0      0x228 build/tests/rbcm/CMakeFiles/test_rbcm.dir/rbcm_reg_access_test.c.o
                0x000001000023cfa0                rbcm_run_reg_rst_test
                0x000001000023d090                rbcm_run_reg_acc_test
 *fill*         0x000001000023d1c8       0x18 
 .text          0x000001000023d1e0      0xb10 build/tests/i2c/CMakeFiles/test_i2c.dir/test_i2c_main.c.o
                0x000001000023d1e0                test_main_i2c
                0x000001000023dcd0                cli_register_test_i2c
 *fill*         0x000001000023dcf0       0x10 
 .text          0x000001000023dd00     0x146c build/tests/hbm3/CMakeFiles/hbm3_test.dir/memtest.c.o
                0x000001000023dd00                cli_register_memtest
                0x000001000023dd20                compare_regions
                0x000001000023de90                test_stuck_address
                0x000001000023df30                test_random_value
                0x000001000023e000                test_xor_comparison
                0x000001000023e0c0                test_sub_comparison
                0x000001000023e180                test_mul_comparison
                0x000001000023e240                test_div_comparison
                0x000001000023e300                test_or_comparison
                0x000001000023e3c0                test_and_comparison
                0x000001000023e480                test_seqinc_comparison
                0x000001000023e540                test_solidbits_comparison
                0x000001000023e5f0                test_checkerboard_comparison
                0x000001000023e6b0                test_blockseq_comparison
                0x000001000023e790                test_walkbits0_comparison
                0x000001000023e890                test_walkbits1_comparison
                0x000001000023e9b0                test_bitspread_comparison
                0x000001000023eaf0                test_bitflip_comparison
                0x000001000023ebd0                test_8bit_wide_random
                0x000001000023ed40                test_16bit_wide_random
                0x000001000023eea0                get_memtest_name
                0x000001000023eed0                do_memtest
                0x000001000023f040                run_memtest
 *fill*         0x000001000023f16c       0x14 
 .text          0x000001000023f180      0x130 build/tests/hbm3/CMakeFiles/hbm3_test.dir/hbm3_irq_test.c.o
                0x000001000023f180                hbm3_irq_main
                0x000001000023f290                cli_register_hbm3_irq
 *fill*         0x000001000023f2b0       0x10 
 .text          0x000001000023f2c0      0xb1c build/tests/system_test/CMakeFiles/system_test.dir/test_system.c.o
                0x000001000023fc40                system_test_cb
 *fill*         0x000001000023fddc        0x4 
 .text          0x000001000023fde0      0x130 build/tests/system_test/CMakeFiles/system_test.dir/dma_transaction.c.o
                0x000001000023fdf0                transfer_data
 *fill*         0x000001000023ff10       0x10 
 .text          0x000001000023ff20      0x5f4 build/tests/system_test/CMakeFiles/system_test.dir/test_dma_transaction.c.o
                0x000001000023ff20                TEST_dma_transaction_test_SETUP
                0x000001000023ff30                dma_transaction_tests_main
                0x000001000023ff60                cli_register_dma_transaction_test
                0x0000010000240060                TEST_dma_transaction_test_chiplet_0_to_3_512KiB_
                0x00000100002400e0                TEST_dma_transaction_test_chiplet_0_to_2_512KiB_
                0x0000010000240160                TEST_dma_transaction_test_chiplet_0_to_1_512KiB_
                0x00000100002401e0                TEST_dma_transaction_test_chiplet_0_to_0_512KiB_
                0x0000010000240260                TEST_dma_transaction_test_transfer_less_size_than_minimum_
                0x00000100002402e0                TEST_dma_transaction_test_transfer_unalign_data_
                0x0000010000240360                TEST_dma_transaction_test_TEAR_DOWN
                0x0000010000240370                TEST_dma_transaction_test_transfer_unalign_data_run
                0x00000100002403b0                TEST_dma_transaction_test_transfer_less_size_than_minimum_run
                0x00000100002403f0                TEST_dma_transaction_test_chiplet_0_to_0_512KiB_run
                0x0000010000240430                TEST_dma_transaction_test_chiplet_0_to_1_512KiB_run
                0x0000010000240470                TEST_dma_transaction_test_chiplet_0_to_2_512KiB_run
                0x00000100002404b0                TEST_dma_transaction_test_chiplet_0_to_3_512KiB_run
 *fill*         0x0000010000240514        0xc 
 .text          0x0000010000240520     0x1284 build/tests/system_test/CMakeFiles/system_test.dir/data_process.c.o
                0x0000010000240520                print_matrix
                0x0000010000240660                u_print_matrix
                0x00000100002407a0                matrix_init_rand
                0x0000010000240810                matrix_init
                0x0000010000240890                f32comp_noteq
                0x00000100002408b0                matrix_comp
                0x00000100002409b0                matrix_multiply_c
                0x0000010000240a90                matrix_init_neon
                0x0000010000240b90                matrix_copy_neon
                0x0000010000240d70                matrix_multiply_neon
                0x0000010000241250                absolute_diff
                0x0000010000241550                comp_less_than
 *fill*         0x00000100002417a4       0x1c 
 .text          0x00000100002417c0      0xbb0 build/tests/system_test/CMakeFiles/system_test.dir/test_data_process.c.o
                0x00000100002417c0                TEST_data_process_test_SETUP
                0x00000100002417d0                TEST_data_process_test_check_true_result_matrix_comp_
                0x0000010000241850                TEST_data_process_test_check_false_result_matrix_comp_
                0x00000100002418d0                TEST_data_process_test_check_matrix_init_neon_
                0x0000010000241a30                TEST_data_process_test_comp_zero_matrix_multiply_neon_
                0x0000010000241b30                TEST_data_process_test_comp_pi_matrix_multiply_neon_
                0x0000010000241c40                TEST_data_process_test_comp_rand_matrix_multiply_neon_
                0x0000010000241d30                TEST_data_process_test_check_absolute_diff_result_
                0x0000010000241e10                data_process_tests_main
                0x0000010000241e40                cli_register_data_process_test
                0x0000010000241f20                TEST_data_process_test_check_false_comp_less_than_result_
                0x0000010000242000                TEST_data_process_test_check_true_comp_less_than_result_
                0x00000100002420f0                TEST_data_process_test_TEAR_DOWN
                0x0000010000242100                TEST_data_process_test_check_true_result_matrix_comp_run
                0x0000010000242140                TEST_data_process_test_check_false_result_matrix_comp_run
                0x0000010000242180                TEST_data_process_test_check_matrix_init_neon_run
                0x00000100002421c0                TEST_data_process_test_comp_zero_matrix_multiply_neon_run
                0x0000010000242200                TEST_data_process_test_comp_rand_matrix_multiply_neon_run
                0x0000010000242240                TEST_data_process_test_comp_pi_matrix_multiply_neon_run
                0x0000010000242280                TEST_data_process_test_check_absolute_diff_result_run
                0x00000100002422c0                TEST_data_process_test_check_true_comp_less_than_result_run
                0x0000010000242300                TEST_data_process_test_check_false_comp_less_than_result_run
 *fill*         0x0000010000242370       0x10 
 .text          0x0000010000242380      0x440 build/tests/dvfs/CMakeFiles/test_dvfs.dir/test_dvfs_main.c.o
                0x0000010000242380                test_main_dvfs
                0x00000100002427a0                cli_register_test_dvfs
 .text          0x00000100002427c0      0xd00 build/tests/pmic/CMakeFiles/test_pmic.dir/test_pmic_main.c.o
                0x00000100002427c0                test_main_pmic
                0x00000100002434a0                cli_register_test_pmic
 .text          0x00000100002434c0      0x540 build/tests/pvt_con/CMakeFiles/pvt_cli.dir/pvt_cli.c.o
                0x00000100002434c0                pvt_cli
                0x00000100002439e0                cli_register_pvt
 .text          0x0000010000243a00      0xb04 build/tests/pvt_con/CMakeFiles/pvt_cli.dir/pvt_cli_show.c.o
                0x0000010000243a00                pvt_cli_show_process
                0x0000010000243c00                pvt_cli_show_voltage
                0x0000010000243e90                pvt_cli_save_otp
                0x0000010000243f70                pvt_cli_get_current_temperature
                0x0000010000243fe0                pvt_cli_show_temperature
                0x00000100002441f0                pvt_cli_show_interrupt
                0x00000100002443f0                pvt_cli_show_dram
 *fill*         0x0000010000244504       0x1c 
 .text          0x0000010000244520      0x2a4 build/tests/pvt_con/CMakeFiles/pvt_cli.dir/pvt_cli_enable.c.o
                0x0000010000244520                pvt_cli_enable_dfs
                0x0000010000244550                pvt_cli_enable_trip
                0x0000010000244580                pvt_cli_enable_process
                0x0000010000244650                pvt_cli_enable_voltage
                0x0000010000244710                pvt_cli_enable_temperature
 *fill*         0x00000100002447c4       0x1c 
 .text          0x00000100002447e0      0x230 build/tests/pvt_con/CMakeFiles/pvt_cli.dir/pvt_cli_disable.c.o
                0x00000100002447e0                pvt_cli_disable_dfs
                0x0000010000244810                pvt_cli_disable_trip
                0x0000010000244840                pvt_cli_disable_process
                0x00000100002448d0                pvt_cli_disable_voltage
                0x0000010000244970                pvt_cli_disable_temperature
 *fill*         0x0000010000244a10       0x10 
 .text          0x0000010000244a20       0xd0 build/tests/pvt_con/CMakeFiles/pvt_cli.dir/pvt_cli_set.c.o
                0x0000010000244a20                pvt_cli_set_dfs_trip_threshold
                0x0000010000244ad0                pvt_cli_set_sampling_interval
 *fill*         0x0000010000244af0       0x10 
 .text          0x0000010000244b00      0x130 build/tests/sic/CMakeFiles/test_sic.dir/test_sic.c.o
                0x0000010000244b00                test_sic
                0x0000010000244c10                cli_register_sic
 *fill*         0x0000010000244c30       0x10 
 .text          0x0000010000244c40      0x1dc build/tests/chipid/CMakeFiles/test_chipid.dir/read_chipid.c.o
                0x0000010000244c40                test_main_get_chipid
                0x0000010000244e00                cli_register_chipid
 *fill*         0x0000010000244e1c        0x4 
 .text          0x0000010000244e20      0x1d0 build/tests/flash/CMakeFiles/test_flash.dir/test_flash.c.o
                0x0000010000244e20                test_flash
                0x0000010000244fd0                cli_register_flash
 *fill*         0x0000010000244ff0       0x10 
 .text          0x0000010000245000      0x120 build/tests/qspi/CMakeFiles/test_qspiapb.dir/test_qspiapb.c.o
                0x0000010000245000                test_main_qspiapb
                0x0000010000245100                cli_register_test_qspiapb
 .text          0x0000010000245120      0x8d4 build/tests/rbdma/CMakeFiles/test_rbdma.dir/rbdma_tsync_test.c.o
                0x0000010000245690                rbdma_test_dram_2_shm
                0x00000100002457c0                rbdma_test_shm_2_dram
                0x00000100002458e0                rbdma_test_dram_2_dram
 *fill*         0x00000100002459f4        0xc 
 .text          0x0000010000245a00      0x208 build/tests/rbdma/CMakeFiles/test_rbdma.dir/test_main_rbdma.c.o
                0x0000010000245a00                cli_register_rbdma
                0x0000010000245a20                hbm_rbdma_test
 .text          0x0000010000245c08        0x0 build/tests/rbdma/CMakeFiles/test_rbdma.dir/cache.S.o
 .text          0x0000010000245c08        0x0 libfreertos_kernel.a(queue.c.o)
 *fill*         0x0000010000245c08       0x18 
 .text          0x0000010000245c20      0xb90 libfreertos_kernel.a(tasks.c.o)
                0x00000100002462c0                vTaskYieldWithinAPI
                0x0000010000246320                vTaskEnterCritical
                0x0000010000246440                vTaskCoreAffinitySet
                0x00000100002465b0                vTaskCoreAffinityGet
                0x0000010000246640                vTaskEnterCriticalFromISR
                0x0000010000246670                vTaskExitCritical
                0x00000100002466b0                vTaskExitCriticalFromISR
 .text          0x00000100002467b0        0x0 libfreertos_kernel.a(timers.c.o)
 *fill*         0x00000100002467b0       0x10 
 .text          0x00000100002467c0       0xd0 libfreertos_kernel.a(heap_4.c.o)
                0x00000100002467c0                vPortGetHeapStats
 .text          0x0000010000246890        0x0 libfreertos_kernel.a(list.c.o)
 *fill*         0x0000010000246890       0x10 
 .text          0x00000100002468a0      0x414 portable/libfreertos_kernel_port.a(port.c.o)
                0x00000100002468a0                FreeRTOS_Tick_Handler
                0x0000010000246940                vPortValidateInterruptPriority
                0x0000010000246950                vApplicationIdleHook
                0x0000010000246960                vApplicationPassiveIdleHook
                0x0000010000246970                vApplicationTickHook
                0x0000010000246980                vApplicationGetTimerTaskMemory
                0x00000100002469b0                Get_64
                0x00000100002469c0                Set_64
                0x00000100002469d0                vPortRecursiveLock
 *fill*         0x0000010000246cb4       0x4c 
 .text          0x0000010000246d00      0x720 portable/libfreertos_kernel_port.a(portASM.S.o)
                0x0000010000246d00                FreeRTOS_SWI_Handler
                0x0000010000246f00                vPortRestoreTaskContext
                0x0000010000247000                FreeRTOS_IRQ_Handler
 .text          0x0000010000247420      0x140 build/drivers/common/libdriver.a(driver.c.o)
                0x0000010000247420                init_drivers_by_calling_init_entry
 .text          0x0000010000247560       0xd8 build/drivers/common/libassert.a(assert.c.o)
                0x0000010000247560                assert
                0x0000010000247590                assert_with_message
                0x00000100002475c0                conditional_assert
                0x00000100002475f0                conditional_assert_with_message
 *fill*         0x0000010000247638        0x8 
 .text          0x0000010000247640       0xec build/drivers/common/libinterrupt.a(interrupt.c.o)
                0x0000010000247640                set_dev_interrupt_priority
                0x0000010000247650                enable_dev_interrupt
                0x0000010000247660                enable_all_interrupts
                0x0000010000247670                disable_all_interrupts
                0x0000010000247680                connect_interrupt_with_handler
                0x00000100002476d0                connect_interrupt_with_core_handler
 *fill*         0x000001000024772c       0x14 
 .text          0x0000010000247740      0x810 build/drivers/intc/libintc.a(gicv3.c.o)
                0x0000010000247790                gic_get_active
                0x00000100002477a0                gic_eoi
                0x00000100002477b0                gic_raise_sgi
                0x00000100002477f0                gic_irq_set_priority
                0x00000100002478f0                gic_irq_route_dedicated_core
                0x0000010000247930                gic_irq_enable
                0x00000100002479a0                gic_irq_enable_dedicated_core
                0x0000010000247a00                gic_irq_disable
                0x0000010000247a80                gic_irq_is_enabled
                0x0000010000247b10                gic_irq_connect
                0x0000010000247b30                cpuif_init
                0x0000010000247c00                rdist_init
                0x0000010000247c70                dist_init
                0x0000010000247e90                gic_init
                0x0000010000247f30                gic_in_isr
 *fill*         0x0000010000247f50       0x10 
 .text          0x0000010000247f60      0x1e4 build/drivers/intc/libintc.a(bakery_lock.c.o)
                0x0000010000247f60                rebel_bakery_lock_acquire
                0x00000100002480c0                rebel_bakery_lock_release
                0x0000010000248110                rebel_bakery_lock_init
 *fill*         0x0000010000248144       0x1c 
 .text          0x0000010000248160      0x1c4 services/cli_service/libcli_service.a(cli_task.c.o)
                0x0000010000248160                cli_task_init
                0x00000100002481c0                cli_task
                0x0000010000248210                cli_enqueue
 *fill*         0x0000010000248324       0x1c 
 .text          0x0000010000248340     0x14bc services/cli_service/libcli_service.a(sys_command_line.c.o)
                0x0000010000248690                cli_cmd_cmp
                0x00000100002486a0                cli_init
                0x00000100002487a0                cli_find_function
                0x0000010000248bb0                cli_rx_handle
                0x0000010000249710                cli_run
                0x0000010000249720                cli_register
 *fill*         0x00000100002497fc        0x4 
 .text          0x0000010000249800      0x120 services/terminal_service/libterminal_service.a(console_uart.c.o)
                0x0000010000249890                console_uart_putc
                0x00000100002498b0                console_uart_init
                0x0000010000249910                console_uart_enable
 .text          0x0000010000249920      0x5e4 services/terminal_service/libterminal_service.a(console.c.o)
                0x0000010000249920                cli_register_console
                0x0000010000249c20                console_dev_register
                0x0000010000249ca0                console_putc
                0x0000010000249d30                console_flush
                0x0000010000249db0                console_assert_print
                0x0000010000249eb0                console_register_rx_handler
 *fill*         0x0000010000249f04       0x1c 
 .text          0x0000010000249f20      0x594 services/terminal_service/libterminal_service.a(terminal_task.c.o)
                0x0000010000249f20                terminal_rx_handler
                0x0000010000249f30                terminal_init
                0x0000010000249f90                terminal_task
                0x000001000024a050                terminal_tx_bytes
                0x000001000024a1c0                terminal_tx_byte
                0x000001000024a300                terminal_printf
                0x000001000024a420                terminal_print_buf
 *fill*         0x000001000024a4b4        0xc 
 .text          0x000001000024a4c0     0xedb8 services/replay_service/libreplay_service.a(replay.c.o)
                0x000001000024a720                rdsn_config_test
                0x000001000024a770                tsync_test
                0x000001000024a7c0                shm_tpg_test
                0x000001000024a840                dcl_stress_test
                0x000001000024aa00                vWorkerTask_ucie_control_stress
                0x000001000024b090                dram_all_array_test
                0x000001000024b280                cmgr_rbdma_interop_test
                0x000001000024b520                ucie_sanity_test
                0x000001000024ccf0                cli_register_common_test_start
                0x000001000024cd20                cli_register_stc_test
                0x000001000024cd50                cli_register_basic_test
                0x000001000024cd80                cli_register_display_basic_test
                0x000001000024cda0                cli_register_shm_all_clear
                0x000001000024cdc0                cli_register_ucie_stress_test
                0x000001000024cde0                cli_register_ucie_stc_test
                0x000001000024ce00                cli_register_basic_test_all_chiplet
                0x000001000024ce20                cli_register_common_test_all_chiplet
                0x000001000024ce50                cli_register_power_mode_ucie_test
                0x000001000024ce70                cli_register_replay_ver
                0x000001000024ce90                cli_register_hbm3_temp
                0x000001000024cec0                cli_register_hbm_perf_test
                0x000001000024cef0                cli_register_hbm_perf_test_all_chiplet
                0x000001000024cf10                cli_register_ucie_perf_test
                0x000001000024cf40                cli_register_af_common_test
                0x000001000024cf60                cli_register_af_common_test_all_chiplet
                0x000001000024cf90                cli_register_dram_harsh_stress
                0x000001000024d040                mailbox_event_notify
                0x000001000024d720                dram_harsh_stress_test
                0x000001000024eb30                cmgr_dnc_interop_test
                0x000001000024eea0                sp_tpg_test
                0x000001000024fc20                qr_task0
                0x0000010000250150                test_exception_mark
                0x0000010000250170                test_exception_clear
                0x0000010000250190                test_exception_occurred
                0x00000100002501b0                ici_callback_trigger
                0x0000010000250210                log_test_result
                0x0000010000250230                ici_trigger_dram_harsh_stress
                0x00000100002502d0                trace_cmd_identify
                0x0000010000250300                replay_notify_common
                0x0000010000250330                replay_dnc_notify
                0x0000010000250390                replay_rbdma_notify
                0x0000010000250420                replay_init
                0x0000010000250470                result_compare
                0x00000100002505c0                parse_mem_header_info
                0x00000100002506d0                basic_test_compare
                0x00000100002509c0                rbdma_common_test_func
                0x0000010000250c70                rbdma_dram_2_dram_all_port
                0x0000010000250dd0                rbdma_burst_length
                0x0000010000250f90                rbdma_large_memory_copy
                0x0000010000251140                rbdma_data_shift
                0x0000010000251680                rbdma_sct_gth
                0x0000010000251980                rbdma_sct_gth_w_regular
                0x0000010000251be0                rbdma_report_dump
                0x0000010000251d40                rbdma_shm_2_shm
                0x0000010000251fc0                rbdma_dram_2_shm_tsync
                0x0000010000252140                rbdma_shm_2_dram_tsync
                0x0000010000252310                rbdma_dram_2_shm
                0x0000010000252500                studma_4MB_far_sp
                0x0000010000252850                studma_4MB_near_sp
                0x0000010000252bb0                lpudma_4MB_far_shm
                0x0000010000252ed0                lpudma_4MB_near_shm
                0x0000010000253150                lpudma_4MB_far_sp
                0x00000100002534b0                lpudma_4MB_near_sp
                0x00000100002537f0                lpudma_dram_2_sp
                0x00000100002539b0                ldudma_4MB_far_shm
                0x0000010000253cc0                ldudma_4MB_near_shm
                0x0000010000253f30                ldudma_4MB_far_sp
                0x0000010000254290                ldudma_4MB_near_sp
                0x00000100002545d0                ldudma_dram_2_sp
                0x0000010000254790                studma_sp_2_dram
                0x0000010000254960                studma_4MB_near_shm
                0x0000010000254ba0                studma_4MB_far_shm
                0x0000010000254ea0                parse_command_info
                0x0000010000255190                common_test_start
                0x0000010000255ac0                run_common_test
                0x0000010000255ad0                load_stc_data
                0x0000010000255b00                stc_test
                0x0000010000256080                ucie_quad_replay_test
                0x00000100002562e0                print_tc_info
                0x0000010000256540                ici_callback_pick_rbdma_replay_test_data
                0x0000010000256560                ici_callback_pick_rbdma_stc_data
                0x0000010000256600                ici_trigger_ucie_quad_replay_test
                0x00000100002566f0                ici_trigger_ucie_basic_test
                0x00000100002567f0                ici_trigger_hbm_perf_test
                0x00000100002568e0                ucie_test_for_secondary_chiplet
                0x0000010000256f10                ucie_test
                0x00000100002577f0                ici_trigger_ucie_stc_stress_test
                0x0000010000257910                ici_trigger_stc_test
                0x00000100002579a0                print_hdma_desc
                0x0000010000257a80                logbuf_init
                0x0000010000257ac0                hw_init
                0x0000010000257b20                sw_init
                0x0000010000257b80                replay_task_init
                0x0000010000257cd0                chip_sorting_routine
                0x0000010000257d20                preworking_autofetch
                0x0000010000257ff0                af_common_test
                0x0000010000258330                ici_trigger_af_common_test
                0x00000100002583c0                ici_callback_task
                0x00000100002591a0                replay_routine
                0x00000100002591f0                process_mailbox_event
                0x0000010000259220                replay_task
                0x0000010000259260                preworking_power_vector
                0x0000010000259270                precompare_power_vector
 *fill*         0x0000010000259278        0x8 
 .text          0x0000010000259280     0x1ee4 services/replay_service/libreplay_service.a(sub_function.c.o)
                0x00000100002594e0                checksum_test
                0x0000010000259680                rbdma_test
                0x00000100002597a0                cli_register_ldudma_test
                0x00000100002597d0                cli_register_lpudma_test
                0x0000010000259800                cli_register_studma_test
                0x0000010000259830                cli_register_checksum_test
                0x0000010000259850                cli_register_rbdma_test
                0x0000010000259880                cli_register_rbdma_perf_test
                0x00000100002598b0                cli_register_rbdma_dram_2_shm_perf_test
                0x00000100002598e0                cli_register_test_oto
                0x0000010000259910                cli_register_shm_exception_test
                0x0000010000259930                cli_register_mglue_interrupt_test
                0x0000010000259950                cli_register_rbdma_error_interrupt_test
                0x0000010000259970                cli_register_dnc_report_dump_test
                0x0000010000259fb0                dummy_function
                0x0000010000259fc0                tlb_table_init
                0x000001000025a020                bw_measure_start
                0x000001000025a040                bw_measure_end_and_print
                0x000001000025a0e0                rbdma_perf_test
                0x000001000025a360                rbdma_dram_2_shm_perf_test
                0x000001000025a5b0                insert_or_find_tlb
                0x000001000025a7b0                ldudma_test
                0x000001000025a9a0                lpudma_test
                0x000001000025ab80                studma_test
                0x000001000025aec0                dnc_report_cdump
 *fill*         0x000001000025b164       0x1c 
 .text          0x000001000025b180      0x3b0 services/replay_service/libreplay_service.a(rush_cli.c.o)
                0x000001000025b250                cli_register_rush
                0x000001000025b370                rush_cli_cmd_proc
                0x000001000025b510                rush_cli_init
 *fill*         0x000001000025b530       0x10 
 .text          0x000001000025b540      0x2d4 services/replay_service/libreplay_service.a(rush_cli_msg_buf.c.o)
                0x000001000025b540                rush_cli_msg_buf_init
                0x000001000025b5b0                rush_cli_msg_buf_deinit
                0x000001000025b610                rush_cli_msg_buf_sprintf
                0x000001000025b7d0                rush_cli_msg_buf_flush
 *fill*         0x000001000025b814        0xc 
 .text          0x000001000025b820      0x978 services/replay_service/libreplay_service.a(tpg_cli.c.o)
                0x000001000025c080                tpg_cli
                0x000001000025c190                tpg_cli_init
 *fill*         0x000001000025c198        0x8 
 .text          0x000001000025c1a0     0x10d8 services/replay_service/libreplay_service.a(rbdma_cli.c.o)
                0x000001000025d160                rbdma_cli
                0x000001000025d270                rbdma_cli_init
 *fill*         0x000001000025d278        0x8 
 .text          0x000001000025d280      0x958 services/replay_service/libreplay_service.a(mem_cli.c.o)
                0x000001000025dac0                mem_cli
                0x000001000025dbd0                mem_cli_init
 *fill*         0x000001000025dbd8        0x8 
 .text          0x000001000025dbe0       0x14 services/replay_service/libreplay_service.a(chiplet.c.o)
                0x000001000025dbe0                get_chiplet_id
 *fill*         0x000001000025dbf4        0xc 
 .text          0x000001000025dc00      0x4e0 services/replay_service/libreplay_service.a(cmgr_if.c.o)
                0x000001000025dc00                cmgr_done_handler
                0x000001000025dcf0                cmgr_workload_converter_init
                0x000001000025dd10                cmgr_init
                0x000001000025dda0                cmgr_config
                0x000001000025df10                cmgr_display_status
                0x000001000025e070                cmgr_acc_count_clear
                0x000001000025e090                cmgr_autofetch_run
 .text          0x000001000025e0e0     0x5b94 services/replay_service/libreplay_service.a(dnc_if.c.o)
                0x000001000025f080                dnc_0_done_handler
                0x000001000025f0d0                dnc_1_done_handler
                0x000001000025f120                dnc_2_done_handler
                0x000001000025f170                dnc_3_done_handler
                0x000001000025f1c0                dnc_4_done_handler
                0x000001000025f210                dnc_5_done_handler
                0x000001000025f260                dnc_6_done_handler
                0x000001000025f2b0                dnc_7_done_handler
                0x000001000025f300                dnc_8_done_handler
                0x000001000025f350                dnc_9_done_handler
                0x000001000025f3a0                dnc_10_done_handler
                0x000001000025f3f0                dnc_11_done_handler
                0x000001000025f440                dnc_12_done_handler
                0x000001000025f490                dnc_13_done_handler
                0x000001000025f4e0                dnc_14_done_handler
                0x000001000025f530                dnc_15_done_handler
                0x000001000025f580                dnc_skew_set
                0x000001000025f7f0                cli_register_nc_tlb_show
                0x000001000025f810                cli_register_comp_unit_show
                0x000001000025f830                cli_register_sync_unit_show
                0x000001000025f850                cli_register_dnc_cdump_mode_set
                0x000001000025f870                cli_register_dnc_affinity_mask
                0x000001000025f890                cli_register_comp_tlb_interleaving
                0x000001000025f8b0                cli_register_sv_init
                0x000001000025f8d0                cli_register_dnc_skew_set
                0x000001000025f8f0                cli_register_ncore_skew_set
                0x000001000025f910                cli_register_sp_all_clear
                0x000001000025f930                cli_register_sync_passage_all_clear
                0x000001000025f950                cli_register_dnc_skew_show
                0x000001000025f970                cli_register_ncore_skew_show
                0x000001000025f990                cli_register_dnc_tlb_preset
                0x000001000025f9c0                dnc_0_exception_handler
                0x000001000025fa10                dnc_1_exception_handler
                0x000001000025fa70                dnc_2_exception_handler
                0x000001000025fad0                dnc_3_exception_handler
                0x000001000025fb30                dnc_4_exception_handler
                0x000001000025fb90                dnc_5_exception_handler
                0x000001000025fbf0                dnc_6_exception_handler
                0x000001000025fc50                dnc_7_exception_handler
                0x000001000025fcb0                dnc_8_exception_handler
                0x000001000025fd10                dnc_9_exception_handler
                0x000001000025fd70                dnc_10_exception_handler
                0x000001000025fdd0                dnc_11_exception_handler
                0x000001000025fe30                dnc_12_exception_handler
                0x000001000025fe90                dnc_13_exception_handler
                0x000001000025fef0                dnc_14_exception_handler
                0x000001000025ff50                dnc_15_exception_handler
                0x00000100002604c0                dnc_adjust_base
                0x0000010000260580                dnc_clear_profile_log
                0x00000100002605f0                dnc_run_sp_test
                0x00000100002607f0                dnc_sp_mode_test
                0x0000010000260a00                dnc_sp_test_mode_trigger
                0x0000010000260ab0                dnc_sp_test_mode_check
                0x0000010000260bd0                dnc_profile_ptr
                0x0000010000260bf0                dnc_profile_get_count
                0x0000010000260c10                dnc_skew_delay
                0x0000010000260c40                ncore_skew_delay
                0x0000010000260c60                dnc_sp_test_status
                0x0000010000260e30                dnc_compute
                0x0000010000261030                dnc_checksum
                0x0000010000261110                dnc_generate_comp_tlb
                0x0000010000261590                comp_tlb_interleaving
                0x00000100002615d0                dnc_init
                0x0000010000261ee0                dnc_done_acc_count_clear
                0x0000010000261f10                dnc_done_acc_count_all_clear
                0x0000010000261f40                dnc_done_accumulate_count
                0x0000010000262190                dnc_sync_passage_reg_clear
                0x00000100002621b0                dnc_check_slot_mask
                0x00000100002621f0                dnc_detect_slot
                0x00000100002623f0                dnc_display_profile
                0x0000010000262490                pwr_config
                0x0000010000262500                posted_write_test
                0x0000010000262730                dnc_tlb_update
                0x0000010000262810                generate_udma_task
                0x0000010000262960                timeout_config
                0x00000100002629a0                dnc_get_status_registers
                0x0000010000262b60                dnc_comp_rpt_mode_config
                0x0000010000262bc0                dnc_ldudma_rpt_mode_config
                0x0000010000262c20                dnc_rpt_mode_config
                0x0000010000262cc0                dnc_cdump_mode
                0x0000010000262ef0                generate_udma_task_opt
                0x00000100002630c0                dnc_comp_done_count
                0x00000100002630e0                dnc_ldudma_done_count
                0x0000010000263100                dnc_get_q_status
                0x0000010000263140                apply_multicyle
                0x0000010000263180                read_secded_status
                0x0000010000263200                measure_backpressue
                0x0000010000263220                test_cdump_mode
                0x00000100002632a0                dnc_autofetch_cmgr
                0x0000010000263370                dnc_selffetch_config
                0x0000010000263600                dnc_autofetch_config
                0x00000100002636d0                dnc_autofetch_invoke
                0x0000010000263780                dnc_selffetch_invoke
                0x0000010000263870                preload_comp_task
                0x00000100002639e0                dnc_autofetch_addr_reset
                0x0000010000263a20                dnc_wr_arbitration_config
                0x0000010000263a60                dnc_tlb_preload
                0x0000010000263c40                dnc_update_credit
 *fill*         0x0000010000263c74        0xc 
 .text          0x0000010000263c80       0xb8 services/replay_service/libreplay_service.a(dnc_if_evt1.c.o)
                0x0000010000263c80                evt_dnc_init
                0x0000010000263ca0                evt_dnc_get_irq_status
                0x0000010000263d20                evt_dnc_register_ops
 *fill*         0x0000010000263d38        0x8 
 .text          0x0000010000263d40      0xc14 services/replay_service/libreplay_service.a(rdsn_if.c.o)
                0x0000010000264020                rdsn_init
                0x0000010000264380                rdsn_custom_config
                0x0000010000264580                rdsn_interrupt_status
                0x0000010000264650                mglue_interrupt_register
                0x0000010000264680                rdsn_test_mode_trigger
                0x0000010000264750                rdsn_test_mode_check
 *fill*         0x0000010000264954        0xc 
 .text          0x0000010000264960      0xf70 services/replay_service/libreplay_service.a(ptw.c.o)
                0x0000010000264960                ptw_ipa_to_pa_1
                0x0000010000264ad0                ptw_ipa_to_pa_2
                0x0000010000264c30                ptw_ipa_to_pa_4
                0x0000010000264ee0                ptw_register_s2t_handler
                0x0000010000264fe0                ptw_ipa_to_pa
                0x0000010000265290                ptw_get_pte
                0x00000100002654e0                ptw_va_to_ipa
                0x0000010000265550                ptw_virt_to_phys
                0x0000010000265590                ptw_vpn_to_ppn
                0x00000100002655f0                ptw_flush_page_tables
                0x0000010000265770                ptw_init_smmu_s2
 *fill*         0x00000100002658d0       0x10 
 .text          0x00000100002658e0     0x18b4 services/replay_service/libreplay_service.a(rbdma_if.c.o)
                0x00000100002658e0                rbdma_done_handler
                0x0000010000265990                rbdma_error_handler
                0x0000010000265dd0                rbdma_enable_profile_mode
                0x0000010000265df0                rbdma_init
                0x0000010000265f60                hbm_activity_monitor
                0x0000010000265f70                rbdma_done_acc_count
                0x0000010000266000                rbdma_done_clear
                0x0000010000266040                generate_rbdma_task
                0x0000010000266210                generate_rbdma_perf_task
                0x00000100002662c0                generate_rbdma_task_tsync
                0x00000100002663a0                rbdma_set_max_perf_mode
                0x00000100002663d0                rbdma_set_global_config_cdma_opmode0
                0x00000100002663e0                rbdma_get_global_config_cdma_opmode0
                0x00000100002663f0                rbdma_tsync_by_cp
                0x0000010000266410                generate_rbdma_task_opt
                0x00000100002665e0                generate_rbdma_chunk_opt
                0x0000010000266a50                generate_rbdma_chunk_opt_regular
                0x0000010000266af0                rbdma_donerpt_config
                0x0000010000266b70                rbdma_cmgr_config
                0x0000010000266bb0                generate_error_interrupt
                0x0000010000266bd0                rbdma_logmgr_dump_ptr
                0x0000010000266be0                rbdma_logmgr_reset
                0x0000010000266c70                rbdma_logmgr_get_dump_count
                0x0000010000266c90                rbdma_logmgr_get_ovfl_count
                0x0000010000266cb0                rbdma_logmgr_dump_start
                0x0000010000266e40                rbdma_logmgr_dump_detail
                0x0000010000266e50                rbdma_logmgr_exec_time
                0x0000010000266ff0                rbdma_done_count
                0x0000010000267000                rbdma_done_count_cl
                0x0000010000267020                rbdma_global_normal_queue_status_cl
                0x0000010000267040                rbdma_global_idle_status_cl
                0x0000010000267060                rbdma_autofetch_run_proc0
                0x00000100002670b0                rbdma_autofetch_run_proc1
                0x0000010000267100                get_rbdma_proc0_status
                0x0000010000267120                get_rbdma_clog_num_nrm_tdone_tstc0
                0x0000010000267130                rbmda_get_global_status_cdma_int
                0x0000010000267140                rbdma_update_credit
 *fill*         0x0000010000267194        0xc 
 .text          0x00000100002671a0      0xcf4 services/replay_service/libreplay_service.a(shm_if.c.o)
                0x0000010000267680                shm_randomize_cdp_register
                0x0000010000267700                shm_clear_cdp_register
                0x0000010000267770                shm_read_cdp_register
                0x00000100002677f0                shm_check_cdp_register_clear
                0x00000100002678b0                wait_for_shm_tpg_done
                0x0000010000267970                shm_test_mode_trigger
                0x00000100002679d0                shm_zero_init
                0x0000010000267a80                shm_init
                0x0000010000267c50                shm_exception_register
                0x0000010000267d60                shm_read
                0x0000010000267de0                shm_write
                0x0000010000267e60                shm_override_reset_value
 *fill*         0x0000010000267e94        0xc 
 .text          0x0000010000267ea0      0x410 services/replay_service/libreplay_service.a(tbu_wrapper.c.o)
                0x0000010000267ea0                tbu_wrapper_irq_hdl
                0x0000010000267ed0                tbu_wrapper_irq_deinit
                0x0000010000267f60                tbu_wrapper_irq_init
                0x0000010000268140                tbu_wrapper_disable
                0x00000100002681c0                tbu_wrapper_enable
                0x0000010000268250                tbu_wrapper_deinit
                0x0000010000268280                tbu_wrapper_init
 *fill*         0x00000100002682b0       0x10 
 .text          0x00000100002682c0      0x238 services/replay_service/libreplay_service.a(debug.c.o)
                0x00000100002682c0                print_regs
 *fill*         0x00000100002684f8        0x8 
 .text          0x0000010000268500     0x1250 services/replay_service/libreplay_service.a(ici.c.o)
                0x0000010000268500                print_ici_chip_sorting_entry
                0x0000010000268600                ici_init
                0x0000010000268760                ici_send_event
                0x0000010000268900                ici_urg_send_event
                0x0000010000268a70                ici_sync_send_event
                0x0000010000268d50                ici_callback_chip_sorting
                0x0000010000269190                ici_message_clear
                0x00000100002691d0                ici_send_event_chip_sorting
                0x0000010000269270                ici_sync_receive_polling
                0x00000100002693a0                ici_message_receive_polling
                0x00000100002694d0                write_entry
                0x0000010000269500                read_entry
                0x0000010000269520                ici_send_sync_event
                0x00000100002695b0                ici_wait_sync_event
                0x00000100002696b0                ici_sync_message_clear
                0x0000010000269730                read_inst_entry
 *fill*         0x0000010000269750       0x10 
 .text          0x0000010000269760      0x65c services/replay_service/libreplay_service.a(page_table_gen.c.o)
                0x0000010000269760                page_table_get
                0x0000010000269770                page_table_init
                0x0000010000269b70                page_table_init_mp
 *fill*         0x0000010000269dbc        0x4 
 .text          0x0000010000269dc0      0x5e0 services/replay_service/libreplay_service.a(profile.c.o)
                0x0000010000269dc0                rl_profile_show_index
                0x0000010000269e60                cli_register_profile_show
                0x0000010000269e80                cli_register_profile_show_index
                0x000001000026a1c0                rl_profile_init
                0x000001000026a1f0                rl_profile_sg_cid
                0x000001000026a210                rl_profile_log_start
                0x000001000026a230                rl_profile_log
                0x000001000026a2d0                rl_profile_hwcounter
 .text          0x000001000026a3a0      0x768 services/replay_service/libreplay_service.a(rl_queue.c.o)
                0x000001000026a450                rl_queue_initialize
                0x000001000026a4b0                rl_cs_queue_initialize
                0x000001000026a4d0                rl_queue_deinit
                0x000001000026a530                rl_enqueue
                0x000001000026a610                rl_cs_enqueue
                0x000001000026a660                rl_enqueue_lock
                0x000001000026a790                rl_peek
                0x000001000026a820                rl_cs_peek
                0x000001000026a870                rl_dequeue
                0x000001000026a920                rl_cs_dequeue
                0x000001000026a970                rl_cs_queue_is_full
                0x000001000026a990                rl_get_queue
                0x000001000026aa40                rl_queue_print_info
 *fill*         0x000001000026ab08       0x18 
 .text          0x000001000026ab20      0xa0c services/replay_service/libreplay_service.a(abort.c.o)
                0x000001000026adc0                abort_other_cores
                0x000001000026ae30                get_current_el
                0x000001000026ae40                enable_abort_interrupt
                0x000001000026ae90                rl_hang
                0x000001000026af80                rl_abort_guilty_ctx
                0x000001000026b080                rl_abort_event
                0x000001000026b1c0                rl_abort_cur_ctx
                0x000001000026b2a0                rl_abort_exception
                0x000001000026b520                is_abort_event
 .text          0x000001000026b52c        0x0 services/replay_service/libreplay_service.a(context.S.o)
 *fill*         0x000001000026b52c        0x4 
 .text          0x000001000026b530        0x8 services/replay_service/libreplay_service.a(cpu_data.c.o)
                0x000001000026b530                get_cpu_data
 *fill*         0x000001000026b538        0x8 
 .text          0x000001000026b540       0x54 services/replay_service/libreplay_service.a(spinlock.c.o)
                0x000001000026b540                spin_lock_irqsave
                0x000001000026b570                spin_unlock_irqrestore
 *fill*         0x000001000026b594        0xc 
 .text          0x000001000026b5a0      0x220 services/replay_service/libreplay_service.a(core.c.o)
                0x000001000026b5a0                rl_cpu_set_core_ready_status
                0x000001000026b5f0                rl_cpu_get_core_ready_status
                0x000001000026b600                rl_cpu_reset_ready_status
                0x000001000026b610                rl_cpu_wait_core_ready
                0x000001000026b670                rl_cpu_is_all_core_ready
                0x000001000026b690                rl_cpu_reset_timer
                0x000001000026b6b0                rl_cpu_enable_cycle
                0x000001000026b700                rl_cpu_disable_cycle
                0x000001000026b730                cpu_flush_dcache_range
                0x000001000026b740                cpu_clean_dcache_range
                0x000001000026b750                cpu_inv_dcache_range
                0x000001000026b760                cpu_enable_clksync_interrupt
                0x000001000026b7b0                cpu_raise_clksync_interrupt
 .text          0x000001000026b7c0      0x158 services/replay_service/libreplay_service.a(log.c.o)
                0x000001000026b7c0                rl_log_msg
                0x000001000026b910                rl_log_get_level
 *fill*         0x000001000026b918        0x8 
 .text          0x000001000026b920      0x148 services/replay_service/libreplay_service.a(rand.c.o)
                0x000001000026b920                rand_fill
 *fill*         0x000001000026ba68       0x18 
 .text          0x000001000026ba80      0x28c services/replay_service/libreplay_service.a(backtrace.c.o)
                0x000001000026ba80                backtrace
                0x000001000026bcc0                get_el_str
 *fill*         0x000001000026bd0c       0x14 
 .text          0x000001000026bd20      0xe98 services/replay_service/libreplay_service.a(argparse.c.o)
                0x000001000026bd20                argparse_error
                0x000001000026c200                argparse_init
                0x000001000026c230                argparse_describe
                0x000001000026c240                argparse_usage
                0x000001000026c700                argparse_parse
                0x000001000026cb80                argparse_help_cb_no_exit
                0x000001000026cba0                argparse_help_cb
 *fill*         0x000001000026cbb8        0x8 
 .text          0x000001000026cbc0      0x3e8 services/replay_service/libreplay_service.a(rush_cli_util.c.o)
                0x000001000026cbc0                rush_cli_parse_size
                0x000001000026ccf0                rush_cli_split_to_fields
                0x000001000026ce90                rush_cli_chk_memory_type
                0x000001000026cee0                rush_cli_validate_addr_size
 .text          0x000001000026cfa8        0x0 services/replay_service/libreplay_service.a(spinlock.S.o)
 *fill*         0x000001000026cfa8       0x18 
 .text          0x000001000026cfc0      0x1a4 services/task_adder_service/libtask_adder_service.a(task_adder.c.o)
                0x000001000026cfc0                task_adder_init
                0x000001000026d020                task_adder_task
                0x000001000026d0b0                task_adder_enqueue
 .text          0x000001000026d164        0x0 portable/libfreertos_arch.a(startup.S.o)
 .text          0x000001000026d164        0x0 portable/libfreertos_arch.a(vector.S.o)
 *fill*         0x000001000026d164       0x1c 
 .text          0x000001000026d180       0xb0 portable/libfreertos_arch.a(prep_c.c.o)
                0x000001000026d180                primary_prep_c
 *fill*         0x000001000026d230       0x10 
 .text          0x000001000026d240      0x124 libfreertos_kernel_config.a(FreeRTOS_tick_config.c.o)
                0x000001000026d240                vSetupTickInterrupt
                0x000001000026d2d0                vClearTickInterrupt
                0x000001000026d2e0                vApplicationIRQHandler
 *fill*         0x000001000026d364       0x1c 
 .text          0x000001000026d380      0x140 portable/libsmp.a(smp.c.o)
                0x000001000026d380                ipi_handler
                0x000001000026d3a0                secondary_prep_c
                0x000001000026d3f0                init_smp
 .text          0x000001000026d4c0       0x40 portable/libsmp.a(smp.S.o)
                0x000001000026d4c0                GateSmp_tryLock
                0x000001000026d4e8                GateSmp_unlock
 .text          0x000001000026d500       0x1c portable/libsmccc.a(smccc.S.o)
                0x000001000026d500                arm_smccc_smc
 *fill*         0x000001000026d51c        0x4 
 .text          0x000001000026d520      0xfe0 portable/libmmu.a(mmu.c.o)
                0x000001000026d7e0                new_table
                0x000001000026dd50                setup_page_tables
                0x000001000026e1d0                va_to_pa
                0x000001000026e2e0                is_pa_continuous
                0x000001000026e350                mmu_init
 .text          0x000001000026e500      0x29c build/interrupt_test_helper/libinterrupt_test_helper.a(interrupt_test_helper.c.o)
                0x000001000026e570                interrupt_test_init
                0x000001000026e630                interrupt_set_pending
                0x000001000026e680                interrupt_clear_pending
                0x000001000026e6d0                interrupt_test_end
 *fill*         0x000001000026e79c        0x4 
 .text          0x000001000026e7a0     0x3460 build/unity/libunity.a(unity.c.o)
                0x000001000026e950                UnityPrintNumberUnsigned
                0x000001000026e9f0                UnityPrintNumber
                0x000001000026ea40                UnityPrintNumberHex
                0x000001000026ec10                UnityPrint
                0x000001000026f0f0                UnityPrintLen
                0x000001000026f110                UnityPrintNumberByStyle
                0x000001000026f250                UnityPrintMask
                0x000001000026f310                UnityPrintFloat
                0x000001000026f9b0                UnityConcludeTest
                0x000001000026fa70                UnityAssertBits
                0x000001000026fb30                UnityAssertEqualNumber
                0x000001000026fbf0                UnityAssertGreaterOrLessOrEqualNumber
                0x000001000026ff00                UnityAssertEqualIntArray
                0x00000100002701c0                UnityAssertWithinFloatArray
                0x0000010000270410                UnityAssertFloatsWithin
                0x00000100002704d0                UnityAssertFloatsNotWithin
                0x0000010000270590                UnityAssertGreaterOrLessFloat
                0x00000100002708d0                UnityAssertFloatSpecial
                0x0000010000270af0                UnityAssertNumbersWithin
                0x0000010000270c60                UnityAssertNumbersArrayWithin
                0x0000010000271040                UnityAssertEqualString
                0x0000010000271150                UnityAssertEqualStringLen
                0x0000010000271310                UnityAssertEqualStringArray
                0x0000010000271560                UnityAssertEqualMemory
                0x00000100002717c0                UnityNumToPtr
                0x0000010000271850                UnityFloatToPtr
                0x0000010000271860                UnityFail
                0x00000100002719a0                UnityIgnore
                0x0000010000271a40                UnityMessage
                0x0000010000271ab0                UnityDefaultTestRun
                0x0000010000271b00                UnitySetTestFile
                0x0000010000271b10                UnityBegin
                0x0000010000271b30                UnityEnd
 .text          0x0000010000271c00      0x9cc build/unity/libunity.a(unity_fixture.c.o)
                0x0000010000271c00                set_up
                0x0000010000271c10                tear_down
                0x0000010000271c20                UnityIgnoreTest
                0x0000010000271d20                UnityPointer_Init
                0x0000010000271d30                UnityPointer_Set
                0x0000010000271d90                UnityPointer_UndoAllSets
                0x0000010000271df0                UnityGetCommandLineOptions
                0x0000010000272270                UnityMain
                0x0000010000272390                UnityConcludeFixtureTest
                0x0000010000272490                UnityTestRunner
 *fill*         0x00000100002725cc        0x4 
 .text          0x00000100002725d0       0x98 build/drivers/psci/libpsci.a(psci.c.o)
                0x00000100002725d0                psci_cpu_on
                0x0000010000272620                psci_cpu_off
 .text          0x0000010000272668        0x0 libfreertos_kernel.a(event_groups.c.o)
 .text          0x0000010000272668        0x0 libfreertos_kernel.a(stream_buffer.c.o)
 *fill*         0x0000010000272668       0x18 
 .text          0x0000010000272680     0x29f8 build/common/arch/libcommon.a(printf.c.o)
                0x0000010000274d90                printf_
                0x0000010000274e20                sprintf_
                0x0000010000274eb0                snprintf_
                0x0000010000274f40                vprintf_
                0x0000010000274f90                vsnprintf_
                0x0000010000274fe0                fctprintf
 *fill*         0x0000010000275078        0x8 
 .text          0x0000010000275080      0x160 build/common/arch/libcommon.a(system_api.c.o)
                0x0000010000275080                ndelay
                0x00000100002750e0                udelay
                0x0000010000275140                mdelay
                0x00000100002751a0                delay
 .text          0x00000100002751e0       0xb0 build/drivers/timer/generic_timer/libgeneric_timer.a(generic_timer.c.o)
                0x00000100002751e0                arch_timer_update_compare
                0x0000010000275240                generic_timer_init
 .text          0x0000010000275290       0x30 /tools/arm-gnu-toolchain-13.2.Rel1-x86_64-aarch64-none-elf/bin/../lib/gcc/aarch64-none-elf/13.2.1/libgcc.a(ldset_8_4.o)
                0x0000010000275290                __aarch64_ldset8_acq_rel
 .text          0x00000100002752c0        0x0 /tools/arm-gnu-toolchain-13.2.Rel1-x86_64-aarch64-none-elf/bin/../lib/gcc/aarch64-none-elf/13.2.1/libgcc.a(lse-init.o)
 .text          0x00000100002752c0        0x0 /tools/arm-gnu-toolchain-13.2.Rel1-x86_64-aarch64-none-elf/bin/../lib/gcc/aarch64-none-elf/13.2.1/../../../../aarch64-none-elf/lib/libg.a(libc_a-strtod.o)
 .text          0x00000100002752c0        0x0 /tools/arm-gnu-toolchain-13.2.Rel1-x86_64-aarch64-none-elf/bin/../lib/gcc/aarch64-none-elf/13.2.1/../../../../aarch64-none-elf/lib/libg.a(libc_a-strtol.o)
 .text          0x00000100002752c0        0x0 /tools/arm-gnu-toolchain-13.2.Rel1-x86_64-aarch64-none-elf/bin/../lib/gcc/aarch64-none-elf/13.2.1/../../../../aarch64-none-elf/lib/libg.a(libc_a-gdtoa-gethex.o)
 .text          0x00000100002752c0        0x0 /tools/arm-gnu-toolchain-13.2.Rel1-x86_64-aarch64-none-elf/bin/../lib/gcc/aarch64-none-elf/13.2.1/../../../../aarch64-none-elf/lib/libg.a(libc_a-strtoul.o)
 .text          0x00000100002752c0        0x0 /tools/arm-gnu-toolchain-13.2.Rel1-x86_64-aarch64-none-elf/bin/../lib/gcc/aarch64-none-elf/13.2.1/../../../../aarch64-none-elf/lib/libg.a(libc_a-gdtoa-hexnan.o)
 .text          0x00000100002752c0        0x0 /tools/arm-gnu-toolchain-13.2.Rel1-x86_64-aarch64-none-elf/bin/../lib/gcc/aarch64-none-elf/13.2.1/../../../../aarch64-none-elf/lib/libg.a(libc_a-strtoll.o)
 .text          0x00000100002752c0        0x0 /tools/arm-gnu-toolchain-13.2.Rel1-x86_64-aarch64-none-elf/bin/../lib/gcc/aarch64-none-elf/13.2.1/../../../../aarch64-none-elf/lib/libg.a(libc_a-strncpy.o)
 .text          0x00000100002752c0        0x0 /tools/arm-gnu-toolchain-13.2.Rel1-x86_64-aarch64-none-elf/bin/../lib/gcc/aarch64-none-elf/13.2.1/../../../../aarch64-none-elf/lib/libg.a(libc_a-strtoull.o)
 .text          0x00000100002752c0       0xcc /tools/arm-gnu-toolchain-13.2.Rel1-x86_64-aarch64-none-elf/bin/../lib/gcc/aarch64-none-elf/13.2.1/../../../../aarch64-none-elf/lib/libg.a(libc_a-strchr.o)
                0x00000100002752c0                strchr
 *fill*         0x000001000027538c       0x34 
 .text          0x00000100002753c0      0x134 /tools/arm-gnu-toolchain-13.2.Rel1-x86_64-aarch64-none-elf/bin/../lib/gcc/aarch64-none-elf/13.2.1/../../../../aarch64-none-elf/lib/libg.a(libc_a-strcmp.o)
                0x00000100002753c0                strcmp
 .text          0x00000100002754f4        0x0 /tools/arm-gnu-toolchain-13.2.Rel1-x86_64-aarch64-none-elf/bin/../lib/gcc/aarch64-none-elf/13.2.1/../../../../aarch64-none-elf/lib/libg.a(libc_a-sprintf.o)
 *fill*         0x00000100002754f4        0xc 
 .text          0x0000010000275500      0x130 /tools/arm-gnu-toolchain-13.2.Rel1-x86_64-aarch64-none-elf/bin/../lib/gcc/aarch64-none-elf/13.2.1/../../../../aarch64-none-elf/lib/libg.a(libc_a-strlen.o)
                0x0000010000275500                strlen
 .text          0x0000010000275630        0x0 /tools/arm-gnu-toolchain-13.2.Rel1-x86_64-aarch64-none-elf/bin/../lib/gcc/aarch64-none-elf/13.2.1/../../../../aarch64-none-elf/lib/libg.a(libc_a-strspn.o)
 .text          0x0000010000275630        0x0 /tools/arm-gnu-toolchain-13.2.Rel1-x86_64-aarch64-none-elf/bin/../lib/gcc/aarch64-none-elf/13.2.1/../../../../aarch64-none-elf/lib/libg.a(libc_a-strtok.o)
 .text          0x0000010000275630        0x0 /tools/arm-gnu-toolchain-13.2.Rel1-x86_64-aarch64-none-elf/bin/../lib/gcc/aarch64-none-elf/13.2.1/../../../../aarch64-none-elf/lib/libg.a(libc_a-strtok_r.o)
 .text          0x0000010000275630        0x0 /tools/arm-gnu-toolchain-13.2.Rel1-x86_64-aarch64-none-elf/bin/../lib/gcc/aarch64-none-elf/13.2.1/../../../../aarch64-none-elf/lib/libg.a(libc_a-strstr.o)
 .text          0x0000010000275630        0x0 /tools/arm-gnu-toolchain-13.2.Rel1-x86_64-aarch64-none-elf/bin/../lib/gcc/aarch64-none-elf/13.2.1/../../../../aarch64-none-elf/lib/libg.a(libc_a-getopt.o)
 .text          0x0000010000275630        0x0 /tools/arm-gnu-toolchain-13.2.Rel1-x86_64-aarch64-none-elf/bin/../lib/gcc/aarch64-none-elf/13.2.1/../../../../aarch64-none-elf/lib/libg.a(libc_a-errno.o)
 .text          0x0000010000275630        0x0 /tools/arm-gnu-toolchain-13.2.Rel1-x86_64-aarch64-none-elf/bin/../lib/gcc/aarch64-none-elf/13.2.1/../../../../aarch64-none-elf/lib/libg.a(libc_a-svfprintf.o)
 *fill*         0x0000010000275630       0x10 
 .text          0x0000010000275640      0x1b4 /tools/arm-gnu-toolchain-13.2.Rel1-x86_64-aarch64-none-elf/bin/../lib/gcc/aarch64-none-elf/13.2.1/../../../../aarch64-none-elf/lib/libg.a(libc_a-strncmp.o)
                0x0000010000275640                strncmp
 *fill*         0x00000100002757f4        0xc 
 .text          0x0000010000275800       0xb8 /tools/arm-gnu-toolchain-13.2.Rel1-x86_64-aarch64-none-elf/bin/../lib/gcc/aarch64-none-elf/13.2.1/../../../../aarch64-none-elf/lib/libg.a(libc_a-strnlen.o)
                0x0000010000275800                strnlen
 .text          0x00000100002758b8        0x0 /tools/arm-gnu-toolchain-13.2.Rel1-x86_64-aarch64-none-elf/bin/../lib/gcc/aarch64-none-elf/13.2.1/../../../../aarch64-none-elf/lib/libg.a(libc_a-vsnprintf.o)
 .text          0x00000100002758b8        0x0 /tools/arm-gnu-toolchain-13.2.Rel1-x86_64-aarch64-none-elf/bin/../lib/gcc/aarch64-none-elf/13.2.1/../../../../aarch64-none-elf/lib/libg.a(libc_a-malloc.o)
 .text          0x00000100002758b8        0x0 /tools/arm-gnu-toolchain-13.2.Rel1-x86_64-aarch64-none-elf/bin/../lib/gcc/aarch64-none-elf/13.2.1/../../../../aarch64-none-elf/lib/libg.a(libc_a-mallocr.o)
 .text          0x00000100002758b8        0x0 /tools/arm-gnu-toolchain-13.2.Rel1-x86_64-aarch64-none-elf/bin/../lib/gcc/aarch64-none-elf/13.2.1/../../../../aarch64-none-elf/lib/libg.a(libc_a-assert.o)
 .text          0x00000100002758b8        0x0 /tools/arm-gnu-toolchain-13.2.Rel1-x86_64-aarch64-none-elf/bin/../lib/gcc/aarch64-none-elf/13.2.1/../../../../aarch64-none-elf/lib/libg.a(libc_a-strcasecmp.o)
 .text          0x00000100002758b8        0x0 /tools/arm-gnu-toolchain-13.2.Rel1-x86_64-aarch64-none-elf/bin/../lib/gcc/aarch64-none-elf/13.2.1/../../../../aarch64-none-elf/lib/libg.a(libc_a-wcrtomb.o)
 .text          0x00000100002758b8        0x0 /tools/arm-gnu-toolchain-13.2.Rel1-x86_64-aarch64-none-elf/bin/../lib/gcc/aarch64-none-elf/13.2.1/../../../../aarch64-none-elf/lib/libg.a(libc_a-locale.o)
 .text          0x00000100002758b8        0x0 /tools/arm-gnu-toolchain-13.2.Rel1-x86_64-aarch64-none-elf/bin/../lib/gcc/aarch64-none-elf/13.2.1/../../../../aarch64-none-elf/lib/libg.a(libc_a-localeconv.o)
 *fill*         0x00000100002758b8        0x8 
 .text          0x00000100002758c0       0xdc /tools/arm-gnu-toolchain-13.2.Rel1-x86_64-aarch64-none-elf/bin/../lib/gcc/aarch64-none-elf/13.2.1/../../../../aarch64-none-elf/lib/libg.a(libc_a-memchr.o)
                0x00000100002758c0                memchr
 *fill*         0x000001000027599c       0x24 
 .text          0x00000100002759c0      0x1c8 /tools/arm-gnu-toolchain-13.2.Rel1-x86_64-aarch64-none-elf/bin/../lib/gcc/aarch64-none-elf/13.2.1/../../../../aarch64-none-elf/lib/libg.a(libc_a-memcmp.o)
                0x00000100002759c0                memcmp
 .text          0x0000010000275b88        0x0 /tools/arm-gnu-toolchain-13.2.Rel1-x86_64-aarch64-none-elf/bin/../lib/gcc/aarch64-none-elf/13.2.1/../../../../aarch64-none-elf/lib/libg.a(libc_a-printf.o)
 *fill*         0x0000010000275b88       0x38 
 .text          0x0000010000275bc0      0x22c /tools/arm-gnu-toolchain-13.2.Rel1-x86_64-aarch64-none-elf/bin/../lib/gcc/aarch64-none-elf/13.2.1/../../../../aarch64-none-elf/lib/libg.a(libc_a-memcpy.o)
                0x0000010000275bc0                memmove
                0x0000010000275bc0                memcpy
 .text          0x0000010000275dec        0x0 /tools/arm-gnu-toolchain-13.2.Rel1-x86_64-aarch64-none-elf/bin/../lib/gcc/aarch64-none-elf/13.2.1/../../../../aarch64-none-elf/lib/libg.a(libc_a-putchar.o)
 .text          0x0000010000275dec        0x0 /tools/arm-gnu-toolchain-13.2.Rel1-x86_64-aarch64-none-elf/bin/../lib/gcc/aarch64-none-elf/13.2.1/../../../../aarch64-none-elf/lib/libg.a(libc_a-puts.o)
 .text          0x0000010000275dec        0x0 /tools/arm-gnu-toolchain-13.2.Rel1-x86_64-aarch64-none-elf/bin/../lib/gcc/aarch64-none-elf/13.2.1/../../../../aarch64-none-elf/lib/libg.a(libc_a-mlock.o)
 .text          0x0000010000275dec        0x0 /tools/arm-gnu-toolchain-13.2.Rel1-x86_64-aarch64-none-elf/bin/../lib/gcc/aarch64-none-elf/13.2.1/../../../../aarch64-none-elf/lib/libg.a(libc_a-mprec.o)
 .text          0x0000010000275dec        0x0 /tools/arm-gnu-toolchain-13.2.Rel1-x86_64-aarch64-none-elf/bin/../lib/gcc/aarch64-none-elf/13.2.1/../../../../aarch64-none-elf/lib/libg.a(libc_a-atoi.o)
 .text          0x0000010000275dec        0x0 /tools/arm-gnu-toolchain-13.2.Rel1-x86_64-aarch64-none-elf/bin/../lib/gcc/aarch64-none-elf/13.2.1/../../../../aarch64-none-elf/lib/libg.a(libc_a-rand.o)
 .text          0x0000010000275dec        0x0 /tools/arm-gnu-toolchain-13.2.Rel1-x86_64-aarch64-none-elf/bin/../lib/gcc/aarch64-none-elf/13.2.1/../../../../aarch64-none-elf/lib/libg.a(libc_a-callocr.o)
 .text          0x0000010000275dec        0x0 /tools/arm-gnu-toolchain-13.2.Rel1-x86_64-aarch64-none-elf/bin/../lib/gcc/aarch64-none-elf/13.2.1/../../../../aarch64-none-elf/lib/libg.a(libc_a-wcsrtombs.o)
 .text          0x0000010000275dec        0x0 /tools/arm-gnu-toolchain-13.2.Rel1-x86_64-aarch64-none-elf/bin/../lib/gcc/aarch64-none-elf/13.2.1/../../../../aarch64-none-elf/lib/libg.a(libc_a-dtoa.o)
 .text          0x0000010000275dec        0x0 /tools/arm-gnu-toolchain-13.2.Rel1-x86_64-aarch64-none-elf/bin/../lib/gcc/aarch64-none-elf/13.2.1/../../../../aarch64-none-elf/lib/libg.a(libc_a-strerror.o)
 .text          0x0000010000275dec        0x0 /tools/arm-gnu-toolchain-13.2.Rel1-x86_64-aarch64-none-elf/bin/../lib/gcc/aarch64-none-elf/13.2.1/../../../../aarch64-none-elf/lib/libg.a(libc_a-ctype_.o)
 .text          0x0000010000275dec        0x0 /tools/arm-gnu-toolchain-13.2.Rel1-x86_64-aarch64-none-elf/bin/../lib/gcc/aarch64-none-elf/13.2.1/../../../../aarch64-none-elf/lib/libg.a(libc_a-reent.o)
 .text          0x0000010000275dec        0x0 /tools/arm-gnu-toolchain-13.2.Rel1-x86_64-aarch64-none-elf/bin/../lib/gcc/aarch64-none-elf/13.2.1/../../../../aarch64-none-elf/lib/libg.a(libc_a-impure.o)
 .text          0x0000010000275dec        0x0 /tools/arm-gnu-toolchain-13.2.Rel1-x86_64-aarch64-none-elf/bin/../lib/gcc/aarch64-none-elf/13.2.1/../../../../aarch64-none-elf/lib/libg.a(libc_a-findfp.o)
 *fill*         0x0000010000275dec       0x14 
 .text          0x0000010000275e00      0x104 /tools/arm-gnu-toolchain-13.2.Rel1-x86_64-aarch64-none-elf/bin/../lib/gcc/aarch64-none-elf/13.2.1/../../../../aarch64-none-elf/lib/libg.a(libc_a-memset.o)
                0x0000010000275e00                memset
 .text          0x0000010000275f04        0x0 /tools/arm-gnu-toolchain-13.2.Rel1-x86_64-aarch64-none-elf/bin/../lib/gcc/aarch64-none-elf/13.2.1/../../../../aarch64-none-elf/lib/libg.a(libm_a-s_nan.o)
 .text          0x0000010000275f04        0x0 /tools/arm-gnu-toolchain-13.2.Rel1-x86_64-aarch64-none-elf/bin/../lib/gcc/aarch64-none-elf/13.2.1/../../../../aarch64-none-elf/lib/libg.a(libm_a-sf_nan.o)
 .text          0x0000010000275f04        0x0 /tools/arm-gnu-toolchain-13.2.Rel1-x86_64-aarch64-none-elf/bin/../lib/gcc/aarch64-none-elf/13.2.1/../../../../aarch64-none-elf/lib/libg.a(libm_a-s_frexp.o)
 .text          0x0000010000275f04        0x0 /tools/arm-gnu-toolchain-13.2.Rel1-x86_64-aarch64-none-elf/bin/../lib/gcc/aarch64-none-elf/13.2.1/../../../../aarch64-none-elf/lib/libg.a(libc_a-strlcpy.o)
 .text          0x0000010000275f04        0x0 /tools/arm-gnu-toolchain-13.2.Rel1-x86_64-aarch64-none-elf/bin/../lib/gcc/aarch64-none-elf/13.2.1/../../../../aarch64-none-elf/lib/libg.a(libc_a-freer.o)
 .text          0x0000010000275f04        0x0 /tools/arm-gnu-toolchain-13.2.Rel1-x86_64-aarch64-none-elf/bin/../lib/gcc/aarch64-none-elf/13.2.1/../../../../aarch64-none-elf/lib/libg.a(libc_a-strncasecmp.o)
 .text          0x0000010000275f04        0x0 /tools/arm-gnu-toolchain-13.2.Rel1-x86_64-aarch64-none-elf/bin/../lib/gcc/aarch64-none-elf/13.2.1/../../../../aarch64-none-elf/lib/libg.a(libc_a-getenv.o)
 .text          0x0000010000275f04        0x0 /tools/arm-gnu-toolchain-13.2.Rel1-x86_64-aarch64-none-elf/bin/../lib/gcc/aarch64-none-elf/13.2.1/../../../../aarch64-none-elf/lib/libg.a(libc_a-getenv_r.o)
 .text          0x0000010000275f04        0x0 /tools/arm-gnu-toolchain-13.2.Rel1-x86_64-aarch64-none-elf/bin/../lib/gcc/aarch64-none-elf/13.2.1/../../../../aarch64-none-elf/lib/libg.a(libc_a-fputc.o)
 .text          0x0000010000275f04        0x0 /tools/arm-gnu-toolchain-13.2.Rel1-x86_64-aarch64-none-elf/bin/../lib/gcc/aarch64-none-elf/13.2.1/../../../../aarch64-none-elf/lib/libg.a(libc_a-fputs.o)
 .text          0x0000010000275f04        0x0 /tools/arm-gnu-toolchain-13.2.Rel1-x86_64-aarch64-none-elf/bin/../lib/gcc/aarch64-none-elf/13.2.1/../../../../aarch64-none-elf/lib/libg.a(libc_a-fiprintf.o)
 *fill*         0x0000010000275f04       0x3c 
 .text          0x0000010000275f40      0x12c /tools/arm-gnu-toolchain-13.2.Rel1-x86_64-aarch64-none-elf/bin/../lib/gcc/aarch64-none-elf/13.2.1/../../../../aarch64-none-elf/lib/libg.a(libc_a-strcpy.o)
                0x0000010000275f40                strcpy
 .text          0x000001000027606c        0x0 /tools/arm-gnu-toolchain-13.2.Rel1-x86_64-aarch64-none-elf/bin/../lib/gcc/aarch64-none-elf/13.2.1/../../../../aarch64-none-elf/lib/libg.a(libc_a-stdio.o)
 .text          0x000001000027606c        0x0 /tools/arm-gnu-toolchain-13.2.Rel1-x86_64-aarch64-none-elf/bin/../lib/gcc/aarch64-none-elf/13.2.1/../../../../aarch64-none-elf/lib/libg.a(libc_a-wctomb_r.o)
 .text          0x000001000027606c        0x0 /tools/arm-gnu-toolchain-13.2.Rel1-x86_64-aarch64-none-elf/bin/../lib/gcc/aarch64-none-elf/13.2.1/../../../../aarch64-none-elf/lib/libg.a(libc_a-sbrkr.o)
 .text          0x000001000027606c        0x0 /tools/arm-gnu-toolchain-13.2.Rel1-x86_64-aarch64-none-elf/bin/../lib/gcc/aarch64-none-elf/13.2.1/../../../../aarch64-none-elf/lib/libg.a(libc_a-fvwrite.o)
 .text          0x000001000027606c        0x0 /tools/arm-gnu-toolchain-13.2.Rel1-x86_64-aarch64-none-elf/bin/../lib/gcc/aarch64-none-elf/13.2.1/../../../../aarch64-none-elf/lib/libg.a(libc_a-fwalk.o)
 .text          0x000001000027606c        0x0 /tools/arm-gnu-toolchain-13.2.Rel1-x86_64-aarch64-none-elf/bin/../lib/gcc/aarch64-none-elf/13.2.1/../../../../aarch64-none-elf/lib/libg.a(libc_a-writer.o)
 .text          0x000001000027606c        0x0 /tools/arm-gnu-toolchain-13.2.Rel1-x86_64-aarch64-none-elf/bin/../lib/gcc/aarch64-none-elf/13.2.1/../../../../aarch64-none-elf/lib/libg.a(libc_a-svfiprintf.o)
 .text          0x000001000027606c        0x0 /tools/arm-gnu-toolchain-13.2.Rel1-x86_64-aarch64-none-elf/bin/../lib/gcc/aarch64-none-elf/13.2.1/../../../../aarch64-none-elf/lib/libg.a(libc_a-vfprintf.o)
 .text          0x000001000027606c        0x0 /tools/arm-gnu-toolchain-13.2.Rel1-x86_64-aarch64-none-elf/bin/../lib/gcc/aarch64-none-elf/13.2.1/../../../../aarch64-none-elf/lib/libg.a(libc_a-vfiprintf.o)
 .text          0x000001000027606c        0x0 /tools/arm-gnu-toolchain-13.2.Rel1-x86_64-aarch64-none-elf/bin/../lib/gcc/aarch64-none-elf/13.2.1/../../../../aarch64-none-elf/lib/libg.a(libc_a-u_strerr.o)
 .text          0x000001000027606c        0x0 /tools/arm-gnu-toolchain-13.2.Rel1-x86_64-aarch64-none-elf/bin/../lib/gcc/aarch64-none-elf/13.2.1/../../../../aarch64-none-elf/lib/libg.a(libc_a-abort.o)
 .text          0x000001000027606c        0x0 /tools/arm-gnu-toolchain-13.2.Rel1-x86_64-aarch64-none-elf/bin/../lib/gcc/aarch64-none-elf/13.2.1/../../../../aarch64-none-elf/lib/libg.a(libc_a-mbtowc_r.o)
 .text          0x000001000027606c        0x0 /tools/arm-gnu-toolchain-13.2.Rel1-x86_64-aarch64-none-elf/bin/../lib/gcc/aarch64-none-elf/13.2.1/../../../../aarch64-none-elf/lib/libg.a(libc_a-strcat.o)
 .text          0x000001000027606c        0x0 /tools/arm-gnu-toolchain-13.2.Rel1-x86_64-aarch64-none-elf/bin/../lib/gcc/aarch64-none-elf/13.2.1/../../../../aarch64-none-elf/lib/libg.a(libc_a-lock.o)
 .text          0x000001000027606c        0x0 /tools/arm-gnu-toolchain-13.2.Rel1-x86_64-aarch64-none-elf/bin/../lib/gcc/aarch64-none-elf/13.2.1/../../../../aarch64-none-elf/lib/libg.a(libc_a-fclose.o)
 .text          0x000001000027606c        0x0 /tools/arm-gnu-toolchain-13.2.Rel1-x86_64-aarch64-none-elf/bin/../lib/gcc/aarch64-none-elf/13.2.1/../../../../aarch64-none-elf/lib/libg.a(libc_a-wsetup.o)
 .text          0x000001000027606c        0x0 /tools/arm-gnu-toolchain-13.2.Rel1-x86_64-aarch64-none-elf/bin/../lib/gcc/aarch64-none-elf/13.2.1/../../../../aarch64-none-elf/lib/libg.a(libc_a-makebuf.o)
 .text          0x000001000027606c        0x0 /tools/arm-gnu-toolchain-13.2.Rel1-x86_64-aarch64-none-elf/bin/../lib/gcc/aarch64-none-elf/13.2.1/../../../../aarch64-none-elf/lib/libg.a(libc_a-putc.o)
 .text          0x000001000027606c        0x0 /tools/arm-gnu-toolchain-13.2.Rel1-x86_64-aarch64-none-elf/bin/../lib/gcc/aarch64-none-elf/13.2.1/../../../../aarch64-none-elf/lib/libg.a(libc_a-wcsnrtombs.o)
 .text          0x000001000027606c        0x0 /tools/arm-gnu-toolchain-13.2.Rel1-x86_64-aarch64-none-elf/bin/../lib/gcc/aarch64-none-elf/13.2.1/../../../../aarch64-none-elf/lib/libg.a(libc_a-closer.o)
 .text          0x000001000027606c        0x0 /tools/arm-gnu-toolchain-13.2.Rel1-x86_64-aarch64-none-elf/bin/../lib/gcc/aarch64-none-elf/13.2.1/../../../../aarch64-none-elf/lib/libg.a(libc_a-fflush.o)
 .text          0x000001000027606c        0x0 /tools/arm-gnu-toolchain-13.2.Rel1-x86_64-aarch64-none-elf/bin/../lib/gcc/aarch64-none-elf/13.2.1/../../../../aarch64-none-elf/lib/libg.a(libc_a-environ.o)
 .text          0x000001000027606c        0x0 /tools/arm-gnu-toolchain-13.2.Rel1-x86_64-aarch64-none-elf/bin/../lib/gcc/aarch64-none-elf/13.2.1/../../../../aarch64-none-elf/lib/libg.a(libc_a-reallocr.o)
 .text          0x000001000027606c        0x0 /tools/arm-gnu-toolchain-13.2.Rel1-x86_64-aarch64-none-elf/bin/../lib/gcc/aarch64-none-elf/13.2.1/../../../../aarch64-none-elf/lib/libg.a(libc_a-envlock.o)
 .text          0x000001000027606c        0x0 /tools/arm-gnu-toolchain-13.2.Rel1-x86_64-aarch64-none-elf/bin/../lib/gcc/aarch64-none-elf/13.2.1/../../../../aarch64-none-elf/lib/libg.a(libc_a-fstatr.o)
 .text          0x000001000027606c        0x0 /tools/arm-gnu-toolchain-13.2.Rel1-x86_64-aarch64-none-elf/bin/../lib/gcc/aarch64-none-elf/13.2.1/../../../../aarch64-none-elf/lib/libg.a(libc_a-signal.o)
 .text          0x000001000027606c        0x0 /tools/arm-gnu-toolchain-13.2.Rel1-x86_64-aarch64-none-elf/bin/../lib/gcc/aarch64-none-elf/13.2.1/../../../../aarch64-none-elf/lib/libg.a(libc_a-isattyr.o)
 .text          0x000001000027606c        0x0 /tools/arm-gnu-toolchain-13.2.Rel1-x86_64-aarch64-none-elf/bin/../lib/gcc/aarch64-none-elf/13.2.1/../../../../aarch64-none-elf/lib/libg.a(libc_a-lseekr.o)
 .text          0x000001000027606c        0x0 /tools/arm-gnu-toolchain-13.2.Rel1-x86_64-aarch64-none-elf/bin/../lib/gcc/aarch64-none-elf/13.2.1/../../../../aarch64-none-elf/lib/libg.a(libc_a-readr.o)
 .text          0x000001000027606c        0x0 /tools/arm-gnu-toolchain-13.2.Rel1-x86_64-aarch64-none-elf/bin/../lib/gcc/aarch64-none-elf/13.2.1/../../../../aarch64-none-elf/lib/libg.a(libc_a-fputwc.o)
 .text          0x000001000027606c        0x0 /tools/arm-gnu-toolchain-13.2.Rel1-x86_64-aarch64-none-elf/bin/../lib/gcc/aarch64-none-elf/13.2.1/../../../../aarch64-none-elf/lib/libg.a(libc_a-signalr.o)
 .text          0x000001000027606c        0x0 /tools/arm-gnu-toolchain-13.2.Rel1-x86_64-aarch64-none-elf/bin/../lib/gcc/aarch64-none-elf/13.2.1/../../../../aarch64-none-elf/lib/libg.a(libc_a-wbuf.o)
 .text          0x000001000027606c        0x0 /tools/arm-gnu-toolchain-13.2.Rel1-x86_64-aarch64-none-elf/bin/../lib/gcc/aarch64-none-elf/13.2.1/libgcc.a(trunctfdf2.o)
 .text          0x000001000027606c        0x0 /tools/arm-gnu-toolchain-13.2.Rel1-x86_64-aarch64-none-elf/bin/../lib/gcc/aarch64-none-elf/13.2.1/libgcc.a(sfp-exceptions.o)
 *(privileged_functions)
 *fill*         0x000001000027606c       0x14 
 privileged_functions
                0x0000010000276080     0x2038 libfreertos_kernel.a(queue.c.o)
                0x00000100002763b0                xQueueGenericSend
                0x0000010000276720                xQueuePeek
                0x0000010000276980                xQueuePeekFromISR
                0x0000010000276ae0                xQueueReceive
                0x0000010000276d40                uxQueueMessagesWaiting
                0x0000010000276db0                uxQueueSpacesAvailable
                0x0000010000276e40                xQueueGenericSendFromISR
                0x00000100002770a0                xQueueGiveFromISR
                0x0000010000277260                xQueueReceiveFromISR
                0x0000010000277440                xQueueIsQueueEmptyFromISR
                0x00000100002774b0                xQueueIsQueueFullFromISR
                0x0000010000277510                uxQueueMessagesWaitingFromISR
                0x0000010000277560                xQueueSemaphoreTake
                0x0000010000277910                xQueueGetMutexHolder
                0x00000100002779a0                xQueueGetMutexHolderFromISR
                0x0000010000277a20                vQueueAddToRegistry
                0x0000010000277b40                vQueueUnregisterQueue
                0x0000010000277c00                vQueueDelete
                0x0000010000277c70                pcQueueGetName
                0x0000010000277d40                vQueueWaitForMessageRestricted
                0x0000010000277df0                xQueueGenericReset
                0x0000010000277f20                xQueueGenericCreate
                0x0000010000278010                xQueueCreateMutex
                0x0000010000278070                vQueueSetQueueNumber
                0x0000010000278080                uxQueueGetQueueNumber
                0x0000010000278090                ucQueueGetQueueType
                0x00000100002780a0                uxQueueGetQueueItemSize
                0x00000100002780b0                uxQueueGetQueueLength
 *fill*         0x00000100002780b8        0x8 
 privileged_functions
                0x00000100002780c0     0x58cc libfreertos_kernel.a(tasks.c.o)
                0x00000100002787d0                vTaskEndScheduler
                0x00000100002787f0                vTaskSuspendAll
                0x00000100002788e0                xTaskGetTickCount
                0x00000100002788f0                xTaskGetTickCountFromISR
                0x0000010000278910                uxTaskGetNumberOfTasks
                0x0000010000278920                pcTaskGetName
                0x00000100002789a0                vTaskSetThreadLocalStoragePointer
                0x0000010000278a50                pvTaskGetThreadLocalStoragePointer
                0x0000010000278af0                xTaskIncrementTick
                0x0000010000278ef0                vTaskPlaceOnEventList
                0x0000010000278fa0                vTaskPlaceOnUnorderedEventList
                0x0000010000279120                vTaskPlaceOnEventListRestricted
                0x0000010000279240                xTaskRemoveFromEventList
                0x00000100002794a0                vTaskSwitchContext
                0x0000010000279af0                uxTaskResetEventItemValue
                0x0000010000279b60                xTaskGetCurrentTaskHandle
                0x0000010000279b90                xTaskGetCurrentTaskHandleForCore
                0x0000010000279bd0                vTaskMissedYield
                0x0000010000279bf0                xTaskPriorityInherit
                0x0000010000279e80                xTaskPriorityDisinherit
                0x000001000027a0d0                vTaskPriorityDisinheritAfterTimeout
                0x000001000027a380                uxTaskGetTaskNumber
                0x000001000027a3b0                vTaskSetTaskNumber
                0x000001000027a3d0                pvTaskIncrementMutexHeldCount
                0x000001000027a430                vTaskInternalSetTimeOutState
                0x000001000027a7b0                xTaskCreate
                0x000001000027a7f0                vTaskStartScheduler
                0x000001000027a970                xTaskCreateAffinitySet
                0x000001000027a9d0                vTaskDelete
                0x000001000027ac00                uxTaskPriorityGet
                0x000001000027ac80                uxTaskBasePriorityGet
                0x000001000027ad00                eTaskGetState
                0x000001000027ae40                vTaskPrioritySet
                0x000001000027b120                vTaskSuspend
                0x000001000027b350                vTaskResume
                0x000001000027b490                xTaskResumeAll
                0x000001000027b740                vTaskDelay
                0x000001000027b810                xTaskDelayUntil
                0x000001000027b9c0                xTaskGetHandle
                0x000001000027bab0                xTaskAbortDelay
                0x000001000027bc40                vTaskGetInfo
                0x000001000027c010                uxTaskGetSystemState
                0x000001000027c140                xTaskGenericNotify
                0x000001000027c470                xTaskGenericNotifyWait
                0x000001000027c6e0                ulTaskGenericNotifyTake
                0x000001000027c920                xTaskGenericNotifyStateClear
                0x000001000027ca20                ulTaskGenericNotifyValueClear
                0x000001000027cb00                vTaskSetTimeOutState
                0x000001000027cba0                xTaskCheckForTimeOut
                0x000001000027cd80                xTaskCatchUpTicks
                0x000001000027ce00                vTaskRemoveFromUnorderedEventList
                0x000001000027d010                xTaskGetSchedulerState
                0x000001000027d0a0                uxTaskPriorityGetFromISR
                0x000001000027d140                uxTaskBasePriorityGetFromISR
                0x000001000027d1e0                xTaskResumeFromISR
                0x000001000027d340                xTaskGenericNotifyFromISR
                0x000001000027d6f0                vTaskGenericNotifyGiveFromISR
 *fill*         0x000001000027d98c       0x14 
 privileged_functions
                0x000001000027d9a0      0xeb8 libfreertos_kernel.a(timers.c.o)
                0x000001000027e060                xTimerCreate
                0x000001000027e130                pvTimerGetTimerID
                0x000001000027e190                vTimerSetTimerID
                0x000001000027e1f0                xTimerIsTimerActive
                0x000001000027e270                xTimerGetTimerDaemonTaskHandle
                0x000001000027e2c0                xTimerPendFunctionCallFromISR
                0x000001000027e310                xTimerPendFunctionCall
                0x000001000027e3a0                pcTimerGetName
                0x000001000027e400                vTimerSetReloadMode
                0x000001000027e480                xTimerGetReloadMode
                0x000001000027e4f0                uxTimerGetReloadMode
                0x000001000027e500                xTimerGetPeriod
                0x000001000027e560                xTimerGetExpiryTime
                0x000001000027e5c0                xTimerCreateTimerTask
                0x000001000027e650                xTimerGenericCommandFromTask
                0x000001000027e770                xTimerGenericCommandFromISR
                0x000001000027e840                vTimerSetTimerNumber
                0x000001000027e850                uxTimerGetTimerNumber
 *fill*         0x000001000027e858        0x8 
 privileged_functions
                0x000001000027e860      0x75c libfreertos_kernel.a(heap_4.c.o)
                0x000001000027e860                pvPortMalloc
                0x000001000027ec70                pvPortCalloc
                0x000001000027ecd0                vPortFree
                0x000001000027ef90                vPortInitialiseBlocks
                0x000001000027efa0                xPortGetFreeHeapSize
                0x000001000027efb0                xPortGetMinimumEverFreeHeapSize
 *fill*         0x000001000027efbc        0x4 
 privileged_functions
                0x000001000027efc0      0x140 libfreertos_kernel.a(list.c.o)
                0x000001000027efc0                vListInitialise
                0x000001000027efe0                vListInitialiseItem
                0x000001000027eff0                vListInsert
                0x000001000027f070                vListInsertEnd
                0x000001000027f0a0                uxListRemove
 privileged_functions
                0x000001000027f100      0x290 portable/libfreertos_kernel_port.a(port.c.o)
                0x000001000027f100                pxPortInitialiseStack
                0x000001000027f2a0                xPortStartScheduler
                0x000001000027f360                vPortEndScheduler
 *fill*         0x000001000027f390       0x10 
 privileged_functions
                0x000001000027f3a0      0x9d8 libfreertos_kernel.a(event_groups.c.o)
                0x000001000027f3a0                xEventGroupCreate
                0x000001000027f3f0                xEventGroupWaitBits
                0x000001000027f6f0                xEventGroupClearBits
                0x000001000027f7c0                vEventGroupClearBitsCallback
                0x000001000027f7d0                xEventGroupClearBitsFromISR
                0x000001000027f7f0                xEventGroupSetBits
                0x000001000027f9a0                vEventGroupSetBitsCallback
                0x000001000027f9b0                xEventGroupSetBitsFromISR
                0x000001000027f9d0                xEventGroupSync
                0x000001000027fc30                xEventGroupGetBitsFromISR
                0x000001000027fc60                vEventGroupDelete
                0x000001000027fd40                uxEventGroupGetNumber
                0x000001000027fd70                vEventGroupSetNumber
 *fill*         0x000001000027fd78        0x8 
 privileged_functions
                0x000001000027fd80     0x154c libfreertos_kernel.a(stream_buffer.c.o)
                0x0000010000280250                xStreamBufferReceive
                0x0000010000280460                xStreamBufferReceiveFromISR
                0x00000100002805c0                vStreamBufferDelete
                0x0000010000280640                xStreamBufferIsEmpty
                0x00000100002806b0                xStreamBufferReset
                0x00000100002807e0                xStreamBufferSpacesAvailable
                0x0000010000280880                xStreamBufferSend
                0x0000010000280b80                xStreamBufferSendFromISR
                0x0000010000280ce0                xStreamBufferIsFull
                0x0000010000280d60                xStreamBufferBytesAvailable
                0x0000010000280de0                xStreamBufferSetTriggerLevel
                0x0000010000280e80                xStreamBufferSendCompletedFromISR
                0x0000010000280f20                xStreamBufferReceiveCompletedFromISR
                0x0000010000280fc0                xStreamBufferGenericCreate
                0x0000010000281190                xStreamBufferNextMessageLengthBytes
                0x00000100002812a0                vStreamBufferSetStreamBufferNumber
                0x00000100002812b0                uxStreamBufferGetStreamBufferNumber
                0x00000100002812c0                ucStreamBufferGetStreamBufferType
 *(freertos_system_calls)

.iplt           0x00000100002812cc        0x0 load address 0x00000000002812cc
 .iplt          0x00000100002812cc        0x0 CMakeFiles/freertos_kernel.elf.dir/main.c.o

.text.asm.flush_dcache_range
                0x00000100002812cc       0x38 load address 0x00000000002812cc
 .text.asm.flush_dcache_range
                0x00000100002812cc       0x38 build/tests/rbdma/CMakeFiles/test_rbdma.dir/cache.S.o
                0x00000100002812cc                flush_dcache_range

.text.asm.clean_dcache_range
                0x0000010000281304       0x38 load address 0x0000000000281304
 .text.asm.clean_dcache_range
                0x0000010000281304       0x38 build/tests/rbdma/CMakeFiles/test_rbdma.dir/cache.S.o
                0x0000010000281304                clean_dcache_range

.text.asm.inv_dcache_range
                0x000001000028133c       0x38 load address 0x000000000028133c
 .text.asm.inv_dcache_range
                0x000001000028133c       0x38 build/tests/rbdma/CMakeFiles/test_rbdma.dir/cache.S.o
                0x000001000028133c                inv_dcache_range

.text.asm.save_gp_regs
                0x0000010000281374       0x40 load address 0x0000000000281374
 .text.asm.save_gp_regs
                0x0000010000281374       0x40 services/replay_service/libreplay_service.a(context.S.o)
                0x0000010000281374                save_gp_regs

.text.asm.restore_gp_regs
                0x00000100002813b4       0x40 load address 0x00000000002813b4
 .text.asm.restore_gp_regs
                0x00000100002813b4       0x40 services/replay_service/libreplay_service.a(context.S.o)
                0x00000100002813b4                restore_gp_regs

.text.asm.dump_gp_regs
                0x00000100002813f4       0x54 load address 0x00000000002813f4
 .text.asm.dump_gp_regs
                0x00000100002813f4       0x54 services/replay_service/libreplay_service.a(context.S.o)
                0x00000100002813f4                dump_gp_regs

.text.asm.save_fpu_regs
                0x0000010000281448       0x44 load address 0x0000000000281448
 .text.asm.save_fpu_regs
                0x0000010000281448       0x44 services/replay_service/libreplay_service.a(context.S.o)
                0x0000010000281448                save_fpu_regs

.text.asm.restore_fpu_regs
                0x000001000028148c       0x44 load address 0x000000000028148c
 .text.asm.restore_fpu_regs
                0x000001000028148c       0x44 services/replay_service/libreplay_service.a(context.S.o)
                0x000001000028148c                restore_fpu_regs

.text.asm.dump_state_regs_el1
                0x00000100002814d0       0x70 load address 0x00000000002814d0
 .text.asm.dump_state_regs_el1
                0x00000100002814d0       0x70 services/replay_service/libreplay_service.a(context.S.o)
                0x00000100002814d0                dump_state_regs_el1

.text.asm.dump_state_regs_el3
                0x0000010000281540       0x70 load address 0x0000000000281540
 .text.asm.dump_state_regs_el3
                0x0000010000281540       0x70 services/replay_service/libreplay_service.a(context.S.o)
                0x0000010000281540                dump_state_regs_el3

.text.asm.spin_lock
                0x00000100002815b0       0x20 load address 0x00000000002815b0
 .text.asm.spin_lock
                0x00000100002815b0       0x20 services/replay_service/libreplay_service.a(spinlock.S.o)
                0x00000100002815b0                spin_lock

.text.asm.spin_unlock
                0x00000100002815d0        0x8 load address 0x00000000002815d0
 .text.asm.spin_unlock
                0x00000100002815d0        0x8 services/replay_service/libreplay_service.a(spinlock.S.o)
                0x00000100002815d0                spin_unlock

.text.sulp      0x00000100002815e0       0x54 load address 0x00000000002815e0
 .text.sulp     0x00000100002815e0       0x54 /tools/arm-gnu-toolchain-13.2.Rel1-x86_64-aarch64-none-elf/bin/../lib/gcc/aarch64-none-elf/13.2.1/../../../../aarch64-none-elf/lib/libg.a(libc_a-strtod.o)

.text._strtod_l
                0x0000010000281640     0x1178 load address 0x0000000000281640
 .text._strtod_l
                0x0000010000281640     0x1178 /tools/arm-gnu-toolchain-13.2.Rel1-x86_64-aarch64-none-elf/bin/../lib/gcc/aarch64-none-elf/13.2.1/../../../../aarch64-none-elf/lib/libg.a(libc_a-strtod.o)
                0x0000010000281640                _strtod_l

.text._strtod_r
                0x00000100002827c0        0xc load address 0x00000000002827c0
 .text._strtod_r
                0x00000100002827c0        0xc /tools/arm-gnu-toolchain-13.2.Rel1-x86_64-aarch64-none-elf/bin/../lib/gcc/aarch64-none-elf/13.2.1/../../../../aarch64-none-elf/lib/libg.a(libc_a-strtod.o)
                0x00000100002827c0                _strtod_r

.text.strtod_l  0x00000100002827d0       0x20 load address 0x00000000002827d0
 .text.strtod_l
                0x00000100002827d0       0x20 /tools/arm-gnu-toolchain-13.2.Rel1-x86_64-aarch64-none-elf/bin/../lib/gcc/aarch64-none-elf/13.2.1/../../../../aarch64-none-elf/lib/libg.a(libc_a-strtod.o)
                0x00000100002827d0                strtod_l

.text.strtod    0x00000100002827f0       0x20 load address 0x00000000002827f0
 .text.strtod   0x00000100002827f0       0x20 /tools/arm-gnu-toolchain-13.2.Rel1-x86_64-aarch64-none-elf/bin/../lib/gcc/aarch64-none-elf/13.2.1/../../../../aarch64-none-elf/lib/libg.a(libc_a-strtod.o)
                0x00000100002827f0                strtod

.text.strtof_l  0x0000010000282810       0xb4 load address 0x0000000000282810
 .text.strtof_l
                0x0000010000282810       0xb4 /tools/arm-gnu-toolchain-13.2.Rel1-x86_64-aarch64-none-elf/bin/../lib/gcc/aarch64-none-elf/13.2.1/../../../../aarch64-none-elf/lib/libg.a(libc_a-strtod.o)
                0x0000010000282810                strtof_l

.text.strtof    0x00000100002828d0       0xc4 load address 0x00000000002828d0
 .text.strtof   0x00000100002828d0       0xc4 /tools/arm-gnu-toolchain-13.2.Rel1-x86_64-aarch64-none-elf/bin/../lib/gcc/aarch64-none-elf/13.2.1/../../../../aarch64-none-elf/lib/libg.a(libc_a-strtod.o)
                0x00000100002828d0                strtof

.text._strtol_l.part.0
                0x00000100002829a0      0x184 load address 0x00000000002829a0
 .text._strtol_l.part.0
                0x00000100002829a0      0x184 /tools/arm-gnu-toolchain-13.2.Rel1-x86_64-aarch64-none-elf/bin/../lib/gcc/aarch64-none-elf/13.2.1/../../../../aarch64-none-elf/lib/libg.a(libc_a-strtol.o)

.text._strtol_r
                0x0000010000282b30       0x30 load address 0x0000000000282b30
 .text._strtol_r
                0x0000010000282b30       0x30 /tools/arm-gnu-toolchain-13.2.Rel1-x86_64-aarch64-none-elf/bin/../lib/gcc/aarch64-none-elf/13.2.1/../../../../aarch64-none-elf/lib/libg.a(libc_a-strtol.o)
                0x0000010000282b30                _strtol_r

.text.strtol_l  0x0000010000282b60       0x48 load address 0x0000000000282b60
 .text.strtol_l
                0x0000010000282b60       0x48 /tools/arm-gnu-toolchain-13.2.Rel1-x86_64-aarch64-none-elf/bin/../lib/gcc/aarch64-none-elf/13.2.1/../../../../aarch64-none-elf/lib/libg.a(libc_a-strtol.o)
                0x0000010000282b60                strtol_l

.text.strtol    0x0000010000282bb0       0x48 load address 0x0000000000282bb0
 .text.strtol   0x0000010000282bb0       0x48 /tools/arm-gnu-toolchain-13.2.Rel1-x86_64-aarch64-none-elf/bin/../lib/gcc/aarch64-none-elf/13.2.1/../../../../aarch64-none-elf/lib/libg.a(libc_a-strtol.o)
                0x0000010000282bb0                strtol

.text.rshift    0x0000010000282c00      0x118 load address 0x0000000000282c00
 .text.rshift   0x0000010000282c00      0x118 /tools/arm-gnu-toolchain-13.2.Rel1-x86_64-aarch64-none-elf/bin/../lib/gcc/aarch64-none-elf/13.2.1/../../../../aarch64-none-elf/lib/libg.a(libc_a-gdtoa-gethex.o)

.text.__gethex  0x0000010000282d20      0x82c load address 0x0000000000282d20
 .text.__gethex
                0x0000010000282d20      0x82c /tools/arm-gnu-toolchain-13.2.Rel1-x86_64-aarch64-none-elf/bin/../lib/gcc/aarch64-none-elf/13.2.1/../../../../aarch64-none-elf/lib/libg.a(libc_a-gdtoa-gethex.o)
                0x0000010000282d20                __gethex

.text._strtoul_l.isra.0
                0x0000010000283550      0x1a0 load address 0x0000000000283550
 .text._strtoul_l.isra.0
                0x0000010000283550      0x1a0 /tools/arm-gnu-toolchain-13.2.Rel1-x86_64-aarch64-none-elf/bin/../lib/gcc/aarch64-none-elf/13.2.1/../../../../aarch64-none-elf/lib/libg.a(libc_a-strtoul.o)

.text._strtoul_r
                0x00000100002836f0        0x4 load address 0x00000000002836f0
 .text._strtoul_r
                0x00000100002836f0        0x4 /tools/arm-gnu-toolchain-13.2.Rel1-x86_64-aarch64-none-elf/bin/../lib/gcc/aarch64-none-elf/13.2.1/../../../../aarch64-none-elf/lib/libg.a(libc_a-strtoul.o)
                0x00000100002836f0                _strtoul_r

.text.strtoul_l
                0x0000010000283700       0x20 load address 0x0000000000283700
 .text.strtoul_l
                0x0000010000283700       0x20 /tools/arm-gnu-toolchain-13.2.Rel1-x86_64-aarch64-none-elf/bin/../lib/gcc/aarch64-none-elf/13.2.1/../../../../aarch64-none-elf/lib/libg.a(libc_a-strtoul.o)
                0x0000010000283700                strtoul_l

.text.strtoul   0x0000010000283720       0x20 load address 0x0000000000283720
 .text.strtoul  0x0000010000283720       0x20 /tools/arm-gnu-toolchain-13.2.Rel1-x86_64-aarch64-none-elf/bin/../lib/gcc/aarch64-none-elf/13.2.1/../../../../aarch64-none-elf/lib/libg.a(libc_a-strtoul.o)
                0x0000010000283720                strtoul

.text.__match   0x0000010000283740       0x48 load address 0x0000000000283740
 .text.__match  0x0000010000283740       0x48 /tools/arm-gnu-toolchain-13.2.Rel1-x86_64-aarch64-none-elf/bin/../lib/gcc/aarch64-none-elf/13.2.1/../../../../aarch64-none-elf/lib/libg.a(libc_a-gdtoa-hexnan.o)
                0x0000010000283740                __match

.text.__hexnan  0x0000010000283790      0x258 load address 0x0000000000283790
 .text.__hexnan
                0x0000010000283790      0x258 /tools/arm-gnu-toolchain-13.2.Rel1-x86_64-aarch64-none-elf/bin/../lib/gcc/aarch64-none-elf/13.2.1/../../../../aarch64-none-elf/lib/libg.a(libc_a-gdtoa-hexnan.o)
                0x0000010000283790                __hexnan

.text._strtoll_l.isra.0
                0x00000100002839f0      0x184 load address 0x00000000002839f0
 .text._strtoll_l.isra.0
                0x00000100002839f0      0x184 /tools/arm-gnu-toolchain-13.2.Rel1-x86_64-aarch64-none-elf/bin/../lib/gcc/aarch64-none-elf/13.2.1/../../../../aarch64-none-elf/lib/libg.a(libc_a-strtoll.o)

.text._strtoll_r
                0x0000010000283b80        0x4 load address 0x0000000000283b80
 .text._strtoll_r
                0x0000010000283b80        0x4 /tools/arm-gnu-toolchain-13.2.Rel1-x86_64-aarch64-none-elf/bin/../lib/gcc/aarch64-none-elf/13.2.1/../../../../aarch64-none-elf/lib/libg.a(libc_a-strtoll.o)
                0x0000010000283b80                _strtoll_r

.text.strtoll_l
                0x0000010000283b90       0x20 load address 0x0000000000283b90
 .text.strtoll_l
                0x0000010000283b90       0x20 /tools/arm-gnu-toolchain-13.2.Rel1-x86_64-aarch64-none-elf/bin/../lib/gcc/aarch64-none-elf/13.2.1/../../../../aarch64-none-elf/lib/libg.a(libc_a-strtoll.o)
                0x0000010000283b90                strtoll_l

.text.strtoll   0x0000010000283bb0       0x20 load address 0x0000000000283bb0
 .text.strtoll  0x0000010000283bb0       0x20 /tools/arm-gnu-toolchain-13.2.Rel1-x86_64-aarch64-none-elf/bin/../lib/gcc/aarch64-none-elf/13.2.1/../../../../aarch64-none-elf/lib/libg.a(libc_a-strtoll.o)
                0x0000010000283bb0                strtoll

.text.strncpy   0x0000010000283bd0       0x90 load address 0x0000000000283bd0
 .text.strncpy  0x0000010000283bd0       0x90 /tools/arm-gnu-toolchain-13.2.Rel1-x86_64-aarch64-none-elf/bin/../lib/gcc/aarch64-none-elf/13.2.1/../../../../aarch64-none-elf/lib/libg.a(libc_a-strncpy.o)
                0x0000010000283bd0                strncpy

.text._strtoull_l.isra.0
                0x0000010000283c60      0x1a0 load address 0x0000000000283c60
 .text._strtoull_l.isra.0
                0x0000010000283c60      0x1a0 /tools/arm-gnu-toolchain-13.2.Rel1-x86_64-aarch64-none-elf/bin/../lib/gcc/aarch64-none-elf/13.2.1/../../../../aarch64-none-elf/lib/libg.a(libc_a-strtoull.o)

.text._strtoull_r
                0x0000010000283e00        0x4 load address 0x0000000000283e00
 .text._strtoull_r
                0x0000010000283e00        0x4 /tools/arm-gnu-toolchain-13.2.Rel1-x86_64-aarch64-none-elf/bin/../lib/gcc/aarch64-none-elf/13.2.1/../../../../aarch64-none-elf/lib/libg.a(libc_a-strtoull.o)
                0x0000010000283e00                _strtoull_r

.text.strtoull_l
                0x0000010000283e10       0x20 load address 0x0000000000283e10
 .text.strtoull_l
                0x0000010000283e10       0x20 /tools/arm-gnu-toolchain-13.2.Rel1-x86_64-aarch64-none-elf/bin/../lib/gcc/aarch64-none-elf/13.2.1/../../../../aarch64-none-elf/lib/libg.a(libc_a-strtoull.o)
                0x0000010000283e10                strtoull_l

.text.strtoull  0x0000010000283e30       0x20 load address 0x0000000000283e30
 .text.strtoull
                0x0000010000283e30       0x20 /tools/arm-gnu-toolchain-13.2.Rel1-x86_64-aarch64-none-elf/bin/../lib/gcc/aarch64-none-elf/13.2.1/../../../../aarch64-none-elf/lib/libg.a(libc_a-strtoull.o)
                0x0000010000283e30                strtoull

.text._sprintf_r
                0x0000010000283e50       0x98 load address 0x0000000000283e50
 .text._sprintf_r
                0x0000010000283e50       0x98 /tools/arm-gnu-toolchain-13.2.Rel1-x86_64-aarch64-none-elf/bin/../lib/gcc/aarch64-none-elf/13.2.1/../../../../aarch64-none-elf/lib/libg.a(libc_a-sprintf.o)
                0x0000010000283e50                _sprintf_r

.text.sprintf   0x0000010000283ef0       0xa8 load address 0x0000000000283ef0
 .text.sprintf  0x0000010000283ef0       0xa8 /tools/arm-gnu-toolchain-13.2.Rel1-x86_64-aarch64-none-elf/bin/../lib/gcc/aarch64-none-elf/13.2.1/../../../../aarch64-none-elf/lib/libg.a(libc_a-sprintf.o)
                0x0000010000283ef0                sprintf

.text.strspn    0x0000010000283fa0       0x4c load address 0x0000000000283fa0
 .text.strspn   0x0000010000283fa0       0x4c /tools/arm-gnu-toolchain-13.2.Rel1-x86_64-aarch64-none-elf/bin/../lib/gcc/aarch64-none-elf/13.2.1/../../../../aarch64-none-elf/lib/libg.a(libc_a-strspn.o)
                0x0000010000283fa0                strspn

.text.strtok    0x0000010000283ff0       0x14 load address 0x0000000000283ff0
 .text.strtok   0x0000010000283ff0       0x14 /tools/arm-gnu-toolchain-13.2.Rel1-x86_64-aarch64-none-elf/bin/../lib/gcc/aarch64-none-elf/13.2.1/../../../../aarch64-none-elf/lib/libg.a(libc_a-strtok.o)
                0x0000010000283ff0                strtok

.text.__strtok_r
                0x0000010000284010       0xa0 load address 0x0000000000284010
 .text.__strtok_r
                0x0000010000284010       0xa0 /tools/arm-gnu-toolchain-13.2.Rel1-x86_64-aarch64-none-elf/bin/../lib/gcc/aarch64-none-elf/13.2.1/../../../../aarch64-none-elf/lib/libg.a(libc_a-strtok_r.o)
                0x0000010000284010                __strtok_r

.text.strtok_r  0x00000100002840b0        0x8 load address 0x00000000002840b0
 .text.strtok_r
                0x00000100002840b0        0x8 /tools/arm-gnu-toolchain-13.2.Rel1-x86_64-aarch64-none-elf/bin/../lib/gcc/aarch64-none-elf/13.2.1/../../../../aarch64-none-elf/lib/libg.a(libc_a-strtok_r.o)
                0x00000100002840b0                strtok_r

.text.critical_factorization
                0x00000100002840c0      0x134 load address 0x00000000002840c0
 .text.critical_factorization
                0x00000100002840c0      0x134 /tools/arm-gnu-toolchain-13.2.Rel1-x86_64-aarch64-none-elf/bin/../lib/gcc/aarch64-none-elf/13.2.1/../../../../aarch64-none-elf/lib/libg.a(libc_a-strstr.o)

.text.two_way_short_needle
                0x0000010000284200      0x278 load address 0x0000000000284200
 .text.two_way_short_needle
                0x0000010000284200      0x278 /tools/arm-gnu-toolchain-13.2.Rel1-x86_64-aarch64-none-elf/bin/../lib/gcc/aarch64-none-elf/13.2.1/../../../../aarch64-none-elf/lib/libg.a(libc_a-strstr.o)

.text.two_way_long_needle
                0x0000010000284480      0x31c load address 0x0000000000284480
 .text.two_way_long_needle
                0x0000010000284480      0x31c /tools/arm-gnu-toolchain-13.2.Rel1-x86_64-aarch64-none-elf/bin/../lib/gcc/aarch64-none-elf/13.2.1/../../../../aarch64-none-elf/lib/libg.a(libc_a-strstr.o)

.text.strstr    0x00000100002847a0      0x250 load address 0x00000000002847a0
 .text.strstr   0x00000100002847a0      0x250 /tools/arm-gnu-toolchain-13.2.Rel1-x86_64-aarch64-none-elf/bin/../lib/gcc/aarch64-none-elf/13.2.1/../../../../aarch64-none-elf/lib/libg.a(libc_a-strstr.o)
                0x00000100002847a0                strstr

.text.getopt_internal
                0x00000100002849f0      0x910 load address 0x00000000002849f0
 .text.getopt_internal
                0x00000100002849f0      0x910 /tools/arm-gnu-toolchain-13.2.Rel1-x86_64-aarch64-none-elf/bin/../lib/gcc/aarch64-none-elf/13.2.1/../../../../aarch64-none-elf/lib/libg.a(libc_a-getopt.o)

.text.getopt    0x0000010000285300       0xbc load address 0x0000000000285300
 .text.getopt   0x0000010000285300       0xbc /tools/arm-gnu-toolchain-13.2.Rel1-x86_64-aarch64-none-elf/bin/../lib/gcc/aarch64-none-elf/13.2.1/../../../../aarch64-none-elf/lib/libg.a(libc_a-getopt.o)
                0x0000010000285300                getopt

.text.getopt_long
                0x00000100002853c0       0xb4 load address 0x00000000002853c0
 .text.getopt_long
                0x00000100002853c0       0xb4 /tools/arm-gnu-toolchain-13.2.Rel1-x86_64-aarch64-none-elf/bin/../lib/gcc/aarch64-none-elf/13.2.1/../../../../aarch64-none-elf/lib/libg.a(libc_a-getopt.o)
                0x00000100002853c0                getopt_long

.text.getopt_long_only
                0x0000010000285480       0xb4 load address 0x0000000000285480
 .text.getopt_long_only
                0x0000010000285480       0xb4 /tools/arm-gnu-toolchain-13.2.Rel1-x86_64-aarch64-none-elf/bin/../lib/gcc/aarch64-none-elf/13.2.1/../../../../aarch64-none-elf/lib/libg.a(libc_a-getopt.o)
                0x0000010000285480                getopt_long_only

.text.__getopt_r
                0x0000010000285540       0x14 load address 0x0000000000285540
 .text.__getopt_r
                0x0000010000285540       0x14 /tools/arm-gnu-toolchain-13.2.Rel1-x86_64-aarch64-none-elf/bin/../lib/gcc/aarch64-none-elf/13.2.1/../../../../aarch64-none-elf/lib/libg.a(libc_a-getopt.o)
                0x0000010000285540                __getopt_r

.text.__getopt_long_r
                0x0000010000285560        0xc load address 0x0000000000285560
 .text.__getopt_long_r
                0x0000010000285560        0xc /tools/arm-gnu-toolchain-13.2.Rel1-x86_64-aarch64-none-elf/bin/../lib/gcc/aarch64-none-elf/13.2.1/../../../../aarch64-none-elf/lib/libg.a(libc_a-getopt.o)
                0x0000010000285560                __getopt_long_r

.text.__getopt_long_only_r
                0x0000010000285570        0xc load address 0x0000000000285570
 .text.__getopt_long_only_r
                0x0000010000285570        0xc /tools/arm-gnu-toolchain-13.2.Rel1-x86_64-aarch64-none-elf/bin/../lib/gcc/aarch64-none-elf/13.2.1/../../../../aarch64-none-elf/lib/libg.a(libc_a-getopt.o)
                0x0000010000285570                __getopt_long_only_r

.text.__errno   0x0000010000285580        0xc load address 0x0000000000285580
 .text.__errno  0x0000010000285580        0xc /tools/arm-gnu-toolchain-13.2.Rel1-x86_64-aarch64-none-elf/bin/../lib/gcc/aarch64-none-elf/13.2.1/../../../../aarch64-none-elf/lib/libg.a(libc_a-errno.o)
                0x0000010000285580                __errno

.text._svfprintf_r
                0x0000010000285590     0x3218 load address 0x0000000000285590
 .text._svfprintf_r
                0x0000010000285590     0x3218 /tools/arm-gnu-toolchain-13.2.Rel1-x86_64-aarch64-none-elf/bin/../lib/gcc/aarch64-none-elf/13.2.1/../../../../aarch64-none-elf/lib/libg.a(libc_a-svfprintf.o)
                0x0000010000285590                _svfprintf_r

.text.vsnprintf
                0x00000100002887b0       0xdc load address 0x00000000002887b0
 .text.vsnprintf
                0x00000100002887b0       0xdc /tools/arm-gnu-toolchain-13.2.Rel1-x86_64-aarch64-none-elf/bin/../lib/gcc/aarch64-none-elf/13.2.1/../../../../aarch64-none-elf/lib/libg.a(libc_a-vsnprintf.o)
                0x00000100002887b0                vsnprintf

.text._vsnprintf_r
                0x0000010000288890       0xd0 load address 0x0000000000288890
 .text._vsnprintf_r
                0x0000010000288890       0xd0 /tools/arm-gnu-toolchain-13.2.Rel1-x86_64-aarch64-none-elf/bin/../lib/gcc/aarch64-none-elf/13.2.1/../../../../aarch64-none-elf/lib/libg.a(libc_a-vsnprintf.o)
                0x0000010000288890                _vsnprintf_r

.text.malloc    0x0000010000288960       0x10 load address 0x0000000000288960
 .text.malloc   0x0000010000288960       0x10 /tools/arm-gnu-toolchain-13.2.Rel1-x86_64-aarch64-none-elf/bin/../lib/gcc/aarch64-none-elf/13.2.1/../../../../aarch64-none-elf/lib/libg.a(libc_a-malloc.o)
                0x0000010000288960                malloc

.text.free      0x0000010000288970       0x10 load address 0x0000000000288970
 .text.free     0x0000010000288970       0x10 /tools/arm-gnu-toolchain-13.2.Rel1-x86_64-aarch64-none-elf/bin/../lib/gcc/aarch64-none-elf/13.2.1/../../../../aarch64-none-elf/lib/libg.a(libc_a-malloc.o)
                0x0000010000288970                free

.text._malloc_r
                0x0000010000288980      0x7f4 load address 0x0000000000288980
 .text._malloc_r
                0x0000010000288980      0x7f4 /tools/arm-gnu-toolchain-13.2.Rel1-x86_64-aarch64-none-elf/bin/../lib/gcc/aarch64-none-elf/13.2.1/../../../../aarch64-none-elf/lib/libg.a(libc_a-mallocr.o)
                0x0000010000288980                _malloc_r

.text.__assert_func
                0x0000010000289180       0x54 load address 0x0000000000289180
 .text.__assert_func
                0x0000010000289180       0x54 /tools/arm-gnu-toolchain-13.2.Rel1-x86_64-aarch64-none-elf/bin/../lib/gcc/aarch64-none-elf/13.2.1/../../../../aarch64-none-elf/lib/libg.a(libc_a-assert.o)
                0x0000010000289180                __assert_func

.text.__assert  0x00000100002891e0       0x14 load address 0x00000000002891e0
 .text.__assert
                0x00000100002891e0       0x14 /tools/arm-gnu-toolchain-13.2.Rel1-x86_64-aarch64-none-elf/bin/../lib/gcc/aarch64-none-elf/13.2.1/../../../../aarch64-none-elf/lib/libg.a(libc_a-assert.o)
                0x00000100002891e0                __assert

.text.strcasecmp
                0x0000010000289200       0x6c load address 0x0000000000289200
 .text.strcasecmp
                0x0000010000289200       0x6c /tools/arm-gnu-toolchain-13.2.Rel1-x86_64-aarch64-none-elf/bin/../lib/gcc/aarch64-none-elf/13.2.1/../../../../aarch64-none-elf/lib/libg.a(libc_a-strcasecmp.o)
                0x0000010000289200                strcasecmp

.text._wcrtomb_r
                0x0000010000289270       0x88 load address 0x0000000000289270
 .text._wcrtomb_r
                0x0000010000289270       0x88 /tools/arm-gnu-toolchain-13.2.Rel1-x86_64-aarch64-none-elf/bin/../lib/gcc/aarch64-none-elf/13.2.1/../../../../aarch64-none-elf/lib/libg.a(libc_a-wcrtomb.o)
                0x0000010000289270                _wcrtomb_r

.text.wcrtomb   0x0000010000289300       0x9c load address 0x0000000000289300
 .text.wcrtomb  0x0000010000289300       0x9c /tools/arm-gnu-toolchain-13.2.Rel1-x86_64-aarch64-none-elf/bin/../lib/gcc/aarch64-none-elf/13.2.1/../../../../aarch64-none-elf/lib/libg.a(libc_a-wcrtomb.o)
                0x0000010000289300                wcrtomb

.text.currentlocale
                0x00000100002893a0       0xc4 load address 0x00000000002893a0
 .text.currentlocale
                0x00000100002893a0       0xc4 /tools/arm-gnu-toolchain-13.2.Rel1-x86_64-aarch64-none-elf/bin/../lib/gcc/aarch64-none-elf/13.2.1/../../../../aarch64-none-elf/lib/libg.a(libc_a-locale.o)

.text.__loadlocale
                0x0000010000289470      0x790 load address 0x0000000000289470
 .text.__loadlocale
                0x0000010000289470      0x790 /tools/arm-gnu-toolchain-13.2.Rel1-x86_64-aarch64-none-elf/bin/../lib/gcc/aarch64-none-elf/13.2.1/../../../../aarch64-none-elf/lib/libg.a(libc_a-locale.o)
                0x0000010000289470                __loadlocale

.text.__get_locale_env
                0x0000010000289c00       0x7c load address 0x0000000000289c00
 .text.__get_locale_env
                0x0000010000289c00       0x7c /tools/arm-gnu-toolchain-13.2.Rel1-x86_64-aarch64-none-elf/bin/../lib/gcc/aarch64-none-elf/13.2.1/../../../../aarch64-none-elf/lib/libg.a(libc_a-locale.o)
                0x0000010000289c00                __get_locale_env

.text._setlocale_r
                0x0000010000289c80      0x3b0 load address 0x0000000000289c80
 .text._setlocale_r
                0x0000010000289c80      0x3b0 /tools/arm-gnu-toolchain-13.2.Rel1-x86_64-aarch64-none-elf/bin/../lib/gcc/aarch64-none-elf/13.2.1/../../../../aarch64-none-elf/lib/libg.a(libc_a-locale.o)
                0x0000010000289c80                _setlocale_r

.text.__locale_mb_cur_max
                0x000001000028a030        0xc load address 0x000000000028a030
 .text.__locale_mb_cur_max
                0x000001000028a030        0xc /tools/arm-gnu-toolchain-13.2.Rel1-x86_64-aarch64-none-elf/bin/../lib/gcc/aarch64-none-elf/13.2.1/../../../../aarch64-none-elf/lib/libg.a(libc_a-locale.o)
                0x000001000028a030                __locale_mb_cur_max

.text.setlocale
                0x000001000028a040       0x14 load address 0x000000000028a040
 .text.setlocale
                0x000001000028a040       0x14 /tools/arm-gnu-toolchain-13.2.Rel1-x86_64-aarch64-none-elf/bin/../lib/gcc/aarch64-none-elf/13.2.1/../../../../aarch64-none-elf/lib/libg.a(libc_a-locale.o)
                0x000001000028a040                setlocale

.text.__localeconv_l
                0x000001000028a060        0x8 load address 0x000000000028a060
 .text.__localeconv_l
                0x000001000028a060        0x8 /tools/arm-gnu-toolchain-13.2.Rel1-x86_64-aarch64-none-elf/bin/../lib/gcc/aarch64-none-elf/13.2.1/../../../../aarch64-none-elf/lib/libg.a(libc_a-localeconv.o)
                0x000001000028a060                __localeconv_l

.text._localeconv_r
                0x000001000028a070        0xc load address 0x000000000028a070
 .text._localeconv_r
                0x000001000028a070        0xc /tools/arm-gnu-toolchain-13.2.Rel1-x86_64-aarch64-none-elf/bin/../lib/gcc/aarch64-none-elf/13.2.1/../../../../aarch64-none-elf/lib/libg.a(libc_a-localeconv.o)
                0x000001000028a070                _localeconv_r

.text.localeconv
                0x000001000028a080        0xc load address 0x000000000028a080
 .text.localeconv
                0x000001000028a080        0xc /tools/arm-gnu-toolchain-13.2.Rel1-x86_64-aarch64-none-elf/bin/../lib/gcc/aarch64-none-elf/13.2.1/../../../../aarch64-none-elf/lib/libg.a(libc_a-localeconv.o)
                0x000001000028a080                localeconv

.text._printf_r
                0x000001000028a090       0x70 load address 0x000000000028a090
 .text._printf_r
                0x000001000028a090       0x70 /tools/arm-gnu-toolchain-13.2.Rel1-x86_64-aarch64-none-elf/bin/../lib/gcc/aarch64-none-elf/13.2.1/../../../../aarch64-none-elf/lib/libg.a(libc_a-printf.o)
                0x000001000028a090                _printf_r

.text.printf    0x000001000028a100       0x80 load address 0x000000000028a100
 .text.printf   0x000001000028a100       0x80 /tools/arm-gnu-toolchain-13.2.Rel1-x86_64-aarch64-none-elf/bin/../lib/gcc/aarch64-none-elf/13.2.1/../../../../aarch64-none-elf/lib/libg.a(libc_a-printf.o)
                0x000001000028a100                printf

.text._putchar_r
                0x000001000028a180        0x8 load address 0x000000000028a180
 .text._putchar_r
                0x000001000028a180        0x8 /tools/arm-gnu-toolchain-13.2.Rel1-x86_64-aarch64-none-elf/bin/../lib/gcc/aarch64-none-elf/13.2.1/../../../../aarch64-none-elf/lib/libg.a(libc_a-putchar.o)
                0x000001000028a180                _putchar_r

.text.putchar   0x000001000028a190       0x14 load address 0x000000000028a190
 .text.putchar  0x000001000028a190       0x14 /tools/arm-gnu-toolchain-13.2.Rel1-x86_64-aarch64-none-elf/bin/../lib/gcc/aarch64-none-elf/13.2.1/../../../../aarch64-none-elf/lib/libg.a(libc_a-putchar.o)
                0x000001000028a190                putchar

.text._puts_r   0x000001000028a1b0       0xec load address 0x000000000028a1b0
 .text._puts_r  0x000001000028a1b0       0xec /tools/arm-gnu-toolchain-13.2.Rel1-x86_64-aarch64-none-elf/bin/../lib/gcc/aarch64-none-elf/13.2.1/../../../../aarch64-none-elf/lib/libg.a(libc_a-puts.o)
                0x000001000028a1b0                _puts_r

.text.puts      0x000001000028a2a0       0x10 load address 0x000000000028a2a0
 .text.puts     0x000001000028a2a0       0x10 /tools/arm-gnu-toolchain-13.2.Rel1-x86_64-aarch64-none-elf/bin/../lib/gcc/aarch64-none-elf/13.2.1/../../../../aarch64-none-elf/lib/libg.a(libc_a-puts.o)
                0x000001000028a2a0                puts

.text.__malloc_lock
                0x000001000028a2b0        0xc load address 0x000000000028a2b0
 .text.__malloc_lock
                0x000001000028a2b0        0xc /tools/arm-gnu-toolchain-13.2.Rel1-x86_64-aarch64-none-elf/bin/../lib/gcc/aarch64-none-elf/13.2.1/../../../../aarch64-none-elf/lib/libg.a(libc_a-mlock.o)
                0x000001000028a2b0                __malloc_lock

.text.__malloc_unlock
                0x000001000028a2c0        0xc load address 0x000000000028a2c0
 .text.__malloc_unlock
                0x000001000028a2c0        0xc /tools/arm-gnu-toolchain-13.2.Rel1-x86_64-aarch64-none-elf/bin/../lib/gcc/aarch64-none-elf/13.2.1/../../../../aarch64-none-elf/lib/libg.a(libc_a-mlock.o)
                0x000001000028a2c0                __malloc_unlock

.text._Balloc   0x000001000028a2d0       0x8c load address 0x000000000028a2d0
 .text._Balloc  0x000001000028a2d0       0x8c /tools/arm-gnu-toolchain-13.2.Rel1-x86_64-aarch64-none-elf/bin/../lib/gcc/aarch64-none-elf/13.2.1/../../../../aarch64-none-elf/lib/libg.a(libc_a-mprec.o)
                0x000001000028a2d0                _Balloc

.text._Bfree    0x000001000028a360       0x1c load address 0x000000000028a360
 .text._Bfree   0x000001000028a360       0x1c /tools/arm-gnu-toolchain-13.2.Rel1-x86_64-aarch64-none-elf/bin/../lib/gcc/aarch64-none-elf/13.2.1/../../../../aarch64-none-elf/lib/libg.a(libc_a-mprec.o)
                0x000001000028a360                _Bfree

.text.__multadd
                0x000001000028a380      0x110 load address 0x000000000028a380
 .text.__multadd
                0x000001000028a380      0x110 /tools/arm-gnu-toolchain-13.2.Rel1-x86_64-aarch64-none-elf/bin/../lib/gcc/aarch64-none-elf/13.2.1/../../../../aarch64-none-elf/lib/libg.a(libc_a-mprec.o)
                0x000001000028a380                __multadd

.text.__s2b     0x000001000028a490      0x130 load address 0x000000000028a490
 .text.__s2b    0x000001000028a490      0x130 /tools/arm-gnu-toolchain-13.2.Rel1-x86_64-aarch64-none-elf/bin/../lib/gcc/aarch64-none-elf/13.2.1/../../../../aarch64-none-elf/lib/libg.a(libc_a-mprec.o)
                0x000001000028a490                __s2b

.text.__hi0bits
                0x000001000028a5c0       0x80 load address 0x000000000028a5c0
 .text.__hi0bits
                0x000001000028a5c0       0x80 /tools/arm-gnu-toolchain-13.2.Rel1-x86_64-aarch64-none-elf/bin/../lib/gcc/aarch64-none-elf/13.2.1/../../../../aarch64-none-elf/lib/libg.a(libc_a-mprec.o)
                0x000001000028a5c0                __hi0bits

.text.__lo0bits
                0x000001000028a640       0x9c load address 0x000000000028a640
 .text.__lo0bits
                0x000001000028a640       0x9c /tools/arm-gnu-toolchain-13.2.Rel1-x86_64-aarch64-none-elf/bin/../lib/gcc/aarch64-none-elf/13.2.1/../../../../aarch64-none-elf/lib/libg.a(libc_a-mprec.o)
                0x000001000028a640                __lo0bits

.text.__i2b     0x000001000028a6e0       0xb8 load address 0x000000000028a6e0
 .text.__i2b    0x000001000028a6e0       0xb8 /tools/arm-gnu-toolchain-13.2.Rel1-x86_64-aarch64-none-elf/bin/../lib/gcc/aarch64-none-elf/13.2.1/../../../../aarch64-none-elf/lib/libg.a(libc_a-mprec.o)
                0x000001000028a6e0                __i2b

.text.__multiply
                0x000001000028a7a0      0x1e4 load address 0x000000000028a7a0
 .text.__multiply
                0x000001000028a7a0      0x1e4 /tools/arm-gnu-toolchain-13.2.Rel1-x86_64-aarch64-none-elf/bin/../lib/gcc/aarch64-none-elf/13.2.1/../../../../aarch64-none-elf/lib/libg.a(libc_a-mprec.o)
                0x000001000028a7a0                __multiply

.text.__pow5mult
                0x000001000028a990      0x120 load address 0x000000000028a990
 .text.__pow5mult
                0x000001000028a990      0x120 /tools/arm-gnu-toolchain-13.2.Rel1-x86_64-aarch64-none-elf/bin/../lib/gcc/aarch64-none-elf/13.2.1/../../../../aarch64-none-elf/lib/libg.a(libc_a-mprec.o)
                0x000001000028a990                __pow5mult

.text.__lshift  0x000001000028aab0      0x168 load address 0x000000000028aab0
 .text.__lshift
                0x000001000028aab0      0x168 /tools/arm-gnu-toolchain-13.2.Rel1-x86_64-aarch64-none-elf/bin/../lib/gcc/aarch64-none-elf/13.2.1/../../../../aarch64-none-elf/lib/libg.a(libc_a-mprec.o)
                0x000001000028aab0                __lshift

.text.__mcmp    0x000001000028ac20       0x50 load address 0x000000000028ac20
 .text.__mcmp   0x000001000028ac20       0x50 /tools/arm-gnu-toolchain-13.2.Rel1-x86_64-aarch64-none-elf/bin/../lib/gcc/aarch64-none-elf/13.2.1/../../../../aarch64-none-elf/lib/libg.a(libc_a-mprec.o)
                0x000001000028ac20                __mcmp

.text.__mdiff   0x000001000028ac70      0x200 load address 0x000000000028ac70
 .text.__mdiff  0x000001000028ac70      0x200 /tools/arm-gnu-toolchain-13.2.Rel1-x86_64-aarch64-none-elf/bin/../lib/gcc/aarch64-none-elf/13.2.1/../../../../aarch64-none-elf/lib/libg.a(libc_a-mprec.o)
                0x000001000028ac70                __mdiff

.text.__ulp     0x000001000028ae70       0x84 load address 0x000000000028ae70
 .text.__ulp    0x000001000028ae70       0x84 /tools/arm-gnu-toolchain-13.2.Rel1-x86_64-aarch64-none-elf/bin/../lib/gcc/aarch64-none-elf/13.2.1/../../../../aarch64-none-elf/lib/libg.a(libc_a-mprec.o)
                0x000001000028ae70                __ulp

.text.__b2d     0x000001000028af00      0x12c load address 0x000000000028af00
 .text.__b2d    0x000001000028af00      0x12c /tools/arm-gnu-toolchain-13.2.Rel1-x86_64-aarch64-none-elf/bin/../lib/gcc/aarch64-none-elf/13.2.1/../../../../aarch64-none-elf/lib/libg.a(libc_a-mprec.o)
                0x000001000028af00                __b2d

.text.__d2b     0x000001000028b030      0x13c load address 0x000000000028b030
 .text.__d2b    0x000001000028b030      0x13c /tools/arm-gnu-toolchain-13.2.Rel1-x86_64-aarch64-none-elf/bin/../lib/gcc/aarch64-none-elf/13.2.1/../../../../aarch64-none-elf/lib/libg.a(libc_a-mprec.o)
                0x000001000028b030                __d2b

.text.__ratio   0x000001000028b170       0x88 load address 0x000000000028b170
 .text.__ratio  0x000001000028b170       0x88 /tools/arm-gnu-toolchain-13.2.Rel1-x86_64-aarch64-none-elf/bin/../lib/gcc/aarch64-none-elf/13.2.1/../../../../aarch64-none-elf/lib/libg.a(libc_a-mprec.o)
                0x000001000028b170                __ratio

.text._mprec_log10
                0x000001000028b200       0x30 load address 0x000000000028b200
 .text._mprec_log10
                0x000001000028b200       0x30 /tools/arm-gnu-toolchain-13.2.Rel1-x86_64-aarch64-none-elf/bin/../lib/gcc/aarch64-none-elf/13.2.1/../../../../aarch64-none-elf/lib/libg.a(libc_a-mprec.o)
                0x000001000028b200                _mprec_log10

.text.__copybits
                0x000001000028b230       0x68 load address 0x000000000028b230
 .text.__copybits
                0x000001000028b230       0x68 /tools/arm-gnu-toolchain-13.2.Rel1-x86_64-aarch64-none-elf/bin/../lib/gcc/aarch64-none-elf/13.2.1/../../../../aarch64-none-elf/lib/libg.a(libc_a-mprec.o)
                0x000001000028b230                __copybits

.text.__any_on  0x000001000028b2a0       0x6c load address 0x000000000028b2a0
 .text.__any_on
                0x000001000028b2a0       0x6c /tools/arm-gnu-toolchain-13.2.Rel1-x86_64-aarch64-none-elf/bin/../lib/gcc/aarch64-none-elf/13.2.1/../../../../aarch64-none-elf/lib/libg.a(libc_a-mprec.o)
                0x000001000028b2a0                __any_on

.text.atoi      0x000001000028b310       0x1c load address 0x000000000028b310
 .text.atoi     0x000001000028b310       0x1c /tools/arm-gnu-toolchain-13.2.Rel1-x86_64-aarch64-none-elf/bin/../lib/gcc/aarch64-none-elf/13.2.1/../../../../aarch64-none-elf/lib/libg.a(libc_a-atoi.o)
                0x000001000028b310                atoi

.text._atoi_r   0x000001000028b330       0x1c load address 0x000000000028b330
 .text._atoi_r  0x000001000028b330       0x1c /tools/arm-gnu-toolchain-13.2.Rel1-x86_64-aarch64-none-elf/bin/../lib/gcc/aarch64-none-elf/13.2.1/../../../../aarch64-none-elf/lib/libg.a(libc_a-atoi.o)
                0x000001000028b330                _atoi_r

.text.srand     0x000001000028b350       0x14 load address 0x000000000028b350
 .text.srand    0x000001000028b350       0x14 /tools/arm-gnu-toolchain-13.2.Rel1-x86_64-aarch64-none-elf/bin/../lib/gcc/aarch64-none-elf/13.2.1/../../../../aarch64-none-elf/lib/libg.a(libc_a-rand.o)
                0x000001000028b350                srand

.text.rand      0x000001000028b370       0x30 load address 0x000000000028b370
 .text.rand     0x000001000028b370       0x30 /tools/arm-gnu-toolchain-13.2.Rel1-x86_64-aarch64-none-elf/bin/../lib/gcc/aarch64-none-elf/13.2.1/../../../../aarch64-none-elf/lib/libg.a(libc_a-rand.o)
                0x000001000028b370                rand

.text._calloc_r
                0x000001000028b3a0       0xc0 load address 0x000000000028b3a0
 .text._calloc_r
                0x000001000028b3a0       0xc0 /tools/arm-gnu-toolchain-13.2.Rel1-x86_64-aarch64-none-elf/bin/../lib/gcc/aarch64-none-elf/13.2.1/../../../../aarch64-none-elf/lib/libg.a(libc_a-callocr.o)
                0x000001000028b3a0                _calloc_r

.text._wcsrtombs_r
                0x000001000028b460       0x10 load address 0x000000000028b460
 .text._wcsrtombs_r
                0x000001000028b460       0x10 /tools/arm-gnu-toolchain-13.2.Rel1-x86_64-aarch64-none-elf/bin/../lib/gcc/aarch64-none-elf/13.2.1/../../../../aarch64-none-elf/lib/libg.a(libc_a-wcsrtombs.o)
                0x000001000028b460                _wcsrtombs_r

.text.wcsrtombs
                0x000001000028b470       0x28 load address 0x000000000028b470
 .text.wcsrtombs
                0x000001000028b470       0x28 /tools/arm-gnu-toolchain-13.2.Rel1-x86_64-aarch64-none-elf/bin/../lib/gcc/aarch64-none-elf/13.2.1/../../../../aarch64-none-elf/lib/libg.a(libc_a-wcsrtombs.o)
                0x000001000028b470                wcsrtombs

.text.quorem    0x000001000028b4a0      0x1a4 load address 0x000000000028b4a0
 .text.quorem   0x000001000028b4a0      0x1a4 /tools/arm-gnu-toolchain-13.2.Rel1-x86_64-aarch64-none-elf/bin/../lib/gcc/aarch64-none-elf/13.2.1/../../../../aarch64-none-elf/lib/libg.a(libc_a-dtoa.o)

.text._dtoa_r   0x000001000028b650     0x1198 load address 0x000000000028b650
 .text._dtoa_r  0x000001000028b650     0x1198 /tools/arm-gnu-toolchain-13.2.Rel1-x86_64-aarch64-none-elf/bin/../lib/gcc/aarch64-none-elf/13.2.1/../../../../aarch64-none-elf/lib/libg.a(libc_a-dtoa.o)
                0x000001000028b650                _dtoa_r

.text._strerror_r
                0x000001000028c7f0      0x418 load address 0x000000000028c7f0
 .text._strerror_r
                0x000001000028c7f0      0x418 /tools/arm-gnu-toolchain-13.2.Rel1-x86_64-aarch64-none-elf/bin/../lib/gcc/aarch64-none-elf/13.2.1/../../../../aarch64-none-elf/lib/libg.a(libc_a-strerror.o)
                0x000001000028c7f0                _strerror_r

.text.strerror  0x000001000028cc10       0x18 load address 0x000000000028cc10
 .text.strerror
                0x000001000028cc10       0x18 /tools/arm-gnu-toolchain-13.2.Rel1-x86_64-aarch64-none-elf/bin/../lib/gcc/aarch64-none-elf/13.2.1/../../../../aarch64-none-elf/lib/libg.a(libc_a-strerror.o)
                0x000001000028cc10                strerror

.text.strerror_l
                0x000001000028cc30       0x18 load address 0x000000000028cc30
 .text.strerror_l
                0x000001000028cc30       0x18 /tools/arm-gnu-toolchain-13.2.Rel1-x86_64-aarch64-none-elf/bin/../lib/gcc/aarch64-none-elf/13.2.1/../../../../aarch64-none-elf/lib/libg.a(libc_a-strerror.o)
                0x000001000028cc30                strerror_l

.text.__set_ctype
                0x000001000028cc50       0x10 load address 0x000000000028cc50
 .text.__set_ctype
                0x000001000028cc50       0x10 /tools/arm-gnu-toolchain-13.2.Rel1-x86_64-aarch64-none-elf/bin/../lib/gcc/aarch64-none-elf/13.2.1/../../../../aarch64-none-elf/lib/libg.a(libc_a-ctype_.o)
                0x000001000028cc50                __set_ctype

.text._reclaim_reent
                0x000001000028cc60       0xb0 load address 0x000000000028cc60
 .text._reclaim_reent
                0x000001000028cc60       0xb0 /tools/arm-gnu-toolchain-13.2.Rel1-x86_64-aarch64-none-elf/bin/../lib/gcc/aarch64-none-elf/13.2.1/../../../../aarch64-none-elf/lib/libg.a(libc_a-reent.o)
                0x000001000028cc60                _reclaim_reent

.text.stdio_exit_handler
                0x000001000028cd10       0x1c load address 0x000000000028cd10
 .text.stdio_exit_handler
                0x000001000028cd10       0x1c /tools/arm-gnu-toolchain-13.2.Rel1-x86_64-aarch64-none-elf/bin/../lib/gcc/aarch64-none-elf/13.2.1/../../../../aarch64-none-elf/lib/libg.a(libc_a-findfp.o)

.text.cleanup_stdio
                0x000001000028cd30       0x74 load address 0x000000000028cd30
 .text.cleanup_stdio
                0x000001000028cd30       0x74 /tools/arm-gnu-toolchain-13.2.Rel1-x86_64-aarch64-none-elf/bin/../lib/gcc/aarch64-none-elf/13.2.1/../../../../aarch64-none-elf/lib/libg.a(libc_a-findfp.o)

.text.__fp_lock
                0x000001000028cdb0       0x34 load address 0x000000000028cdb0
 .text.__fp_lock
                0x000001000028cdb0       0x34 /tools/arm-gnu-toolchain-13.2.Rel1-x86_64-aarch64-none-elf/bin/../lib/gcc/aarch64-none-elf/13.2.1/../../../../aarch64-none-elf/lib/libg.a(libc_a-findfp.o)

.text.__fp_unlock
                0x000001000028cdf0       0x34 load address 0x000000000028cdf0
 .text.__fp_unlock
                0x000001000028cdf0       0x34 /tools/arm-gnu-toolchain-13.2.Rel1-x86_64-aarch64-none-elf/bin/../lib/gcc/aarch64-none-elf/13.2.1/../../../../aarch64-none-elf/lib/libg.a(libc_a-findfp.o)

.text.global_stdio_init.part.0
                0x000001000028ce30      0x158 load address 0x000000000028ce30
 .text.global_stdio_init.part.0
                0x000001000028ce30      0x158 /tools/arm-gnu-toolchain-13.2.Rel1-x86_64-aarch64-none-elf/bin/../lib/gcc/aarch64-none-elf/13.2.1/../../../../aarch64-none-elf/lib/libg.a(libc_a-findfp.o)

.text.__sfp     0x000001000028cf90      0x144 load address 0x000000000028cf90
 .text.__sfp    0x000001000028cf90      0x144 /tools/arm-gnu-toolchain-13.2.Rel1-x86_64-aarch64-none-elf/bin/../lib/gcc/aarch64-none-elf/13.2.1/../../../../aarch64-none-elf/lib/libg.a(libc_a-findfp.o)
                0x000001000028cf90                __sfp

.text.__sinit   0x000001000028d0e0       0x64 load address 0x000000000028d0e0
 .text.__sinit  0x000001000028d0e0       0x64 /tools/arm-gnu-toolchain-13.2.Rel1-x86_64-aarch64-none-elf/bin/../lib/gcc/aarch64-none-elf/13.2.1/../../../../aarch64-none-elf/lib/libg.a(libc_a-findfp.o)
                0x000001000028d0e0                __sinit

.text.__sfp_lock_acquire
                0x000001000028d150        0xc load address 0x000000000028d150
 .text.__sfp_lock_acquire
                0x000001000028d150        0xc /tools/arm-gnu-toolchain-13.2.Rel1-x86_64-aarch64-none-elf/bin/../lib/gcc/aarch64-none-elf/13.2.1/../../../../aarch64-none-elf/lib/libg.a(libc_a-findfp.o)
                0x000001000028d150                __sfp_lock_acquire

.text.__sfp_lock_release
                0x000001000028d160        0xc load address 0x000000000028d160
 .text.__sfp_lock_release
                0x000001000028d160        0xc /tools/arm-gnu-toolchain-13.2.Rel1-x86_64-aarch64-none-elf/bin/../lib/gcc/aarch64-none-elf/13.2.1/../../../../aarch64-none-elf/lib/libg.a(libc_a-findfp.o)
                0x000001000028d160                __sfp_lock_release

.text.__fp_lock_all
                0x000001000028d170       0x30 load address 0x000000000028d170
 .text.__fp_lock_all
                0x000001000028d170       0x30 /tools/arm-gnu-toolchain-13.2.Rel1-x86_64-aarch64-none-elf/bin/../lib/gcc/aarch64-none-elf/13.2.1/../../../../aarch64-none-elf/lib/libg.a(libc_a-findfp.o)
                0x000001000028d170                __fp_lock_all

.text.__fp_unlock_all
                0x000001000028d1a0       0x30 load address 0x000000000028d1a0
 .text.__fp_unlock_all
                0x000001000028d1a0       0x30 /tools/arm-gnu-toolchain-13.2.Rel1-x86_64-aarch64-none-elf/bin/../lib/gcc/aarch64-none-elf/13.2.1/../../../../aarch64-none-elf/lib/libg.a(libc_a-findfp.o)
                0x000001000028d1a0                __fp_unlock_all

.text.nan       0x000001000028d1d0        0xc load address 0x000000000028d1d0
 .text.nan      0x000001000028d1d0        0xc /tools/arm-gnu-toolchain-13.2.Rel1-x86_64-aarch64-none-elf/bin/../lib/gcc/aarch64-none-elf/13.2.1/../../../../aarch64-none-elf/lib/libg.a(libm_a-s_nan.o)
                0x000001000028d1d0                nan

.text.nanf      0x000001000028d1e0        0xc load address 0x000000000028d1e0
 .text.nanf     0x000001000028d1e0        0xc /tools/arm-gnu-toolchain-13.2.Rel1-x86_64-aarch64-none-elf/bin/../lib/gcc/aarch64-none-elf/13.2.1/../../../../aarch64-none-elf/lib/libg.a(libm_a-sf_nan.o)
                0x000001000028d1e0                nanf

.text.frexp     0x000001000028d1f0       0x78 load address 0x000000000028d1f0
 .text.frexp    0x000001000028d1f0       0x78 /tools/arm-gnu-toolchain-13.2.Rel1-x86_64-aarch64-none-elf/bin/../lib/gcc/aarch64-none-elf/13.2.1/../../../../aarch64-none-elf/lib/libg.a(libm_a-s_frexp.o)
                0x000001000028d1f0                frexp

.text.strlcpy   0x000001000028d270       0x3c load address 0x000000000028d270
 .text.strlcpy  0x000001000028d270       0x3c /tools/arm-gnu-toolchain-13.2.Rel1-x86_64-aarch64-none-elf/bin/../lib/gcc/aarch64-none-elf/13.2.1/../../../../aarch64-none-elf/lib/libg.a(libc_a-strlcpy.o)
                0x000001000028d270                strlcpy

.text._malloc_trim_r
                0x000001000028d2b0      0x118 load address 0x000000000028d2b0
 .text._malloc_trim_r
                0x000001000028d2b0      0x118 /tools/arm-gnu-toolchain-13.2.Rel1-x86_64-aarch64-none-elf/bin/../lib/gcc/aarch64-none-elf/13.2.1/../../../../aarch64-none-elf/lib/libg.a(libc_a-freer.o)
                0x000001000028d2b0                _malloc_trim_r

.text._free_r   0x000001000028d3d0      0x2e0 load address 0x000000000028d3d0
 .text._free_r  0x000001000028d3d0      0x2e0 /tools/arm-gnu-toolchain-13.2.Rel1-x86_64-aarch64-none-elf/bin/../lib/gcc/aarch64-none-elf/13.2.1/../../../../aarch64-none-elf/lib/libg.a(libc_a-freer.o)
                0x000001000028d3d0                _free_r

.text.strncasecmp
                0x000001000028d6b0       0x7c load address 0x000000000028d6b0
 .text.strncasecmp
                0x000001000028d6b0       0x7c /tools/arm-gnu-toolchain-13.2.Rel1-x86_64-aarch64-none-elf/bin/../lib/gcc/aarch64-none-elf/13.2.1/../../../../aarch64-none-elf/lib/libg.a(libc_a-strncasecmp.o)
                0x000001000028d6b0                strncasecmp

.text._findenv  0x000001000028d730       0x14 load address 0x000000000028d730
 .text._findenv
                0x000001000028d730       0x14 /tools/arm-gnu-toolchain-13.2.Rel1-x86_64-aarch64-none-elf/bin/../lib/gcc/aarch64-none-elf/13.2.1/../../../../aarch64-none-elf/lib/libg.a(libc_a-getenv.o)
                0x000001000028d730                _findenv

.text.getenv    0x000001000028d750       0x24 load address 0x000000000028d750
 .text.getenv   0x000001000028d750       0x24 /tools/arm-gnu-toolchain-13.2.Rel1-x86_64-aarch64-none-elf/bin/../lib/gcc/aarch64-none-elf/13.2.1/../../../../aarch64-none-elf/lib/libg.a(libc_a-getenv.o)
                0x000001000028d750                getenv

.text._findenv_r
                0x000001000028d780       0xfc load address 0x000000000028d780
 .text._findenv_r
                0x000001000028d780       0xfc /tools/arm-gnu-toolchain-13.2.Rel1-x86_64-aarch64-none-elf/bin/../lib/gcc/aarch64-none-elf/13.2.1/../../../../aarch64-none-elf/lib/libg.a(libc_a-getenv_r.o)
                0x000001000028d780                _findenv_r

.text._getenv_r
                0x000001000028d880       0x18 load address 0x000000000028d880
 .text._getenv_r
                0x000001000028d880       0x18 /tools/arm-gnu-toolchain-13.2.Rel1-x86_64-aarch64-none-elf/bin/../lib/gcc/aarch64-none-elf/13.2.1/../../../../aarch64-none-elf/lib/libg.a(libc_a-getenv_r.o)
                0x000001000028d880                _getenv_r

.text._fputc_r  0x000001000028d8a0       0x9c load address 0x000000000028d8a0
 .text._fputc_r
                0x000001000028d8a0       0x9c /tools/arm-gnu-toolchain-13.2.Rel1-x86_64-aarch64-none-elf/bin/../lib/gcc/aarch64-none-elf/13.2.1/../../../../aarch64-none-elf/lib/libg.a(libc_a-fputc.o)
                0x000001000028d8a0                _fputc_r

.text.fputc     0x000001000028d940       0xa8 load address 0x000000000028d940
 .text.fputc    0x000001000028d940       0xa8 /tools/arm-gnu-toolchain-13.2.Rel1-x86_64-aarch64-none-elf/bin/../lib/gcc/aarch64-none-elf/13.2.1/../../../../aarch64-none-elf/lib/libg.a(libc_a-fputc.o)
                0x000001000028d940                fputc

.text._fputs_r  0x000001000028d9f0       0xd0 load address 0x000000000028d9f0
 .text._fputs_r
                0x000001000028d9f0       0xd0 /tools/arm-gnu-toolchain-13.2.Rel1-x86_64-aarch64-none-elf/bin/../lib/gcc/aarch64-none-elf/13.2.1/../../../../aarch64-none-elf/lib/libg.a(libc_a-fputs.o)
                0x000001000028d9f0                _fputs_r

.text.fputs     0x000001000028dac0       0x14 load address 0x000000000028dac0
 .text.fputs    0x000001000028dac0       0x14 /tools/arm-gnu-toolchain-13.2.Rel1-x86_64-aarch64-none-elf/bin/../lib/gcc/aarch64-none-elf/13.2.1/../../../../aarch64-none-elf/lib/libg.a(libc_a-fputs.o)
                0x000001000028dac0                fputs

.text._fiprintf_r
                0x000001000028dae0       0x68 load address 0x000000000028dae0
 .text._fiprintf_r
                0x000001000028dae0       0x68 /tools/arm-gnu-toolchain-13.2.Rel1-x86_64-aarch64-none-elf/bin/../lib/gcc/aarch64-none-elf/13.2.1/../../../../aarch64-none-elf/lib/libg.a(libc_a-fiprintf.o)
                0x000001000028dae0                _fiprintf_r

.text.fiprintf  0x000001000028db50       0x7c load address 0x000000000028db50
 .text.fiprintf
                0x000001000028db50       0x7c /tools/arm-gnu-toolchain-13.2.Rel1-x86_64-aarch64-none-elf/bin/../lib/gcc/aarch64-none-elf/13.2.1/../../../../aarch64-none-elf/lib/libg.a(libc_a-fiprintf.o)
                0x000001000028db50                fiprintf

.text.__sread   0x000001000028dbd0       0x50 load address 0x000000000028dbd0
 .text.__sread  0x000001000028dbd0       0x50 /tools/arm-gnu-toolchain-13.2.Rel1-x86_64-aarch64-none-elf/bin/../lib/gcc/aarch64-none-elf/13.2.1/../../../../aarch64-none-elf/lib/libg.a(libc_a-stdio.o)
                0x000001000028dbd0                __sread

.text.__seofread
                0x000001000028dc20        0x8 load address 0x000000000028dc20
 .text.__seofread
                0x000001000028dc20        0x8 /tools/arm-gnu-toolchain-13.2.Rel1-x86_64-aarch64-none-elf/bin/../lib/gcc/aarch64-none-elf/13.2.1/../../../../aarch64-none-elf/lib/libg.a(libc_a-stdio.o)
                0x000001000028dc20                __seofread

.text.__swrite  0x000001000028dc30       0x6c load address 0x000000000028dc30
 .text.__swrite
                0x000001000028dc30       0x6c /tools/arm-gnu-toolchain-13.2.Rel1-x86_64-aarch64-none-elf/bin/../lib/gcc/aarch64-none-elf/13.2.1/../../../../aarch64-none-elf/lib/libg.a(libc_a-stdio.o)
                0x000001000028dc30                __swrite

.text.__sseek   0x000001000028dca0       0x50 load address 0x000000000028dca0
 .text.__sseek  0x000001000028dca0       0x50 /tools/arm-gnu-toolchain-13.2.Rel1-x86_64-aarch64-none-elf/bin/../lib/gcc/aarch64-none-elf/13.2.1/../../../../aarch64-none-elf/lib/libg.a(libc_a-stdio.o)
                0x000001000028dca0                __sseek

.text.__sclose  0x000001000028dcf0        0x8 load address 0x000000000028dcf0
 .text.__sclose
                0x000001000028dcf0        0x8 /tools/arm-gnu-toolchain-13.2.Rel1-x86_64-aarch64-none-elf/bin/../lib/gcc/aarch64-none-elf/13.2.1/../../../../aarch64-none-elf/lib/libg.a(libc_a-stdio.o)
                0x000001000028dcf0                __sclose

.text._wctomb_r
                0x000001000028dd00       0x10 load address 0x000000000028dd00
 .text._wctomb_r
                0x000001000028dd00       0x10 /tools/arm-gnu-toolchain-13.2.Rel1-x86_64-aarch64-none-elf/bin/../lib/gcc/aarch64-none-elf/13.2.1/../../../../aarch64-none-elf/lib/libg.a(libc_a-wctomb_r.o)
                0x000001000028dd00                _wctomb_r

.text.__ascii_wctomb
                0x000001000028dd10       0x34 load address 0x000000000028dd10
 .text.__ascii_wctomb
                0x000001000028dd10       0x34 /tools/arm-gnu-toolchain-13.2.Rel1-x86_64-aarch64-none-elf/bin/../lib/gcc/aarch64-none-elf/13.2.1/../../../../aarch64-none-elf/lib/libg.a(libc_a-wctomb_r.o)
                0x000001000028dd10                __ascii_wctomb

.text.__utf8_wctomb
                0x000001000028dd50       0xe4 load address 0x000000000028dd50
 .text.__utf8_wctomb
                0x000001000028dd50       0xe4 /tools/arm-gnu-toolchain-13.2.Rel1-x86_64-aarch64-none-elf/bin/../lib/gcc/aarch64-none-elf/13.2.1/../../../../aarch64-none-elf/lib/libg.a(libc_a-wctomb_r.o)
                0x000001000028dd50                __utf8_wctomb

.text.__sjis_wctomb
                0x000001000028de40       0x84 load address 0x000000000028de40
 .text.__sjis_wctomb
                0x000001000028de40       0x84 /tools/arm-gnu-toolchain-13.2.Rel1-x86_64-aarch64-none-elf/bin/../lib/gcc/aarch64-none-elf/13.2.1/../../../../aarch64-none-elf/lib/libg.a(libc_a-wctomb_r.o)
                0x000001000028de40                __sjis_wctomb

.text.__eucjp_wctomb
                0x000001000028ded0       0xa8 load address 0x000000000028ded0
 .text.__eucjp_wctomb
                0x000001000028ded0       0xa8 /tools/arm-gnu-toolchain-13.2.Rel1-x86_64-aarch64-none-elf/bin/../lib/gcc/aarch64-none-elf/13.2.1/../../../../aarch64-none-elf/lib/libg.a(libc_a-wctomb_r.o)
                0x000001000028ded0                __eucjp_wctomb

.text.__jis_wctomb
                0x000001000028df80       0xbc load address 0x000000000028df80
 .text.__jis_wctomb
                0x000001000028df80       0xbc /tools/arm-gnu-toolchain-13.2.Rel1-x86_64-aarch64-none-elf/bin/../lib/gcc/aarch64-none-elf/13.2.1/../../../../aarch64-none-elf/lib/libg.a(libc_a-wctomb_r.o)
                0x000001000028df80                __jis_wctomb

.text._sbrk_r   0x000001000028e040       0x4c load address 0x000000000028e040
 .text._sbrk_r  0x000001000028e040       0x4c /tools/arm-gnu-toolchain-13.2.Rel1-x86_64-aarch64-none-elf/bin/../lib/gcc/aarch64-none-elf/13.2.1/../../../../aarch64-none-elf/lib/libg.a(libc_a-sbrkr.o)
                0x000001000028e040                _sbrk_r

.text.__sfvwrite_r
                0x000001000028e090      0x4cc load address 0x000000000028e090
 .text.__sfvwrite_r
                0x000001000028e090      0x4cc /tools/arm-gnu-toolchain-13.2.Rel1-x86_64-aarch64-none-elf/bin/../lib/gcc/aarch64-none-elf/13.2.1/../../../../aarch64-none-elf/lib/libg.a(libc_a-fvwrite.o)
                0x000001000028e090                __sfvwrite_r

.text._fwalk_sglue
                0x000001000028e560       0xa0 load address 0x000000000028e560
 .text._fwalk_sglue
                0x000001000028e560       0xa0 /tools/arm-gnu-toolchain-13.2.Rel1-x86_64-aarch64-none-elf/bin/../lib/gcc/aarch64-none-elf/13.2.1/../../../../aarch64-none-elf/lib/libg.a(libc_a-fwalk.o)
                0x000001000028e560                _fwalk_sglue

.text._write_r  0x000001000028e600       0x60 load address 0x000000000028e600
 .text._write_r
                0x000001000028e600       0x60 /tools/arm-gnu-toolchain-13.2.Rel1-x86_64-aarch64-none-elf/bin/../lib/gcc/aarch64-none-elf/13.2.1/../../../../aarch64-none-elf/lib/libg.a(libc_a-writer.o)
                0x000001000028e600                _write_r

.text.__ssprint_r
                0x000001000028e660      0x1f8 load address 0x000000000028e660
 .text.__ssprint_r
                0x000001000028e660      0x1f8 /tools/arm-gnu-toolchain-13.2.Rel1-x86_64-aarch64-none-elf/bin/../lib/gcc/aarch64-none-elf/13.2.1/../../../../aarch64-none-elf/lib/libg.a(libc_a-svfiprintf.o)
                0x000001000028e660                __ssprint_r

.text._svfiprintf_r
                0x000001000028e860     0x1988 load address 0x000000000028e860
 .text._svfiprintf_r
                0x000001000028e860     0x1988 /tools/arm-gnu-toolchain-13.2.Rel1-x86_64-aarch64-none-elf/bin/../lib/gcc/aarch64-none-elf/13.2.1/../../../../aarch64-none-elf/lib/libg.a(libc_a-svfiprintf.o)
                0x000001000028e860                _svfiprintf_r

.text._vfprintf_r
                0x00000100002901f0     0x32e4 load address 0x00000000002901f0
 .text._vfprintf_r
                0x00000100002901f0     0x32e4 /tools/arm-gnu-toolchain-13.2.Rel1-x86_64-aarch64-none-elf/bin/../lib/gcc/aarch64-none-elf/13.2.1/../../../../aarch64-none-elf/lib/libg.a(libc_a-vfprintf.o)
                0x00000100002901f0                _vfprintf_r

.text.vfprintf  0x00000100002934e0       0x34 load address 0x00000000002934e0
 .text.vfprintf
                0x00000100002934e0       0x34 /tools/arm-gnu-toolchain-13.2.Rel1-x86_64-aarch64-none-elf/bin/../lib/gcc/aarch64-none-elf/13.2.1/../../../../aarch64-none-elf/lib/libg.a(libc_a-vfprintf.o)
                0x00000100002934e0                vfprintf

.text.__sbprintf
                0x0000010000293520      0x1c0 load address 0x0000000000293520
 .text.__sbprintf
                0x0000010000293520       0xe0 /tools/arm-gnu-toolchain-13.2.Rel1-x86_64-aarch64-none-elf/bin/../lib/gcc/aarch64-none-elf/13.2.1/../../../../aarch64-none-elf/lib/libg.a(libc_a-vfprintf.o)
 .text.__sbprintf
                0x0000010000293600       0xe0 /tools/arm-gnu-toolchain-13.2.Rel1-x86_64-aarch64-none-elf/bin/../lib/gcc/aarch64-none-elf/13.2.1/../../../../aarch64-none-elf/lib/libg.a(libc_a-vfiprintf.o)

.text.__sprint_r.part.0
                0x00000100002936e0       0xd8 load address 0x00000000002936e0
 .text.__sprint_r.part.0
                0x00000100002936e0       0xd8 /tools/arm-gnu-toolchain-13.2.Rel1-x86_64-aarch64-none-elf/bin/../lib/gcc/aarch64-none-elf/13.2.1/../../../../aarch64-none-elf/lib/libg.a(libc_a-vfiprintf.o)

.text.__sprint_r
                0x00000100002937c0       0x18 load address 0x00000000002937c0
 .text.__sprint_r
                0x00000100002937c0       0x18 /tools/arm-gnu-toolchain-13.2.Rel1-x86_64-aarch64-none-elf/bin/../lib/gcc/aarch64-none-elf/13.2.1/../../../../aarch64-none-elf/lib/libg.a(libc_a-vfiprintf.o)
                0x00000100002937c0                __sprint_r

.text._vfiprintf_r
                0x00000100002937e0     0x1c04 load address 0x00000000002937e0
 .text._vfiprintf_r
                0x00000100002937e0     0x1c04 /tools/arm-gnu-toolchain-13.2.Rel1-x86_64-aarch64-none-elf/bin/../lib/gcc/aarch64-none-elf/13.2.1/../../../../aarch64-none-elf/lib/libg.a(libc_a-vfiprintf.o)
                0x00000100002937e0                _vfiprintf_r

.text.vfiprintf
                0x00000100002953f0       0x34 load address 0x00000000002953f0
 .text.vfiprintf
                0x00000100002953f0       0x34 /tools/arm-gnu-toolchain-13.2.Rel1-x86_64-aarch64-none-elf/bin/../lib/gcc/aarch64-none-elf/13.2.1/../../../../aarch64-none-elf/lib/libg.a(libc_a-vfiprintf.o)
                0x00000100002953f0                vfiprintf

.text._user_strerror
                0x0000010000295430        0x8 load address 0x0000000000295430
 .text._user_strerror
                0x0000010000295430        0x8 /tools/arm-gnu-toolchain-13.2.Rel1-x86_64-aarch64-none-elf/bin/../lib/gcc/aarch64-none-elf/13.2.1/../../../../aarch64-none-elf/lib/libg.a(libc_a-u_strerr.o)
                0x0000010000295430                _user_strerror

.text.abort     0x0000010000295440       0x18 load address 0x0000000000295440
 .text.abort    0x0000010000295440       0x18 /tools/arm-gnu-toolchain-13.2.Rel1-x86_64-aarch64-none-elf/bin/../lib/gcc/aarch64-none-elf/13.2.1/../../../../aarch64-none-elf/lib/libg.a(libc_a-abort.o)
                0x0000010000295440                abort

.text._mbtowc_r
                0x0000010000295460       0x10 load address 0x0000000000295460
 .text._mbtowc_r
                0x0000010000295460       0x10 /tools/arm-gnu-toolchain-13.2.Rel1-x86_64-aarch64-none-elf/bin/../lib/gcc/aarch64-none-elf/13.2.1/../../../../aarch64-none-elf/lib/libg.a(libc_a-mbtowc_r.o)
                0x0000010000295460                _mbtowc_r

.text.__ascii_mbtowc
                0x0000010000295470       0x48 load address 0x0000000000295470
 .text.__ascii_mbtowc
                0x0000010000295470       0x48 /tools/arm-gnu-toolchain-13.2.Rel1-x86_64-aarch64-none-elf/bin/../lib/gcc/aarch64-none-elf/13.2.1/../../../../aarch64-none-elf/lib/libg.a(libc_a-mbtowc_r.o)
                0x0000010000295470                __ascii_mbtowc

.text.__utf8_mbtowc
                0x00000100002954c0      0x2b8 load address 0x00000000002954c0
 .text.__utf8_mbtowc
                0x00000100002954c0      0x2b8 /tools/arm-gnu-toolchain-13.2.Rel1-x86_64-aarch64-none-elf/bin/../lib/gcc/aarch64-none-elf/13.2.1/../../../../aarch64-none-elf/lib/libg.a(libc_a-mbtowc_r.o)
                0x00000100002954c0                __utf8_mbtowc

.text.__sjis_mbtowc
                0x0000010000295780       0xcc load address 0x0000000000295780
 .text.__sjis_mbtowc
                0x0000010000295780       0xcc /tools/arm-gnu-toolchain-13.2.Rel1-x86_64-aarch64-none-elf/bin/../lib/gcc/aarch64-none-elf/13.2.1/../../../../aarch64-none-elf/lib/libg.a(libc_a-mbtowc_r.o)
                0x0000010000295780                __sjis_mbtowc

.text.__eucjp_mbtowc
                0x0000010000295850      0x124 load address 0x0000000000295850
 .text.__eucjp_mbtowc
                0x0000010000295850      0x124 /tools/arm-gnu-toolchain-13.2.Rel1-x86_64-aarch64-none-elf/bin/../lib/gcc/aarch64-none-elf/13.2.1/../../../../aarch64-none-elf/lib/libg.a(libc_a-mbtowc_r.o)
                0x0000010000295850                __eucjp_mbtowc

.text.__jis_mbtowc
                0x0000010000295980      0x1c0 load address 0x0000000000295980
 .text.__jis_mbtowc
                0x0000010000295980      0x1c0 /tools/arm-gnu-toolchain-13.2.Rel1-x86_64-aarch64-none-elf/bin/../lib/gcc/aarch64-none-elf/13.2.1/../../../../aarch64-none-elf/lib/libg.a(libc_a-mbtowc_r.o)
                0x0000010000295980                __jis_mbtowc

.text.strcat    0x0000010000295b40       0x74 load address 0x0000000000295b40
 .text.strcat   0x0000010000295b40       0x74 /tools/arm-gnu-toolchain-13.2.Rel1-x86_64-aarch64-none-elf/bin/../lib/gcc/aarch64-none-elf/13.2.1/../../../../aarch64-none-elf/lib/libg.a(libc_a-strcat.o)
                0x0000010000295b40                strcat

.text.__retarget_lock_init
                0x0000010000295bc0        0x4 load address 0x0000000000295bc0
 .text.__retarget_lock_init
                0x0000010000295bc0        0x4 /tools/arm-gnu-toolchain-13.2.Rel1-x86_64-aarch64-none-elf/bin/../lib/gcc/aarch64-none-elf/13.2.1/../../../../aarch64-none-elf/lib/libg.a(libc_a-lock.o)
                0x0000010000295bc0                __retarget_lock_init

.text.__retarget_lock_init_recursive
                0x0000010000295bd0        0x4 load address 0x0000000000295bd0
 .text.__retarget_lock_init_recursive
                0x0000010000295bd0        0x4 /tools/arm-gnu-toolchain-13.2.Rel1-x86_64-aarch64-none-elf/bin/../lib/gcc/aarch64-none-elf/13.2.1/../../../../aarch64-none-elf/lib/libg.a(libc_a-lock.o)
                0x0000010000295bd0                __retarget_lock_init_recursive

.text.__retarget_lock_close
                0x0000010000295be0        0x4 load address 0x0000000000295be0
 .text.__retarget_lock_close
                0x0000010000295be0        0x4 /tools/arm-gnu-toolchain-13.2.Rel1-x86_64-aarch64-none-elf/bin/../lib/gcc/aarch64-none-elf/13.2.1/../../../../aarch64-none-elf/lib/libg.a(libc_a-lock.o)
                0x0000010000295be0                __retarget_lock_close

.text.__retarget_lock_close_recursive
                0x0000010000295bf0        0x4 load address 0x0000000000295bf0
 .text.__retarget_lock_close_recursive
                0x0000010000295bf0        0x4 /tools/arm-gnu-toolchain-13.2.Rel1-x86_64-aarch64-none-elf/bin/../lib/gcc/aarch64-none-elf/13.2.1/../../../../aarch64-none-elf/lib/libg.a(libc_a-lock.o)
                0x0000010000295bf0                __retarget_lock_close_recursive

.text.__retarget_lock_acquire
                0x0000010000295c00        0x4 load address 0x0000000000295c00
 .text.__retarget_lock_acquire
                0x0000010000295c00        0x4 /tools/arm-gnu-toolchain-13.2.Rel1-x86_64-aarch64-none-elf/bin/../lib/gcc/aarch64-none-elf/13.2.1/../../../../aarch64-none-elf/lib/libg.a(libc_a-lock.o)
                0x0000010000295c00                __retarget_lock_acquire

.text.__retarget_lock_acquire_recursive
                0x0000010000295c10        0x4 load address 0x0000000000295c10
 .text.__retarget_lock_acquire_recursive
                0x0000010000295c10        0x4 /tools/arm-gnu-toolchain-13.2.Rel1-x86_64-aarch64-none-elf/bin/../lib/gcc/aarch64-none-elf/13.2.1/../../../../aarch64-none-elf/lib/libg.a(libc_a-lock.o)
                0x0000010000295c10                __retarget_lock_acquire_recursive

.text.__retarget_lock_try_acquire
                0x0000010000295c20        0x8 load address 0x0000000000295c20
 .text.__retarget_lock_try_acquire
                0x0000010000295c20        0x8 /tools/arm-gnu-toolchain-13.2.Rel1-x86_64-aarch64-none-elf/bin/../lib/gcc/aarch64-none-elf/13.2.1/../../../../aarch64-none-elf/lib/libg.a(libc_a-lock.o)
                0x0000010000295c20                __retarget_lock_try_acquire

.text.__retarget_lock_try_acquire_recursive
                0x0000010000295c30        0x8 load address 0x0000000000295c30
 .text.__retarget_lock_try_acquire_recursive
                0x0000010000295c30        0x8 /tools/arm-gnu-toolchain-13.2.Rel1-x86_64-aarch64-none-elf/bin/../lib/gcc/aarch64-none-elf/13.2.1/../../../../aarch64-none-elf/lib/libg.a(libc_a-lock.o)
                0x0000010000295c30                __retarget_lock_try_acquire_recursive

.text.__retarget_lock_release
                0x0000010000295c40        0x4 load address 0x0000000000295c40
 .text.__retarget_lock_release
                0x0000010000295c40        0x4 /tools/arm-gnu-toolchain-13.2.Rel1-x86_64-aarch64-none-elf/bin/../lib/gcc/aarch64-none-elf/13.2.1/../../../../aarch64-none-elf/lib/libg.a(libc_a-lock.o)
                0x0000010000295c40                __retarget_lock_release

.text.__retarget_lock_release_recursive
                0x0000010000295c50        0x4 load address 0x0000000000295c50
 .text.__retarget_lock_release_recursive
                0x0000010000295c50        0x4 /tools/arm-gnu-toolchain-13.2.Rel1-x86_64-aarch64-none-elf/bin/../lib/gcc/aarch64-none-elf/13.2.1/../../../../aarch64-none-elf/lib/libg.a(libc_a-lock.o)
                0x0000010000295c50                __retarget_lock_release_recursive

.text._fclose_r
                0x0000010000295c60      0x13c load address 0x0000000000295c60
 .text._fclose_r
                0x0000010000295c60      0x13c /tools/arm-gnu-toolchain-13.2.Rel1-x86_64-aarch64-none-elf/bin/../lib/gcc/aarch64-none-elf/13.2.1/../../../../aarch64-none-elf/lib/libg.a(libc_a-fclose.o)
                0x0000010000295c60                _fclose_r

.text.fclose    0x0000010000295da0       0x10 load address 0x0000000000295da0
 .text.fclose   0x0000010000295da0       0x10 /tools/arm-gnu-toolchain-13.2.Rel1-x86_64-aarch64-none-elf/bin/../lib/gcc/aarch64-none-elf/13.2.1/../../../../aarch64-none-elf/lib/libg.a(libc_a-fclose.o)
                0x0000010000295da0                fclose

.text.__swsetup_r
                0x0000010000295db0      0x130 load address 0x0000000000295db0
 .text.__swsetup_r
                0x0000010000295db0      0x130 /tools/arm-gnu-toolchain-13.2.Rel1-x86_64-aarch64-none-elf/bin/../lib/gcc/aarch64-none-elf/13.2.1/../../../../aarch64-none-elf/lib/libg.a(libc_a-wsetup.o)
                0x0000010000295db0                __swsetup_r

.text.__smakebuf_r
                0x0000010000295ee0      0x150 load address 0x0000000000295ee0
 .text.__smakebuf_r
                0x0000010000295ee0      0x150 /tools/arm-gnu-toolchain-13.2.Rel1-x86_64-aarch64-none-elf/bin/../lib/gcc/aarch64-none-elf/13.2.1/../../../../aarch64-none-elf/lib/libg.a(libc_a-makebuf.o)
                0x0000010000295ee0                __smakebuf_r

.text.__swhatbuf_r
                0x0000010000296030       0x94 load address 0x0000000000296030
 .text.__swhatbuf_r
                0x0000010000296030       0x94 /tools/arm-gnu-toolchain-13.2.Rel1-x86_64-aarch64-none-elf/bin/../lib/gcc/aarch64-none-elf/13.2.1/../../../../aarch64-none-elf/lib/libg.a(libc_a-makebuf.o)
                0x0000010000296030                __swhatbuf_r

.text._putc_r   0x00000100002960d0       0xe0 load address 0x00000000002960d0
 .text._putc_r  0x00000100002960d0       0xe0 /tools/arm-gnu-toolchain-13.2.Rel1-x86_64-aarch64-none-elf/bin/../lib/gcc/aarch64-none-elf/13.2.1/../../../../aarch64-none-elf/lib/libg.a(libc_a-putc.o)
                0x00000100002960d0                _putc_r

.text.putc      0x00000100002961b0       0xe8 load address 0x00000000002961b0
 .text.putc     0x00000100002961b0       0xe8 /tools/arm-gnu-toolchain-13.2.Rel1-x86_64-aarch64-none-elf/bin/../lib/gcc/aarch64-none-elf/13.2.1/../../../../aarch64-none-elf/lib/libg.a(libc_a-putc.o)
                0x00000100002961b0                putc

.text._wcsnrtombs_l
                0x00000100002962a0      0x1a4 load address 0x00000000002962a0
 .text._wcsnrtombs_l
                0x00000100002962a0      0x1a4 /tools/arm-gnu-toolchain-13.2.Rel1-x86_64-aarch64-none-elf/bin/../lib/gcc/aarch64-none-elf/13.2.1/../../../../aarch64-none-elf/lib/libg.a(libc_a-wcsnrtombs.o)
                0x00000100002962a0                _wcsnrtombs_l

.text._wcsnrtombs_r
                0x0000010000296450       0x14 load address 0x0000000000296450
 .text._wcsnrtombs_r
                0x0000010000296450       0x14 /tools/arm-gnu-toolchain-13.2.Rel1-x86_64-aarch64-none-elf/bin/../lib/gcc/aarch64-none-elf/13.2.1/../../../../aarch64-none-elf/lib/libg.a(libc_a-wcsnrtombs.o)
                0x0000010000296450                _wcsnrtombs_r

.text.wcsnrtombs
                0x0000010000296470       0x38 load address 0x0000000000296470
 .text.wcsnrtombs
                0x0000010000296470       0x38 /tools/arm-gnu-toolchain-13.2.Rel1-x86_64-aarch64-none-elf/bin/../lib/gcc/aarch64-none-elf/13.2.1/../../../../aarch64-none-elf/lib/libg.a(libc_a-wcsnrtombs.o)
                0x0000010000296470                wcsnrtombs

.text._close_r  0x00000100002964b0       0x4c load address 0x00000000002964b0
 .text._close_r
                0x00000100002964b0       0x4c /tools/arm-gnu-toolchain-13.2.Rel1-x86_64-aarch64-none-elf/bin/../lib/gcc/aarch64-none-elf/13.2.1/../../../../aarch64-none-elf/lib/libg.a(libc_a-closer.o)
                0x00000100002964b0                _close_r

.text.__sflush_r
                0x0000010000296500      0x200 load address 0x0000000000296500
 .text.__sflush_r
                0x0000010000296500      0x200 /tools/arm-gnu-toolchain-13.2.Rel1-x86_64-aarch64-none-elf/bin/../lib/gcc/aarch64-none-elf/13.2.1/../../../../aarch64-none-elf/lib/libg.a(libc_a-fflush.o)
                0x0000010000296500                __sflush_r

.text._fflush_r
                0x0000010000296700       0xb8 load address 0x0000000000296700
 .text._fflush_r
                0x0000010000296700       0xb8 /tools/arm-gnu-toolchain-13.2.Rel1-x86_64-aarch64-none-elf/bin/../lib/gcc/aarch64-none-elf/13.2.1/../../../../aarch64-none-elf/lib/libg.a(libc_a-fflush.o)
                0x0000010000296700                _fflush_r

.text.fflush    0x00000100002967c0       0xb8 load address 0x00000000002967c0
 .text.fflush   0x00000100002967c0       0xb8 /tools/arm-gnu-toolchain-13.2.Rel1-x86_64-aarch64-none-elf/bin/../lib/gcc/aarch64-none-elf/13.2.1/../../../../aarch64-none-elf/lib/libg.a(libc_a-fflush.o)
                0x00000100002967c0                fflush

.text._realloc_r
                0x0000010000296880      0x524 load address 0x0000000000296880
 .text._realloc_r
                0x0000010000296880      0x524 /tools/arm-gnu-toolchain-13.2.Rel1-x86_64-aarch64-none-elf/bin/../lib/gcc/aarch64-none-elf/13.2.1/../../../../aarch64-none-elf/lib/libg.a(libc_a-reallocr.o)
                0x0000010000296880                _realloc_r

.text.__env_lock
                0x0000010000296db0        0xc load address 0x0000000000296db0
 .text.__env_lock
                0x0000010000296db0        0xc /tools/arm-gnu-toolchain-13.2.Rel1-x86_64-aarch64-none-elf/bin/../lib/gcc/aarch64-none-elf/13.2.1/../../../../aarch64-none-elf/lib/libg.a(libc_a-envlock.o)
                0x0000010000296db0                __env_lock

.text.__env_unlock
                0x0000010000296dc0        0xc load address 0x0000000000296dc0
 .text.__env_unlock
                0x0000010000296dc0        0xc /tools/arm-gnu-toolchain-13.2.Rel1-x86_64-aarch64-none-elf/bin/../lib/gcc/aarch64-none-elf/13.2.1/../../../../aarch64-none-elf/lib/libg.a(libc_a-envlock.o)
                0x0000010000296dc0                __env_unlock

.text._fstat_r  0x0000010000296dd0       0x50 load address 0x0000000000296dd0
 .text._fstat_r
                0x0000010000296dd0       0x50 /tools/arm-gnu-toolchain-13.2.Rel1-x86_64-aarch64-none-elf/bin/../lib/gcc/aarch64-none-elf/13.2.1/../../../../aarch64-none-elf/lib/libg.a(libc_a-fstatr.o)
                0x0000010000296dd0                _fstat_r

.text._init_signal_r
                0x0000010000296e20       0x5c load address 0x0000000000296e20
 .text._init_signal_r
                0x0000010000296e20       0x5c /tools/arm-gnu-toolchain-13.2.Rel1-x86_64-aarch64-none-elf/bin/../lib/gcc/aarch64-none-elf/13.2.1/../../../../aarch64-none-elf/lib/libg.a(libc_a-signal.o)
                0x0000010000296e20                _init_signal_r

.text._signal_r
                0x0000010000296e80       0x78 load address 0x0000000000296e80
 .text._signal_r
                0x0000010000296e80       0x78 /tools/arm-gnu-toolchain-13.2.Rel1-x86_64-aarch64-none-elf/bin/../lib/gcc/aarch64-none-elf/13.2.1/../../../../aarch64-none-elf/lib/libg.a(libc_a-signal.o)
                0x0000010000296e80                _signal_r

.text._raise_r  0x0000010000296f00       0xa4 load address 0x0000000000296f00
 .text._raise_r
                0x0000010000296f00       0xa4 /tools/arm-gnu-toolchain-13.2.Rel1-x86_64-aarch64-none-elf/bin/../lib/gcc/aarch64-none-elf/13.2.1/../../../../aarch64-none-elf/lib/libg.a(libc_a-signal.o)
                0x0000010000296f00                _raise_r

.text.__sigtramp_r
                0x0000010000296fb0       0xc0 load address 0x0000000000296fb0
 .text.__sigtramp_r
                0x0000010000296fb0       0xc0 /tools/arm-gnu-toolchain-13.2.Rel1-x86_64-aarch64-none-elf/bin/../lib/gcc/aarch64-none-elf/13.2.1/../../../../aarch64-none-elf/lib/libg.a(libc_a-signal.o)
                0x0000010000296fb0                __sigtramp_r

.text.raise     0x0000010000297070       0xa4 load address 0x0000000000297070
 .text.raise    0x0000010000297070       0xa4 /tools/arm-gnu-toolchain-13.2.Rel1-x86_64-aarch64-none-elf/bin/../lib/gcc/aarch64-none-elf/13.2.1/../../../../aarch64-none-elf/lib/libg.a(libc_a-signal.o)
                0x0000010000297070                raise

.text.signal    0x0000010000297120       0x88 load address 0x0000000000297120
 .text.signal   0x0000010000297120       0x88 /tools/arm-gnu-toolchain-13.2.Rel1-x86_64-aarch64-none-elf/bin/../lib/gcc/aarch64-none-elf/13.2.1/../../../../aarch64-none-elf/lib/libg.a(libc_a-signal.o)
                0x0000010000297120                signal

.text._init_signal
                0x00000100002971b0       0x60 load address 0x00000000002971b0
 .text._init_signal
                0x00000100002971b0       0x60 /tools/arm-gnu-toolchain-13.2.Rel1-x86_64-aarch64-none-elf/bin/../lib/gcc/aarch64-none-elf/13.2.1/../../../../aarch64-none-elf/lib/libg.a(libc_a-signal.o)
                0x00000100002971b0                _init_signal

.text.__sigtramp
                0x0000010000297210       0xc0 load address 0x0000000000297210
 .text.__sigtramp
                0x0000010000297210       0xc0 /tools/arm-gnu-toolchain-13.2.Rel1-x86_64-aarch64-none-elf/bin/../lib/gcc/aarch64-none-elf/13.2.1/../../../../aarch64-none-elf/lib/libg.a(libc_a-signal.o)
                0x0000010000297210                __sigtramp

.text._isatty_r
                0x00000100002972d0       0x4c load address 0x00000000002972d0
 .text._isatty_r
                0x00000100002972d0       0x4c /tools/arm-gnu-toolchain-13.2.Rel1-x86_64-aarch64-none-elf/bin/../lib/gcc/aarch64-none-elf/13.2.1/../../../../aarch64-none-elf/lib/libg.a(libc_a-isattyr.o)
                0x00000100002972d0                _isatty_r

.text._lseek_r  0x0000010000297320       0x54 load address 0x0000000000297320
 .text._lseek_r
                0x0000010000297320       0x54 /tools/arm-gnu-toolchain-13.2.Rel1-x86_64-aarch64-none-elf/bin/../lib/gcc/aarch64-none-elf/13.2.1/../../../../aarch64-none-elf/lib/libg.a(libc_a-lseekr.o)
                0x0000010000297320                _lseek_r

.text._read_r   0x0000010000297380       0x60 load address 0x0000000000297380
 .text._read_r  0x0000010000297380       0x60 /tools/arm-gnu-toolchain-13.2.Rel1-x86_64-aarch64-none-elf/bin/../lib/gcc/aarch64-none-elf/13.2.1/../../../../aarch64-none-elf/lib/libg.a(libc_a-readr.o)
                0x0000010000297380                _read_r

.text.__fputwc  0x00000100002973e0       0xe0 load address 0x00000000002973e0
 .text.__fputwc
                0x00000100002973e0       0xe0 /tools/arm-gnu-toolchain-13.2.Rel1-x86_64-aarch64-none-elf/bin/../lib/gcc/aarch64-none-elf/13.2.1/../../../../aarch64-none-elf/lib/libg.a(libc_a-fputwc.o)
                0x00000100002973e0                __fputwc

.text._fputwc_r
                0x00000100002974c0       0x9c load address 0x00000000002974c0
 .text._fputwc_r
                0x00000100002974c0       0x9c /tools/arm-gnu-toolchain-13.2.Rel1-x86_64-aarch64-none-elf/bin/../lib/gcc/aarch64-none-elf/13.2.1/../../../../aarch64-none-elf/lib/libg.a(libc_a-fputwc.o)
                0x00000100002974c0                _fputwc_r

.text.fputwc    0x0000010000297560       0xc4 load address 0x0000000000297560
 .text.fputwc   0x0000010000297560       0xc4 /tools/arm-gnu-toolchain-13.2.Rel1-x86_64-aarch64-none-elf/bin/../lib/gcc/aarch64-none-elf/13.2.1/../../../../aarch64-none-elf/lib/libg.a(libc_a-fputwc.o)
                0x0000010000297560                fputwc

.text._kill_r   0x0000010000297630       0x50 load address 0x0000000000297630
 .text._kill_r  0x0000010000297630       0x50 /tools/arm-gnu-toolchain-13.2.Rel1-x86_64-aarch64-none-elf/bin/../lib/gcc/aarch64-none-elf/13.2.1/../../../../aarch64-none-elf/lib/libg.a(libc_a-signalr.o)
                0x0000010000297630                _kill_r

.text._getpid_r
                0x0000010000297680        0x4 load address 0x0000000000297680
 .text._getpid_r
                0x0000010000297680        0x4 /tools/arm-gnu-toolchain-13.2.Rel1-x86_64-aarch64-none-elf/bin/../lib/gcc/aarch64-none-elf/13.2.1/../../../../aarch64-none-elf/lib/libg.a(libc_a-signalr.o)
                0x0000010000297680                _getpid_r

.text.__swbuf_r
                0x0000010000297690      0x138 load address 0x0000000000297690
 .text.__swbuf_r
                0x0000010000297690      0x138 /tools/arm-gnu-toolchain-13.2.Rel1-x86_64-aarch64-none-elf/bin/../lib/gcc/aarch64-none-elf/13.2.1/../../../../aarch64-none-elf/lib/libg.a(libc_a-wbuf.o)
                0x0000010000297690                __swbuf_r

.text.__swbuf   0x00000100002977d0       0x14 load address 0x00000000002977d0
 .text.__swbuf  0x00000100002977d0       0x14 /tools/arm-gnu-toolchain-13.2.Rel1-x86_64-aarch64-none-elf/bin/../lib/gcc/aarch64-none-elf/13.2.1/../../../../aarch64-none-elf/lib/libg.a(libc_a-wbuf.o)
                0x00000100002977d0                __swbuf

.text.__trunctfdf2
                0x00000100002977f0      0x3c4 load address 0x00000000002977f0
 .text.__trunctfdf2
                0x00000100002977f0      0x3c4 /tools/arm-gnu-toolchain-13.2.Rel1-x86_64-aarch64-none-elf/bin/../lib/gcc/aarch64-none-elf/13.2.1/libgcc.a(trunctfdf2.o)
                0x00000100002977f0                __trunctfdf2

.text.__sfp_handle_exceptions
                0x0000010000297bc0       0x70 load address 0x0000000000297bc0
 .text.__sfp_handle_exceptions
                0x0000010000297bc0       0x70 /tools/arm-gnu-toolchain-13.2.Rel1-x86_64-aarch64-none-elf/bin/../lib/gcc/aarch64-none-elf/13.2.1/libgcc.a(sfp-exceptions.o)
                0x0000010000297bc0                __sfp_handle_exceptions

.init_func      0x0000010000297c30       0x80 load address 0x0000000000297c30
                0x0000010000297c30                start_init_func = .
 *(SORT_BY_NAME(.init_func_[_A-Z0-9]*))
 .init_func_0   0x0000010000297c30        0x8 build/drivers/intc/libintc.a(gicv3.c.o)
 .init_func_1   0x0000010000297c38        0x8 build/drivers/uart/CMakeFiles/uart.dir/uart.c.o
 .init_func_1   0x0000010000297c40        0x8 build/drivers/rbc/CMakeFiles/rbc.dir/rbc_driver.c.o
 .init_func_1   0x0000010000297c48        0x8 build/drivers/qspi/qspi_apb/CMakeFiles/qspi_apb.dir/qspi_apb.c.o
 .init_func_10  0x0000010000297c50        0x8 build/drivers/hbm3/CMakeFiles/hbm3.dir/hbm3_irq.c.o
 .init_func_4   0x0000010000297c58        0x8 build/drivers/dma/CMakeFiles/dma.dir/pl330.c.o
 .init_func_4   0x0000010000297c60        0x8 build/drivers/smmu/CMakeFiles/smmu.dir/smmu.c.o
 .init_func_5   0x0000010000297c68        0x8 build/drivers/gpio/CMakeFiles/gpio.dir/gpio.c.o
 .init_func_5   0x0000010000297c70        0x8 build/drivers/pvt_con/CMakeFiles/pvt_con.dir/pvt_con.c.o
 .init_func_5   0x0000010000297c78        0x8 build/drivers/watchdog/CMakeFiles/watchdog.dir/dw_apb_wdt.c.o
 .init_func_5   0x0000010000297c80        0x8 build/drivers/rbcm/CMakeFiles/rbcm.dir/rbcm_driver.c.o
 .init_func_5   0x0000010000297c88        0x8 build/drivers/noc_logger/CMakeFiles/noc_logger.dir/noc_logger.c.o
 .init_func_5   0x0000010000297c90        0x8 build/drivers/timer/dw_apb_timer/CMakeFiles/dw_apb_timer.dir/dw_apb_timer.c.o
 .init_func_6   0x0000010000297c98        0x8 build/drivers/i2c/CMakeFiles/i2c.dir/i2c.c.o
 .init_func_8   0x0000010000297ca0        0x8 build/drivers/mailbox/CMakeFiles/mailbox.dir/mailbox.c.o
 .init_func_9   0x0000010000297ca8        0x8 build/drivers/hbm3/CMakeFiles/hbm3.dir/hbm3.c.o
                0x0000010000297cb0                end_init_func = .

.rela.dyn       0x0000010000297cb0        0x0 load address 0x0000000000297cb0
 .rela.iplt     0x0000010000297cb0        0x0 CMakeFiles/freertos_kernel.elf.dir/main.c.o
 .rela.text     0x0000010000297cb0        0x0 CMakeFiles/freertos_kernel.elf.dir/main.c.o
 .rela.data     0x0000010000297cb0        0x0 CMakeFiles/freertos_kernel.elf.dir/main.c.o
 .rela.rodata   0x0000010000297cb0        0x0 CMakeFiles/freertos_kernel.elf.dir/main.c.o
 .rela.text.startup
                0x0000010000297cb0        0x0 CMakeFiles/freertos_kernel.elf.dir/main.c.o
                0x0000010000298000                . = ALIGN (mmu_page_size)
                0x0000010000298000                text_region_end = .
                0x0000010000298000                rodata_region_start = .

.rodata         0x0000010000298000    0x29438 load address 0x0000000000298000
                0x0000010000298000                rodata_start = .
 *(.rodata .rodata.*)
 .rodata.str1.8
                0x0000010000298000    0x20e7d CMakeFiles/freertos_kernel.elf.dir/main.c.o
                                         0xe2 (size before relaxing)
 .rodata.str1.8
                0x00000100002b8e7d       0x5a build/drivers/mailbox/CMakeFiles/mailbox.dir/mailbox_cb.c.o
 *fill*         0x00000100002b8e7d        0x3 
 .rodata        0x00000100002b8e80        0xb build/drivers/mailbox/CMakeFiles/mailbox.dir/mailbox_cb.c.o
 .rodata.str1.8
                0x00000100002b8e8b       0x63 build/drivers/dma/CMakeFiles/dma.dir/pl330.c.o
 *fill*         0x00000100002b8e8b        0x5 
 .rodata        0x00000100002b8e90       0x18 build/drivers/dma/CMakeFiles/dma.dir/pl330.c.o
 .rodata.str1.8
                0x00000100002b8ea8      0x7eb build/drivers/smmu/CMakeFiles/smmu.dir/smmu.c.o
 .rodata        0x00000100002b8ea8       0x20 build/drivers/smmu/CMakeFiles/smmu.dir/smmu.c.o
 .rodata.str1.8
                0x00000100002b8ec8       0xd4 build/drivers/smmu/CMakeFiles/smmu.dir/smmu_pmu.c.o
 .rodata        0x00000100002b8ec8      0x1b8 build/drivers/cmu/CMakeFiles/cmu.dir/cmu.c.o
 .rodata.str1.8
                0x00000100002b9080      0x2b3 build/drivers/rbc/CMakeFiles/rbc.dir/aw_ucie.c.o
 .rodata        0x00000100002b9080       0x80 build/drivers/rbc/CMakeFiles/rbc.dir/aw_ucie.c.o
 .rodata.str1.8
                0x00000100002b9100        0xa build/drivers/rbc/CMakeFiles/rbc.dir/rbc_driver.c.o
 .rodata        0x00000100002b9100      0x110 build/drivers/rbc/CMakeFiles/rbc.dir/rbc_driver.c.o
 .rodata.str1.8
                0x00000100002b9210       0xda build/drivers/rbc/CMakeFiles/rbc.dir/rbc_cmd.c.o
 .rodata        0x00000100002b9210      0x200 build/drivers/rbc/CMakeFiles/rbc.dir/rbc_cmd.c.o
                0x00000100002b9210                link_stat_base_addr
                0x00000100002b9290                link_cap_base_addr
                0x00000100002b9310                crc_err_count_base
                0x00000100002b9390                scratch_reg3_base_addr
 .rodata.str1.8
                0x00000100002b9410     0x1156 build/drivers/rbcm/CMakeFiles/rbcm.dir/rbcm_core.c.o
 .rodata        0x00000100002b9410      0x288 build/drivers/rbcm/CMakeFiles/rbcm.dir/rbcm_core.c.o
 .rodata.str1.8
                0x00000100002b9698      0x157 build/drivers/rbcm/CMakeFiles/rbcm.dir/rbcm_driver.c.o
 .rodata.str1.8
                0x00000100002b9698       0x20 build/drivers/i2c/CMakeFiles/i2c.dir/i2c.c.o
 .rodata.str1.8
                0x00000100002b9698      0x434 build/drivers/noc_logger/CMakeFiles/noc_logger.dir/noc_logger.c.o
 .rodata        0x00000100002b9698       0x90 build/drivers/noc_logger/CMakeFiles/noc_logger.dir/noc_logger.c.o
 .rodata.str1.8
                0x00000100002b9728      0xf2d build/drivers/hbm3/CMakeFiles/hbm3.dir/icon.c.o
 .rodata        0x00000100002b9728       0xec build/drivers/hbm3/CMakeFiles/hbm3.dir/icon.c.o
 .rodata.str1.8
                0x00000100002b9814      0x79e build/drivers/hbm3/CMakeFiles/hbm3.dir/hbm3_irq.c.o
 .rodata        0x00000100002b9814       0x36 build/drivers/hbm3/CMakeFiles/hbm3.dir/hbm3_irq.c.o
 .rodata.str1.8
                0x00000100002b984a      0xc79 build/drivers/hbm3/CMakeFiles/hbm3.dir/hbm3_am.c.o
 .rodata.str1.8
                0x00000100002b984a       0x1e build/drivers/dvfs/CMakeFiles/dvfs.dir/dvfs.c.o
 .rodata.str1.8
                0x00000100002b984a       0x9a build/tests/common/CMakeFiles/test_common.dir/test_mailbox_cb.c.o
 *fill*         0x00000100002b984a        0x6 
 .rodata        0x00000100002b9850        0x8 build/tests/common/CMakeFiles/test_common.dir/test_mailbox_cb.c.o
 .rodata.str1.8
                0x00000100002b9858      0x275 build/tests/interrupt_test_helper_example/CMakeFiles/interrupt_test_helper_example.dir/example_test.c.o
 .rodata.str1.8
                0x00000100002b9858       0x4c build/tests/arch/CMakeFiles/test_arch.dir/test_cli.c.o
 .rodata        0x00000100002b9858       0x29 build/tests/arch/CMakeFiles/test_arch.dir/test_cli.c.o
 .rodata.str1.8
                0x00000100002b9881      0x4cd build/tests/gpio/CMakeFiles/test_gpio.dir/test_gpio.c.o
 *fill*         0x00000100002b9881        0x7 
 .rodata        0x00000100002b9888       0x1f build/tests/gpio/CMakeFiles/test_gpio.dir/test_gpio.c.o
 .rodata.str1.8
                0x00000100002b98a7       0x51 build/tests/dma/CMakeFiles/test_dma.dir/test_dma_main.c.o
 *fill*         0x00000100002b98a7        0x1 
 .rodata        0x00000100002b98a8       0x41 build/tests/dma/CMakeFiles/test_dma.dir/test_dma_main.c.o
 .rodata.str1.8
                0x00000100002b98e9       0xb3 build/tests/mailbox/CMakeFiles/mailbox_test.dir/test_mailbox_main.c.o
 *fill*         0x00000100002b98e9        0x7 
 .rodata        0x00000100002b98f0      0x5f2 build/tests/mailbox/CMakeFiles/mailbox_test.dir/test_mailbox_main.c.o
 .rodata.str1.8
                0x00000100002b9ee2      0x102 build/tests/pvt_con/CMakeFiles/test_pvt_con.dir/test_pvt_con.c.o
 *fill*         0x00000100002b9ee2        0x6 
 .rodata        0x00000100002b9ee8       0x2f build/tests/pvt_con/CMakeFiles/test_pvt_con.dir/test_pvt_con.c.o
 .rodata.str1.8
                0x00000100002b9f17       0x65 build/tests/arch/arm64/CMakeFiles/test_arm64.dir/test_ca73.c.o
 *fill*         0x00000100002b9f17        0x1 
 .rodata        0x00000100002b9f18       0x2d build/tests/arch/arm64/CMakeFiles/test_arm64.dir/test_ca73.c.o
 .rodata.str1.8
                0x00000100002b9f45       0xba build/tests/timer/dw_apb_timer/CMakeFiles/test_dw_apb_timer.dir/test_dw_apb_timer.c.o
 *fill*         0x00000100002b9f45        0x3 
 .rodata        0x00000100002b9f48       0x31 build/tests/timer/dw_apb_timer/CMakeFiles/test_dw_apb_timer.dir/test_dw_apb_timer.c.o
 .rodata.str1.8
                0x00000100002b9f79     0x292d build/tests/cmu/CMakeFiles/test_cmu.dir/test_cmu_main.c.o
 *fill*         0x00000100002b9f79        0x7 
 .rodata        0x00000100002b9f80      0x28a build/tests/cmu/CMakeFiles/test_cmu.dir/test_cmu_main.c.o
 .rodata.str1.8
                0x00000100002ba20a       0xa9 build/tests/smmu/CMakeFiles/test_mmu.dir/test_mmu_main.c.o
 *fill*         0x00000100002ba20a        0x6 
 .rodata        0x00000100002ba210       0x4c build/tests/smmu/CMakeFiles/test_mmu.dir/test_mmu_main.c.o
 .rodata.str1.8
                0x00000100002ba25c      0xa7e build/tests/log/CMakeFiles/show_log.dir/rebel_h_log.c.o
 *fill*         0x00000100002ba25c        0x4 
 .rodata        0x00000100002ba260      0x408 build/tests/log/CMakeFiles/show_log.dir/rebel_h_log.c.o
 .rodata.str1.8
                0x00000100002ba668      0x16e build/tests/rbc/CMakeFiles/test_rbc.dir/test/all_test.c.o
 .rodata        0x00000100002ba668       0x17 build/tests/rbc/CMakeFiles/test_rbc.dir/test/all_test.c.o
 .rodata.str1.8
                0x00000100002ba67f      0xbd8 build/tests/rbc/CMakeFiles/test_rbc.dir/test/test_aw_ucie_init.c.o
 .rodata.str1.8
                0x00000100002ba67f     0x15ea build/tests/rbc/CMakeFiles/test_rbc.dir/test/test_aw_ucie_d2d_comp.c.o
 .rodata.str1.8
                0x00000100002ba67f      0x577 build/tests/rbc/CMakeFiles/test_rbc.dir/test/test_aw_ucie_d2d_err_and_link.c.o
 .rodata.str1.8
                0x00000100002ba67f      0x2e4 build/tests/rbc/CMakeFiles/test_rbc.dir/test/test_aw_ucie_retraining.c.o
 .rodata.str1.8
                0x00000100002ba67f      0x497 build/tests/rbc/CMakeFiles/test_rbc.dir/test/test_aw_ucie_sideband.c.o
 .rodata.str1.8
                0x00000100002ba67f      0xdb0 build/tests/rbc/CMakeFiles/test_rbc.dir/test/test_aw_ucie_training.c.o
 .rodata.str1.8
                0x00000100002ba67f     0x452a build/tests/rbc/CMakeFiles/test_rbc.dir/test/test_aw_ucie_runtime_link_test.c.o
 .rodata.str1.8
                0x00000100002ba67f     0x3146 build/tests/rbc/CMakeFiles/test_rbc.dir/test/test_aw_ucie_phy_compliance_test.c.o
 .rodata.str1.8
                0x00000100002ba67f      0xf0a build/tests/rbc/CMakeFiles/test_rbc.dir/test/test_aw_ucie_exception.c.o
 *fill*         0x00000100002ba67f        0x1 
 .rodata        0x00000100002ba680       0x20 build/tests/rbc/CMakeFiles/test_rbc.dir/test/test_aw_ucie_exception.c.o
 .rodata.str1.8
                0x00000100002ba6a0      0x461 build/tests/rbc/CMakeFiles/test_rbc.dir/test/test_aw_ucie_eye_of_margin.c.o
 .rodata        0x00000100002ba6a0       0x30 build/tests/rbc/CMakeFiles/test_rbc.dir/test/test_aw_ucie_util.c.o
 .rodata.str1.8
                0x00000100002ba6d0       0xda build/tests/rbc/CMakeFiles/test_rbc.dir/test/test_fake_timer.c.o
 .rodata.str1.8
                0x00000100002ba6d0      0x2aa build/tests/rbc/CMakeFiles/test_rbc.dir/test/test_rbc_driver.c.o
 .rodata.str1.8
                0x00000100002ba6d0      0xa49 build/tests/rbcm/CMakeFiles/test_rbcm.dir/rbcm_test.c.o
 .rodata        0x00000100002ba6d0     0x1576 build/tests/rbcm/CMakeFiles/test_rbcm.dir/rbcm_test.c.o
                0x00000100002baab0                rbcm_test_all_help
                0x00000100002bac40                rbcm_reg_acc_test_help
                0x00000100002bad40                rbcm_check_ucie_help
                0x00000100002badb0                rbcm_disable_irq_help
                0x00000100002baf70                rbcm_enable_irq_help
                0x00000100002bb138                rbcm_get_timeout_help
                0x00000100002bb1f0                rbcm_set_timeout_help
                0x00000100002bb2d0                rbcm_set_loopback_help
                0x00000100002bb408                rbcm_addr_remap_help
                0x00000100002bb588                rbcm_utg_read_help
                0x00000100002bb708                rbcm_utg_write_help
                0x00000100002bb898                rbcm_clear_ttreg_help
                0x00000100002bb938                rbcm_dump_incomplete_ttreg_help
                0x00000100002bba38                rbcm_scan_ttreg_help
                0x00000100002bbb88                rbcm_sw_reset_help
                0x00000100002bbbe0                rbcm_check_crc_help
 .rodata.str1.8
                0x00000100002bbc46       0x31 build/tests/rbcm/CMakeFiles/test_rbcm.dir/rbcm_reg_access_test.c.o
 .rodata.str1.8
                0x00000100002bbc46      0x131 build/tests/i2c/CMakeFiles/test_i2c.dir/test_i2c_main.c.o
 *fill*         0x00000100002bbc46        0x2 
 .rodata        0x00000100002bbc48      0x107 build/tests/i2c/CMakeFiles/test_i2c.dir/test_i2c_main.c.o
 .rodata.str1.8
                0x00000100002bbd4f      0x1fe build/tests/hbm3/CMakeFiles/hbm3_test.dir/memtest.c.o
 *fill*         0x00000100002bbd4f        0x1 
 .rodata        0x00000100002bbd50       0x53 build/tests/hbm3/CMakeFiles/hbm3_test.dir/memtest.c.o
 .rodata.str1.8
                0x00000100002bbda3       0x49 build/tests/hbm3/CMakeFiles/hbm3_test.dir/hbm3_irq_test.c.o
 *fill*         0x00000100002bbda3        0x5 
 .rodata        0x00000100002bbda8       0x2b build/tests/hbm3/CMakeFiles/hbm3_test.dir/hbm3_irq_test.c.o
 .rodata.str1.8
                0x00000100002bbdd3      0x209 build/tests/system_test/CMakeFiles/system_test.dir/test_system.c.o
 *fill*         0x00000100002bbdd3        0x5 
 .rodata        0x00000100002bbdd8       0x28 build/tests/system_test/CMakeFiles/system_test.dir/test_system.c.o
                0x00000100002bbdf8                CA73_VIRTUAL_ADDR_BASE
 .rodata.str1.8
                0x00000100002bbe00       0x37 build/tests/system_test/CMakeFiles/system_test.dir/dma_transaction.c.o
 .rodata.str1.8
                0x00000100002bbe00      0x2da build/tests/system_test/CMakeFiles/system_test.dir/test_dma_transaction.c.o
 .rodata.str1.8
                0x00000100002bbe00       0x28 build/tests/system_test/CMakeFiles/system_test.dir/data_process.c.o
 .rodata.cst8   0x00000100002bbe00       0x70 build/tests/system_test/CMakeFiles/system_test.dir/data_process.c.o
                                          0x8 (size before relaxing)
 .rodata.str1.8
                0x00000100002bbe70      0x3c3 build/tests/system_test/CMakeFiles/system_test.dir/test_data_process.c.o
 .rodata.str1.8
                0x00000100002bbe70      0x17a build/tests/dvfs/CMakeFiles/test_dvfs.dir/test_dvfs_main.c.o
 .rodata        0x00000100002bbe70       0x90 build/tests/dvfs/CMakeFiles/test_dvfs.dir/test_dvfs_main.c.o
 .rodata.str1.8
                0x00000100002bbf00      0x462 build/tests/pmic/CMakeFiles/test_pmic.dir/test_pmic_main.c.o
 .rodata        0x00000100002bbf00      0x352 build/tests/pmic/CMakeFiles/test_pmic.dir/test_pmic_main.c.o
 .rodata.str1.8
                0x00000100002bc252       0x9c build/tests/pvt_con/CMakeFiles/pvt_cli.dir/pvt_cli.c.o
 *fill*         0x00000100002bc252        0x6 
 .rodata        0x00000100002bc258      0x3be build/tests/pvt_con/CMakeFiles/pvt_cli.dir/pvt_cli.c.o
 .rodata.str1.8
                0x00000100002bc616      0x7f6 build/tests/pvt_con/CMakeFiles/pvt_cli.dir/pvt_cli_show.c.o
 .rodata.str1.8
                0x00000100002bc616       0xec build/tests/sic/CMakeFiles/test_sic.dir/test_sic.c.o
 *fill*         0x00000100002bc616        0x2 
 .rodata        0x00000100002bc618       0x57 build/tests/sic/CMakeFiles/test_sic.dir/test_sic.c.o
 .rodata.str1.8
                0x00000100002bc66f       0x1f build/tests/chipid/CMakeFiles/test_chipid.dir/read_chipid.c.o
 .rodata.str1.8
                0x00000100002bc66f       0x8e build/tests/flash/CMakeFiles/test_flash.dir/test_flash.c.o
 *fill*         0x00000100002bc66f        0x1 
 .rodata        0x00000100002bc670       0xf0 build/tests/flash/CMakeFiles/test_flash.dir/test_flash.c.o
 .rodata.str1.8
                0x00000100002bc760       0xc5 build/tests/qspi/CMakeFiles/test_qspiapb.dir/test_qspiapb.c.o
 .rodata        0x00000100002bc760       0x2e build/tests/qspi/CMakeFiles/test_qspiapb.dir/test_qspiapb.c.o
 .rodata.str1.8
                0x00000100002bc78e      0x30b build/tests/rbdma/CMakeFiles/test_rbdma.dir/rbdma_tsync_test.c.o
 .rodata.str1.8
                0x00000100002bc78e       0x79 build/tests/rbdma/CMakeFiles/test_rbdma.dir/test_main_rbdma.c.o
 .rodata.str1.8
                0x00000100002bc78e       0x4c libfreertos_kernel.a(queue.c.o)
 .rodata.str1.8
                0x00000100002bc78e       0x4c libfreertos_kernel.a(tasks.c.o)
 *fill*         0x00000100002bc78e        0x2 
 .rodata        0x00000100002bc790        0x8 libfreertos_kernel.a(tasks.c.o)
 .rodata.str1.8
                0x00000100002bc798       0x60 libfreertos_kernel.a(timers.c.o)
 .rodata.str1.8
                0x00000100002bc798       0x5e libfreertos_kernel.a(heap_4.c.o)
 .rodata.str1.8
                0x00000100002bc798       0x61 portable/libfreertos_kernel_port.a(port.c.o)
 .rodata        0x00000100002bc798        0x8 portable/libfreertos_kernel_port.a(port.c.o)
                0x00000100002bc798                ullMaxAPIPriorityMask
 .rodata.str1.8
                0x00000100002bc7a0       0xa0 build/drivers/common/libdriver.a(driver.c.o)
 .rodata.str1.8
                0x00000100002bc7a0       0x6a build/drivers/common/libassert.a(assert.c.o)
 .rodata.str1.8
                0x00000100002bc7a0       0x64 services/cli_service/libcli_service.a(cli_task.c.o)
 .rodata.str1.8
                0x00000100002bc7a0      0x1fd services/cli_service/libcli_service.a(sys_command_line.c.o)
 .rodata        0x00000100002bc7a0       0x87 services/cli_service/libcli_service.a(sys_command_line.c.o)
                0x00000100002bc7b0                CLI_Cmd_Echo
                0x00000100002bc7e8                CLI_Cmd_Clear
                0x00000100002bc808                CLI_Cmd_Help
 .rodata.str1.8
                0x00000100002bc827        0x5 services/terminal_service/libterminal_service.a(console_uart.c.o)
 .rodata.str1.8
                0x00000100002bc827      0x120 services/terminal_service/libterminal_service.a(console.c.o)
 *fill*         0x00000100002bc827        0x1 
 .rodata        0x00000100002bc828       0x6a services/terminal_service/libterminal_service.a(console.c.o)
 .rodata.str1.8
                0x00000100002bc892       0x6e services/terminal_service/libterminal_service.a(terminal_task.c.o)
 .rodata.str1.8
                0x00000100002bc892     0x29d5 services/replay_service/libreplay_service.a(replay.c.o)
 *fill*         0x00000100002bc892        0x6 
 .rodata        0x00000100002bc898      0x836 services/replay_service/libreplay_service.a(replay.c.o)
                0x00000100002bc8f0                cl_base
 .rodata.str1.8
                0x00000100002bd0ce      0xa33 services/replay_service/libreplay_service.a(sub_function.c.o)
 *fill*         0x00000100002bd0ce        0x2 
 .rodata        0x00000100002bd0d0      0x5d8 services/replay_service/libreplay_service.a(sub_function.c.o)
 .rodata.str1.8
                0x00000100002bd6a8       0xcc services/replay_service/libreplay_service.a(rush_cli.c.o)
 .rodata        0x00000100002bd6a8      0x100 services/replay_service/libreplay_service.a(rush_cli.c.o)
 .rodata.str1.8
                0x00000100002bd7a8       0x62 services/replay_service/libreplay_service.a(rush_cli_msg_buf.c.o)
 .rodata.str1.8
                0x00000100002bd7a8      0x3e9 services/replay_service/libreplay_service.a(tpg_cli.c.o)
 .rodata        0x00000100002bd7a8       0x50 services/replay_service/libreplay_service.a(tpg_cli.c.o)
 .rodata.str1.8
                0x00000100002bd7f8      0x84f services/replay_service/libreplay_service.a(rbdma_cli.c.o)
 .rodata        0x00000100002bd7f8       0xb8 services/replay_service/libreplay_service.a(rbdma_cli.c.o)
 .rodata.str1.8
                0x00000100002bd8b0      0x2e4 services/replay_service/libreplay_service.a(mem_cli.c.o)
 .rodata        0x00000100002bd8b0       0x70 services/replay_service/libreplay_service.a(mem_cli.c.o)
 .rodata.str1.8
                0x00000100002bd920      0x292 services/replay_service/libreplay_service.a(cmgr_if.c.o)
 *fill*         0x00000100002bd920       0x60 
 .rodata        0x00000100002bd980     0x1d3d services/replay_service/libreplay_service.a(dnc_if.c.o)
                0x00000100002bd980                g_hc_bin_init_data
                0x00000100002bea80                g_hc_bin_init_end
                0x00000100002beb00                g_hc_bin_init_size
                0x00000100002beb80                g_cs_bin_init_data
                0x00000100002bf300                g_cs_bin_init_end
                0x00000100002bf380                g_cs_bin_init_size
 .rodata.str1.8
                0x00000100002bf6bd     0x124f services/replay_service/libreplay_service.a(dnc_if.c.o)
 .rodata.str1.8
                0x00000100002bf6bd       0x54 services/replay_service/libreplay_service.a(dnc_if_evt1.c.o)
 *fill*         0x00000100002bf6bd        0x3 
 .rodata        0x00000100002bf6c0       0x40 services/replay_service/libreplay_service.a(dnc_if_evt1.c.o)
 .rodata.str1.8
                0x00000100002bf700      0x2dc services/replay_service/libreplay_service.a(rdsn_if.c.o)
 .rodata        0x00000100002bf700       0x6d services/replay_service/libreplay_service.a(rdsn_if.c.o)
 .rodata.str1.8
                0x00000100002bf76d      0x32f services/replay_service/libreplay_service.a(ptw.c.o)
 *fill*         0x00000100002bf76d        0x3 
 .rodata        0x00000100002bf770        0xc services/replay_service/libreplay_service.a(ptw.c.o)
 .rodata.str1.8
                0x00000100002bf77c      0x7c7 services/replay_service/libreplay_service.a(rbdma_if.c.o)
 *fill*         0x00000100002bf77c        0x4 
 .rodata        0x00000100002bf780      0x160 services/replay_service/libreplay_service.a(rbdma_if.c.o)
 .rodata.str1.8
                0x00000100002bf8e0      0x274 services/replay_service/libreplay_service.a(shm_if.c.o)
 .rodata        0x00000100002bf8e0      0x100 services/replay_service/libreplay_service.a(shm_if.c.o)
 .rodata.str1.8
                0x00000100002bf9e0       0x3d services/replay_service/libreplay_service.a(tbu_wrapper.c.o)
 .rodata.str1.8
                0x00000100002bf9e0       0x4d services/replay_service/libreplay_service.a(debug.c.o)
 .rodata        0x00000100002bf9e0        0xb services/replay_service/libreplay_service.a(debug.c.o)
 .rodata.str1.8
                0x00000100002bf9eb      0x5eb services/replay_service/libreplay_service.a(ici.c.o)
 *fill*         0x00000100002bf9eb        0x5 
 .rodata        0x00000100002bf9f0       0x7c services/replay_service/libreplay_service.a(ici.c.o)
 .rodata.str1.8
                0x00000100002bfa6c       0xad services/replay_service/libreplay_service.a(page_table_gen.c.o)
 *fill*         0x00000100002bfa6c        0x4 
 .rodata        0x00000100002bfa70       0x18 services/replay_service/libreplay_service.a(page_table_gen.c.o)
                0x00000100002bfa80                page_table_addr
 .rodata.str1.8
                0x00000100002bfa88      0x357 services/replay_service/libreplay_service.a(profile.c.o)
 .rodata        0x00000100002bfa88       0xf0 services/replay_service/libreplay_service.a(profile.c.o)
 .rodata.str1.8
                0x00000100002bfb78      0x146 services/replay_service/libreplay_service.a(rl_queue.c.o)
 .rodata        0x00000100002bfb78       0x53 services/replay_service/libreplay_service.a(rl_queue.c.o)
 .rodata.str1.8
                0x00000100002bfbcb      0x208 services/replay_service/libreplay_service.a(abort.c.o)
 *fill*         0x00000100002bfbcb        0x5 
 .rodata        0x00000100002bfbd0       0x5f services/replay_service/libreplay_service.a(abort.c.o)
 .rodata.str1.8
                0x00000100002bfc2f       0xf5 services/replay_service/libreplay_service.a(backtrace.c.o)
 .rodata.str1.8
                0x00000100002bfc2f      0x18d services/replay_service/libreplay_service.a(argparse.c.o)
 .rodata.str1.8
                0x00000100002bfc2f       0x6d services/task_adder_service/libtask_adder_service.a(task_adder.c.o)
 .rodata.str1.8
                0x00000100002bfc2f       0x27 portable/libsmp.a(smp.c.o)
 .rodata.str1.8
                0x00000100002bfc2f      0x819 portable/libmmu.a(mmu.c.o)
 *fill*         0x00000100002bfc2f        0x1 
 .rodata        0x00000100002bfc30      0x930 portable/libmmu.a(mmu.c.o)
                0x00000100002bfc30                mmu_os_ranges
                0x00000100002bfcf0                mmu_regions
 .rodata.str1.8
                0x00000100002c0560       0x1d build/unity/libunity.a(unity.c.o)
 .rodata        0x00000100002c0560      0x2a9 build/unity/libunity.a(unity.c.o)
                0x00000100002c0560                UnityStrFail
                0x00000100002c05f0                UnityStrPass
                0x00000100002c0738                UnityStrIgnore
                0x00000100002c0780                UnityStrOk
                0x00000100002c0788                UnityStrErr64
                0x00000100002c07a8                UnityStrErrDouble
                0x00000100002c07c8                UnityStrErrFloat
                0x00000100002c07e8                UnityStrErrShorthand
 .rodata.str1.8
                0x00000100002c0809      0x262 build/unity/libunity.a(unity_fixture.c.o)
 .rodata.str1.8
                0x00000100002c0809       0x53 libfreertos_kernel.a(event_groups.c.o)
 .rodata.str1.8
                0x00000100002c0809       0x54 libfreertos_kernel.a(stream_buffer.c.o)
 .rodata.str1.8
                0x00000100002c0809       0x1d build/common/arch/libcommon.a(printf.c.o)
 *fill*         0x00000100002c0809        0x7 
 .rodata        0x00000100002c0810       0xd8 build/common/arch/libcommon.a(printf.c.o)
 .rodata.cst8   0x00000100002c08e8       0x38 build/common/arch/libcommon.a(printf.c.o)
 .rodata._strtod_l.str1.8
                0x00000100002c08e8       0x21 /tools/arm-gnu-toolchain-13.2.Rel1-x86_64-aarch64-none-elf/bin/../lib/gcc/aarch64-none-elf/13.2.1/../../../../aarch64-none-elf/lib/libg.a(libc_a-strtod.o)
 .rodata.fpinan.0
                0x00000100002c08e8       0x14 /tools/arm-gnu-toolchain-13.2.Rel1-x86_64-aarch64-none-elf/bin/../lib/gcc/aarch64-none-elf/13.2.1/../../../../aarch64-none-elf/lib/libg.a(libc_a-strtod.o)
 *fill*         0x00000100002c08fc        0x4 
 .rodata.fpi.1  0x00000100002c0900       0x14 /tools/arm-gnu-toolchain-13.2.Rel1-x86_64-aarch64-none-elf/bin/../lib/gcc/aarch64-none-elf/13.2.1/../../../../aarch64-none-elf/lib/libg.a(libc_a-strtod.o)
 *fill*         0x00000100002c0914        0xc 
 .rodata.tinytens
                0x00000100002c0920       0x28 /tools/arm-gnu-toolchain-13.2.Rel1-x86_64-aarch64-none-elf/bin/../lib/gcc/aarch64-none-elf/13.2.1/../../../../aarch64-none-elf/lib/libg.a(libc_a-strtod.o)
 .rodata.cst8   0x00000100002c0948       0x18 /tools/arm-gnu-toolchain-13.2.Rel1-x86_64-aarch64-none-elf/bin/../lib/gcc/aarch64-none-elf/13.2.1/../../../../aarch64-none-elf/lib/libg.a(libc_a-strtod.o)
 .rodata.__gethex.str1.8
                0x00000100002c0948       0x81 /tools/arm-gnu-toolchain-13.2.Rel1-x86_64-aarch64-none-elf/bin/../lib/gcc/aarch64-none-elf/13.2.1/../../../../aarch64-none-elf/lib/libg.a(libc_a-gdtoa-gethex.o)
 *fill*         0x00000100002c0948        0x8 
 .rodata.__hexdig
                0x00000100002c0950      0x100 /tools/arm-gnu-toolchain-13.2.Rel1-x86_64-aarch64-none-elf/bin/../lib/gcc/aarch64-none-elf/13.2.1/../../../../aarch64-none-elf/lib/libg.a(libc_a-gdtoa-gethex.o)
                0x00000100002c0950                __hexdig
 .rodata.getopt_internal.str1.8
                0x00000100002c0a50       0xa2 /tools/arm-gnu-toolchain-13.2.Rel1-x86_64-aarch64-none-elf/bin/../lib/gcc/aarch64-none-elf/13.2.1/../../../../aarch64-none-elf/lib/libg.a(libc_a-getopt.o)
 .rodata.cst8   0x00000100002c0a50        0x8 /tools/arm-gnu-toolchain-13.2.Rel1-x86_64-aarch64-none-elf/bin/../lib/gcc/aarch64-none-elf/13.2.1/../../../../aarch64-none-elf/lib/libg.a(libc_a-getopt.o)
 .rodata._svfprintf_r.str1.8
                0x00000100002c0a50       0x5a /tools/arm-gnu-toolchain-13.2.Rel1-x86_64-aarch64-none-elf/bin/../lib/gcc/aarch64-none-elf/13.2.1/../../../../aarch64-none-elf/lib/libg.a(libc_a-svfprintf.o)
 .rodata._svfprintf_r
                0x00000100002c0a50       0xb6 /tools/arm-gnu-toolchain-13.2.Rel1-x86_64-aarch64-none-elf/bin/../lib/gcc/aarch64-none-elf/13.2.1/../../../../aarch64-none-elf/lib/libg.a(libc_a-svfprintf.o)
 *fill*         0x00000100002c0b06        0xa 
 .rodata.zeroes.0
                0x00000100002c0b10       0x10 /tools/arm-gnu-toolchain-13.2.Rel1-x86_64-aarch64-none-elf/bin/../lib/gcc/aarch64-none-elf/13.2.1/../../../../aarch64-none-elf/lib/libg.a(libc_a-svfprintf.o)
 .rodata.blanks.1
                0x00000100002c0b20       0x10 /tools/arm-gnu-toolchain-13.2.Rel1-x86_64-aarch64-none-elf/bin/../lib/gcc/aarch64-none-elf/13.2.1/../../../../aarch64-none-elf/lib/libg.a(libc_a-svfprintf.o)
 .rodata.cst16  0x00000100002c0b30       0x10 /tools/arm-gnu-toolchain-13.2.Rel1-x86_64-aarch64-none-elf/bin/../lib/gcc/aarch64-none-elf/13.2.1/../../../../aarch64-none-elf/lib/libg.a(libc_a-mallocr.o)
 .rodata.__assert_func.str1.8
                0x00000100002c0b40       0x47 /tools/arm-gnu-toolchain-13.2.Rel1-x86_64-aarch64-none-elf/bin/../lib/gcc/aarch64-none-elf/13.2.1/../../../../aarch64-none-elf/lib/libg.a(libc_a-assert.o)
 .rodata.currentlocale.str1.8
                0x00000100002c0b40        0x2 /tools/arm-gnu-toolchain-13.2.Rel1-x86_64-aarch64-none-elf/bin/../lib/gcc/aarch64-none-elf/13.2.1/../../../../aarch64-none-elf/lib/libg.a(libc_a-locale.o)
 .rodata.__loadlocale.str1.8
                0x00000100002c0b40      0x116 /tools/arm-gnu-toolchain-13.2.Rel1-x86_64-aarch64-none-elf/bin/../lib/gcc/aarch64-none-elf/13.2.1/../../../../aarch64-none-elf/lib/libg.a(libc_a-locale.o)
 .rodata.__loadlocale
                0x00000100002c0b40       0x6a /tools/arm-gnu-toolchain-13.2.Rel1-x86_64-aarch64-none-elf/bin/../lib/gcc/aarch64-none-elf/13.2.1/../../../../aarch64-none-elf/lib/libg.a(libc_a-locale.o)
 .rodata.__get_locale_env.str1.8
                0x00000100002c0baa        0xd /tools/arm-gnu-toolchain-13.2.Rel1-x86_64-aarch64-none-elf/bin/../lib/gcc/aarch64-none-elf/13.2.1/../../../../aarch64-none-elf/lib/libg.a(libc_a-locale.o)
 .rodata.str1.8
                0x00000100002c0baa       0x64 /tools/arm-gnu-toolchain-13.2.Rel1-x86_64-aarch64-none-elf/bin/../lib/gcc/aarch64-none-elf/13.2.1/../../../../aarch64-none-elf/lib/libg.a(libc_a-locale.o)
 *fill*         0x00000100002c0baa        0x6 
 .rodata.__C_locale
                0x00000100002c0bb0      0x1a8 /tools/arm-gnu-toolchain-13.2.Rel1-x86_64-aarch64-none-elf/bin/../lib/gcc/aarch64-none-elf/13.2.1/../../../../aarch64-none-elf/lib/libg.a(libc_a-locale.o)
                0x00000100002c0bb0                __C_locale
 *fill*         0x00000100002c0d58        0x8 
 .rodata.categories
                0x00000100002c0d60       0x38 /tools/arm-gnu-toolchain-13.2.Rel1-x86_64-aarch64-none-elf/bin/../lib/gcc/aarch64-none-elf/13.2.1/../../../../aarch64-none-elf/lib/libg.a(libc_a-locale.o)
 .rodata._puts_r.str1.8
                0x00000100002c0d98        0x2 /tools/arm-gnu-toolchain-13.2.Rel1-x86_64-aarch64-none-elf/bin/../lib/gcc/aarch64-none-elf/13.2.1/../../../../aarch64-none-elf/lib/libg.a(libc_a-puts.o)
 .rodata.__multadd.str1.8
                0x00000100002c0d98       0x72 /tools/arm-gnu-toolchain-13.2.Rel1-x86_64-aarch64-none-elf/bin/../lib/gcc/aarch64-none-elf/13.2.1/../../../../aarch64-none-elf/lib/libg.a(libc_a-mprec.o)
 .rodata.p05.0  0x00000100002c0d98        0xc /tools/arm-gnu-toolchain-13.2.Rel1-x86_64-aarch64-none-elf/bin/../lib/gcc/aarch64-none-elf/13.2.1/../../../../aarch64-none-elf/lib/libg.a(libc_a-mprec.o)
 *fill*         0x00000100002c0da4        0xc 
 .rodata.__mprec_tinytens
                0x00000100002c0db0       0x28 /tools/arm-gnu-toolchain-13.2.Rel1-x86_64-aarch64-none-elf/bin/../lib/gcc/aarch64-none-elf/13.2.1/../../../../aarch64-none-elf/lib/libg.a(libc_a-mprec.o)
                0x00000100002c0db0                __mprec_tinytens
 *fill*         0x00000100002c0dd8        0x8 
 .rodata.__mprec_bigtens
                0x00000100002c0de0       0x28 /tools/arm-gnu-toolchain-13.2.Rel1-x86_64-aarch64-none-elf/bin/../lib/gcc/aarch64-none-elf/13.2.1/../../../../aarch64-none-elf/lib/libg.a(libc_a-mprec.o)
                0x00000100002c0de0                __mprec_bigtens
 *fill*         0x00000100002c0e08        0x8 
 .rodata.__mprec_tens
                0x00000100002c0e10       0xc8 /tools/arm-gnu-toolchain-13.2.Rel1-x86_64-aarch64-none-elf/bin/../lib/gcc/aarch64-none-elf/13.2.1/../../../../aarch64-none-elf/lib/libg.a(libc_a-mprec.o)
                0x00000100002c0e10                __mprec_tens
 .rodata.cst8   0x00000100002c0ed8       0x10 /tools/arm-gnu-toolchain-13.2.Rel1-x86_64-aarch64-none-elf/bin/../lib/gcc/aarch64-none-elf/13.2.1/../../../../aarch64-none-elf/lib/libg.a(libc_a-mprec.o)
 .rodata._dtoa_r.str1.8
                0x00000100002c0ed8       0x91 /tools/arm-gnu-toolchain-13.2.Rel1-x86_64-aarch64-none-elf/bin/../lib/gcc/aarch64-none-elf/13.2.1/../../../../aarch64-none-elf/lib/libg.a(libc_a-dtoa.o)
 .rodata.cst8   0x00000100002c0ed8       0x18 /tools/arm-gnu-toolchain-13.2.Rel1-x86_64-aarch64-none-elf/bin/../lib/gcc/aarch64-none-elf/13.2.1/../../../../aarch64-none-elf/lib/libg.a(libc_a-dtoa.o)
 .rodata._strerror_r.str1.8
                0x00000100002c0ed8      0x799 /tools/arm-gnu-toolchain-13.2.Rel1-x86_64-aarch64-none-elf/bin/../lib/gcc/aarch64-none-elf/13.2.1/../../../../aarch64-none-elf/lib/libg.a(libc_a-strerror.o)
 .rodata._strerror_r
                0x00000100002c0ed8      0x11e /tools/arm-gnu-toolchain-13.2.Rel1-x86_64-aarch64-none-elf/bin/../lib/gcc/aarch64-none-elf/13.2.1/../../../../aarch64-none-elf/lib/libg.a(libc_a-strerror.o)
 *fill*         0x00000100002c0ff6        0xa 
 .rodata._ctype_
                0x00000100002c1000      0x101 /tools/arm-gnu-toolchain-13.2.Rel1-x86_64-aarch64-none-elf/bin/../lib/gcc/aarch64-none-elf/13.2.1/../../../../aarch64-none-elf/lib/libg.a(libc_a-ctype_.o)
                0x00000100002c1000                _ctype_
 .rodata._svfiprintf_r.str1.8
                0x00000100002c1101       0x37 /tools/arm-gnu-toolchain-13.2.Rel1-x86_64-aarch64-none-elf/bin/../lib/gcc/aarch64-none-elf/13.2.1/../../../../aarch64-none-elf/lib/libg.a(libc_a-svfiprintf.o)
 *fill*         0x00000100002c1101        0x3 
 .rodata._svfiprintf_r
                0x00000100002c1104       0xb6 /tools/arm-gnu-toolchain-13.2.Rel1-x86_64-aarch64-none-elf/bin/../lib/gcc/aarch64-none-elf/13.2.1/../../../../aarch64-none-elf/lib/libg.a(libc_a-svfiprintf.o)
 *fill*         0x00000100002c11ba        0x6 
 .rodata.zeroes.0
                0x00000100002c11c0       0x10 /tools/arm-gnu-toolchain-13.2.Rel1-x86_64-aarch64-none-elf/bin/../lib/gcc/aarch64-none-elf/13.2.1/../../../../aarch64-none-elf/lib/libg.a(libc_a-svfiprintf.o)
 .rodata.blanks.1
                0x00000100002c11d0       0x10 /tools/arm-gnu-toolchain-13.2.Rel1-x86_64-aarch64-none-elf/bin/../lib/gcc/aarch64-none-elf/13.2.1/../../../../aarch64-none-elf/lib/libg.a(libc_a-svfiprintf.o)
 .rodata._vfprintf_r.str1.8
                0x00000100002c11e0       0x5a /tools/arm-gnu-toolchain-13.2.Rel1-x86_64-aarch64-none-elf/bin/../lib/gcc/aarch64-none-elf/13.2.1/../../../../aarch64-none-elf/lib/libg.a(libc_a-vfprintf.o)
 .rodata._vfprintf_r
                0x00000100002c11e0       0xb6 /tools/arm-gnu-toolchain-13.2.Rel1-x86_64-aarch64-none-elf/bin/../lib/gcc/aarch64-none-elf/13.2.1/../../../../aarch64-none-elf/lib/libg.a(libc_a-vfprintf.o)
 *fill*         0x00000100002c1296        0xa 
 .rodata.zeroes.0
                0x00000100002c12a0       0x10 /tools/arm-gnu-toolchain-13.2.Rel1-x86_64-aarch64-none-elf/bin/../lib/gcc/aarch64-none-elf/13.2.1/../../../../aarch64-none-elf/lib/libg.a(libc_a-vfprintf.o)
 .rodata.blanks.1
                0x00000100002c12b0       0x10 /tools/arm-gnu-toolchain-13.2.Rel1-x86_64-aarch64-none-elf/bin/../lib/gcc/aarch64-none-elf/13.2.1/../../../../aarch64-none-elf/lib/libg.a(libc_a-vfprintf.o)
 .rodata._vfiprintf_r.str1.8
                0x00000100002c12c0       0x37 /tools/arm-gnu-toolchain-13.2.Rel1-x86_64-aarch64-none-elf/bin/../lib/gcc/aarch64-none-elf/13.2.1/../../../../aarch64-none-elf/lib/libg.a(libc_a-vfiprintf.o)
 .rodata._vfiprintf_r
                0x00000100002c12c0       0xb6 /tools/arm-gnu-toolchain-13.2.Rel1-x86_64-aarch64-none-elf/bin/../lib/gcc/aarch64-none-elf/13.2.1/../../../../aarch64-none-elf/lib/libg.a(libc_a-vfiprintf.o)
 *fill*         0x00000100002c1376        0xa 
 .rodata.zeroes.0
                0x00000100002c1380       0x10 /tools/arm-gnu-toolchain-13.2.Rel1-x86_64-aarch64-none-elf/bin/../lib/gcc/aarch64-none-elf/13.2.1/../../../../aarch64-none-elf/lib/libg.a(libc_a-vfiprintf.o)
 .rodata.blanks.1
                0x00000100002c1390       0x10 /tools/arm-gnu-toolchain-13.2.Rel1-x86_64-aarch64-none-elf/bin/../lib/gcc/aarch64-none-elf/13.2.1/../../../../aarch64-none-elf/lib/libg.a(libc_a-vfiprintf.o)
 .rodata.JIS_action_table
                0x00000100002c13a0       0x48 /tools/arm-gnu-toolchain-13.2.Rel1-x86_64-aarch64-none-elf/bin/../lib/gcc/aarch64-none-elf/13.2.1/../../../../aarch64-none-elf/lib/libg.a(libc_a-mbtowc_r.o)
 *fill*         0x00000100002c13e8        0x8 
 .rodata.JIS_state_table
                0x00000100002c13f0       0x48 /tools/arm-gnu-toolchain-13.2.Rel1-x86_64-aarch64-none-elf/bin/../lib/gcc/aarch64-none-elf/13.2.1/../../../../aarch64-none-elf/lib/libg.a(libc_a-mbtowc_r.o)
 *(.got .igot .got.plt .igot.plt)
 .igot.plt      0x00000100002c1438        0x0 CMakeFiles/freertos_kernel.elf.dir/main.c.o
                0x00000100002c1438                rodata_end = .
                0x0000010000400000                . = ALIGN (mmu_page_2mb)
                0x0000010000400000                rodata_region_end = .
                0x0000010000400000                data_region_start = .

.data           0x0000010000400000    0x10000 load address 0x0000000000400000
                0x0000010000400000                data_start = .
 *(.data .data.*)
 .data          0x0000010000400000        0x0 CMakeFiles/freertos_kernel.elf.dir/main.c.o
 .data          0x0000010000400000        0x0 gloss/CMakeFiles/freedom_metal.dir/freedom_metal.c.o
 .data          0x0000010000400000        0x0 gloss/CMakeFiles/freedom_metal.dir/nanosleep.c.o
 .data          0x0000010000400000        0x0 gloss/CMakeFiles/freedom_metal.dir/sys_access.c.o
 .data          0x0000010000400000        0x0 gloss/CMakeFiles/freedom_metal.dir/sys_chdir.c.o
 .data          0x0000010000400000        0x0 gloss/CMakeFiles/freedom_metal.dir/sys_chmod.c.o
 .data          0x0000010000400000        0x0 gloss/CMakeFiles/freedom_metal.dir/sys_chown.c.o
 .data          0x0000010000400000        0x0 gloss/CMakeFiles/freedom_metal.dir/sys_clock_gettime.c.o
 .data          0x0000010000400000        0x0 gloss/CMakeFiles/freedom_metal.dir/sys_close.c.o
 .data          0x0000010000400000        0x0 gloss/CMakeFiles/freedom_metal.dir/sys_execve.c.o
 .data          0x0000010000400000        0x0 gloss/CMakeFiles/freedom_metal.dir/sys_exit.c.o
 .data          0x0000010000400000        0x0 gloss/CMakeFiles/freedom_metal.dir/sys_faccessat.c.o
 .data          0x0000010000400000        0x0 gloss/CMakeFiles/freedom_metal.dir/sys_fork.c.o
 .data          0x0000010000400000        0x0 gloss/CMakeFiles/freedom_metal.dir/sys_fstat.c.o
 .data          0x0000010000400000        0x0 gloss/CMakeFiles/freedom_metal.dir/sys_fstatat.c.o
 .data          0x0000010000400000        0x0 gloss/CMakeFiles/freedom_metal.dir/sys_ftime.c.o
 .data          0x0000010000400000        0x0 gloss/CMakeFiles/freedom_metal.dir/sys_getcwd.c.o
 .data          0x0000010000400000        0x0 gloss/CMakeFiles/freedom_metal.dir/sys_getpid.c.o
 .data          0x0000010000400000        0x0 gloss/CMakeFiles/freedom_metal.dir/sys_gettimeofday.c.o
 .data          0x0000010000400000        0x0 gloss/CMakeFiles/freedom_metal.dir/sys_isatty.c.o
 .data          0x0000010000400000        0x0 gloss/CMakeFiles/freedom_metal.dir/sys_kill.c.o
 .data          0x0000010000400000        0x0 gloss/CMakeFiles/freedom_metal.dir/sys_link.c.o
 .data          0x0000010000400000        0x0 gloss/CMakeFiles/freedom_metal.dir/sys_lseek.c.o
 .data          0x0000010000400000        0x0 gloss/CMakeFiles/freedom_metal.dir/sys_lstat.c.o
 .data          0x0000010000400000        0x0 gloss/CMakeFiles/freedom_metal.dir/sys_open.c.o
 .data          0x0000010000400000        0x0 gloss/CMakeFiles/freedom_metal.dir/sys_openat.c.o
 .data          0x0000010000400000        0x0 gloss/CMakeFiles/freedom_metal.dir/sys_read.c.o
 .data          0x0000010000400000        0x8 gloss/CMakeFiles/freedom_metal.dir/sys_sbrk.c.o
 .data          0x0000010000400008        0x0 gloss/CMakeFiles/freedom_metal.dir/sys_sysconf.c.o
 .data          0x0000010000400008        0x0 gloss/CMakeFiles/freedom_metal.dir/sys_times.c.o
 .data          0x0000010000400008        0x0 gloss/CMakeFiles/freedom_metal.dir/sys_unlink.c.o
 .data          0x0000010000400008        0x0 gloss/CMakeFiles/freedom_metal.dir/sys_utime.c.o
 .data          0x0000010000400008        0x0 gloss/CMakeFiles/freedom_metal.dir/sys_wait.c.o
 .data          0x0000010000400008        0x0 gloss/CMakeFiles/freedom_metal.dir/sys_write.c.o
 .data          0x0000010000400008      0x758 build/drivers/mailbox/CMakeFiles/mailbox.dir/mailbox.c.o
 .data          0x0000010000400760        0x0 build/drivers/mailbox/CMakeFiles/mailbox.dir/mailbox_cb.c.o
 .data          0x0000010000400760        0x0 build/drivers/pmu/CMakeFiles/pmu.dir/pmu.c.o
 .data          0x0000010000400760       0x48 build/drivers/uart/CMakeFiles/uart.dir/uart.c.o
                0x0000010000400760                uart_cfg
                0x0000010000400778                uart_rx_data
                0x0000010000400790                uart_tx_data
 .data          0x00000100004007a8        0x0 build/drivers/dma/CMakeFiles/dma.dir/pl330.c.o
 .data          0x00000100004007a8       0xa8 build/drivers/gpio/CMakeFiles/gpio.dir/gpio.c.o
                0x00000100004007a8                GPE_NWEINT_FLTCON
                0x00000100004007d8                GPD_NWEINT_FLTCON
                0x0000010000400810                GPC_NWEINT_FLTCON
                0x0000010000400820                GPB_NWEINT_FLTCON
 .data          0x0000010000400850      0x520 build/drivers/smmu/CMakeFiles/smmu.dir/smmu.c.o
                0x0000010000400a80                smmu_ptables
                0x0000010000400b40                smmu_regions_pcie
                0x0000010000400c08                smmu_regions1
                0x0000010000400c30                smmu_regions
 .data          0x0000010000400d70        0x0 build/drivers/smmu/CMakeFiles/smmu.dir/smmu_pmu.c.o
 .data          0x0000010000400d70      0x468 build/drivers/pvt_con/CMakeFiles/pvt_con.dir/pvt_con.c.o
                0x0000010000400d70                pvt_base_address
                0x0000010000400d98                pvt_irqs
                0x0000010000401058                pvt_rise_threshold
                0x00000100004010f8                pvt_n_sensors
                0x0000010000401138                pvt_fall_threshold
 .data          0x00000100004011d8        0x0 build/drivers/cmu/CMakeFiles/cmu.dir/cmu.c.o
 .data          0x00000100004011d8       0x80 build/drivers/watchdog/CMakeFiles/watchdog.dir/dw_apb_wdt.c.o
 .data          0x0000010000401258       0x60 build/drivers/rbc/CMakeFiles/rbc.dir/aw_ucie.c.o
                0x0000010000401260                aw_ucie_link_retraining
                0x0000010000401268                aw_ucie_sb_mem_wr32
                0x0000010000401270                aw_ucie_retrain_and_get_new_eml_emr
                0x0000010000401278                aw_ucie_set_rx_vref_offset_enable
                0x0000010000401280                aw_ucie_set_rx_vref_offset
                0x0000010000401288                aw_ucie_mb_inject_test_flit
                0x0000010000401290                aw_ucie_mb_inject_nop_flit
                0x0000010000401298                aw_ucie_mb_crc_err_inject
                0x00000100004012a0                aw_ucie_sb_mem_rd32
                0x00000100004012a8                aw_ucie_link_training
                0x00000100004012b0                aw_ucie_init
 .data          0x00000100004012b8        0x4 build/drivers/rbc/CMakeFiles/rbc.dir/rbc_driver.c.o
 .data          0x00000100004012bc        0x0 build/drivers/rbc/CMakeFiles/rbc.dir/rbc_cmd.c.o
 .data          0x00000100004012bc        0x0 build/drivers/rbcm/CMakeFiles/rbcm.dir/rbcm_core.c.o
 *fill*         0x00000100004012bc        0x4 
 .data          0x00000100004012c0      0x380 build/drivers/rbcm/CMakeFiles/rbcm.dir/rbcm_driver.c.o
                0x00000100004012c0                rbcm
 .data          0x0000010000401640       0xa0 build/drivers/i2c/CMakeFiles/i2c.dir/i2c.c.o
                0x0000010000401640                i2c_config
 .data          0x00000100004016e0      0x300 build/drivers/noc_logger/CMakeFiles/noc_logger.dir/noc_logger.c.o
 .data          0x00000100004019e0        0x0 build/drivers/hbm3/CMakeFiles/hbm3.dir/hbm3.c.o
 .data          0x00000100004019e0        0x0 build/drivers/hbm3/CMakeFiles/hbm3.dir/tmrs.c.o
 .data          0x00000100004019e0      0xe46 build/drivers/hbm3/CMakeFiles/hbm3.dir/icon.c.o
                0x00000100004019e0                rx_lane
                0x00000100004020e0                tx_lane
 *fill*         0x0000010000402826        0x2 
 .data          0x0000010000402828      0x180 build/drivers/hbm3/CMakeFiles/hbm3.dir/hbm3_irq.c.o
 .data          0x00000100004029a8      0x180 build/drivers/hbm3/CMakeFiles/hbm3.dir/hbm3_am.c.o
                0x00000100004029a8                hbm3_am_cfg
 .data          0x0000010000402b28       0x30 build/drivers/pmic/CMakeFiles/pmic.dir/ltc1427cs8.c.o
                0x0000010000402b28                ltc_list
 .data          0x0000010000402b58        0x0 build/drivers/pmic/CMakeFiles/pmic.dir/tca9548a.c.o
 .data          0x0000010000402b58        0x0 build/drivers/pmic/CMakeFiles/pmic.dir/mp5998.c.o
 .data          0x0000010000402b58        0x0 build/drivers/pmic/CMakeFiles/pmic.dir/mpq8785.c.o
 .data          0x0000010000402b58        0x0 build/drivers/pmic/CMakeFiles/pmic.dir/mp29816a.c.o
 .data          0x0000010000402b58        0x0 build/drivers/pmic/CMakeFiles/pmic.dir/g1505.c.o
 .data          0x0000010000402b58        0x0 build/drivers/pmic/CMakeFiles/pmic.dir/pmic_mgr.c.o
 .data          0x0000010000402b58      0x124 build/drivers/dvfs/CMakeFiles/dvfs.dir/dvfs.c.o
                0x0000010000402b58                cp_dvfs_table
                0x0000010000402c28                dnc_dvfs_table
 .data          0x0000010000402c7c        0x0 build/drivers/sic/CMakeFiles/sic.dir/sic.c.o
 *fill*         0x0000010000402c7c        0x4 
 .data          0x0000010000402c80      0x1c0 build/drivers/timer/dw_apb_timer/CMakeFiles/dw_apb_timer.dir/dw_apb_timer.c.o
                0x0000010000402c80                dw_apb_timer_peri0
                0x0000010000402d60                dw_apb_timer_peri1
 .data          0x0000010000402e40       0x40 build/drivers/qspi/qspi_apb/CMakeFiles/qspi_apb.dir/qspi_apb.c.o
                0x0000010000402e40                qspi_apb_cfg
 .data          0x0000010000402e80        0x0 build/drivers/flash/CMakeFiles/flash.dir/mt25q_flash.c.o
 .data          0x0000010000402e80        0x0 build/tests/common/CMakeFiles/test_common.dir/test_mailbox_cb.c.o
 .data          0x0000010000402e80        0x0 build/tests/interrupt_test_helper_example/CMakeFiles/interrupt_test_helper_example.dir/example_test.c.o
 .data          0x0000010000402e80        0x0 build/tests/interrupt_test_helper_example/CMakeFiles/interrupt_test_helper_example.dir/example_driver.c.o
 .data          0x0000010000402e80        0x0 build/tests/arch/CMakeFiles/test_arch.dir/test_cli.c.o
 .data          0x0000010000402e80        0x0 build/tests/gpio/CMakeFiles/test_gpio.dir/test_gpio.c.o
 .data          0x0000010000402e80        0x0 build/tests/dma/CMakeFiles/test_dma.dir/test_dma_main.c.o
 .data          0x0000010000402e80       0x78 build/tests/mailbox/CMakeFiles/mailbox_test.dir/test_mailbox_main.c.o
                0x0000010000402e80                arr
 .data          0x0000010000402ef8        0x0 build/tests/pvt_con/CMakeFiles/test_pvt_con.dir/test_pvt_con.c.o
 .data          0x0000010000402ef8       0x80 build/tests/arch/arm64/CMakeFiles/test_arm64.dir/test_ca73.c.o
                0x0000010000402ef8                test_ca73_fpu_data
 .data          0x0000010000402f78        0x0 build/tests/timer/dw_apb_timer/CMakeFiles/test_dw_apb_timer.dir/test_dw_apb_timer.c.o
 .data          0x0000010000402f78       0x50 build/tests/cmu/CMakeFiles/test_cmu.dir/test_cmu_main.c.o
                0x0000010000402f78                table_f0434
                0x0000010000402fc0                table_f0435
 .data          0x0000010000402fc8        0x0 build/tests/smmu/CMakeFiles/test_mmu.dir/test_mmu_main.c.o
 .data          0x0000010000402fc8        0x0 build/tests/log/CMakeFiles/show_log.dir/rebel_h_log.c.o
 .data          0x0000010000402fc8        0x0 build/tests/rbc/CMakeFiles/test_rbc.dir/test/all_test.c.o
 .data          0x0000010000402fc8        0x0 build/tests/rbc/CMakeFiles/test_rbc.dir/test/test_aw_ucie_init.c.o
 .data          0x0000010000402fc8        0x0 build/tests/rbc/CMakeFiles/test_rbc.dir/test/test_aw_ucie_d2d_comp.c.o
 .data          0x0000010000402fc8        0x0 build/tests/rbc/CMakeFiles/test_rbc.dir/test/test_aw_ucie_d2d_err_and_link.c.o
 .data          0x0000010000402fc8        0x0 build/tests/rbc/CMakeFiles/test_rbc.dir/test/test_aw_ucie_retraining.c.o
 .data          0x0000010000402fc8        0x0 build/tests/rbc/CMakeFiles/test_rbc.dir/test/test_aw_ucie_sideband.c.o
 .data          0x0000010000402fc8        0x0 build/tests/rbc/CMakeFiles/test_rbc.dir/test/test_aw_ucie_training.c.o
 .data          0x0000010000402fc8        0x0 build/tests/rbc/CMakeFiles/test_rbc.dir/test/test_aw_ucie_runtime_link_test.c.o
 .data          0x0000010000402fc8        0x0 build/tests/rbc/CMakeFiles/test_rbc.dir/test/test_aw_ucie_phy_compliance_test.c.o
 .data          0x0000010000402fc8        0x0 build/tests/rbc/CMakeFiles/test_rbc.dir/test/test_aw_ucie_exception.c.o
 .data          0x0000010000402fc8        0x0 build/tests/rbc/CMakeFiles/test_rbc.dir/test/test_aw_ucie_eye_of_margin.c.o
 .data          0x0000010000402fc8        0x0 build/tests/rbc/CMakeFiles/test_rbc.dir/test/test_aw_ucie_util.c.o
 .data          0x0000010000402fc8        0x0 build/tests/rbc/CMakeFiles/test_rbc.dir/test/test_fake_timer.c.o
 .data          0x0000010000402fc8        0x0 build/tests/rbc/CMakeFiles/test_rbc.dir/test/test_rbc_driver.c.o
 .data          0x0000010000402fc8        0x0 build/tests/rbc/CMakeFiles/test_rbc.dir/mocks/fake_timer.c.o
 .data          0x0000010000402fc8        0x0 build/tests/rbc/CMakeFiles/test_rbc.dir/mocks/fake_gic.c.o
 .data          0x0000010000402fc8        0x0 build/tests/rbcm/CMakeFiles/test_rbcm.dir/rbcm_test.c.o
 .data          0x0000010000402fc8      0xe70 build/tests/rbcm/CMakeFiles/test_rbcm.dir/rbcm_reg_access_test.c.o
                0x0000010000402fc8                rbcm_reg_acc_tests
 .data          0x0000010000403e38        0x0 build/tests/i2c/CMakeFiles/test_i2c.dir/test_i2c_main.c.o
 .data          0x0000010000403e38      0x130 build/tests/hbm3/CMakeFiles/hbm3_test.dir/memtest.c.o
                0x0000010000403e38                memtest_list
 .data          0x0000010000403f68        0x0 build/tests/hbm3/CMakeFiles/hbm3_test.dir/hbm3_irq_test.c.o
 *fill*         0x0000010000403f68        0x8 
 .data          0x0000010000403f70       0xc0 build/tests/system_test/CMakeFiles/system_test.dir/test_system.c.o
                0x0000010000403fb0                Elimit
 .data          0x0000010000404030        0x0 build/tests/system_test/CMakeFiles/system_test.dir/dma_transaction.c.o
 .data          0x0000010000404030        0x0 build/tests/system_test/CMakeFiles/system_test.dir/test_dma_transaction.c.o
 .data          0x0000010000404030        0x0 build/tests/system_test/CMakeFiles/system_test.dir/data_process.c.o
 .data          0x0000010000404030        0x0 build/tests/system_test/CMakeFiles/system_test.dir/test_data_process.c.o
 .data          0x0000010000404030        0x0 build/tests/dvfs/CMakeFiles/test_dvfs.dir/test_dvfs_main.c.o
 .data          0x0000010000404030        0x0 build/tests/pmic/CMakeFiles/test_pmic.dir/test_pmic_main.c.o
 .data          0x0000010000404030        0x0 build/tests/pvt_con/CMakeFiles/pvt_cli.dir/pvt_cli.c.o
 .data          0x0000010000404030      0xa38 build/tests/pvt_con/CMakeFiles/pvt_cli.dir/pvt_cli_show.c.o
                0x0000010000404030                inst_name
                0x0000010000404058                pvt_process_sensor_info
                0x0000010000404158                pvt_voltage_sensor_info
                0x00000100004047e8                pvt_temperature_sensor_info
 .data          0x0000010000404a68        0x0 build/tests/pvt_con/CMakeFiles/pvt_cli.dir/pvt_cli_enable.c.o
 .data          0x0000010000404a68        0x0 build/tests/pvt_con/CMakeFiles/pvt_cli.dir/pvt_cli_disable.c.o
 .data          0x0000010000404a68        0x0 build/tests/pvt_con/CMakeFiles/pvt_cli.dir/pvt_cli_set.c.o
 .data          0x0000010000404a68        0x0 build/tests/sic/CMakeFiles/test_sic.dir/test_sic.c.o
 .data          0x0000010000404a68        0x0 build/tests/chipid/CMakeFiles/test_chipid.dir/read_chipid.c.o
 .data          0x0000010000404a68        0x0 build/tests/flash/CMakeFiles/test_flash.dir/test_flash.c.o
 .data          0x0000010000404a68        0x0 build/tests/qspi/CMakeFiles/test_qspiapb.dir/test_qspiapb.c.o
 .data          0x0000010000404a68        0x0 build/tests/rbdma/CMakeFiles/test_rbdma.dir/rbdma_tsync_test.c.o
 .data          0x0000010000404a68        0x0 build/tests/rbdma/CMakeFiles/test_rbdma.dir/test_main_rbdma.c.o
 .data          0x0000010000404a68        0x0 build/tests/rbdma/CMakeFiles/test_rbdma.dir/cache.S.o
 .data          0x0000010000404a68        0x0 libfreertos_kernel.a(queue.c.o)
 .data          0x0000010000404a68        0x0 libfreertos_kernel.a(tasks.c.o)
 .data          0x0000010000404a68        0x0 libfreertos_kernel.a(timers.c.o)
 .data          0x0000010000404a68        0x0 libfreertos_kernel.a(heap_4.c.o)
 .data          0x0000010000404a68        0x0 libfreertos_kernel.a(list.c.o)
 .data          0x0000010000404a68        0x8 portable/libfreertos_kernel_port.a(port.c.o)
                0x0000010000404a68                ullCriticalNesting
 .data          0x0000010000404a70        0x0 portable/libfreertos_kernel_port.a(portASM.S.o)
 .data          0x0000010000404a70        0x0 build/drivers/common/libdriver.a(driver.c.o)
 .data          0x0000010000404a70        0x0 build/drivers/common/libassert.a(assert.c.o)
 .data          0x0000010000404a70        0x0 build/drivers/common/libinterrupt.a(interrupt.c.o)
 .data          0x0000010000404a70        0x0 build/drivers/intc/libintc.a(gicv3.c.o)
 .data          0x0000010000404a70        0x0 build/drivers/intc/libintc.a(bakery_lock.c.o)
 .data          0x0000010000404a70        0x0 services/cli_service/libcli_service.a(cli_task.c.o)
 .data          0x0000010000404a70     0x1008 services/cli_service/libcli_service.a(sys_command_line.c.o)
                0x0000010000404a70                cli_echo_flag
                0x0000010000404a78                CLI_Cmd
 .data          0x0000010000405a78       0x30 services/terminal_service/libterminal_service.a(console_uart.c.o)
                0x0000010000405a78                uart
 .data          0x0000010000405aa8        0x0 services/terminal_service/libterminal_service.a(console.c.o)
 .data          0x0000010000405aa8        0x0 services/terminal_service/libterminal_service.a(terminal_task.c.o)
 .data          0x0000010000405aa8      0x8a4 services/replay_service/libreplay_service.a(replay.c.o)
                0x0000010000405aa8                item_list
                0x0000010000406188                model_list
 .data          0x000001000040634c        0x0 services/replay_service/libreplay_service.a(sub_function.c.o)
 *fill*         0x000001000040634c        0x4 
 .data          0x0000010000406350       0x80 services/replay_service/libreplay_service.a(rush_cli.c.o)
 .data          0x00000100004063d0        0x0 services/replay_service/libreplay_service.a(rush_cli_msg_buf.c.o)
 .data          0x00000100004063d0       0x30 services/replay_service/libreplay_service.a(tpg_cli.c.o)
 .data          0x0000010000406400       0x30 services/replay_service/libreplay_service.a(rbdma_cli.c.o)
 .data          0x0000010000406430       0x48 services/replay_service/libreplay_service.a(mem_cli.c.o)
 .data          0x0000010000406478        0x0 services/replay_service/libreplay_service.a(chiplet.c.o)
 .data          0x0000010000406478        0x8 services/replay_service/libreplay_service.a(cmgr_if.c.o)
 .data          0x0000010000406480        0x4 services/replay_service/libreplay_service.a(dnc_if.c.o)
                0x0000010000406480                dnc_affinity
 .data          0x0000010000406484        0x0 services/replay_service/libreplay_service.a(dnc_if_evt1.c.o)
 .data          0x0000010000406484        0x0 services/replay_service/libreplay_service.a(rdsn_if.c.o)
 *fill*         0x0000010000406484        0x4 
 .data          0x0000010000406488      0x7b8 services/replay_service/libreplay_service.a(ptw.c.o)
                0x0000010000406488                vf_mmu_regions
                0x00000100004064a0                size_vf_region_array
                0x00000100004064b0                ptw_s2t_pf
                0x0000010000406618                mmu_regions_4vfs
                0x0000010000406638                mmu_regions_2vfs
                0x0000010000406648                mmu_regions_1vf
                0x0000010000406650                ptw_s2t_4vfs_3
                0x00000100004066f0                ptw_s2t_4vfs_2
                0x0000010000406790                ptw_s2t_4vfs_1
                0x0000010000406830                ptw_s2t_4vfs_0
                0x00000100004068d0                ptw_s2t_2vfs_1
                0x00000100004069c0                ptw_s2t_2vfs_0
                0x0000010000406ab0                ptw_s2t_1vf
 .data          0x0000010000406c40        0x8 services/replay_service/libreplay_service.a(rbdma_if.c.o)
 .data          0x0000010000406c48        0x0 services/replay_service/libreplay_service.a(shm_if.c.o)
 .data          0x0000010000406c48        0x0 services/replay_service/libreplay_service.a(tbu_wrapper.c.o)
 .data          0x0000010000406c48        0x0 services/replay_service/libreplay_service.a(debug.c.o)
 .data          0x0000010000406c48       0x80 services/replay_service/libreplay_service.a(ici.c.o)
                0x0000010000406c48                inst
                0x0000010000406c88                cpu
 .data          0x0000010000406cc8       0x40 services/replay_service/libreplay_service.a(page_table_gen.c.o)
                0x0000010000406cc8                ut_page_tables
 .data          0x0000010000406d08        0x0 services/replay_service/libreplay_service.a(profile.c.o)
 .data          0x0000010000406d08        0x0 services/replay_service/libreplay_service.a(rl_queue.c.o)
 .data          0x0000010000406d08        0x8 services/replay_service/libreplay_service.a(abort.c.o)
 .data          0x0000010000406d10        0x0 services/replay_service/libreplay_service.a(context.S.o)
 .data          0x0000010000406d10        0x0 services/replay_service/libreplay_service.a(cpu_data.c.o)
 .data          0x0000010000406d10        0x0 services/replay_service/libreplay_service.a(spinlock.c.o)
 .data          0x0000010000406d10        0x0 services/replay_service/libreplay_service.a(core.c.o)
 .data          0x0000010000406d10        0x4 services/replay_service/libreplay_service.a(log.c.o)
 .data          0x0000010000406d14        0x0 services/replay_service/libreplay_service.a(rand.c.o)
 .data          0x0000010000406d14        0x0 services/replay_service/libreplay_service.a(backtrace.c.o)
 .data          0x0000010000406d14        0x0 services/replay_service/libreplay_service.a(argparse.c.o)
 .data          0x0000010000406d14        0x0 services/replay_service/libreplay_service.a(rush_cli_util.c.o)
 .data          0x0000010000406d14        0x0 services/replay_service/libreplay_service.a(spinlock.S.o)
 .data          0x0000010000406d14        0x0 services/task_adder_service/libtask_adder_service.a(task_adder.c.o)
 .data          0x0000010000406d14        0x0 portable/libfreertos_arch.a(startup.S.o)
 .data          0x0000010000406d14        0x0 portable/libfreertos_arch.a(vector.S.o)
 .data          0x0000010000406d14        0x0 portable/libfreertos_arch.a(prep_c.c.o)
 .data          0x0000010000406d14        0x0 libfreertos_kernel_config.a(FreeRTOS_tick_config.c.o)
 .data          0x0000010000406d14        0x0 portable/libsmp.a(smp.c.o)
 .data          0x0000010000406d14        0x0 portable/libsmp.a(smp.S.o)
 .data          0x0000010000406d14        0x0 portable/libsmccc.a(smccc.S.o)
 .data          0x0000010000406d14        0x0 portable/libmmu.a(mmu.c.o)
 .data          0x0000010000406d14        0x0 build/interrupt_test_helper/libinterrupt_test_helper.a(interrupt_test_helper.c.o)
 .data          0x0000010000406d14        0x0 build/unity/libunity.a(unity.c.o)
 .data          0x0000010000406d14        0x0 build/unity/libunity.a(unity_fixture.c.o)
 .data          0x0000010000406d14        0x0 build/drivers/psci/libpsci.a(psci.c.o)
 .data          0x0000010000406d14        0x0 libfreertos_kernel.a(event_groups.c.o)
 .data          0x0000010000406d14        0x0 libfreertos_kernel.a(stream_buffer.c.o)
 .data          0x0000010000406d14        0x0 build/common/arch/libcommon.a(printf.c.o)
 .data          0x0000010000406d14        0x0 build/common/arch/libcommon.a(system_api.c.o)
 .data          0x0000010000406d14        0x0 build/drivers/timer/generic_timer/libgeneric_timer.a(generic_timer.c.o)
 .data          0x0000010000406d14        0x0 /tools/arm-gnu-toolchain-13.2.Rel1-x86_64-aarch64-none-elf/bin/../lib/gcc/aarch64-none-elf/13.2.1/libgcc.a(ldset_8_4.o)
 .data          0x0000010000406d14        0x0 /tools/arm-gnu-toolchain-13.2.Rel1-x86_64-aarch64-none-elf/bin/../lib/gcc/aarch64-none-elf/13.2.1/libgcc.a(lse-init.o)
 .data          0x0000010000406d14        0x0 /tools/arm-gnu-toolchain-13.2.Rel1-x86_64-aarch64-none-elf/bin/../lib/gcc/aarch64-none-elf/13.2.1/../../../../aarch64-none-elf/lib/libg.a(libc_a-strtod.o)
 .data          0x0000010000406d14        0x0 /tools/arm-gnu-toolchain-13.2.Rel1-x86_64-aarch64-none-elf/bin/../lib/gcc/aarch64-none-elf/13.2.1/../../../../aarch64-none-elf/lib/libg.a(libc_a-strtol.o)
 .data          0x0000010000406d14        0x0 /tools/arm-gnu-toolchain-13.2.Rel1-x86_64-aarch64-none-elf/bin/../lib/gcc/aarch64-none-elf/13.2.1/../../../../aarch64-none-elf/lib/libg.a(libc_a-gdtoa-gethex.o)
 .data          0x0000010000406d14        0x0 /tools/arm-gnu-toolchain-13.2.Rel1-x86_64-aarch64-none-elf/bin/../lib/gcc/aarch64-none-elf/13.2.1/../../../../aarch64-none-elf/lib/libg.a(libc_a-strtoul.o)
 .data          0x0000010000406d14        0x0 /tools/arm-gnu-toolchain-13.2.Rel1-x86_64-aarch64-none-elf/bin/../lib/gcc/aarch64-none-elf/13.2.1/../../../../aarch64-none-elf/lib/libg.a(libc_a-gdtoa-hexnan.o)
 .data          0x0000010000406d14        0x0 /tools/arm-gnu-toolchain-13.2.Rel1-x86_64-aarch64-none-elf/bin/../lib/gcc/aarch64-none-elf/13.2.1/../../../../aarch64-none-elf/lib/libg.a(libc_a-strtoll.o)
 .data          0x0000010000406d14        0x0 /tools/arm-gnu-toolchain-13.2.Rel1-x86_64-aarch64-none-elf/bin/../lib/gcc/aarch64-none-elf/13.2.1/../../../../aarch64-none-elf/lib/libg.a(libc_a-strncpy.o)
 .data          0x0000010000406d14        0x0 /tools/arm-gnu-toolchain-13.2.Rel1-x86_64-aarch64-none-elf/bin/../lib/gcc/aarch64-none-elf/13.2.1/../../../../aarch64-none-elf/lib/libg.a(libc_a-strtoull.o)
 .data          0x0000010000406d14        0x0 /tools/arm-gnu-toolchain-13.2.Rel1-x86_64-aarch64-none-elf/bin/../lib/gcc/aarch64-none-elf/13.2.1/../../../../aarch64-none-elf/lib/libg.a(libc_a-strchr.o)
 .data          0x0000010000406d14        0x0 /tools/arm-gnu-toolchain-13.2.Rel1-x86_64-aarch64-none-elf/bin/../lib/gcc/aarch64-none-elf/13.2.1/../../../../aarch64-none-elf/lib/libg.a(libc_a-strcmp.o)
 .data          0x0000010000406d14        0x0 /tools/arm-gnu-toolchain-13.2.Rel1-x86_64-aarch64-none-elf/bin/../lib/gcc/aarch64-none-elf/13.2.1/../../../../aarch64-none-elf/lib/libg.a(libc_a-sprintf.o)
 .data          0x0000010000406d14        0x0 /tools/arm-gnu-toolchain-13.2.Rel1-x86_64-aarch64-none-elf/bin/../lib/gcc/aarch64-none-elf/13.2.1/../../../../aarch64-none-elf/lib/libg.a(libc_a-strlen.o)
 .data          0x0000010000406d14        0x0 /tools/arm-gnu-toolchain-13.2.Rel1-x86_64-aarch64-none-elf/bin/../lib/gcc/aarch64-none-elf/13.2.1/../../../../aarch64-none-elf/lib/libg.a(libc_a-strspn.o)
 .data          0x0000010000406d14        0x0 /tools/arm-gnu-toolchain-13.2.Rel1-x86_64-aarch64-none-elf/bin/../lib/gcc/aarch64-none-elf/13.2.1/../../../../aarch64-none-elf/lib/libg.a(libc_a-strtok.o)
 .data          0x0000010000406d14        0x0 /tools/arm-gnu-toolchain-13.2.Rel1-x86_64-aarch64-none-elf/bin/../lib/gcc/aarch64-none-elf/13.2.1/../../../../aarch64-none-elf/lib/libg.a(libc_a-strtok_r.o)
 .data          0x0000010000406d14        0x0 /tools/arm-gnu-toolchain-13.2.Rel1-x86_64-aarch64-none-elf/bin/../lib/gcc/aarch64-none-elf/13.2.1/../../../../aarch64-none-elf/lib/libg.a(libc_a-strstr.o)
 .data          0x0000010000406d14        0x0 /tools/arm-gnu-toolchain-13.2.Rel1-x86_64-aarch64-none-elf/bin/../lib/gcc/aarch64-none-elf/13.2.1/../../../../aarch64-none-elf/lib/libg.a(libc_a-getopt.o)
 .data.optopt   0x0000010000406d14        0x4 /tools/arm-gnu-toolchain-13.2.Rel1-x86_64-aarch64-none-elf/bin/../lib/gcc/aarch64-none-elf/13.2.1/../../../../aarch64-none-elf/lib/libg.a(libc_a-getopt.o)
                0x0000010000406d14                optopt
 .data.opterr   0x0000010000406d18        0x4 /tools/arm-gnu-toolchain-13.2.Rel1-x86_64-aarch64-none-elf/bin/../lib/gcc/aarch64-none-elf/13.2.1/../../../../aarch64-none-elf/lib/libg.a(libc_a-getopt.o)
                0x0000010000406d18                opterr
 .data          0x0000010000406d1c        0x0 /tools/arm-gnu-toolchain-13.2.Rel1-x86_64-aarch64-none-elf/bin/../lib/gcc/aarch64-none-elf/13.2.1/../../../../aarch64-none-elf/lib/libg.a(libc_a-errno.o)
 .data          0x0000010000406d1c        0x0 /tools/arm-gnu-toolchain-13.2.Rel1-x86_64-aarch64-none-elf/bin/../lib/gcc/aarch64-none-elf/13.2.1/../../../../aarch64-none-elf/lib/libg.a(libc_a-svfprintf.o)
 .data          0x0000010000406d1c        0x0 /tools/arm-gnu-toolchain-13.2.Rel1-x86_64-aarch64-none-elf/bin/../lib/gcc/aarch64-none-elf/13.2.1/../../../../aarch64-none-elf/lib/libg.a(libc_a-strncmp.o)
 .data          0x0000010000406d1c        0x0 /tools/arm-gnu-toolchain-13.2.Rel1-x86_64-aarch64-none-elf/bin/../lib/gcc/aarch64-none-elf/13.2.1/../../../../aarch64-none-elf/lib/libg.a(libc_a-strnlen.o)
 .data          0x0000010000406d1c        0x0 /tools/arm-gnu-toolchain-13.2.Rel1-x86_64-aarch64-none-elf/bin/../lib/gcc/aarch64-none-elf/13.2.1/../../../../aarch64-none-elf/lib/libg.a(libc_a-vsnprintf.o)
 .data          0x0000010000406d1c        0x0 /tools/arm-gnu-toolchain-13.2.Rel1-x86_64-aarch64-none-elf/bin/../lib/gcc/aarch64-none-elf/13.2.1/../../../../aarch64-none-elf/lib/libg.a(libc_a-malloc.o)
 .data          0x0000010000406d1c        0x0 /tools/arm-gnu-toolchain-13.2.Rel1-x86_64-aarch64-none-elf/bin/../lib/gcc/aarch64-none-elf/13.2.1/../../../../aarch64-none-elf/lib/libg.a(libc_a-mallocr.o)
 *fill*         0x0000010000406d1c        0x4 
 .data.__malloc_sbrk_base
                0x0000010000406d20        0x8 /tools/arm-gnu-toolchain-13.2.Rel1-x86_64-aarch64-none-elf/bin/../lib/gcc/aarch64-none-elf/13.2.1/../../../../aarch64-none-elf/lib/libg.a(libc_a-mallocr.o)
                0x0000010000406d20                __malloc_sbrk_base
 .data.__malloc_trim_threshold
                0x0000010000406d28        0x8 /tools/arm-gnu-toolchain-13.2.Rel1-x86_64-aarch64-none-elf/bin/../lib/gcc/aarch64-none-elf/13.2.1/../../../../aarch64-none-elf/lib/libg.a(libc_a-mallocr.o)
                0x0000010000406d28                __malloc_trim_threshold
 .data.__malloc_av_
                0x0000010000406d30      0x810 /tools/arm-gnu-toolchain-13.2.Rel1-x86_64-aarch64-none-elf/bin/../lib/gcc/aarch64-none-elf/13.2.1/../../../../aarch64-none-elf/lib/libg.a(libc_a-mallocr.o)
                0x0000010000406d30                __malloc_av_
 .data          0x0000010000407540        0x0 /tools/arm-gnu-toolchain-13.2.Rel1-x86_64-aarch64-none-elf/bin/../lib/gcc/aarch64-none-elf/13.2.1/../../../../aarch64-none-elf/lib/libg.a(libc_a-assert.o)
 .data          0x0000010000407540        0x0 /tools/arm-gnu-toolchain-13.2.Rel1-x86_64-aarch64-none-elf/bin/../lib/gcc/aarch64-none-elf/13.2.1/../../../../aarch64-none-elf/lib/libg.a(libc_a-strcasecmp.o)
 .data          0x0000010000407540        0x0 /tools/arm-gnu-toolchain-13.2.Rel1-x86_64-aarch64-none-elf/bin/../lib/gcc/aarch64-none-elf/13.2.1/../../../../aarch64-none-elf/lib/libg.a(libc_a-wcrtomb.o)
 .data          0x0000010000407540        0x0 /tools/arm-gnu-toolchain-13.2.Rel1-x86_64-aarch64-none-elf/bin/../lib/gcc/aarch64-none-elf/13.2.1/../../../../aarch64-none-elf/lib/libg.a(libc_a-locale.o)
 .data.global_locale_string
                0x0000010000407540       0xe7 /tools/arm-gnu-toolchain-13.2.Rel1-x86_64-aarch64-none-elf/bin/../lib/gcc/aarch64-none-elf/13.2.1/../../../../aarch64-none-elf/lib/libg.a(libc_a-locale.o)
 *fill*         0x0000010000407627        0x9 
 .data.__global_locale
                0x0000010000407630      0x1a8 /tools/arm-gnu-toolchain-13.2.Rel1-x86_64-aarch64-none-elf/bin/../lib/gcc/aarch64-none-elf/13.2.1/../../../../aarch64-none-elf/lib/libg.a(libc_a-locale.o)
                0x0000010000407630                __global_locale
 *fill*         0x00000100004077d8        0x8 
 .data.__default_locale
                0x00000100004077e0       0x20 /tools/arm-gnu-toolchain-13.2.Rel1-x86_64-aarch64-none-elf/bin/../lib/gcc/aarch64-none-elf/13.2.1/../../../../aarch64-none-elf/lib/libg.a(libc_a-locale.o)
                0x00000100004077e0                __default_locale
 .data          0x0000010000407800        0x0 /tools/arm-gnu-toolchain-13.2.Rel1-x86_64-aarch64-none-elf/bin/../lib/gcc/aarch64-none-elf/13.2.1/../../../../aarch64-none-elf/lib/libg.a(libc_a-localeconv.o)
 .data          0x0000010000407800        0x0 /tools/arm-gnu-toolchain-13.2.Rel1-x86_64-aarch64-none-elf/bin/../lib/gcc/aarch64-none-elf/13.2.1/../../../../aarch64-none-elf/lib/libg.a(libc_a-memchr.o)
 .data          0x0000010000407800        0x0 /tools/arm-gnu-toolchain-13.2.Rel1-x86_64-aarch64-none-elf/bin/../lib/gcc/aarch64-none-elf/13.2.1/../../../../aarch64-none-elf/lib/libg.a(libc_a-memcmp.o)
 .data          0x0000010000407800        0x0 /tools/arm-gnu-toolchain-13.2.Rel1-x86_64-aarch64-none-elf/bin/../lib/gcc/aarch64-none-elf/13.2.1/../../../../aarch64-none-elf/lib/libg.a(libc_a-printf.o)
 .data          0x0000010000407800        0x0 /tools/arm-gnu-toolchain-13.2.Rel1-x86_64-aarch64-none-elf/bin/../lib/gcc/aarch64-none-elf/13.2.1/../../../../aarch64-none-elf/lib/libg.a(libc_a-memcpy.o)
 .data          0x0000010000407800        0x0 /tools/arm-gnu-toolchain-13.2.Rel1-x86_64-aarch64-none-elf/bin/../lib/gcc/aarch64-none-elf/13.2.1/../../../../aarch64-none-elf/lib/libg.a(libc_a-putchar.o)
 .data          0x0000010000407800        0x0 /tools/arm-gnu-toolchain-13.2.Rel1-x86_64-aarch64-none-elf/bin/../lib/gcc/aarch64-none-elf/13.2.1/../../../../aarch64-none-elf/lib/libg.a(libc_a-puts.o)
 .data          0x0000010000407800        0x0 /tools/arm-gnu-toolchain-13.2.Rel1-x86_64-aarch64-none-elf/bin/../lib/gcc/aarch64-none-elf/13.2.1/../../../../aarch64-none-elf/lib/libg.a(libc_a-mlock.o)
 .data          0x0000010000407800        0x0 /tools/arm-gnu-toolchain-13.2.Rel1-x86_64-aarch64-none-elf/bin/../lib/gcc/aarch64-none-elf/13.2.1/../../../../aarch64-none-elf/lib/libg.a(libc_a-mprec.o)
 .data          0x0000010000407800        0x0 /tools/arm-gnu-toolchain-13.2.Rel1-x86_64-aarch64-none-elf/bin/../lib/gcc/aarch64-none-elf/13.2.1/../../../../aarch64-none-elf/lib/libg.a(libc_a-atoi.o)
 .data          0x0000010000407800        0x0 /tools/arm-gnu-toolchain-13.2.Rel1-x86_64-aarch64-none-elf/bin/../lib/gcc/aarch64-none-elf/13.2.1/../../../../aarch64-none-elf/lib/libg.a(libc_a-rand.o)
 .data          0x0000010000407800        0x0 /tools/arm-gnu-toolchain-13.2.Rel1-x86_64-aarch64-none-elf/bin/../lib/gcc/aarch64-none-elf/13.2.1/../../../../aarch64-none-elf/lib/libg.a(libc_a-callocr.o)
 .data          0x0000010000407800        0x0 /tools/arm-gnu-toolchain-13.2.Rel1-x86_64-aarch64-none-elf/bin/../lib/gcc/aarch64-none-elf/13.2.1/../../../../aarch64-none-elf/lib/libg.a(libc_a-wcsrtombs.o)
 .data          0x0000010000407800        0x0 /tools/arm-gnu-toolchain-13.2.Rel1-x86_64-aarch64-none-elf/bin/../lib/gcc/aarch64-none-elf/13.2.1/../../../../aarch64-none-elf/lib/libg.a(libc_a-dtoa.o)
 .data          0x0000010000407800        0x0 /tools/arm-gnu-toolchain-13.2.Rel1-x86_64-aarch64-none-elf/bin/../lib/gcc/aarch64-none-elf/13.2.1/../../../../aarch64-none-elf/lib/libg.a(libc_a-strerror.o)
 .data          0x0000010000407800        0x0 /tools/arm-gnu-toolchain-13.2.Rel1-x86_64-aarch64-none-elf/bin/../lib/gcc/aarch64-none-elf/13.2.1/../../../../aarch64-none-elf/lib/libg.a(libc_a-ctype_.o)
 .data          0x0000010000407800        0x0 /tools/arm-gnu-toolchain-13.2.Rel1-x86_64-aarch64-none-elf/bin/../lib/gcc/aarch64-none-elf/13.2.1/../../../../aarch64-none-elf/lib/libg.a(libc_a-reent.o)
 .data          0x0000010000407800        0x0 /tools/arm-gnu-toolchain-13.2.Rel1-x86_64-aarch64-none-elf/bin/../lib/gcc/aarch64-none-elf/13.2.1/../../../../aarch64-none-elf/lib/libg.a(libc_a-impure.o)
 .data._impure_ptr
                0x0000010000407800        0x8 /tools/arm-gnu-toolchain-13.2.Rel1-x86_64-aarch64-none-elf/bin/../lib/gcc/aarch64-none-elf/13.2.1/../../../../aarch64-none-elf/lib/libg.a(libc_a-impure.o)
                0x0000010000407800                _impure_ptr
 .data._impure_data
                0x0000010000407808      0x158 /tools/arm-gnu-toolchain-13.2.Rel1-x86_64-aarch64-none-elf/bin/../lib/gcc/aarch64-none-elf/13.2.1/../../../../aarch64-none-elf/lib/libg.a(libc_a-impure.o)
                0x0000010000407808                _impure_data
 .data          0x0000010000407960        0x0 /tools/arm-gnu-toolchain-13.2.Rel1-x86_64-aarch64-none-elf/bin/../lib/gcc/aarch64-none-elf/13.2.1/../../../../aarch64-none-elf/lib/libg.a(libc_a-findfp.o)
 .data.__sglue  0x0000010000407960       0x18 /tools/arm-gnu-toolchain-13.2.Rel1-x86_64-aarch64-none-elf/bin/../lib/gcc/aarch64-none-elf/13.2.1/../../../../aarch64-none-elf/lib/libg.a(libc_a-findfp.o)
                0x0000010000407960                __sglue
 .data          0x0000010000407978        0x0 /tools/arm-gnu-toolchain-13.2.Rel1-x86_64-aarch64-none-elf/bin/../lib/gcc/aarch64-none-elf/13.2.1/../../../../aarch64-none-elf/lib/libg.a(libc_a-memset.o)
 .data          0x0000010000407978        0x0 /tools/arm-gnu-toolchain-13.2.Rel1-x86_64-aarch64-none-elf/bin/../lib/gcc/aarch64-none-elf/13.2.1/../../../../aarch64-none-elf/lib/libg.a(libm_a-s_nan.o)
 .data          0x0000010000407978        0x0 /tools/arm-gnu-toolchain-13.2.Rel1-x86_64-aarch64-none-elf/bin/../lib/gcc/aarch64-none-elf/13.2.1/../../../../aarch64-none-elf/lib/libg.a(libm_a-sf_nan.o)
 .data          0x0000010000407978        0x0 /tools/arm-gnu-toolchain-13.2.Rel1-x86_64-aarch64-none-elf/bin/../lib/gcc/aarch64-none-elf/13.2.1/../../../../aarch64-none-elf/lib/libg.a(libm_a-s_frexp.o)
 .data          0x0000010000407978        0x0 /tools/arm-gnu-toolchain-13.2.Rel1-x86_64-aarch64-none-elf/bin/../lib/gcc/aarch64-none-elf/13.2.1/../../../../aarch64-none-elf/lib/libg.a(libc_a-strlcpy.o)
 .data          0x0000010000407978        0x0 /tools/arm-gnu-toolchain-13.2.Rel1-x86_64-aarch64-none-elf/bin/../lib/gcc/aarch64-none-elf/13.2.1/../../../../aarch64-none-elf/lib/libg.a(libc_a-freer.o)
 .data          0x0000010000407978        0x0 /tools/arm-gnu-toolchain-13.2.Rel1-x86_64-aarch64-none-elf/bin/../lib/gcc/aarch64-none-elf/13.2.1/../../../../aarch64-none-elf/lib/libg.a(libc_a-strncasecmp.o)
 .data          0x0000010000407978        0x0 /tools/arm-gnu-toolchain-13.2.Rel1-x86_64-aarch64-none-elf/bin/../lib/gcc/aarch64-none-elf/13.2.1/../../../../aarch64-none-elf/lib/libg.a(libc_a-getenv.o)
 .data          0x0000010000407978        0x0 /tools/arm-gnu-toolchain-13.2.Rel1-x86_64-aarch64-none-elf/bin/../lib/gcc/aarch64-none-elf/13.2.1/../../../../aarch64-none-elf/lib/libg.a(libc_a-getenv_r.o)
 .data          0x0000010000407978        0x0 /tools/arm-gnu-toolchain-13.2.Rel1-x86_64-aarch64-none-elf/bin/../lib/gcc/aarch64-none-elf/13.2.1/../../../../aarch64-none-elf/lib/libg.a(libc_a-fputc.o)
 .data          0x0000010000407978        0x0 /tools/arm-gnu-toolchain-13.2.Rel1-x86_64-aarch64-none-elf/bin/../lib/gcc/aarch64-none-elf/13.2.1/../../../../aarch64-none-elf/lib/libg.a(libc_a-fputs.o)
 .data          0x0000010000407978        0x0 /tools/arm-gnu-toolchain-13.2.Rel1-x86_64-aarch64-none-elf/bin/../lib/gcc/aarch64-none-elf/13.2.1/../../../../aarch64-none-elf/lib/libg.a(libc_a-fiprintf.o)
 .data          0x0000010000407978        0x0 /tools/arm-gnu-toolchain-13.2.Rel1-x86_64-aarch64-none-elf/bin/../lib/gcc/aarch64-none-elf/13.2.1/../../../../aarch64-none-elf/lib/libg.a(libc_a-strcpy.o)
 .data          0x0000010000407978        0x0 /tools/arm-gnu-toolchain-13.2.Rel1-x86_64-aarch64-none-elf/bin/../lib/gcc/aarch64-none-elf/13.2.1/../../../../aarch64-none-elf/lib/libg.a(libc_a-stdio.o)
 .data          0x0000010000407978        0x0 /tools/arm-gnu-toolchain-13.2.Rel1-x86_64-aarch64-none-elf/bin/../lib/gcc/aarch64-none-elf/13.2.1/../../../../aarch64-none-elf/lib/libg.a(libc_a-wctomb_r.o)
 .data          0x0000010000407978        0x0 /tools/arm-gnu-toolchain-13.2.Rel1-x86_64-aarch64-none-elf/bin/../lib/gcc/aarch64-none-elf/13.2.1/../../../../aarch64-none-elf/lib/libg.a(libc_a-sbrkr.o)
 .data          0x0000010000407978        0x0 /tools/arm-gnu-toolchain-13.2.Rel1-x86_64-aarch64-none-elf/bin/../lib/gcc/aarch64-none-elf/13.2.1/../../../../aarch64-none-elf/lib/libg.a(libc_a-fvwrite.o)
 .data          0x0000010000407978        0x0 /tools/arm-gnu-toolchain-13.2.Rel1-x86_64-aarch64-none-elf/bin/../lib/gcc/aarch64-none-elf/13.2.1/../../../../aarch64-none-elf/lib/libg.a(libc_a-fwalk.o)
 .data          0x0000010000407978        0x0 /tools/arm-gnu-toolchain-13.2.Rel1-x86_64-aarch64-none-elf/bin/../lib/gcc/aarch64-none-elf/13.2.1/../../../../aarch64-none-elf/lib/libg.a(libc_a-writer.o)
 .data          0x0000010000407978        0x0 /tools/arm-gnu-toolchain-13.2.Rel1-x86_64-aarch64-none-elf/bin/../lib/gcc/aarch64-none-elf/13.2.1/../../../../aarch64-none-elf/lib/libg.a(libc_a-svfiprintf.o)
 .data          0x0000010000407978        0x0 /tools/arm-gnu-toolchain-13.2.Rel1-x86_64-aarch64-none-elf/bin/../lib/gcc/aarch64-none-elf/13.2.1/../../../../aarch64-none-elf/lib/libg.a(libc_a-vfprintf.o)
 .data          0x0000010000407978        0x0 /tools/arm-gnu-toolchain-13.2.Rel1-x86_64-aarch64-none-elf/bin/../lib/gcc/aarch64-none-elf/13.2.1/../../../../aarch64-none-elf/lib/libg.a(libc_a-vfiprintf.o)
 .data          0x0000010000407978        0x0 /tools/arm-gnu-toolchain-13.2.Rel1-x86_64-aarch64-none-elf/bin/../lib/gcc/aarch64-none-elf/13.2.1/../../../../aarch64-none-elf/lib/libg.a(libc_a-u_strerr.o)
 .data          0x0000010000407978        0x0 /tools/arm-gnu-toolchain-13.2.Rel1-x86_64-aarch64-none-elf/bin/../lib/gcc/aarch64-none-elf/13.2.1/../../../../aarch64-none-elf/lib/libg.a(libc_a-abort.o)
 .data          0x0000010000407978        0x0 /tools/arm-gnu-toolchain-13.2.Rel1-x86_64-aarch64-none-elf/bin/../lib/gcc/aarch64-none-elf/13.2.1/../../../../aarch64-none-elf/lib/libg.a(libc_a-mbtowc_r.o)
 .data          0x0000010000407978        0x0 /tools/arm-gnu-toolchain-13.2.Rel1-x86_64-aarch64-none-elf/bin/../lib/gcc/aarch64-none-elf/13.2.1/../../../../aarch64-none-elf/lib/libg.a(libc_a-strcat.o)
 .data          0x0000010000407978        0x0 /tools/arm-gnu-toolchain-13.2.Rel1-x86_64-aarch64-none-elf/bin/../lib/gcc/aarch64-none-elf/13.2.1/../../../../aarch64-none-elf/lib/libg.a(libc_a-lock.o)
 .data          0x0000010000407978        0x0 /tools/arm-gnu-toolchain-13.2.Rel1-x86_64-aarch64-none-elf/bin/../lib/gcc/aarch64-none-elf/13.2.1/../../../../aarch64-none-elf/lib/libg.a(libc_a-fclose.o)
 .data          0x0000010000407978        0x0 /tools/arm-gnu-toolchain-13.2.Rel1-x86_64-aarch64-none-elf/bin/../lib/gcc/aarch64-none-elf/13.2.1/../../../../aarch64-none-elf/lib/libg.a(libc_a-wsetup.o)
 .data          0x0000010000407978        0x0 /tools/arm-gnu-toolchain-13.2.Rel1-x86_64-aarch64-none-elf/bin/../lib/gcc/aarch64-none-elf/13.2.1/../../../../aarch64-none-elf/lib/libg.a(libc_a-makebuf.o)
 .data          0x0000010000407978        0x0 /tools/arm-gnu-toolchain-13.2.Rel1-x86_64-aarch64-none-elf/bin/../lib/gcc/aarch64-none-elf/13.2.1/../../../../aarch64-none-elf/lib/libg.a(libc_a-putc.o)
 .data          0x0000010000407978        0x0 /tools/arm-gnu-toolchain-13.2.Rel1-x86_64-aarch64-none-elf/bin/../lib/gcc/aarch64-none-elf/13.2.1/../../../../aarch64-none-elf/lib/libg.a(libc_a-wcsnrtombs.o)
 .data          0x0000010000407978        0x0 /tools/arm-gnu-toolchain-13.2.Rel1-x86_64-aarch64-none-elf/bin/../lib/gcc/aarch64-none-elf/13.2.1/../../../../aarch64-none-elf/lib/libg.a(libc_a-closer.o)
 .data          0x0000010000407978        0x0 /tools/arm-gnu-toolchain-13.2.Rel1-x86_64-aarch64-none-elf/bin/../lib/gcc/aarch64-none-elf/13.2.1/../../../../aarch64-none-elf/lib/libg.a(libc_a-fflush.o)
 .data          0x0000010000407978        0x0 /tools/arm-gnu-toolchain-13.2.Rel1-x86_64-aarch64-none-elf/bin/../lib/gcc/aarch64-none-elf/13.2.1/../../../../aarch64-none-elf/lib/libg.a(libc_a-environ.o)
 .data.environ  0x0000010000407978        0x8 /tools/arm-gnu-toolchain-13.2.Rel1-x86_64-aarch64-none-elf/bin/../lib/gcc/aarch64-none-elf/13.2.1/../../../../aarch64-none-elf/lib/libg.a(libc_a-environ.o)
                0x0000010000407978                environ
 .data          0x0000010000407980        0x0 /tools/arm-gnu-toolchain-13.2.Rel1-x86_64-aarch64-none-elf/bin/../lib/gcc/aarch64-none-elf/13.2.1/../../../../aarch64-none-elf/lib/libg.a(libc_a-reallocr.o)
 .data          0x0000010000407980        0x0 /tools/arm-gnu-toolchain-13.2.Rel1-x86_64-aarch64-none-elf/bin/../lib/gcc/aarch64-none-elf/13.2.1/../../../../aarch64-none-elf/lib/libg.a(libc_a-envlock.o)
 .data          0x0000010000407980        0x0 /tools/arm-gnu-toolchain-13.2.Rel1-x86_64-aarch64-none-elf/bin/../lib/gcc/aarch64-none-elf/13.2.1/../../../../aarch64-none-elf/lib/libg.a(libc_a-fstatr.o)
 .data          0x0000010000407980        0x0 /tools/arm-gnu-toolchain-13.2.Rel1-x86_64-aarch64-none-elf/bin/../lib/gcc/aarch64-none-elf/13.2.1/../../../../aarch64-none-elf/lib/libg.a(libc_a-signal.o)
 .data          0x0000010000407980        0x0 /tools/arm-gnu-toolchain-13.2.Rel1-x86_64-aarch64-none-elf/bin/../lib/gcc/aarch64-none-elf/13.2.1/../../../../aarch64-none-elf/lib/libg.a(libc_a-isattyr.o)
 .data          0x0000010000407980        0x0 /tools/arm-gnu-toolchain-13.2.Rel1-x86_64-aarch64-none-elf/bin/../lib/gcc/aarch64-none-elf/13.2.1/../../../../aarch64-none-elf/lib/libg.a(libc_a-lseekr.o)
 .data          0x0000010000407980        0x0 /tools/arm-gnu-toolchain-13.2.Rel1-x86_64-aarch64-none-elf/bin/../lib/gcc/aarch64-none-elf/13.2.1/../../../../aarch64-none-elf/lib/libg.a(libc_a-readr.o)
 .data          0x0000010000407980        0x0 /tools/arm-gnu-toolchain-13.2.Rel1-x86_64-aarch64-none-elf/bin/../lib/gcc/aarch64-none-elf/13.2.1/../../../../aarch64-none-elf/lib/libg.a(libc_a-fputwc.o)
 .data          0x0000010000407980        0x0 /tools/arm-gnu-toolchain-13.2.Rel1-x86_64-aarch64-none-elf/bin/../lib/gcc/aarch64-none-elf/13.2.1/../../../../aarch64-none-elf/lib/libg.a(libc_a-signalr.o)
 .data          0x0000010000407980        0x0 /tools/arm-gnu-toolchain-13.2.Rel1-x86_64-aarch64-none-elf/bin/../lib/gcc/aarch64-none-elf/13.2.1/../../../../aarch64-none-elf/lib/libg.a(libc_a-wbuf.o)
 .data          0x0000010000407980        0x0 /tools/arm-gnu-toolchain-13.2.Rel1-x86_64-aarch64-none-elf/bin/../lib/gcc/aarch64-none-elf/13.2.1/libgcc.a(trunctfdf2.o)
 .data          0x0000010000407980        0x0 /tools/arm-gnu-toolchain-13.2.Rel1-x86_64-aarch64-none-elf/bin/../lib/gcc/aarch64-none-elf/13.2.1/libgcc.a(sfp-exceptions.o)
 *(privileged_data)
 privileged_data
                0x0000010000407980       0xa0 libfreertos_kernel.a(queue.c.o)
                0x0000010000407980                xQueueRegistry
 privileged_data
                0x0000010000407a20      0x250 libfreertos_kernel.a(tasks.c.o)
                0x0000010000407a38                pxCurrentTCBs
 privileged_data
                0x0000010000407c70       0x78 libfreertos_kernel.a(timers.c.o)
 privileged_data
                0x0000010000407ce8       0x38 libfreertos_kernel.a(heap_4.c.o)
                0x0000010000407d20                PROVIDE (__cli_register_funcs_start = .)
 *(.cli_register_funcs)
 .cli_register_funcs
                0x0000010000407d20        0x8 build/tests/interrupt_test_helper_example/CMakeFiles/interrupt_test_helper_example.dir/example_test.c.o
                0x0000010000407d20                pcli_register_interrupt_helper_example
 .cli_register_funcs
                0x0000010000407d28        0x8 build/tests/arch/CMakeFiles/test_arch.dir/test_cli.c.o
                0x0000010000407d28                pcli_register_cli
 .cli_register_funcs
                0x0000010000407d30        0x8 build/tests/gpio/CMakeFiles/test_gpio.dir/test_gpio.c.o
                0x0000010000407d30                pcli_register_gpio
 .cli_register_funcs
                0x0000010000407d38        0x8 build/tests/dma/CMakeFiles/test_dma.dir/test_dma_main.c.o
                0x0000010000407d38                pcli_register_test_dma
 .cli_register_funcs
                0x0000010000407d40        0x8 build/tests/mailbox/CMakeFiles/mailbox_test.dir/test_mailbox_main.c.o
                0x0000010000407d40                pcli_register_test_mailbox
 .cli_register_funcs
                0x0000010000407d48        0x8 build/tests/pvt_con/CMakeFiles/test_pvt_con.dir/test_pvt_con.c.o
                0x0000010000407d48                pcli_register_test_pvt
 .cli_register_funcs
                0x0000010000407d50        0x8 build/tests/arch/arm64/CMakeFiles/test_arm64.dir/test_ca73.c.o
                0x0000010000407d50                pcli_register_ca73
 .cli_register_funcs
                0x0000010000407d58        0x8 build/tests/timer/dw_apb_timer/CMakeFiles/test_dw_apb_timer.dir/test_dw_apb_timer.c.o
                0x0000010000407d58                pcli_register_dw_apb_timer
 .cli_register_funcs
                0x0000010000407d60       0x18 build/tests/cmu/CMakeFiles/test_cmu.dir/test_cmu_main.c.o
                0x0000010000407d60                pcli_register_cmu_set
                0x0000010000407d68                pcli_register_cmu_freq
                0x0000010000407d70                pcli_register_test_cmu
 .cli_register_funcs
                0x0000010000407d78        0x8 build/tests/smmu/CMakeFiles/test_mmu.dir/test_mmu_main.c.o
                0x0000010000407d78                pcli_register_test_mmu
 .cli_register_funcs
                0x0000010000407d80        0x8 build/tests/log/CMakeFiles/show_log.dir/rebel_h_log.c.o
                0x0000010000407d80                pcli_register_show_log
 .cli_register_funcs
                0x0000010000407d88        0x8 build/tests/rbc/CMakeFiles/test_rbc.dir/test/all_test.c.o
                0x0000010000407d88                pcli_register_rbc
 .cli_register_funcs
                0x0000010000407d90        0x8 build/tests/rbcm/CMakeFiles/test_rbcm.dir/rbcm_test.c.o
                0x0000010000407d90                pcli_register_rbc_test
 .cli_register_funcs
                0x0000010000407d98        0x8 build/tests/i2c/CMakeFiles/test_i2c.dir/test_i2c_main.c.o
                0x0000010000407d98                pcli_register_test_i2c
 .cli_register_funcs
                0x0000010000407da0        0x8 build/tests/hbm3/CMakeFiles/hbm3_test.dir/memtest.c.o
                0x0000010000407da0                pcli_register_memtest
 .cli_register_funcs
                0x0000010000407da8        0x8 build/tests/hbm3/CMakeFiles/hbm3_test.dir/hbm3_irq_test.c.o
                0x0000010000407da8                pcli_register_hbm3_irq
 .cli_register_funcs
                0x0000010000407db0        0x8 build/tests/system_test/CMakeFiles/system_test.dir/test_dma_transaction.c.o
                0x0000010000407db0                pcli_register_dma_transaction_test
 .cli_register_funcs
                0x0000010000407db8        0x8 build/tests/system_test/CMakeFiles/system_test.dir/test_data_process.c.o
                0x0000010000407db8                pcli_register_data_process_test
 .cli_register_funcs
                0x0000010000407dc0        0x8 build/tests/dvfs/CMakeFiles/test_dvfs.dir/test_dvfs_main.c.o
                0x0000010000407dc0                pcli_register_test_dvfs
 .cli_register_funcs
                0x0000010000407dc8        0x8 build/tests/pmic/CMakeFiles/test_pmic.dir/test_pmic_main.c.o
                0x0000010000407dc8                pcli_register_test_pmic
 .cli_register_funcs
                0x0000010000407dd0        0x8 build/tests/pvt_con/CMakeFiles/pvt_cli.dir/pvt_cli.c.o
                0x0000010000407dd0                pcli_register_pvt
 .cli_register_funcs
                0x0000010000407dd8        0x8 build/tests/sic/CMakeFiles/test_sic.dir/test_sic.c.o
                0x0000010000407dd8                pcli_register_sic
 .cli_register_funcs
                0x0000010000407de0        0x8 build/tests/chipid/CMakeFiles/test_chipid.dir/read_chipid.c.o
                0x0000010000407de0                pcli_register_chipid
 .cli_register_funcs
                0x0000010000407de8        0x8 build/tests/flash/CMakeFiles/test_flash.dir/test_flash.c.o
                0x0000010000407de8                pcli_register_flash
 .cli_register_funcs
                0x0000010000407df0        0x8 build/tests/qspi/CMakeFiles/test_qspiapb.dir/test_qspiapb.c.o
                0x0000010000407df0                pcli_register_test_qspiapb
 .cli_register_funcs
                0x0000010000407df8        0x8 build/tests/rbdma/CMakeFiles/test_rbdma.dir/test_main_rbdma.c.o
                0x0000010000407df8                pcli_register_rbdma
 .cli_register_funcs
                0x0000010000407e00        0x8 services/terminal_service/libterminal_service.a(console.c.o)
                0x0000010000407e00                pcli_register_console
 .cli_register_funcs
                0x0000010000407e08       0x90 services/replay_service/libreplay_service.a(replay.c.o)
                0x0000010000407e08                pcli_register_dram_harsh_stress
                0x0000010000407e10                pcli_register_af_common_test_all_chiplet
                0x0000010000407e18                pcli_register_af_common_test
                0x0000010000407e20                pcli_register_ucie_perf_test
                0x0000010000407e28                pcli_register_hbm_perf_test_all_chiplet
                0x0000010000407e30                pcli_register_hbm_perf_test
                0x0000010000407e38                pcli_register_hbm3_temp
                0x0000010000407e40                pcli_register_replay_ver
                0x0000010000407e48                pcli_register_power_mode_ucie_test
                0x0000010000407e50                pcli_register_common_test_all_chiplet
                0x0000010000407e58                pcli_register_basic_test_all_chiplet
                0x0000010000407e60                pcli_register_ucie_stc_test
                0x0000010000407e68                pcli_register_ucie_stress_test
                0x0000010000407e70                pcli_register_shm_all_clear
                0x0000010000407e78                pcli_register_display_basic_test
                0x0000010000407e80                pcli_register_basic_test
                0x0000010000407e88                pcli_register_stc_test
                0x0000010000407e90                pcli_register_common_test_start
 .cli_register_funcs
                0x0000010000407e98       0x60 services/replay_service/libreplay_service.a(sub_function.c.o)
                0x0000010000407e98                pcli_register_dnc_report_dump_test
                0x0000010000407ea0                pcli_register_rbdma_error_interrupt_test
                0x0000010000407ea8                pcli_register_mglue_interrupt_test
                0x0000010000407eb0                pcli_register_shm_exception_test
                0x0000010000407eb8                pcli_register_test_oto
                0x0000010000407ec0                pcli_register_rbdma_dram_2_shm_perf_test
                0x0000010000407ec8                pcli_register_rbdma_perf_test
                0x0000010000407ed0                pcli_register_rbdma_test
                0x0000010000407ed8                pcli_register_checksum_test
                0x0000010000407ee0                pcli_register_studma_test
                0x0000010000407ee8                pcli_register_lpudma_test
                0x0000010000407ef0                pcli_register_ldudma_test
 .cli_register_funcs
                0x0000010000407ef8        0x8 services/replay_service/libreplay_service.a(rush_cli.c.o)
                0x0000010000407ef8                pcli_register_rush
 .cli_register_funcs
                0x0000010000407f00       0x70 services/replay_service/libreplay_service.a(dnc_if.c.o)
                0x0000010000407f00                pcli_register_dnc_tlb_preset
                0x0000010000407f08                pcli_register_ncore_skew_show
                0x0000010000407f10                pcli_register_dnc_skew_show
                0x0000010000407f18                pcli_register_sync_passage_all_clear
                0x0000010000407f20                pcli_register_sp_all_clear
                0x0000010000407f28                pcli_register_ncore_skew_set
                0x0000010000407f30                pcli_register_dnc_skew_set
                0x0000010000407f38                pcli_register_sv_init
                0x0000010000407f40                pcli_register_comp_tlb_interleaving
                0x0000010000407f48                pcli_register_dnc_affinity_mask
                0x0000010000407f50                pcli_register_dnc_cdump_mode_set
                0x0000010000407f58                pcli_register_sync_unit_show
                0x0000010000407f60                pcli_register_comp_unit_show
                0x0000010000407f68                pcli_register_nc_tlb_show
 .cli_register_funcs
                0x0000010000407f70       0x10 services/replay_service/libreplay_service.a(profile.c.o)
                0x0000010000407f70                pcli_register_profile_show_index
                0x0000010000407f78                pcli_register_profile_show
                0x0000010000407f80                PROVIDE (__cli_register_funcs_end = .)
                0x0000010000408000                . = ALIGN (0x400)
 *fill*         0x0000010000407f80       0x80 
                0x000001000040c000                . = (. + isr_stack_size)
 *fill*         0x0000010000408000     0x4000 
                0x000001000040c000                PROVIDE (isr_stack_top = .)
                0x000001000040c000                . = ALIGN (0x400)
                0x0000010000410000                . = (. + _stack_size)
 *fill*         0x000001000040c000     0x4000 
                0x0000010000410000                PROVIDE (_stack_top = .)
                0x0000010000410000                data_end = .
                0x0000010000410000                . = ALIGN (mmu_page_size)

.bss            0x0000010000410000   0x8abd90 load address 0x0000000000410000
                0x0000010000410000                bss_start = .
 *(.sbss*)
 *(.bss .bss.*)
 .bss           0x0000010000410000        0x0 CMakeFiles/freertos_kernel.elf.dir/main.c.o
 .bss           0x0000010000410000        0x0 gloss/CMakeFiles/freedom_metal.dir/freedom_metal.c.o
 .bss           0x0000010000410000        0x0 gloss/CMakeFiles/freedom_metal.dir/nanosleep.c.o
 .bss           0x0000010000410000        0x0 gloss/CMakeFiles/freedom_metal.dir/sys_access.c.o
 .bss           0x0000010000410000        0x0 gloss/CMakeFiles/freedom_metal.dir/sys_chdir.c.o
 .bss           0x0000010000410000        0x0 gloss/CMakeFiles/freedom_metal.dir/sys_chmod.c.o
 .bss           0x0000010000410000        0x0 gloss/CMakeFiles/freedom_metal.dir/sys_chown.c.o
 .bss           0x0000010000410000        0x0 gloss/CMakeFiles/freedom_metal.dir/sys_clock_gettime.c.o
 .bss           0x0000010000410000        0x0 gloss/CMakeFiles/freedom_metal.dir/sys_close.c.o
 .bss           0x0000010000410000        0x0 gloss/CMakeFiles/freedom_metal.dir/sys_execve.c.o
 .bss           0x0000010000410000        0x0 gloss/CMakeFiles/freedom_metal.dir/sys_exit.c.o
 .bss           0x0000010000410000        0x0 gloss/CMakeFiles/freedom_metal.dir/sys_faccessat.c.o
 .bss           0x0000010000410000        0x0 gloss/CMakeFiles/freedom_metal.dir/sys_fork.c.o
 .bss           0x0000010000410000        0x0 gloss/CMakeFiles/freedom_metal.dir/sys_fstat.c.o
 .bss           0x0000010000410000        0x0 gloss/CMakeFiles/freedom_metal.dir/sys_fstatat.c.o
 .bss           0x0000010000410000        0x0 gloss/CMakeFiles/freedom_metal.dir/sys_ftime.c.o
 .bss           0x0000010000410000        0x0 gloss/CMakeFiles/freedom_metal.dir/sys_getcwd.c.o
 .bss           0x0000010000410000        0x0 gloss/CMakeFiles/freedom_metal.dir/sys_getpid.c.o
 .bss           0x0000010000410000        0x0 gloss/CMakeFiles/freedom_metal.dir/sys_gettimeofday.c.o
 .bss           0x0000010000410000        0x0 gloss/CMakeFiles/freedom_metal.dir/sys_isatty.c.o
 .bss           0x0000010000410000        0x0 gloss/CMakeFiles/freedom_metal.dir/sys_kill.c.o
 .bss           0x0000010000410000        0x0 gloss/CMakeFiles/freedom_metal.dir/sys_link.c.o
 .bss           0x0000010000410000        0x0 gloss/CMakeFiles/freedom_metal.dir/sys_lseek.c.o
 .bss           0x0000010000410000        0x0 gloss/CMakeFiles/freedom_metal.dir/sys_lstat.c.o
 .bss           0x0000010000410000        0x0 gloss/CMakeFiles/freedom_metal.dir/sys_open.c.o
 .bss           0x0000010000410000        0x0 gloss/CMakeFiles/freedom_metal.dir/sys_openat.c.o
 .bss           0x0000010000410000        0x0 gloss/CMakeFiles/freedom_metal.dir/sys_read.c.o
 .bss           0x0000010000410000        0x0 gloss/CMakeFiles/freedom_metal.dir/sys_sbrk.c.o
 .bss           0x0000010000410000        0x0 gloss/CMakeFiles/freedom_metal.dir/sys_sysconf.c.o
 .bss           0x0000010000410000        0x0 gloss/CMakeFiles/freedom_metal.dir/sys_times.c.o
 .bss           0x0000010000410000        0x0 gloss/CMakeFiles/freedom_metal.dir/sys_unlink.c.o
 .bss           0x0000010000410000        0x0 gloss/CMakeFiles/freedom_metal.dir/sys_utime.c.o
 .bss           0x0000010000410000        0x0 gloss/CMakeFiles/freedom_metal.dir/sys_wait.c.o
 .bss           0x0000010000410000        0x0 gloss/CMakeFiles/freedom_metal.dir/sys_write.c.o
 .bss           0x0000010000410000        0x0 build/drivers/mailbox/CMakeFiles/mailbox.dir/mailbox.c.o
 .bss           0x0000010000410000        0x8 build/drivers/mailbox/CMakeFiles/mailbox.dir/mailbox_cb.c.o
 .bss           0x0000010000410008        0x0 build/drivers/pmu/CMakeFiles/pmu.dir/pmu.c.o
 .bss           0x0000010000410008       0x40 build/drivers/uart/CMakeFiles/uart.dir/uart.c.o
                0x0000010000410008                uart_tx_buffer
                0x0000010000410028                uart_rx_buffer
 .bss           0x0000010000410048      0x4c0 build/drivers/dma/CMakeFiles/dma.dir/pl330.c.o
 .bss           0x0000010000410508      0x940 build/drivers/gpio/CMakeFiles/gpio.dir/gpio.c.o
                0x0000010000410508                GPIO_GPE_USER_CALLBACK
                0x0000010000410888                GPIO_GPD_USER_CALLBACK
                0x0000010000410a48                GPIO_GPC_USER_CALLBACK
                0x0000010000410ac8                GPIO_GPB_USER_CALLBACK
 .bss           0x0000010000410e48       0xb8 build/drivers/smmu/CMakeFiles/smmu.dir/smmu.c.o
                0x0000010000410e48                mtx
 .bss           0x0000010000410f00      0x10c build/drivers/smmu/CMakeFiles/smmu.dir/smmu_pmu.c.o
                0x0000010000410f08                smmu_pmu_events
                0x0000010000411008                used_counter
 *fill*         0x000001000041100c        0x4 
 .bss           0x0000010000411010       0x2c build/drivers/pvt_con/CMakeFiles/pvt_con.dir/pvt_con.c.o
                0x0000010000411010                pvt_trip_flag
                0x0000010000411028                pvt_dfs_flag
 .bss           0x000001000041103c        0x0 build/drivers/cmu/CMakeFiles/cmu.dir/cmu.c.o
 .bss           0x000001000041103c        0x0 build/drivers/watchdog/CMakeFiles/watchdog.dir/dw_apb_wdt.c.o
 *fill*         0x000001000041103c        0x4 
 .bss           0x0000010000411040      0x9e4 build/drivers/rbc/CMakeFiles/rbc.dir/aw_ucie.c.o
 *fill*         0x0000010000411a24        0x4 
 .bss           0x0000010000411a28       0x84 build/drivers/rbc/CMakeFiles/rbc.dir/rbc_driver.c.o
                0x0000010000411a30                cmu_rbc_reg
                0x0000010000411a60                sysreg_rbc_reg
                0x0000010000411a90                rbc_init_ret
 .bss           0x0000010000411aac        0x0 build/drivers/rbc/CMakeFiles/rbc.dir/rbc_cmd.c.o
 .bss           0x0000010000411aac        0x0 build/drivers/rbcm/CMakeFiles/rbcm.dir/rbcm_core.c.o
 .bss           0x0000010000411aac        0x0 build/drivers/rbcm/CMakeFiles/rbcm.dir/rbcm_driver.c.o
 .bss           0x0000010000411aac        0x0 build/drivers/i2c/CMakeFiles/i2c.dir/i2c.c.o
 .bss           0x0000010000411aac        0x0 build/drivers/noc_logger/CMakeFiles/noc_logger.dir/noc_logger.c.o
 *fill*         0x0000010000411aac        0x4 
 .bss           0x0000010000411ab0      0x440 build/drivers/hbm3/CMakeFiles/hbm3.dir/hbm3.c.o
 .bss           0x0000010000411ef0        0x0 build/drivers/hbm3/CMakeFiles/hbm3.dir/tmrs.c.o
 .bss           0x0000010000411ef0        0x0 build/drivers/hbm3/CMakeFiles/hbm3.dir/icon.c.o
 .bss           0x0000010000411ef0        0x0 build/drivers/hbm3/CMakeFiles/hbm3.dir/hbm3_irq.c.o
 .bss           0x0000010000411ef0        0x0 build/drivers/hbm3/CMakeFiles/hbm3.dir/hbm3_am.c.o
 .bss           0x0000010000411ef0        0x0 build/drivers/pmic/CMakeFiles/pmic.dir/ltc1427cs8.c.o
 .bss           0x0000010000411ef0        0x0 build/drivers/pmic/CMakeFiles/pmic.dir/tca9548a.c.o
 .bss           0x0000010000411ef0        0x0 build/drivers/pmic/CMakeFiles/pmic.dir/mp5998.c.o
 .bss           0x0000010000411ef0        0x0 build/drivers/pmic/CMakeFiles/pmic.dir/mpq8785.c.o
 .bss           0x0000010000411ef0        0x0 build/drivers/pmic/CMakeFiles/pmic.dir/mp29816a.c.o
 .bss           0x0000010000411ef0        0x0 build/drivers/pmic/CMakeFiles/pmic.dir/g1505.c.o
 .bss           0x0000010000411ef0        0x0 build/drivers/pmic/CMakeFiles/pmic.dir/pmic_mgr.c.o
 .bss           0x0000010000411ef0        0x0 build/drivers/dvfs/CMakeFiles/dvfs.dir/dvfs.c.o
 .bss           0x0000010000411ef0        0x0 build/drivers/sic/CMakeFiles/sic.dir/sic.c.o
 .bss           0x0000010000411ef0        0x0 build/drivers/timer/dw_apb_timer/CMakeFiles/dw_apb_timer.dir/dw_apb_timer.c.o
 .bss           0x0000010000411ef0        0x0 build/drivers/qspi/qspi_apb/CMakeFiles/qspi_apb.dir/qspi_apb.c.o
 .bss           0x0000010000411ef0        0x0 build/drivers/flash/CMakeFiles/flash.dir/mt25q_flash.c.o
 .bss           0x0000010000411ef0        0x0 build/tests/common/CMakeFiles/test_common.dir/test_mailbox_cb.c.o
 .bss           0x0000010000411ef0        0x0 build/tests/interrupt_test_helper_example/CMakeFiles/interrupt_test_helper_example.dir/example_test.c.o
 .bss           0x0000010000411ef0        0x8 build/tests/interrupt_test_helper_example/CMakeFiles/interrupt_test_helper_example.dir/example_driver.c.o
 .bss           0x0000010000411ef8        0x0 build/tests/arch/CMakeFiles/test_arch.dir/test_cli.c.o
 .bss           0x0000010000411ef8      0x3e8 build/tests/gpio/CMakeFiles/test_gpio.dir/test_gpio.c.o
 .bss           0x00000100004122e0        0x0 build/tests/dma/CMakeFiles/test_dma.dir/test_dma_main.c.o
 .bss           0x00000100004122e0        0x0 build/tests/mailbox/CMakeFiles/mailbox_test.dir/test_mailbox_main.c.o
 .bss           0x00000100004122e0        0x0 build/tests/pvt_con/CMakeFiles/test_pvt_con.dir/test_pvt_con.c.o
 .bss           0x00000100004122e0        0x8 build/tests/arch/arm64/CMakeFiles/test_arm64.dir/test_ca73.c.o
 .bss           0x00000100004122e8        0x0 build/tests/timer/dw_apb_timer/CMakeFiles/test_dw_apb_timer.dir/test_dw_apb_timer.c.o
 .bss           0x00000100004122e8        0x0 build/tests/cmu/CMakeFiles/test_cmu.dir/test_cmu_main.c.o
 .bss           0x00000100004122e8        0x0 build/tests/smmu/CMakeFiles/test_mmu.dir/test_mmu_main.c.o
 .bss           0x00000100004122e8        0x0 build/tests/log/CMakeFiles/show_log.dir/rebel_h_log.c.o
 .bss           0x00000100004122e8        0x0 build/tests/rbc/CMakeFiles/test_rbc.dir/test/all_test.c.o
 .bss           0x00000100004122e8       0x10 build/tests/rbc/CMakeFiles/test_rbc.dir/test/test_aw_ucie_init.c.o
 .bss           0x00000100004122f8       0x38 build/tests/rbc/CMakeFiles/test_rbc.dir/test/test_aw_ucie_d2d_comp.c.o
                0x0000010000412320                bk_inject_test_func
                0x0000010000412328                bk_inject_nop_func
 .bss           0x0000010000412330       0x38 build/tests/rbc/CMakeFiles/test_rbc.dir/test/test_aw_ucie_d2d_err_and_link.c.o
 .bss           0x0000010000412368       0x18 build/tests/rbc/CMakeFiles/test_rbc.dir/test/test_aw_ucie_retraining.c.o
 .bss           0x0000010000412380       0x18 build/tests/rbc/CMakeFiles/test_rbc.dir/test/test_aw_ucie_sideband.c.o
 .bss           0x0000010000412398       0x10 build/tests/rbc/CMakeFiles/test_rbc.dir/test/test_aw_ucie_training.c.o
 .bss           0x00000100004123a8       0x28 build/tests/rbc/CMakeFiles/test_rbc.dir/test/test_aw_ucie_runtime_link_test.c.o
 .bss           0x00000100004123d0       0x20 build/tests/rbc/CMakeFiles/test_rbc.dir/test/test_aw_ucie_phy_compliance_test.c.o
 .bss           0x00000100004123f0     0x13b0 build/tests/rbc/CMakeFiles/test_rbc.dir/test/test_aw_ucie_exception.c.o
 .bss           0x00000100004137a0       0x20 build/tests/rbc/CMakeFiles/test_rbc.dir/test/test_aw_ucie_eye_of_margin.c.o
 .bss           0x00000100004137c0    0xcbddc build/tests/rbc/CMakeFiles/test_rbc.dir/test/test_aw_ucie_util.c.o
 .bss           0x00000100004df59c        0x0 build/tests/rbc/CMakeFiles/test_rbc.dir/test/test_fake_timer.c.o
 *fill*         0x00000100004df59c        0x4 
 .bss           0x00000100004df5a0       0x30 build/tests/rbc/CMakeFiles/test_rbc.dir/test/test_rbc_driver.c.o
 .bss           0x00000100004df5d0       0x10 build/tests/rbc/CMakeFiles/test_rbc.dir/mocks/fake_timer.c.o
 .bss           0x00000100004df5e0        0x0 build/tests/rbc/CMakeFiles/test_rbc.dir/mocks/fake_gic.c.o
 .bss           0x00000100004df5e0        0x0 build/tests/rbcm/CMakeFiles/test_rbcm.dir/rbcm_test.c.o
 .bss           0x00000100004df5e0        0x0 build/tests/rbcm/CMakeFiles/test_rbcm.dir/rbcm_reg_access_test.c.o
 .bss           0x00000100004df5e0        0x0 build/tests/i2c/CMakeFiles/test_i2c.dir/test_i2c_main.c.o
 .bss           0x00000100004df5e0        0x8 build/tests/hbm3/CMakeFiles/hbm3_test.dir/memtest.c.o
 .bss           0x00000100004df5e8        0x0 build/tests/hbm3/CMakeFiles/hbm3_test.dir/hbm3_irq_test.c.o
 .bss           0x00000100004df5e8      0x260 build/tests/system_test/CMakeFiles/system_test.dir/test_system.c.o
 .bss           0x00000100004df848        0x0 build/tests/system_test/CMakeFiles/system_test.dir/dma_transaction.c.o
 .bss           0x00000100004df848        0x0 build/tests/system_test/CMakeFiles/system_test.dir/test_dma_transaction.c.o
 .bss           0x00000100004df848        0x0 build/tests/system_test/CMakeFiles/system_test.dir/data_process.c.o
 .bss           0x00000100004df848        0x0 build/tests/system_test/CMakeFiles/system_test.dir/test_data_process.c.o
 .bss           0x00000100004df848        0x0 build/tests/dvfs/CMakeFiles/test_dvfs.dir/test_dvfs_main.c.o
 .bss           0x00000100004df848        0x0 build/tests/pmic/CMakeFiles/test_pmic.dir/test_pmic_main.c.o
 .bss           0x00000100004df848        0x0 build/tests/pvt_con/CMakeFiles/pvt_cli.dir/pvt_cli.c.o
 .bss           0x00000100004df848      0xa04 build/tests/pvt_con/CMakeFiles/pvt_cli.dir/pvt_cli_show.c.o
                0x00000100004df848                pvt_cli_t25
                0x00000100004dfd48                pvt_cli_t85
                0x00000100004e0248                pvt_cli_init
 .bss           0x00000100004e024c        0x0 build/tests/pvt_con/CMakeFiles/pvt_cli.dir/pvt_cli_enable.c.o
 .bss           0x00000100004e024c        0x0 build/tests/pvt_con/CMakeFiles/pvt_cli.dir/pvt_cli_disable.c.o
 .bss           0x00000100004e024c        0x0 build/tests/pvt_con/CMakeFiles/pvt_cli.dir/pvt_cli_set.c.o
 .bss           0x00000100004e024c        0x0 build/tests/sic/CMakeFiles/test_sic.dir/test_sic.c.o
 .bss           0x00000100004e024c        0x0 build/tests/chipid/CMakeFiles/test_chipid.dir/read_chipid.c.o
 .bss           0x00000100004e024c        0x0 build/tests/flash/CMakeFiles/test_flash.dir/test_flash.c.o
 .bss           0x00000100004e024c        0x0 build/tests/qspi/CMakeFiles/test_qspiapb.dir/test_qspiapb.c.o
 .bss           0x00000100004e024c        0x0 build/tests/rbdma/CMakeFiles/test_rbdma.dir/rbdma_tsync_test.c.o
 .bss           0x00000100004e024c        0x0 build/tests/rbdma/CMakeFiles/test_rbdma.dir/test_main_rbdma.c.o
 .bss           0x00000100004e024c        0x0 build/tests/rbdma/CMakeFiles/test_rbdma.dir/cache.S.o
 .bss           0x00000100004e024c        0x0 libfreertos_kernel.a(queue.c.o)
 .bss           0x00000100004e024c        0x0 libfreertos_kernel.a(tasks.c.o)
 .bss           0x00000100004e024c        0x0 libfreertos_kernel.a(timers.c.o)
 .bss           0x00000100004e024c        0x0 libfreertos_kernel.a(heap_4.c.o)
 .bss           0x00000100004e024c        0x0 libfreertos_kernel.a(list.c.o)
 *fill*         0x00000100004e024c        0x4 
 .bss           0x00000100004e0250     0x22f0 portable/libfreertos_kernel_port.a(port.c.o)
                0x00000100004e0250                ullPortTaskHasFPUContext
                0x00000100004e0270                ullPortSchedularRunning
                0x00000100004e0278                ullPortYieldRequired
                0x00000100004e04e8                GateWord
                0x00000100004e04f0                ucRecursionCountByLock
                0x00000100004e0500                ucOwnedByCore
                0x00000100004e2520                ullPortInterruptNesting
 .bss           0x00000100004e2540        0x0 portable/libfreertos_kernel_port.a(portASM.S.o)
 .bss           0x00000100004e2540        0x0 build/drivers/common/libdriver.a(driver.c.o)
 .bss           0x00000100004e2540        0x0 build/drivers/common/libassert.a(assert.c.o)
 .bss           0x00000100004e2540        0x0 build/drivers/common/libinterrupt.a(interrupt.c.o)
 .bss           0x00000100004e2540     0x3e10 build/drivers/intc/libintc.a(gicv3.c.o)
                0x00000100004e2540                gic_rdists
                0x00000100004e2560                isr_table
 .bss           0x00000100004e6350        0x0 build/drivers/intc/libintc.a(bakery_lock.c.o)
 .bss           0x00000100004e6350        0x8 services/cli_service/libcli_service.a(cli_task.c.o)
 .bss           0x00000100004e6358     0x2123 services/cli_service/libcli_service.a(sys_command_line.c.o)
 *fill*         0x00000100004e847b        0x5 
 .bss           0x00000100004e8480       0x40 services/terminal_service/libterminal_service.a(console_uart.c.o)
                0x00000100004e8480                test_uart_ptr
                0x00000100004e84a0                saved_uart_ptr
 .bss           0x00000100004e84c0       0x30 services/terminal_service/libterminal_service.a(console.c.o)
 .bss           0x00000100004e84f0       0x11 services/terminal_service/libterminal_service.a(terminal_task.c.o)
 *fill*         0x00000100004e8501        0x7 
 .bss           0x00000100004e8508    0x6c8a8 services/replay_service/libreplay_service.a(replay.c.o)
                0x00000100004e8588                cur_cl_id
                0x00000100004e88c8                passed_count
                0x00000100004e88cc                failed_count
                0x00000100004e89d8                golden_addr
                0x00000100004e89dc                golden_size
                0x00000100004e89e0                current_stc_idx
                0x00000100004e89e4                stc_fail_cnt
                0x00000100004e89e8                stc_pass_cnt
                0x00000100005409f0                stc_list
 .bss           0x0000010000554db0     0x1800 services/replay_service/libreplay_service.a(sub_function.c.o)
                0x0000010000554db0                ldtlb_info
                0x00000100005555b0                lptlb_info
                0x0000010000555db0                sttlb_info
 .bss           0x00000100005565b0        0x0 services/replay_service/libreplay_service.a(rush_cli.c.o)
 .bss           0x00000100005565b0        0x0 services/replay_service/libreplay_service.a(rush_cli_msg_buf.c.o)
 .bss           0x00000100005565b0        0x0 services/replay_service/libreplay_service.a(tpg_cli.c.o)
 .bss           0x00000100005565b0        0x0 services/replay_service/libreplay_service.a(rbdma_cli.c.o)
 .bss           0x00000100005565b0        0x0 services/replay_service/libreplay_service.a(mem_cli.c.o)
 .bss           0x00000100005565b0        0x0 services/replay_service/libreplay_service.a(chiplet.c.o)
 .bss           0x00000100005565b0        0x4 services/replay_service/libreplay_service.a(cmgr_if.c.o)
                0x00000100005565b0                tmp_cmgr_status
 *fill*         0x00000100005565b4        0x4 
 .bss           0x00000100005565b8       0x9c services/replay_service/libreplay_service.a(dnc_if.c.o)
                0x00000100005565b8                dnc_base
                0x0000010000556640                dnc_ops
                0x0000010000556650                dnc_cdump_flag
 .bss           0x0000010000556654        0x0 services/replay_service/libreplay_service.a(dnc_if_evt1.c.o)
 *fill*         0x0000010000556654        0x4 
 .bss           0x0000010000556658       0x10 services/replay_service/libreplay_service.a(rdsn_if.c.o)
 .bss           0x0000010000556668        0xc services/replay_service/libreplay_service.a(ptw.c.o)
 *fill*         0x0000010000556674        0x4 
 .bss           0x0000010000556678       0x19 services/replay_service/libreplay_service.a(rbdma_if.c.o)
 *fill*         0x0000010000556691        0x7 
 .bss           0x0000010000556698      0x104 services/replay_service/libreplay_service.a(shm_if.c.o)
                0x0000010000556798                is_tpg_done
 *fill*         0x000001000055679c        0x4 
 .bss           0x00000100005567a0        0x8 services/replay_service/libreplay_service.a(tbu_wrapper.c.o)
 .bss           0x00000100005567a8        0x0 services/replay_service/libreplay_service.a(debug.c.o)
 .bss           0x00000100005567a8        0xd services/replay_service/libreplay_service.a(ici.c.o)
                0x00000100005567b0                ici_lock
 *fill*         0x00000100005567b5        0x3 
 .bss           0x00000100005567b8      0x200 services/replay_service/libreplay_service.a(page_table_gen.c.o)
 .bss           0x00000100005569b8   0x7308c8 services/replay_service/libreplay_service.a(profile.c.o)
                0x0000010000556a08                profile_sg_id
                0x0000010000557208                rl_profile_event_start
                0x0000010000557280                rl_hwcounter
                0x0000010000887280                rl_profile_tasks
 .bss           0x0000010000c87280     0x6078 services/replay_service/libreplay_service.a(rl_queue.c.o)
 .bss           0x0000010000c8d2f8        0x9 services/replay_service/libreplay_service.a(abort.c.o)
 .bss           0x0000010000c8d301        0x0 services/replay_service/libreplay_service.a(context.S.o)
 .bss           0x0000010000c8d301        0x0 services/replay_service/libreplay_service.a(cpu_data.c.o)
 .bss           0x0000010000c8d301        0x0 services/replay_service/libreplay_service.a(spinlock.c.o)
 *fill*         0x0000010000c8d301        0x7 
 .bss           0x0000010000c8d308        0x8 services/replay_service/libreplay_service.a(core.c.o)
 .bss           0x0000010000c8d310        0x4 services/replay_service/libreplay_service.a(log.c.o)
 .bss           0x0000010000c8d314        0x0 services/replay_service/libreplay_service.a(rand.c.o)
 .bss           0x0000010000c8d314        0x0 services/replay_service/libreplay_service.a(backtrace.c.o)
 .bss           0x0000010000c8d314        0x0 services/replay_service/libreplay_service.a(argparse.c.o)
 .bss           0x0000010000c8d314        0x0 services/replay_service/libreplay_service.a(rush_cli_util.c.o)
 .bss           0x0000010000c8d314        0x0 services/replay_service/libreplay_service.a(spinlock.S.o)
 *fill*         0x0000010000c8d314        0x4 
 .bss           0x0000010000c8d318        0x8 services/task_adder_service/libtask_adder_service.a(task_adder.c.o)
 .bss           0x0000010000c8d320        0x0 portable/libfreertos_arch.a(startup.S.o)
 .bss           0x0000010000c8d320        0x0 portable/libfreertos_arch.a(vector.S.o)
 .bss           0x0000010000c8d320        0x0 portable/libfreertos_arch.a(prep_c.c.o)
 .bss           0x0000010000c8d320       0x10 libfreertos_kernel_config.a(FreeRTOS_tick_config.c.o)
                0x0000010000c8d320                isr_flag
 .bss           0x0000010000c8d330       0x10 portable/libsmp.a(smp.c.o)
                0x0000010000c8d330                ulSecondaryHoldingPen
 .bss           0x0000010000c8d340        0x0 portable/libsmp.a(smp.S.o)
 .bss           0x0000010000c8d340        0x0 portable/libsmccc.a(smccc.S.o)
 *fill*         0x0000010000c8d340      0xcc0 
 .bss           0x0000010000c8e000    0x29000 portable/libmmu.a(mmu.c.o)
 .bss           0x0000010000cb7000     0x4800 build/interrupt_test_helper/libinterrupt_test_helper.a(interrupt_test_helper.c.o)
 .bss           0x0000010000cbb800       0x58 build/unity/libunity.a(unity.c.o)
                0x0000010000cbb800                Unity
 .bss           0x0000010000cbb858       0x78 build/unity/libunity.a(unity_fixture.c.o)
                0x0000010000cbb858                UnityFixture
 .bss           0x0000010000cbb8d0        0x0 build/drivers/psci/libpsci.a(psci.c.o)
 .bss           0x0000010000cbb8d0        0x0 libfreertos_kernel.a(event_groups.c.o)
 .bss           0x0000010000cbb8d0        0x0 libfreertos_kernel.a(stream_buffer.c.o)
 .bss           0x0000010000cbb8d0        0x0 build/common/arch/libcommon.a(printf.c.o)
 .bss           0x0000010000cbb8d0        0x0 build/common/arch/libcommon.a(system_api.c.o)
 .bss           0x0000010000cbb8d0        0x8 build/drivers/timer/generic_timer/libgeneric_timer.a(generic_timer.c.o)
 .bss           0x0000010000cbb8d8        0x0 /tools/arm-gnu-toolchain-13.2.Rel1-x86_64-aarch64-none-elf/bin/../lib/gcc/aarch64-none-elf/13.2.1/libgcc.a(ldset_8_4.o)
 .bss           0x0000010000cbb8d8        0x0 /tools/arm-gnu-toolchain-13.2.Rel1-x86_64-aarch64-none-elf/bin/../lib/gcc/aarch64-none-elf/13.2.1/libgcc.a(lse-init.o)
 .bss.__aarch64_have_lse_atomics
                0x0000010000cbb8d8        0x1 /tools/arm-gnu-toolchain-13.2.Rel1-x86_64-aarch64-none-elf/bin/../lib/gcc/aarch64-none-elf/13.2.1/libgcc.a(lse-init.o)
                0x0000010000cbb8d8                __aarch64_have_lse_atomics
 .bss           0x0000010000cbb8d9        0x0 /tools/arm-gnu-toolchain-13.2.Rel1-x86_64-aarch64-none-elf/bin/../lib/gcc/aarch64-none-elf/13.2.1/../../../../aarch64-none-elf/lib/libg.a(libc_a-strtod.o)
 .bss           0x0000010000cbb8d9        0x0 /tools/arm-gnu-toolchain-13.2.Rel1-x86_64-aarch64-none-elf/bin/../lib/gcc/aarch64-none-elf/13.2.1/../../../../aarch64-none-elf/lib/libg.a(libc_a-strtol.o)
 .bss           0x0000010000cbb8d9        0x0 /tools/arm-gnu-toolchain-13.2.Rel1-x86_64-aarch64-none-elf/bin/../lib/gcc/aarch64-none-elf/13.2.1/../../../../aarch64-none-elf/lib/libg.a(libc_a-gdtoa-gethex.o)
 .bss           0x0000010000cbb8d9        0x0 /tools/arm-gnu-toolchain-13.2.Rel1-x86_64-aarch64-none-elf/bin/../lib/gcc/aarch64-none-elf/13.2.1/../../../../aarch64-none-elf/lib/libg.a(libc_a-strtoul.o)
 .bss           0x0000010000cbb8d9        0x0 /tools/arm-gnu-toolchain-13.2.Rel1-x86_64-aarch64-none-elf/bin/../lib/gcc/aarch64-none-elf/13.2.1/../../../../aarch64-none-elf/lib/libg.a(libc_a-gdtoa-hexnan.o)
 .bss           0x0000010000cbb8d9        0x0 /tools/arm-gnu-toolchain-13.2.Rel1-x86_64-aarch64-none-elf/bin/../lib/gcc/aarch64-none-elf/13.2.1/../../../../aarch64-none-elf/lib/libg.a(libc_a-strtoll.o)
 .bss           0x0000010000cbb8d9        0x0 /tools/arm-gnu-toolchain-13.2.Rel1-x86_64-aarch64-none-elf/bin/../lib/gcc/aarch64-none-elf/13.2.1/../../../../aarch64-none-elf/lib/libg.a(libc_a-strncpy.o)
 .bss           0x0000010000cbb8d9        0x0 /tools/arm-gnu-toolchain-13.2.Rel1-x86_64-aarch64-none-elf/bin/../lib/gcc/aarch64-none-elf/13.2.1/../../../../aarch64-none-elf/lib/libg.a(libc_a-strtoull.o)
 .bss           0x0000010000cbb8d9        0x0 /tools/arm-gnu-toolchain-13.2.Rel1-x86_64-aarch64-none-elf/bin/../lib/gcc/aarch64-none-elf/13.2.1/../../../../aarch64-none-elf/lib/libg.a(libc_a-strchr.o)
 .bss           0x0000010000cbb8d9        0x0 /tools/arm-gnu-toolchain-13.2.Rel1-x86_64-aarch64-none-elf/bin/../lib/gcc/aarch64-none-elf/13.2.1/../../../../aarch64-none-elf/lib/libg.a(libc_a-strcmp.o)
 .bss           0x0000010000cbb8d9        0x0 /tools/arm-gnu-toolchain-13.2.Rel1-x86_64-aarch64-none-elf/bin/../lib/gcc/aarch64-none-elf/13.2.1/../../../../aarch64-none-elf/lib/libg.a(libc_a-sprintf.o)
 .bss           0x0000010000cbb8d9        0x0 /tools/arm-gnu-toolchain-13.2.Rel1-x86_64-aarch64-none-elf/bin/../lib/gcc/aarch64-none-elf/13.2.1/../../../../aarch64-none-elf/lib/libg.a(libc_a-strlen.o)
 .bss           0x0000010000cbb8d9        0x0 /tools/arm-gnu-toolchain-13.2.Rel1-x86_64-aarch64-none-elf/bin/../lib/gcc/aarch64-none-elf/13.2.1/../../../../aarch64-none-elf/lib/libg.a(libc_a-strspn.o)
 .bss           0x0000010000cbb8d9        0x0 /tools/arm-gnu-toolchain-13.2.Rel1-x86_64-aarch64-none-elf/bin/../lib/gcc/aarch64-none-elf/13.2.1/../../../../aarch64-none-elf/lib/libg.a(libc_a-strtok.o)
 .bss           0x0000010000cbb8d9        0x0 /tools/arm-gnu-toolchain-13.2.Rel1-x86_64-aarch64-none-elf/bin/../lib/gcc/aarch64-none-elf/13.2.1/../../../../aarch64-none-elf/lib/libg.a(libc_a-strtok_r.o)
 .bss           0x0000010000cbb8d9        0x0 /tools/arm-gnu-toolchain-13.2.Rel1-x86_64-aarch64-none-elf/bin/../lib/gcc/aarch64-none-elf/13.2.1/../../../../aarch64-none-elf/lib/libg.a(libc_a-strstr.o)
 .bss           0x0000010000cbb8d9        0x0 /tools/arm-gnu-toolchain-13.2.Rel1-x86_64-aarch64-none-elf/bin/../lib/gcc/aarch64-none-elf/13.2.1/../../../../aarch64-none-elf/lib/libg.a(libc_a-getopt.o)
 *fill*         0x0000010000cbb8d9        0x3 
 .bss.num_nonopts
                0x0000010000cbb8dc        0x4 /tools/arm-gnu-toolchain-13.2.Rel1-x86_64-aarch64-none-elf/bin/../lib/gcc/aarch64-none-elf/13.2.1/../../../../aarch64-none-elf/lib/libg.a(libc_a-getopt.o)
 .bss.permute_from
                0x0000010000cbb8e0        0x4 /tools/arm-gnu-toolchain-13.2.Rel1-x86_64-aarch64-none-elf/bin/../lib/gcc/aarch64-none-elf/13.2.1/../../../../aarch64-none-elf/lib/libg.a(libc_a-getopt.o)
 .bss.optwhere  0x0000010000cbb8e4        0x4 /tools/arm-gnu-toolchain-13.2.Rel1-x86_64-aarch64-none-elf/bin/../lib/gcc/aarch64-none-elf/13.2.1/../../../../aarch64-none-elf/lib/libg.a(libc_a-getopt.o)
 .bss.optind    0x0000010000cbb8e8        0x4 /tools/arm-gnu-toolchain-13.2.Rel1-x86_64-aarch64-none-elf/bin/../lib/gcc/aarch64-none-elf/13.2.1/../../../../aarch64-none-elf/lib/libg.a(libc_a-getopt.o)
                0x0000010000cbb8e8                optind
 *fill*         0x0000010000cbb8ec        0x4 
 .bss.optarg    0x0000010000cbb8f0        0x8 /tools/arm-gnu-toolchain-13.2.Rel1-x86_64-aarch64-none-elf/bin/../lib/gcc/aarch64-none-elf/13.2.1/../../../../aarch64-none-elf/lib/libg.a(libc_a-getopt.o)
                0x0000010000cbb8f0                optarg
 .bss           0x0000010000cbb8f8        0x0 /tools/arm-gnu-toolchain-13.2.Rel1-x86_64-aarch64-none-elf/bin/../lib/gcc/aarch64-none-elf/13.2.1/../../../../aarch64-none-elf/lib/libg.a(libc_a-errno.o)
 .bss           0x0000010000cbb8f8        0x0 /tools/arm-gnu-toolchain-13.2.Rel1-x86_64-aarch64-none-elf/bin/../lib/gcc/aarch64-none-elf/13.2.1/../../../../aarch64-none-elf/lib/libg.a(libc_a-svfprintf.o)
 .bss           0x0000010000cbb8f8        0x0 /tools/arm-gnu-toolchain-13.2.Rel1-x86_64-aarch64-none-elf/bin/../lib/gcc/aarch64-none-elf/13.2.1/../../../../aarch64-none-elf/lib/libg.a(libc_a-strncmp.o)
 .bss           0x0000010000cbb8f8        0x0 /tools/arm-gnu-toolchain-13.2.Rel1-x86_64-aarch64-none-elf/bin/../lib/gcc/aarch64-none-elf/13.2.1/../../../../aarch64-none-elf/lib/libg.a(libc_a-strnlen.o)
 .bss           0x0000010000cbb8f8        0x0 /tools/arm-gnu-toolchain-13.2.Rel1-x86_64-aarch64-none-elf/bin/../lib/gcc/aarch64-none-elf/13.2.1/../../../../aarch64-none-elf/lib/libg.a(libc_a-vsnprintf.o)
 .bss           0x0000010000cbb8f8        0x0 /tools/arm-gnu-toolchain-13.2.Rel1-x86_64-aarch64-none-elf/bin/../lib/gcc/aarch64-none-elf/13.2.1/../../../../aarch64-none-elf/lib/libg.a(libc_a-malloc.o)
 .bss           0x0000010000cbb8f8        0x0 /tools/arm-gnu-toolchain-13.2.Rel1-x86_64-aarch64-none-elf/bin/../lib/gcc/aarch64-none-elf/13.2.1/../../../../aarch64-none-elf/lib/libg.a(libc_a-mallocr.o)
 .bss.__malloc_current_mallinfo
                0x0000010000cbb8f8       0x28 /tools/arm-gnu-toolchain-13.2.Rel1-x86_64-aarch64-none-elf/bin/../lib/gcc/aarch64-none-elf/13.2.1/../../../../aarch64-none-elf/lib/libg.a(libc_a-mallocr.o)
                0x0000010000cbb8f8                __malloc_current_mallinfo
 .bss.__malloc_max_total_mem
                0x0000010000cbb920        0x8 /tools/arm-gnu-toolchain-13.2.Rel1-x86_64-aarch64-none-elf/bin/../lib/gcc/aarch64-none-elf/13.2.1/../../../../aarch64-none-elf/lib/libg.a(libc_a-mallocr.o)
                0x0000010000cbb920                __malloc_max_total_mem
 .bss.__malloc_max_sbrked_mem
                0x0000010000cbb928        0x8 /tools/arm-gnu-toolchain-13.2.Rel1-x86_64-aarch64-none-elf/bin/../lib/gcc/aarch64-none-elf/13.2.1/../../../../aarch64-none-elf/lib/libg.a(libc_a-mallocr.o)
                0x0000010000cbb928                __malloc_max_sbrked_mem
 .bss.__malloc_top_pad
                0x0000010000cbb930        0x8 /tools/arm-gnu-toolchain-13.2.Rel1-x86_64-aarch64-none-elf/bin/../lib/gcc/aarch64-none-elf/13.2.1/../../../../aarch64-none-elf/lib/libg.a(libc_a-mallocr.o)
                0x0000010000cbb930                __malloc_top_pad
 .bss           0x0000010000cbb938        0x0 /tools/arm-gnu-toolchain-13.2.Rel1-x86_64-aarch64-none-elf/bin/../lib/gcc/aarch64-none-elf/13.2.1/../../../../aarch64-none-elf/lib/libg.a(libc_a-assert.o)
 .bss           0x0000010000cbb938        0x0 /tools/arm-gnu-toolchain-13.2.Rel1-x86_64-aarch64-none-elf/bin/../lib/gcc/aarch64-none-elf/13.2.1/../../../../aarch64-none-elf/lib/libg.a(libc_a-strcasecmp.o)
 .bss           0x0000010000cbb938        0x0 /tools/arm-gnu-toolchain-13.2.Rel1-x86_64-aarch64-none-elf/bin/../lib/gcc/aarch64-none-elf/13.2.1/../../../../aarch64-none-elf/lib/libg.a(libc_a-wcrtomb.o)
 .bss           0x0000010000cbb938        0x0 /tools/arm-gnu-toolchain-13.2.Rel1-x86_64-aarch64-none-elf/bin/../lib/gcc/aarch64-none-elf/13.2.1/../../../../aarch64-none-elf/lib/libg.a(libc_a-locale.o)
 *fill*         0x0000010000cbb938        0x8 
 .bss.saved_categories.0
                0x0000010000cbb940       0xe0 /tools/arm-gnu-toolchain-13.2.Rel1-x86_64-aarch64-none-elf/bin/../lib/gcc/aarch64-none-elf/13.2.1/../../../../aarch64-none-elf/lib/libg.a(libc_a-locale.o)
 .bss.new_categories.1
                0x0000010000cbba20       0xe0 /tools/arm-gnu-toolchain-13.2.Rel1-x86_64-aarch64-none-elf/bin/../lib/gcc/aarch64-none-elf/13.2.1/../../../../aarch64-none-elf/lib/libg.a(libc_a-locale.o)
 .bss._PathLocale
                0x0000010000cbbb00        0x8 /tools/arm-gnu-toolchain-13.2.Rel1-x86_64-aarch64-none-elf/bin/../lib/gcc/aarch64-none-elf/13.2.1/../../../../aarch64-none-elf/lib/libg.a(libc_a-locale.o)
                0x0000010000cbbb00                _PathLocale
 .bss           0x0000010000cbbb08        0x0 /tools/arm-gnu-toolchain-13.2.Rel1-x86_64-aarch64-none-elf/bin/../lib/gcc/aarch64-none-elf/13.2.1/../../../../aarch64-none-elf/lib/libg.a(libc_a-localeconv.o)
 .bss           0x0000010000cbbb08        0x0 /tools/arm-gnu-toolchain-13.2.Rel1-x86_64-aarch64-none-elf/bin/../lib/gcc/aarch64-none-elf/13.2.1/../../../../aarch64-none-elf/lib/libg.a(libc_a-memchr.o)
 .bss           0x0000010000cbbb08        0x0 /tools/arm-gnu-toolchain-13.2.Rel1-x86_64-aarch64-none-elf/bin/../lib/gcc/aarch64-none-elf/13.2.1/../../../../aarch64-none-elf/lib/libg.a(libc_a-memcmp.o)
 .bss           0x0000010000cbbb08        0x0 /tools/arm-gnu-toolchain-13.2.Rel1-x86_64-aarch64-none-elf/bin/../lib/gcc/aarch64-none-elf/13.2.1/../../../../aarch64-none-elf/lib/libg.a(libc_a-printf.o)
 .bss           0x0000010000cbbb08        0x0 /tools/arm-gnu-toolchain-13.2.Rel1-x86_64-aarch64-none-elf/bin/../lib/gcc/aarch64-none-elf/13.2.1/../../../../aarch64-none-elf/lib/libg.a(libc_a-memcpy.o)
 .bss           0x0000010000cbbb08        0x0 /tools/arm-gnu-toolchain-13.2.Rel1-x86_64-aarch64-none-elf/bin/../lib/gcc/aarch64-none-elf/13.2.1/../../../../aarch64-none-elf/lib/libg.a(libc_a-putchar.o)
 .bss           0x0000010000cbbb08        0x0 /tools/arm-gnu-toolchain-13.2.Rel1-x86_64-aarch64-none-elf/bin/../lib/gcc/aarch64-none-elf/13.2.1/../../../../aarch64-none-elf/lib/libg.a(libc_a-puts.o)
 .bss           0x0000010000cbbb08        0x0 /tools/arm-gnu-toolchain-13.2.Rel1-x86_64-aarch64-none-elf/bin/../lib/gcc/aarch64-none-elf/13.2.1/../../../../aarch64-none-elf/lib/libg.a(libc_a-mlock.o)
 .bss           0x0000010000cbbb08        0x0 /tools/arm-gnu-toolchain-13.2.Rel1-x86_64-aarch64-none-elf/bin/../lib/gcc/aarch64-none-elf/13.2.1/../../../../aarch64-none-elf/lib/libg.a(libc_a-mprec.o)
 .bss           0x0000010000cbbb08        0x0 /tools/arm-gnu-toolchain-13.2.Rel1-x86_64-aarch64-none-elf/bin/../lib/gcc/aarch64-none-elf/13.2.1/../../../../aarch64-none-elf/lib/libg.a(libc_a-atoi.o)
 .bss           0x0000010000cbbb08        0x0 /tools/arm-gnu-toolchain-13.2.Rel1-x86_64-aarch64-none-elf/bin/../lib/gcc/aarch64-none-elf/13.2.1/../../../../aarch64-none-elf/lib/libg.a(libc_a-rand.o)
 .bss           0x0000010000cbbb08        0x0 /tools/arm-gnu-toolchain-13.2.Rel1-x86_64-aarch64-none-elf/bin/../lib/gcc/aarch64-none-elf/13.2.1/../../../../aarch64-none-elf/lib/libg.a(libc_a-callocr.o)
 .bss           0x0000010000cbbb08        0x0 /tools/arm-gnu-toolchain-13.2.Rel1-x86_64-aarch64-none-elf/bin/../lib/gcc/aarch64-none-elf/13.2.1/../../../../aarch64-none-elf/lib/libg.a(libc_a-wcsrtombs.o)
 .bss           0x0000010000cbbb08        0x0 /tools/arm-gnu-toolchain-13.2.Rel1-x86_64-aarch64-none-elf/bin/../lib/gcc/aarch64-none-elf/13.2.1/../../../../aarch64-none-elf/lib/libg.a(libc_a-dtoa.o)
 .bss           0x0000010000cbbb08        0x0 /tools/arm-gnu-toolchain-13.2.Rel1-x86_64-aarch64-none-elf/bin/../lib/gcc/aarch64-none-elf/13.2.1/../../../../aarch64-none-elf/lib/libg.a(libc_a-strerror.o)
 .bss           0x0000010000cbbb08        0x0 /tools/arm-gnu-toolchain-13.2.Rel1-x86_64-aarch64-none-elf/bin/../lib/gcc/aarch64-none-elf/13.2.1/../../../../aarch64-none-elf/lib/libg.a(libc_a-ctype_.o)
 .bss           0x0000010000cbbb08        0x0 /tools/arm-gnu-toolchain-13.2.Rel1-x86_64-aarch64-none-elf/bin/../lib/gcc/aarch64-none-elf/13.2.1/../../../../aarch64-none-elf/lib/libg.a(libc_a-reent.o)
 .bss.errno     0x0000010000cbbb08        0x4 /tools/arm-gnu-toolchain-13.2.Rel1-x86_64-aarch64-none-elf/bin/../lib/gcc/aarch64-none-elf/13.2.1/../../../../aarch64-none-elf/lib/libg.a(libc_a-reent.o)
                0x0000010000cbbb08                errno
 .bss           0x0000010000cbbb0c        0x0 /tools/arm-gnu-toolchain-13.2.Rel1-x86_64-aarch64-none-elf/bin/../lib/gcc/aarch64-none-elf/13.2.1/../../../../aarch64-none-elf/lib/libg.a(libc_a-impure.o)
 .bss           0x0000010000cbbb0c        0x0 /tools/arm-gnu-toolchain-13.2.Rel1-x86_64-aarch64-none-elf/bin/../lib/gcc/aarch64-none-elf/13.2.1/../../../../aarch64-none-elf/lib/libg.a(libc_a-findfp.o)
 *fill*         0x0000010000cbbb0c        0x4 
 .bss.__sf      0x0000010000cbbb10      0x228 /tools/arm-gnu-toolchain-13.2.Rel1-x86_64-aarch64-none-elf/bin/../lib/gcc/aarch64-none-elf/13.2.1/../../../../aarch64-none-elf/lib/libg.a(libc_a-findfp.o)
                0x0000010000cbbb10                __sf
 .bss.__stdio_exit_handler
                0x0000010000cbbd38        0x8 /tools/arm-gnu-toolchain-13.2.Rel1-x86_64-aarch64-none-elf/bin/../lib/gcc/aarch64-none-elf/13.2.1/../../../../aarch64-none-elf/lib/libg.a(libc_a-findfp.o)
                0x0000010000cbbd38                __stdio_exit_handler
 .bss           0x0000010000cbbd40        0x0 /tools/arm-gnu-toolchain-13.2.Rel1-x86_64-aarch64-none-elf/bin/../lib/gcc/aarch64-none-elf/13.2.1/../../../../aarch64-none-elf/lib/libg.a(libc_a-memset.o)
 .bss           0x0000010000cbbd40        0x0 /tools/arm-gnu-toolchain-13.2.Rel1-x86_64-aarch64-none-elf/bin/../lib/gcc/aarch64-none-elf/13.2.1/../../../../aarch64-none-elf/lib/libg.a(libm_a-s_nan.o)
 .bss           0x0000010000cbbd40        0x0 /tools/arm-gnu-toolchain-13.2.Rel1-x86_64-aarch64-none-elf/bin/../lib/gcc/aarch64-none-elf/13.2.1/../../../../aarch64-none-elf/lib/libg.a(libm_a-sf_nan.o)
 .bss           0x0000010000cbbd40        0x0 /tools/arm-gnu-toolchain-13.2.Rel1-x86_64-aarch64-none-elf/bin/../lib/gcc/aarch64-none-elf/13.2.1/../../../../aarch64-none-elf/lib/libg.a(libm_a-s_frexp.o)
 .bss           0x0000010000cbbd40        0x0 /tools/arm-gnu-toolchain-13.2.Rel1-x86_64-aarch64-none-elf/bin/../lib/gcc/aarch64-none-elf/13.2.1/../../../../aarch64-none-elf/lib/libg.a(libc_a-strlcpy.o)
 .bss           0x0000010000cbbd40        0x0 /tools/arm-gnu-toolchain-13.2.Rel1-x86_64-aarch64-none-elf/bin/../lib/gcc/aarch64-none-elf/13.2.1/../../../../aarch64-none-elf/lib/libg.a(libc_a-freer.o)
 .bss           0x0000010000cbbd40        0x0 /tools/arm-gnu-toolchain-13.2.Rel1-x86_64-aarch64-none-elf/bin/../lib/gcc/aarch64-none-elf/13.2.1/../../../../aarch64-none-elf/lib/libg.a(libc_a-strncasecmp.o)
 .bss           0x0000010000cbbd40        0x0 /tools/arm-gnu-toolchain-13.2.Rel1-x86_64-aarch64-none-elf/bin/../lib/gcc/aarch64-none-elf/13.2.1/../../../../aarch64-none-elf/lib/libg.a(libc_a-getenv.o)
 .bss           0x0000010000cbbd40        0x0 /tools/arm-gnu-toolchain-13.2.Rel1-x86_64-aarch64-none-elf/bin/../lib/gcc/aarch64-none-elf/13.2.1/../../../../aarch64-none-elf/lib/libg.a(libc_a-getenv_r.o)
 .bss           0x0000010000cbbd40        0x0 /tools/arm-gnu-toolchain-13.2.Rel1-x86_64-aarch64-none-elf/bin/../lib/gcc/aarch64-none-elf/13.2.1/../../../../aarch64-none-elf/lib/libg.a(libc_a-fputc.o)
 .bss           0x0000010000cbbd40        0x0 /tools/arm-gnu-toolchain-13.2.Rel1-x86_64-aarch64-none-elf/bin/../lib/gcc/aarch64-none-elf/13.2.1/../../../../aarch64-none-elf/lib/libg.a(libc_a-fputs.o)
 .bss           0x0000010000cbbd40        0x0 /tools/arm-gnu-toolchain-13.2.Rel1-x86_64-aarch64-none-elf/bin/../lib/gcc/aarch64-none-elf/13.2.1/../../../../aarch64-none-elf/lib/libg.a(libc_a-fiprintf.o)
 .bss           0x0000010000cbbd40        0x0 /tools/arm-gnu-toolchain-13.2.Rel1-x86_64-aarch64-none-elf/bin/../lib/gcc/aarch64-none-elf/13.2.1/../../../../aarch64-none-elf/lib/libg.a(libc_a-strcpy.o)
 .bss           0x0000010000cbbd40        0x0 /tools/arm-gnu-toolchain-13.2.Rel1-x86_64-aarch64-none-elf/bin/../lib/gcc/aarch64-none-elf/13.2.1/../../../../aarch64-none-elf/lib/libg.a(libc_a-stdio.o)
 .bss           0x0000010000cbbd40        0x0 /tools/arm-gnu-toolchain-13.2.Rel1-x86_64-aarch64-none-elf/bin/../lib/gcc/aarch64-none-elf/13.2.1/../../../../aarch64-none-elf/lib/libg.a(libc_a-wctomb_r.o)
 .bss           0x0000010000cbbd40        0x0 /tools/arm-gnu-toolchain-13.2.Rel1-x86_64-aarch64-none-elf/bin/../lib/gcc/aarch64-none-elf/13.2.1/../../../../aarch64-none-elf/lib/libg.a(libc_a-sbrkr.o)
 .bss           0x0000010000cbbd40        0x0 /tools/arm-gnu-toolchain-13.2.Rel1-x86_64-aarch64-none-elf/bin/../lib/gcc/aarch64-none-elf/13.2.1/../../../../aarch64-none-elf/lib/libg.a(libc_a-fvwrite.o)
 .bss           0x0000010000cbbd40        0x0 /tools/arm-gnu-toolchain-13.2.Rel1-x86_64-aarch64-none-elf/bin/../lib/gcc/aarch64-none-elf/13.2.1/../../../../aarch64-none-elf/lib/libg.a(libc_a-fwalk.o)
 .bss           0x0000010000cbbd40        0x0 /tools/arm-gnu-toolchain-13.2.Rel1-x86_64-aarch64-none-elf/bin/../lib/gcc/aarch64-none-elf/13.2.1/../../../../aarch64-none-elf/lib/libg.a(libc_a-writer.o)
 .bss           0x0000010000cbbd40        0x0 /tools/arm-gnu-toolchain-13.2.Rel1-x86_64-aarch64-none-elf/bin/../lib/gcc/aarch64-none-elf/13.2.1/../../../../aarch64-none-elf/lib/libg.a(libc_a-svfiprintf.o)
 .bss           0x0000010000cbbd40        0x0 /tools/arm-gnu-toolchain-13.2.Rel1-x86_64-aarch64-none-elf/bin/../lib/gcc/aarch64-none-elf/13.2.1/../../../../aarch64-none-elf/lib/libg.a(libc_a-vfprintf.o)
 .bss           0x0000010000cbbd40        0x0 /tools/arm-gnu-toolchain-13.2.Rel1-x86_64-aarch64-none-elf/bin/../lib/gcc/aarch64-none-elf/13.2.1/../../../../aarch64-none-elf/lib/libg.a(libc_a-vfiprintf.o)
 .bss           0x0000010000cbbd40        0x0 /tools/arm-gnu-toolchain-13.2.Rel1-x86_64-aarch64-none-elf/bin/../lib/gcc/aarch64-none-elf/13.2.1/../../../../aarch64-none-elf/lib/libg.a(libc_a-u_strerr.o)
 .bss           0x0000010000cbbd40        0x0 /tools/arm-gnu-toolchain-13.2.Rel1-x86_64-aarch64-none-elf/bin/../lib/gcc/aarch64-none-elf/13.2.1/../../../../aarch64-none-elf/lib/libg.a(libc_a-abort.o)
 .bss           0x0000010000cbbd40        0x0 /tools/arm-gnu-toolchain-13.2.Rel1-x86_64-aarch64-none-elf/bin/../lib/gcc/aarch64-none-elf/13.2.1/../../../../aarch64-none-elf/lib/libg.a(libc_a-mbtowc_r.o)
 .bss           0x0000010000cbbd40        0x0 /tools/arm-gnu-toolchain-13.2.Rel1-x86_64-aarch64-none-elf/bin/../lib/gcc/aarch64-none-elf/13.2.1/../../../../aarch64-none-elf/lib/libg.a(libc_a-strcat.o)
 .bss           0x0000010000cbbd40        0x0 /tools/arm-gnu-toolchain-13.2.Rel1-x86_64-aarch64-none-elf/bin/../lib/gcc/aarch64-none-elf/13.2.1/../../../../aarch64-none-elf/lib/libg.a(libc_a-lock.o)
 .bss.__lock___arc4random_mutex
                0x0000010000cbbd40        0x1 /tools/arm-gnu-toolchain-13.2.Rel1-x86_64-aarch64-none-elf/bin/../lib/gcc/aarch64-none-elf/13.2.1/../../../../aarch64-none-elf/lib/libg.a(libc_a-lock.o)
                0x0000010000cbbd40                __lock___arc4random_mutex
 *fill*         0x0000010000cbbd41        0x7 
 .bss.__lock___dd_hash_mutex
                0x0000010000cbbd48        0x1 /tools/arm-gnu-toolchain-13.2.Rel1-x86_64-aarch64-none-elf/bin/../lib/gcc/aarch64-none-elf/13.2.1/../../../../aarch64-none-elf/lib/libg.a(libc_a-lock.o)
                0x0000010000cbbd48                __lock___dd_hash_mutex
 *fill*         0x0000010000cbbd49        0x7 
 .bss.__lock___tz_mutex
                0x0000010000cbbd50        0x1 /tools/arm-gnu-toolchain-13.2.Rel1-x86_64-aarch64-none-elf/bin/../lib/gcc/aarch64-none-elf/13.2.1/../../../../aarch64-none-elf/lib/libg.a(libc_a-lock.o)
                0x0000010000cbbd50                __lock___tz_mutex
 *fill*         0x0000010000cbbd51        0x7 
 .bss.__lock___env_recursive_mutex
                0x0000010000cbbd58        0x1 /tools/arm-gnu-toolchain-13.2.Rel1-x86_64-aarch64-none-elf/bin/../lib/gcc/aarch64-none-elf/13.2.1/../../../../aarch64-none-elf/lib/libg.a(libc_a-lock.o)
                0x0000010000cbbd58                __lock___env_recursive_mutex
 *fill*         0x0000010000cbbd59        0x7 
 .bss.__lock___malloc_recursive_mutex
                0x0000010000cbbd60        0x1 /tools/arm-gnu-toolchain-13.2.Rel1-x86_64-aarch64-none-elf/bin/../lib/gcc/aarch64-none-elf/13.2.1/../../../../aarch64-none-elf/lib/libg.a(libc_a-lock.o)
                0x0000010000cbbd60                __lock___malloc_recursive_mutex
 *fill*         0x0000010000cbbd61        0x7 
 .bss.__lock___at_quick_exit_mutex
                0x0000010000cbbd68        0x1 /tools/arm-gnu-toolchain-13.2.Rel1-x86_64-aarch64-none-elf/bin/../lib/gcc/aarch64-none-elf/13.2.1/../../../../aarch64-none-elf/lib/libg.a(libc_a-lock.o)
                0x0000010000cbbd68                __lock___at_quick_exit_mutex
 *fill*         0x0000010000cbbd69        0x7 
 .bss.__lock___atexit_recursive_mutex
                0x0000010000cbbd70        0x1 /tools/arm-gnu-toolchain-13.2.Rel1-x86_64-aarch64-none-elf/bin/../lib/gcc/aarch64-none-elf/13.2.1/../../../../aarch64-none-elf/lib/libg.a(libc_a-lock.o)
                0x0000010000cbbd70                __lock___atexit_recursive_mutex
 *fill*         0x0000010000cbbd71        0x7 
 .bss.__lock___sfp_recursive_mutex
                0x0000010000cbbd78        0x1 /tools/arm-gnu-toolchain-13.2.Rel1-x86_64-aarch64-none-elf/bin/../lib/gcc/aarch64-none-elf/13.2.1/../../../../aarch64-none-elf/lib/libg.a(libc_a-lock.o)
                0x0000010000cbbd78                __lock___sfp_recursive_mutex
 .bss           0x0000010000cbbd79        0x0 /tools/arm-gnu-toolchain-13.2.Rel1-x86_64-aarch64-none-elf/bin/../lib/gcc/aarch64-none-elf/13.2.1/../../../../aarch64-none-elf/lib/libg.a(libc_a-fclose.o)
 .bss           0x0000010000cbbd79        0x0 /tools/arm-gnu-toolchain-13.2.Rel1-x86_64-aarch64-none-elf/bin/../lib/gcc/aarch64-none-elf/13.2.1/../../../../aarch64-none-elf/lib/libg.a(libc_a-wsetup.o)
 .bss           0x0000010000cbbd79        0x0 /tools/arm-gnu-toolchain-13.2.Rel1-x86_64-aarch64-none-elf/bin/../lib/gcc/aarch64-none-elf/13.2.1/../../../../aarch64-none-elf/lib/libg.a(libc_a-makebuf.o)
 .bss           0x0000010000cbbd79        0x0 /tools/arm-gnu-toolchain-13.2.Rel1-x86_64-aarch64-none-elf/bin/../lib/gcc/aarch64-none-elf/13.2.1/../../../../aarch64-none-elf/lib/libg.a(libc_a-putc.o)
 .bss           0x0000010000cbbd79        0x0 /tools/arm-gnu-toolchain-13.2.Rel1-x86_64-aarch64-none-elf/bin/../lib/gcc/aarch64-none-elf/13.2.1/../../../../aarch64-none-elf/lib/libg.a(libc_a-wcsnrtombs.o)
 .bss           0x0000010000cbbd79        0x0 /tools/arm-gnu-toolchain-13.2.Rel1-x86_64-aarch64-none-elf/bin/../lib/gcc/aarch64-none-elf/13.2.1/../../../../aarch64-none-elf/lib/libg.a(libc_a-closer.o)
 .bss           0x0000010000cbbd79        0x0 /tools/arm-gnu-toolchain-13.2.Rel1-x86_64-aarch64-none-elf/bin/../lib/gcc/aarch64-none-elf/13.2.1/../../../../aarch64-none-elf/lib/libg.a(libc_a-fflush.o)
 .bss           0x0000010000cbbd79        0x0 /tools/arm-gnu-toolchain-13.2.Rel1-x86_64-aarch64-none-elf/bin/../lib/gcc/aarch64-none-elf/13.2.1/../../../../aarch64-none-elf/lib/libg.a(libc_a-environ.o)
 *fill*         0x0000010000cbbd79        0x7 
 .bss.initial_env
                0x0000010000cbbd80        0x8 /tools/arm-gnu-toolchain-13.2.Rel1-x86_64-aarch64-none-elf/bin/../lib/gcc/aarch64-none-elf/13.2.1/../../../../aarch64-none-elf/lib/libg.a(libc_a-environ.o)
 .bss           0x0000010000cbbd88        0x0 /tools/arm-gnu-toolchain-13.2.Rel1-x86_64-aarch64-none-elf/bin/../lib/gcc/aarch64-none-elf/13.2.1/../../../../aarch64-none-elf/lib/libg.a(libc_a-reallocr.o)
 .bss           0x0000010000cbbd88        0x0 /tools/arm-gnu-toolchain-13.2.Rel1-x86_64-aarch64-none-elf/bin/../lib/gcc/aarch64-none-elf/13.2.1/../../../../aarch64-none-elf/lib/libg.a(libc_a-envlock.o)
 .bss           0x0000010000cbbd88        0x0 /tools/arm-gnu-toolchain-13.2.Rel1-x86_64-aarch64-none-elf/bin/../lib/gcc/aarch64-none-elf/13.2.1/../../../../aarch64-none-elf/lib/libg.a(libc_a-fstatr.o)
 .bss           0x0000010000cbbd88        0x0 /tools/arm-gnu-toolchain-13.2.Rel1-x86_64-aarch64-none-elf/bin/../lib/gcc/aarch64-none-elf/13.2.1/../../../../aarch64-none-elf/lib/libg.a(libc_a-signal.o)
 .bss           0x0000010000cbbd88        0x0 /tools/arm-gnu-toolchain-13.2.Rel1-x86_64-aarch64-none-elf/bin/../lib/gcc/aarch64-none-elf/13.2.1/../../../../aarch64-none-elf/lib/libg.a(libc_a-isattyr.o)
 .bss           0x0000010000cbbd88        0x0 /tools/arm-gnu-toolchain-13.2.Rel1-x86_64-aarch64-none-elf/bin/../lib/gcc/aarch64-none-elf/13.2.1/../../../../aarch64-none-elf/lib/libg.a(libc_a-lseekr.o)
 .bss           0x0000010000cbbd88        0x0 /tools/arm-gnu-toolchain-13.2.Rel1-x86_64-aarch64-none-elf/bin/../lib/gcc/aarch64-none-elf/13.2.1/../../../../aarch64-none-elf/lib/libg.a(libc_a-readr.o)
 .bss           0x0000010000cbbd88        0x0 /tools/arm-gnu-toolchain-13.2.Rel1-x86_64-aarch64-none-elf/bin/../lib/gcc/aarch64-none-elf/13.2.1/../../../../aarch64-none-elf/lib/libg.a(libc_a-fputwc.o)
 .bss           0x0000010000cbbd88        0x0 /tools/arm-gnu-toolchain-13.2.Rel1-x86_64-aarch64-none-elf/bin/../lib/gcc/aarch64-none-elf/13.2.1/../../../../aarch64-none-elf/lib/libg.a(libc_a-signalr.o)
 .bss           0x0000010000cbbd88        0x0 /tools/arm-gnu-toolchain-13.2.Rel1-x86_64-aarch64-none-elf/bin/../lib/gcc/aarch64-none-elf/13.2.1/../../../../aarch64-none-elf/lib/libg.a(libc_a-wbuf.o)
 .bss           0x0000010000cbbd88        0x0 /tools/arm-gnu-toolchain-13.2.Rel1-x86_64-aarch64-none-elf/bin/../lib/gcc/aarch64-none-elf/13.2.1/libgcc.a(trunctfdf2.o)
 .bss           0x0000010000cbbd88        0x0 /tools/arm-gnu-toolchain-13.2.Rel1-x86_64-aarch64-none-elf/bin/../lib/gcc/aarch64-none-elf/13.2.1/libgcc.a(sfp-exceptions.o)
 *(COMMON)
                0x0000010000cbbd90                . = ALIGN (0x10)
 *fill*         0x0000010000cbbd88        0x8 
                0x0000010000cbbd90                bss_end = .
                0x0000010000e00000                . = ALIGN (mmu_page_2mb)
                0x0000010000e00000                data_region_end = .
                0x0000010000e00000                dma_mcode_start = .

.nocache_data   0x0000010000e00000     0x2000 load address 0x0000000000e00000
                [!provide]                        PROVIDE (dma_mcode_base = .)
 *(.nocache .nocache.*)
                0x0000010000e02000                . = (. + dma_mcode_region_size)
 *fill*         0x0000010000e00000     0x2000 
                0x0000010000e02000                . = ALIGN (mmu_page_size)
                0x0000010000e02000                dma_mcode_end = .
                0x0000010000e02000                dma_reserved_start = .

.dma_reserved   0x0000010000e02000     0x1000 load address 0x0000000000e02000
 *(.dma_reserved .dma_reserved.*)
                0x0000010000e03000                . = (. + dma_reserved_size)
 *fill*         0x0000010000e02000     0x1000 
                0x0000010000e03000                . = ALIGN (mmu_page_size)
                0x0000010000e03000                dma_reserved_end = .
                0x0000010000e03000                dma_smmu_region_start = .

.dma_smmu_region
                0x0000010000e03000    0x12000 load address 0x0000000000e03000
                0x0000010000e03000                smmu_cte_start = .
                0x0000010000e04000                . = (. + smmu_cte_size)
 *fill*         0x0000010000e03000     0x1000 
                0x0000010000e04000                smmu_cte_end = .
                0x0000010000e04000                smmu_cd_start = .
                0x0000010000e05000                . = (. + smmu_cd_size)
 *fill*         0x0000010000e04000     0x1000 
                0x0000010000e05000                smmu_cd_end = .
                0x0000010000e05000                smmu_cmdq_start = .
                0x0000010000e0d000                . = (. + smmu_cmdq_size)
 *fill*         0x0000010000e05000     0x8000 
                0x0000010000e0d000                smmu_cmdq_end = .
                0x0000010000e0d000                smmu_evtq_start = .
                0x0000010000e15000                . = (. + smmu_evtq_size)
 *fill*         0x0000010000e0d000     0x8000 
                0x0000010000e15000                smmu_evtq_end = .
                0x0000010000e15000                . = ALIGN (mmu_page_size)
                0x0000010000e15000                dma_smmu_region_end = .
                0x0000010000e15000                dma_smmu_reserved_start = .

.dma_smmu_reserved
                0x0000010000e15000     0x1000 load address 0x0000000000e15000
 *(.dma_smmu_reserved .dma_smmu_reserved.*)
                0x0000010000e16000                . = (. + dma_smmu_reserved_size)
 *fill*         0x0000010000e15000     0x1000 
                0x0000010001000000                . = ALIGN (mmu_page_2mb)
                0x0000010001000000                dma_smmu_reserved_end = .
                0x0000010001000000                heap_region_start = .

.heap           0x0000010001000000  0x8000000 load address 0x0000000001000000
 *(.heap*)
 .heap          0x0000010001000000  0x8000000 portable/libfreertos_kernel_port.a(port.c.o)
                0x0000010001000000                ucHeap
                0x0000010009000000                . = ALIGN (mmu_page_2mb)
                0x0000010009000000                heap_region_end = .
                0x0000010009000000                dyn_heap_region_start = .

.dyn_heap       0x0000010009000000   0x200000 load address 0x0000000009000000
                0x0000010009000000                PROVIDE (metal_segment_heap_target_start = .)
                0x0000010009200000                . = (. + dyn_heap_size)
 *fill*         0x0000010009000000   0x200000 
                0x0000010009200000                . = ALIGN (0x8)
                0x0000010009200000                PROVIDE (metal_segment_heap_target_end = .)
                0x0000010009200000                . = ALIGN (mmu_page_2mb)
                0x0000010009200000                dyn_heap_region_end = .

.logbuf         0x0000010020000000   0x200000
 *(.logbuf*)
 .logbuf        0x0000010020000000   0x200000 services/replay_service/libreplay_service.a(log.c.o)
                0x0000010020000000                _log

/DISCARD/
 *(.eh_frame)
OUTPUT(freertos_kernel.elf elf64-littleaarch64)
LOAD linker stubs

.debug_info     0x0000000000000000   0x54beee
 .debug_info    0x0000000000000000      0x731 CMakeFiles/freertos_kernel.elf.dir/main.c.o
 .debug_info    0x0000000000000731      0x250 gloss/CMakeFiles/freedom_metal.dir/freedom_metal.c.o
 .debug_info    0x0000000000000981      0x129 gloss/CMakeFiles/freedom_metal.dir/nanosleep.c.o
 .debug_info    0x0000000000000aaa       0xee gloss/CMakeFiles/freedom_metal.dir/sys_access.c.o
 .debug_info    0x0000000000000b98       0xde gloss/CMakeFiles/freedom_metal.dir/sys_chdir.c.o
 .debug_info    0x0000000000000c76      0x112 gloss/CMakeFiles/freedom_metal.dir/sys_chmod.c.o
 .debug_info    0x0000000000000d88      0x130 gloss/CMakeFiles/freedom_metal.dir/sys_chown.c.o
 .debug_info    0x0000000000000eb8      0x18d gloss/CMakeFiles/freedom_metal.dir/sys_clock_gettime.c.o
 .debug_info    0x0000000000001045       0xd5 gloss/CMakeFiles/freedom_metal.dir/sys_close.c.o
 .debug_info    0x000000000000111a      0x115 gloss/CMakeFiles/freedom_metal.dir/sys_execve.c.o
 .debug_info    0x000000000000122f       0xdd gloss/CMakeFiles/freedom_metal.dir/sys_exit.c.o
 .debug_info    0x000000000000130c      0x112 gloss/CMakeFiles/freedom_metal.dir/sys_faccessat.c.o
 .debug_info    0x000000000000141e       0xc1 gloss/CMakeFiles/freedom_metal.dir/sys_fork.c.o
 .debug_info    0x00000000000014df      0x2e6 gloss/CMakeFiles/freedom_metal.dir/sys_fstat.c.o
 .debug_info    0x00000000000017c5      0x312 gloss/CMakeFiles/freedom_metal.dir/sys_fstatat.c.o
 .debug_info    0x0000000000001ad7      0x126 gloss/CMakeFiles/freedom_metal.dir/sys_ftime.c.o
 .debug_info    0x0000000000001bfd       0xf9 gloss/CMakeFiles/freedom_metal.dir/sys_getcwd.c.o
 .debug_info    0x0000000000001cf6      0x103 gloss/CMakeFiles/freedom_metal.dir/sys_getpid.c.o
 .debug_info    0x0000000000001df9      0x1b3 gloss/CMakeFiles/freedom_metal.dir/sys_gettimeofday.c.o
 .debug_info    0x0000000000001fac       0xb6 gloss/CMakeFiles/freedom_metal.dir/sys_isatty.c.o
 .debug_info    0x0000000000002062       0xe5 gloss/CMakeFiles/freedom_metal.dir/sys_kill.c.o
 .debug_info    0x0000000000002147       0xee gloss/CMakeFiles/freedom_metal.dir/sys_link.c.o
 .debug_info    0x0000000000002235      0x11d gloss/CMakeFiles/freedom_metal.dir/sys_lseek.c.o
 .debug_info    0x0000000000002352      0x2f0 gloss/CMakeFiles/freedom_metal.dir/sys_lstat.c.o
 .debug_info    0x0000000000002642      0x100 gloss/CMakeFiles/freedom_metal.dir/sys_open.c.o
 .debug_info    0x0000000000002742      0x112 gloss/CMakeFiles/freedom_metal.dir/sys_openat.c.o
 .debug_info    0x0000000000002854      0x11f gloss/CMakeFiles/freedom_metal.dir/sys_read.c.o
 .debug_info    0x0000000000002973      0x173 gloss/CMakeFiles/freedom_metal.dir/sys_sbrk.c.o
 .debug_info    0x0000000000002ae6       0xb6 gloss/CMakeFiles/freedom_metal.dir/sys_sysconf.c.o
 .debug_info    0x0000000000002b9c      0x22a gloss/CMakeFiles/freedom_metal.dir/sys_times.c.o
 .debug_info    0x0000000000002dc6       0xde gloss/CMakeFiles/freedom_metal.dir/sys_unlink.c.o
 .debug_info    0x0000000000002ea4      0x101 gloss/CMakeFiles/freedom_metal.dir/sys_utime.c.o
 .debug_info    0x0000000000002fa5       0xd5 gloss/CMakeFiles/freedom_metal.dir/sys_wait.c.o
 .debug_info    0x000000000000307a      0x187 gloss/CMakeFiles/freedom_metal.dir/sys_write.c.o
 .debug_info    0x0000000000003201     0x1d70 build/drivers/mailbox/CMakeFiles/mailbox.dir/mailbox.c.o
 .debug_info    0x0000000000004f71      0x403 build/drivers/mailbox/CMakeFiles/mailbox.dir/mailbox_cb.c.o
 .debug_info    0x0000000000005374    0x30af2 build/drivers/pmu/CMakeFiles/pmu.dir/pmu.c.o
 .debug_info    0x0000000000035e66      0xea1 build/drivers/uart/CMakeFiles/uart.dir/uart.c.o
 .debug_info    0x0000000000036d07     0x3d3c build/drivers/dma/CMakeFiles/dma.dir/pl330.c.o
 .debug_info    0x000000000003aa43     0x14a2 build/drivers/gpio/CMakeFiles/gpio.dir/gpio.c.o
 .debug_info    0x000000000003bee5     0x2568 build/drivers/smmu/CMakeFiles/smmu.dir/smmu.c.o
 .debug_info    0x000000000003e44d      0xee3 build/drivers/smmu/CMakeFiles/smmu.dir/smmu_pmu.c.o
 .debug_info    0x000000000003f330     0x48ab build/drivers/pvt_con/CMakeFiles/pvt_con.dir/pvt_con.c.o
 .debug_info    0x0000000000043bdb    0x42cc5 build/drivers/cmu/CMakeFiles/cmu.dir/cmu.c.o
 .debug_info    0x00000000000868a0      0xb0f build/drivers/watchdog/CMakeFiles/watchdog.dir/dw_apb_wdt.c.o
 .debug_info    0x00000000000873af    0x32e68 build/drivers/rbc/CMakeFiles/rbc.dir/aw_ucie.c.o
 .debug_info    0x00000000000ba217     0x50b0 build/drivers/rbc/CMakeFiles/rbc.dir/rbc_driver.c.o
 .debug_info    0x00000000000bf2c7      0x541 build/drivers/rbc/CMakeFiles/rbc.dir/rbc_cmd.c.o
 .debug_info    0x00000000000bf808    0x3d4b8 build/drivers/rbcm/CMakeFiles/rbcm.dir/rbcm_core.c.o
 .debug_info    0x00000000000fccc0    0x3b3f8 build/drivers/rbcm/CMakeFiles/rbcm.dir/rbcm_driver.c.o
 .debug_info    0x00000000001380b8     0x1b43 build/drivers/i2c/CMakeFiles/i2c.dir/i2c.c.o
 .debug_info    0x0000000000139bfb      0x9b1 build/drivers/noc_logger/CMakeFiles/noc_logger.dir/noc_logger.c.o
 .debug_info    0x000000000013a5ac    0x27dbd build/drivers/hbm3/CMakeFiles/hbm3.dir/hbm3.c.o
 .debug_info    0x0000000000162369     0x743d build/drivers/hbm3/CMakeFiles/hbm3.dir/tmrs.c.o
 .debug_info    0x00000000001697a6    0x28061 build/drivers/hbm3/CMakeFiles/hbm3.dir/icon.c.o
 .debug_info    0x0000000000191807    0x106e3 build/drivers/hbm3/CMakeFiles/hbm3.dir/hbm3_irq.c.o
 .debug_info    0x00000000001a1eea     0x9bc5 build/drivers/hbm3/CMakeFiles/hbm3.dir/hbm3_am.c.o
 .debug_info    0x00000000001abaaf      0x579 build/drivers/pmic/CMakeFiles/pmic.dir/ltc1427cs8.c.o
 .debug_info    0x00000000001ac028      0x31e build/drivers/pmic/CMakeFiles/pmic.dir/tca9548a.c.o
 .debug_info    0x00000000001ac346      0x984 build/drivers/pmic/CMakeFiles/pmic.dir/mp5998.c.o
 .debug_info    0x00000000001accca      0xaf6 build/drivers/pmic/CMakeFiles/pmic.dir/mpq8785.c.o
 .debug_info    0x00000000001ad7c0      0xf29 build/drivers/pmic/CMakeFiles/pmic.dir/mp29816a.c.o
 .debug_info    0x00000000001ae6e9      0x7c2 build/drivers/pmic/CMakeFiles/pmic.dir/g1505.c.o
 .debug_info    0x00000000001aeeab     0x103a build/drivers/pmic/CMakeFiles/pmic.dir/pmic_mgr.c.o
 .debug_info    0x00000000001afee5     0xf380 build/drivers/dvfs/CMakeFiles/dvfs.dir/dvfs.c.o
 .debug_info    0x00000000001bf265      0x6c0 build/drivers/sic/CMakeFiles/sic.dir/sic.c.o
 .debug_info    0x00000000001bf925      0xd1d build/drivers/timer/dw_apb_timer/CMakeFiles/dw_apb_timer.dir/dw_apb_timer.c.o
 .debug_info    0x00000000001c0642     0x1a70 build/drivers/qspi/qspi_apb/CMakeFiles/qspi_apb.dir/qspi_apb.c.o
 .debug_info    0x00000000001c20b2      0x31b build/drivers/flash/CMakeFiles/flash.dir/mt25q_flash.c.o
 .debug_info    0x00000000001c23cd      0x443 build/tests/common/CMakeFiles/test_common.dir/test_mailbox_cb.c.o
 .debug_info    0x00000000001c2810      0xea1 build/tests/interrupt_test_helper_example/CMakeFiles/interrupt_test_helper_example.dir/example_test.c.o
 .debug_info    0x00000000001c36b1      0x160 build/tests/interrupt_test_helper_example/CMakeFiles/interrupt_test_helper_example.dir/example_driver.c.o
 .debug_info    0x00000000001c3811      0x436 build/tests/arch/CMakeFiles/test_arch.dir/test_cli.c.o
 .debug_info    0x00000000001c3c47     0x2ecd build/tests/gpio/CMakeFiles/test_gpio.dir/test_gpio.c.o
 .debug_info    0x00000000001c6b14      0x835 build/tests/dma/CMakeFiles/test_dma.dir/test_dma_main.c.o
 .debug_info    0x00000000001c7349      0xbae build/tests/mailbox/CMakeFiles/mailbox_test.dir/test_mailbox_main.c.o
 .debug_info    0x00000000001c7ef7     0x2523 build/tests/pvt_con/CMakeFiles/test_pvt_con.dir/test_pvt_con.c.o
 .debug_info    0x00000000001ca41a     0x1138 build/tests/arch/arm64/CMakeFiles/test_arm64.dir/test_ca73.c.o
 .debug_info    0x00000000001cb552      0x79c build/tests/timer/dw_apb_timer/CMakeFiles/test_dw_apb_timer.dir/test_dw_apb_timer.c.o
 .debug_info    0x00000000001cbcee    0x51148 build/tests/cmu/CMakeFiles/test_cmu.dir/test_cmu_main.c.o
 .debug_info    0x000000000021ce36      0x5bc build/tests/smmu/CMakeFiles/test_mmu.dir/test_mmu_main.c.o
 .debug_info    0x000000000021d3f2      0x892 build/tests/log/CMakeFiles/show_log.dir/rebel_h_log.c.o
 .debug_info    0x000000000021dc84      0xf8e build/tests/rbc/CMakeFiles/test_rbc.dir/test/all_test.c.o
 .debug_info    0x000000000021ec12    0x31b1a build/tests/rbc/CMakeFiles/test_rbc.dir/test/test_aw_ucie_init.c.o
 .debug_info    0x000000000025072c    0x34469 build/tests/rbc/CMakeFiles/test_rbc.dir/test/test_aw_ucie_d2d_comp.c.o
 .debug_info    0x0000000000284b95    0x30d4d build/tests/rbc/CMakeFiles/test_rbc.dir/test/test_aw_ucie_d2d_err_and_link.c.o
 .debug_info    0x00000000002b58e2    0x2febe build/tests/rbc/CMakeFiles/test_rbc.dir/test/test_aw_ucie_retraining.c.o
 .debug_info    0x00000000002e57a0    0x31eec build/tests/rbc/CMakeFiles/test_rbc.dir/test/test_aw_ucie_sideband.c.o
 .debug_info    0x000000000031768c    0x34386 build/tests/rbc/CMakeFiles/test_rbc.dir/test/test_aw_ucie_training.c.o
 .debug_info    0x000000000034ba12    0x3e7e1 build/tests/rbc/CMakeFiles/test_rbc.dir/test/test_aw_ucie_runtime_link_test.c.o
 .debug_info    0x000000000038a1f3    0x3726d build/tests/rbc/CMakeFiles/test_rbc.dir/test/test_aw_ucie_phy_compliance_test.c.o
 .debug_info    0x00000000003c1460    0x340d9 build/tests/rbc/CMakeFiles/test_rbc.dir/test/test_aw_ucie_exception.c.o
 .debug_info    0x00000000003f5539    0x30e6a build/tests/rbc/CMakeFiles/test_rbc.dir/test/test_aw_ucie_eye_of_margin.c.o
 .debug_info    0x00000000004263a3    0x2fb08 build/tests/rbc/CMakeFiles/test_rbc.dir/test/test_aw_ucie_util.c.o
 .debug_info    0x0000000000455eab      0x476 build/tests/rbc/CMakeFiles/test_rbc.dir/test/test_fake_timer.c.o
 .debug_info    0x0000000000456321    0x3834a build/tests/rbc/CMakeFiles/test_rbc.dir/test/test_rbc_driver.c.o
 .debug_info    0x000000000048e66b      0x132 build/tests/rbc/CMakeFiles/test_rbc.dir/mocks/fake_timer.c.o
 .debug_info    0x000000000048e79d      0x247 build/tests/rbc/CMakeFiles/test_rbc.dir/mocks/fake_gic.c.o
 .debug_info    0x000000000048e9e4     0x3d05 build/tests/rbcm/CMakeFiles/test_rbcm.dir/rbcm_test.c.o
 .debug_info    0x00000000004926e9      0x64a build/tests/rbcm/CMakeFiles/test_rbcm.dir/rbcm_reg_access_test.c.o
 .debug_info    0x0000000000492d33     0x11dd build/tests/i2c/CMakeFiles/test_i2c.dir/test_i2c_main.c.o
 .debug_info    0x0000000000493f10     0x1c36 build/tests/hbm3/CMakeFiles/hbm3_test.dir/memtest.c.o
 .debug_info    0x0000000000495b46      0x524 build/tests/hbm3/CMakeFiles/hbm3_test.dir/hbm3_irq_test.c.o
 .debug_info    0x000000000049606a     0x1a1e build/tests/system_test/CMakeFiles/system_test.dir/test_system.c.o
 .debug_info    0x0000000000497a88      0x6df build/tests/system_test/CMakeFiles/system_test.dir/dma_transaction.c.o
 .debug_info    0x0000000000498167     0x10d2 build/tests/system_test/CMakeFiles/system_test.dir/test_dma_transaction.c.o
 .debug_info    0x0000000000499239     0x1b8b build/tests/system_test/CMakeFiles/system_test.dir/data_process.c.o
 .debug_info    0x000000000049adc4     0x1e42 build/tests/system_test/CMakeFiles/system_test.dir/test_data_process.c.o
 .debug_info    0x000000000049cc06      0x7cf build/tests/dvfs/CMakeFiles/test_dvfs.dir/test_dvfs_main.c.o
 .debug_info    0x000000000049d3d5     0x1663 build/tests/pmic/CMakeFiles/test_pmic.dir/test_pmic_main.c.o
 .debug_info    0x000000000049ea38      0x8d4 build/tests/pvt_con/CMakeFiles/pvt_cli.dir/pvt_cli.c.o
 .debug_info    0x000000000049f30c     0x1bbf build/tests/pvt_con/CMakeFiles/pvt_cli.dir/pvt_cli_show.c.o
 .debug_info    0x00000000004a0ecb     0x14bc build/tests/pvt_con/CMakeFiles/pvt_cli.dir/pvt_cli_enable.c.o
 .debug_info    0x00000000004a2387     0x14bc build/tests/pvt_con/CMakeFiles/pvt_cli.dir/pvt_cli_disable.c.o
 .debug_info    0x00000000004a3843     0x13ec build/tests/pvt_con/CMakeFiles/pvt_cli.dir/pvt_cli_set.c.o
 .debug_info    0x00000000004a4c2f      0x425 build/tests/sic/CMakeFiles/test_sic.dir/test_sic.c.o
 .debug_info    0x00000000004a5054      0x4e3 build/tests/chipid/CMakeFiles/test_chipid.dir/read_chipid.c.o
 .debug_info    0x00000000004a5537      0x4e1 build/tests/flash/CMakeFiles/test_flash.dir/test_flash.c.o
 .debug_info    0x00000000004a5a18      0x484 build/tests/qspi/CMakeFiles/test_qspiapb.dir/test_qspiapb.c.o
 .debug_info    0x00000000004a5e9c     0x1bab build/tests/rbdma/CMakeFiles/test_rbdma.dir/rbdma_tsync_test.c.o
 .debug_info    0x00000000004a7a47      0x3d7 build/tests/rbdma/CMakeFiles/test_rbdma.dir/test_main_rbdma.c.o
 .debug_info    0x00000000004a7e1e     0x2ada libfreertos_kernel.a(queue.c.o)
 .debug_info    0x00000000004aa8f8     0x95f0 libfreertos_kernel.a(tasks.c.o)
 .debug_info    0x00000000004b3ee8     0x1ae8 libfreertos_kernel.a(timers.c.o)
 .debug_info    0x00000000004b59d0      0x914 libfreertos_kernel.a(heap_4.c.o)
 .debug_info    0x00000000004b62e4      0x3f7 libfreertos_kernel.a(list.c.o)
 .debug_info    0x00000000004b66db     0x1537 portable/libfreertos_kernel_port.a(port.c.o)
 .debug_info    0x00000000004b7c12      0x1cf build/drivers/common/libdriver.a(driver.c.o)
 .debug_info    0x00000000004b7de1      0x2a6 build/drivers/common/libassert.a(assert.c.o)
 .debug_info    0x00000000004b8087      0x4a2 build/drivers/common/libinterrupt.a(interrupt.c.o)
 .debug_info    0x00000000004b8529     0x1671 build/drivers/intc/libintc.a(gicv3.c.o)
 .debug_info    0x00000000004b9b9a      0x174 build/drivers/intc/libintc.a(bakery_lock.c.o)
 .debug_info    0x00000000004b9d0e      0x62f services/cli_service/libcli_service.a(cli_task.c.o)
 .debug_info    0x00000000004ba33d     0x1768 services/cli_service/libcli_service.a(sys_command_line.c.o)
 .debug_info    0x00000000004bbaa5      0x4be services/terminal_service/libterminal_service.a(console_uart.c.o)
 .debug_info    0x00000000004bbf63      0x7d3 services/terminal_service/libterminal_service.a(console.c.o)
 .debug_info    0x00000000004bc736      0xbc2 services/terminal_service/libterminal_service.a(terminal_task.c.o)
 .debug_info    0x00000000004bd2f8    0x1bcb4 services/replay_service/libreplay_service.a(replay.c.o)
 .debug_info    0x00000000004d8fac     0x37a1 services/replay_service/libreplay_service.a(sub_function.c.o)
 .debug_info    0x00000000004dc74d      0xc48 services/replay_service/libreplay_service.a(rush_cli.c.o)
 .debug_info    0x00000000004dd395      0x4f4 services/replay_service/libreplay_service.a(rush_cli_msg_buf.c.o)
 .debug_info    0x00000000004dd889     0x1011 services/replay_service/libreplay_service.a(tpg_cli.c.o)
 .debug_info    0x00000000004de89a     0x29cf services/replay_service/libreplay_service.a(rbdma_cli.c.o)
 .debug_info    0x00000000004e1269      0xf6c services/replay_service/libreplay_service.a(mem_cli.c.o)
 .debug_info    0x00000000004e21d5     0x13ac services/replay_service/libreplay_service.a(chiplet.c.o)
 .debug_info    0x00000000004e3581     0x194a services/replay_service/libreplay_service.a(cmgr_if.c.o)
 .debug_info    0x00000000004e4ecb     0xdbd2 services/replay_service/libreplay_service.a(dnc_if.c.o)
 .debug_info    0x00000000004f2a9d      0x852 services/replay_service/libreplay_service.a(dnc_if_evt1.c.o)
 .debug_info    0x00000000004f32ef     0x214e services/replay_service/libreplay_service.a(rdsn_if.c.o)
 .debug_info    0x00000000004f543d     0x167a services/replay_service/libreplay_service.a(ptw.c.o)
 .debug_info    0x00000000004f6ab7     0x5250 services/replay_service/libreplay_service.a(rbdma_if.c.o)
 .debug_info    0x00000000004fbd07     0x1e34 services/replay_service/libreplay_service.a(shm_if.c.o)
 .debug_info    0x00000000004fdb3b     0x13a0 services/replay_service/libreplay_service.a(tbu_wrapper.c.o)
 .debug_info    0x00000000004feedb      0x459 services/replay_service/libreplay_service.a(debug.c.o)
 .debug_info    0x00000000004ff334     0x2017 services/replay_service/libreplay_service.a(ici.c.o)
 .debug_info    0x000000000050134b      0x8a2 services/replay_service/libreplay_service.a(page_table_gen.c.o)
 .debug_info    0x0000000000501bed      0xdfc services/replay_service/libreplay_service.a(profile.c.o)
 .debug_info    0x00000000005029e9     0x10a7 services/replay_service/libreplay_service.a(rl_queue.c.o)
 .debug_info    0x0000000000503a90     0x133e services/replay_service/libreplay_service.a(abort.c.o)
 .debug_info    0x0000000000504dce      0x139 services/replay_service/libreplay_service.a(cpu_data.c.o)
 .debug_info    0x0000000000504f07      0x186 services/replay_service/libreplay_service.a(spinlock.c.o)
 .debug_info    0x000000000050508d      0x886 services/replay_service/libreplay_service.a(core.c.o)
 .debug_info    0x0000000000505913      0x778 services/replay_service/libreplay_service.a(log.c.o)
 .debug_info    0x000000000050608b      0x3aa services/replay_service/libreplay_service.a(rand.c.o)
 .debug_info    0x0000000000506435      0x6c9 services/replay_service/libreplay_service.a(backtrace.c.o)
 .debug_info    0x0000000000506afe     0x111b services/replay_service/libreplay_service.a(argparse.c.o)
 .debug_info    0x0000000000507c19      0x542 services/replay_service/libreplay_service.a(rush_cli_util.c.o)
 .debug_info    0x000000000050815b      0x624 services/task_adder_service/libtask_adder_service.a(task_adder.c.o)
 .debug_info    0x000000000050877f      0x17f portable/libfreertos_arch.a(prep_c.c.o)
 .debug_info    0x00000000005088fe      0x423 libfreertos_kernel_config.a(FreeRTOS_tick_config.c.o)
 .debug_info    0x0000000000508d21      0x440 portable/libsmp.a(smp.c.o)
 .debug_info    0x0000000000509161     0x1b64 portable/libmmu.a(mmu.c.o)
 .debug_info    0x000000000050acc5      0x790 build/interrupt_test_helper/libinterrupt_test_helper.a(interrupt_test_helper.c.o)
 .debug_info    0x000000000050b455     0x4f4a build/unity/libunity.a(unity.c.o)
 .debug_info    0x000000000051039f      0xcdd build/unity/libunity.a(unity_fixture.c.o)
 .debug_info    0x000000000051107c      0x2ff build/drivers/psci/libpsci.a(psci.c.o)
 .debug_info    0x000000000051137b     0x117d libfreertos_kernel.a(event_groups.c.o)
 .debug_info    0x00000000005124f8     0x1eb5 libfreertos_kernel.a(stream_buffer.c.o)
 .debug_info    0x00000000005143ad     0x183e build/common/arch/libcommon.a(printf.c.o)
 .debug_info    0x0000000000515beb      0x599 build/common/arch/libcommon.a(system_api.c.o)
 .debug_info    0x0000000000516184      0x440 build/drivers/timer/generic_timer/libgeneric_timer.a(generic_timer.c.o)
 .debug_info    0x00000000005165c4       0x39 /tools/arm-gnu-toolchain-13.2.Rel1-x86_64-aarch64-none-elf/bin/../lib/gcc/aarch64-none-elf/13.2.1/libgcc.a(ldset_8_4.o)
 .debug_info    0x00000000005165fd       0x3c /tools/arm-gnu-toolchain-13.2.Rel1-x86_64-aarch64-none-elf/bin/../lib/gcc/aarch64-none-elf/13.2.1/libgcc.a(lse-init.o)
 .debug_info    0x0000000000516639     0x1d8f /tools/arm-gnu-toolchain-13.2.Rel1-x86_64-aarch64-none-elf/bin/../lib/gcc/aarch64-none-elf/13.2.1/../../../../aarch64-none-elf/lib/libg.a(libc_a-strtod.o)
 .debug_info    0x00000000005183c8      0xed2 /tools/arm-gnu-toolchain-13.2.Rel1-x86_64-aarch64-none-elf/bin/../lib/gcc/aarch64-none-elf/13.2.1/../../../../aarch64-none-elf/lib/libg.a(libc_a-strtol.o)
 .debug_info    0x000000000051929a     0x12c5 /tools/arm-gnu-toolchain-13.2.Rel1-x86_64-aarch64-none-elf/bin/../lib/gcc/aarch64-none-elf/13.2.1/../../../../aarch64-none-elf/lib/libg.a(libc_a-gdtoa-gethex.o)
 .debug_info    0x000000000051a55f      0xd10 /tools/arm-gnu-toolchain-13.2.Rel1-x86_64-aarch64-none-elf/bin/../lib/gcc/aarch64-none-elf/13.2.1/../../../../aarch64-none-elf/lib/libg.a(libc_a-strtoul.o)
 .debug_info    0x000000000051b26f      0x3f3 /tools/arm-gnu-toolchain-13.2.Rel1-x86_64-aarch64-none-elf/bin/../lib/gcc/aarch64-none-elf/13.2.1/../../../../aarch64-none-elf/lib/libg.a(libc_a-gdtoa-hexnan.o)
 .debug_info    0x000000000051b662      0xd14 /tools/arm-gnu-toolchain-13.2.Rel1-x86_64-aarch64-none-elf/bin/../lib/gcc/aarch64-none-elf/13.2.1/../../../../aarch64-none-elf/lib/libg.a(libc_a-strtoll.o)
 .debug_info    0x000000000051c376      0x156 /tools/arm-gnu-toolchain-13.2.Rel1-x86_64-aarch64-none-elf/bin/../lib/gcc/aarch64-none-elf/13.2.1/../../../../aarch64-none-elf/lib/libg.a(libc_a-strncpy.o)
 .debug_info    0x000000000051c4cc      0xd14 /tools/arm-gnu-toolchain-13.2.Rel1-x86_64-aarch64-none-elf/bin/../lib/gcc/aarch64-none-elf/13.2.1/../../../../aarch64-none-elf/lib/libg.a(libc_a-strtoull.o)
 .debug_info    0x000000000051d1e0       0x3b /tools/arm-gnu-toolchain-13.2.Rel1-x86_64-aarch64-none-elf/bin/../lib/gcc/aarch64-none-elf/13.2.1/../../../../aarch64-none-elf/lib/libg.a(libc_a-strchr.o)
 .debug_info    0x000000000051d21b       0x3b /tools/arm-gnu-toolchain-13.2.Rel1-x86_64-aarch64-none-elf/bin/../lib/gcc/aarch64-none-elf/13.2.1/../../../../aarch64-none-elf/lib/libg.a(libc_a-strcmp.o)
 .debug_info    0x000000000051d256      0x8ef /tools/arm-gnu-toolchain-13.2.Rel1-x86_64-aarch64-none-elf/bin/../lib/gcc/aarch64-none-elf/13.2.1/../../../../aarch64-none-elf/lib/libg.a(libc_a-sprintf.o)
 .debug_info    0x000000000051db45       0x3b /tools/arm-gnu-toolchain-13.2.Rel1-x86_64-aarch64-none-elf/bin/../lib/gcc/aarch64-none-elf/13.2.1/../../../../aarch64-none-elf/lib/libg.a(libc_a-strlen.o)
 .debug_info    0x000000000051db80       0xf5 /tools/arm-gnu-toolchain-13.2.Rel1-x86_64-aarch64-none-elf/bin/../lib/gcc/aarch64-none-elf/13.2.1/../../../../aarch64-none-elf/lib/libg.a(libc_a-strspn.o)
 .debug_info    0x000000000051dc75      0x7a8 /tools/arm-gnu-toolchain-13.2.Rel1-x86_64-aarch64-none-elf/bin/../lib/gcc/aarch64-none-elf/13.2.1/../../../../aarch64-none-elf/lib/libg.a(libc_a-strtok.o)
 .debug_info    0x000000000051e41d      0x1bd /tools/arm-gnu-toolchain-13.2.Rel1-x86_64-aarch64-none-elf/bin/../lib/gcc/aarch64-none-elf/13.2.1/../../../../aarch64-none-elf/lib/libg.a(libc_a-strtok_r.o)
 .debug_info    0x000000000051e5da      0x8ef /tools/arm-gnu-toolchain-13.2.Rel1-x86_64-aarch64-none-elf/bin/../lib/gcc/aarch64-none-elf/13.2.1/../../../../aarch64-none-elf/lib/libg.a(libc_a-strstr.o)
 .debug_info    0x000000000051eec9     0x16bf /tools/arm-gnu-toolchain-13.2.Rel1-x86_64-aarch64-none-elf/bin/../lib/gcc/aarch64-none-elf/13.2.1/../../../../aarch64-none-elf/lib/libg.a(libc_a-getopt.o)
 .debug_info    0x0000000000520588      0x725 /tools/arm-gnu-toolchain-13.2.Rel1-x86_64-aarch64-none-elf/bin/../lib/gcc/aarch64-none-elf/13.2.1/../../../../aarch64-none-elf/lib/libg.a(libc_a-errno.o)
 .debug_info    0x0000000000520cad     0x1d9d /tools/arm-gnu-toolchain-13.2.Rel1-x86_64-aarch64-none-elf/bin/../lib/gcc/aarch64-none-elf/13.2.1/../../../../aarch64-none-elf/lib/libg.a(libc_a-svfprintf.o)
 .debug_info    0x0000000000522a4a       0x3b /tools/arm-gnu-toolchain-13.2.Rel1-x86_64-aarch64-none-elf/bin/../lib/gcc/aarch64-none-elf/13.2.1/../../../../aarch64-none-elf/lib/libg.a(libc_a-strncmp.o)
 .debug_info    0x0000000000522a85       0x3b /tools/arm-gnu-toolchain-13.2.Rel1-x86_64-aarch64-none-elf/bin/../lib/gcc/aarch64-none-elf/13.2.1/../../../../aarch64-none-elf/lib/libg.a(libc_a-strnlen.o)
 .debug_info    0x0000000000522ac0      0x9e0 /tools/arm-gnu-toolchain-13.2.Rel1-x86_64-aarch64-none-elf/bin/../lib/gcc/aarch64-none-elf/13.2.1/../../../../aarch64-none-elf/lib/libg.a(libc_a-vsnprintf.o)
 .debug_info    0x00000000005234a0      0x7ce /tools/arm-gnu-toolchain-13.2.Rel1-x86_64-aarch64-none-elf/bin/../lib/gcc/aarch64-none-elf/13.2.1/../../../../aarch64-none-elf/lib/libg.a(libc_a-malloc.o)
 .debug_info    0x0000000000523c6e      0xd11 /tools/arm-gnu-toolchain-13.2.Rel1-x86_64-aarch64-none-elf/bin/../lib/gcc/aarch64-none-elf/13.2.1/../../../../aarch64-none-elf/lib/libg.a(libc_a-mallocr.o)
 .debug_info    0x000000000052497f      0x84b /tools/arm-gnu-toolchain-13.2.Rel1-x86_64-aarch64-none-elf/bin/../lib/gcc/aarch64-none-elf/13.2.1/../../../../aarch64-none-elf/lib/libg.a(libc_a-assert.o)
 .debug_info    0x00000000005251ca      0x15c /tools/arm-gnu-toolchain-13.2.Rel1-x86_64-aarch64-none-elf/bin/../lib/gcc/aarch64-none-elf/13.2.1/../../../../aarch64-none-elf/lib/libg.a(libc_a-strcasecmp.o)
 .debug_info    0x0000000000525326      0xb53 /tools/arm-gnu-toolchain-13.2.Rel1-x86_64-aarch64-none-elf/bin/../lib/gcc/aarch64-none-elf/13.2.1/../../../../aarch64-none-elf/lib/libg.a(libc_a-wcrtomb.o)
 .debug_info    0x0000000000525e79     0x1b8d /tools/arm-gnu-toolchain-13.2.Rel1-x86_64-aarch64-none-elf/bin/../lib/gcc/aarch64-none-elf/13.2.1/../../../../aarch64-none-elf/lib/libg.a(libc_a-locale.o)
 .debug_info    0x0000000000527a06      0xa6f /tools/arm-gnu-toolchain-13.2.Rel1-x86_64-aarch64-none-elf/bin/../lib/gcc/aarch64-none-elf/13.2.1/../../../../aarch64-none-elf/lib/libg.a(libc_a-localeconv.o)
 .debug_info    0x0000000000528475       0x3b /tools/arm-gnu-toolchain-13.2.Rel1-x86_64-aarch64-none-elf/bin/../lib/gcc/aarch64-none-elf/13.2.1/../../../../aarch64-none-elf/lib/libg.a(libc_a-memchr.o)
 .debug_info    0x00000000005284b0       0x3b /tools/arm-gnu-toolchain-13.2.Rel1-x86_64-aarch64-none-elf/bin/../lib/gcc/aarch64-none-elf/13.2.1/../../../../aarch64-none-elf/lib/libg.a(libc_a-memcmp.o)
 .debug_info    0x00000000005284eb      0x8aa /tools/arm-gnu-toolchain-13.2.Rel1-x86_64-aarch64-none-elf/bin/../lib/gcc/aarch64-none-elf/13.2.1/../../../../aarch64-none-elf/lib/libg.a(libc_a-printf.o)
 .debug_info    0x0000000000528d95       0x3b /tools/arm-gnu-toolchain-13.2.Rel1-x86_64-aarch64-none-elf/bin/../lib/gcc/aarch64-none-elf/13.2.1/../../../../aarch64-none-elf/lib/libg.a(libc_a-memcpy.o)
 .debug_info    0x0000000000528dd0      0x7f1 /tools/arm-gnu-toolchain-13.2.Rel1-x86_64-aarch64-none-elf/bin/../lib/gcc/aarch64-none-elf/13.2.1/../../../../aarch64-none-elf/lib/libg.a(libc_a-putchar.o)
 .debug_info    0x00000000005295c1      0x96e /tools/arm-gnu-toolchain-13.2.Rel1-x86_64-aarch64-none-elf/bin/../lib/gcc/aarch64-none-elf/13.2.1/../../../../aarch64-none-elf/lib/libg.a(libc_a-puts.o)
 .debug_info    0x0000000000529f2f      0x7a5 /tools/arm-gnu-toolchain-13.2.Rel1-x86_64-aarch64-none-elf/bin/../lib/gcc/aarch64-none-elf/13.2.1/../../../../aarch64-none-elf/lib/libg.a(libc_a-mlock.o)
 .debug_info    0x000000000052a6d4     0x201f /tools/arm-gnu-toolchain-13.2.Rel1-x86_64-aarch64-none-elf/bin/../lib/gcc/aarch64-none-elf/13.2.1/../../../../aarch64-none-elf/lib/libg.a(libc_a-mprec.o)
 .debug_info    0x000000000052c6f3      0x801 /tools/arm-gnu-toolchain-13.2.Rel1-x86_64-aarch64-none-elf/bin/../lib/gcc/aarch64-none-elf/13.2.1/../../../../aarch64-none-elf/lib/libg.a(libc_a-atoi.o)
 .debug_info    0x000000000052cef4      0x76e /tools/arm-gnu-toolchain-13.2.Rel1-x86_64-aarch64-none-elf/bin/../lib/gcc/aarch64-none-elf/13.2.1/../../../../aarch64-none-elf/lib/libg.a(libc_a-rand.o)
 .debug_info    0x000000000052d662      0x8e8 /tools/arm-gnu-toolchain-13.2.Rel1-x86_64-aarch64-none-elf/bin/../lib/gcc/aarch64-none-elf/13.2.1/../../../../aarch64-none-elf/lib/libg.a(libc_a-callocr.o)
 .debug_info    0x000000000052df4a      0x8c9 /tools/arm-gnu-toolchain-13.2.Rel1-x86_64-aarch64-none-elf/bin/../lib/gcc/aarch64-none-elf/13.2.1/../../../../aarch64-none-elf/lib/libg.a(libc_a-wcsrtombs.o)
 .debug_info    0x000000000052e813     0x16ce /tools/arm-gnu-toolchain-13.2.Rel1-x86_64-aarch64-none-elf/bin/../lib/gcc/aarch64-none-elf/13.2.1/../../../../aarch64-none-elf/lib/libg.a(libc_a-dtoa.o)
 .debug_info    0x000000000052fee1      0x8c0 /tools/arm-gnu-toolchain-13.2.Rel1-x86_64-aarch64-none-elf/bin/../lib/gcc/aarch64-none-elf/13.2.1/../../../../aarch64-none-elf/lib/libg.a(libc_a-strerror.o)
 .debug_info    0x00000000005307a1      0xa03 /tools/arm-gnu-toolchain-13.2.Rel1-x86_64-aarch64-none-elf/bin/../lib/gcc/aarch64-none-elf/13.2.1/../../../../aarch64-none-elf/lib/libg.a(libc_a-ctype_.o)
 .debug_info    0x00000000005311a4      0x82b /tools/arm-gnu-toolchain-13.2.Rel1-x86_64-aarch64-none-elf/bin/../lib/gcc/aarch64-none-elf/13.2.1/../../../../aarch64-none-elf/lib/libg.a(libc_a-reent.o)
 .debug_info    0x00000000005319cf      0x73b /tools/arm-gnu-toolchain-13.2.Rel1-x86_64-aarch64-none-elf/bin/../lib/gcc/aarch64-none-elf/13.2.1/../../../../aarch64-none-elf/lib/libg.a(libc_a-impure.o)
 .debug_info    0x000000000053210a     0x128d /tools/arm-gnu-toolchain-13.2.Rel1-x86_64-aarch64-none-elf/bin/../lib/gcc/aarch64-none-elf/13.2.1/../../../../aarch64-none-elf/lib/libg.a(libc_a-findfp.o)
 .debug_info    0x0000000000533397       0x3b /tools/arm-gnu-toolchain-13.2.Rel1-x86_64-aarch64-none-elf/bin/../lib/gcc/aarch64-none-elf/13.2.1/../../../../aarch64-none-elf/lib/libg.a(libc_a-memset.o)
 .debug_info    0x00000000005333d2       0xdf /tools/arm-gnu-toolchain-13.2.Rel1-x86_64-aarch64-none-elf/bin/../lib/gcc/aarch64-none-elf/13.2.1/../../../../aarch64-none-elf/lib/libg.a(libm_a-s_nan.o)
 .debug_info    0x00000000005334b1       0xdb /tools/arm-gnu-toolchain-13.2.Rel1-x86_64-aarch64-none-elf/bin/../lib/gcc/aarch64-none-elf/13.2.1/../../../../aarch64-none-elf/lib/libg.a(libm_a-sf_nan.o)
 .debug_info    0x000000000053358c      0x1d8 /tools/arm-gnu-toolchain-13.2.Rel1-x86_64-aarch64-none-elf/bin/../lib/gcc/aarch64-none-elf/13.2.1/../../../../aarch64-none-elf/lib/libg.a(libm_a-s_frexp.o)
 .debug_info    0x0000000000533764      0x119 /tools/arm-gnu-toolchain-13.2.Rel1-x86_64-aarch64-none-elf/bin/../lib/gcc/aarch64-none-elf/13.2.1/../../../../aarch64-none-elf/lib/libg.a(libc_a-strlcpy.o)
 .debug_info    0x000000000053387d      0xb61 /tools/arm-gnu-toolchain-13.2.Rel1-x86_64-aarch64-none-elf/bin/../lib/gcc/aarch64-none-elf/13.2.1/../../../../aarch64-none-elf/lib/libg.a(libc_a-freer.o)
 .debug_info    0x00000000005343de      0x172 /tools/arm-gnu-toolchain-13.2.Rel1-x86_64-aarch64-none-elf/bin/../lib/gcc/aarch64-none-elf/13.2.1/../../../../aarch64-none-elf/lib/libg.a(libc_a-strncasecmp.o)
 .debug_info    0x0000000000534550      0x7e8 /tools/arm-gnu-toolchain-13.2.Rel1-x86_64-aarch64-none-elf/bin/../lib/gcc/aarch64-none-elf/13.2.1/../../../../aarch64-none-elf/lib/libg.a(libc_a-getenv.o)
 .debug_info    0x0000000000534d38      0x8d1 /tools/arm-gnu-toolchain-13.2.Rel1-x86_64-aarch64-none-elf/bin/../lib/gcc/aarch64-none-elf/13.2.1/../../../../aarch64-none-elf/lib/libg.a(libc_a-getenv_r.o)
 .debug_info    0x0000000000535609      0x912 /tools/arm-gnu-toolchain-13.2.Rel1-x86_64-aarch64-none-elf/bin/../lib/gcc/aarch64-none-elf/13.2.1/../../../../aarch64-none-elf/lib/libg.a(libc_a-fputc.o)
 .debug_info    0x0000000000535f1b      0x971 /tools/arm-gnu-toolchain-13.2.Rel1-x86_64-aarch64-none-elf/bin/../lib/gcc/aarch64-none-elf/13.2.1/../../../../aarch64-none-elf/lib/libg.a(libc_a-fputs.o)
 .debug_info    0x000000000053688c      0x8be /tools/arm-gnu-toolchain-13.2.Rel1-x86_64-aarch64-none-elf/bin/../lib/gcc/aarch64-none-elf/13.2.1/../../../../aarch64-none-elf/lib/libg.a(libc_a-fiprintf.o)
 .debug_info    0x000000000053714a       0x3b /tools/arm-gnu-toolchain-13.2.Rel1-x86_64-aarch64-none-elf/bin/../lib/gcc/aarch64-none-elf/13.2.1/../../../../aarch64-none-elf/lib/libg.a(libc_a-strcpy.o)
 .debug_info    0x0000000000537185      0xabc /tools/arm-gnu-toolchain-13.2.Rel1-x86_64-aarch64-none-elf/bin/../lib/gcc/aarch64-none-elf/13.2.1/../../../../aarch64-none-elf/lib/libg.a(libc_a-stdio.o)
 .debug_info    0x0000000000537c41      0xd3c /tools/arm-gnu-toolchain-13.2.Rel1-x86_64-aarch64-none-elf/bin/../lib/gcc/aarch64-none-elf/13.2.1/../../../../aarch64-none-elf/lib/libg.a(libc_a-wctomb_r.o)
 .debug_info    0x000000000053897d      0x7aa /tools/arm-gnu-toolchain-13.2.Rel1-x86_64-aarch64-none-elf/bin/../lib/gcc/aarch64-none-elf/13.2.1/../../../../aarch64-none-elf/lib/libg.a(libc_a-sbrkr.o)
 .debug_info    0x0000000000539127      0xb5c /tools/arm-gnu-toolchain-13.2.Rel1-x86_64-aarch64-none-elf/bin/../lib/gcc/aarch64-none-elf/13.2.1/../../../../aarch64-none-elf/lib/libg.a(libc_a-fvwrite.o)
 .debug_info    0x0000000000539c83      0x7fe /tools/arm-gnu-toolchain-13.2.Rel1-x86_64-aarch64-none-elf/bin/../lib/gcc/aarch64-none-elf/13.2.1/../../../../aarch64-none-elf/lib/libg.a(libc_a-fwalk.o)
 .debug_info    0x000000000053a481      0x7e1 /tools/arm-gnu-toolchain-13.2.Rel1-x86_64-aarch64-none-elf/bin/../lib/gcc/aarch64-none-elf/13.2.1/../../../../aarch64-none-elf/lib/libg.a(libc_a-writer.o)
 .debug_info    0x000000000053ac62     0x1662 /tools/arm-gnu-toolchain-13.2.Rel1-x86_64-aarch64-none-elf/bin/../lib/gcc/aarch64-none-elf/13.2.1/../../../../aarch64-none-elf/lib/libg.a(libc_a-svfiprintf.o)
 .debug_info    0x000000000053c2c4     0x2064 /tools/arm-gnu-toolchain-13.2.Rel1-x86_64-aarch64-none-elf/bin/../lib/gcc/aarch64-none-elf/13.2.1/../../../../aarch64-none-elf/lib/libg.a(libc_a-vfprintf.o)
 .debug_info    0x000000000053e328     0x1e17 /tools/arm-gnu-toolchain-13.2.Rel1-x86_64-aarch64-none-elf/bin/../lib/gcc/aarch64-none-elf/13.2.1/../../../../aarch64-none-elf/lib/libg.a(libc_a-vfiprintf.o)
 .debug_info    0x000000000054013f       0x94 /tools/arm-gnu-toolchain-13.2.Rel1-x86_64-aarch64-none-elf/bin/../lib/gcc/aarch64-none-elf/13.2.1/../../../../aarch64-none-elf/lib/libg.a(libc_a-u_strerr.o)
 .debug_info    0x00000000005401d3       0xec /tools/arm-gnu-toolchain-13.2.Rel1-x86_64-aarch64-none-elf/bin/../lib/gcc/aarch64-none-elf/13.2.1/../../../../aarch64-none-elf/lib/libg.a(libc_a-abort.o)
 .debug_info    0x00000000005402bf      0xf6e /tools/arm-gnu-toolchain-13.2.Rel1-x86_64-aarch64-none-elf/bin/../lib/gcc/aarch64-none-elf/13.2.1/../../../../aarch64-none-elf/lib/libg.a(libc_a-mbtowc_r.o)
 .debug_info    0x000000000054122d      0x148 /tools/arm-gnu-toolchain-13.2.Rel1-x86_64-aarch64-none-elf/bin/../lib/gcc/aarch64-none-elf/13.2.1/../../../../aarch64-none-elf/lib/libg.a(libc_a-strcat.o)
 .debug_info    0x0000000000541375      0x23e /tools/arm-gnu-toolchain-13.2.Rel1-x86_64-aarch64-none-elf/bin/../lib/gcc/aarch64-none-elf/13.2.1/../../../../aarch64-none-elf/lib/libg.a(libc_a-lock.o)
 .debug_info    0x00000000005415b3      0x92d /tools/arm-gnu-toolchain-13.2.Rel1-x86_64-aarch64-none-elf/bin/../lib/gcc/aarch64-none-elf/13.2.1/../../../../aarch64-none-elf/lib/libg.a(libc_a-fclose.o)
 .debug_info    0x0000000000541ee0      0x7f1 /tools/arm-gnu-toolchain-13.2.Rel1-x86_64-aarch64-none-elf/bin/../lib/gcc/aarch64-none-elf/13.2.1/../../../../aarch64-none-elf/lib/libg.a(libc_a-wsetup.o)
 .debug_info    0x00000000005426d1      0xc2e /tools/arm-gnu-toolchain-13.2.Rel1-x86_64-aarch64-none-elf/bin/../lib/gcc/aarch64-none-elf/13.2.1/../../../../aarch64-none-elf/lib/libg.a(libc_a-makebuf.o)
 .debug_info    0x00000000005432ff      0x9be /tools/arm-gnu-toolchain-13.2.Rel1-x86_64-aarch64-none-elf/bin/../lib/gcc/aarch64-none-elf/13.2.1/../../../../aarch64-none-elf/lib/libg.a(libc_a-putc.o)
 .debug_info    0x0000000000543cbd      0xd21 /tools/arm-gnu-toolchain-13.2.Rel1-x86_64-aarch64-none-elf/bin/../lib/gcc/aarch64-none-elf/13.2.1/../../../../aarch64-none-elf/lib/libg.a(libc_a-wcsnrtombs.o)
 .debug_info    0x00000000005449de      0x784 /tools/arm-gnu-toolchain-13.2.Rel1-x86_64-aarch64-none-elf/bin/../lib/gcc/aarch64-none-elf/13.2.1/../../../../aarch64-none-elf/lib/libg.a(libc_a-closer.o)
 .debug_info    0x0000000000545162      0xb2c /tools/arm-gnu-toolchain-13.2.Rel1-x86_64-aarch64-none-elf/bin/../lib/gcc/aarch64-none-elf/13.2.1/../../../../aarch64-none-elf/lib/libg.a(libc_a-fflush.o)
 .debug_info    0x0000000000545c8e       0x73 /tools/arm-gnu-toolchain-13.2.Rel1-x86_64-aarch64-none-elf/bin/../lib/gcc/aarch64-none-elf/13.2.1/../../../../aarch64-none-elf/lib/libg.a(libc_a-environ.o)
 .debug_info    0x0000000000545d01      0xc19 /tools/arm-gnu-toolchain-13.2.Rel1-x86_64-aarch64-none-elf/bin/../lib/gcc/aarch64-none-elf/13.2.1/../../../../aarch64-none-elf/lib/libg.a(libc_a-reallocr.o)
 .debug_info    0x000000000054691a      0x7a5 /tools/arm-gnu-toolchain-13.2.Rel1-x86_64-aarch64-none-elf/bin/../lib/gcc/aarch64-none-elf/13.2.1/../../../../aarch64-none-elf/lib/libg.a(libc_a-envlock.o)
 .debug_info    0x00000000005470bf      0x997 /tools/arm-gnu-toolchain-13.2.Rel1-x86_64-aarch64-none-elf/bin/../lib/gcc/aarch64-none-elf/13.2.1/../../../../aarch64-none-elf/lib/libg.a(libc_a-fstatr.o)
 .debug_info    0x0000000000547a56      0xd41 /tools/arm-gnu-toolchain-13.2.Rel1-x86_64-aarch64-none-elf/bin/../lib/gcc/aarch64-none-elf/13.2.1/../../../../aarch64-none-elf/lib/libg.a(libc_a-signal.o)
 .debug_info    0x0000000000548797      0x784 /tools/arm-gnu-toolchain-13.2.Rel1-x86_64-aarch64-none-elf/bin/../lib/gcc/aarch64-none-elf/13.2.1/../../../../aarch64-none-elf/lib/libg.a(libc_a-isattyr.o)
 .debug_info    0x0000000000548f1b      0x7c4 /tools/arm-gnu-toolchain-13.2.Rel1-x86_64-aarch64-none-elf/bin/../lib/gcc/aarch64-none-elf/13.2.1/../../../../aarch64-none-elf/lib/libg.a(libc_a-lseekr.o)
 .debug_info    0x00000000005496df      0x7db /tools/arm-gnu-toolchain-13.2.Rel1-x86_64-aarch64-none-elf/bin/../lib/gcc/aarch64-none-elf/13.2.1/../../../../aarch64-none-elf/lib/libg.a(libc_a-readr.o)
 .debug_info    0x0000000000549eba      0xafb /tools/arm-gnu-toolchain-13.2.Rel1-x86_64-aarch64-none-elf/bin/../lib/gcc/aarch64-none-elf/13.2.1/../../../../aarch64-none-elf/lib/libg.a(libc_a-fputwc.o)
 .debug_info    0x000000000054a9b5      0x817 /tools/arm-gnu-toolchain-13.2.Rel1-x86_64-aarch64-none-elf/bin/../lib/gcc/aarch64-none-elf/13.2.1/../../../../aarch64-none-elf/lib/libg.a(libc_a-signalr.o)
 .debug_info    0x000000000054b1cc      0x8a7 /tools/arm-gnu-toolchain-13.2.Rel1-x86_64-aarch64-none-elf/bin/../lib/gcc/aarch64-none-elf/13.2.1/../../../../aarch64-none-elf/lib/libg.a(libc_a-wbuf.o)
 .debug_info    0x000000000054ba73      0x39e /tools/arm-gnu-toolchain-13.2.Rel1-x86_64-aarch64-none-elf/bin/../lib/gcc/aarch64-none-elf/13.2.1/libgcc.a(trunctfdf2.o)
 .debug_info    0x000000000054be11       0xdd /tools/arm-gnu-toolchain-13.2.Rel1-x86_64-aarch64-none-elf/bin/../lib/gcc/aarch64-none-elf/13.2.1/libgcc.a(sfp-exceptions.o)

.debug_abbrev   0x0000000000000000    0x29c1e
 .debug_abbrev  0x0000000000000000      0x252 CMakeFiles/freertos_kernel.elf.dir/main.c.o
 .debug_abbrev  0x0000000000000252      0x172 gloss/CMakeFiles/freedom_metal.dir/freedom_metal.c.o
 .debug_abbrev  0x00000000000003c4       0xbe gloss/CMakeFiles/freedom_metal.dir/nanosleep.c.o
 .debug_abbrev  0x0000000000000482       0x8a gloss/CMakeFiles/freedom_metal.dir/sys_access.c.o
 .debug_abbrev  0x000000000000050c       0x88 gloss/CMakeFiles/freedom_metal.dir/sys_chdir.c.o
 .debug_abbrev  0x0000000000000594       0x99 gloss/CMakeFiles/freedom_metal.dir/sys_chmod.c.o
 .debug_abbrev  0x000000000000062d       0x99 gloss/CMakeFiles/freedom_metal.dir/sys_chown.c.o
 .debug_abbrev  0x00000000000006c6      0x118 gloss/CMakeFiles/freedom_metal.dir/sys_clock_gettime.c.o
 .debug_abbrev  0x00000000000007de       0x80 gloss/CMakeFiles/freedom_metal.dir/sys_close.c.o
 .debug_abbrev  0x000000000000085e       0xa0 gloss/CMakeFiles/freedom_metal.dir/sys_execve.c.o
 .debug_abbrev  0x00000000000008fe       0x8a gloss/CMakeFiles/freedom_metal.dir/sys_exit.c.o
 .debug_abbrev  0x0000000000000988       0x8a gloss/CMakeFiles/freedom_metal.dir/sys_faccessat.c.o
 .debug_abbrev  0x0000000000000a12       0x6a gloss/CMakeFiles/freedom_metal.dir/sys_fork.c.o
 .debug_abbrev  0x0000000000000a7c       0xdb gloss/CMakeFiles/freedom_metal.dir/sys_fstat.c.o
 .debug_abbrev  0x0000000000000b57       0xe4 gloss/CMakeFiles/freedom_metal.dir/sys_fstatat.c.o
 .debug_abbrev  0x0000000000000c3b       0xb5 gloss/CMakeFiles/freedom_metal.dir/sys_ftime.c.o
 .debug_abbrev  0x0000000000000cf0       0xa4 gloss/CMakeFiles/freedom_metal.dir/sys_getcwd.c.o
 .debug_abbrev  0x0000000000000d94       0x9a gloss/CMakeFiles/freedom_metal.dir/sys_getpid.c.o
 .debug_abbrev  0x0000000000000e2e      0x113 gloss/CMakeFiles/freedom_metal.dir/sys_gettimeofday.c.o
 .debug_abbrev  0x0000000000000f41       0x59 gloss/CMakeFiles/freedom_metal.dir/sys_isatty.c.o
 .debug_abbrev  0x0000000000000f9a       0x82 gloss/CMakeFiles/freedom_metal.dir/sys_kill.c.o
 .debug_abbrev  0x000000000000101c       0x8a gloss/CMakeFiles/freedom_metal.dir/sys_link.c.o
 .debug_abbrev  0x00000000000010a6       0xa5 gloss/CMakeFiles/freedom_metal.dir/sys_lseek.c.o
 .debug_abbrev  0x000000000000114b       0xe2 gloss/CMakeFiles/freedom_metal.dir/sys_lstat.c.o
 .debug_abbrev  0x000000000000122d       0x8a gloss/CMakeFiles/freedom_metal.dir/sys_open.c.o
 .debug_abbrev  0x00000000000012b7       0x8a gloss/CMakeFiles/freedom_metal.dir/sys_openat.c.o
 .debug_abbrev  0x0000000000001341       0xac gloss/CMakeFiles/freedom_metal.dir/sys_read.c.o
 .debug_abbrev  0x00000000000013ed      0x100 gloss/CMakeFiles/freedom_metal.dir/sys_sbrk.c.o
 .debug_abbrev  0x00000000000014ed       0x59 gloss/CMakeFiles/freedom_metal.dir/sys_sysconf.c.o
 .debug_abbrev  0x0000000000001546      0x16f gloss/CMakeFiles/freedom_metal.dir/sys_times.c.o
 .debug_abbrev  0x00000000000016b5       0x88 gloss/CMakeFiles/freedom_metal.dir/sys_unlink.c.o
 .debug_abbrev  0x000000000000173d       0x95 gloss/CMakeFiles/freedom_metal.dir/sys_utime.c.o
 .debug_abbrev  0x00000000000017d2       0x80 gloss/CMakeFiles/freedom_metal.dir/sys_wait.c.o
 .debug_abbrev  0x0000000000001852      0x100 gloss/CMakeFiles/freedom_metal.dir/sys_write.c.o
 .debug_abbrev  0x0000000000001952      0x440 build/drivers/mailbox/CMakeFiles/mailbox.dir/mailbox.c.o
 .debug_abbrev  0x0000000000001d92      0x1c6 build/drivers/mailbox/CMakeFiles/mailbox.dir/mailbox_cb.c.o
 .debug_abbrev  0x0000000000001f58      0x219 build/drivers/pmu/CMakeFiles/pmu.dir/pmu.c.o
 .debug_abbrev  0x0000000000002171      0x418 build/drivers/uart/CMakeFiles/uart.dir/uart.c.o
 .debug_abbrev  0x0000000000002589      0x5f3 build/drivers/dma/CMakeFiles/dma.dir/pl330.c.o
 .debug_abbrev  0x0000000000002b7c      0x3ab build/drivers/gpio/CMakeFiles/gpio.dir/gpio.c.o
 .debug_abbrev  0x0000000000002f27      0x4e5 build/drivers/smmu/CMakeFiles/smmu.dir/smmu.c.o
 .debug_abbrev  0x000000000000340c      0x3cf build/drivers/smmu/CMakeFiles/smmu.dir/smmu_pmu.c.o
 .debug_abbrev  0x00000000000037db      0x4ae build/drivers/pvt_con/CMakeFiles/pvt_con.dir/pvt_con.c.o
 .debug_abbrev  0x0000000000003c89      0x418 build/drivers/cmu/CMakeFiles/cmu.dir/cmu.c.o
 .debug_abbrev  0x00000000000040a1      0x2e3 build/drivers/watchdog/CMakeFiles/watchdog.dir/dw_apb_wdt.c.o
 .debug_abbrev  0x0000000000004384      0x662 build/drivers/rbc/CMakeFiles/rbc.dir/aw_ucie.c.o
 .debug_abbrev  0x00000000000049e6      0x49b build/drivers/rbc/CMakeFiles/rbc.dir/rbc_driver.c.o
 .debug_abbrev  0x0000000000004e81      0x18e build/drivers/rbc/CMakeFiles/rbc.dir/rbc_cmd.c.o
 .debug_abbrev  0x000000000000500f      0x5f4 build/drivers/rbcm/CMakeFiles/rbcm.dir/rbcm_core.c.o
 .debug_abbrev  0x0000000000005603      0x571 build/drivers/rbcm/CMakeFiles/rbcm.dir/rbcm_driver.c.o
 .debug_abbrev  0x0000000000005b74      0x468 build/drivers/i2c/CMakeFiles/i2c.dir/i2c.c.o
 .debug_abbrev  0x0000000000005fdc      0x24e build/drivers/noc_logger/CMakeFiles/noc_logger.dir/noc_logger.c.o
 .debug_abbrev  0x000000000000622a      0x33b build/drivers/hbm3/CMakeFiles/hbm3.dir/hbm3.c.o
 .debug_abbrev  0x0000000000006565      0x267 build/drivers/hbm3/CMakeFiles/hbm3.dir/tmrs.c.o
 .debug_abbrev  0x00000000000067cc      0x382 build/drivers/hbm3/CMakeFiles/hbm3.dir/icon.c.o
 .debug_abbrev  0x0000000000006b4e      0x47f build/drivers/hbm3/CMakeFiles/hbm3.dir/hbm3_irq.c.o
 .debug_abbrev  0x0000000000006fcd      0x2e3 build/drivers/hbm3/CMakeFiles/hbm3.dir/hbm3_am.c.o
 .debug_abbrev  0x00000000000072b0      0x1e5 build/drivers/pmic/CMakeFiles/pmic.dir/ltc1427cs8.c.o
 .debug_abbrev  0x0000000000007495      0x120 build/drivers/pmic/CMakeFiles/pmic.dir/tca9548a.c.o
 .debug_abbrev  0x00000000000075b5      0x149 build/drivers/pmic/CMakeFiles/pmic.dir/mp5998.c.o
 .debug_abbrev  0x00000000000076fe      0x1c8 build/drivers/pmic/CMakeFiles/pmic.dir/mpq8785.c.o
 .debug_abbrev  0x00000000000078c6      0x1ae build/drivers/pmic/CMakeFiles/pmic.dir/mp29816a.c.o
 .debug_abbrev  0x0000000000007a74      0x1a5 build/drivers/pmic/CMakeFiles/pmic.dir/g1505.c.o
 .debug_abbrev  0x0000000000007c19      0x1f9 build/drivers/pmic/CMakeFiles/pmic.dir/pmic_mgr.c.o
 .debug_abbrev  0x0000000000007e12      0x361 build/drivers/dvfs/CMakeFiles/dvfs.dir/dvfs.c.o
 .debug_abbrev  0x0000000000008173      0x2a4 build/drivers/sic/CMakeFiles/sic.dir/sic.c.o
 .debug_abbrev  0x0000000000008417      0x27e build/drivers/timer/dw_apb_timer/CMakeFiles/dw_apb_timer.dir/dw_apb_timer.c.o
 .debug_abbrev  0x0000000000008695      0x34f build/drivers/qspi/qspi_apb/CMakeFiles/qspi_apb.dir/qspi_apb.c.o
 .debug_abbrev  0x00000000000089e4       0xfd build/drivers/flash/CMakeFiles/flash.dir/mt25q_flash.c.o
 .debug_abbrev  0x0000000000008ae1      0x13e build/tests/common/CMakeFiles/test_common.dir/test_mailbox_cb.c.o
 .debug_abbrev  0x0000000000008c1f      0x2eb build/tests/interrupt_test_helper_example/CMakeFiles/interrupt_test_helper_example.dir/example_test.c.o
 .debug_abbrev  0x0000000000008f0a       0xc3 build/tests/interrupt_test_helper_example/CMakeFiles/interrupt_test_helper_example.dir/example_driver.c.o
 .debug_abbrev  0x0000000000008fcd      0x1dc build/tests/arch/CMakeFiles/test_arch.dir/test_cli.c.o
 .debug_abbrev  0x00000000000091a9      0x348 build/tests/gpio/CMakeFiles/test_gpio.dir/test_gpio.c.o
 .debug_abbrev  0x00000000000094f1      0x268 build/tests/dma/CMakeFiles/test_dma.dir/test_dma_main.c.o
 .debug_abbrev  0x0000000000009759      0x27e build/tests/mailbox/CMakeFiles/mailbox_test.dir/test_mailbox_main.c.o
 .debug_abbrev  0x00000000000099d7      0x3b4 build/tests/pvt_con/CMakeFiles/test_pvt_con.dir/test_pvt_con.c.o
 .debug_abbrev  0x0000000000009d8b      0x360 build/tests/arch/arm64/CMakeFiles/test_arm64.dir/test_ca73.c.o
 .debug_abbrev  0x000000000000a0eb      0x209 build/tests/timer/dw_apb_timer/CMakeFiles/test_dw_apb_timer.dir/test_dw_apb_timer.c.o
 .debug_abbrev  0x000000000000a2f4      0x3fe build/tests/cmu/CMakeFiles/test_cmu.dir/test_cmu_main.c.o
 .debug_abbrev  0x000000000000a6f2      0x1ad build/tests/smmu/CMakeFiles/test_mmu.dir/test_mmu_main.c.o
 .debug_abbrev  0x000000000000a89f      0x294 build/tests/log/CMakeFiles/show_log.dir/rebel_h_log.c.o
 .debug_abbrev  0x000000000000ab33      0x292 build/tests/rbc/CMakeFiles/test_rbc.dir/test/all_test.c.o
 .debug_abbrev  0x000000000000adc5      0x420 build/tests/rbc/CMakeFiles/test_rbc.dir/test/test_aw_ucie_init.c.o
 .debug_abbrev  0x000000000000b1e5      0x4f2 build/tests/rbc/CMakeFiles/test_rbc.dir/test/test_aw_ucie_d2d_comp.c.o
 .debug_abbrev  0x000000000000b6d7      0x46a build/tests/rbc/CMakeFiles/test_rbc.dir/test/test_aw_ucie_d2d_err_and_link.c.o
 .debug_abbrev  0x000000000000bb41      0x3b9 build/tests/rbc/CMakeFiles/test_rbc.dir/test/test_aw_ucie_retraining.c.o
 .debug_abbrev  0x000000000000befa      0x4ce build/tests/rbc/CMakeFiles/test_rbc.dir/test/test_aw_ucie_sideband.c.o
 .debug_abbrev  0x000000000000c3c8      0x50d build/tests/rbc/CMakeFiles/test_rbc.dir/test/test_aw_ucie_training.c.o
 .debug_abbrev  0x000000000000c8d5      0x52a build/tests/rbc/CMakeFiles/test_rbc.dir/test/test_aw_ucie_runtime_link_test.c.o
 .debug_abbrev  0x000000000000cdff      0x4dc build/tests/rbc/CMakeFiles/test_rbc.dir/test/test_aw_ucie_phy_compliance_test.c.o
 .debug_abbrev  0x000000000000d2db      0x587 build/tests/rbc/CMakeFiles/test_rbc.dir/test/test_aw_ucie_exception.c.o
 .debug_abbrev  0x000000000000d862      0x4ac build/tests/rbc/CMakeFiles/test_rbc.dir/test/test_aw_ucie_eye_of_margin.c.o
 .debug_abbrev  0x000000000000dd0e      0x321 build/tests/rbc/CMakeFiles/test_rbc.dir/test/test_aw_ucie_util.c.o
 .debug_abbrev  0x000000000000e02f      0x172 build/tests/rbc/CMakeFiles/test_rbc.dir/test/test_fake_timer.c.o
 .debug_abbrev  0x000000000000e1a1      0x4f0 build/tests/rbc/CMakeFiles/test_rbc.dir/test/test_rbc_driver.c.o
 .debug_abbrev  0x000000000000e691       0xc3 build/tests/rbc/CMakeFiles/test_rbc.dir/mocks/fake_timer.c.o
 .debug_abbrev  0x000000000000e754      0x106 build/tests/rbc/CMakeFiles/test_rbc.dir/mocks/fake_gic.c.o
 .debug_abbrev  0x000000000000e85a      0x57b build/tests/rbcm/CMakeFiles/test_rbcm.dir/rbcm_test.c.o
 .debug_abbrev  0x000000000000edd5      0x247 build/tests/rbcm/CMakeFiles/test_rbcm.dir/rbcm_reg_access_test.c.o
 .debug_abbrev  0x000000000000f01c      0x25a build/tests/i2c/CMakeFiles/test_i2c.dir/test_i2c_main.c.o
 .debug_abbrev  0x000000000000f276      0x48c build/tests/hbm3/CMakeFiles/hbm3_test.dir/memtest.c.o
 .debug_abbrev  0x000000000000f702      0x189 build/tests/hbm3/CMakeFiles/hbm3_test.dir/hbm3_irq_test.c.o
 .debug_abbrev  0x000000000000f88b      0x4b1 build/tests/system_test/CMakeFiles/system_test.dir/test_system.c.o
 .debug_abbrev  0x000000000000fd3c      0x234 build/tests/system_test/CMakeFiles/system_test.dir/dma_transaction.c.o
 .debug_abbrev  0x000000000000ff70      0x33d build/tests/system_test/CMakeFiles/system_test.dir/test_dma_transaction.c.o
 .debug_abbrev  0x00000000000102ad      0x386 build/tests/system_test/CMakeFiles/system_test.dir/data_process.c.o
 .debug_abbrev  0x0000000000010633      0x366 build/tests/system_test/CMakeFiles/system_test.dir/test_data_process.c.o
 .debug_abbrev  0x0000000000010999      0x1d6 build/tests/dvfs/CMakeFiles/test_dvfs.dir/test_dvfs_main.c.o
 .debug_abbrev  0x0000000000010b6f      0x1c3 build/tests/pmic/CMakeFiles/test_pmic.dir/test_pmic_main.c.o
 .debug_abbrev  0x0000000000010d32      0x18e build/tests/pvt_con/CMakeFiles/pvt_cli.dir/pvt_cli.c.o
 .debug_abbrev  0x0000000000010ec0      0x320 build/tests/pvt_con/CMakeFiles/pvt_cli.dir/pvt_cli_show.c.o
 .debug_abbrev  0x00000000000111e0      0x1e7 build/tests/pvt_con/CMakeFiles/pvt_cli.dir/pvt_cli_enable.c.o
 .debug_abbrev  0x00000000000113c7      0x1e7 build/tests/pvt_con/CMakeFiles/pvt_cli.dir/pvt_cli_disable.c.o
 .debug_abbrev  0x00000000000115ae      0x226 build/tests/pvt_con/CMakeFiles/pvt_cli.dir/pvt_cli_set.c.o
 .debug_abbrev  0x00000000000117d4      0x165 build/tests/sic/CMakeFiles/test_sic.dir/test_sic.c.o
 .debug_abbrev  0x0000000000011939      0x224 build/tests/chipid/CMakeFiles/test_chipid.dir/read_chipid.c.o
 .debug_abbrev  0x0000000000011b5d      0x158 build/tests/flash/CMakeFiles/test_flash.dir/test_flash.c.o
 .debug_abbrev  0x0000000000011cb5      0x186 build/tests/qspi/CMakeFiles/test_qspiapb.dir/test_qspiapb.c.o
 .debug_abbrev  0x0000000000011e3b      0x34d build/tests/rbdma/CMakeFiles/test_rbdma.dir/rbdma_tsync_test.c.o
 .debug_abbrev  0x0000000000012188      0x198 build/tests/rbdma/CMakeFiles/test_rbdma.dir/test_main_rbdma.c.o
 .debug_abbrev  0x0000000000012320      0x384 libfreertos_kernel.a(queue.c.o)
 .debug_abbrev  0x00000000000126a4      0x5dd libfreertos_kernel.a(tasks.c.o)
 .debug_abbrev  0x0000000000012c81      0x3a5 libfreertos_kernel.a(timers.c.o)
 .debug_abbrev  0x0000000000013026      0x30d libfreertos_kernel.a(heap_4.c.o)
 .debug_abbrev  0x0000000000013333      0x11e libfreertos_kernel.a(list.c.o)
 .debug_abbrev  0x0000000000013451      0x4a8 portable/libfreertos_kernel_port.a(port.c.o)
 .debug_abbrev  0x00000000000138f9      0x11e build/drivers/common/libdriver.a(driver.c.o)
 .debug_abbrev  0x0000000000013a17      0x102 build/drivers/common/libassert.a(assert.c.o)
 .debug_abbrev  0x0000000000013b19      0x122 build/drivers/common/libinterrupt.a(interrupt.c.o)
 .debug_abbrev  0x0000000000013c3b      0x41a build/drivers/intc/libintc.a(gicv3.c.o)
 .debug_abbrev  0x0000000000014055       0xd8 build/drivers/intc/libintc.a(bakery_lock.c.o)
 .debug_abbrev  0x000000000001412d      0x232 services/cli_service/libcli_service.a(cli_task.c.o)
 .debug_abbrev  0x000000000001435f      0x486 services/cli_service/libcli_service.a(sys_command_line.c.o)
 .debug_abbrev  0x00000000000147e5      0x20b services/terminal_service/libterminal_service.a(console_uart.c.o)
 .debug_abbrev  0x00000000000149f0      0x286 services/terminal_service/libterminal_service.a(console.c.o)
 .debug_abbrev  0x0000000000014c76      0x2cf services/terminal_service/libterminal_service.a(terminal_task.c.o)
 .debug_abbrev  0x0000000000014f45      0x968 services/replay_service/libreplay_service.a(replay.c.o)
 .debug_abbrev  0x00000000000158ad      0x523 services/replay_service/libreplay_service.a(sub_function.c.o)
 .debug_abbrev  0x0000000000015dd0      0x2b7 services/replay_service/libreplay_service.a(rush_cli.c.o)
 .debug_abbrev  0x0000000000016087      0x1d5 services/replay_service/libreplay_service.a(rush_cli_msg_buf.c.o)
 .debug_abbrev  0x000000000001625c      0x321 services/replay_service/libreplay_service.a(tpg_cli.c.o)
 .debug_abbrev  0x000000000001657d      0x464 services/replay_service/libreplay_service.a(rbdma_cli.c.o)
 .debug_abbrev  0x00000000000169e1      0x2c0 services/replay_service/libreplay_service.a(mem_cli.c.o)
 .debug_abbrev  0x0000000000016ca1      0x179 services/replay_service/libreplay_service.a(chiplet.c.o)
 .debug_abbrev  0x0000000000016e1a      0x36a services/replay_service/libreplay_service.a(cmgr_if.c.o)
 .debug_abbrev  0x0000000000017184      0x775 services/replay_service/libreplay_service.a(dnc_if.c.o)
 .debug_abbrev  0x00000000000178f9      0x273 services/replay_service/libreplay_service.a(dnc_if_evt1.c.o)
 .debug_abbrev  0x0000000000017b6c      0x43e services/replay_service/libreplay_service.a(rdsn_if.c.o)
 .debug_abbrev  0x0000000000017faa      0x4ee services/replay_service/libreplay_service.a(ptw.c.o)
 .debug_abbrev  0x0000000000018498      0x593 services/replay_service/libreplay_service.a(rbdma_if.c.o)
 .debug_abbrev  0x0000000000018a2b      0x4a3 services/replay_service/libreplay_service.a(shm_if.c.o)
 .debug_abbrev  0x0000000000018ece      0x219 services/replay_service/libreplay_service.a(tbu_wrapper.c.o)
 .debug_abbrev  0x00000000000190e7      0x1e8 services/replay_service/libreplay_service.a(debug.c.o)
 .debug_abbrev  0x00000000000192cf      0x3a7 services/replay_service/libreplay_service.a(ici.c.o)
 .debug_abbrev  0x0000000000019676      0x23e services/replay_service/libreplay_service.a(page_table_gen.c.o)
 .debug_abbrev  0x00000000000198b4      0x37d services/replay_service/libreplay_service.a(profile.c.o)
 .debug_abbrev  0x0000000000019c31      0x39a services/replay_service/libreplay_service.a(rl_queue.c.o)
 .debug_abbrev  0x0000000000019fcb      0x463 services/replay_service/libreplay_service.a(abort.c.o)
 .debug_abbrev  0x000000000001a42e       0xc1 services/replay_service/libreplay_service.a(cpu_data.c.o)
 .debug_abbrev  0x000000000001a4ef       0xfa services/replay_service/libreplay_service.a(spinlock.c.o)
 .debug_abbrev  0x000000000001a5e9      0x266 services/replay_service/libreplay_service.a(core.c.o)
 .debug_abbrev  0x000000000001a84f      0x2f8 services/replay_service/libreplay_service.a(log.c.o)
 .debug_abbrev  0x000000000001ab47      0x1d4 services/replay_service/libreplay_service.a(rand.c.o)
 .debug_abbrev  0x000000000001ad1b      0x2a8 services/replay_service/libreplay_service.a(backtrace.c.o)
 .debug_abbrev  0x000000000001afc3      0x434 services/replay_service/libreplay_service.a(argparse.c.o)
 .debug_abbrev  0x000000000001b3f7      0x1d5 services/replay_service/libreplay_service.a(rush_cli_util.c.o)
 .debug_abbrev  0x000000000001b5cc      0x20f services/task_adder_service/libtask_adder_service.a(task_adder.c.o)
 .debug_abbrev  0x000000000001b7db      0x127 portable/libfreertos_arch.a(prep_c.c.o)
 .debug_abbrev  0x000000000001b902      0x225 libfreertos_kernel_config.a(FreeRTOS_tick_config.c.o)
 .debug_abbrev  0x000000000001bb27      0x1f7 portable/libsmp.a(smp.c.o)
 .debug_abbrev  0x000000000001bd1e      0x469 portable/libmmu.a(mmu.c.o)
 .debug_abbrev  0x000000000001c187      0x28c build/interrupt_test_helper/libinterrupt_test_helper.a(interrupt_test_helper.c.o)
 .debug_abbrev  0x000000000001c413      0x49b build/unity/libunity.a(unity.c.o)
 .debug_abbrev  0x000000000001c8ae      0x370 build/unity/libunity.a(unity_fixture.c.o)
 .debug_abbrev  0x000000000001cc1e      0x159 build/drivers/psci/libpsci.a(psci.c.o)
 .debug_abbrev  0x000000000001cd77      0x28f libfreertos_kernel.a(event_groups.c.o)
 .debug_abbrev  0x000000000001d006      0x2f5 libfreertos_kernel.a(stream_buffer.c.o)
 .debug_abbrev  0x000000000001d2fb      0x436 build/common/arch/libcommon.a(printf.c.o)
 .debug_abbrev  0x000000000001d731      0x14a build/common/arch/libcommon.a(system_api.c.o)
 .debug_abbrev  0x000000000001d87b      0x1c7 build/drivers/timer/generic_timer/libgeneric_timer.a(generic_timer.c.o)
 .debug_abbrev  0x000000000001da42       0x28 /tools/arm-gnu-toolchain-13.2.Rel1-x86_64-aarch64-none-elf/bin/../lib/gcc/aarch64-none-elf/13.2.1/libgcc.a(ldset_8_4.o)
 .debug_abbrev  0x000000000001da6a       0x2e /tools/arm-gnu-toolchain-13.2.Rel1-x86_64-aarch64-none-elf/bin/../lib/gcc/aarch64-none-elf/13.2.1/libgcc.a(lse-init.o)
 .debug_abbrev  0x000000000001da98      0x515 /tools/arm-gnu-toolchain-13.2.Rel1-x86_64-aarch64-none-elf/bin/../lib/gcc/aarch64-none-elf/13.2.1/../../../../aarch64-none-elf/lib/libg.a(libc_a-strtod.o)
 .debug_abbrev  0x000000000001dfad      0x335 /tools/arm-gnu-toolchain-13.2.Rel1-x86_64-aarch64-none-elf/bin/../lib/gcc/aarch64-none-elf/13.2.1/../../../../aarch64-none-elf/lib/libg.a(libc_a-strtol.o)
 .debug_abbrev  0x000000000001e2e2      0x3ff /tools/arm-gnu-toolchain-13.2.Rel1-x86_64-aarch64-none-elf/bin/../lib/gcc/aarch64-none-elf/13.2.1/../../../../aarch64-none-elf/lib/libg.a(libc_a-gdtoa-gethex.o)
 .debug_abbrev  0x000000000001e6e1      0x2fb /tools/arm-gnu-toolchain-13.2.Rel1-x86_64-aarch64-none-elf/bin/../lib/gcc/aarch64-none-elf/13.2.1/../../../../aarch64-none-elf/lib/libg.a(libc_a-strtoul.o)
 .debug_abbrev  0x000000000001e9dc      0x1c8 /tools/arm-gnu-toolchain-13.2.Rel1-x86_64-aarch64-none-elf/bin/../lib/gcc/aarch64-none-elf/13.2.1/../../../../aarch64-none-elf/lib/libg.a(libc_a-gdtoa-hexnan.o)
 .debug_abbrev  0x000000000001eba4      0x318 /tools/arm-gnu-toolchain-13.2.Rel1-x86_64-aarch64-none-elf/bin/../lib/gcc/aarch64-none-elf/13.2.1/../../../../aarch64-none-elf/lib/libg.a(libc_a-strtoll.o)
 .debug_abbrev  0x000000000001eebc       0xbe /tools/arm-gnu-toolchain-13.2.Rel1-x86_64-aarch64-none-elf/bin/../lib/gcc/aarch64-none-elf/13.2.1/../../../../aarch64-none-elf/lib/libg.a(libc_a-strncpy.o)
 .debug_abbrev  0x000000000001ef7a      0x318 /tools/arm-gnu-toolchain-13.2.Rel1-x86_64-aarch64-none-elf/bin/../lib/gcc/aarch64-none-elf/13.2.1/../../../../aarch64-none-elf/lib/libg.a(libc_a-strtoull.o)
 .debug_abbrev  0x000000000001f292       0x28 /tools/arm-gnu-toolchain-13.2.Rel1-x86_64-aarch64-none-elf/bin/../lib/gcc/aarch64-none-elf/13.2.1/../../../../aarch64-none-elf/lib/libg.a(libc_a-strchr.o)
 .debug_abbrev  0x000000000001f2ba       0x28 /tools/arm-gnu-toolchain-13.2.Rel1-x86_64-aarch64-none-elf/bin/../lib/gcc/aarch64-none-elf/13.2.1/../../../../aarch64-none-elf/lib/libg.a(libc_a-strcmp.o)
 .debug_abbrev  0x000000000001f2e2      0x245 /tools/arm-gnu-toolchain-13.2.Rel1-x86_64-aarch64-none-elf/bin/../lib/gcc/aarch64-none-elf/13.2.1/../../../../aarch64-none-elf/lib/libg.a(libc_a-sprintf.o)
 .debug_abbrev  0x000000000001f527       0x28 /tools/arm-gnu-toolchain-13.2.Rel1-x86_64-aarch64-none-elf/bin/../lib/gcc/aarch64-none-elf/13.2.1/../../../../aarch64-none-elf/lib/libg.a(libc_a-strlen.o)
 .debug_abbrev  0x000000000001f54f       0x9f /tools/arm-gnu-toolchain-13.2.Rel1-x86_64-aarch64-none-elf/bin/../lib/gcc/aarch64-none-elf/13.2.1/../../../../aarch64-none-elf/lib/libg.a(libc_a-strspn.o)
 .debug_abbrev  0x000000000001f5ee      0x204 /tools/arm-gnu-toolchain-13.2.Rel1-x86_64-aarch64-none-elf/bin/../lib/gcc/aarch64-none-elf/13.2.1/../../../../aarch64-none-elf/lib/libg.a(libc_a-strtok.o)
 .debug_abbrev  0x000000000001f7f2      0x110 /tools/arm-gnu-toolchain-13.2.Rel1-x86_64-aarch64-none-elf/bin/../lib/gcc/aarch64-none-elf/13.2.1/../../../../aarch64-none-elf/lib/libg.a(libc_a-strtok_r.o)
 .debug_abbrev  0x000000000001f902      0x259 /tools/arm-gnu-toolchain-13.2.Rel1-x86_64-aarch64-none-elf/bin/../lib/gcc/aarch64-none-elf/13.2.1/../../../../aarch64-none-elf/lib/libg.a(libc_a-strstr.o)
 .debug_abbrev  0x000000000001fb5b      0x3c1 /tools/arm-gnu-toolchain-13.2.Rel1-x86_64-aarch64-none-elf/bin/../lib/gcc/aarch64-none-elf/13.2.1/../../../../aarch64-none-elf/lib/libg.a(libc_a-getopt.o)
 .debug_abbrev  0x000000000001ff1c      0x19a /tools/arm-gnu-toolchain-13.2.Rel1-x86_64-aarch64-none-elf/bin/../lib/gcc/aarch64-none-elf/13.2.1/../../../../aarch64-none-elf/lib/libg.a(libc_a-errno.o)
 .debug_abbrev  0x00000000000200b6      0x458 /tools/arm-gnu-toolchain-13.2.Rel1-x86_64-aarch64-none-elf/bin/../lib/gcc/aarch64-none-elf/13.2.1/../../../../aarch64-none-elf/lib/libg.a(libc_a-svfprintf.o)
 .debug_abbrev  0x000000000002050e       0x28 /tools/arm-gnu-toolchain-13.2.Rel1-x86_64-aarch64-none-elf/bin/../lib/gcc/aarch64-none-elf/13.2.1/../../../../aarch64-none-elf/lib/libg.a(libc_a-strncmp.o)
 .debug_abbrev  0x0000000000020536       0x28 /tools/arm-gnu-toolchain-13.2.Rel1-x86_64-aarch64-none-elf/bin/../lib/gcc/aarch64-none-elf/13.2.1/../../../../aarch64-none-elf/lib/libg.a(libc_a-strnlen.o)
 .debug_abbrev  0x000000000002055e      0x2c7 /tools/arm-gnu-toolchain-13.2.Rel1-x86_64-aarch64-none-elf/bin/../lib/gcc/aarch64-none-elf/13.2.1/../../../../aarch64-none-elf/lib/libg.a(libc_a-vsnprintf.o)
 .debug_abbrev  0x0000000000020825      0x20b /tools/arm-gnu-toolchain-13.2.Rel1-x86_64-aarch64-none-elf/bin/../lib/gcc/aarch64-none-elf/13.2.1/../../../../aarch64-none-elf/lib/libg.a(libc_a-malloc.o)
 .debug_abbrev  0x0000000000020a30      0x2d7 /tools/arm-gnu-toolchain-13.2.Rel1-x86_64-aarch64-none-elf/bin/../lib/gcc/aarch64-none-elf/13.2.1/../../../../aarch64-none-elf/lib/libg.a(libc_a-mallocr.o)
 .debug_abbrev  0x0000000000020d07      0x226 /tools/arm-gnu-toolchain-13.2.Rel1-x86_64-aarch64-none-elf/bin/../lib/gcc/aarch64-none-elf/13.2.1/../../../../aarch64-none-elf/lib/libg.a(libc_a-assert.o)
 .debug_abbrev  0x0000000000020f2d       0xb2 /tools/arm-gnu-toolchain-13.2.Rel1-x86_64-aarch64-none-elf/bin/../lib/gcc/aarch64-none-elf/13.2.1/../../../../aarch64-none-elf/lib/libg.a(libc_a-strcasecmp.o)
 .debug_abbrev  0x0000000000020fdf      0x254 /tools/arm-gnu-toolchain-13.2.Rel1-x86_64-aarch64-none-elf/bin/../lib/gcc/aarch64-none-elf/13.2.1/../../../../aarch64-none-elf/lib/libg.a(libc_a-wcrtomb.o)
 .debug_abbrev  0x0000000000021233      0x3c4 /tools/arm-gnu-toolchain-13.2.Rel1-x86_64-aarch64-none-elf/bin/../lib/gcc/aarch64-none-elf/13.2.1/../../../../aarch64-none-elf/lib/libg.a(libc_a-locale.o)
 .debug_abbrev  0x00000000000215f7      0x285 /tools/arm-gnu-toolchain-13.2.Rel1-x86_64-aarch64-none-elf/bin/../lib/gcc/aarch64-none-elf/13.2.1/../../../../aarch64-none-elf/lib/libg.a(libc_a-localeconv.o)
 .debug_abbrev  0x000000000002187c       0x28 /tools/arm-gnu-toolchain-13.2.Rel1-x86_64-aarch64-none-elf/bin/../lib/gcc/aarch64-none-elf/13.2.1/../../../../aarch64-none-elf/lib/libg.a(libc_a-memchr.o)
 .debug_abbrev  0x00000000000218a4       0x28 /tools/arm-gnu-toolchain-13.2.Rel1-x86_64-aarch64-none-elf/bin/../lib/gcc/aarch64-none-elf/13.2.1/../../../../aarch64-none-elf/lib/libg.a(libc_a-memcmp.o)
 .debug_abbrev  0x00000000000218cc      0x245 /tools/arm-gnu-toolchain-13.2.Rel1-x86_64-aarch64-none-elf/bin/../lib/gcc/aarch64-none-elf/13.2.1/../../../../aarch64-none-elf/lib/libg.a(libc_a-printf.o)
 .debug_abbrev  0x0000000000021b11       0x28 /tools/arm-gnu-toolchain-13.2.Rel1-x86_64-aarch64-none-elf/bin/../lib/gcc/aarch64-none-elf/13.2.1/../../../../aarch64-none-elf/lib/libg.a(libc_a-memcpy.o)
 .debug_abbrev  0x0000000000021b39      0x20c /tools/arm-gnu-toolchain-13.2.Rel1-x86_64-aarch64-none-elf/bin/../lib/gcc/aarch64-none-elf/13.2.1/../../../../aarch64-none-elf/lib/libg.a(libc_a-putchar.o)
 .debug_abbrev  0x0000000000021d45      0x27d /tools/arm-gnu-toolchain-13.2.Rel1-x86_64-aarch64-none-elf/bin/../lib/gcc/aarch64-none-elf/13.2.1/../../../../aarch64-none-elf/lib/libg.a(libc_a-puts.o)
 .debug_abbrev  0x0000000000021fc2      0x1fb /tools/arm-gnu-toolchain-13.2.Rel1-x86_64-aarch64-none-elf/bin/../lib/gcc/aarch64-none-elf/13.2.1/../../../../aarch64-none-elf/lib/libg.a(libc_a-mlock.o)
 .debug_abbrev  0x00000000000221bd      0x503 /tools/arm-gnu-toolchain-13.2.Rel1-x86_64-aarch64-none-elf/bin/../lib/gcc/aarch64-none-elf/13.2.1/../../../../aarch64-none-elf/lib/libg.a(libc_a-mprec.o)
 .debug_abbrev  0x00000000000226c0      0x1eb /tools/arm-gnu-toolchain-13.2.Rel1-x86_64-aarch64-none-elf/bin/../lib/gcc/aarch64-none-elf/13.2.1/../../../../aarch64-none-elf/lib/libg.a(libc_a-atoi.o)
 .debug_abbrev  0x00000000000228ab      0x1e9 /tools/arm-gnu-toolchain-13.2.Rel1-x86_64-aarch64-none-elf/bin/../lib/gcc/aarch64-none-elf/13.2.1/../../../../aarch64-none-elf/lib/libg.a(libc_a-rand.o)
 .debug_abbrev  0x0000000000022a94      0x25b /tools/arm-gnu-toolchain-13.2.Rel1-x86_64-aarch64-none-elf/bin/../lib/gcc/aarch64-none-elf/13.2.1/../../../../aarch64-none-elf/lib/libg.a(libc_a-callocr.o)
 .debug_abbrev  0x0000000000022cef      0x1ff /tools/arm-gnu-toolchain-13.2.Rel1-x86_64-aarch64-none-elf/bin/../lib/gcc/aarch64-none-elf/13.2.1/../../../../aarch64-none-elf/lib/libg.a(libc_a-wcsrtombs.o)
 .debug_abbrev  0x0000000000022eee      0x342 /tools/arm-gnu-toolchain-13.2.Rel1-x86_64-aarch64-none-elf/bin/../lib/gcc/aarch64-none-elf/13.2.1/../../../../aarch64-none-elf/lib/libg.a(libc_a-dtoa.o)
 .debug_abbrev  0x0000000000023230      0x22e /tools/arm-gnu-toolchain-13.2.Rel1-x86_64-aarch64-none-elf/bin/../lib/gcc/aarch64-none-elf/13.2.1/../../../../aarch64-none-elf/lib/libg.a(libc_a-strerror.o)
 .debug_abbrev  0x000000000002345e      0x20c /tools/arm-gnu-toolchain-13.2.Rel1-x86_64-aarch64-none-elf/bin/../lib/gcc/aarch64-none-elf/13.2.1/../../../../aarch64-none-elf/lib/libg.a(libc_a-ctype_.o)
 .debug_abbrev  0x000000000002366a      0x230 /tools/arm-gnu-toolchain-13.2.Rel1-x86_64-aarch64-none-elf/bin/../lib/gcc/aarch64-none-elf/13.2.1/../../../../aarch64-none-elf/lib/libg.a(libc_a-reent.o)
 .debug_abbrev  0x000000000002389a      0x185 /tools/arm-gnu-toolchain-13.2.Rel1-x86_64-aarch64-none-elf/bin/../lib/gcc/aarch64-none-elf/13.2.1/../../../../aarch64-none-elf/lib/libg.a(libc_a-impure.o)
 .debug_abbrev  0x0000000000023a1f      0x484 /tools/arm-gnu-toolchain-13.2.Rel1-x86_64-aarch64-none-elf/bin/../lib/gcc/aarch64-none-elf/13.2.1/../../../../aarch64-none-elf/lib/libg.a(libc_a-findfp.o)
 .debug_abbrev  0x0000000000023ea3       0x28 /tools/arm-gnu-toolchain-13.2.Rel1-x86_64-aarch64-none-elf/bin/../lib/gcc/aarch64-none-elf/13.2.1/../../../../aarch64-none-elf/lib/libg.a(libc_a-memset.o)
 .debug_abbrev  0x0000000000023ecb       0x7a /tools/arm-gnu-toolchain-13.2.Rel1-x86_64-aarch64-none-elf/bin/../lib/gcc/aarch64-none-elf/13.2.1/../../../../aarch64-none-elf/lib/libg.a(libm_a-s_nan.o)
 .debug_abbrev  0x0000000000023f45       0x7a /tools/arm-gnu-toolchain-13.2.Rel1-x86_64-aarch64-none-elf/bin/../lib/gcc/aarch64-none-elf/13.2.1/../../../../aarch64-none-elf/lib/libg.a(libm_a-sf_nan.o)
 .debug_abbrev  0x0000000000023fbf      0x150 /tools/arm-gnu-toolchain-13.2.Rel1-x86_64-aarch64-none-elf/bin/../lib/gcc/aarch64-none-elf/13.2.1/../../../../aarch64-none-elf/lib/libg.a(libm_a-s_frexp.o)
 .debug_abbrev  0x000000000002410f       0xa3 /tools/arm-gnu-toolchain-13.2.Rel1-x86_64-aarch64-none-elf/bin/../lib/gcc/aarch64-none-elf/13.2.1/../../../../aarch64-none-elf/lib/libg.a(libc_a-strlcpy.o)
 .debug_abbrev  0x00000000000241b2      0x290 /tools/arm-gnu-toolchain-13.2.Rel1-x86_64-aarch64-none-elf/bin/../lib/gcc/aarch64-none-elf/13.2.1/../../../../aarch64-none-elf/lib/libg.a(libc_a-freer.o)
 .debug_abbrev  0x0000000000024442       0xd0 /tools/arm-gnu-toolchain-13.2.Rel1-x86_64-aarch64-none-elf/bin/../lib/gcc/aarch64-none-elf/13.2.1/../../../../aarch64-none-elf/lib/libg.a(libc_a-strncasecmp.o)
 .debug_abbrev  0x0000000000024512      0x212 /tools/arm-gnu-toolchain-13.2.Rel1-x86_64-aarch64-none-elf/bin/../lib/gcc/aarch64-none-elf/13.2.1/../../../../aarch64-none-elf/lib/libg.a(libc_a-getenv.o)
 .debug_abbrev  0x0000000000024724      0x233 /tools/arm-gnu-toolchain-13.2.Rel1-x86_64-aarch64-none-elf/bin/../lib/gcc/aarch64-none-elf/13.2.1/../../../../aarch64-none-elf/lib/libg.a(libc_a-getenv_r.o)
 .debug_abbrev  0x0000000000024957      0x252 /tools/arm-gnu-toolchain-13.2.Rel1-x86_64-aarch64-none-elf/bin/../lib/gcc/aarch64-none-elf/13.2.1/../../../../aarch64-none-elf/lib/libg.a(libc_a-fputc.o)
 .debug_abbrev  0x0000000000024ba9      0x266 /tools/arm-gnu-toolchain-13.2.Rel1-x86_64-aarch64-none-elf/bin/../lib/gcc/aarch64-none-elf/13.2.1/../../../../aarch64-none-elf/lib/libg.a(libc_a-fputs.o)
 .debug_abbrev  0x0000000000024e0f      0x23f /tools/arm-gnu-toolchain-13.2.Rel1-x86_64-aarch64-none-elf/bin/../lib/gcc/aarch64-none-elf/13.2.1/../../../../aarch64-none-elf/lib/libg.a(libc_a-fiprintf.o)
 .debug_abbrev  0x000000000002504e       0x28 /tools/arm-gnu-toolchain-13.2.Rel1-x86_64-aarch64-none-elf/bin/../lib/gcc/aarch64-none-elf/13.2.1/../../../../aarch64-none-elf/lib/libg.a(libc_a-strcpy.o)
 .debug_abbrev  0x0000000000025076      0x24e /tools/arm-gnu-toolchain-13.2.Rel1-x86_64-aarch64-none-elf/bin/../lib/gcc/aarch64-none-elf/13.2.1/../../../../aarch64-none-elf/lib/libg.a(libc_a-stdio.o)
 .debug_abbrev  0x00000000000252c4      0x287 /tools/arm-gnu-toolchain-13.2.Rel1-x86_64-aarch64-none-elf/bin/../lib/gcc/aarch64-none-elf/13.2.1/../../../../aarch64-none-elf/lib/libg.a(libc_a-wctomb_r.o)
 .debug_abbrev  0x000000000002554b      0x216 /tools/arm-gnu-toolchain-13.2.Rel1-x86_64-aarch64-none-elf/bin/../lib/gcc/aarch64-none-elf/13.2.1/../../../../aarch64-none-elf/lib/libg.a(libc_a-sbrkr.o)
 .debug_abbrev  0x0000000000025761      0x254 /tools/arm-gnu-toolchain-13.2.Rel1-x86_64-aarch64-none-elf/bin/../lib/gcc/aarch64-none-elf/13.2.1/../../../../aarch64-none-elf/lib/libg.a(libc_a-fvwrite.o)
 .debug_abbrev  0x00000000000259b5      0x1d9 /tools/arm-gnu-toolchain-13.2.Rel1-x86_64-aarch64-none-elf/bin/../lib/gcc/aarch64-none-elf/13.2.1/../../../../aarch64-none-elf/lib/libg.a(libc_a-fwalk.o)
 .debug_abbrev  0x0000000000025b8e      0x1f1 /tools/arm-gnu-toolchain-13.2.Rel1-x86_64-aarch64-none-elf/bin/../lib/gcc/aarch64-none-elf/13.2.1/../../../../aarch64-none-elf/lib/libg.a(libc_a-writer.o)
 .debug_abbrev  0x0000000000025d7f      0x365 /tools/arm-gnu-toolchain-13.2.Rel1-x86_64-aarch64-none-elf/bin/../lib/gcc/aarch64-none-elf/13.2.1/../../../../aarch64-none-elf/lib/libg.a(libc_a-svfiprintf.o)
 .debug_abbrev  0x00000000000260e4      0x4d4 /tools/arm-gnu-toolchain-13.2.Rel1-x86_64-aarch64-none-elf/bin/../lib/gcc/aarch64-none-elf/13.2.1/../../../../aarch64-none-elf/lib/libg.a(libc_a-vfprintf.o)
 .debug_abbrev  0x00000000000265b8      0x4b3 /tools/arm-gnu-toolchain-13.2.Rel1-x86_64-aarch64-none-elf/bin/../lib/gcc/aarch64-none-elf/13.2.1/../../../../aarch64-none-elf/lib/libg.a(libc_a-vfiprintf.o)
 .debug_abbrev  0x0000000000026a6b       0x77 /tools/arm-gnu-toolchain-13.2.Rel1-x86_64-aarch64-none-elf/bin/../lib/gcc/aarch64-none-elf/13.2.1/../../../../aarch64-none-elf/lib/libg.a(libc_a-u_strerr.o)
 .debug_abbrev  0x0000000000026ae2       0x99 /tools/arm-gnu-toolchain-13.2.Rel1-x86_64-aarch64-none-elf/bin/../lib/gcc/aarch64-none-elf/13.2.1/../../../../aarch64-none-elf/lib/libg.a(libc_a-abort.o)
 .debug_abbrev  0x0000000000026b7b      0x34d /tools/arm-gnu-toolchain-13.2.Rel1-x86_64-aarch64-none-elf/bin/../lib/gcc/aarch64-none-elf/13.2.1/../../../../aarch64-none-elf/lib/libg.a(libc_a-mbtowc_r.o)
 .debug_abbrev  0x0000000000026ec8       0xce /tools/arm-gnu-toolchain-13.2.Rel1-x86_64-aarch64-none-elf/bin/../lib/gcc/aarch64-none-elf/13.2.1/../../../../aarch64-none-elf/lib/libg.a(libc_a-strcat.o)
 .debug_abbrev  0x0000000000026f96      0x115 /tools/arm-gnu-toolchain-13.2.Rel1-x86_64-aarch64-none-elf/bin/../lib/gcc/aarch64-none-elf/13.2.1/../../../../aarch64-none-elf/lib/libg.a(libc_a-lock.o)
 .debug_abbrev  0x00000000000270ab      0x2a2 /tools/arm-gnu-toolchain-13.2.Rel1-x86_64-aarch64-none-elf/bin/../lib/gcc/aarch64-none-elf/13.2.1/../../../../aarch64-none-elf/lib/libg.a(libc_a-fclose.o)
 .debug_abbrev  0x000000000002734d      0x21e /tools/arm-gnu-toolchain-13.2.Rel1-x86_64-aarch64-none-elf/bin/../lib/gcc/aarch64-none-elf/13.2.1/../../../../aarch64-none-elf/lib/libg.a(libc_a-wsetup.o)
 .debug_abbrev  0x000000000002756b      0x2c1 /tools/arm-gnu-toolchain-13.2.Rel1-x86_64-aarch64-none-elf/bin/../lib/gcc/aarch64-none-elf/13.2.1/../../../../aarch64-none-elf/lib/libg.a(libc_a-makebuf.o)
 .debug_abbrev  0x000000000002782c      0x28b /tools/arm-gnu-toolchain-13.2.Rel1-x86_64-aarch64-none-elf/bin/../lib/gcc/aarch64-none-elf/13.2.1/../../../../aarch64-none-elf/lib/libg.a(libc_a-putc.o)
 .debug_abbrev  0x0000000000027ab7      0x2a1 /tools/arm-gnu-toolchain-13.2.Rel1-x86_64-aarch64-none-elf/bin/../lib/gcc/aarch64-none-elf/13.2.1/../../../../aarch64-none-elf/lib/libg.a(libc_a-wcsnrtombs.o)
 .debug_abbrev  0x0000000000027d58      0x1ec /tools/arm-gnu-toolchain-13.2.Rel1-x86_64-aarch64-none-elf/bin/../lib/gcc/aarch64-none-elf/13.2.1/../../../../aarch64-none-elf/lib/libg.a(libc_a-closer.o)
 .debug_abbrev  0x0000000000027f44      0x317 /tools/arm-gnu-toolchain-13.2.Rel1-x86_64-aarch64-none-elf/bin/../lib/gcc/aarch64-none-elf/13.2.1/../../../../aarch64-none-elf/lib/libg.a(libc_a-fflush.o)
 .debug_abbrev  0x000000000002825b       0x5b /tools/arm-gnu-toolchain-13.2.Rel1-x86_64-aarch64-none-elf/bin/../lib/gcc/aarch64-none-elf/13.2.1/../../../../aarch64-none-elf/lib/libg.a(libc_a-environ.o)
 .debug_abbrev  0x00000000000282b6      0x2a3 /tools/arm-gnu-toolchain-13.2.Rel1-x86_64-aarch64-none-elf/bin/../lib/gcc/aarch64-none-elf/13.2.1/../../../../aarch64-none-elf/lib/libg.a(libc_a-reallocr.o)
 .debug_abbrev  0x0000000000028559      0x1fb /tools/arm-gnu-toolchain-13.2.Rel1-x86_64-aarch64-none-elf/bin/../lib/gcc/aarch64-none-elf/13.2.1/../../../../aarch64-none-elf/lib/libg.a(libc_a-envlock.o)
 .debug_abbrev  0x0000000000028754      0x1ff /tools/arm-gnu-toolchain-13.2.Rel1-x86_64-aarch64-none-elf/bin/../lib/gcc/aarch64-none-elf/13.2.1/../../../../aarch64-none-elf/lib/libg.a(libc_a-fstatr.o)
 .debug_abbrev  0x0000000000028953      0x30c /tools/arm-gnu-toolchain-13.2.Rel1-x86_64-aarch64-none-elf/bin/../lib/gcc/aarch64-none-elf/13.2.1/../../../../aarch64-none-elf/lib/libg.a(libc_a-signal.o)
 .debug_abbrev  0x0000000000028c5f      0x1ec /tools/arm-gnu-toolchain-13.2.Rel1-x86_64-aarch64-none-elf/bin/../lib/gcc/aarch64-none-elf/13.2.1/../../../../aarch64-none-elf/lib/libg.a(libc_a-isattyr.o)
 .debug_abbrev  0x0000000000028e4b      0x200 /tools/arm-gnu-toolchain-13.2.Rel1-x86_64-aarch64-none-elf/bin/../lib/gcc/aarch64-none-elf/13.2.1/../../../../aarch64-none-elf/lib/libg.a(libc_a-lseekr.o)
 .debug_abbrev  0x000000000002904b      0x1ec /tools/arm-gnu-toolchain-13.2.Rel1-x86_64-aarch64-none-elf/bin/../lib/gcc/aarch64-none-elf/13.2.1/../../../../aarch64-none-elf/lib/libg.a(libc_a-readr.o)
 .debug_abbrev  0x0000000000029237      0x337 /tools/arm-gnu-toolchain-13.2.Rel1-x86_64-aarch64-none-elf/bin/../lib/gcc/aarch64-none-elf/13.2.1/../../../../aarch64-none-elf/lib/libg.a(libc_a-fputwc.o)
 .debug_abbrev  0x000000000002956e      0x239 /tools/arm-gnu-toolchain-13.2.Rel1-x86_64-aarch64-none-elf/bin/../lib/gcc/aarch64-none-elf/13.2.1/../../../../aarch64-none-elf/lib/libg.a(libc_a-signalr.o)
 .debug_abbrev  0x00000000000297a7      0x272 /tools/arm-gnu-toolchain-13.2.Rel1-x86_64-aarch64-none-elf/bin/../lib/gcc/aarch64-none-elf/13.2.1/../../../../aarch64-none-elf/lib/libg.a(libc_a-wbuf.o)
 .debug_abbrev  0x0000000000029a19      0x183 /tools/arm-gnu-toolchain-13.2.Rel1-x86_64-aarch64-none-elf/bin/../lib/gcc/aarch64-none-elf/13.2.1/libgcc.a(trunctfdf2.o)
 .debug_abbrev  0x0000000000029b9c       0x82 /tools/arm-gnu-toolchain-13.2.Rel1-x86_64-aarch64-none-elf/bin/../lib/gcc/aarch64-none-elf/13.2.1/libgcc.a(sfp-exceptions.o)

.debug_loclists
                0x0000000000000000    0x75eae
 .debug_loclists
                0x0000000000000000      0x12a CMakeFiles/freertos_kernel.elf.dir/main.c.o
 .debug_loclists
                0x000000000000012a       0x9f gloss/CMakeFiles/freedom_metal.dir/freedom_metal.c.o
 .debug_loclists
                0x00000000000001c9       0x30 gloss/CMakeFiles/freedom_metal.dir/nanosleep.c.o
 .debug_loclists
                0x00000000000001f9       0x30 gloss/CMakeFiles/freedom_metal.dir/sys_access.c.o
 .debug_loclists
                0x0000000000000229       0x1e gloss/CMakeFiles/freedom_metal.dir/sys_chdir.c.o
 .debug_loclists
                0x0000000000000247       0x30 gloss/CMakeFiles/freedom_metal.dir/sys_chmod.c.o
 .debug_loclists
                0x0000000000000277       0x42 gloss/CMakeFiles/freedom_metal.dir/sys_chown.c.o
 .debug_loclists
                0x00000000000002b9       0x32 gloss/CMakeFiles/freedom_metal.dir/sys_clock_gettime.c.o
 .debug_loclists
                0x00000000000002eb       0x1e gloss/CMakeFiles/freedom_metal.dir/sys_close.c.o
 .debug_loclists
                0x0000000000000309       0x42 gloss/CMakeFiles/freedom_metal.dir/sys_execve.c.o
 .debug_loclists
                0x000000000000034b       0x1e gloss/CMakeFiles/freedom_metal.dir/sys_exit.c.o
 .debug_loclists
                0x0000000000000369       0x54 gloss/CMakeFiles/freedom_metal.dir/sys_faccessat.c.o
 .debug_loclists
                0x00000000000003bd       0x30 gloss/CMakeFiles/freedom_metal.dir/sys_fstat.c.o
 .debug_loclists
                0x00000000000003ed       0x54 gloss/CMakeFiles/freedom_metal.dir/sys_fstatat.c.o
 .debug_loclists
                0x0000000000000441       0x1e gloss/CMakeFiles/freedom_metal.dir/sys_ftime.c.o
 .debug_loclists
                0x000000000000045f       0x30 gloss/CMakeFiles/freedom_metal.dir/sys_getcwd.c.o
 .debug_loclists
                0x000000000000048f       0x1b gloss/CMakeFiles/freedom_metal.dir/sys_getpid.c.o
 .debug_loclists
                0x00000000000004aa       0x57 gloss/CMakeFiles/freedom_metal.dir/sys_gettimeofday.c.o
 .debug_loclists
                0x0000000000000501       0x1e gloss/CMakeFiles/freedom_metal.dir/sys_isatty.c.o
 .debug_loclists
                0x000000000000051f       0x30 gloss/CMakeFiles/freedom_metal.dir/sys_kill.c.o
 .debug_loclists
                0x000000000000054f       0x30 gloss/CMakeFiles/freedom_metal.dir/sys_link.c.o
 .debug_loclists
                0x000000000000057f       0x42 gloss/CMakeFiles/freedom_metal.dir/sys_lseek.c.o
 .debug_loclists
                0x00000000000005c1       0x30 gloss/CMakeFiles/freedom_metal.dir/sys_lstat.c.o
 .debug_loclists
                0x00000000000005f1       0x42 gloss/CMakeFiles/freedom_metal.dir/sys_open.c.o
 .debug_loclists
                0x0000000000000633       0x54 gloss/CMakeFiles/freedom_metal.dir/sys_openat.c.o
 .debug_loclists
                0x0000000000000687       0x42 gloss/CMakeFiles/freedom_metal.dir/sys_read.c.o
 .debug_loclists
                0x00000000000006c9       0x6a gloss/CMakeFiles/freedom_metal.dir/sys_sbrk.c.o
 .debug_loclists
                0x0000000000000733       0x1e gloss/CMakeFiles/freedom_metal.dir/sys_sysconf.c.o
 .debug_loclists
                0x0000000000000751       0x56 gloss/CMakeFiles/freedom_metal.dir/sys_times.c.o
 .debug_loclists
                0x00000000000007a7       0x1e gloss/CMakeFiles/freedom_metal.dir/sys_unlink.c.o
 .debug_loclists
                0x00000000000007c5       0x30 gloss/CMakeFiles/freedom_metal.dir/sys_utime.c.o
 .debug_loclists
                0x00000000000007f5       0x1e gloss/CMakeFiles/freedom_metal.dir/sys_wait.c.o
 .debug_loclists
                0x0000000000000813       0xbc gloss/CMakeFiles/freedom_metal.dir/sys_write.c.o
 .debug_loclists
                0x00000000000008cf      0x94e build/drivers/mailbox/CMakeFiles/mailbox.dir/mailbox.c.o
 .debug_loclists
                0x000000000000121d      0x185 build/drivers/mailbox/CMakeFiles/mailbox.dir/mailbox_cb.c.o
 .debug_loclists
                0x00000000000013a2      0x1d2 build/drivers/pmu/CMakeFiles/pmu.dir/pmu.c.o
 .debug_loclists
                0x0000000000001574      0x329 build/drivers/uart/CMakeFiles/uart.dir/uart.c.o
 .debug_loclists
                0x000000000000189d     0x18ae build/drivers/dma/CMakeFiles/dma.dir/pl330.c.o
 .debug_loclists
                0x000000000000314b      0x8d2 build/drivers/gpio/CMakeFiles/gpio.dir/gpio.c.o
 .debug_loclists
                0x0000000000003a1d      0xf33 build/drivers/smmu/CMakeFiles/smmu.dir/smmu.c.o
 .debug_loclists
                0x0000000000004950      0x639 build/drivers/smmu/CMakeFiles/smmu.dir/smmu_pmu.c.o
 .debug_loclists
                0x0000000000004f89     0x310e build/drivers/pvt_con/CMakeFiles/pvt_con.dir/pvt_con.c.o
 .debug_loclists
                0x0000000000008097      0x581 build/drivers/cmu/CMakeFiles/cmu.dir/cmu.c.o
 .debug_loclists
                0x0000000000008618      0x1a0 build/drivers/watchdog/CMakeFiles/watchdog.dir/dw_apb_wdt.c.o
 .debug_loclists
                0x00000000000087b8     0x3041 build/drivers/rbc/CMakeFiles/rbc.dir/aw_ucie.c.o
 .debug_loclists
                0x000000000000b7f9      0x4a8 build/drivers/rbc/CMakeFiles/rbc.dir/rbc_driver.c.o
 .debug_loclists
                0x000000000000bca1      0x3dc build/drivers/rbc/CMakeFiles/rbc.dir/rbc_cmd.c.o
 .debug_loclists
                0x000000000000c07d     0x1bb5 build/drivers/rbcm/CMakeFiles/rbcm.dir/rbcm_core.c.o
 .debug_loclists
                0x000000000000dc32     0x1167 build/drivers/rbcm/CMakeFiles/rbcm.dir/rbcm_driver.c.o
 .debug_loclists
                0x000000000000ed99      0xf5c build/drivers/i2c/CMakeFiles/i2c.dir/i2c.c.o
 .debug_loclists
                0x000000000000fcf5      0x15a build/drivers/noc_logger/CMakeFiles/noc_logger.dir/noc_logger.c.o
 .debug_loclists
                0x000000000000fe4f      0x85a build/drivers/hbm3/CMakeFiles/hbm3.dir/hbm3.c.o
 .debug_loclists
                0x00000000000106a9       0x62 build/drivers/hbm3/CMakeFiles/hbm3.dir/tmrs.c.o
 .debug_loclists
                0x000000000001070b     0x1784 build/drivers/hbm3/CMakeFiles/hbm3.dir/icon.c.o
 .debug_loclists
                0x0000000000011e8f      0x89b build/drivers/hbm3/CMakeFiles/hbm3.dir/hbm3_irq.c.o
 .debug_loclists
                0x000000000001272a      0x31f build/drivers/hbm3/CMakeFiles/hbm3.dir/hbm3_am.c.o
 .debug_loclists
                0x0000000000012a49      0x311 build/drivers/pmic/CMakeFiles/pmic.dir/ltc1427cs8.c.o
 .debug_loclists
                0x0000000000012d5a       0xf9 build/drivers/pmic/CMakeFiles/pmic.dir/tca9548a.c.o
 .debug_loclists
                0x0000000000012e53      0x436 build/drivers/pmic/CMakeFiles/pmic.dir/mp5998.c.o
 .debug_loclists
                0x0000000000013289      0x3e7 build/drivers/pmic/CMakeFiles/pmic.dir/mpq8785.c.o
 .debug_loclists
                0x0000000000013670      0x5fd build/drivers/pmic/CMakeFiles/pmic.dir/mp29816a.c.o
 .debug_loclists
                0x0000000000013c6d      0x338 build/drivers/pmic/CMakeFiles/pmic.dir/g1505.c.o
 .debug_loclists
                0x0000000000013fa5      0x8ac build/drivers/pmic/CMakeFiles/pmic.dir/pmic_mgr.c.o
 .debug_loclists
                0x0000000000014851      0x248 build/drivers/dvfs/CMakeFiles/dvfs.dir/dvfs.c.o
 .debug_loclists
                0x0000000000014a99      0x195 build/drivers/sic/CMakeFiles/sic.dir/sic.c.o
 .debug_loclists
                0x0000000000014c2e      0x438 build/drivers/timer/dw_apb_timer/CMakeFiles/dw_apb_timer.dir/dw_apb_timer.c.o
 .debug_loclists
                0x0000000000015066      0x433 build/drivers/qspi/qspi_apb/CMakeFiles/qspi_apb.dir/qspi_apb.c.o
 .debug_loclists
                0x0000000000015499       0xfb build/drivers/flash/CMakeFiles/flash.dir/mt25q_flash.c.o
 .debug_loclists
                0x0000000000015594       0xd5 build/tests/common/CMakeFiles/test_common.dir/test_mailbox_cb.c.o
 .debug_loclists
                0x0000000000015669       0x4e build/tests/interrupt_test_helper_example/CMakeFiles/interrupt_test_helper_example.dir/example_test.c.o
 .debug_loclists
                0x00000000000156b7       0x1e build/tests/interrupt_test_helper_example/CMakeFiles/interrupt_test_helper_example.dir/example_driver.c.o
 .debug_loclists
                0x00000000000156d5       0x40 build/tests/arch/CMakeFiles/test_arch.dir/test_cli.c.o
 .debug_loclists
                0x0000000000015715       0x9e build/tests/gpio/CMakeFiles/test_gpio.dir/test_gpio.c.o
 .debug_loclists
                0x00000000000157b3       0x97 build/tests/dma/CMakeFiles/test_dma.dir/test_dma_main.c.o
 .debug_loclists
                0x000000000001584a      0x2eb build/tests/mailbox/CMakeFiles/mailbox_test.dir/test_mailbox_main.c.o
 .debug_loclists
                0x0000000000015b35      0x4b7 build/tests/pvt_con/CMakeFiles/test_pvt_con.dir/test_pvt_con.c.o
 .debug_loclists
                0x0000000000015fec      0x600 build/tests/arch/arm64/CMakeFiles/test_arm64.dir/test_ca73.c.o
 .debug_loclists
                0x00000000000165ec      0x137 build/tests/timer/dw_apb_timer/CMakeFiles/test_dw_apb_timer.dir/test_dw_apb_timer.c.o
 .debug_loclists
                0x0000000000016723     0x1205 build/tests/cmu/CMakeFiles/test_cmu.dir/test_cmu_main.c.o
 .debug_loclists
                0x0000000000017928       0xad build/tests/smmu/CMakeFiles/test_mmu.dir/test_mmu_main.c.o
 .debug_loclists
                0x00000000000179d5      0x266 build/tests/log/CMakeFiles/show_log.dir/rebel_h_log.c.o
 .debug_loclists
                0x0000000000017c3b      0x27d build/tests/rbc/CMakeFiles/test_rbc.dir/test/all_test.c.o
 .debug_loclists
                0x0000000000017eb8       0x62 build/tests/rbc/CMakeFiles/test_rbc.dir/test/test_aw_ucie_init.c.o
 .debug_loclists
                0x0000000000017f1a      0x621 build/tests/rbc/CMakeFiles/test_rbc.dir/test/test_aw_ucie_d2d_comp.c.o
 .debug_loclists
                0x000000000001853b       0x74 build/tests/rbc/CMakeFiles/test_rbc.dir/test/test_aw_ucie_d2d_err_and_link.c.o
 .debug_loclists
                0x00000000000185af       0x35 build/tests/rbc/CMakeFiles/test_rbc.dir/test/test_aw_ucie_retraining.c.o
 .debug_loclists
                0x00000000000185e4      0x129 build/tests/rbc/CMakeFiles/test_rbc.dir/test/test_aw_ucie_sideband.c.o
 .debug_loclists
                0x000000000001870d      0x512 build/tests/rbc/CMakeFiles/test_rbc.dir/test/test_aw_ucie_training.c.o
 .debug_loclists
                0x0000000000018c1f      0x607 build/tests/rbc/CMakeFiles/test_rbc.dir/test/test_aw_ucie_runtime_link_test.c.o
 .debug_loclists
                0x0000000000019226      0x60d build/tests/rbc/CMakeFiles/test_rbc.dir/test/test_aw_ucie_phy_compliance_test.c.o
 .debug_loclists
                0x0000000000019833      0x92a build/tests/rbc/CMakeFiles/test_rbc.dir/test/test_aw_ucie_exception.c.o
 .debug_loclists
                0x000000000001a15d      0x439 build/tests/rbc/CMakeFiles/test_rbc.dir/test/test_aw_ucie_eye_of_margin.c.o
 .debug_loclists
                0x000000000001a596       0xb0 build/tests/rbc/CMakeFiles/test_rbc.dir/test/test_aw_ucie_util.c.o
 .debug_loclists
                0x000000000001a646       0x23 build/tests/rbc/CMakeFiles/test_rbc.dir/test/test_fake_timer.c.o
 .debug_loclists
                0x000000000001a669      0x157 build/tests/rbc/CMakeFiles/test_rbc.dir/test/test_rbc_driver.c.o
 .debug_loclists
                0x000000000001a7c0       0x14 build/tests/rbc/CMakeFiles/test_rbc.dir/mocks/fake_timer.c.o
 .debug_loclists
                0x000000000001a7d4       0x1e build/tests/rbc/CMakeFiles/test_rbc.dir/mocks/fake_gic.c.o
 .debug_loclists
                0x000000000001a7f2     0x2215 build/tests/rbcm/CMakeFiles/test_rbcm.dir/rbcm_test.c.o
 .debug_loclists
                0x000000000001ca07      0x505 build/tests/rbcm/CMakeFiles/test_rbcm.dir/rbcm_reg_access_test.c.o
 .debug_loclists
                0x000000000001cf0c      0x61e build/tests/i2c/CMakeFiles/test_i2c.dir/test_i2c_main.c.o
 .debug_loclists
                0x000000000001d52a     0x1530 build/tests/hbm3/CMakeFiles/hbm3_test.dir/memtest.c.o
 .debug_loclists
                0x000000000001ea5a       0xa9 build/tests/hbm3/CMakeFiles/hbm3_test.dir/hbm3_irq_test.c.o
 .debug_loclists
                0x000000000001eb03      0x6c6 build/tests/system_test/CMakeFiles/system_test.dir/test_system.c.o
 .debug_loclists
                0x000000000001f1c9      0x120 build/tests/system_test/CMakeFiles/system_test.dir/dma_transaction.c.o
 .debug_loclists
                0x000000000001f2e9       0xdf build/tests/system_test/CMakeFiles/system_test.dir/test_dma_transaction.c.o
 .debug_loclists
                0x000000000001f3c8     0x1227 build/tests/system_test/CMakeFiles/system_test.dir/data_process.c.o
 .debug_loclists
                0x00000000000205ef      0x465 build/tests/system_test/CMakeFiles/system_test.dir/test_data_process.c.o
 .debug_loclists
                0x0000000000020a54      0x202 build/tests/dvfs/CMakeFiles/test_dvfs.dir/test_dvfs_main.c.o
 .debug_loclists
                0x0000000000020c56      0x5a9 build/tests/pmic/CMakeFiles/test_pmic.dir/test_pmic_main.c.o
 .debug_loclists
                0x00000000000211ff      0x1dd build/tests/pvt_con/CMakeFiles/pvt_cli.dir/pvt_cli.c.o
 .debug_loclists
                0x00000000000213dc      0x43f build/tests/pvt_con/CMakeFiles/pvt_cli.dir/pvt_cli_show.c.o
 .debug_loclists
                0x000000000002181b      0x179 build/tests/pvt_con/CMakeFiles/pvt_cli.dir/pvt_cli_enable.c.o
 .debug_loclists
                0x0000000000021994      0x17a build/tests/pvt_con/CMakeFiles/pvt_cli.dir/pvt_cli_disable.c.o
 .debug_loclists
                0x0000000000021b0e       0xb0 build/tests/pvt_con/CMakeFiles/pvt_cli.dir/pvt_cli_set.c.o
 .debug_loclists
                0x0000000000021bbe       0x81 build/tests/sic/CMakeFiles/test_sic.dir/test_sic.c.o
 .debug_loclists
                0x0000000000021c3f      0x296 build/tests/chipid/CMakeFiles/test_chipid.dir/read_chipid.c.o
 .debug_loclists
                0x0000000000021ed5       0xb3 build/tests/flash/CMakeFiles/test_flash.dir/test_flash.c.o
 .debug_loclists
                0x0000000000021f88       0x63 build/tests/qspi/CMakeFiles/test_qspiapb.dir/test_qspiapb.c.o
 .debug_loclists
                0x0000000000021feb      0x77b build/tests/rbdma/CMakeFiles/test_rbdma.dir/rbdma_tsync_test.c.o
 .debug_loclists
                0x0000000000022766      0x155 build/tests/rbdma/CMakeFiles/test_rbdma.dir/test_main_rbdma.c.o
 .debug_loclists
                0x00000000000228bb     0x1c38 libfreertos_kernel.a(queue.c.o)
 .debug_loclists
                0x00000000000244f3     0x495c libfreertos_kernel.a(tasks.c.o)
 .debug_loclists
                0x0000000000028e4f      0xf6f libfreertos_kernel.a(timers.c.o)
 .debug_loclists
                0x0000000000029dbe      0x47e libfreertos_kernel.a(heap_4.c.o)
 .debug_loclists
                0x000000000002a23c       0xc1 libfreertos_kernel.a(list.c.o)
 .debug_loclists
                0x000000000002a2fd      0x58c portable/libfreertos_kernel_port.a(port.c.o)
 .debug_loclists
                0x000000000002a889       0x70 build/drivers/common/libdriver.a(driver.c.o)
 .debug_loclists
                0x000000000002a8f9       0xc5 build/drivers/common/libassert.a(assert.c.o)
 .debug_loclists
                0x000000000002a9be      0x13e build/drivers/common/libinterrupt.a(interrupt.c.o)
 .debug_loclists
                0x000000000002aafc      0xe13 build/drivers/intc/libintc.a(gicv3.c.o)
 .debug_loclists
                0x000000000002b90f      0x19d build/drivers/intc/libintc.a(bakery_lock.c.o)
 .debug_loclists
                0x000000000002baac      0x109 services/cli_service/libcli_service.a(cli_task.c.o)
 .debug_loclists
                0x000000000002bbb5      0xa37 services/cli_service/libcli_service.a(sys_command_line.c.o)
 .debug_loclists
                0x000000000002c5ec       0x8c services/terminal_service/libterminal_service.a(console_uart.c.o)
 .debug_loclists
                0x000000000002c678      0x39f services/terminal_service/libterminal_service.a(console.c.o)
 .debug_loclists
                0x000000000002ca17      0x224 services/terminal_service/libterminal_service.a(terminal_task.c.o)
 .debug_loclists
                0x000000000002cc3b     0x8359 services/replay_service/libreplay_service.a(replay.c.o)
 .debug_loclists
                0x0000000000034f94     0x1880 services/replay_service/libreplay_service.a(sub_function.c.o)
 .debug_loclists
                0x0000000000036814      0x355 services/replay_service/libreplay_service.a(rush_cli.c.o)
 .debug_loclists
                0x0000000000036b69      0x17a services/replay_service/libreplay_service.a(rush_cli_msg_buf.c.o)
 .debug_loclists
                0x0000000000036ce3      0x5e9 services/replay_service/libreplay_service.a(tpg_cli.c.o)
 .debug_loclists
                0x00000000000372cc     0x198a services/replay_service/libreplay_service.a(rbdma_cli.c.o)
 .debug_loclists
                0x0000000000038c56      0x3fe services/replay_service/libreplay_service.a(mem_cli.c.o)
 .debug_loclists
                0x0000000000039054      0x30e services/replay_service/libreplay_service.a(cmgr_if.c.o)
 .debug_loclists
                0x0000000000039362     0x563d services/replay_service/libreplay_service.a(dnc_if.c.o)
 .debug_loclists
                0x000000000003e99f       0xb0 services/replay_service/libreplay_service.a(dnc_if_evt1.c.o)
 .debug_loclists
                0x000000000003ea4f      0xa8f services/replay_service/libreplay_service.a(rdsn_if.c.o)
 .debug_loclists
                0x000000000003f4de     0x1160 services/replay_service/libreplay_service.a(ptw.c.o)
 .debug_loclists
                0x000000000004063e     0x1799 services/replay_service/libreplay_service.a(rbdma_if.c.o)
 .debug_loclists
                0x0000000000041dd7      0xc39 services/replay_service/libreplay_service.a(shm_if.c.o)
 .debug_loclists
                0x0000000000042a10      0x28a services/replay_service/libreplay_service.a(tbu_wrapper.c.o)
 .debug_loclists
                0x0000000000042c9a      0x201 services/replay_service/libreplay_service.a(debug.c.o)
 .debug_loclists
                0x0000000000042e9b      0x6dc services/replay_service/libreplay_service.a(ici.c.o)
 .debug_loclists
                0x0000000000043577      0x410 services/replay_service/libreplay_service.a(page_table_gen.c.o)
 .debug_loclists
                0x0000000000043987      0x475 services/replay_service/libreplay_service.a(profile.c.o)
 .debug_loclists
                0x0000000000043dfc      0x4a4 services/replay_service/libreplay_service.a(rl_queue.c.o)
 .debug_loclists
                0x00000000000442a0      0x358 services/replay_service/libreplay_service.a(abort.c.o)
 .debug_loclists
                0x00000000000445f8       0x14 services/replay_service/libreplay_service.a(cpu_data.c.o)
 .debug_loclists
                0x000000000004460c       0x58 services/replay_service/libreplay_service.a(spinlock.c.o)
 .debug_loclists
                0x0000000000044664      0x196 services/replay_service/libreplay_service.a(core.c.o)
 .debug_loclists
                0x00000000000447fa      0x11f services/replay_service/libreplay_service.a(log.c.o)
 .debug_loclists
                0x0000000000044919      0x170 services/replay_service/libreplay_service.a(rand.c.o)
 .debug_loclists
                0x0000000000044a89      0x2a7 services/replay_service/libreplay_service.a(backtrace.c.o)
 .debug_loclists
                0x0000000000044d30      0x764 services/replay_service/libreplay_service.a(argparse.c.o)
 .debug_loclists
                0x0000000000045494      0x345 services/replay_service/libreplay_service.a(rush_cli_util.c.o)
 .debug_loclists
                0x00000000000457d9       0xb4 services/task_adder_service/libtask_adder_service.a(task_adder.c.o)
 .debug_loclists
                0x000000000004588d       0x3d portable/libfreertos_arch.a(prep_c.c.o)
 .debug_loclists
                0x00000000000458ca       0x80 libfreertos_kernel_config.a(FreeRTOS_tick_config.c.o)
 .debug_loclists
                0x000000000004594a       0x97 portable/libsmp.a(smp.c.o)
 .debug_loclists
                0x00000000000459e1     0x1a02 portable/libmmu.a(mmu.c.o)
 .debug_loclists
                0x00000000000473e3      0x253 build/interrupt_test_helper/libinterrupt_test_helper.a(interrupt_test_helper.c.o)
 .debug_loclists
                0x0000000000047636     0x3f99 build/unity/libunity.a(unity.c.o)
 .debug_loclists
                0x000000000004b5cf      0x481 build/unity/libunity.a(unity_fixture.c.o)
 .debug_loclists
                0x000000000004ba50       0xb9 build/drivers/psci/libpsci.a(psci.c.o)
 .debug_loclists
                0x000000000004bb09      0xd99 libfreertos_kernel.a(event_groups.c.o)
 .debug_loclists
                0x000000000004c8a2     0x189b libfreertos_kernel.a(stream_buffer.c.o)
 .debug_loclists
                0x000000000004e13d     0x2dea build/common/arch/libcommon.a(printf.c.o)
 .debug_loclists
                0x0000000000050f27      0x1f5 build/common/arch/libcommon.a(system_api.c.o)
 .debug_loclists
                0x000000000005111c      0x14f build/drivers/timer/generic_timer/libgeneric_timer.a(generic_timer.c.o)
 .debug_loclists
                0x000000000005126b     0x2062 /tools/arm-gnu-toolchain-13.2.Rel1-x86_64-aarch64-none-elf/bin/../lib/gcc/aarch64-none-elf/13.2.1/../../../../aarch64-none-elf/lib/libg.a(libc_a-strtod.o)
 .debug_loclists
                0x00000000000532cd      0x7a0 /tools/arm-gnu-toolchain-13.2.Rel1-x86_64-aarch64-none-elf/bin/../lib/gcc/aarch64-none-elf/13.2.1/../../../../aarch64-none-elf/lib/libg.a(libc_a-strtol.o)
 .debug_loclists
                0x0000000000053a6d     0x124c /tools/arm-gnu-toolchain-13.2.Rel1-x86_64-aarch64-none-elf/bin/../lib/gcc/aarch64-none-elf/13.2.1/../../../../aarch64-none-elf/lib/libg.a(libc_a-gdtoa-gethex.o)
 .debug_loclists
                0x0000000000054cb9      0x47b /tools/arm-gnu-toolchain-13.2.Rel1-x86_64-aarch64-none-elf/bin/../lib/gcc/aarch64-none-elf/13.2.1/../../../../aarch64-none-elf/lib/libg.a(libc_a-strtoul.o)
 .debug_loclists
                0x0000000000055134      0x556 /tools/arm-gnu-toolchain-13.2.Rel1-x86_64-aarch64-none-elf/bin/../lib/gcc/aarch64-none-elf/13.2.1/../../../../aarch64-none-elf/lib/libg.a(libc_a-gdtoa-hexnan.o)
 .debug_loclists
                0x000000000005568a      0x457 /tools/arm-gnu-toolchain-13.2.Rel1-x86_64-aarch64-none-elf/bin/../lib/gcc/aarch64-none-elf/13.2.1/../../../../aarch64-none-elf/lib/libg.a(libc_a-strtoll.o)
 .debug_loclists
                0x0000000000055ae1      0x131 /tools/arm-gnu-toolchain-13.2.Rel1-x86_64-aarch64-none-elf/bin/../lib/gcc/aarch64-none-elf/13.2.1/../../../../aarch64-none-elf/lib/libg.a(libc_a-strncpy.o)
 .debug_loclists
                0x0000000000055c12      0x47b /tools/arm-gnu-toolchain-13.2.Rel1-x86_64-aarch64-none-elf/bin/../lib/gcc/aarch64-none-elf/13.2.1/../../../../aarch64-none-elf/lib/libg.a(libc_a-strtoull.o)
 .debug_loclists
                0x000000000005608d       0xd5 /tools/arm-gnu-toolchain-13.2.Rel1-x86_64-aarch64-none-elf/bin/../lib/gcc/aarch64-none-elf/13.2.1/../../../../aarch64-none-elf/lib/libg.a(libc_a-sprintf.o)
 .debug_loclists
                0x0000000000056162       0x94 /tools/arm-gnu-toolchain-13.2.Rel1-x86_64-aarch64-none-elf/bin/../lib/gcc/aarch64-none-elf/13.2.1/../../../../aarch64-none-elf/lib/libg.a(libc_a-strspn.o)
 .debug_loclists
                0x00000000000561f6       0x42 /tools/arm-gnu-toolchain-13.2.Rel1-x86_64-aarch64-none-elf/bin/../lib/gcc/aarch64-none-elf/13.2.1/../../../../aarch64-none-elf/lib/libg.a(libc_a-strtok.o)
 .debug_loclists
                0x0000000000056238      0x163 /tools/arm-gnu-toolchain-13.2.Rel1-x86_64-aarch64-none-elf/bin/../lib/gcc/aarch64-none-elf/13.2.1/../../../../aarch64-none-elf/lib/libg.a(libc_a-strtok_r.o)
 .debug_loclists
                0x000000000005639b      0xd43 /tools/arm-gnu-toolchain-13.2.Rel1-x86_64-aarch64-none-elf/bin/../lib/gcc/aarch64-none-elf/13.2.1/../../../../aarch64-none-elf/lib/libg.a(libc_a-strstr.o)
 .debug_loclists
                0x00000000000570de     0x1049 /tools/arm-gnu-toolchain-13.2.Rel1-x86_64-aarch64-none-elf/bin/../lib/gcc/aarch64-none-elf/13.2.1/../../../../aarch64-none-elf/lib/libg.a(libc_a-getopt.o)
 .debug_loclists
                0x0000000000058127     0x509f /tools/arm-gnu-toolchain-13.2.Rel1-x86_64-aarch64-none-elf/bin/../lib/gcc/aarch64-none-elf/13.2.1/../../../../aarch64-none-elf/lib/libg.a(libc_a-svfprintf.o)
 .debug_loclists
                0x000000000005d1c6      0x331 /tools/arm-gnu-toolchain-13.2.Rel1-x86_64-aarch64-none-elf/bin/../lib/gcc/aarch64-none-elf/13.2.1/../../../../aarch64-none-elf/lib/libg.a(libc_a-vsnprintf.o)
 .debug_loclists
                0x000000000005d4f7       0x50 /tools/arm-gnu-toolchain-13.2.Rel1-x86_64-aarch64-none-elf/bin/../lib/gcc/aarch64-none-elf/13.2.1/../../../../aarch64-none-elf/lib/libg.a(libc_a-malloc.o)
 .debug_loclists
                0x000000000005d547      0xb3b /tools/arm-gnu-toolchain-13.2.Rel1-x86_64-aarch64-none-elf/bin/../lib/gcc/aarch64-none-elf/13.2.1/../../../../aarch64-none-elf/lib/libg.a(libc_a-mallocr.o)
 .debug_loclists
                0x000000000005e082      0x119 /tools/arm-gnu-toolchain-13.2.Rel1-x86_64-aarch64-none-elf/bin/../lib/gcc/aarch64-none-elf/13.2.1/../../../../aarch64-none-elf/lib/libg.a(libc_a-assert.o)
 .debug_loclists
                0x000000000005e19b      0x1f4 /tools/arm-gnu-toolchain-13.2.Rel1-x86_64-aarch64-none-elf/bin/../lib/gcc/aarch64-none-elf/13.2.1/../../../../aarch64-none-elf/lib/libg.a(libc_a-strcasecmp.o)
 .debug_loclists
                0x000000000005e38f      0x20d /tools/arm-gnu-toolchain-13.2.Rel1-x86_64-aarch64-none-elf/bin/../lib/gcc/aarch64-none-elf/13.2.1/../../../../aarch64-none-elf/lib/libg.a(libc_a-wcrtomb.o)
 .debug_loclists
                0x000000000005e59c      0xa61 /tools/arm-gnu-toolchain-13.2.Rel1-x86_64-aarch64-none-elf/bin/../lib/gcc/aarch64-none-elf/13.2.1/../../../../aarch64-none-elf/lib/libg.a(libc_a-locale.o)
 .debug_loclists
                0x000000000005effd       0x5d /tools/arm-gnu-toolchain-13.2.Rel1-x86_64-aarch64-none-elf/bin/../lib/gcc/aarch64-none-elf/13.2.1/../../../../aarch64-none-elf/lib/libg.a(libc_a-localeconv.o)
 .debug_loclists
                0x000000000005f05a       0x99 /tools/arm-gnu-toolchain-13.2.Rel1-x86_64-aarch64-none-elf/bin/../lib/gcc/aarch64-none-elf/13.2.1/../../../../aarch64-none-elf/lib/libg.a(libc_a-printf.o)
 .debug_loclists
                0x000000000005f0f3       0x73 /tools/arm-gnu-toolchain-13.2.Rel1-x86_64-aarch64-none-elf/bin/../lib/gcc/aarch64-none-elf/13.2.1/../../../../aarch64-none-elf/lib/libg.a(libc_a-putchar.o)
 .debug_loclists
                0x000000000005f166      0x12d /tools/arm-gnu-toolchain-13.2.Rel1-x86_64-aarch64-none-elf/bin/../lib/gcc/aarch64-none-elf/13.2.1/../../../../aarch64-none-elf/lib/libg.a(libc_a-puts.o)
 .debug_loclists
                0x000000000005f293       0x42 /tools/arm-gnu-toolchain-13.2.Rel1-x86_64-aarch64-none-elf/bin/../lib/gcc/aarch64-none-elf/13.2.1/../../../../aarch64-none-elf/lib/libg.a(libc_a-mlock.o)
 .debug_loclists
                0x000000000005f2d5     0x1d29 /tools/arm-gnu-toolchain-13.2.Rel1-x86_64-aarch64-none-elf/bin/../lib/gcc/aarch64-none-elf/13.2.1/../../../../aarch64-none-elf/lib/libg.a(libc_a-mprec.o)
 .debug_loclists
                0x0000000000060ffe       0x5d /tools/arm-gnu-toolchain-13.2.Rel1-x86_64-aarch64-none-elf/bin/../lib/gcc/aarch64-none-elf/13.2.1/../../../../aarch64-none-elf/lib/libg.a(libc_a-atoi.o)
 .debug_loclists
                0x000000000006105b       0x1b /tools/arm-gnu-toolchain-13.2.Rel1-x86_64-aarch64-none-elf/bin/../lib/gcc/aarch64-none-elf/13.2.1/../../../../aarch64-none-elf/lib/libg.a(libc_a-rand.o)
 .debug_loclists
                0x0000000000061076      0x1b3 /tools/arm-gnu-toolchain-13.2.Rel1-x86_64-aarch64-none-elf/bin/../lib/gcc/aarch64-none-elf/13.2.1/../../../../aarch64-none-elf/lib/libg.a(libc_a-callocr.o)
 .debug_loclists
                0x0000000000061229      0x130 /tools/arm-gnu-toolchain-13.2.Rel1-x86_64-aarch64-none-elf/bin/../lib/gcc/aarch64-none-elf/13.2.1/../../../../aarch64-none-elf/lib/libg.a(libc_a-wcsrtombs.o)
 .debug_loclists
                0x0000000000061359     0x24b6 /tools/arm-gnu-toolchain-13.2.Rel1-x86_64-aarch64-none-elf/bin/../lib/gcc/aarch64-none-elf/13.2.1/../../../../aarch64-none-elf/lib/libg.a(libc_a-dtoa.o)
 .debug_loclists
                0x000000000006380f      0xd1b /tools/arm-gnu-toolchain-13.2.Rel1-x86_64-aarch64-none-elf/bin/../lib/gcc/aarch64-none-elf/13.2.1/../../../../aarch64-none-elf/lib/libg.a(libc_a-strerror.o)
 .debug_loclists
                0x000000000006452a       0x49 /tools/arm-gnu-toolchain-13.2.Rel1-x86_64-aarch64-none-elf/bin/../lib/gcc/aarch64-none-elf/13.2.1/../../../../aarch64-none-elf/lib/libg.a(libc_a-ctype_.o)
 .debug_loclists
                0x0000000000064573       0xa5 /tools/arm-gnu-toolchain-13.2.Rel1-x86_64-aarch64-none-elf/bin/../lib/gcc/aarch64-none-elf/13.2.1/../../../../aarch64-none-elf/lib/libg.a(libc_a-reent.o)
 .debug_loclists
                0x0000000000064618      0x2c5 /tools/arm-gnu-toolchain-13.2.Rel1-x86_64-aarch64-none-elf/bin/../lib/gcc/aarch64-none-elf/13.2.1/../../../../aarch64-none-elf/lib/libg.a(libc_a-findfp.o)
 .debug_loclists
                0x00000000000648dd       0x27 /tools/arm-gnu-toolchain-13.2.Rel1-x86_64-aarch64-none-elf/bin/../lib/gcc/aarch64-none-elf/13.2.1/../../../../aarch64-none-elf/lib/libg.a(libm_a-s_nan.o)
 .debug_loclists
                0x0000000000064904       0x27 /tools/arm-gnu-toolchain-13.2.Rel1-x86_64-aarch64-none-elf/bin/../lib/gcc/aarch64-none-elf/13.2.1/../../../../aarch64-none-elf/lib/libg.a(libm_a-sf_nan.o)
 .debug_loclists
                0x000000000006492b       0xac /tools/arm-gnu-toolchain-13.2.Rel1-x86_64-aarch64-none-elf/bin/../lib/gcc/aarch64-none-elf/13.2.1/../../../../aarch64-none-elf/lib/libg.a(libm_a-s_frexp.o)
 .debug_loclists
                0x00000000000649d7       0xbf /tools/arm-gnu-toolchain-13.2.Rel1-x86_64-aarch64-none-elf/bin/../lib/gcc/aarch64-none-elf/13.2.1/../../../../aarch64-none-elf/lib/libg.a(libc_a-strlcpy.o)
 .debug_loclists
                0x0000000000064a96      0x47a /tools/arm-gnu-toolchain-13.2.Rel1-x86_64-aarch64-none-elf/bin/../lib/gcc/aarch64-none-elf/13.2.1/../../../../aarch64-none-elf/lib/libg.a(libc_a-freer.o)
 .debug_loclists
                0x0000000000064f10      0x208 /tools/arm-gnu-toolchain-13.2.Rel1-x86_64-aarch64-none-elf/bin/../lib/gcc/aarch64-none-elf/13.2.1/../../../../aarch64-none-elf/lib/libg.a(libc_a-strncasecmp.o)
 .debug_loclists
                0x0000000000065118       0x72 /tools/arm-gnu-toolchain-13.2.Rel1-x86_64-aarch64-none-elf/bin/../lib/gcc/aarch64-none-elf/13.2.1/../../../../aarch64-none-elf/lib/libg.a(libc_a-getenv.o)
 .debug_loclists
                0x000000000006518a      0x173 /tools/arm-gnu-toolchain-13.2.Rel1-x86_64-aarch64-none-elf/bin/../lib/gcc/aarch64-none-elf/13.2.1/../../../../aarch64-none-elf/lib/libg.a(libc_a-getenv_r.o)
 .debug_loclists
                0x00000000000652fd      0x201 /tools/arm-gnu-toolchain-13.2.Rel1-x86_64-aarch64-none-elf/bin/../lib/gcc/aarch64-none-elf/13.2.1/../../../../aarch64-none-elf/lib/libg.a(libc_a-fputc.o)
 .debug_loclists
                0x00000000000654fe      0x12f /tools/arm-gnu-toolchain-13.2.Rel1-x86_64-aarch64-none-elf/bin/../lib/gcc/aarch64-none-elf/13.2.1/../../../../aarch64-none-elf/lib/libg.a(libc_a-fputs.o)
 .debug_loclists
                0x000000000006562d       0xbf /tools/arm-gnu-toolchain-13.2.Rel1-x86_64-aarch64-none-elf/bin/../lib/gcc/aarch64-none-elf/13.2.1/../../../../aarch64-none-elf/lib/libg.a(libc_a-fiprintf.o)
 .debug_loclists
                0x00000000000656ec      0x303 /tools/arm-gnu-toolchain-13.2.Rel1-x86_64-aarch64-none-elf/bin/../lib/gcc/aarch64-none-elf/13.2.1/../../../../aarch64-none-elf/lib/libg.a(libc_a-stdio.o)
 .debug_loclists
                0x00000000000659ef      0x768 /tools/arm-gnu-toolchain-13.2.Rel1-x86_64-aarch64-none-elf/bin/../lib/gcc/aarch64-none-elf/13.2.1/../../../../aarch64-none-elf/lib/libg.a(libc_a-wctomb_r.o)
 .debug_loclists
                0x0000000000066157       0x69 /tools/arm-gnu-toolchain-13.2.Rel1-x86_64-aarch64-none-elf/bin/../lib/gcc/aarch64-none-elf/13.2.1/../../../../aarch64-none-elf/lib/libg.a(libc_a-sbrkr.o)
 .debug_loclists
                0x00000000000661c0      0x538 /tools/arm-gnu-toolchain-13.2.Rel1-x86_64-aarch64-none-elf/bin/../lib/gcc/aarch64-none-elf/13.2.1/../../../../aarch64-none-elf/lib/libg.a(libc_a-fvwrite.o)
 .debug_loclists
                0x00000000000666f8       0xc9 /tools/arm-gnu-toolchain-13.2.Rel1-x86_64-aarch64-none-elf/bin/../lib/gcc/aarch64-none-elf/13.2.1/../../../../aarch64-none-elf/lib/libg.a(libc_a-fwalk.o)
 .debug_loclists
                0x00000000000667c1       0xad /tools/arm-gnu-toolchain-13.2.Rel1-x86_64-aarch64-none-elf/bin/../lib/gcc/aarch64-none-elf/13.2.1/../../../../aarch64-none-elf/lib/libg.a(libc_a-writer.o)
 .debug_loclists
                0x000000000006686e     0x27ac /tools/arm-gnu-toolchain-13.2.Rel1-x86_64-aarch64-none-elf/bin/../lib/gcc/aarch64-none-elf/13.2.1/../../../../aarch64-none-elf/lib/libg.a(libc_a-svfiprintf.o)
 .debug_loclists
                0x000000000006901a     0x568a /tools/arm-gnu-toolchain-13.2.Rel1-x86_64-aarch64-none-elf/bin/../lib/gcc/aarch64-none-elf/13.2.1/../../../../aarch64-none-elf/lib/libg.a(libc_a-vfprintf.o)
 .debug_loclists
                0x000000000006e6a4     0x380a /tools/arm-gnu-toolchain-13.2.Rel1-x86_64-aarch64-none-elf/bin/../lib/gcc/aarch64-none-elf/13.2.1/../../../../aarch64-none-elf/lib/libg.a(libc_a-vfiprintf.o)
 .debug_loclists
                0x0000000000071eae       0x27 /tools/arm-gnu-toolchain-13.2.Rel1-x86_64-aarch64-none-elf/bin/../lib/gcc/aarch64-none-elf/13.2.1/../../../../aarch64-none-elf/lib/libg.a(libc_a-u_strerr.o)
 .debug_loclists
                0x0000000000071ed5      0xb24 /tools/arm-gnu-toolchain-13.2.Rel1-x86_64-aarch64-none-elf/bin/../lib/gcc/aarch64-none-elf/13.2.1/../../../../aarch64-none-elf/lib/libg.a(libc_a-mbtowc_r.o)
 .debug_loclists
                0x00000000000729f9       0x96 /tools/arm-gnu-toolchain-13.2.Rel1-x86_64-aarch64-none-elf/bin/../lib/gcc/aarch64-none-elf/13.2.1/../../../../aarch64-none-elf/lib/libg.a(libc_a-strcat.o)
 .debug_loclists
                0x0000000000072a8f       0x27 /tools/arm-gnu-toolchain-13.2.Rel1-x86_64-aarch64-none-elf/bin/../lib/gcc/aarch64-none-elf/13.2.1/../../../../aarch64-none-elf/lib/libg.a(libc_a-lock.o)
 .debug_loclists
                0x0000000000072ab6      0x167 /tools/arm-gnu-toolchain-13.2.Rel1-x86_64-aarch64-none-elf/bin/../lib/gcc/aarch64-none-elf/13.2.1/../../../../aarch64-none-elf/lib/libg.a(libc_a-fclose.o)
 .debug_loclists
                0x0000000000072c1d       0x7a /tools/arm-gnu-toolchain-13.2.Rel1-x86_64-aarch64-none-elf/bin/../lib/gcc/aarch64-none-elf/13.2.1/../../../../aarch64-none-elf/lib/libg.a(libc_a-wsetup.o)
 .debug_loclists
                0x0000000000072c97      0x301 /tools/arm-gnu-toolchain-13.2.Rel1-x86_64-aarch64-none-elf/bin/../lib/gcc/aarch64-none-elf/13.2.1/../../../../aarch64-none-elf/lib/libg.a(libc_a-makebuf.o)
 .debug_loclists
                0x0000000000072f98      0x32e /tools/arm-gnu-toolchain-13.2.Rel1-x86_64-aarch64-none-elf/bin/../lib/gcc/aarch64-none-elf/13.2.1/../../../../aarch64-none-elf/lib/libg.a(libc_a-putc.o)
 .debug_loclists
                0x00000000000732c6      0x5bd /tools/arm-gnu-toolchain-13.2.Rel1-x86_64-aarch64-none-elf/bin/../lib/gcc/aarch64-none-elf/13.2.1/../../../../aarch64-none-elf/lib/libg.a(libc_a-wcsnrtombs.o)
 .debug_loclists
                0x0000000000073883       0x69 /tools/arm-gnu-toolchain-13.2.Rel1-x86_64-aarch64-none-elf/bin/../lib/gcc/aarch64-none-elf/13.2.1/../../../../aarch64-none-elf/lib/libg.a(libc_a-closer.o)
 .debug_loclists
                0x00000000000738ec      0x323 /tools/arm-gnu-toolchain-13.2.Rel1-x86_64-aarch64-none-elf/bin/../lib/gcc/aarch64-none-elf/13.2.1/../../../../aarch64-none-elf/lib/libg.a(libc_a-fflush.o)
 .debug_loclists
                0x0000000000073c0f      0xc81 /tools/arm-gnu-toolchain-13.2.Rel1-x86_64-aarch64-none-elf/bin/../lib/gcc/aarch64-none-elf/13.2.1/../../../../aarch64-none-elf/lib/libg.a(libc_a-reallocr.o)
 .debug_loclists
                0x0000000000074890       0x42 /tools/arm-gnu-toolchain-13.2.Rel1-x86_64-aarch64-none-elf/bin/../lib/gcc/aarch64-none-elf/13.2.1/../../../../aarch64-none-elf/lib/libg.a(libc_a-envlock.o)
 .debug_loclists
                0x00000000000748d2       0x8b /tools/arm-gnu-toolchain-13.2.Rel1-x86_64-aarch64-none-elf/bin/../lib/gcc/aarch64-none-elf/13.2.1/../../../../aarch64-none-elf/lib/libg.a(libc_a-fstatr.o)
 .debug_loclists
                0x000000000007495d      0x79a /tools/arm-gnu-toolchain-13.2.Rel1-x86_64-aarch64-none-elf/bin/../lib/gcc/aarch64-none-elf/13.2.1/../../../../aarch64-none-elf/lib/libg.a(libc_a-signal.o)
 .debug_loclists
                0x00000000000750f7       0x69 /tools/arm-gnu-toolchain-13.2.Rel1-x86_64-aarch64-none-elf/bin/../lib/gcc/aarch64-none-elf/13.2.1/../../../../aarch64-none-elf/lib/libg.a(libc_a-isattyr.o)
 .debug_loclists
                0x0000000000075160       0xad /tools/arm-gnu-toolchain-13.2.Rel1-x86_64-aarch64-none-elf/bin/../lib/gcc/aarch64-none-elf/13.2.1/../../../../aarch64-none-elf/lib/libg.a(libc_a-lseekr.o)
 .debug_loclists
                0x000000000007520d       0xad /tools/arm-gnu-toolchain-13.2.Rel1-x86_64-aarch64-none-elf/bin/../lib/gcc/aarch64-none-elf/13.2.1/../../../../aarch64-none-elf/lib/libg.a(libc_a-readr.o)
 .debug_loclists
                0x00000000000752ba      0x37f /tools/arm-gnu-toolchain-13.2.Rel1-x86_64-aarch64-none-elf/bin/../lib/gcc/aarch64-none-elf/13.2.1/../../../../aarch64-none-elf/lib/libg.a(libc_a-fputwc.o)
 .debug_loclists
                0x0000000000075639       0xa6 /tools/arm-gnu-toolchain-13.2.Rel1-x86_64-aarch64-none-elf/bin/../lib/gcc/aarch64-none-elf/13.2.1/../../../../aarch64-none-elf/lib/libg.a(libc_a-signalr.o)
 .debug_loclists
                0x00000000000756df      0x155 /tools/arm-gnu-toolchain-13.2.Rel1-x86_64-aarch64-none-elf/bin/../lib/gcc/aarch64-none-elf/13.2.1/../../../../aarch64-none-elf/lib/libg.a(libc_a-wbuf.o)
 .debug_loclists
                0x0000000000075834      0x653 /tools/arm-gnu-toolchain-13.2.Rel1-x86_64-aarch64-none-elf/bin/../lib/gcc/aarch64-none-elf/13.2.1/libgcc.a(trunctfdf2.o)
 .debug_loclists
                0x0000000000075e87       0x27 /tools/arm-gnu-toolchain-13.2.Rel1-x86_64-aarch64-none-elf/bin/../lib/gcc/aarch64-none-elf/13.2.1/libgcc.a(sfp-exceptions.o)

.debug_aranges  0x0000000000000000     0x4680
 .debug_aranges
                0x0000000000000000       0x30 CMakeFiles/freertos_kernel.elf.dir/main.c.o
 .debug_aranges
                0x0000000000000030       0x30 gloss/CMakeFiles/freedom_metal.dir/freedom_metal.c.o
 .debug_aranges
                0x0000000000000060       0x30 gloss/CMakeFiles/freedom_metal.dir/nanosleep.c.o
 .debug_aranges
                0x0000000000000090       0x30 gloss/CMakeFiles/freedom_metal.dir/sys_access.c.o
 .debug_aranges
                0x00000000000000c0       0x30 gloss/CMakeFiles/freedom_metal.dir/sys_chdir.c.o
 .debug_aranges
                0x00000000000000f0       0x30 gloss/CMakeFiles/freedom_metal.dir/sys_chmod.c.o
 .debug_aranges
                0x0000000000000120       0x30 gloss/CMakeFiles/freedom_metal.dir/sys_chown.c.o
 .debug_aranges
                0x0000000000000150       0x30 gloss/CMakeFiles/freedom_metal.dir/sys_clock_gettime.c.o
 .debug_aranges
                0x0000000000000180       0x30 gloss/CMakeFiles/freedom_metal.dir/sys_close.c.o
 .debug_aranges
                0x00000000000001b0       0x30 gloss/CMakeFiles/freedom_metal.dir/sys_execve.c.o
 .debug_aranges
                0x00000000000001e0       0x30 gloss/CMakeFiles/freedom_metal.dir/sys_exit.c.o
 .debug_aranges
                0x0000000000000210       0x30 gloss/CMakeFiles/freedom_metal.dir/sys_faccessat.c.o
 .debug_aranges
                0x0000000000000240       0x30 gloss/CMakeFiles/freedom_metal.dir/sys_fork.c.o
 .debug_aranges
                0x0000000000000270       0x30 gloss/CMakeFiles/freedom_metal.dir/sys_fstat.c.o
 .debug_aranges
                0x00000000000002a0       0x30 gloss/CMakeFiles/freedom_metal.dir/sys_fstatat.c.o
 .debug_aranges
                0x00000000000002d0       0x30 gloss/CMakeFiles/freedom_metal.dir/sys_ftime.c.o
 .debug_aranges
                0x0000000000000300       0x30 gloss/CMakeFiles/freedom_metal.dir/sys_getcwd.c.o
 .debug_aranges
                0x0000000000000330       0x30 gloss/CMakeFiles/freedom_metal.dir/sys_getpid.c.o
 .debug_aranges
                0x0000000000000360       0x30 gloss/CMakeFiles/freedom_metal.dir/sys_gettimeofday.c.o
 .debug_aranges
                0x0000000000000390       0x30 gloss/CMakeFiles/freedom_metal.dir/sys_isatty.c.o
 .debug_aranges
                0x00000000000003c0       0x30 gloss/CMakeFiles/freedom_metal.dir/sys_kill.c.o
 .debug_aranges
                0x00000000000003f0       0x30 gloss/CMakeFiles/freedom_metal.dir/sys_link.c.o
 .debug_aranges
                0x0000000000000420       0x30 gloss/CMakeFiles/freedom_metal.dir/sys_lseek.c.o
 .debug_aranges
                0x0000000000000450       0x30 gloss/CMakeFiles/freedom_metal.dir/sys_lstat.c.o
 .debug_aranges
                0x0000000000000480       0x30 gloss/CMakeFiles/freedom_metal.dir/sys_open.c.o
 .debug_aranges
                0x00000000000004b0       0x30 gloss/CMakeFiles/freedom_metal.dir/sys_openat.c.o
 .debug_aranges
                0x00000000000004e0       0x30 gloss/CMakeFiles/freedom_metal.dir/sys_read.c.o
 .debug_aranges
                0x0000000000000510       0x30 gloss/CMakeFiles/freedom_metal.dir/sys_sbrk.c.o
 .debug_aranges
                0x0000000000000540       0x30 gloss/CMakeFiles/freedom_metal.dir/sys_sysconf.c.o
 .debug_aranges
                0x0000000000000570       0x30 gloss/CMakeFiles/freedom_metal.dir/sys_times.c.o
 .debug_aranges
                0x00000000000005a0       0x30 gloss/CMakeFiles/freedom_metal.dir/sys_unlink.c.o
 .debug_aranges
                0x00000000000005d0       0x30 gloss/CMakeFiles/freedom_metal.dir/sys_utime.c.o
 .debug_aranges
                0x0000000000000600       0x30 gloss/CMakeFiles/freedom_metal.dir/sys_wait.c.o
 .debug_aranges
                0x0000000000000630       0x30 gloss/CMakeFiles/freedom_metal.dir/sys_write.c.o
 .debug_aranges
                0x0000000000000660       0x30 build/drivers/mailbox/CMakeFiles/mailbox.dir/mailbox.c.o
 .debug_aranges
                0x0000000000000690       0x30 build/drivers/mailbox/CMakeFiles/mailbox.dir/mailbox_cb.c.o
 .debug_aranges
                0x00000000000006c0       0x30 build/drivers/pmu/CMakeFiles/pmu.dir/pmu.c.o
 .debug_aranges
                0x00000000000006f0       0x30 build/drivers/uart/CMakeFiles/uart.dir/uart.c.o
 .debug_aranges
                0x0000000000000720       0x30 build/drivers/dma/CMakeFiles/dma.dir/pl330.c.o
 .debug_aranges
                0x0000000000000750       0x30 build/drivers/gpio/CMakeFiles/gpio.dir/gpio.c.o
 .debug_aranges
                0x0000000000000780       0x30 build/drivers/smmu/CMakeFiles/smmu.dir/smmu.c.o
 .debug_aranges
                0x00000000000007b0       0x30 build/drivers/smmu/CMakeFiles/smmu.dir/smmu_pmu.c.o
 .debug_aranges
                0x00000000000007e0       0x30 build/drivers/pvt_con/CMakeFiles/pvt_con.dir/pvt_con.c.o
 .debug_aranges
                0x0000000000000810       0x30 build/drivers/cmu/CMakeFiles/cmu.dir/cmu.c.o
 .debug_aranges
                0x0000000000000840       0x30 build/drivers/watchdog/CMakeFiles/watchdog.dir/dw_apb_wdt.c.o
 .debug_aranges
                0x0000000000000870       0x30 build/drivers/rbc/CMakeFiles/rbc.dir/aw_ucie.c.o
 .debug_aranges
                0x00000000000008a0       0x30 build/drivers/rbc/CMakeFiles/rbc.dir/rbc_driver.c.o
 .debug_aranges
                0x00000000000008d0       0x30 build/drivers/rbc/CMakeFiles/rbc.dir/rbc_cmd.c.o
 .debug_aranges
                0x0000000000000900       0x30 build/drivers/rbcm/CMakeFiles/rbcm.dir/rbcm_core.c.o
 .debug_aranges
                0x0000000000000930       0x30 build/drivers/rbcm/CMakeFiles/rbcm.dir/rbcm_driver.c.o
 .debug_aranges
                0x0000000000000960       0x30 build/drivers/i2c/CMakeFiles/i2c.dir/i2c.c.o
 .debug_aranges
                0x0000000000000990       0x30 build/drivers/noc_logger/CMakeFiles/noc_logger.dir/noc_logger.c.o
 .debug_aranges
                0x00000000000009c0       0x30 build/drivers/hbm3/CMakeFiles/hbm3.dir/hbm3.c.o
 .debug_aranges
                0x00000000000009f0       0x30 build/drivers/hbm3/CMakeFiles/hbm3.dir/tmrs.c.o
 .debug_aranges
                0x0000000000000a20       0x30 build/drivers/hbm3/CMakeFiles/hbm3.dir/icon.c.o
 .debug_aranges
                0x0000000000000a50       0x30 build/drivers/hbm3/CMakeFiles/hbm3.dir/hbm3_irq.c.o
 .debug_aranges
                0x0000000000000a80       0x30 build/drivers/hbm3/CMakeFiles/hbm3.dir/hbm3_am.c.o
 .debug_aranges
                0x0000000000000ab0       0x30 build/drivers/pmic/CMakeFiles/pmic.dir/ltc1427cs8.c.o
 .debug_aranges
                0x0000000000000ae0       0x30 build/drivers/pmic/CMakeFiles/pmic.dir/tca9548a.c.o
 .debug_aranges
                0x0000000000000b10       0x30 build/drivers/pmic/CMakeFiles/pmic.dir/mp5998.c.o
 .debug_aranges
                0x0000000000000b40       0x30 build/drivers/pmic/CMakeFiles/pmic.dir/mpq8785.c.o
 .debug_aranges
                0x0000000000000b70       0x30 build/drivers/pmic/CMakeFiles/pmic.dir/mp29816a.c.o
 .debug_aranges
                0x0000000000000ba0       0x30 build/drivers/pmic/CMakeFiles/pmic.dir/g1505.c.o
 .debug_aranges
                0x0000000000000bd0       0x30 build/drivers/pmic/CMakeFiles/pmic.dir/pmic_mgr.c.o
 .debug_aranges
                0x0000000000000c00       0x30 build/drivers/dvfs/CMakeFiles/dvfs.dir/dvfs.c.o
 .debug_aranges
                0x0000000000000c30       0x30 build/drivers/sic/CMakeFiles/sic.dir/sic.c.o
 .debug_aranges
                0x0000000000000c60       0x30 build/drivers/timer/dw_apb_timer/CMakeFiles/dw_apb_timer.dir/dw_apb_timer.c.o
 .debug_aranges
                0x0000000000000c90       0x30 build/drivers/qspi/qspi_apb/CMakeFiles/qspi_apb.dir/qspi_apb.c.o
 .debug_aranges
                0x0000000000000cc0       0x30 build/drivers/flash/CMakeFiles/flash.dir/mt25q_flash.c.o
 .debug_aranges
                0x0000000000000cf0       0x30 build/tests/common/CMakeFiles/test_common.dir/test_mailbox_cb.c.o
 .debug_aranges
                0x0000000000000d20       0x30 build/tests/interrupt_test_helper_example/CMakeFiles/interrupt_test_helper_example.dir/example_test.c.o
 .debug_aranges
                0x0000000000000d50       0x30 build/tests/interrupt_test_helper_example/CMakeFiles/interrupt_test_helper_example.dir/example_driver.c.o
 .debug_aranges
                0x0000000000000d80       0x30 build/tests/arch/CMakeFiles/test_arch.dir/test_cli.c.o
 .debug_aranges
                0x0000000000000db0       0x30 build/tests/gpio/CMakeFiles/test_gpio.dir/test_gpio.c.o
 .debug_aranges
                0x0000000000000de0       0x30 build/tests/dma/CMakeFiles/test_dma.dir/test_dma_main.c.o
 .debug_aranges
                0x0000000000000e10       0x30 build/tests/mailbox/CMakeFiles/mailbox_test.dir/test_mailbox_main.c.o
 .debug_aranges
                0x0000000000000e40       0x30 build/tests/pvt_con/CMakeFiles/test_pvt_con.dir/test_pvt_con.c.o
 .debug_aranges
                0x0000000000000e70       0x30 build/tests/arch/arm64/CMakeFiles/test_arm64.dir/test_ca73.c.o
 .debug_aranges
                0x0000000000000ea0       0x30 build/tests/timer/dw_apb_timer/CMakeFiles/test_dw_apb_timer.dir/test_dw_apb_timer.c.o
 .debug_aranges
                0x0000000000000ed0       0x30 build/tests/cmu/CMakeFiles/test_cmu.dir/test_cmu_main.c.o
 .debug_aranges
                0x0000000000000f00       0x30 build/tests/smmu/CMakeFiles/test_mmu.dir/test_mmu_main.c.o
 .debug_aranges
                0x0000000000000f30       0x30 build/tests/log/CMakeFiles/show_log.dir/rebel_h_log.c.o
 .debug_aranges
                0x0000000000000f60       0x30 build/tests/rbc/CMakeFiles/test_rbc.dir/test/all_test.c.o
 .debug_aranges
                0x0000000000000f90       0x30 build/tests/rbc/CMakeFiles/test_rbc.dir/test/test_aw_ucie_init.c.o
 .debug_aranges
                0x0000000000000fc0       0x30 build/tests/rbc/CMakeFiles/test_rbc.dir/test/test_aw_ucie_d2d_comp.c.o
 .debug_aranges
                0x0000000000000ff0       0x30 build/tests/rbc/CMakeFiles/test_rbc.dir/test/test_aw_ucie_d2d_err_and_link.c.o
 .debug_aranges
                0x0000000000001020       0x30 build/tests/rbc/CMakeFiles/test_rbc.dir/test/test_aw_ucie_retraining.c.o
 .debug_aranges
                0x0000000000001050       0x30 build/tests/rbc/CMakeFiles/test_rbc.dir/test/test_aw_ucie_sideband.c.o
 .debug_aranges
                0x0000000000001080       0x30 build/tests/rbc/CMakeFiles/test_rbc.dir/test/test_aw_ucie_training.c.o
 .debug_aranges
                0x00000000000010b0       0x30 build/tests/rbc/CMakeFiles/test_rbc.dir/test/test_aw_ucie_runtime_link_test.c.o
 .debug_aranges
                0x00000000000010e0       0x30 build/tests/rbc/CMakeFiles/test_rbc.dir/test/test_aw_ucie_phy_compliance_test.c.o
 .debug_aranges
                0x0000000000001110       0x30 build/tests/rbc/CMakeFiles/test_rbc.dir/test/test_aw_ucie_exception.c.o
 .debug_aranges
                0x0000000000001140       0x30 build/tests/rbc/CMakeFiles/test_rbc.dir/test/test_aw_ucie_eye_of_margin.c.o
 .debug_aranges
                0x0000000000001170       0x30 build/tests/rbc/CMakeFiles/test_rbc.dir/test/test_aw_ucie_util.c.o
 .debug_aranges
                0x00000000000011a0       0x30 build/tests/rbc/CMakeFiles/test_rbc.dir/test/test_fake_timer.c.o
 .debug_aranges
                0x00000000000011d0       0x30 build/tests/rbc/CMakeFiles/test_rbc.dir/test/test_rbc_driver.c.o
 .debug_aranges
                0x0000000000001200       0x30 build/tests/rbc/CMakeFiles/test_rbc.dir/mocks/fake_timer.c.o
 .debug_aranges
                0x0000000000001230       0x30 build/tests/rbc/CMakeFiles/test_rbc.dir/mocks/fake_gic.c.o
 .debug_aranges
                0x0000000000001260       0x30 build/tests/rbcm/CMakeFiles/test_rbcm.dir/rbcm_test.c.o
 .debug_aranges
                0x0000000000001290       0x30 build/tests/rbcm/CMakeFiles/test_rbcm.dir/rbcm_reg_access_test.c.o
 .debug_aranges
                0x00000000000012c0       0x30 build/tests/i2c/CMakeFiles/test_i2c.dir/test_i2c_main.c.o
 .debug_aranges
                0x00000000000012f0       0x30 build/tests/hbm3/CMakeFiles/hbm3_test.dir/memtest.c.o
 .debug_aranges
                0x0000000000001320       0x30 build/tests/hbm3/CMakeFiles/hbm3_test.dir/hbm3_irq_test.c.o
 .debug_aranges
                0x0000000000001350       0x30 build/tests/system_test/CMakeFiles/system_test.dir/test_system.c.o
 .debug_aranges
                0x0000000000001380       0x30 build/tests/system_test/CMakeFiles/system_test.dir/dma_transaction.c.o
 .debug_aranges
                0x00000000000013b0       0x30 build/tests/system_test/CMakeFiles/system_test.dir/test_dma_transaction.c.o
 .debug_aranges
                0x00000000000013e0       0x30 build/tests/system_test/CMakeFiles/system_test.dir/data_process.c.o
 .debug_aranges
                0x0000000000001410       0x30 build/tests/system_test/CMakeFiles/system_test.dir/test_data_process.c.o
 .debug_aranges
                0x0000000000001440       0x30 build/tests/dvfs/CMakeFiles/test_dvfs.dir/test_dvfs_main.c.o
 .debug_aranges
                0x0000000000001470       0x30 build/tests/pmic/CMakeFiles/test_pmic.dir/test_pmic_main.c.o
 .debug_aranges
                0x00000000000014a0       0x30 build/tests/pvt_con/CMakeFiles/pvt_cli.dir/pvt_cli.c.o
 .debug_aranges
                0x00000000000014d0       0x30 build/tests/pvt_con/CMakeFiles/pvt_cli.dir/pvt_cli_show.c.o
 .debug_aranges
                0x0000000000001500       0x30 build/tests/pvt_con/CMakeFiles/pvt_cli.dir/pvt_cli_enable.c.o
 .debug_aranges
                0x0000000000001530       0x30 build/tests/pvt_con/CMakeFiles/pvt_cli.dir/pvt_cli_disable.c.o
 .debug_aranges
                0x0000000000001560       0x30 build/tests/pvt_con/CMakeFiles/pvt_cli.dir/pvt_cli_set.c.o
 .debug_aranges
                0x0000000000001590       0x30 build/tests/sic/CMakeFiles/test_sic.dir/test_sic.c.o
 .debug_aranges
                0x00000000000015c0       0x30 build/tests/chipid/CMakeFiles/test_chipid.dir/read_chipid.c.o
 .debug_aranges
                0x00000000000015f0       0x30 build/tests/flash/CMakeFiles/test_flash.dir/test_flash.c.o
 .debug_aranges
                0x0000000000001620       0x30 build/tests/qspi/CMakeFiles/test_qspiapb.dir/test_qspiapb.c.o
 .debug_aranges
                0x0000000000001650       0x30 build/tests/rbdma/CMakeFiles/test_rbdma.dir/rbdma_tsync_test.c.o
 .debug_aranges
                0x0000000000001680       0x30 build/tests/rbdma/CMakeFiles/test_rbdma.dir/test_main_rbdma.c.o
 .debug_aranges
                0x00000000000016b0      0x210 libfreertos_kernel.a(queue.c.o)
 .debug_aranges
                0x00000000000018c0      0x450 libfreertos_kernel.a(tasks.c.o)
 .debug_aranges
                0x0000000000001d10      0x1a0 libfreertos_kernel.a(timers.c.o)
 .debug_aranges
                0x0000000000001eb0       0x90 libfreertos_kernel.a(heap_4.c.o)
 .debug_aranges
                0x0000000000001f40       0x70 libfreertos_kernel.a(list.c.o)
 .debug_aranges
                0x0000000000001fb0       0x60 portable/libfreertos_kernel_port.a(port.c.o)
 .debug_aranges
                0x0000000000002010       0x30 build/drivers/common/libdriver.a(driver.c.o)
 .debug_aranges
                0x0000000000002040       0x30 build/drivers/common/libassert.a(assert.c.o)
 .debug_aranges
                0x0000000000002070       0x30 build/drivers/common/libinterrupt.a(interrupt.c.o)
 .debug_aranges
                0x00000000000020a0       0x30 build/drivers/intc/libintc.a(gicv3.c.o)
 .debug_aranges
                0x00000000000020d0       0x30 build/drivers/intc/libintc.a(bakery_lock.c.o)
 .debug_aranges
                0x0000000000002100       0x30 services/cli_service/libcli_service.a(cli_task.c.o)
 .debug_aranges
                0x0000000000002130       0x30 services/cli_service/libcli_service.a(sys_command_line.c.o)
 .debug_aranges
                0x0000000000002160       0x30 services/terminal_service/libterminal_service.a(console_uart.c.o)
 .debug_aranges
                0x0000000000002190       0x30 services/terminal_service/libterminal_service.a(console.c.o)
 .debug_aranges
                0x00000000000021c0       0x30 services/terminal_service/libterminal_service.a(terminal_task.c.o)
 .debug_aranges
                0x00000000000021f0       0x30 services/replay_service/libreplay_service.a(replay.c.o)
 .debug_aranges
                0x0000000000002220       0x30 services/replay_service/libreplay_service.a(sub_function.c.o)
 .debug_aranges
                0x0000000000002250       0x30 services/replay_service/libreplay_service.a(rush_cli.c.o)
 .debug_aranges
                0x0000000000002280       0x30 services/replay_service/libreplay_service.a(rush_cli_msg_buf.c.o)
 .debug_aranges
                0x00000000000022b0       0x30 services/replay_service/libreplay_service.a(tpg_cli.c.o)
 .debug_aranges
                0x00000000000022e0       0x30 services/replay_service/libreplay_service.a(rbdma_cli.c.o)
 .debug_aranges
                0x0000000000002310       0x30 services/replay_service/libreplay_service.a(mem_cli.c.o)
 .debug_aranges
                0x0000000000002340       0x30 services/replay_service/libreplay_service.a(chiplet.c.o)
 .debug_aranges
                0x0000000000002370       0x30 services/replay_service/libreplay_service.a(cmgr_if.c.o)
 .debug_aranges
                0x00000000000023a0       0x30 services/replay_service/libreplay_service.a(dnc_if.c.o)
 .debug_aranges
                0x00000000000023d0       0x30 services/replay_service/libreplay_service.a(dnc_if_evt1.c.o)
 .debug_aranges
                0x0000000000002400       0x30 services/replay_service/libreplay_service.a(rdsn_if.c.o)
 .debug_aranges
                0x0000000000002430       0x30 services/replay_service/libreplay_service.a(ptw.c.o)
 .debug_aranges
                0x0000000000002460       0x30 services/replay_service/libreplay_service.a(rbdma_if.c.o)
 .debug_aranges
                0x0000000000002490       0x30 services/replay_service/libreplay_service.a(shm_if.c.o)
 .debug_aranges
                0x00000000000024c0       0x30 services/replay_service/libreplay_service.a(tbu_wrapper.c.o)
 .debug_aranges
                0x00000000000024f0       0x30 services/replay_service/libreplay_service.a(debug.c.o)
 .debug_aranges
                0x0000000000002520       0x30 services/replay_service/libreplay_service.a(ici.c.o)
 .debug_aranges
                0x0000000000002550       0x30 services/replay_service/libreplay_service.a(page_table_gen.c.o)
 .debug_aranges
                0x0000000000002580       0x30 services/replay_service/libreplay_service.a(profile.c.o)
 .debug_aranges
                0x00000000000025b0       0x30 services/replay_service/libreplay_service.a(rl_queue.c.o)
 .debug_aranges
                0x00000000000025e0       0x30 services/replay_service/libreplay_service.a(abort.c.o)
 .debug_aranges
                0x0000000000002610       0x30 services/replay_service/libreplay_service.a(cpu_data.c.o)
 .debug_aranges
                0x0000000000002640       0x30 services/replay_service/libreplay_service.a(spinlock.c.o)
 .debug_aranges
                0x0000000000002670       0x30 services/replay_service/libreplay_service.a(core.c.o)
 .debug_aranges
                0x00000000000026a0       0x30 services/replay_service/libreplay_service.a(log.c.o)
 .debug_aranges
                0x00000000000026d0       0x30 services/replay_service/libreplay_service.a(rand.c.o)
 .debug_aranges
                0x0000000000002700       0x30 services/replay_service/libreplay_service.a(backtrace.c.o)
 .debug_aranges
                0x0000000000002730       0x30 services/replay_service/libreplay_service.a(argparse.c.o)
 .debug_aranges
                0x0000000000002760       0x30 services/replay_service/libreplay_service.a(rush_cli_util.c.o)
 .debug_aranges
                0x0000000000002790       0x30 services/task_adder_service/libtask_adder_service.a(task_adder.c.o)
 .debug_aranges
                0x00000000000027c0       0x30 portable/libfreertos_arch.a(prep_c.c.o)
 .debug_aranges
                0x00000000000027f0       0x30 libfreertos_kernel_config.a(FreeRTOS_tick_config.c.o)
 .debug_aranges
                0x0000000000002820       0x30 portable/libsmp.a(smp.c.o)
 .debug_aranges
                0x0000000000002850       0x30 portable/libmmu.a(mmu.c.o)
 .debug_aranges
                0x0000000000002880       0x30 build/interrupt_test_helper/libinterrupt_test_helper.a(interrupt_test_helper.c.o)
 .debug_aranges
                0x00000000000028b0       0x30 build/unity/libunity.a(unity.c.o)
 .debug_aranges
                0x00000000000028e0       0x30 build/unity/libunity.a(unity_fixture.c.o)
 .debug_aranges
                0x0000000000002910       0x30 build/drivers/psci/libpsci.a(psci.c.o)
 .debug_aranges
                0x0000000000002940       0xf0 libfreertos_kernel.a(event_groups.c.o)
 .debug_aranges
                0x0000000000002a30      0x180 libfreertos_kernel.a(stream_buffer.c.o)
 .debug_aranges
                0x0000000000002bb0       0x30 build/common/arch/libcommon.a(printf.c.o)
 .debug_aranges
                0x0000000000002be0       0x30 build/common/arch/libcommon.a(system_api.c.o)
 .debug_aranges
                0x0000000000002c10       0x30 build/drivers/timer/generic_timer/libgeneric_timer.a(generic_timer.c.o)
 .debug_aranges
                0x0000000000002c40       0x30 /tools/arm-gnu-toolchain-13.2.Rel1-x86_64-aarch64-none-elf/bin/../lib/gcc/aarch64-none-elf/13.2.1/libgcc.a(ldset_8_4.o)
 .debug_aranges
                0x0000000000002c70       0x20 /tools/arm-gnu-toolchain-13.2.Rel1-x86_64-aarch64-none-elf/bin/../lib/gcc/aarch64-none-elf/13.2.1/libgcc.a(lse-init.o)
 .debug_aranges
                0x0000000000002c90       0x90 /tools/arm-gnu-toolchain-13.2.Rel1-x86_64-aarch64-none-elf/bin/../lib/gcc/aarch64-none-elf/13.2.1/../../../../aarch64-none-elf/lib/libg.a(libc_a-strtod.o)
 .debug_aranges
                0x0000000000002d20       0x60 /tools/arm-gnu-toolchain-13.2.Rel1-x86_64-aarch64-none-elf/bin/../lib/gcc/aarch64-none-elf/13.2.1/../../../../aarch64-none-elf/lib/libg.a(libc_a-strtol.o)
 .debug_aranges
                0x0000000000002d80       0x40 /tools/arm-gnu-toolchain-13.2.Rel1-x86_64-aarch64-none-elf/bin/../lib/gcc/aarch64-none-elf/13.2.1/../../../../aarch64-none-elf/lib/libg.a(libc_a-gdtoa-gethex.o)
 .debug_aranges
                0x0000000000002dc0       0x60 /tools/arm-gnu-toolchain-13.2.Rel1-x86_64-aarch64-none-elf/bin/../lib/gcc/aarch64-none-elf/13.2.1/../../../../aarch64-none-elf/lib/libg.a(libc_a-strtoul.o)
 .debug_aranges
                0x0000000000002e20       0x40 /tools/arm-gnu-toolchain-13.2.Rel1-x86_64-aarch64-none-elf/bin/../lib/gcc/aarch64-none-elf/13.2.1/../../../../aarch64-none-elf/lib/libg.a(libc_a-gdtoa-hexnan.o)
 .debug_aranges
                0x0000000000002e60       0x60 /tools/arm-gnu-toolchain-13.2.Rel1-x86_64-aarch64-none-elf/bin/../lib/gcc/aarch64-none-elf/13.2.1/../../../../aarch64-none-elf/lib/libg.a(libc_a-strtoll.o)
 .debug_aranges
                0x0000000000002ec0       0x30 /tools/arm-gnu-toolchain-13.2.Rel1-x86_64-aarch64-none-elf/bin/../lib/gcc/aarch64-none-elf/13.2.1/../../../../aarch64-none-elf/lib/libg.a(libc_a-strncpy.o)
 .debug_aranges
                0x0000000000002ef0       0x60 /tools/arm-gnu-toolchain-13.2.Rel1-x86_64-aarch64-none-elf/bin/../lib/gcc/aarch64-none-elf/13.2.1/../../../../aarch64-none-elf/lib/libg.a(libc_a-strtoull.o)
 .debug_aranges
                0x0000000000002f50       0x30 /tools/arm-gnu-toolchain-13.2.Rel1-x86_64-aarch64-none-elf/bin/../lib/gcc/aarch64-none-elf/13.2.1/../../../../aarch64-none-elf/lib/libg.a(libc_a-strchr.o)
 .debug_aranges
                0x0000000000002f80       0x30 /tools/arm-gnu-toolchain-13.2.Rel1-x86_64-aarch64-none-elf/bin/../lib/gcc/aarch64-none-elf/13.2.1/../../../../aarch64-none-elf/lib/libg.a(libc_a-strcmp.o)
 .debug_aranges
                0x0000000000002fb0       0x40 /tools/arm-gnu-toolchain-13.2.Rel1-x86_64-aarch64-none-elf/bin/../lib/gcc/aarch64-none-elf/13.2.1/../../../../aarch64-none-elf/lib/libg.a(libc_a-sprintf.o)
 .debug_aranges
                0x0000000000002ff0       0x30 /tools/arm-gnu-toolchain-13.2.Rel1-x86_64-aarch64-none-elf/bin/../lib/gcc/aarch64-none-elf/13.2.1/../../../../aarch64-none-elf/lib/libg.a(libc_a-strlen.o)
 .debug_aranges
                0x0000000000003020       0x30 /tools/arm-gnu-toolchain-13.2.Rel1-x86_64-aarch64-none-elf/bin/../lib/gcc/aarch64-none-elf/13.2.1/../../../../aarch64-none-elf/lib/libg.a(libc_a-strspn.o)
 .debug_aranges
                0x0000000000003050       0x30 /tools/arm-gnu-toolchain-13.2.Rel1-x86_64-aarch64-none-elf/bin/../lib/gcc/aarch64-none-elf/13.2.1/../../../../aarch64-none-elf/lib/libg.a(libc_a-strtok.o)
 .debug_aranges
                0x0000000000003080       0x40 /tools/arm-gnu-toolchain-13.2.Rel1-x86_64-aarch64-none-elf/bin/../lib/gcc/aarch64-none-elf/13.2.1/../../../../aarch64-none-elf/lib/libg.a(libc_a-strtok_r.o)
 .debug_aranges
                0x00000000000030c0       0x60 /tools/arm-gnu-toolchain-13.2.Rel1-x86_64-aarch64-none-elf/bin/../lib/gcc/aarch64-none-elf/13.2.1/../../../../aarch64-none-elf/lib/libg.a(libc_a-strstr.o)
 .debug_aranges
                0x0000000000003120       0x90 /tools/arm-gnu-toolchain-13.2.Rel1-x86_64-aarch64-none-elf/bin/../lib/gcc/aarch64-none-elf/13.2.1/../../../../aarch64-none-elf/lib/libg.a(libc_a-getopt.o)
 .debug_aranges
                0x00000000000031b0       0x30 /tools/arm-gnu-toolchain-13.2.Rel1-x86_64-aarch64-none-elf/bin/../lib/gcc/aarch64-none-elf/13.2.1/../../../../aarch64-none-elf/lib/libg.a(libc_a-errno.o)
 .debug_aranges
                0x00000000000031e0       0x30 /tools/arm-gnu-toolchain-13.2.Rel1-x86_64-aarch64-none-elf/bin/../lib/gcc/aarch64-none-elf/13.2.1/../../../../aarch64-none-elf/lib/libg.a(libc_a-svfprintf.o)
 .debug_aranges
                0x0000000000003210       0x30 /tools/arm-gnu-toolchain-13.2.Rel1-x86_64-aarch64-none-elf/bin/../lib/gcc/aarch64-none-elf/13.2.1/../../../../aarch64-none-elf/lib/libg.a(libc_a-strncmp.o)
 .debug_aranges
                0x0000000000003240       0x30 /tools/arm-gnu-toolchain-13.2.Rel1-x86_64-aarch64-none-elf/bin/../lib/gcc/aarch64-none-elf/13.2.1/../../../../aarch64-none-elf/lib/libg.a(libc_a-strnlen.o)
 .debug_aranges
                0x0000000000003270       0x40 /tools/arm-gnu-toolchain-13.2.Rel1-x86_64-aarch64-none-elf/bin/../lib/gcc/aarch64-none-elf/13.2.1/../../../../aarch64-none-elf/lib/libg.a(libc_a-vsnprintf.o)
 .debug_aranges
                0x00000000000032b0       0x40 /tools/arm-gnu-toolchain-13.2.Rel1-x86_64-aarch64-none-elf/bin/../lib/gcc/aarch64-none-elf/13.2.1/../../../../aarch64-none-elf/lib/libg.a(libc_a-malloc.o)
 .debug_aranges
                0x00000000000032f0       0x30 /tools/arm-gnu-toolchain-13.2.Rel1-x86_64-aarch64-none-elf/bin/../lib/gcc/aarch64-none-elf/13.2.1/../../../../aarch64-none-elf/lib/libg.a(libc_a-mallocr.o)
 .debug_aranges
                0x0000000000003320       0x40 /tools/arm-gnu-toolchain-13.2.Rel1-x86_64-aarch64-none-elf/bin/../lib/gcc/aarch64-none-elf/13.2.1/../../../../aarch64-none-elf/lib/libg.a(libc_a-assert.o)
 .debug_aranges
                0x0000000000003360       0x30 /tools/arm-gnu-toolchain-13.2.Rel1-x86_64-aarch64-none-elf/bin/../lib/gcc/aarch64-none-elf/13.2.1/../../../../aarch64-none-elf/lib/libg.a(libc_a-strcasecmp.o)
 .debug_aranges
                0x0000000000003390       0x40 /tools/arm-gnu-toolchain-13.2.Rel1-x86_64-aarch64-none-elf/bin/../lib/gcc/aarch64-none-elf/13.2.1/../../../../aarch64-none-elf/lib/libg.a(libc_a-wcrtomb.o)
 .debug_aranges
                0x00000000000033d0       0x80 /tools/arm-gnu-toolchain-13.2.Rel1-x86_64-aarch64-none-elf/bin/../lib/gcc/aarch64-none-elf/13.2.1/../../../../aarch64-none-elf/lib/libg.a(libc_a-locale.o)
 .debug_aranges
                0x0000000000003450       0x50 /tools/arm-gnu-toolchain-13.2.Rel1-x86_64-aarch64-none-elf/bin/../lib/gcc/aarch64-none-elf/13.2.1/../../../../aarch64-none-elf/lib/libg.a(libc_a-localeconv.o)
 .debug_aranges
                0x00000000000034a0       0x30 /tools/arm-gnu-toolchain-13.2.Rel1-x86_64-aarch64-none-elf/bin/../lib/gcc/aarch64-none-elf/13.2.1/../../../../aarch64-none-elf/lib/libg.a(libc_a-memchr.o)
 .debug_aranges
                0x00000000000034d0       0x30 /tools/arm-gnu-toolchain-13.2.Rel1-x86_64-aarch64-none-elf/bin/../lib/gcc/aarch64-none-elf/13.2.1/../../../../aarch64-none-elf/lib/libg.a(libc_a-memcmp.o)
 .debug_aranges
                0x0000000000003500       0x40 /tools/arm-gnu-toolchain-13.2.Rel1-x86_64-aarch64-none-elf/bin/../lib/gcc/aarch64-none-elf/13.2.1/../../../../aarch64-none-elf/lib/libg.a(libc_a-printf.o)
 .debug_aranges
                0x0000000000003540       0x30 /tools/arm-gnu-toolchain-13.2.Rel1-x86_64-aarch64-none-elf/bin/../lib/gcc/aarch64-none-elf/13.2.1/../../../../aarch64-none-elf/lib/libg.a(libc_a-memcpy.o)
 .debug_aranges
                0x0000000000003570       0x40 /tools/arm-gnu-toolchain-13.2.Rel1-x86_64-aarch64-none-elf/bin/../lib/gcc/aarch64-none-elf/13.2.1/../../../../aarch64-none-elf/lib/libg.a(libc_a-putchar.o)
 .debug_aranges
                0x00000000000035b0       0x40 /tools/arm-gnu-toolchain-13.2.Rel1-x86_64-aarch64-none-elf/bin/../lib/gcc/aarch64-none-elf/13.2.1/../../../../aarch64-none-elf/lib/libg.a(libc_a-puts.o)
 .debug_aranges
                0x00000000000035f0       0x40 /tools/arm-gnu-toolchain-13.2.Rel1-x86_64-aarch64-none-elf/bin/../lib/gcc/aarch64-none-elf/13.2.1/../../../../aarch64-none-elf/lib/libg.a(libc_a-mlock.o)
 .debug_aranges
                0x0000000000003630      0x150 /tools/arm-gnu-toolchain-13.2.Rel1-x86_64-aarch64-none-elf/bin/../lib/gcc/aarch64-none-elf/13.2.1/../../../../aarch64-none-elf/lib/libg.a(libc_a-mprec.o)
 .debug_aranges
                0x0000000000003780       0x40 /tools/arm-gnu-toolchain-13.2.Rel1-x86_64-aarch64-none-elf/bin/../lib/gcc/aarch64-none-elf/13.2.1/../../../../aarch64-none-elf/lib/libg.a(libc_a-atoi.o)
 .debug_aranges
                0x00000000000037c0       0x40 /tools/arm-gnu-toolchain-13.2.Rel1-x86_64-aarch64-none-elf/bin/../lib/gcc/aarch64-none-elf/13.2.1/../../../../aarch64-none-elf/lib/libg.a(libc_a-rand.o)
 .debug_aranges
                0x0000000000003800       0x30 /tools/arm-gnu-toolchain-13.2.Rel1-x86_64-aarch64-none-elf/bin/../lib/gcc/aarch64-none-elf/13.2.1/../../../../aarch64-none-elf/lib/libg.a(libc_a-callocr.o)
 .debug_aranges
                0x0000000000003830       0x40 /tools/arm-gnu-toolchain-13.2.Rel1-x86_64-aarch64-none-elf/bin/../lib/gcc/aarch64-none-elf/13.2.1/../../../../aarch64-none-elf/lib/libg.a(libc_a-wcsrtombs.o)
 .debug_aranges
                0x0000000000003870       0x40 /tools/arm-gnu-toolchain-13.2.Rel1-x86_64-aarch64-none-elf/bin/../lib/gcc/aarch64-none-elf/13.2.1/../../../../aarch64-none-elf/lib/libg.a(libc_a-dtoa.o)
 .debug_aranges
                0x00000000000038b0       0x50 /tools/arm-gnu-toolchain-13.2.Rel1-x86_64-aarch64-none-elf/bin/../lib/gcc/aarch64-none-elf/13.2.1/../../../../aarch64-none-elf/lib/libg.a(libc_a-strerror.o)
 .debug_aranges
                0x0000000000003900       0x30 /tools/arm-gnu-toolchain-13.2.Rel1-x86_64-aarch64-none-elf/bin/../lib/gcc/aarch64-none-elf/13.2.1/../../../../aarch64-none-elf/lib/libg.a(libc_a-ctype_.o)
 .debug_aranges
                0x0000000000003930       0x30 /tools/arm-gnu-toolchain-13.2.Rel1-x86_64-aarch64-none-elf/bin/../lib/gcc/aarch64-none-elf/13.2.1/../../../../aarch64-none-elf/lib/libg.a(libc_a-reent.o)
 .debug_aranges
                0x0000000000003960       0x20 /tools/arm-gnu-toolchain-13.2.Rel1-x86_64-aarch64-none-elf/bin/../lib/gcc/aarch64-none-elf/13.2.1/../../../../aarch64-none-elf/lib/libg.a(libc_a-impure.o)
 .debug_aranges
                0x0000000000003980       0xd0 /tools/arm-gnu-toolchain-13.2.Rel1-x86_64-aarch64-none-elf/bin/../lib/gcc/aarch64-none-elf/13.2.1/../../../../aarch64-none-elf/lib/libg.a(libc_a-findfp.o)
 .debug_aranges
                0x0000000000003a50       0x30 /tools/arm-gnu-toolchain-13.2.Rel1-x86_64-aarch64-none-elf/bin/../lib/gcc/aarch64-none-elf/13.2.1/../../../../aarch64-none-elf/lib/libg.a(libc_a-memset.o)
 .debug_aranges
                0x0000000000003a80       0x30 /tools/arm-gnu-toolchain-13.2.Rel1-x86_64-aarch64-none-elf/bin/../lib/gcc/aarch64-none-elf/13.2.1/../../../../aarch64-none-elf/lib/libg.a(libm_a-s_nan.o)
 .debug_aranges
                0x0000000000003ab0       0x30 /tools/arm-gnu-toolchain-13.2.Rel1-x86_64-aarch64-none-elf/bin/../lib/gcc/aarch64-none-elf/13.2.1/../../../../aarch64-none-elf/lib/libg.a(libm_a-sf_nan.o)
 .debug_aranges
                0x0000000000003ae0       0x30 /tools/arm-gnu-toolchain-13.2.Rel1-x86_64-aarch64-none-elf/bin/../lib/gcc/aarch64-none-elf/13.2.1/../../../../aarch64-none-elf/lib/libg.a(libm_a-s_frexp.o)
 .debug_aranges
                0x0000000000003b10       0x30 /tools/arm-gnu-toolchain-13.2.Rel1-x86_64-aarch64-none-elf/bin/../lib/gcc/aarch64-none-elf/13.2.1/../../../../aarch64-none-elf/lib/libg.a(libc_a-strlcpy.o)
 .debug_aranges
                0x0000000000003b40       0x40 /tools/arm-gnu-toolchain-13.2.Rel1-x86_64-aarch64-none-elf/bin/../lib/gcc/aarch64-none-elf/13.2.1/../../../../aarch64-none-elf/lib/libg.a(libc_a-freer.o)
 .debug_aranges
                0x0000000000003b80       0x30 /tools/arm-gnu-toolchain-13.2.Rel1-x86_64-aarch64-none-elf/bin/../lib/gcc/aarch64-none-elf/13.2.1/../../../../aarch64-none-elf/lib/libg.a(libc_a-strncasecmp.o)
 .debug_aranges
                0x0000000000003bb0       0x40 /tools/arm-gnu-toolchain-13.2.Rel1-x86_64-aarch64-none-elf/bin/../lib/gcc/aarch64-none-elf/13.2.1/../../../../aarch64-none-elf/lib/libg.a(libc_a-getenv.o)
 .debug_aranges
                0x0000000000003bf0       0x40 /tools/arm-gnu-toolchain-13.2.Rel1-x86_64-aarch64-none-elf/bin/../lib/gcc/aarch64-none-elf/13.2.1/../../../../aarch64-none-elf/lib/libg.a(libc_a-getenv_r.o)
 .debug_aranges
                0x0000000000003c30       0x40 /tools/arm-gnu-toolchain-13.2.Rel1-x86_64-aarch64-none-elf/bin/../lib/gcc/aarch64-none-elf/13.2.1/../../../../aarch64-none-elf/lib/libg.a(libc_a-fputc.o)
 .debug_aranges
                0x0000000000003c70       0x40 /tools/arm-gnu-toolchain-13.2.Rel1-x86_64-aarch64-none-elf/bin/../lib/gcc/aarch64-none-elf/13.2.1/../../../../aarch64-none-elf/lib/libg.a(libc_a-fputs.o)
 .debug_aranges
                0x0000000000003cb0       0x40 /tools/arm-gnu-toolchain-13.2.Rel1-x86_64-aarch64-none-elf/bin/../lib/gcc/aarch64-none-elf/13.2.1/../../../../aarch64-none-elf/lib/libg.a(libc_a-fiprintf.o)
 .debug_aranges
                0x0000000000003cf0       0x30 /tools/arm-gnu-toolchain-13.2.Rel1-x86_64-aarch64-none-elf/bin/../lib/gcc/aarch64-none-elf/13.2.1/../../../../aarch64-none-elf/lib/libg.a(libc_a-strcpy.o)
 .debug_aranges
                0x0000000000003d20       0x70 /tools/arm-gnu-toolchain-13.2.Rel1-x86_64-aarch64-none-elf/bin/../lib/gcc/aarch64-none-elf/13.2.1/../../../../aarch64-none-elf/lib/libg.a(libc_a-stdio.o)
 .debug_aranges
                0x0000000000003d90       0x80 /tools/arm-gnu-toolchain-13.2.Rel1-x86_64-aarch64-none-elf/bin/../lib/gcc/aarch64-none-elf/13.2.1/../../../../aarch64-none-elf/lib/libg.a(libc_a-wctomb_r.o)
 .debug_aranges
                0x0000000000003e10       0x30 /tools/arm-gnu-toolchain-13.2.Rel1-x86_64-aarch64-none-elf/bin/../lib/gcc/aarch64-none-elf/13.2.1/../../../../aarch64-none-elf/lib/libg.a(libc_a-sbrkr.o)
 .debug_aranges
                0x0000000000003e40       0x30 /tools/arm-gnu-toolchain-13.2.Rel1-x86_64-aarch64-none-elf/bin/../lib/gcc/aarch64-none-elf/13.2.1/../../../../aarch64-none-elf/lib/libg.a(libc_a-fvwrite.o)
 .debug_aranges
                0x0000000000003e70       0x30 /tools/arm-gnu-toolchain-13.2.Rel1-x86_64-aarch64-none-elf/bin/../lib/gcc/aarch64-none-elf/13.2.1/../../../../aarch64-none-elf/lib/libg.a(libc_a-fwalk.o)
 .debug_aranges
                0x0000000000003ea0       0x30 /tools/arm-gnu-toolchain-13.2.Rel1-x86_64-aarch64-none-elf/bin/../lib/gcc/aarch64-none-elf/13.2.1/../../../../aarch64-none-elf/lib/libg.a(libc_a-writer.o)
 .debug_aranges
                0x0000000000003ed0       0x40 /tools/arm-gnu-toolchain-13.2.Rel1-x86_64-aarch64-none-elf/bin/../lib/gcc/aarch64-none-elf/13.2.1/../../../../aarch64-none-elf/lib/libg.a(libc_a-svfiprintf.o)
 .debug_aranges
                0x0000000000003f10       0x50 /tools/arm-gnu-toolchain-13.2.Rel1-x86_64-aarch64-none-elf/bin/../lib/gcc/aarch64-none-elf/13.2.1/../../../../aarch64-none-elf/lib/libg.a(libc_a-vfprintf.o)
 .debug_aranges
                0x0000000000003f60       0x70 /tools/arm-gnu-toolchain-13.2.Rel1-x86_64-aarch64-none-elf/bin/../lib/gcc/aarch64-none-elf/13.2.1/../../../../aarch64-none-elf/lib/libg.a(libc_a-vfiprintf.o)
 .debug_aranges
                0x0000000000003fd0       0x30 /tools/arm-gnu-toolchain-13.2.Rel1-x86_64-aarch64-none-elf/bin/../lib/gcc/aarch64-none-elf/13.2.1/../../../../aarch64-none-elf/lib/libg.a(libc_a-u_strerr.o)
 .debug_aranges
                0x0000000000004000       0x30 /tools/arm-gnu-toolchain-13.2.Rel1-x86_64-aarch64-none-elf/bin/../lib/gcc/aarch64-none-elf/13.2.1/../../../../aarch64-none-elf/lib/libg.a(libc_a-abort.o)
 .debug_aranges
                0x0000000000004030       0x80 /tools/arm-gnu-toolchain-13.2.Rel1-x86_64-aarch64-none-elf/bin/../lib/gcc/aarch64-none-elf/13.2.1/../../../../aarch64-none-elf/lib/libg.a(libc_a-mbtowc_r.o)
 .debug_aranges
                0x00000000000040b0       0x30 /tools/arm-gnu-toolchain-13.2.Rel1-x86_64-aarch64-none-elf/bin/../lib/gcc/aarch64-none-elf/13.2.1/../../../../aarch64-none-elf/lib/libg.a(libc_a-strcat.o)
 .debug_aranges
                0x00000000000040e0       0xc0 /tools/arm-gnu-toolchain-13.2.Rel1-x86_64-aarch64-none-elf/bin/../lib/gcc/aarch64-none-elf/13.2.1/../../../../aarch64-none-elf/lib/libg.a(libc_a-lock.o)
 .debug_aranges
                0x00000000000041a0       0x40 /tools/arm-gnu-toolchain-13.2.Rel1-x86_64-aarch64-none-elf/bin/../lib/gcc/aarch64-none-elf/13.2.1/../../../../aarch64-none-elf/lib/libg.a(libc_a-fclose.o)
 .debug_aranges
                0x00000000000041e0       0x30 /tools/arm-gnu-toolchain-13.2.Rel1-x86_64-aarch64-none-elf/bin/../lib/gcc/aarch64-none-elf/13.2.1/../../../../aarch64-none-elf/lib/libg.a(libc_a-wsetup.o)
 .debug_aranges
                0x0000000000004210       0x40 /tools/arm-gnu-toolchain-13.2.Rel1-x86_64-aarch64-none-elf/bin/../lib/gcc/aarch64-none-elf/13.2.1/../../../../aarch64-none-elf/lib/libg.a(libc_a-makebuf.o)
 .debug_aranges
                0x0000000000004250       0x40 /tools/arm-gnu-toolchain-13.2.Rel1-x86_64-aarch64-none-elf/bin/../lib/gcc/aarch64-none-elf/13.2.1/../../../../aarch64-none-elf/lib/libg.a(libc_a-putc.o)
 .debug_aranges
                0x0000000000004290       0x50 /tools/arm-gnu-toolchain-13.2.Rel1-x86_64-aarch64-none-elf/bin/../lib/gcc/aarch64-none-elf/13.2.1/../../../../aarch64-none-elf/lib/libg.a(libc_a-wcsnrtombs.o)
 .debug_aranges
                0x00000000000042e0       0x30 /tools/arm-gnu-toolchain-13.2.Rel1-x86_64-aarch64-none-elf/bin/../lib/gcc/aarch64-none-elf/13.2.1/../../../../aarch64-none-elf/lib/libg.a(libc_a-closer.o)
 .debug_aranges
                0x0000000000004310       0x50 /tools/arm-gnu-toolchain-13.2.Rel1-x86_64-aarch64-none-elf/bin/../lib/gcc/aarch64-none-elf/13.2.1/../../../../aarch64-none-elf/lib/libg.a(libc_a-fflush.o)
 .debug_aranges
                0x0000000000004360       0x20 /tools/arm-gnu-toolchain-13.2.Rel1-x86_64-aarch64-none-elf/bin/../lib/gcc/aarch64-none-elf/13.2.1/../../../../aarch64-none-elf/lib/libg.a(libc_a-environ.o)
 .debug_aranges
                0x0000000000004380       0x30 /tools/arm-gnu-toolchain-13.2.Rel1-x86_64-aarch64-none-elf/bin/../lib/gcc/aarch64-none-elf/13.2.1/../../../../aarch64-none-elf/lib/libg.a(libc_a-reallocr.o)
 .debug_aranges
                0x00000000000043b0       0x40 /tools/arm-gnu-toolchain-13.2.Rel1-x86_64-aarch64-none-elf/bin/../lib/gcc/aarch64-none-elf/13.2.1/../../../../aarch64-none-elf/lib/libg.a(libc_a-envlock.o)
 .debug_aranges
                0x00000000000043f0       0x30 /tools/arm-gnu-toolchain-13.2.Rel1-x86_64-aarch64-none-elf/bin/../lib/gcc/aarch64-none-elf/13.2.1/../../../../aarch64-none-elf/lib/libg.a(libc_a-fstatr.o)
 .debug_aranges
                0x0000000000004420       0xa0 /tools/arm-gnu-toolchain-13.2.Rel1-x86_64-aarch64-none-elf/bin/../lib/gcc/aarch64-none-elf/13.2.1/../../../../aarch64-none-elf/lib/libg.a(libc_a-signal.o)
 .debug_aranges
                0x00000000000044c0       0x30 /tools/arm-gnu-toolchain-13.2.Rel1-x86_64-aarch64-none-elf/bin/../lib/gcc/aarch64-none-elf/13.2.1/../../../../aarch64-none-elf/lib/libg.a(libc_a-isattyr.o)
 .debug_aranges
                0x00000000000044f0       0x30 /tools/arm-gnu-toolchain-13.2.Rel1-x86_64-aarch64-none-elf/bin/../lib/gcc/aarch64-none-elf/13.2.1/../../../../aarch64-none-elf/lib/libg.a(libc_a-lseekr.o)
 .debug_aranges
                0x0000000000004520       0x30 /tools/arm-gnu-toolchain-13.2.Rel1-x86_64-aarch64-none-elf/bin/../lib/gcc/aarch64-none-elf/13.2.1/../../../../aarch64-none-elf/lib/libg.a(libc_a-readr.o)
 .debug_aranges
                0x0000000000004550       0x50 /tools/arm-gnu-toolchain-13.2.Rel1-x86_64-aarch64-none-elf/bin/../lib/gcc/aarch64-none-elf/13.2.1/../../../../aarch64-none-elf/lib/libg.a(libc_a-fputwc.o)
 .debug_aranges
                0x00000000000045a0       0x40 /tools/arm-gnu-toolchain-13.2.Rel1-x86_64-aarch64-none-elf/bin/../lib/gcc/aarch64-none-elf/13.2.1/../../../../aarch64-none-elf/lib/libg.a(libc_a-signalr.o)
 .debug_aranges
                0x00000000000045e0       0x40 /tools/arm-gnu-toolchain-13.2.Rel1-x86_64-aarch64-none-elf/bin/../lib/gcc/aarch64-none-elf/13.2.1/../../../../aarch64-none-elf/lib/libg.a(libc_a-wbuf.o)
 .debug_aranges
                0x0000000000004620       0x30 /tools/arm-gnu-toolchain-13.2.Rel1-x86_64-aarch64-none-elf/bin/../lib/gcc/aarch64-none-elf/13.2.1/libgcc.a(trunctfdf2.o)
 .debug_aranges
                0x0000000000004650       0x30 /tools/arm-gnu-toolchain-13.2.Rel1-x86_64-aarch64-none-elf/bin/../lib/gcc/aarch64-none-elf/13.2.1/libgcc.a(sfp-exceptions.o)

.debug_rnglists
                0x0000000000000000     0xabe1
 .debug_rnglists
                0x0000000000000000       0x52 CMakeFiles/freertos_kernel.elf.dir/main.c.o
 .debug_rnglists
                0x0000000000000052       0x16 gloss/CMakeFiles/freedom_metal.dir/freedom_metal.c.o
 .debug_rnglists
                0x0000000000000068       0x17 gloss/CMakeFiles/freedom_metal.dir/sys_getpid.c.o
 .debug_rnglists
                0x000000000000007f       0x13 gloss/CMakeFiles/freedom_metal.dir/sys_times.c.o
 .debug_rnglists
                0x0000000000000092       0x29 build/drivers/mailbox/CMakeFiles/mailbox.dir/mailbox.c.o
 .debug_rnglists
                0x00000000000000bb       0x2e build/drivers/mailbox/CMakeFiles/mailbox.dir/mailbox_cb.c.o
 .debug_rnglists
                0x00000000000000e9       0x89 build/drivers/uart/CMakeFiles/uart.dir/uart.c.o
 .debug_rnglists
                0x0000000000000172      0x3c3 build/drivers/dma/CMakeFiles/dma.dir/pl330.c.o
 .debug_rnglists
                0x0000000000000535       0xfe build/drivers/gpio/CMakeFiles/gpio.dir/gpio.c.o
 .debug_rnglists
                0x0000000000000633      0x15f build/drivers/smmu/CMakeFiles/smmu.dir/smmu.c.o
 .debug_rnglists
                0x0000000000000792       0xd2 build/drivers/smmu/CMakeFiles/smmu.dir/smmu_pmu.c.o
 .debug_rnglists
                0x0000000000000864      0x88f build/drivers/pvt_con/CMakeFiles/pvt_con.dir/pvt_con.c.o
 .debug_rnglists
                0x00000000000010f3       0x2d build/drivers/cmu/CMakeFiles/cmu.dir/cmu.c.o
 .debug_rnglists
                0x0000000000001120       0x25 build/drivers/watchdog/CMakeFiles/watchdog.dir/dw_apb_wdt.c.o
 .debug_rnglists
                0x0000000000001145      0x130 build/drivers/rbc/CMakeFiles/rbc.dir/aw_ucie.c.o
 .debug_rnglists
                0x0000000000001275       0x73 build/drivers/rbc/CMakeFiles/rbc.dir/rbc_driver.c.o
 .debug_rnglists
                0x00000000000012e8      0x10b build/drivers/rbc/CMakeFiles/rbc.dir/rbc_cmd.c.o
 .debug_rnglists
                0x00000000000013f3      0x290 build/drivers/rbcm/CMakeFiles/rbcm.dir/rbcm_core.c.o
 .debug_rnglists
                0x0000000000001683      0x13c build/drivers/rbcm/CMakeFiles/rbcm.dir/rbcm_driver.c.o
 .debug_rnglists
                0x00000000000017bf      0x169 build/drivers/i2c/CMakeFiles/i2c.dir/i2c.c.o
 .debug_rnglists
                0x0000000000001928       0x21 build/drivers/noc_logger/CMakeFiles/noc_logger.dir/noc_logger.c.o
 .debug_rnglists
                0x0000000000001949       0x16 build/drivers/hbm3/CMakeFiles/hbm3.dir/hbm3.c.o
 .debug_rnglists
                0x000000000000195f       0x22 build/drivers/hbm3/CMakeFiles/hbm3.dir/icon.c.o
 .debug_rnglists
                0x0000000000001981       0x97 build/drivers/hbm3/CMakeFiles/hbm3.dir/hbm3_irq.c.o
 .debug_rnglists
                0x0000000000001a18       0x63 build/drivers/hbm3/CMakeFiles/hbm3.dir/hbm3_am.c.o
 .debug_rnglists
                0x0000000000001a7b       0x3b build/drivers/pmic/CMakeFiles/pmic.dir/ltc1427cs8.c.o
 .debug_rnglists
                0x0000000000001ab6       0x1c build/drivers/pmic/CMakeFiles/pmic.dir/g1505.c.o
 .debug_rnglists
                0x0000000000001ad2       0x48 build/drivers/pmic/CMakeFiles/pmic.dir/pmic_mgr.c.o
 .debug_rnglists
                0x0000000000001b1a       0x23 build/drivers/dvfs/CMakeFiles/dvfs.dir/dvfs.c.o
 .debug_rnglists
                0x0000000000001b3d       0x91 build/drivers/sic/CMakeFiles/sic.dir/sic.c.o
 .debug_rnglists
                0x0000000000001bce       0x17 build/drivers/timer/dw_apb_timer/CMakeFiles/dw_apb_timer.dir/dw_apb_timer.c.o
 .debug_rnglists
                0x0000000000001be5       0x77 build/drivers/qspi/qspi_apb/CMakeFiles/qspi_apb.dir/qspi_apb.c.o
 .debug_rnglists
                0x0000000000001c5c       0x59 build/tests/interrupt_test_helper_example/CMakeFiles/interrupt_test_helper_example.dir/example_test.c.o
 .debug_rnglists
                0x0000000000001cb5       0x1a build/tests/arch/CMakeFiles/test_arch.dir/test_cli.c.o
 .debug_rnglists
                0x0000000000001ccf       0x52 build/tests/gpio/CMakeFiles/test_gpio.dir/test_gpio.c.o
 .debug_rnglists
                0x0000000000001d21       0x27 build/tests/mailbox/CMakeFiles/mailbox_test.dir/test_mailbox_main.c.o
 .debug_rnglists
                0x0000000000001d48      0x191 build/tests/pvt_con/CMakeFiles/test_pvt_con.dir/test_pvt_con.c.o
 .debug_rnglists
                0x0000000000001ed9       0xa4 build/tests/arch/arm64/CMakeFiles/test_arm64.dir/test_ca73.c.o
 .debug_rnglists
                0x0000000000001f7d       0x22 build/tests/timer/dw_apb_timer/CMakeFiles/test_dw_apb_timer.dir/test_dw_apb_timer.c.o
 .debug_rnglists
                0x0000000000001f9f       0x1c build/tests/cmu/CMakeFiles/test_cmu.dir/test_cmu_main.c.o
 .debug_rnglists
                0x0000000000001fbb       0x21 build/tests/smmu/CMakeFiles/test_mmu.dir/test_mmu_main.c.o
 .debug_rnglists
                0x0000000000001fdc       0x79 build/tests/log/CMakeFiles/show_log.dir/rebel_h_log.c.o
 .debug_rnglists
                0x0000000000002055       0xa0 build/tests/rbc/CMakeFiles/test_rbc.dir/test/all_test.c.o
 .debug_rnglists
                0x00000000000020f5       0x8c build/tests/rbc/CMakeFiles/test_rbc.dir/test/test_aw_ucie_init.c.o
 .debug_rnglists
                0x0000000000002181       0x22 build/tests/rbc/CMakeFiles/test_rbc.dir/test/test_aw_ucie_d2d_comp.c.o
 .debug_rnglists
                0x00000000000021a3       0x22 build/tests/rbc/CMakeFiles/test_rbc.dir/test/test_aw_ucie_d2d_err_and_link.c.o
 .debug_rnglists
                0x00000000000021c5       0x22 build/tests/rbc/CMakeFiles/test_rbc.dir/test/test_aw_ucie_retraining.c.o
 .debug_rnglists
                0x00000000000021e7       0x22 build/tests/rbc/CMakeFiles/test_rbc.dir/test/test_aw_ucie_sideband.c.o
 .debug_rnglists
                0x0000000000002209       0x83 build/tests/rbc/CMakeFiles/test_rbc.dir/test/test_aw_ucie_training.c.o
 .debug_rnglists
                0x000000000000228c       0xb5 build/tests/rbc/CMakeFiles/test_rbc.dir/test/test_aw_ucie_runtime_link_test.c.o
 .debug_rnglists
                0x0000000000002341       0x22 build/tests/rbc/CMakeFiles/test_rbc.dir/test/test_aw_ucie_phy_compliance_test.c.o
 .debug_rnglists
                0x0000000000002363      0x216 build/tests/rbc/CMakeFiles/test_rbc.dir/test/test_aw_ucie_exception.c.o
 .debug_rnglists
                0x0000000000002579       0xd6 build/tests/rbc/CMakeFiles/test_rbc.dir/test/test_aw_ucie_eye_of_margin.c.o
 .debug_rnglists
                0x000000000000264f       0x35 build/tests/rbc/CMakeFiles/test_rbc.dir/test/test_aw_ucie_util.c.o
 .debug_rnglists
                0x0000000000002684       0x43 build/tests/rbc/CMakeFiles/test_rbc.dir/test/test_rbc_driver.c.o
 .debug_rnglists
                0x00000000000026c7      0x29a build/tests/rbcm/CMakeFiles/test_rbcm.dir/rbcm_test.c.o
 .debug_rnglists
                0x0000000000002961       0x70 build/tests/rbcm/CMakeFiles/test_rbcm.dir/rbcm_reg_access_test.c.o
 .debug_rnglists
                0x00000000000029d1       0x70 build/tests/i2c/CMakeFiles/test_i2c.dir/test_i2c_main.c.o
 .debug_rnglists
                0x0000000000002a41       0x75 build/tests/hbm3/CMakeFiles/hbm3_test.dir/memtest.c.o
 .debug_rnglists
                0x0000000000002ab6       0x20 build/tests/hbm3/CMakeFiles/hbm3_test.dir/hbm3_irq_test.c.o
 .debug_rnglists
                0x0000000000002ad6      0x116 build/tests/system_test/CMakeFiles/system_test.dir/test_system.c.o
 .debug_rnglists
                0x0000000000002bec       0x17 build/tests/system_test/CMakeFiles/system_test.dir/dma_transaction.c.o
 .debug_rnglists
                0x0000000000002c03       0x32 build/tests/system_test/CMakeFiles/system_test.dir/test_dma_transaction.c.o
 .debug_rnglists
                0x0000000000002c35      0x95f build/tests/system_test/CMakeFiles/system_test.dir/data_process.c.o
 .debug_rnglists
                0x0000000000003594       0x4c build/tests/system_test/CMakeFiles/system_test.dir/test_data_process.c.o
 .debug_rnglists
                0x00000000000035e0       0x38 build/tests/dvfs/CMakeFiles/test_dvfs.dir/test_dvfs_main.c.o
 .debug_rnglists
                0x0000000000003618       0x3c build/tests/pmic/CMakeFiles/test_pmic.dir/test_pmic_main.c.o
 .debug_rnglists
                0x0000000000003654       0xf2 build/tests/pvt_con/CMakeFiles/pvt_cli.dir/pvt_cli_show.c.o
 .debug_rnglists
                0x0000000000003746       0x2d build/tests/pvt_con/CMakeFiles/pvt_cli.dir/pvt_cli_enable.c.o
 .debug_rnglists
                0x0000000000003773       0x39 build/tests/pvt_con/CMakeFiles/pvt_cli.dir/pvt_cli_disable.c.o
 .debug_rnglists
                0x00000000000037ac       0x1a build/tests/pvt_con/CMakeFiles/pvt_cli.dir/pvt_cli_set.c.o
 .debug_rnglists
                0x00000000000037c6       0x36 build/tests/chipid/CMakeFiles/test_chipid.dir/read_chipid.c.o
 .debug_rnglists
                0x00000000000037fc      0x184 build/tests/rbdma/CMakeFiles/test_rbdma.dir/rbdma_tsync_test.c.o
 .debug_rnglists
                0x0000000000003980       0x24 build/tests/rbdma/CMakeFiles/test_rbdma.dir/test_main_rbdma.c.o
 .debug_rnglists
                0x00000000000039a4      0x2ce libfreertos_kernel.a(queue.c.o)
 .debug_rnglists
                0x0000000000003c72      0xb10 libfreertos_kernel.a(tasks.c.o)
 .debug_rnglists
                0x0000000000004782      0x17a libfreertos_kernel.a(timers.c.o)
 .debug_rnglists
                0x00000000000048fc       0x83 libfreertos_kernel.a(heap_4.c.o)
 .debug_rnglists
                0x000000000000497f       0x3f libfreertos_kernel.a(list.c.o)
 .debug_rnglists
                0x00000000000049be       0x97 portable/libfreertos_kernel_port.a(port.c.o)
 .debug_rnglists
                0x0000000000004a55      0x1cb build/drivers/intc/libintc.a(gicv3.c.o)
 .debug_rnglists
                0x0000000000004c20       0x33 build/drivers/intc/libintc.a(bakery_lock.c.o)
 .debug_rnglists
                0x0000000000004c53       0x41 services/cli_service/libcli_service.a(cli_task.c.o)
 .debug_rnglists
                0x0000000000004c94       0xb4 services/cli_service/libcli_service.a(sys_command_line.c.o)
 .debug_rnglists
                0x0000000000004d48       0x24 services/terminal_service/libterminal_service.a(console_uart.c.o)
 .debug_rnglists
                0x0000000000004d6c       0x1c services/terminal_service/libterminal_service.a(console.c.o)
 .debug_rnglists
                0x0000000000004d88       0x47 services/terminal_service/libterminal_service.a(terminal_task.c.o)
 .debug_rnglists
                0x0000000000004dcf     0x1cb5 services/replay_service/libreplay_service.a(replay.c.o)
 .debug_rnglists
                0x0000000000006a84      0x14e services/replay_service/libreplay_service.a(sub_function.c.o)
 .debug_rnglists
                0x0000000000006bd2       0x35 services/replay_service/libreplay_service.a(tpg_cli.c.o)
 .debug_rnglists
                0x0000000000006c07      0x2b2 services/replay_service/libreplay_service.a(rbdma_cli.c.o)
 .debug_rnglists
                0x0000000000006eb9       0x17 services/replay_service/libreplay_service.a(mem_cli.c.o)
 .debug_rnglists
                0x0000000000006ed0       0x98 services/replay_service/libreplay_service.a(cmgr_if.c.o)
 .debug_rnglists
                0x0000000000006f68      0xb28 services/replay_service/libreplay_service.a(dnc_if.c.o)
 .debug_rnglists
                0x0000000000007a90      0x19d services/replay_service/libreplay_service.a(rdsn_if.c.o)
 .debug_rnglists
                0x0000000000007c2d       0x71 services/replay_service/libreplay_service.a(ptw.c.o)
 .debug_rnglists
                0x0000000000007c9e      0x2a8 services/replay_service/libreplay_service.a(rbdma_if.c.o)
 .debug_rnglists
                0x0000000000007f46       0xb8 services/replay_service/libreplay_service.a(shm_if.c.o)
 .debug_rnglists
                0x0000000000007ffe       0xcb services/replay_service/libreplay_service.a(tbu_wrapper.c.o)
 .debug_rnglists
                0x00000000000080c9       0x17 services/replay_service/libreplay_service.a(debug.c.o)
 .debug_rnglists
                0x00000000000080e0       0x42 services/replay_service/libreplay_service.a(ici.c.o)
 .debug_rnglists
                0x0000000000008122       0x3c services/replay_service/libreplay_service.a(page_table_gen.c.o)
 .debug_rnglists
                0x000000000000815e       0x68 services/replay_service/libreplay_service.a(profile.c.o)
 .debug_rnglists
                0x00000000000081c6       0x73 services/replay_service/libreplay_service.a(rl_queue.c.o)
 .debug_rnglists
                0x0000000000008239       0x8e services/replay_service/libreplay_service.a(abort.c.o)
 .debug_rnglists
                0x00000000000082c7       0x36 services/replay_service/libreplay_service.a(log.c.o)
 .debug_rnglists
                0x00000000000082fd       0x57 services/replay_service/libreplay_service.a(rand.c.o)
 .debug_rnglists
                0x0000000000008354       0xba services/replay_service/libreplay_service.a(backtrace.c.o)
 .debug_rnglists
                0x000000000000840e       0x7c services/replay_service/libreplay_service.a(argparse.c.o)
 .debug_rnglists
                0x000000000000848a       0x17 services/replay_service/libreplay_service.a(rush_cli_util.c.o)
 .debug_rnglists
                0x00000000000084a1       0x17 services/task_adder_service/libtask_adder_service.a(task_adder.c.o)
 .debug_rnglists
                0x00000000000084b8       0x16 portable/libfreertos_arch.a(prep_c.c.o)
 .debug_rnglists
                0x00000000000084ce       0x38 libfreertos_kernel_config.a(FreeRTOS_tick_config.c.o)
 .debug_rnglists
                0x0000000000008506       0x42 portable/libsmp.a(smp.c.o)
 .debug_rnglists
                0x0000000000008548      0x275 portable/libmmu.a(mmu.c.o)
 .debug_rnglists
                0x00000000000087bd       0x5c build/interrupt_test_helper/libinterrupt_test_helper.a(interrupt_test_helper.c.o)
 .debug_rnglists
                0x0000000000008819      0x255 build/unity/libunity.a(unity.c.o)
 .debug_rnglists
                0x0000000000008a6e       0x31 build/unity/libunity.a(unity_fixture.c.o)
 .debug_rnglists
                0x0000000000008a9f       0x1e build/drivers/psci/libpsci.a(psci.c.o)
 .debug_rnglists
                0x0000000000008abd       0xe0 libfreertos_kernel.a(event_groups.c.o)
 .debug_rnglists
                0x0000000000008b9d      0x178 libfreertos_kernel.a(stream_buffer.c.o)
 .debug_rnglists
                0x0000000000008d15      0x1bc build/common/arch/libcommon.a(printf.c.o)
 .debug_rnglists
                0x0000000000008ed1       0x34 build/common/arch/libcommon.a(system_api.c.o)
 .debug_rnglists
                0x0000000000008f05       0x48 build/drivers/timer/generic_timer/libgeneric_timer.a(generic_timer.c.o)
 .debug_rnglists
                0x0000000000008f4d       0xd6 /tools/arm-gnu-toolchain-13.2.Rel1-x86_64-aarch64-none-elf/bin/../lib/gcc/aarch64-none-elf/13.2.1/../../../../aarch64-none-elf/lib/libg.a(libc_a-strtod.o)
 .debug_rnglists
                0x0000000000009023       0x6c /tools/arm-gnu-toolchain-13.2.Rel1-x86_64-aarch64-none-elf/bin/../lib/gcc/aarch64-none-elf/13.2.1/../../../../aarch64-none-elf/lib/libg.a(libc_a-strtol.o)
 .debug_rnglists
                0x000000000000908f       0x78 /tools/arm-gnu-toolchain-13.2.Rel1-x86_64-aarch64-none-elf/bin/../lib/gcc/aarch64-none-elf/13.2.1/../../../../aarch64-none-elf/lib/libg.a(libc_a-gdtoa-gethex.o)
 .debug_rnglists
                0x0000000000009107       0x36 /tools/arm-gnu-toolchain-13.2.Rel1-x86_64-aarch64-none-elf/bin/../lib/gcc/aarch64-none-elf/13.2.1/../../../../aarch64-none-elf/lib/libg.a(libc_a-strtoul.o)
 .debug_rnglists
                0x000000000000913d       0x34 /tools/arm-gnu-toolchain-13.2.Rel1-x86_64-aarch64-none-elf/bin/../lib/gcc/aarch64-none-elf/13.2.1/../../../../aarch64-none-elf/lib/libg.a(libc_a-gdtoa-hexnan.o)
 .debug_rnglists
                0x0000000000009171       0x36 /tools/arm-gnu-toolchain-13.2.Rel1-x86_64-aarch64-none-elf/bin/../lib/gcc/aarch64-none-elf/13.2.1/../../../../aarch64-none-elf/lib/libg.a(libc_a-strtoll.o)
 .debug_rnglists
                0x00000000000091a7       0x18 /tools/arm-gnu-toolchain-13.2.Rel1-x86_64-aarch64-none-elf/bin/../lib/gcc/aarch64-none-elf/13.2.1/../../../../aarch64-none-elf/lib/libg.a(libc_a-strncpy.o)
 .debug_rnglists
                0x00000000000091bf       0x36 /tools/arm-gnu-toolchain-13.2.Rel1-x86_64-aarch64-none-elf/bin/../lib/gcc/aarch64-none-elf/13.2.1/../../../../aarch64-none-elf/lib/libg.a(libc_a-strtoull.o)
 .debug_rnglists
                0x00000000000091f5       0x23 /tools/arm-gnu-toolchain-13.2.Rel1-x86_64-aarch64-none-elf/bin/../lib/gcc/aarch64-none-elf/13.2.1/../../../../aarch64-none-elf/lib/libg.a(libc_a-sprintf.o)
 .debug_rnglists
                0x0000000000009218       0x17 /tools/arm-gnu-toolchain-13.2.Rel1-x86_64-aarch64-none-elf/bin/../lib/gcc/aarch64-none-elf/13.2.1/../../../../aarch64-none-elf/lib/libg.a(libc_a-strspn.o)
 .debug_rnglists
                0x000000000000922f       0x17 /tools/arm-gnu-toolchain-13.2.Rel1-x86_64-aarch64-none-elf/bin/../lib/gcc/aarch64-none-elf/13.2.1/../../../../aarch64-none-elf/lib/libg.a(libc_a-strtok.o)
 .debug_rnglists
                0x0000000000009246       0x22 /tools/arm-gnu-toolchain-13.2.Rel1-x86_64-aarch64-none-elf/bin/../lib/gcc/aarch64-none-elf/13.2.1/../../../../aarch64-none-elf/lib/libg.a(libc_a-strtok_r.o)
 .debug_rnglists
                0x0000000000009268       0xcb /tools/arm-gnu-toolchain-13.2.Rel1-x86_64-aarch64-none-elf/bin/../lib/gcc/aarch64-none-elf/13.2.1/../../../../aarch64-none-elf/lib/libg.a(libc_a-strstr.o)
 .debug_rnglists
                0x0000000000009333      0x145 /tools/arm-gnu-toolchain-13.2.Rel1-x86_64-aarch64-none-elf/bin/../lib/gcc/aarch64-none-elf/13.2.1/../../../../aarch64-none-elf/lib/libg.a(libc_a-getopt.o)
 .debug_rnglists
                0x0000000000009478       0x17 /tools/arm-gnu-toolchain-13.2.Rel1-x86_64-aarch64-none-elf/bin/../lib/gcc/aarch64-none-elf/13.2.1/../../../../aarch64-none-elf/lib/libg.a(libc_a-errno.o)
 .debug_rnglists
                0x000000000000948f      0x1d7 /tools/arm-gnu-toolchain-13.2.Rel1-x86_64-aarch64-none-elf/bin/../lib/gcc/aarch64-none-elf/13.2.1/../../../../aarch64-none-elf/lib/libg.a(libc_a-svfprintf.o)
 .debug_rnglists
                0x0000000000009666       0x3d /tools/arm-gnu-toolchain-13.2.Rel1-x86_64-aarch64-none-elf/bin/../lib/gcc/aarch64-none-elf/13.2.1/../../../../aarch64-none-elf/lib/libg.a(libc_a-vsnprintf.o)
 .debug_rnglists
                0x00000000000096a3       0x21 /tools/arm-gnu-toolchain-13.2.Rel1-x86_64-aarch64-none-elf/bin/../lib/gcc/aarch64-none-elf/13.2.1/../../../../aarch64-none-elf/lib/libg.a(libc_a-malloc.o)
 .debug_rnglists
                0x00000000000096c4       0x49 /tools/arm-gnu-toolchain-13.2.Rel1-x86_64-aarch64-none-elf/bin/../lib/gcc/aarch64-none-elf/13.2.1/../../../../aarch64-none-elf/lib/libg.a(libc_a-mallocr.o)
 .debug_rnglists
                0x000000000000970d       0x21 /tools/arm-gnu-toolchain-13.2.Rel1-x86_64-aarch64-none-elf/bin/../lib/gcc/aarch64-none-elf/13.2.1/../../../../aarch64-none-elf/lib/libg.a(libc_a-assert.o)
 .debug_rnglists
                0x000000000000972e       0x56 /tools/arm-gnu-toolchain-13.2.Rel1-x86_64-aarch64-none-elf/bin/../lib/gcc/aarch64-none-elf/13.2.1/../../../../aarch64-none-elf/lib/libg.a(libc_a-strcasecmp.o)
 .debug_rnglists
                0x0000000000009784       0x23 /tools/arm-gnu-toolchain-13.2.Rel1-x86_64-aarch64-none-elf/bin/../lib/gcc/aarch64-none-elf/13.2.1/../../../../aarch64-none-elf/lib/libg.a(libc_a-wcrtomb.o)
 .debug_rnglists
                0x00000000000097a7       0x5e /tools/arm-gnu-toolchain-13.2.Rel1-x86_64-aarch64-none-elf/bin/../lib/gcc/aarch64-none-elf/13.2.1/../../../../aarch64-none-elf/lib/libg.a(libc_a-locale.o)
 .debug_rnglists
                0x0000000000009805       0x2b /tools/arm-gnu-toolchain-13.2.Rel1-x86_64-aarch64-none-elf/bin/../lib/gcc/aarch64-none-elf/13.2.1/../../../../aarch64-none-elf/lib/libg.a(libc_a-localeconv.o)
 .debug_rnglists
                0x0000000000009830       0x22 /tools/arm-gnu-toolchain-13.2.Rel1-x86_64-aarch64-none-elf/bin/../lib/gcc/aarch64-none-elf/13.2.1/../../../../aarch64-none-elf/lib/libg.a(libc_a-printf.o)
 .debug_rnglists
                0x0000000000009852       0x21 /tools/arm-gnu-toolchain-13.2.Rel1-x86_64-aarch64-none-elf/bin/../lib/gcc/aarch64-none-elf/13.2.1/../../../../aarch64-none-elf/lib/libg.a(libc_a-putchar.o)
 .debug_rnglists
                0x0000000000009873       0x37 /tools/arm-gnu-toolchain-13.2.Rel1-x86_64-aarch64-none-elf/bin/../lib/gcc/aarch64-none-elf/13.2.1/../../../../aarch64-none-elf/lib/libg.a(libc_a-puts.o)
 .debug_rnglists
                0x00000000000098aa       0x21 /tools/arm-gnu-toolchain-13.2.Rel1-x86_64-aarch64-none-elf/bin/../lib/gcc/aarch64-none-elf/13.2.1/../../../../aarch64-none-elf/lib/libg.a(libc_a-mlock.o)
 .debug_rnglists
                0x00000000000098cb      0x1ba /tools/arm-gnu-toolchain-13.2.Rel1-x86_64-aarch64-none-elf/bin/../lib/gcc/aarch64-none-elf/13.2.1/../../../../aarch64-none-elf/lib/libg.a(libc_a-mprec.o)
 .debug_rnglists
                0x0000000000009a85       0x21 /tools/arm-gnu-toolchain-13.2.Rel1-x86_64-aarch64-none-elf/bin/../lib/gcc/aarch64-none-elf/13.2.1/../../../../aarch64-none-elf/lib/libg.a(libc_a-atoi.o)
 .debug_rnglists
                0x0000000000009aa6       0x21 /tools/arm-gnu-toolchain-13.2.Rel1-x86_64-aarch64-none-elf/bin/../lib/gcc/aarch64-none-elf/13.2.1/../../../../aarch64-none-elf/lib/libg.a(libc_a-rand.o)
 .debug_rnglists
                0x0000000000009ac7       0x3e /tools/arm-gnu-toolchain-13.2.Rel1-x86_64-aarch64-none-elf/bin/../lib/gcc/aarch64-none-elf/13.2.1/../../../../aarch64-none-elf/lib/libg.a(libc_a-callocr.o)
 .debug_rnglists
                0x0000000000009b05       0x21 /tools/arm-gnu-toolchain-13.2.Rel1-x86_64-aarch64-none-elf/bin/../lib/gcc/aarch64-none-elf/13.2.1/../../../../aarch64-none-elf/lib/libg.a(libc_a-wcsrtombs.o)
 .debug_rnglists
                0x0000000000009b26       0x4c /tools/arm-gnu-toolchain-13.2.Rel1-x86_64-aarch64-none-elf/bin/../lib/gcc/aarch64-none-elf/13.2.1/../../../../aarch64-none-elf/lib/libg.a(libc_a-dtoa.o)
 .debug_rnglists
                0x0000000000009b72       0x2c /tools/arm-gnu-toolchain-13.2.Rel1-x86_64-aarch64-none-elf/bin/../lib/gcc/aarch64-none-elf/13.2.1/../../../../aarch64-none-elf/lib/libg.a(libc_a-strerror.o)
 .debug_rnglists
                0x0000000000009b9e       0x17 /tools/arm-gnu-toolchain-13.2.Rel1-x86_64-aarch64-none-elf/bin/../lib/gcc/aarch64-none-elf/13.2.1/../../../../aarch64-none-elf/lib/libg.a(libc_a-ctype_.o)
 .debug_rnglists
                0x0000000000009bb5       0x18 /tools/arm-gnu-toolchain-13.2.Rel1-x86_64-aarch64-none-elf/bin/../lib/gcc/aarch64-none-elf/13.2.1/../../../../aarch64-none-elf/lib/libg.a(libc_a-reent.o)
 .debug_rnglists
                0x0000000000009bcd      0x14b /tools/arm-gnu-toolchain-13.2.Rel1-x86_64-aarch64-none-elf/bin/../lib/gcc/aarch64-none-elf/13.2.1/../../../../aarch64-none-elf/lib/libg.a(libc_a-findfp.o)
 .debug_rnglists
                0x0000000000009d18       0x17 /tools/arm-gnu-toolchain-13.2.Rel1-x86_64-aarch64-none-elf/bin/../lib/gcc/aarch64-none-elf/13.2.1/../../../../aarch64-none-elf/lib/libg.a(libm_a-s_nan.o)
 .debug_rnglists
                0x0000000000009d2f       0x17 /tools/arm-gnu-toolchain-13.2.Rel1-x86_64-aarch64-none-elf/bin/../lib/gcc/aarch64-none-elf/13.2.1/../../../../aarch64-none-elf/lib/libg.a(libm_a-sf_nan.o)
 .debug_rnglists
                0x0000000000009d46       0x3d /tools/arm-gnu-toolchain-13.2.Rel1-x86_64-aarch64-none-elf/bin/../lib/gcc/aarch64-none-elf/13.2.1/../../../../aarch64-none-elf/lib/libg.a(libm_a-s_frexp.o)
 .debug_rnglists
                0x0000000000009d83       0x17 /tools/arm-gnu-toolchain-13.2.Rel1-x86_64-aarch64-none-elf/bin/../lib/gcc/aarch64-none-elf/13.2.1/../../../../aarch64-none-elf/lib/libg.a(libc_a-strlcpy.o)
 .debug_rnglists
                0x0000000000009d9a       0x23 /tools/arm-gnu-toolchain-13.2.Rel1-x86_64-aarch64-none-elf/bin/../lib/gcc/aarch64-none-elf/13.2.1/../../../../aarch64-none-elf/lib/libg.a(libc_a-freer.o)
 .debug_rnglists
                0x0000000000009dbd       0x65 /tools/arm-gnu-toolchain-13.2.Rel1-x86_64-aarch64-none-elf/bin/../lib/gcc/aarch64-none-elf/13.2.1/../../../../aarch64-none-elf/lib/libg.a(libc_a-strncasecmp.o)
 .debug_rnglists
                0x0000000000009e22       0x21 /tools/arm-gnu-toolchain-13.2.Rel1-x86_64-aarch64-none-elf/bin/../lib/gcc/aarch64-none-elf/13.2.1/../../../../aarch64-none-elf/lib/libg.a(libc_a-getenv.o)
 .debug_rnglists
                0x0000000000009e43       0x22 /tools/arm-gnu-toolchain-13.2.Rel1-x86_64-aarch64-none-elf/bin/../lib/gcc/aarch64-none-elf/13.2.1/../../../../aarch64-none-elf/lib/libg.a(libc_a-getenv_r.o)
 .debug_rnglists
                0x0000000000009e65       0x4d /tools/arm-gnu-toolchain-13.2.Rel1-x86_64-aarch64-none-elf/bin/../lib/gcc/aarch64-none-elf/13.2.1/../../../../aarch64-none-elf/lib/libg.a(libc_a-fputc.o)
 .debug_rnglists
                0x0000000000009eb2       0x34 /tools/arm-gnu-toolchain-13.2.Rel1-x86_64-aarch64-none-elf/bin/../lib/gcc/aarch64-none-elf/13.2.1/../../../../aarch64-none-elf/lib/libg.a(libc_a-fputs.o)
 .debug_rnglists
                0x0000000000009ee6       0x21 /tools/arm-gnu-toolchain-13.2.Rel1-x86_64-aarch64-none-elf/bin/../lib/gcc/aarch64-none-elf/13.2.1/../../../../aarch64-none-elf/lib/libg.a(libc_a-fiprintf.o)
 .debug_rnglists
                0x0000000000009f07       0x3f /tools/arm-gnu-toolchain-13.2.Rel1-x86_64-aarch64-none-elf/bin/../lib/gcc/aarch64-none-elf/13.2.1/../../../../aarch64-none-elf/lib/libg.a(libc_a-stdio.o)
 .debug_rnglists
                0x0000000000009f46       0x4d /tools/arm-gnu-toolchain-13.2.Rel1-x86_64-aarch64-none-elf/bin/../lib/gcc/aarch64-none-elf/13.2.1/../../../../aarch64-none-elf/lib/libg.a(libc_a-wctomb_r.o)
 .debug_rnglists
                0x0000000000009f93       0x17 /tools/arm-gnu-toolchain-13.2.Rel1-x86_64-aarch64-none-elf/bin/../lib/gcc/aarch64-none-elf/13.2.1/../../../../aarch64-none-elf/lib/libg.a(libc_a-sbrkr.o)
 .debug_rnglists
                0x0000000000009faa       0x4b /tools/arm-gnu-toolchain-13.2.Rel1-x86_64-aarch64-none-elf/bin/../lib/gcc/aarch64-none-elf/13.2.1/../../../../aarch64-none-elf/lib/libg.a(libc_a-fvwrite.o)
 .debug_rnglists
                0x0000000000009ff5       0x18 /tools/arm-gnu-toolchain-13.2.Rel1-x86_64-aarch64-none-elf/bin/../lib/gcc/aarch64-none-elf/13.2.1/../../../../aarch64-none-elf/lib/libg.a(libc_a-fwalk.o)
 .debug_rnglists
                0x000000000000a00d       0x17 /tools/arm-gnu-toolchain-13.2.Rel1-x86_64-aarch64-none-elf/bin/../lib/gcc/aarch64-none-elf/13.2.1/../../../../aarch64-none-elf/lib/libg.a(libc_a-writer.o)
 .debug_rnglists
                0x000000000000a024       0xa9 /tools/arm-gnu-toolchain-13.2.Rel1-x86_64-aarch64-none-elf/bin/../lib/gcc/aarch64-none-elf/13.2.1/../../../../aarch64-none-elf/lib/libg.a(libc_a-svfiprintf.o)
 .debug_rnglists
                0x000000000000a0cd      0x1ef /tools/arm-gnu-toolchain-13.2.Rel1-x86_64-aarch64-none-elf/bin/../lib/gcc/aarch64-none-elf/13.2.1/../../../../aarch64-none-elf/lib/libg.a(libc_a-vfprintf.o)
 .debug_rnglists
                0x000000000000a2bc      0x196 /tools/arm-gnu-toolchain-13.2.Rel1-x86_64-aarch64-none-elf/bin/../lib/gcc/aarch64-none-elf/13.2.1/../../../../aarch64-none-elf/lib/libg.a(libc_a-vfiprintf.o)
 .debug_rnglists
                0x000000000000a452       0x17 /tools/arm-gnu-toolchain-13.2.Rel1-x86_64-aarch64-none-elf/bin/../lib/gcc/aarch64-none-elf/13.2.1/../../../../aarch64-none-elf/lib/libg.a(libc_a-u_strerr.o)
 .debug_rnglists
                0x000000000000a469       0x17 /tools/arm-gnu-toolchain-13.2.Rel1-x86_64-aarch64-none-elf/bin/../lib/gcc/aarch64-none-elf/13.2.1/../../../../aarch64-none-elf/lib/libg.a(libc_a-abort.o)
 .debug_rnglists
                0x000000000000a480       0x81 /tools/arm-gnu-toolchain-13.2.Rel1-x86_64-aarch64-none-elf/bin/../lib/gcc/aarch64-none-elf/13.2.1/../../../../aarch64-none-elf/lib/libg.a(libc_a-mbtowc_r.o)
 .debug_rnglists
                0x000000000000a501       0x17 /tools/arm-gnu-toolchain-13.2.Rel1-x86_64-aarch64-none-elf/bin/../lib/gcc/aarch64-none-elf/13.2.1/../../../../aarch64-none-elf/lib/libg.a(libc_a-strcat.o)
 .debug_rnglists
                0x000000000000a518       0x71 /tools/arm-gnu-toolchain-13.2.Rel1-x86_64-aarch64-none-elf/bin/../lib/gcc/aarch64-none-elf/13.2.1/../../../../aarch64-none-elf/lib/libg.a(libc_a-lock.o)
 .debug_rnglists
                0x000000000000a589       0x34 /tools/arm-gnu-toolchain-13.2.Rel1-x86_64-aarch64-none-elf/bin/../lib/gcc/aarch64-none-elf/13.2.1/../../../../aarch64-none-elf/lib/libg.a(libc_a-fclose.o)
 .debug_rnglists
                0x000000000000a5bd       0x30 /tools/arm-gnu-toolchain-13.2.Rel1-x86_64-aarch64-none-elf/bin/../lib/gcc/aarch64-none-elf/13.2.1/../../../../aarch64-none-elf/lib/libg.a(libc_a-wsetup.o)
 .debug_rnglists
                0x000000000000a5ed       0x7b /tools/arm-gnu-toolchain-13.2.Rel1-x86_64-aarch64-none-elf/bin/../lib/gcc/aarch64-none-elf/13.2.1/../../../../aarch64-none-elf/lib/libg.a(libc_a-makebuf.o)
 .debug_rnglists
                0x000000000000a668       0x6d /tools/arm-gnu-toolchain-13.2.Rel1-x86_64-aarch64-none-elf/bin/../lib/gcc/aarch64-none-elf/13.2.1/../../../../aarch64-none-elf/lib/libg.a(libc_a-putc.o)
 .debug_rnglists
                0x000000000000a6d5       0x45 /tools/arm-gnu-toolchain-13.2.Rel1-x86_64-aarch64-none-elf/bin/../lib/gcc/aarch64-none-elf/13.2.1/../../../../aarch64-none-elf/lib/libg.a(libc_a-wcsnrtombs.o)
 .debug_rnglists
                0x000000000000a71a       0x17 /tools/arm-gnu-toolchain-13.2.Rel1-x86_64-aarch64-none-elf/bin/../lib/gcc/aarch64-none-elf/13.2.1/../../../../aarch64-none-elf/lib/libg.a(libc_a-closer.o)
 .debug_rnglists
                0x000000000000a731       0xa9 /tools/arm-gnu-toolchain-13.2.Rel1-x86_64-aarch64-none-elf/bin/../lib/gcc/aarch64-none-elf/13.2.1/../../../../aarch64-none-elf/lib/libg.a(libc_a-fflush.o)
 .debug_rnglists
                0x000000000000a7da       0xc2 /tools/arm-gnu-toolchain-13.2.Rel1-x86_64-aarch64-none-elf/bin/../lib/gcc/aarch64-none-elf/13.2.1/../../../../aarch64-none-elf/lib/libg.a(libc_a-reallocr.o)
 .debug_rnglists
                0x000000000000a89c       0x21 /tools/arm-gnu-toolchain-13.2.Rel1-x86_64-aarch64-none-elf/bin/../lib/gcc/aarch64-none-elf/13.2.1/../../../../aarch64-none-elf/lib/libg.a(libc_a-envlock.o)
 .debug_rnglists
                0x000000000000a8bd       0x17 /tools/arm-gnu-toolchain-13.2.Rel1-x86_64-aarch64-none-elf/bin/../lib/gcc/aarch64-none-elf/13.2.1/../../../../aarch64-none-elf/lib/libg.a(libc_a-fstatr.o)
 .debug_rnglists
                0x000000000000a8d4       0xb4 /tools/arm-gnu-toolchain-13.2.Rel1-x86_64-aarch64-none-elf/bin/../lib/gcc/aarch64-none-elf/13.2.1/../../../../aarch64-none-elf/lib/libg.a(libc_a-signal.o)
 .debug_rnglists
                0x000000000000a988       0x17 /tools/arm-gnu-toolchain-13.2.Rel1-x86_64-aarch64-none-elf/bin/../lib/gcc/aarch64-none-elf/13.2.1/../../../../aarch64-none-elf/lib/libg.a(libc_a-isattyr.o)
 .debug_rnglists
                0x000000000000a99f       0x17 /tools/arm-gnu-toolchain-13.2.Rel1-x86_64-aarch64-none-elf/bin/../lib/gcc/aarch64-none-elf/13.2.1/../../../../aarch64-none-elf/lib/libg.a(libc_a-lseekr.o)
 .debug_rnglists
                0x000000000000a9b6       0x17 /tools/arm-gnu-toolchain-13.2.Rel1-x86_64-aarch64-none-elf/bin/../lib/gcc/aarch64-none-elf/13.2.1/../../../../aarch64-none-elf/lib/libg.a(libc_a-readr.o)
 .debug_rnglists
                0x000000000000a9cd       0x6a /tools/arm-gnu-toolchain-13.2.Rel1-x86_64-aarch64-none-elf/bin/../lib/gcc/aarch64-none-elf/13.2.1/../../../../aarch64-none-elf/lib/libg.a(libc_a-fputwc.o)
 .debug_rnglists
                0x000000000000aa37       0x21 /tools/arm-gnu-toolchain-13.2.Rel1-x86_64-aarch64-none-elf/bin/../lib/gcc/aarch64-none-elf/13.2.1/../../../../aarch64-none-elf/lib/libg.a(libc_a-signalr.o)
 .debug_rnglists
                0x000000000000aa58       0x37 /tools/arm-gnu-toolchain-13.2.Rel1-x86_64-aarch64-none-elf/bin/../lib/gcc/aarch64-none-elf/13.2.1/../../../../aarch64-none-elf/lib/libg.a(libc_a-wbuf.o)
 .debug_rnglists
                0x000000000000aa8f      0x13b /tools/arm-gnu-toolchain-13.2.Rel1-x86_64-aarch64-none-elf/bin/../lib/gcc/aarch64-none-elf/13.2.1/libgcc.a(trunctfdf2.o)
 .debug_rnglists
                0x000000000000abca       0x17 /tools/arm-gnu-toolchain-13.2.Rel1-x86_64-aarch64-none-elf/bin/../lib/gcc/aarch64-none-elf/13.2.1/libgcc.a(sfp-exceptions.o)

.debug_line     0x0000000000000000    0x6dddb
 .debug_line    0x0000000000000000      0x339 CMakeFiles/freertos_kernel.elf.dir/main.c.o
 .debug_line    0x0000000000000339       0xcb gloss/CMakeFiles/freedom_metal.dir/freedom_metal.c.o
 .debug_line    0x0000000000000404       0x84 gloss/CMakeFiles/freedom_metal.dir/nanosleep.c.o
 .debug_line    0x0000000000000488       0x7a gloss/CMakeFiles/freedom_metal.dir/sys_access.c.o
 .debug_line    0x0000000000000502       0x7a gloss/CMakeFiles/freedom_metal.dir/sys_chdir.c.o
 .debug_line    0x000000000000057c       0x8d gloss/CMakeFiles/freedom_metal.dir/sys_chmod.c.o
 .debug_line    0x0000000000000609       0x84 gloss/CMakeFiles/freedom_metal.dir/sys_chown.c.o
 .debug_line    0x000000000000068d       0xa3 gloss/CMakeFiles/freedom_metal.dir/sys_clock_gettime.c.o
 .debug_line    0x0000000000000730       0x7a gloss/CMakeFiles/freedom_metal.dir/sys_close.c.o
 .debug_line    0x00000000000007aa       0x7a gloss/CMakeFiles/freedom_metal.dir/sys_execve.c.o
 .debug_line    0x0000000000000824       0x6b gloss/CMakeFiles/freedom_metal.dir/sys_exit.c.o
 .debug_line    0x000000000000088f       0x7a gloss/CMakeFiles/freedom_metal.dir/sys_faccessat.c.o
 .debug_line    0x0000000000000909       0x79 gloss/CMakeFiles/freedom_metal.dir/sys_fork.c.o
 .debug_line    0x0000000000000982       0x9c gloss/CMakeFiles/freedom_metal.dir/sys_fstat.c.o
 .debug_line    0x0000000000000a1e       0x9c gloss/CMakeFiles/freedom_metal.dir/sys_fstatat.c.o
 .debug_line    0x0000000000000aba       0x84 gloss/CMakeFiles/freedom_metal.dir/sys_ftime.c.o
 .debug_line    0x0000000000000b3e       0x83 gloss/CMakeFiles/freedom_metal.dir/sys_getcwd.c.o
 .debug_line    0x0000000000000bc1       0x84 gloss/CMakeFiles/freedom_metal.dir/sys_getpid.c.o
 .debug_line    0x0000000000000c45       0xb9 gloss/CMakeFiles/freedom_metal.dir/sys_gettimeofday.c.o
 .debug_line    0x0000000000000cfe       0x58 gloss/CMakeFiles/freedom_metal.dir/sys_isatty.c.o
 .debug_line    0x0000000000000d56       0x7a gloss/CMakeFiles/freedom_metal.dir/sys_kill.c.o
 .debug_line    0x0000000000000dd0       0x7a gloss/CMakeFiles/freedom_metal.dir/sys_link.c.o
 .debug_line    0x0000000000000e4a       0x84 gloss/CMakeFiles/freedom_metal.dir/sys_lseek.c.o
 .debug_line    0x0000000000000ece       0x9c gloss/CMakeFiles/freedom_metal.dir/sys_lstat.c.o
 .debug_line    0x0000000000000f6a       0x7a gloss/CMakeFiles/freedom_metal.dir/sys_open.c.o
 .debug_line    0x0000000000000fe4       0x7a gloss/CMakeFiles/freedom_metal.dir/sys_openat.c.o
 .debug_line    0x000000000000105e       0x91 gloss/CMakeFiles/freedom_metal.dir/sys_read.c.o
 .debug_line    0x00000000000010ef       0xd8 gloss/CMakeFiles/freedom_metal.dir/sys_sbrk.c.o
 .debug_line    0x00000000000011c7       0x58 gloss/CMakeFiles/freedom_metal.dir/sys_sysconf.c.o
 .debug_line    0x000000000000121f       0xbd gloss/CMakeFiles/freedom_metal.dir/sys_times.c.o
 .debug_line    0x00000000000012dc       0x7a gloss/CMakeFiles/freedom_metal.dir/sys_unlink.c.o
 .debug_line    0x0000000000001356       0x7a gloss/CMakeFiles/freedom_metal.dir/sys_utime.c.o
 .debug_line    0x00000000000013d0       0x7a gloss/CMakeFiles/freedom_metal.dir/sys_wait.c.o
 .debug_line    0x000000000000144a       0xdb gloss/CMakeFiles/freedom_metal.dir/sys_write.c.o
 .debug_line    0x0000000000001525      0x52e build/drivers/mailbox/CMakeFiles/mailbox.dir/mailbox.c.o
 .debug_line    0x0000000000001a53      0x16e build/drivers/mailbox/CMakeFiles/mailbox.dir/mailbox_cb.c.o
 .debug_line    0x0000000000001bc1      0x20b build/drivers/pmu/CMakeFiles/pmu.dir/pmu.c.o
 .debug_line    0x0000000000001dcc      0x637 build/drivers/uart/CMakeFiles/uart.dir/uart.c.o
 .debug_line    0x0000000000002403     0x11c5 build/drivers/dma/CMakeFiles/dma.dir/pl330.c.o
 .debug_line    0x00000000000035c8      0x6b1 build/drivers/gpio/CMakeFiles/gpio.dir/gpio.c.o
 .debug_line    0x0000000000003c79     0x10a9 build/drivers/smmu/CMakeFiles/smmu.dir/smmu.c.o
 .debug_line    0x0000000000004d22      0x7c2 build/drivers/smmu/CMakeFiles/smmu.dir/smmu_pmu.c.o
 .debug_line    0x00000000000054e4     0x2657 build/drivers/pvt_con/CMakeFiles/pvt_con.dir/pvt_con.c.o
 .debug_line    0x0000000000007b3b      0x9a1 build/drivers/cmu/CMakeFiles/cmu.dir/cmu.c.o
 .debug_line    0x00000000000084dc      0x1af build/drivers/watchdog/CMakeFiles/watchdog.dir/dw_apb_wdt.c.o
 .debug_line    0x000000000000868b     0x2b33 build/drivers/rbc/CMakeFiles/rbc.dir/aw_ucie.c.o
 .debug_line    0x000000000000b1be      0x725 build/drivers/rbc/CMakeFiles/rbc.dir/rbc_driver.c.o
 .debug_line    0x000000000000b8e3      0x37d build/drivers/rbc/CMakeFiles/rbc.dir/rbc_cmd.c.o
 .debug_line    0x000000000000bc60     0x1921 build/drivers/rbcm/CMakeFiles/rbcm.dir/rbcm_core.c.o
 .debug_line    0x000000000000d581      0x67e build/drivers/rbcm/CMakeFiles/rbcm.dir/rbcm_driver.c.o
 .debug_line    0x000000000000dbff      0xd8a build/drivers/i2c/CMakeFiles/i2c.dir/i2c.c.o
 .debug_line    0x000000000000e989      0x231 build/drivers/noc_logger/CMakeFiles/noc_logger.dir/noc_logger.c.o
 .debug_line    0x000000000000ebba      0x531 build/drivers/hbm3/CMakeFiles/hbm3.dir/hbm3.c.o
 .debug_line    0x000000000000f0eb      0x121 build/drivers/hbm3/CMakeFiles/hbm3.dir/tmrs.c.o
 .debug_line    0x000000000000f20c     0x13c9 build/drivers/hbm3/CMakeFiles/hbm3.dir/icon.c.o
 .debug_line    0x00000000000105d5      0x57b build/drivers/hbm3/CMakeFiles/hbm3.dir/hbm3_irq.c.o
 .debug_line    0x0000000000010b50      0x275 build/drivers/hbm3/CMakeFiles/hbm3.dir/hbm3_am.c.o
 .debug_line    0x0000000000010dc5      0x29b build/drivers/pmic/CMakeFiles/pmic.dir/ltc1427cs8.c.o
 .debug_line    0x0000000000011060      0x10d build/drivers/pmic/CMakeFiles/pmic.dir/tca9548a.c.o
 .debug_line    0x000000000001116d      0x365 build/drivers/pmic/CMakeFiles/pmic.dir/mp5998.c.o
 .debug_line    0x00000000000114d2      0x398 build/drivers/pmic/CMakeFiles/pmic.dir/mpq8785.c.o
 .debug_line    0x000000000001186a      0x5c0 build/drivers/pmic/CMakeFiles/pmic.dir/mp29816a.c.o
 .debug_line    0x0000000000011e2a      0x27a build/drivers/pmic/CMakeFiles/pmic.dir/g1505.c.o
 .debug_line    0x00000000000120a4      0x546 build/drivers/pmic/CMakeFiles/pmic.dir/pmic_mgr.c.o
 .debug_line    0x00000000000125ea      0x279 build/drivers/dvfs/CMakeFiles/dvfs.dir/dvfs.c.o
 .debug_line    0x0000000000012863      0x39f build/drivers/sic/CMakeFiles/sic.dir/sic.c.o
 .debug_line    0x0000000000012c02      0x3df build/drivers/timer/dw_apb_timer/CMakeFiles/dw_apb_timer.dir/dw_apb_timer.c.o
 .debug_line    0x0000000000012fe1      0x48e build/drivers/qspi/qspi_apb/CMakeFiles/qspi_apb.dir/qspi_apb.c.o
 .debug_line    0x000000000001346f       0xbb build/drivers/flash/CMakeFiles/flash.dir/mt25q_flash.c.o
 .debug_line    0x000000000001352a      0x135 build/tests/common/CMakeFiles/test_common.dir/test_mailbox_cb.c.o
 .debug_line    0x000000000001365f      0x370 build/tests/interrupt_test_helper_example/CMakeFiles/interrupt_test_helper_example.dir/example_test.c.o
 .debug_line    0x00000000000139cf       0x9f build/tests/interrupt_test_helper_example/CMakeFiles/interrupt_test_helper_example.dir/example_driver.c.o
 .debug_line    0x0000000000013a6e      0x111 build/tests/arch/CMakeFiles/test_arch.dir/test_cli.c.o
 .debug_line    0x0000000000013b7f      0xd62 build/tests/gpio/CMakeFiles/test_gpio.dir/test_gpio.c.o
 .debug_line    0x00000000000148e1      0x177 build/tests/dma/CMakeFiles/test_dma.dir/test_dma_main.c.o
 .debug_line    0x0000000000014a58      0x25e build/tests/mailbox/CMakeFiles/mailbox_test.dir/test_mailbox_main.c.o
 .debug_line    0x0000000000014cb6      0x90b build/tests/pvt_con/CMakeFiles/test_pvt_con.dir/test_pvt_con.c.o
 .debug_line    0x00000000000155c1      0x66f build/tests/arch/arm64/CMakeFiles/test_arm64.dir/test_ca73.c.o
 .debug_line    0x0000000000015c30      0x1c8 build/tests/timer/dw_apb_timer/CMakeFiles/test_dw_apb_timer.dir/test_dw_apb_timer.c.o
 .debug_line    0x0000000000015df8     0x11b2 build/tests/cmu/CMakeFiles/test_cmu.dir/test_cmu_main.c.o
 .debug_line    0x0000000000016faa      0x126 build/tests/smmu/CMakeFiles/test_mmu.dir/test_mmu_main.c.o
 .debug_line    0x00000000000170d0      0x25d build/tests/log/CMakeFiles/show_log.dir/rebel_h_log.c.o
 .debug_line    0x000000000001732d      0x3d0 build/tests/rbc/CMakeFiles/test_rbc.dir/test/all_test.c.o
 .debug_line    0x00000000000176fd      0x885 build/tests/rbc/CMakeFiles/test_rbc.dir/test/test_aw_ucie_init.c.o
 .debug_line    0x0000000000017f82     0x113e build/tests/rbc/CMakeFiles/test_rbc.dir/test/test_aw_ucie_d2d_comp.c.o
 .debug_line    0x00000000000190c0      0x632 build/tests/rbc/CMakeFiles/test_rbc.dir/test/test_aw_ucie_d2d_err_and_link.c.o
 .debug_line    0x00000000000196f2      0x2de build/tests/rbc/CMakeFiles/test_rbc.dir/test/test_aw_ucie_retraining.c.o
 .debug_line    0x00000000000199d0      0x8c5 build/tests/rbc/CMakeFiles/test_rbc.dir/test/test_aw_ucie_sideband.c.o
 .debug_line    0x000000000001a295     0x13cf build/tests/rbc/CMakeFiles/test_rbc.dir/test/test_aw_ucie_training.c.o
 .debug_line    0x000000000001b664     0x280a build/tests/rbc/CMakeFiles/test_rbc.dir/test/test_aw_ucie_runtime_link_test.c.o
 .debug_line    0x000000000001de6e     0x13d9 build/tests/rbc/CMakeFiles/test_rbc.dir/test/test_aw_ucie_phy_compliance_test.c.o
 .debug_line    0x000000000001f247     0x110f build/tests/rbc/CMakeFiles/test_rbc.dir/test/test_aw_ucie_exception.c.o
 .debug_line    0x0000000000020356      0x7f3 build/tests/rbc/CMakeFiles/test_rbc.dir/test/test_aw_ucie_eye_of_margin.c.o
 .debug_line    0x0000000000020b49      0x2b2 build/tests/rbc/CMakeFiles/test_rbc.dir/test/test_aw_ucie_util.c.o
 .debug_line    0x0000000000020dfb       0xf8 build/tests/rbc/CMakeFiles/test_rbc.dir/test/test_fake_timer.c.o
 .debug_line    0x0000000000020ef3      0x4f5 build/tests/rbc/CMakeFiles/test_rbc.dir/test/test_rbc_driver.c.o
 .debug_line    0x00000000000213e8       0x96 build/tests/rbc/CMakeFiles/test_rbc.dir/mocks/fake_timer.c.o
 .debug_line    0x000000000002147e       0x70 build/tests/rbc/CMakeFiles/test_rbc.dir/mocks/fake_gic.c.o
 .debug_line    0x00000000000214ee     0x17af build/tests/rbcm/CMakeFiles/test_rbcm.dir/rbcm_test.c.o
 .debug_line    0x0000000000022c9d      0x243 build/tests/rbcm/CMakeFiles/test_rbcm.dir/rbcm_reg_access_test.c.o
 .debug_line    0x0000000000022ee0      0x956 build/tests/i2c/CMakeFiles/test_i2c.dir/test_i2c_main.c.o
 .debug_line    0x0000000000023836     0x1121 build/tests/hbm3/CMakeFiles/hbm3_test.dir/memtest.c.o
 .debug_line    0x0000000000024957      0x16b build/tests/hbm3/CMakeFiles/hbm3_test.dir/hbm3_irq_test.c.o
 .debug_line    0x0000000000024ac2      0x893 build/tests/system_test/CMakeFiles/system_test.dir/test_system.c.o
 .debug_line    0x0000000000025355      0x154 build/tests/system_test/CMakeFiles/system_test.dir/dma_transaction.c.o
 .debug_line    0x00000000000254a9      0x337 build/tests/system_test/CMakeFiles/system_test.dir/test_dma_transaction.c.o
 .debug_line    0x00000000000257e0     0x15f9 build/tests/system_test/CMakeFiles/system_test.dir/data_process.c.o
 .debug_line    0x0000000000026dd9      0x55e build/tests/system_test/CMakeFiles/system_test.dir/test_data_process.c.o
 .debug_line    0x0000000000027337      0x2b3 build/tests/dvfs/CMakeFiles/test_dvfs.dir/test_dvfs_main.c.o
 .debug_line    0x00000000000275ea      0x744 build/tests/pmic/CMakeFiles/test_pmic.dir/test_pmic_main.c.o
 .debug_line    0x0000000000027d2e      0x352 build/tests/pvt_con/CMakeFiles/pvt_cli.dir/pvt_cli.c.o
 .debug_line    0x0000000000028080      0x7e1 build/tests/pvt_con/CMakeFiles/pvt_cli.dir/pvt_cli_show.c.o
 .debug_line    0x0000000000028861      0x20e build/tests/pvt_con/CMakeFiles/pvt_cli.dir/pvt_cli_enable.c.o
 .debug_line    0x0000000000028a6f      0x1e8 build/tests/pvt_con/CMakeFiles/pvt_cli.dir/pvt_cli_disable.c.o
 .debug_line    0x0000000000028c57      0x119 build/tests/pvt_con/CMakeFiles/pvt_cli.dir/pvt_cli_set.c.o
 .debug_line    0x0000000000028d70      0x11c build/tests/sic/CMakeFiles/test_sic.dir/test_sic.c.o
 .debug_line    0x0000000000028e8c      0x284 build/tests/chipid/CMakeFiles/test_chipid.dir/read_chipid.c.o
 .debug_line    0x0000000000029110      0x130 build/tests/flash/CMakeFiles/test_flash.dir/test_flash.c.o
 .debug_line    0x0000000000029240       0xeb build/tests/qspi/CMakeFiles/test_qspiapb.dir/test_qspiapb.c.o
 .debug_line    0x000000000002932b      0x8e6 build/tests/rbdma/CMakeFiles/test_rbdma.dir/rbdma_tsync_test.c.o
 .debug_line    0x0000000000029c11      0x1c0 build/tests/rbdma/CMakeFiles/test_rbdma.dir/test_main_rbdma.c.o
 .debug_line    0x0000000000029dd1     0x188f libfreertos_kernel.a(queue.c.o)
 .debug_line    0x000000000002b660     0x64a1 libfreertos_kernel.a(tasks.c.o)
 .debug_line    0x0000000000031b01      0xb18 libfreertos_kernel.a(timers.c.o)
 .debug_line    0x0000000000032619      0x63f libfreertos_kernel.a(heap_4.c.o)
 .debug_line    0x0000000000032c58      0x22e libfreertos_kernel.a(list.c.o)
 .debug_line    0x0000000000032e86      0x651 portable/libfreertos_kernel_port.a(port.c.o)
 .debug_line    0x00000000000334d7       0xef build/drivers/common/libdriver.a(driver.c.o)
 .debug_line    0x00000000000335c6      0x100 build/drivers/common/libassert.a(assert.c.o)
 .debug_line    0x00000000000336c6       0xe9 build/drivers/common/libinterrupt.a(interrupt.c.o)
 .debug_line    0x00000000000337af      0xbfe build/drivers/intc/libintc.a(gicv3.c.o)
 .debug_line    0x00000000000343ad      0x257 build/drivers/intc/libintc.a(bakery_lock.c.o)
 .debug_line    0x0000000000034604      0x1e7 services/cli_service/libcli_service.a(cli_task.c.o)
 .debug_line    0x00000000000347eb      0xd05 services/cli_service/libcli_service.a(sys_command_line.c.o)
 .debug_line    0x00000000000354f0      0x131 services/terminal_service/libterminal_service.a(console_uart.c.o)
 .debug_line    0x0000000000035621      0x3f2 services/terminal_service/libterminal_service.a(console.c.o)
 .debug_line    0x0000000000035a13      0x42a services/terminal_service/libterminal_service.a(terminal_task.c.o)
 .debug_line    0x0000000000035e3d     0xa751 services/replay_service/libreplay_service.a(replay.c.o)
 .debug_line    0x000000000004058e     0x1222 services/replay_service/libreplay_service.a(sub_function.c.o)
 .debug_line    0x00000000000417b0      0x25f services/replay_service/libreplay_service.a(rush_cli.c.o)
 .debug_line    0x0000000000041a0f      0x1f7 services/replay_service/libreplay_service.a(rush_cli_msg_buf.c.o)
 .debug_line    0x0000000000041c06      0x53f services/replay_service/libreplay_service.a(tpg_cli.c.o)
 .debug_line    0x0000000000042145      0xf9d services/replay_service/libreplay_service.a(rbdma_cli.c.o)
 .debug_line    0x00000000000430e2      0x50f services/replay_service/libreplay_service.a(mem_cli.c.o)
 .debug_line    0x00000000000435f1       0x71 services/replay_service/libreplay_service.a(chiplet.c.o)
 .debug_line    0x0000000000043662      0x536 services/replay_service/libreplay_service.a(cmgr_if.c.o)
 .debug_line    0x0000000000043b98     0x4e98 services/replay_service/libreplay_service.a(dnc_if.c.o)
 .debug_line    0x0000000000048a30      0x152 services/replay_service/libreplay_service.a(dnc_if_evt1.c.o)
 .debug_line    0x0000000000048b82      0xb52 services/replay_service/libreplay_service.a(rdsn_if.c.o)
 .debug_line    0x00000000000496d4      0xaa3 services/replay_service/libreplay_service.a(ptw.c.o)
 .debug_line    0x000000000004a177     0x1958 services/replay_service/libreplay_service.a(rbdma_if.c.o)
 .debug_line    0x000000000004bacf      0x9e3 services/replay_service/libreplay_service.a(shm_if.c.o)
 .debug_line    0x000000000004c4b2      0x3f7 services/replay_service/libreplay_service.a(tbu_wrapper.c.o)
 .debug_line    0x000000000004c8a9      0x1cd services/replay_service/libreplay_service.a(debug.c.o)
 .debug_line    0x000000000004ca76      0x823 services/replay_service/libreplay_service.a(ici.c.o)
 .debug_line    0x000000000004d299      0x43c services/replay_service/libreplay_service.a(page_table_gen.c.o)
 .debug_line    0x000000000004d6d5      0x3ce services/replay_service/libreplay_service.a(profile.c.o)
 .debug_line    0x000000000004daa3      0x5b6 services/replay_service/libreplay_service.a(rl_queue.c.o)
 .debug_line    0x000000000004e059      0x705 services/replay_service/libreplay_service.a(abort.c.o)
 .debug_line    0x000000000004e75e       0x76 services/replay_service/libreplay_service.a(cpu_data.c.o)
 .debug_line    0x000000000004e7d4       0x90 services/replay_service/libreplay_service.a(spinlock.c.o)
 .debug_line    0x000000000004e864      0x21a services/replay_service/libreplay_service.a(core.c.o)
 .debug_line    0x000000000004ea7e      0x1b4 services/replay_service/libreplay_service.a(log.c.o)
 .debug_line    0x000000000004ec32      0x1ed services/replay_service/libreplay_service.a(rand.c.o)
 .debug_line    0x000000000004ee1f      0x296 services/replay_service/libreplay_service.a(backtrace.c.o)
 .debug_line    0x000000000004f0b5      0x9cf services/replay_service/libreplay_service.a(argparse.c.o)
 .debug_line    0x000000000004fa84      0x290 services/replay_service/libreplay_service.a(rush_cli_util.c.o)
 .debug_line    0x000000000004fd14      0x1a8 services/task_adder_service/libtask_adder_service.a(task_adder.c.o)
 .debug_line    0x000000000004febc       0xd9 portable/libfreertos_arch.a(prep_c.c.o)
 .debug_line    0x000000000004ff95      0x147 libfreertos_kernel_config.a(FreeRTOS_tick_config.c.o)
 .debug_line    0x00000000000500dc      0x189 portable/libsmp.a(smp.c.o)
 .debug_line    0x0000000000050265      0xea5 portable/libmmu.a(mmu.c.o)
 .debug_line    0x000000000005110a      0x2c5 build/interrupt_test_helper/libinterrupt_test_helper.a(interrupt_test_helper.c.o)
 .debug_line    0x00000000000513cf     0x238f build/unity/libunity.a(unity.c.o)
 .debug_line    0x000000000005375e      0x5c1 build/unity/libunity.a(unity_fixture.c.o)
 .debug_line    0x0000000000053d1f       0xbc build/drivers/psci/libpsci.a(psci.c.o)
 .debug_line    0x0000000000053ddb      0x802 libfreertos_kernel.a(event_groups.c.o)
 .debug_line    0x00000000000545dd      0xec1 libfreertos_kernel.a(stream_buffer.c.o)
 .debug_line    0x000000000005549e     0x1512 build/common/arch/libcommon.a(printf.c.o)
 .debug_line    0x00000000000569b0      0x214 build/common/arch/libcommon.a(system_api.c.o)
 .debug_line    0x0000000000056bc4      0x161 build/drivers/timer/generic_timer/libgeneric_timer.a(generic_timer.c.o)
 .debug_line    0x0000000000056d25       0x57 /tools/arm-gnu-toolchain-13.2.Rel1-x86_64-aarch64-none-elf/bin/../lib/gcc/aarch64-none-elf/13.2.1/libgcc.a(ldset_8_4.o)
 .debug_line    0x0000000000056d7c       0x3a /tools/arm-gnu-toolchain-13.2.Rel1-x86_64-aarch64-none-elf/bin/../lib/gcc/aarch64-none-elf/13.2.1/libgcc.a(lse-init.o)
 .debug_line    0x0000000000056db6     0x12ec /tools/arm-gnu-toolchain-13.2.Rel1-x86_64-aarch64-none-elf/bin/../lib/gcc/aarch64-none-elf/13.2.1/../../../../aarch64-none-elf/lib/libg.a(libc_a-strtod.o)
 .debug_line    0x00000000000580a2      0x39f /tools/arm-gnu-toolchain-13.2.Rel1-x86_64-aarch64-none-elf/bin/../lib/gcc/aarch64-none-elf/13.2.1/../../../../aarch64-none-elf/lib/libg.a(libc_a-strtol.o)
 .debug_line    0x0000000000058441      0x8e9 /tools/arm-gnu-toolchain-13.2.Rel1-x86_64-aarch64-none-elf/bin/../lib/gcc/aarch64-none-elf/13.2.1/../../../../aarch64-none-elf/lib/libg.a(libc_a-gdtoa-gethex.o)
 .debug_line    0x0000000000058d2a      0x2d0 /tools/arm-gnu-toolchain-13.2.Rel1-x86_64-aarch64-none-elf/bin/../lib/gcc/aarch64-none-elf/13.2.1/../../../../aarch64-none-elf/lib/libg.a(libc_a-strtoul.o)
 .debug_line    0x0000000000058ffa      0x34d /tools/arm-gnu-toolchain-13.2.Rel1-x86_64-aarch64-none-elf/bin/../lib/gcc/aarch64-none-elf/13.2.1/../../../../aarch64-none-elf/lib/libg.a(libc_a-gdtoa-hexnan.o)
 .debug_line    0x0000000000059347      0x2e2 /tools/arm-gnu-toolchain-13.2.Rel1-x86_64-aarch64-none-elf/bin/../lib/gcc/aarch64-none-elf/13.2.1/../../../../aarch64-none-elf/lib/libg.a(libc_a-strtoll.o)
 .debug_line    0x0000000000059629       0xe6 /tools/arm-gnu-toolchain-13.2.Rel1-x86_64-aarch64-none-elf/bin/../lib/gcc/aarch64-none-elf/13.2.1/../../../../aarch64-none-elf/lib/libg.a(libc_a-strncpy.o)
 .debug_line    0x000000000005970f      0x2d0 /tools/arm-gnu-toolchain-13.2.Rel1-x86_64-aarch64-none-elf/bin/../lib/gcc/aarch64-none-elf/13.2.1/../../../../aarch64-none-elf/lib/libg.a(libc_a-strtoull.o)
 .debug_line    0x00000000000599df       0x7e /tools/arm-gnu-toolchain-13.2.Rel1-x86_64-aarch64-none-elf/bin/../lib/gcc/aarch64-none-elf/13.2.1/../../../../aarch64-none-elf/lib/libg.a(libc_a-strchr.o)
 .debug_line    0x0000000000059a5d       0x95 /tools/arm-gnu-toolchain-13.2.Rel1-x86_64-aarch64-none-elf/bin/../lib/gcc/aarch64-none-elf/13.2.1/../../../../aarch64-none-elf/lib/libg.a(libc_a-strcmp.o)
 .debug_line    0x0000000000059af2      0x1ab /tools/arm-gnu-toolchain-13.2.Rel1-x86_64-aarch64-none-elf/bin/../lib/gcc/aarch64-none-elf/13.2.1/../../../../aarch64-none-elf/lib/libg.a(libc_a-sprintf.o)
 .debug_line    0x0000000000059c9d       0x9b /tools/arm-gnu-toolchain-13.2.Rel1-x86_64-aarch64-none-elf/bin/../lib/gcc/aarch64-none-elf/13.2.1/../../../../aarch64-none-elf/lib/libg.a(libc_a-strlen.o)
 .debug_line    0x0000000000059d38       0xc7 /tools/arm-gnu-toolchain-13.2.Rel1-x86_64-aarch64-none-elf/bin/../lib/gcc/aarch64-none-elf/13.2.1/../../../../aarch64-none-elf/lib/libg.a(libc_a-strspn.o)
 .debug_line    0x0000000000059dff       0x84 /tools/arm-gnu-toolchain-13.2.Rel1-x86_64-aarch64-none-elf/bin/../lib/gcc/aarch64-none-elf/13.2.1/../../../../aarch64-none-elf/lib/libg.a(libc_a-strtok.o)
 .debug_line    0x0000000000059e83      0x170 /tools/arm-gnu-toolchain-13.2.Rel1-x86_64-aarch64-none-elf/bin/../lib/gcc/aarch64-none-elf/13.2.1/../../../../aarch64-none-elf/lib/libg.a(libc_a-strtok_r.o)
 .debug_line    0x0000000000059ff3      0x946 /tools/arm-gnu-toolchain-13.2.Rel1-x86_64-aarch64-none-elf/bin/../lib/gcc/aarch64-none-elf/13.2.1/../../../../aarch64-none-elf/lib/libg.a(libc_a-strstr.o)
 .debug_line    0x000000000005a939      0xd94 /tools/arm-gnu-toolchain-13.2.Rel1-x86_64-aarch64-none-elf/bin/../lib/gcc/aarch64-none-elf/13.2.1/../../../../aarch64-none-elf/lib/libg.a(libc_a-getopt.o)
 .debug_line    0x000000000005b6cd       0x7a /tools/arm-gnu-toolchain-13.2.Rel1-x86_64-aarch64-none-elf/bin/../lib/gcc/aarch64-none-elf/13.2.1/../../../../aarch64-none-elf/lib/libg.a(libc_a-errno.o)
 .debug_line    0x000000000005b747     0x24be /tools/arm-gnu-toolchain-13.2.Rel1-x86_64-aarch64-none-elf/bin/../lib/gcc/aarch64-none-elf/13.2.1/../../../../aarch64-none-elf/lib/libg.a(libc_a-svfprintf.o)
 .debug_line    0x000000000005dc05       0xc0 /tools/arm-gnu-toolchain-13.2.Rel1-x86_64-aarch64-none-elf/bin/../lib/gcc/aarch64-none-elf/13.2.1/../../../../aarch64-none-elf/lib/libg.a(libc_a-strncmp.o)
 .debug_line    0x000000000005dcc5       0x7a /tools/arm-gnu-toolchain-13.2.Rel1-x86_64-aarch64-none-elf/bin/../lib/gcc/aarch64-none-elf/13.2.1/../../../../aarch64-none-elf/lib/libg.a(libc_a-strnlen.o)
 .debug_line    0x000000000005dd3f      0x25c /tools/arm-gnu-toolchain-13.2.Rel1-x86_64-aarch64-none-elf/bin/../lib/gcc/aarch64-none-elf/13.2.1/../../../../aarch64-none-elf/lib/libg.a(libc_a-vsnprintf.o)
 .debug_line    0x000000000005df9b       0x96 /tools/arm-gnu-toolchain-13.2.Rel1-x86_64-aarch64-none-elf/bin/../lib/gcc/aarch64-none-elf/13.2.1/../../../../aarch64-none-elf/lib/libg.a(libc_a-malloc.o)
 .debug_line    0x000000000005e031      0x824 /tools/arm-gnu-toolchain-13.2.Rel1-x86_64-aarch64-none-elf/bin/../lib/gcc/aarch64-none-elf/13.2.1/../../../../aarch64-none-elf/lib/libg.a(libc_a-mallocr.o)
 .debug_line    0x000000000005e855       0xe3 /tools/arm-gnu-toolchain-13.2.Rel1-x86_64-aarch64-none-elf/bin/../lib/gcc/aarch64-none-elf/13.2.1/../../../../aarch64-none-elf/lib/libg.a(libc_a-assert.o)
 .debug_line    0x000000000005e938       0xdb /tools/arm-gnu-toolchain-13.2.Rel1-x86_64-aarch64-none-elf/bin/../lib/gcc/aarch64-none-elf/13.2.1/../../../../aarch64-none-elf/lib/libg.a(libc_a-strcasecmp.o)
 .debug_line    0x000000000005ea13      0x1e0 /tools/arm-gnu-toolchain-13.2.Rel1-x86_64-aarch64-none-elf/bin/../lib/gcc/aarch64-none-elf/13.2.1/../../../../aarch64-none-elf/lib/libg.a(libc_a-wcrtomb.o)
 .debug_line    0x000000000005ebf3      0x9e7 /tools/arm-gnu-toolchain-13.2.Rel1-x86_64-aarch64-none-elf/bin/../lib/gcc/aarch64-none-elf/13.2.1/../../../../aarch64-none-elf/lib/libg.a(libc_a-locale.o)
 .debug_line    0x000000000005f5da       0xce /tools/arm-gnu-toolchain-13.2.Rel1-x86_64-aarch64-none-elf/bin/../lib/gcc/aarch64-none-elf/13.2.1/../../../../aarch64-none-elf/lib/libg.a(libc_a-localeconv.o)
 .debug_line    0x000000000005f6a8       0x83 /tools/arm-gnu-toolchain-13.2.Rel1-x86_64-aarch64-none-elf/bin/../lib/gcc/aarch64-none-elf/13.2.1/../../../../aarch64-none-elf/lib/libg.a(libc_a-memchr.o)
 .debug_line    0x000000000005f72b       0xbc /tools/arm-gnu-toolchain-13.2.Rel1-x86_64-aarch64-none-elf/bin/../lib/gcc/aarch64-none-elf/13.2.1/../../../../aarch64-none-elf/lib/libg.a(libc_a-memcmp.o)
 .debug_line    0x000000000005f7e7      0x126 /tools/arm-gnu-toolchain-13.2.Rel1-x86_64-aarch64-none-elf/bin/../lib/gcc/aarch64-none-elf/13.2.1/../../../../aarch64-none-elf/lib/libg.a(libc_a-printf.o)
 .debug_line    0x000000000005f90d       0xd3 /tools/arm-gnu-toolchain-13.2.Rel1-x86_64-aarch64-none-elf/bin/../lib/gcc/aarch64-none-elf/13.2.1/../../../../aarch64-none-elf/lib/libg.a(libc_a-memcpy.o)
 .debug_line    0x000000000005f9e0       0xab /tools/arm-gnu-toolchain-13.2.Rel1-x86_64-aarch64-none-elf/bin/../lib/gcc/aarch64-none-elf/13.2.1/../../../../aarch64-none-elf/lib/libg.a(libc_a-putchar.o)
 .debug_line    0x000000000005fa8b      0x1a2 /tools/arm-gnu-toolchain-13.2.Rel1-x86_64-aarch64-none-elf/bin/../lib/gcc/aarch64-none-elf/13.2.1/../../../../aarch64-none-elf/lib/libg.a(libc_a-puts.o)
 .debug_line    0x000000000005fc2d       0x93 /tools/arm-gnu-toolchain-13.2.Rel1-x86_64-aarch64-none-elf/bin/../lib/gcc/aarch64-none-elf/13.2.1/../../../../aarch64-none-elf/lib/libg.a(libc_a-mlock.o)
 .debug_line    0x000000000005fcc0     0x133c /tools/arm-gnu-toolchain-13.2.Rel1-x86_64-aarch64-none-elf/bin/../lib/gcc/aarch64-none-elf/13.2.1/../../../../aarch64-none-elf/lib/libg.a(libc_a-mprec.o)
 .debug_line    0x0000000000060ffc       0xaf /tools/arm-gnu-toolchain-13.2.Rel1-x86_64-aarch64-none-elf/bin/../lib/gcc/aarch64-none-elf/13.2.1/../../../../aarch64-none-elf/lib/libg.a(libc_a-atoi.o)
 .debug_line    0x00000000000610ab       0xc4 /tools/arm-gnu-toolchain-13.2.Rel1-x86_64-aarch64-none-elf/bin/../lib/gcc/aarch64-none-elf/13.2.1/../../../../aarch64-none-elf/lib/libg.a(libc_a-rand.o)
 .debug_line    0x000000000006116f      0x15b /tools/arm-gnu-toolchain-13.2.Rel1-x86_64-aarch64-none-elf/bin/../lib/gcc/aarch64-none-elf/13.2.1/../../../../aarch64-none-elf/lib/libg.a(libc_a-callocr.o)
 .debug_line    0x00000000000612ca       0xa2 /tools/arm-gnu-toolchain-13.2.Rel1-x86_64-aarch64-none-elf/bin/../lib/gcc/aarch64-none-elf/13.2.1/../../../../aarch64-none-elf/lib/libg.a(libc_a-wcsrtombs.o)
 .debug_line    0x000000000006136c     0x119b /tools/arm-gnu-toolchain-13.2.Rel1-x86_64-aarch64-none-elf/bin/../lib/gcc/aarch64-none-elf/13.2.1/../../../../aarch64-none-elf/lib/libg.a(libc_a-dtoa.o)
 .debug_line    0x0000000000062507      0x530 /tools/arm-gnu-toolchain-13.2.Rel1-x86_64-aarch64-none-elf/bin/../lib/gcc/aarch64-none-elf/13.2.1/../../../../aarch64-none-elf/lib/libg.a(libc_a-strerror.o)
 .debug_line    0x0000000000062a37       0xa2 /tools/arm-gnu-toolchain-13.2.Rel1-x86_64-aarch64-none-elf/bin/../lib/gcc/aarch64-none-elf/13.2.1/../../../../aarch64-none-elf/lib/libg.a(libc_a-ctype_.o)
 .debug_line    0x0000000000062ad9      0x10e /tools/arm-gnu-toolchain-13.2.Rel1-x86_64-aarch64-none-elf/bin/../lib/gcc/aarch64-none-elf/13.2.1/../../../../aarch64-none-elf/lib/libg.a(libc_a-reent.o)
 .debug_line    0x0000000000062be7       0x51 /tools/arm-gnu-toolchain-13.2.Rel1-x86_64-aarch64-none-elf/bin/../lib/gcc/aarch64-none-elf/13.2.1/../../../../aarch64-none-elf/lib/libg.a(libc_a-impure.o)
 .debug_line    0x0000000000062c38      0x642 /tools/arm-gnu-toolchain-13.2.Rel1-x86_64-aarch64-none-elf/bin/../lib/gcc/aarch64-none-elf/13.2.1/../../../../aarch64-none-elf/lib/libg.a(libc_a-findfp.o)
 .debug_line    0x000000000006327a       0x8c /tools/arm-gnu-toolchain-13.2.Rel1-x86_64-aarch64-none-elf/bin/../lib/gcc/aarch64-none-elf/13.2.1/../../../../aarch64-none-elf/lib/libg.a(libc_a-memset.o)
 .debug_line    0x0000000000063306       0x62 /tools/arm-gnu-toolchain-13.2.Rel1-x86_64-aarch64-none-elf/bin/../lib/gcc/aarch64-none-elf/13.2.1/../../../../aarch64-none-elf/lib/libg.a(libm_a-s_nan.o)
 .debug_line    0x0000000000063368       0x60 /tools/arm-gnu-toolchain-13.2.Rel1-x86_64-aarch64-none-elf/bin/../lib/gcc/aarch64-none-elf/13.2.1/../../../../aarch64-none-elf/lib/libg.a(libm_a-sf_nan.o)
 .debug_line    0x00000000000633c8       0xe3 /tools/arm-gnu-toolchain-13.2.Rel1-x86_64-aarch64-none-elf/bin/../lib/gcc/aarch64-none-elf/13.2.1/../../../../aarch64-none-elf/lib/libg.a(libm_a-s_frexp.o)
 .debug_line    0x00000000000634ab       0xa9 /tools/arm-gnu-toolchain-13.2.Rel1-x86_64-aarch64-none-elf/bin/../lib/gcc/aarch64-none-elf/13.2.1/../../../../aarch64-none-elf/lib/libg.a(libc_a-strlcpy.o)
 .debug_line    0x0000000000063554      0x48f /tools/arm-gnu-toolchain-13.2.Rel1-x86_64-aarch64-none-elf/bin/../lib/gcc/aarch64-none-elf/13.2.1/../../../../aarch64-none-elf/lib/libg.a(libc_a-freer.o)
 .debug_line    0x00000000000639e3      0x105 /tools/arm-gnu-toolchain-13.2.Rel1-x86_64-aarch64-none-elf/bin/../lib/gcc/aarch64-none-elf/13.2.1/../../../../aarch64-none-elf/lib/libg.a(libc_a-strncasecmp.o)
 .debug_line    0x0000000000063ae8       0xae /tools/arm-gnu-toolchain-13.2.Rel1-x86_64-aarch64-none-elf/bin/../lib/gcc/aarch64-none-elf/13.2.1/../../../../aarch64-none-elf/lib/libg.a(libc_a-getenv.o)
 .debug_line    0x0000000000063b96      0x19c /tools/arm-gnu-toolchain-13.2.Rel1-x86_64-aarch64-none-elf/bin/../lib/gcc/aarch64-none-elf/13.2.1/../../../../aarch64-none-elf/lib/libg.a(libc_a-getenv_r.o)
 .debug_line    0x0000000000063d32      0x193 /tools/arm-gnu-toolchain-13.2.Rel1-x86_64-aarch64-none-elf/bin/../lib/gcc/aarch64-none-elf/13.2.1/../../../../aarch64-none-elf/lib/libg.a(libc_a-fputc.o)
 .debug_line    0x0000000000063ec5      0x165 /tools/arm-gnu-toolchain-13.2.Rel1-x86_64-aarch64-none-elf/bin/../lib/gcc/aarch64-none-elf/13.2.1/../../../../aarch64-none-elf/lib/libg.a(libc_a-fputs.o)
 .debug_line    0x000000000006402a      0x10f /tools/arm-gnu-toolchain-13.2.Rel1-x86_64-aarch64-none-elf/bin/../lib/gcc/aarch64-none-elf/13.2.1/../../../../aarch64-none-elf/lib/libg.a(libc_a-fiprintf.o)
 .debug_line    0x0000000000064139       0x96 /tools/arm-gnu-toolchain-13.2.Rel1-x86_64-aarch64-none-elf/bin/../lib/gcc/aarch64-none-elf/13.2.1/../../../../aarch64-none-elf/lib/libg.a(libc_a-strcpy.o)
 .debug_line    0x00000000000641cf      0x1c1 /tools/arm-gnu-toolchain-13.2.Rel1-x86_64-aarch64-none-elf/bin/../lib/gcc/aarch64-none-elf/13.2.1/../../../../aarch64-none-elf/lib/libg.a(libc_a-stdio.o)
 .debug_line    0x0000000000064390      0x4a5 /tools/arm-gnu-toolchain-13.2.Rel1-x86_64-aarch64-none-elf/bin/../lib/gcc/aarch64-none-elf/13.2.1/../../../../aarch64-none-elf/lib/libg.a(libc_a-wctomb_r.o)
 .debug_line    0x0000000000064835       0xbe /tools/arm-gnu-toolchain-13.2.Rel1-x86_64-aarch64-none-elf/bin/../lib/gcc/aarch64-none-elf/13.2.1/../../../../aarch64-none-elf/lib/libg.a(libc_a-sbrkr.o)
 .debug_line    0x00000000000648f3      0x53c /tools/arm-gnu-toolchain-13.2.Rel1-x86_64-aarch64-none-elf/bin/../lib/gcc/aarch64-none-elf/13.2.1/../../../../aarch64-none-elf/lib/libg.a(libc_a-fvwrite.o)
 .debug_line    0x0000000000064e2f       0xf1 /tools/arm-gnu-toolchain-13.2.Rel1-x86_64-aarch64-none-elf/bin/../lib/gcc/aarch64-none-elf/13.2.1/../../../../aarch64-none-elf/lib/libg.a(libc_a-fwalk.o)
 .debug_line    0x0000000000064f20       0xd1 /tools/arm-gnu-toolchain-13.2.Rel1-x86_64-aarch64-none-elf/bin/../lib/gcc/aarch64-none-elf/13.2.1/../../../../aarch64-none-elf/lib/libg.a(libc_a-writer.o)
 .debug_line    0x0000000000064ff1     0x1536 /tools/arm-gnu-toolchain-13.2.Rel1-x86_64-aarch64-none-elf/bin/../lib/gcc/aarch64-none-elf/13.2.1/../../../../aarch64-none-elf/lib/libg.a(libc_a-svfiprintf.o)
 .debug_line    0x0000000000066527     0x2696 /tools/arm-gnu-toolchain-13.2.Rel1-x86_64-aarch64-none-elf/bin/../lib/gcc/aarch64-none-elf/13.2.1/../../../../aarch64-none-elf/lib/libg.a(libc_a-vfprintf.o)
 .debug_line    0x0000000000068bbd     0x1970 /tools/arm-gnu-toolchain-13.2.Rel1-x86_64-aarch64-none-elf/bin/../lib/gcc/aarch64-none-elf/13.2.1/../../../../aarch64-none-elf/lib/libg.a(libc_a-vfiprintf.o)
 .debug_line    0x000000000006a52d       0x58 /tools/arm-gnu-toolchain-13.2.Rel1-x86_64-aarch64-none-elf/bin/../lib/gcc/aarch64-none-elf/13.2.1/../../../../aarch64-none-elf/lib/libg.a(libc_a-u_strerr.o)
 .debug_line    0x000000000006a585       0x7f /tools/arm-gnu-toolchain-13.2.Rel1-x86_64-aarch64-none-elf/bin/../lib/gcc/aarch64-none-elf/13.2.1/../../../../aarch64-none-elf/lib/libg.a(libc_a-abort.o)
 .debug_line    0x000000000006a604      0x87b /tools/arm-gnu-toolchain-13.2.Rel1-x86_64-aarch64-none-elf/bin/../lib/gcc/aarch64-none-elf/13.2.1/../../../../aarch64-none-elf/lib/libg.a(libc_a-mbtowc_r.o)
 .debug_line    0x000000000006ae7f       0xa1 /tools/arm-gnu-toolchain-13.2.Rel1-x86_64-aarch64-none-elf/bin/../lib/gcc/aarch64-none-elf/13.2.1/../../../../aarch64-none-elf/lib/libg.a(libc_a-strcat.o)
 .debug_line    0x000000000006af20      0x130 /tools/arm-gnu-toolchain-13.2.Rel1-x86_64-aarch64-none-elf/bin/../lib/gcc/aarch64-none-elf/13.2.1/../../../../aarch64-none-elf/lib/libg.a(libc_a-lock.o)
 .debug_line    0x000000000006b050      0x1c9 /tools/arm-gnu-toolchain-13.2.Rel1-x86_64-aarch64-none-elf/bin/../lib/gcc/aarch64-none-elf/13.2.1/../../../../aarch64-none-elf/lib/libg.a(libc_a-fclose.o)
 .debug_line    0x000000000006b219      0x1e3 /tools/arm-gnu-toolchain-13.2.Rel1-x86_64-aarch64-none-elf/bin/../lib/gcc/aarch64-none-elf/13.2.1/../../../../aarch64-none-elf/lib/libg.a(libc_a-wsetup.o)
 .debug_line    0x000000000006b3fc      0x2a0 /tools/arm-gnu-toolchain-13.2.Rel1-x86_64-aarch64-none-elf/bin/../lib/gcc/aarch64-none-elf/13.2.1/../../../../aarch64-none-elf/lib/libg.a(libc_a-makebuf.o)
 .debug_line    0x000000000006b69c      0x20c /tools/arm-gnu-toolchain-13.2.Rel1-x86_64-aarch64-none-elf/bin/../lib/gcc/aarch64-none-elf/13.2.1/../../../../aarch64-none-elf/lib/libg.a(libc_a-putc.o)
 .debug_line    0x000000000006b8a8      0x2a1 /tools/arm-gnu-toolchain-13.2.Rel1-x86_64-aarch64-none-elf/bin/../lib/gcc/aarch64-none-elf/13.2.1/../../../../aarch64-none-elf/lib/libg.a(libc_a-wcsnrtombs.o)
 .debug_line    0x000000000006bb49       0xbd /tools/arm-gnu-toolchain-13.2.Rel1-x86_64-aarch64-none-elf/bin/../lib/gcc/aarch64-none-elf/13.2.1/../../../../aarch64-none-elf/lib/libg.a(libc_a-closer.o)
 .debug_line    0x000000000006bc06      0x3e0 /tools/arm-gnu-toolchain-13.2.Rel1-x86_64-aarch64-none-elf/bin/../lib/gcc/aarch64-none-elf/13.2.1/../../../../aarch64-none-elf/lib/libg.a(libc_a-fflush.o)
 .debug_line    0x000000000006bfe6       0x3a /tools/arm-gnu-toolchain-13.2.Rel1-x86_64-aarch64-none-elf/bin/../lib/gcc/aarch64-none-elf/13.2.1/../../../../aarch64-none-elf/lib/libg.a(libc_a-environ.o)
 .debug_line    0x000000000006c020      0x628 /tools/arm-gnu-toolchain-13.2.Rel1-x86_64-aarch64-none-elf/bin/../lib/gcc/aarch64-none-elf/13.2.1/../../../../aarch64-none-elf/lib/libg.a(libc_a-reallocr.o)
 .debug_line    0x000000000006c648       0x93 /tools/arm-gnu-toolchain-13.2.Rel1-x86_64-aarch64-none-elf/bin/../lib/gcc/aarch64-none-elf/13.2.1/../../../../aarch64-none-elf/lib/libg.a(libc_a-envlock.o)
 .debug_line    0x000000000006c6db       0xd6 /tools/arm-gnu-toolchain-13.2.Rel1-x86_64-aarch64-none-elf/bin/../lib/gcc/aarch64-none-elf/13.2.1/../../../../aarch64-none-elf/lib/libg.a(libc_a-fstatr.o)
 .debug_line    0x000000000006c7b1      0x5d9 /tools/arm-gnu-toolchain-13.2.Rel1-x86_64-aarch64-none-elf/bin/../lib/gcc/aarch64-none-elf/13.2.1/../../../../aarch64-none-elf/lib/libg.a(libc_a-signal.o)
 .debug_line    0x000000000006cd8a       0xbd /tools/arm-gnu-toolchain-13.2.Rel1-x86_64-aarch64-none-elf/bin/../lib/gcc/aarch64-none-elf/13.2.1/../../../../aarch64-none-elf/lib/libg.a(libc_a-isattyr.o)
 .debug_line    0x000000000006ce47       0xbf /tools/arm-gnu-toolchain-13.2.Rel1-x86_64-aarch64-none-elf/bin/../lib/gcc/aarch64-none-elf/13.2.1/../../../../aarch64-none-elf/lib/libg.a(libc_a-lseekr.o)
 .debug_line    0x000000000006cf06       0xd1 /tools/arm-gnu-toolchain-13.2.Rel1-x86_64-aarch64-none-elf/bin/../lib/gcc/aarch64-none-elf/13.2.1/../../../../aarch64-none-elf/lib/libg.a(libc_a-readr.o)
 .debug_line    0x000000000006cfd7      0x2c1 /tools/arm-gnu-toolchain-13.2.Rel1-x86_64-aarch64-none-elf/bin/../lib/gcc/aarch64-none-elf/13.2.1/../../../../aarch64-none-elf/lib/libg.a(libc_a-fputwc.o)
 .debug_line    0x000000000006d298       0xe5 /tools/arm-gnu-toolchain-13.2.Rel1-x86_64-aarch64-none-elf/bin/../lib/gcc/aarch64-none-elf/13.2.1/../../../../aarch64-none-elf/lib/libg.a(libc_a-signalr.o)
 .debug_line    0x000000000006d37d      0x1cd /tools/arm-gnu-toolchain-13.2.Rel1-x86_64-aarch64-none-elf/bin/../lib/gcc/aarch64-none-elf/13.2.1/../../../../aarch64-none-elf/lib/libg.a(libc_a-wbuf.o)
 .debug_line    0x000000000006d54a      0x7f9 /tools/arm-gnu-toolchain-13.2.Rel1-x86_64-aarch64-none-elf/bin/../lib/gcc/aarch64-none-elf/13.2.1/libgcc.a(trunctfdf2.o)
 .debug_line    0x000000000006dd43       0x98 /tools/arm-gnu-toolchain-13.2.Rel1-x86_64-aarch64-none-elf/bin/../lib/gcc/aarch64-none-elf/13.2.1/libgcc.a(sfp-exceptions.o)

.debug_str      0x0000000000000000    0xa45c1
 .debug_str     0x0000000000000000    0xa45c1 CMakeFiles/freertos_kernel.elf.dir/main.c.o
                                        0x432 (size before relaxing)
 .debug_str     0x00000000000a45c1      0x243 gloss/CMakeFiles/freedom_metal.dir/freedom_metal.c.o
 .debug_str     0x00000000000a45c1      0x1a8 gloss/CMakeFiles/freedom_metal.dir/nanosleep.c.o
 .debug_str     0x00000000000a45c1      0x187 gloss/CMakeFiles/freedom_metal.dir/sys_access.c.o
 .debug_str     0x00000000000a45c1      0x181 gloss/CMakeFiles/freedom_metal.dir/sys_chdir.c.o
 .debug_str     0x00000000000a45c1      0x1a1 gloss/CMakeFiles/freedom_metal.dir/sys_chmod.c.o
 .debug_str     0x00000000000a45c1      0x1a9 gloss/CMakeFiles/freedom_metal.dir/sys_chown.c.o
 .debug_str     0x00000000000a45c1      0x1da gloss/CMakeFiles/freedom_metal.dir/sys_clock_gettime.c.o
 .debug_str     0x00000000000a45c1      0x181 gloss/CMakeFiles/freedom_metal.dir/sys_close.c.o
 .debug_str     0x00000000000a45c1      0x187 gloss/CMakeFiles/freedom_metal.dir/sys_execve.c.o
 .debug_str     0x00000000000a45c1      0x18e gloss/CMakeFiles/freedom_metal.dir/sys_exit.c.o
 .debug_str     0x00000000000a45c1      0x196 gloss/CMakeFiles/freedom_metal.dir/sys_faccessat.c.o
 .debug_str     0x00000000000a45c1      0x17b gloss/CMakeFiles/freedom_metal.dir/sys_fork.c.o
 .debug_str     0x00000000000a45c1      0x2bd gloss/CMakeFiles/freedom_metal.dir/sys_fstat.c.o
 .debug_str     0x00000000000a45c1      0x2cb gloss/CMakeFiles/freedom_metal.dir/sys_fstatat.c.o
 .debug_str     0x00000000000a45c1      0x1a7 gloss/CMakeFiles/freedom_metal.dir/sys_ftime.c.o
 .debug_str     0x00000000000a45c1      0x189 gloss/CMakeFiles/freedom_metal.dir/sys_getcwd.c.o
 .debug_str     0x00000000000a45c1      0x19b gloss/CMakeFiles/freedom_metal.dir/sys_getpid.c.o
 .debug_str     0x00000000000a45c1      0x1fa gloss/CMakeFiles/freedom_metal.dir/sys_gettimeofday.c.o
 .debug_str     0x00000000000a45c1      0x17a gloss/CMakeFiles/freedom_metal.dir/sys_isatty.c.o
 .debug_str     0x00000000000a45c1      0x17b gloss/CMakeFiles/freedom_metal.dir/sys_kill.c.o
 .debug_str     0x00000000000a45c1      0x18d gloss/CMakeFiles/freedom_metal.dir/sys_link.c.o
 .debug_str     0x00000000000a45c1      0x196 gloss/CMakeFiles/freedom_metal.dir/sys_lseek.c.o
 .debug_str     0x00000000000a45c1      0x2bd gloss/CMakeFiles/freedom_metal.dir/sys_lstat.c.o
 .debug_str     0x00000000000a45c1      0x18b gloss/CMakeFiles/freedom_metal.dir/sys_open.c.o
 .debug_str     0x00000000000a45c1      0x193 gloss/CMakeFiles/freedom_metal.dir/sys_openat.c.o
 .debug_str     0x00000000000a45c1      0x198 gloss/CMakeFiles/freedom_metal.dir/sys_read.c.o
 .debug_str     0x00000000000a45c1      0x1e0 gloss/CMakeFiles/freedom_metal.dir/sys_sbrk.c.o
 .debug_str     0x00000000000a45c1      0x17b gloss/CMakeFiles/freedom_metal.dir/sys_sysconf.c.o
 .debug_str     0x00000000000a45c1      0x218 gloss/CMakeFiles/freedom_metal.dir/sys_times.c.o
 .debug_str     0x00000000000a45c1      0x182 gloss/CMakeFiles/freedom_metal.dir/sys_unlink.c.o
 .debug_str     0x00000000000a45c1      0x18f gloss/CMakeFiles/freedom_metal.dir/sys_utime.c.o
 .debug_str     0x00000000000a45c1      0x182 gloss/CMakeFiles/freedom_metal.dir/sys_wait.c.o
 .debug_str     0x00000000000a45c1      0x1ad gloss/CMakeFiles/freedom_metal.dir/sys_write.c.o
 .debug_str     0x00000000000a45c1     0x1129 build/drivers/mailbox/CMakeFiles/mailbox.dir/mailbox.c.o
 .debug_str     0x00000000000a45c1      0x330 build/drivers/mailbox/CMakeFiles/mailbox.dir/mailbox_cb.c.o
 .debug_str     0x00000000000a45c1    0x289da build/drivers/pmu/CMakeFiles/pmu.dir/pmu.c.o
 .debug_str     0x00000000000a45c1      0x615 build/drivers/uart/CMakeFiles/uart.dir/uart.c.o
 .debug_str     0x00000000000a45c1     0x18cd build/drivers/dma/CMakeFiles/dma.dir/pl330.c.o
 .debug_str     0x00000000000a45c1      0x737 build/drivers/gpio/CMakeFiles/gpio.dir/gpio.c.o
 .debug_str     0x00000000000a45c1      0x8f8 build/drivers/smmu/CMakeFiles/smmu.dir/smmu.c.o
 .debug_str     0x00000000000a45c1      0x496 build/drivers/smmu/CMakeFiles/smmu.dir/smmu_pmu.c.o
 .debug_str     0x00000000000a45c1     0x1440 build/drivers/pvt_con/CMakeFiles/pvt_con.dir/pvt_con.c.o
 .debug_str     0x00000000000a45c1    0x243fd build/drivers/cmu/CMakeFiles/cmu.dir/cmu.c.o
 .debug_str     0x00000000000a45c1      0x737 build/drivers/watchdog/CMakeFiles/watchdog.dir/dw_apb_wdt.c.o
 .debug_str     0x00000000000a45c1    0x3d17a build/drivers/rbc/CMakeFiles/rbc.dir/aw_ucie.c.o
 .debug_str     0x00000000000a45c1     0x303f build/drivers/rbc/CMakeFiles/rbc.dir/rbc_driver.c.o
 .debug_str     0x00000000000a45c1      0x2c2 build/drivers/rbc/CMakeFiles/rbc.dir/rbc_cmd.c.o
 .debug_str     0x00000000000a45c1    0x3d9b9 build/drivers/rbcm/CMakeFiles/rbcm.dir/rbcm_core.c.o
 .debug_str     0x00000000000a45c1    0x3d2ae build/drivers/rbcm/CMakeFiles/rbcm.dir/rbcm_driver.c.o
 .debug_str     0x00000000000a45c1      0x84b build/drivers/i2c/CMakeFiles/i2c.dir/i2c.c.o
 .debug_str     0x00000000000a45c1      0x544 build/drivers/noc_logger/CMakeFiles/noc_logger.dir/noc_logger.c.o
 .debug_str     0x00000000000a45c1    0x24ce6 build/drivers/hbm3/CMakeFiles/hbm3.dir/hbm3.c.o
 .debug_str     0x00000000000a45c1     0x4c26 build/drivers/hbm3/CMakeFiles/hbm3.dir/tmrs.c.o
 .debug_str     0x00000000000a45c1    0x1f237 build/drivers/hbm3/CMakeFiles/hbm3.dir/icon.c.o
 .debug_str     0x00000000000a45c1     0xeb4f build/drivers/hbm3/CMakeFiles/hbm3.dir/hbm3_irq.c.o
 .debug_str     0x00000000000a45c1     0xa98d build/drivers/hbm3/CMakeFiles/hbm3.dir/hbm3_am.c.o
 .debug_str     0x00000000000a45c1      0x2d4 build/drivers/pmic/CMakeFiles/pmic.dir/ltc1427cs8.c.o
 .debug_str     0x00000000000a45c1      0x246 build/drivers/pmic/CMakeFiles/pmic.dir/tca9548a.c.o
 .debug_str     0x00000000000a45c1      0x36c build/drivers/pmic/CMakeFiles/pmic.dir/mp5998.c.o
 .debug_str     0x00000000000a45c1      0x39f build/drivers/pmic/CMakeFiles/pmic.dir/mpq8785.c.o
 .debug_str     0x00000000000a45c1      0x419 build/drivers/pmic/CMakeFiles/pmic.dir/mp29816a.c.o
 .debug_str     0x00000000000a45c1      0x31e build/drivers/pmic/CMakeFiles/pmic.dir/g1505.c.o
 .debug_str     0x00000000000a45c1      0x738 build/drivers/pmic/CMakeFiles/pmic.dir/pmic_mgr.c.o
 .debug_str     0x00000000000a45c1     0x8c90 build/drivers/dvfs/CMakeFiles/dvfs.dir/dvfs.c.o
 .debug_str     0x00000000000a45c1      0x394 build/drivers/sic/CMakeFiles/sic.dir/sic.c.o
 .debug_str     0x00000000000a45c1      0x64f build/drivers/timer/dw_apb_timer/CMakeFiles/dw_apb_timer.dir/dw_apb_timer.c.o
 .debug_str     0x00000000000a45c1      0xb4a build/drivers/qspi/qspi_apb/CMakeFiles/qspi_apb.dir/qspi_apb.c.o
 .debug_str     0x00000000000a45c1      0x1a2 build/drivers/flash/CMakeFiles/flash.dir/mt25q_flash.c.o
 .debug_str     0x00000000000a45c1      0x377 build/tests/common/CMakeFiles/test_common.dir/test_mailbox_cb.c.o
 .debug_str     0x00000000000a45c1      0x949 build/tests/interrupt_test_helper_example/CMakeFiles/interrupt_test_helper_example.dir/example_test.c.o
 .debug_str     0x00000000000a45c1      0x1e0 build/tests/interrupt_test_helper_example/CMakeFiles/interrupt_test_helper_example.dir/example_driver.c.o
 .debug_str     0x00000000000a45c1      0x313 build/tests/arch/CMakeFiles/test_arch.dir/test_cli.c.o
 .debug_str     0x00000000000a45c1      0x923 build/tests/gpio/CMakeFiles/test_gpio.dir/test_gpio.c.o
 .debug_str     0x00000000000a45c1      0x6cf build/tests/dma/CMakeFiles/test_dma.dir/test_dma_main.c.o
 .debug_str     0x00000000000a45c1      0x7c4 build/tests/mailbox/CMakeFiles/mailbox_test.dir/test_mailbox_main.c.o
 .debug_str     0x00000000000a45c1      0xf7b build/tests/pvt_con/CMakeFiles/test_pvt_con.dir/test_pvt_con.c.o
 .debug_str     0x00000000000a45c1      0x632 build/tests/arch/arm64/CMakeFiles/test_arm64.dir/test_ca73.c.o
 .debug_str     0x00000000000a45c1      0x4e6 build/tests/timer/dw_apb_timer/CMakeFiles/test_dw_apb_timer.dir/test_dw_apb_timer.c.o
 .debug_str     0x00000000000a45c1    0x2a2f0 build/tests/cmu/CMakeFiles/test_cmu.dir/test_cmu_main.c.o
 .debug_str     0x00000000000a45c1      0x324 build/tests/smmu/CMakeFiles/test_mmu.dir/test_mmu_main.c.o
 .debug_str     0x00000000000a45c1      0x385 build/tests/log/CMakeFiles/show_log.dir/rebel_h_log.c.o
 .debug_str     0x00000000000a45c1      0x66a build/tests/rbc/CMakeFiles/test_rbc.dir/test/all_test.c.o
 .debug_str     0x00000000000a45c1    0x3c377 build/tests/rbc/CMakeFiles/test_rbc.dir/test/test_aw_ucie_init.c.o
 .debug_str     0x00000000000a45c1    0x3d5ea build/tests/rbc/CMakeFiles/test_rbc.dir/test/test_aw_ucie_d2d_comp.c.o
 .debug_str     0x00000000000a45c1    0x3c01f build/tests/rbc/CMakeFiles/test_rbc.dir/test/test_aw_ucie_d2d_err_and_link.c.o
 .debug_str     0x00000000000a45c1    0x3b847 build/tests/rbc/CMakeFiles/test_rbc.dir/test/test_aw_ucie_retraining.c.o
 .debug_str     0x00000000000a45c1    0x3be14 build/tests/rbc/CMakeFiles/test_rbc.dir/test/test_aw_ucie_sideband.c.o
 .debug_str     0x00000000000a45c1    0x3cb5e build/tests/rbc/CMakeFiles/test_rbc.dir/test/test_aw_ucie_training.c.o
 .debug_str     0x00000000000a45c1    0x40bac build/tests/rbc/CMakeFiles/test_rbc.dir/test/test_aw_ucie_runtime_link_test.c.o
 .debug_str     0x00000000000a45c1    0x3fbbe build/tests/rbc/CMakeFiles/test_rbc.dir/test/test_aw_ucie_phy_compliance_test.c.o
 .debug_str     0x00000000000a45c1    0x3cb8c build/tests/rbc/CMakeFiles/test_rbc.dir/test/test_aw_ucie_exception.c.o
 .debug_str     0x00000000000a45c1    0x3bb64 build/tests/rbc/CMakeFiles/test_rbc.dir/test/test_aw_ucie_eye_of_margin.c.o
 .debug_str     0x00000000000a45c1    0x3b58a build/tests/rbc/CMakeFiles/test_rbc.dir/test/test_aw_ucie_util.c.o
 .debug_str     0x00000000000a45c1      0x4d4 build/tests/rbc/CMakeFiles/test_rbc.dir/test/test_fake_timer.c.o
 .debug_str     0x00000000000a45c1    0x3eb59 build/tests/rbc/CMakeFiles/test_rbc.dir/test/test_rbc_driver.c.o
 .debug_str     0x00000000000a45c1      0x189 build/tests/rbc/CMakeFiles/test_rbc.dir/mocks/fake_timer.c.o
 .debug_str     0x00000000000a45c1      0x26b build/tests/rbc/CMakeFiles/test_rbc.dir/mocks/fake_gic.c.o
 .debug_str     0x00000000000a45c1      0xcab build/tests/rbcm/CMakeFiles/test_rbcm.dir/rbcm_test.c.o
 .debug_str     0x00000000000a45c1      0x410 build/tests/rbcm/CMakeFiles/test_rbcm.dir/rbcm_reg_access_test.c.o
 .debug_str     0x00000000000a45c1      0x68b build/tests/i2c/CMakeFiles/test_i2c.dir/test_i2c_main.c.o
 .debug_str     0x00000000000a45c1      0x56d build/tests/hbm3/CMakeFiles/hbm3_test.dir/memtest.c.o
 .debug_str     0x00000000000a45c1      0x36b build/tests/hbm3/CMakeFiles/hbm3_test.dir/hbm3_irq_test.c.o
 .debug_str     0x00000000000a45c1      0xe32 build/tests/system_test/CMakeFiles/system_test.dir/test_system.c.o
 .debug_str     0x00000000000a45c1      0x695 build/tests/system_test/CMakeFiles/system_test.dir/dma_transaction.c.o
 .debug_str     0x00000000000a45c1      0x7c9 build/tests/system_test/CMakeFiles/system_test.dir/test_dma_transaction.c.o
 .debug_str     0x00000000000a45c1      0x3b2 build/tests/system_test/CMakeFiles/system_test.dir/data_process.c.o
 .debug_str     0x00000000000a45c1      0xa15 build/tests/system_test/CMakeFiles/system_test.dir/test_data_process.c.o
 .debug_str     0x00000000000a45c1      0x2e0 build/tests/dvfs/CMakeFiles/test_dvfs.dir/test_dvfs_main.c.o
 .debug_str     0x00000000000a45c1      0x3dc build/tests/pmic/CMakeFiles/test_pmic.dir/test_pmic_main.c.o
 .debug_str     0x00000000000a45c1      0x3af build/tests/pvt_con/CMakeFiles/pvt_cli.dir/pvt_cli.c.o
 .debug_str     0x00000000000a45c1      0xe31 build/tests/pvt_con/CMakeFiles/pvt_cli.dir/pvt_cli_show.c.o
 .debug_str     0x00000000000a45c1      0xd02 build/tests/pvt_con/CMakeFiles/pvt_cli.dir/pvt_cli_enable.c.o
 .debug_str     0x00000000000a45c1      0xd07 build/tests/pvt_con/CMakeFiles/pvt_cli.dir/pvt_cli_disable.c.o
 .debug_str     0x00000000000a45c1      0xce9 build/tests/pvt_con/CMakeFiles/pvt_cli.dir/pvt_cli_set.c.o
 .debug_str     0x00000000000a45c1      0x324 build/tests/sic/CMakeFiles/test_sic.dir/test_sic.c.o
 .debug_str     0x00000000000a45c1      0x263 build/tests/chipid/CMakeFiles/test_chipid.dir/read_chipid.c.o
 .debug_str     0x00000000000a45c1      0x24d build/tests/flash/CMakeFiles/test_flash.dir/test_flash.c.o
 .debug_str     0x00000000000a45c1      0x277 build/tests/qspi/CMakeFiles/test_qspiapb.dir/test_qspiapb.c.o
 .debug_str     0x00000000000a45c1      0x846 build/tests/rbdma/CMakeFiles/test_rbdma.dir/rbdma_tsync_test.c.o
 .debug_str     0x00000000000a45c1      0x259 build/tests/rbdma/CMakeFiles/test_rbdma.dir/test_main_rbdma.c.o
 .debug_str     0x00000000000a45c1      0xc21 libfreertos_kernel.a(queue.c.o)
 .debug_str     0x00000000000a45c1     0x1a4a libfreertos_kernel.a(tasks.c.o)
 .debug_str     0x00000000000a45c1      0xabd libfreertos_kernel.a(timers.c.o)
 .debug_str     0x00000000000a45c1      0x5c1 libfreertos_kernel.a(heap_4.c.o)
 .debug_str     0x00000000000a45c1      0x380 libfreertos_kernel.a(list.c.o)
 .debug_str     0x00000000000a45c1      0xa30 portable/libfreertos_kernel_port.a(port.c.o)
 .debug_str     0x00000000000a45c1      0x1e0 build/drivers/common/libdriver.a(driver.c.o)
 .debug_str     0x00000000000a45c1      0x1fa build/drivers/common/libassert.a(assert.c.o)
 .debug_str     0x00000000000a45c1      0x383 build/drivers/common/libinterrupt.a(interrupt.c.o)
 .debug_str     0x00000000000a45c1      0x50e build/drivers/intc/libintc.a(gicv3.c.o)
 .debug_str     0x00000000000a45c1      0x1af build/drivers/intc/libintc.a(bakery_lock.c.o)
 .debug_str     0x00000000000a45c1      0x41b services/cli_service/libcli_service.a(cli_task.c.o)
 .debug_str     0x00000000000a45c1      0x565 services/cli_service/libcli_service.a(sys_command_line.c.o)
 .debug_str     0x00000000000a45c1      0x39f services/terminal_service/libterminal_service.a(console_uart.c.o)
 .debug_str     0x00000000000a45c1      0x3f1 services/terminal_service/libterminal_service.a(console.c.o)
 .debug_str     0x00000000000a45c1      0x5f4 services/terminal_service/libterminal_service.a(terminal_task.c.o)
 .debug_str     0x00000000000a45c1     0x74ec services/replay_service/libreplay_service.a(replay.c.o)
 .debug_str     0x00000000000a45c1      0xe2d services/replay_service/libreplay_service.a(sub_function.c.o)
 .debug_str     0x00000000000a45c1      0x6ac services/replay_service/libreplay_service.a(rush_cli.c.o)
 .debug_str     0x00000000000a45c1      0x3ae services/replay_service/libreplay_service.a(rush_cli_msg_buf.c.o)
 .debug_str     0x00000000000a45c1      0x695 services/replay_service/libreplay_service.a(tpg_cli.c.o)
 .debug_str     0x00000000000a45c1      0x85d services/replay_service/libreplay_service.a(rbdma_cli.c.o)
 .debug_str     0x00000000000a45c1      0x5cc services/replay_service/libreplay_service.a(mem_cli.c.o)
 .debug_str     0x00000000000a45c1      0xe14 services/replay_service/libreplay_service.a(chiplet.c.o)
 .debug_str     0x00000000000a45c1     0x1942 services/replay_service/libreplay_service.a(cmgr_if.c.o)
 .debug_str     0x00000000000a45c1     0x420b services/replay_service/libreplay_service.a(dnc_if.c.o)
 .debug_str     0x00000000000a45c1      0x69e services/replay_service/libreplay_service.a(dnc_if_evt1.c.o)
 .debug_str     0x00000000000a45c1     0x16ae services/replay_service/libreplay_service.a(rdsn_if.c.o)
 .debug_str     0x00000000000a45c1      0x73f services/replay_service/libreplay_service.a(ptw.c.o)
 .debug_str     0x00000000000a45c1     0x2ae4 services/replay_service/libreplay_service.a(rbdma_if.c.o)
 .debug_str     0x00000000000a45c1     0x16c9 services/replay_service/libreplay_service.a(shm_if.c.o)
 .debug_str     0x00000000000a45c1     0x1479 services/replay_service/libreplay_service.a(tbu_wrapper.c.o)
 .debug_str     0x00000000000a45c1      0x26d services/replay_service/libreplay_service.a(debug.c.o)
 .debug_str     0x00000000000a45c1      0xfcb services/replay_service/libreplay_service.a(ici.c.o)
 .debug_str     0x00000000000a45c1      0x572 services/replay_service/libreplay_service.a(page_table_gen.c.o)
 .debug_str     0x00000000000a45c1      0x86e services/replay_service/libreplay_service.a(profile.c.o)
 .debug_str     0x00000000000a45c1      0x8f8 services/replay_service/libreplay_service.a(rl_queue.c.o)
 .debug_str     0x00000000000a45c1      0x69e services/replay_service/libreplay_service.a(abort.c.o)
 .debug_str     0x00000000000a45c1      0x18f services/replay_service/libreplay_service.a(cpu_data.c.o)
 .debug_str     0x00000000000a45c1      0x1a9 services/replay_service/libreplay_service.a(spinlock.c.o)
 .debug_str     0x00000000000a45c1      0x52f services/replay_service/libreplay_service.a(core.c.o)
 .debug_str     0x00000000000a45c1      0x486 services/replay_service/libreplay_service.a(log.c.o)
 .debug_str     0x00000000000a45c1      0x242 services/replay_service/libreplay_service.a(rand.c.o)
 .debug_str     0x00000000000a45c1      0x3a3 services/replay_service/libreplay_service.a(backtrace.c.o)
 .debug_str     0x00000000000a45c1      0x50e services/replay_service/libreplay_service.a(argparse.c.o)
 .debug_str     0x00000000000a45c1      0x350 services/replay_service/libreplay_service.a(rush_cli_util.c.o)
 .debug_str     0x00000000000a45c1      0x437 services/task_adder_service/libtask_adder_service.a(task_adder.c.o)
 .debug_str     0x00000000000a45c1      0x1ad portable/libfreertos_arch.a(prep_c.c.o)
 .debug_str     0x00000000000a45c1      0x35b libfreertos_kernel_config.a(FreeRTOS_tick_config.c.o)
 .debug_str     0x00000000000a45c1      0x32d portable/libsmp.a(smp.c.o)
 .debug_str     0x00000000000a45c1      0x7a1 portable/libmmu.a(mmu.c.o)
 .debug_str     0x00000000000a45c1      0x427 build/interrupt_test_helper/libinterrupt_test_helper.a(interrupt_test_helper.c.o)
 .debug_str     0x00000000000a45c1      0xe27 build/unity/libunity.a(unity.c.o)
 .debug_str     0x00000000000a45c1      0x494 build/unity/libunity.a(unity_fixture.c.o)
 .debug_str     0x00000000000a45c1      0x1be build/drivers/psci/libpsci.a(psci.c.o)
 .debug_str     0x00000000000a45c1      0x7a5 libfreertos_kernel.a(event_groups.c.o)
 .debug_str     0x00000000000a45c1      0xa08 libfreertos_kernel.a(stream_buffer.c.o)
 .debug_str     0x00000000000a45c1      0x39e build/common/arch/libcommon.a(printf.c.o)
 .debug_str     0x00000000000a45c1      0x2ba build/common/arch/libcommon.a(system_api.c.o)
 .debug_str     0x00000000000a45c1      0x328 build/drivers/timer/generic_timer/libgeneric_timer.a(generic_timer.c.o)
 .debug_str     0x00000000000a45c1       0xdd /tools/arm-gnu-toolchain-13.2.Rel1-x86_64-aarch64-none-elf/bin/../lib/gcc/aarch64-none-elf/13.2.1/libgcc.a(ldset_8_4.o)
 .debug_str     0x00000000000a45c1       0xb4 /tools/arm-gnu-toolchain-13.2.Rel1-x86_64-aarch64-none-elf/bin/../lib/gcc/aarch64-none-elf/13.2.1/libgcc.a(lse-init.o)
 .debug_str     0x00000000000a45c1      0x912 /tools/arm-gnu-toolchain-13.2.Rel1-x86_64-aarch64-none-elf/bin/../lib/gcc/aarch64-none-elf/13.2.1/../../../../aarch64-none-elf/lib/libg.a(libc_a-strtod.o)
 .debug_str     0x00000000000a45c1      0x69f /tools/arm-gnu-toolchain-13.2.Rel1-x86_64-aarch64-none-elf/bin/../lib/gcc/aarch64-none-elf/13.2.1/../../../../aarch64-none-elf/lib/libg.a(libc_a-strtol.o)
 .debug_str     0x00000000000a45c1      0x812 /tools/arm-gnu-toolchain-13.2.Rel1-x86_64-aarch64-none-elf/bin/../lib/gcc/aarch64-none-elf/13.2.1/../../../../aarch64-none-elf/lib/libg.a(libc_a-gdtoa-gethex.o)
 .debug_str     0x00000000000a45c1      0x69b /tools/arm-gnu-toolchain-13.2.Rel1-x86_64-aarch64-none-elf/bin/../lib/gcc/aarch64-none-elf/13.2.1/../../../../aarch64-none-elf/lib/libg.a(libc_a-strtoul.o)
 .debug_str     0x00000000000a45c1      0x243 /tools/arm-gnu-toolchain-13.2.Rel1-x86_64-aarch64-none-elf/bin/../lib/gcc/aarch64-none-elf/13.2.1/../../../../aarch64-none-elf/lib/libg.a(libc_a-gdtoa-hexnan.o)
 .debug_str     0x00000000000a45c1      0x69b /tools/arm-gnu-toolchain-13.2.Rel1-x86_64-aarch64-none-elf/bin/../lib/gcc/aarch64-none-elf/13.2.1/../../../../aarch64-none-elf/lib/libg.a(libc_a-strtoll.o)
 .debug_str     0x00000000000a45c1      0x137 /tools/arm-gnu-toolchain-13.2.Rel1-x86_64-aarch64-none-elf/bin/../lib/gcc/aarch64-none-elf/13.2.1/../../../../aarch64-none-elf/lib/libg.a(libc_a-strncpy.o)
 .debug_str     0x00000000000a45c1      0x69f /tools/arm-gnu-toolchain-13.2.Rel1-x86_64-aarch64-none-elf/bin/../lib/gcc/aarch64-none-elf/13.2.1/../../../../aarch64-none-elf/lib/libg.a(libc_a-strtoull.o)
 .debug_str     0x00000000000a45c1       0xe0 /tools/arm-gnu-toolchain-13.2.Rel1-x86_64-aarch64-none-elf/bin/../lib/gcc/aarch64-none-elf/13.2.1/../../../../aarch64-none-elf/lib/libg.a(libc_a-strchr.o)
 .debug_str     0x00000000000a45c1       0xe0 /tools/arm-gnu-toolchain-13.2.Rel1-x86_64-aarch64-none-elf/bin/../lib/gcc/aarch64-none-elf/13.2.1/../../../../aarch64-none-elf/lib/libg.a(libc_a-strcmp.o)
 .debug_str     0x00000000000a45c1      0x486 /tools/arm-gnu-toolchain-13.2.Rel1-x86_64-aarch64-none-elf/bin/../lib/gcc/aarch64-none-elf/13.2.1/../../../../aarch64-none-elf/lib/libg.a(libc_a-sprintf.o)
 .debug_str     0x00000000000a45c1       0xe0 /tools/arm-gnu-toolchain-13.2.Rel1-x86_64-aarch64-none-elf/bin/../lib/gcc/aarch64-none-elf/13.2.1/../../../../aarch64-none-elf/lib/libg.a(libc_a-strlen.o)
 .debug_str     0x00000000000a45c1      0x10e /tools/arm-gnu-toolchain-13.2.Rel1-x86_64-aarch64-none-elf/bin/../lib/gcc/aarch64-none-elf/13.2.1/../../../../aarch64-none-elf/lib/libg.a(libc_a-strspn.o)
 .debug_str     0x00000000000a45c1      0x430 /tools/arm-gnu-toolchain-13.2.Rel1-x86_64-aarch64-none-elf/bin/../lib/gcc/aarch64-none-elf/13.2.1/../../../../aarch64-none-elf/lib/libg.a(libc_a-strtok.o)
 .debug_str     0x00000000000a45c1      0x13e /tools/arm-gnu-toolchain-13.2.Rel1-x86_64-aarch64-none-elf/bin/../lib/gcc/aarch64-none-elf/13.2.1/../../../../aarch64-none-elf/lib/libg.a(libc_a-strtok_r.o)
 .debug_str     0x00000000000a45c1      0x227 /tools/arm-gnu-toolchain-13.2.Rel1-x86_64-aarch64-none-elf/bin/../lib/gcc/aarch64-none-elf/13.2.1/../../../../aarch64-none-elf/lib/libg.a(libc_a-strstr.o)
 .debug_str     0x00000000000a45c1      0x62f /tools/arm-gnu-toolchain-13.2.Rel1-x86_64-aarch64-none-elf/bin/../lib/gcc/aarch64-none-elf/13.2.1/../../../../aarch64-none-elf/lib/libg.a(libc_a-getopt.o)
 .debug_str     0x00000000000a45c1      0x41a /tools/arm-gnu-toolchain-13.2.Rel1-x86_64-aarch64-none-elf/bin/../lib/gcc/aarch64-none-elf/13.2.1/../../../../aarch64-none-elf/lib/libg.a(libc_a-errno.o)
 .debug_str     0x00000000000a45c1      0x8d4 /tools/arm-gnu-toolchain-13.2.Rel1-x86_64-aarch64-none-elf/bin/../lib/gcc/aarch64-none-elf/13.2.1/../../../../aarch64-none-elf/lib/libg.a(libc_a-svfprintf.o)
 .debug_str     0x00000000000a45c1       0xe2 /tools/arm-gnu-toolchain-13.2.Rel1-x86_64-aarch64-none-elf/bin/../lib/gcc/aarch64-none-elf/13.2.1/../../../../aarch64-none-elf/lib/libg.a(libc_a-strncmp.o)
 .debug_str     0x00000000000a45c1       0xe2 /tools/arm-gnu-toolchain-13.2.Rel1-x86_64-aarch64-none-elf/bin/../lib/gcc/aarch64-none-elf/13.2.1/../../../../aarch64-none-elf/lib/libg.a(libc_a-strnlen.o)
 .debug_str     0x00000000000a45c1      0x496 /tools/arm-gnu-toolchain-13.2.Rel1-x86_64-aarch64-none-elf/bin/../lib/gcc/aarch64-none-elf/13.2.1/../../../../aarch64-none-elf/lib/libg.a(libc_a-vsnprintf.o)
 .debug_str     0x00000000000a45c1      0x443 /tools/arm-gnu-toolchain-13.2.Rel1-x86_64-aarch64-none-elf/bin/../lib/gcc/aarch64-none-elf/13.2.1/../../../../aarch64-none-elf/lib/libg.a(libc_a-malloc.o)
 .debug_str     0x00000000000a45c1      0x63d /tools/arm-gnu-toolchain-13.2.Rel1-x86_64-aarch64-none-elf/bin/../lib/gcc/aarch64-none-elf/13.2.1/../../../../aarch64-none-elf/lib/libg.a(libc_a-mallocr.o)
 .debug_str     0x00000000000a45c1      0x457 /tools/arm-gnu-toolchain-13.2.Rel1-x86_64-aarch64-none-elf/bin/../lib/gcc/aarch64-none-elf/13.2.1/../../../../aarch64-none-elf/lib/libg.a(libc_a-assert.o)
 .debug_str     0x00000000000a45c1       0xfc /tools/arm-gnu-toolchain-13.2.Rel1-x86_64-aarch64-none-elf/bin/../lib/gcc/aarch64-none-elf/13.2.1/../../../../aarch64-none-elf/lib/libg.a(libc_a-strcasecmp.o)
 .debug_str     0x00000000000a45c1      0x649 /tools/arm-gnu-toolchain-13.2.Rel1-x86_64-aarch64-none-elf/bin/../lib/gcc/aarch64-none-elf/13.2.1/../../../../aarch64-none-elf/lib/libg.a(libc_a-wcrtomb.o)
 .debug_str     0x00000000000a45c1      0x85e /tools/arm-gnu-toolchain-13.2.Rel1-x86_64-aarch64-none-elf/bin/../lib/gcc/aarch64-none-elf/13.2.1/../../../../aarch64-none-elf/lib/libg.a(libc_a-locale.o)
 .debug_str     0x00000000000a45c1      0x66b /tools/arm-gnu-toolchain-13.2.Rel1-x86_64-aarch64-none-elf/bin/../lib/gcc/aarch64-none-elf/13.2.1/../../../../aarch64-none-elf/lib/libg.a(libc_a-localeconv.o)
 .debug_str     0x00000000000a45c1       0xe0 /tools/arm-gnu-toolchain-13.2.Rel1-x86_64-aarch64-none-elf/bin/../lib/gcc/aarch64-none-elf/13.2.1/../../../../aarch64-none-elf/lib/libg.a(libc_a-memchr.o)
 .debug_str     0x00000000000a45c1       0xe0 /tools/arm-gnu-toolchain-13.2.Rel1-x86_64-aarch64-none-elf/bin/../lib/gcc/aarch64-none-elf/13.2.1/../../../../aarch64-none-elf/lib/libg.a(libc_a-memcmp.o)
 .debug_str     0x00000000000a45c1      0x483 /tools/arm-gnu-toolchain-13.2.Rel1-x86_64-aarch64-none-elf/bin/../lib/gcc/aarch64-none-elf/13.2.1/../../../../aarch64-none-elf/lib/libg.a(libc_a-printf.o)
 .debug_str     0x00000000000a45c1       0xe0 /tools/arm-gnu-toolchain-13.2.Rel1-x86_64-aarch64-none-elf/bin/../lib/gcc/aarch64-none-elf/13.2.1/../../../../aarch64-none-elf/lib/libg.a(libc_a-memcpy.o)
 .debug_str     0x00000000000a45c1      0x438 /tools/arm-gnu-toolchain-13.2.Rel1-x86_64-aarch64-none-elf/bin/../lib/gcc/aarch64-none-elf/13.2.1/../../../../aarch64-none-elf/lib/libg.a(libc_a-putchar.o)
 .debug_str     0x00000000000a45c1      0x4de /tools/arm-gnu-toolchain-13.2.Rel1-x86_64-aarch64-none-elf/bin/../lib/gcc/aarch64-none-elf/13.2.1/../../../../aarch64-none-elf/lib/libg.a(libc_a-puts.o)
 .debug_str     0x00000000000a45c1      0x4a1 /tools/arm-gnu-toolchain-13.2.Rel1-x86_64-aarch64-none-elf/bin/../lib/gcc/aarch64-none-elf/13.2.1/../../../../aarch64-none-elf/lib/libg.a(libc_a-mlock.o)
 .debug_str     0x00000000000a45c1      0x71b /tools/arm-gnu-toolchain-13.2.Rel1-x86_64-aarch64-none-elf/bin/../lib/gcc/aarch64-none-elf/13.2.1/../../../../aarch64-none-elf/lib/libg.a(libc_a-mprec.o)
 .debug_str     0x00000000000a45c1      0x424 /tools/arm-gnu-toolchain-13.2.Rel1-x86_64-aarch64-none-elf/bin/../lib/gcc/aarch64-none-elf/13.2.1/../../../../aarch64-none-elf/lib/libg.a(libc_a-atoi.o)
 .debug_str     0x00000000000a45c1      0x428 /tools/arm-gnu-toolchain-13.2.Rel1-x86_64-aarch64-none-elf/bin/../lib/gcc/aarch64-none-elf/13.2.1/../../../../aarch64-none-elf/lib/libg.a(libc_a-rand.o)
 .debug_str     0x00000000000a45c1      0x46f /tools/arm-gnu-toolchain-13.2.Rel1-x86_64-aarch64-none-elf/bin/../lib/gcc/aarch64-none-elf/13.2.1/../../../../aarch64-none-elf/lib/libg.a(libc_a-callocr.o)
 .debug_str     0x00000000000a45c1      0x450 /tools/arm-gnu-toolchain-13.2.Rel1-x86_64-aarch64-none-elf/bin/../lib/gcc/aarch64-none-elf/13.2.1/../../../../aarch64-none-elf/lib/libg.a(libc_a-wcsrtombs.o)
 .debug_str     0x00000000000a45c1      0x762 /tools/arm-gnu-toolchain-13.2.Rel1-x86_64-aarch64-none-elf/bin/../lib/gcc/aarch64-none-elf/13.2.1/../../../../aarch64-none-elf/lib/libg.a(libc_a-dtoa.o)
 .debug_str     0x00000000000a45c1      0x46e /tools/arm-gnu-toolchain-13.2.Rel1-x86_64-aarch64-none-elf/bin/../lib/gcc/aarch64-none-elf/13.2.1/../../../../aarch64-none-elf/lib/libg.a(libc_a-strerror.o)
 .debug_str     0x00000000000a45c1      0x600 /tools/arm-gnu-toolchain-13.2.Rel1-x86_64-aarch64-none-elf/bin/../lib/gcc/aarch64-none-elf/13.2.1/../../../../aarch64-none-elf/lib/libg.a(libc_a-ctype_.o)
 .debug_str     0x00000000000a45c1      0x43f /tools/arm-gnu-toolchain-13.2.Rel1-x86_64-aarch64-none-elf/bin/../lib/gcc/aarch64-none-elf/13.2.1/../../../../aarch64-none-elf/lib/libg.a(libc_a-reent.o)
 .debug_str     0x00000000000a45c1      0x424 /tools/arm-gnu-toolchain-13.2.Rel1-x86_64-aarch64-none-elf/bin/../lib/gcc/aarch64-none-elf/13.2.1/../../../../aarch64-none-elf/lib/libg.a(libc_a-impure.o)
 .debug_str     0x00000000000a45c1      0x6a7 /tools/arm-gnu-toolchain-13.2.Rel1-x86_64-aarch64-none-elf/bin/../lib/gcc/aarch64-none-elf/13.2.1/../../../../aarch64-none-elf/lib/libg.a(libc_a-findfp.o)
 .debug_str     0x00000000000a45c1       0xe0 /tools/arm-gnu-toolchain-13.2.Rel1-x86_64-aarch64-none-elf/bin/../lib/gcc/aarch64-none-elf/13.2.1/../../../../aarch64-none-elf/lib/libg.a(libc_a-memset.o)
 .debug_str     0x00000000000a45c1      0x121 /tools/arm-gnu-toolchain-13.2.Rel1-x86_64-aarch64-none-elf/bin/../lib/gcc/aarch64-none-elf/13.2.1/../../../../aarch64-none-elf/lib/libg.a(libm_a-s_nan.o)
 .debug_str     0x00000000000a45c1      0x126 /tools/arm-gnu-toolchain-13.2.Rel1-x86_64-aarch64-none-elf/bin/../lib/gcc/aarch64-none-elf/13.2.1/../../../../aarch64-none-elf/lib/libg.a(libm_a-sf_nan.o)
 .debug_str     0x00000000000a45c1      0x165 /tools/arm-gnu-toolchain-13.2.Rel1-x86_64-aarch64-none-elf/bin/../lib/gcc/aarch64-none-elf/13.2.1/../../../../aarch64-none-elf/lib/libg.a(libm_a-s_frexp.o)
 .debug_str     0x00000000000a45c1      0x120 /tools/arm-gnu-toolchain-13.2.Rel1-x86_64-aarch64-none-elf/bin/../lib/gcc/aarch64-none-elf/13.2.1/../../../../aarch64-none-elf/lib/libg.a(libc_a-strlcpy.o)
 .debug_str     0x00000000000a45c1      0x587 /tools/arm-gnu-toolchain-13.2.Rel1-x86_64-aarch64-none-elf/bin/../lib/gcc/aarch64-none-elf/13.2.1/../../../../aarch64-none-elf/lib/libg.a(libc_a-freer.o)
 .debug_str     0x00000000000a45c1      0x104 /tools/arm-gnu-toolchain-13.2.Rel1-x86_64-aarch64-none-elf/bin/../lib/gcc/aarch64-none-elf/13.2.1/../../../../aarch64-none-elf/lib/libg.a(libc_a-strncasecmp.o)
 .debug_str     0x00000000000a45c1      0x439 /tools/arm-gnu-toolchain-13.2.Rel1-x86_64-aarch64-none-elf/bin/../lib/gcc/aarch64-none-elf/13.2.1/../../../../aarch64-none-elf/lib/libg.a(libc_a-getenv.o)
 .debug_str     0x00000000000a45c1      0x46a /tools/arm-gnu-toolchain-13.2.Rel1-x86_64-aarch64-none-elf/bin/../lib/gcc/aarch64-none-elf/13.2.1/../../../../aarch64-none-elf/lib/libg.a(libc_a-getenv_r.o)
 .debug_str     0x00000000000a45c1      0x49c /tools/arm-gnu-toolchain-13.2.Rel1-x86_64-aarch64-none-elf/bin/../lib/gcc/aarch64-none-elf/13.2.1/../../../../aarch64-none-elf/lib/libg.a(libc_a-fputc.o)
 .debug_str     0x00000000000a45c1      0x4e0 /tools/arm-gnu-toolchain-13.2.Rel1-x86_64-aarch64-none-elf/bin/../lib/gcc/aarch64-none-elf/13.2.1/../../../../aarch64-none-elf/lib/libg.a(libc_a-fputs.o)
 .debug_str     0x00000000000a45c1      0x488 /tools/arm-gnu-toolchain-13.2.Rel1-x86_64-aarch64-none-elf/bin/../lib/gcc/aarch64-none-elf/13.2.1/../../../../aarch64-none-elf/lib/libg.a(libc_a-fiprintf.o)
 .debug_str     0x00000000000a45c1       0xe0 /tools/arm-gnu-toolchain-13.2.Rel1-x86_64-aarch64-none-elf/bin/../lib/gcc/aarch64-none-elf/13.2.1/../../../../aarch64-none-elf/lib/libg.a(libc_a-strcpy.o)
 .debug_str     0x00000000000a45c1      0x48d /tools/arm-gnu-toolchain-13.2.Rel1-x86_64-aarch64-none-elf/bin/../lib/gcc/aarch64-none-elf/13.2.1/../../../../aarch64-none-elf/lib/libg.a(libc_a-stdio.o)
 .debug_str     0x00000000000a45c1      0x68d /tools/arm-gnu-toolchain-13.2.Rel1-x86_64-aarch64-none-elf/bin/../lib/gcc/aarch64-none-elf/13.2.1/../../../../aarch64-none-elf/lib/libg.a(libc_a-wctomb_r.o)
 .debug_str     0x00000000000a45c1      0x429 /tools/arm-gnu-toolchain-13.2.Rel1-x86_64-aarch64-none-elf/bin/../lib/gcc/aarch64-none-elf/13.2.1/../../../../aarch64-none-elf/lib/libg.a(libc_a-sbrkr.o)
 .debug_str     0x00000000000a45c1      0x4c2 /tools/arm-gnu-toolchain-13.2.Rel1-x86_64-aarch64-none-elf/bin/../lib/gcc/aarch64-none-elf/13.2.1/../../../../aarch64-none-elf/lib/libg.a(libc_a-fvwrite.o)
 .debug_str     0x00000000000a45c1      0x430 /tools/arm-gnu-toolchain-13.2.Rel1-x86_64-aarch64-none-elf/bin/../lib/gcc/aarch64-none-elf/13.2.1/../../../../aarch64-none-elf/lib/libg.a(libc_a-fwalk.o)
 .debug_str     0x00000000000a45c1      0x425 /tools/arm-gnu-toolchain-13.2.Rel1-x86_64-aarch64-none-elf/bin/../lib/gcc/aarch64-none-elf/13.2.1/../../../../aarch64-none-elf/lib/libg.a(libc_a-writer.o)
 .debug_str     0x00000000000a45c1      0x83e /tools/arm-gnu-toolchain-13.2.Rel1-x86_64-aarch64-none-elf/bin/../lib/gcc/aarch64-none-elf/13.2.1/../../../../aarch64-none-elf/lib/libg.a(libc_a-svfiprintf.o)
 .debug_str     0x00000000000a45c1      0x9b4 /tools/arm-gnu-toolchain-13.2.Rel1-x86_64-aarch64-none-elf/bin/../lib/gcc/aarch64-none-elf/13.2.1/../../../../aarch64-none-elf/lib/libg.a(libc_a-vfprintf.o)
 .debug_str     0x00000000000a45c1      0x90d /tools/arm-gnu-toolchain-13.2.Rel1-x86_64-aarch64-none-elf/bin/../lib/gcc/aarch64-none-elf/13.2.1/../../../../aarch64-none-elf/lib/libg.a(libc_a-vfiprintf.o)
 .debug_str     0x00000000000a45c1       0x96 /tools/arm-gnu-toolchain-13.2.Rel1-x86_64-aarch64-none-elf/bin/../lib/gcc/aarch64-none-elf/13.2.1/../../../../aarch64-none-elf/lib/libg.a(libc_a-u_strerr.o)
 .debug_str     0x00000000000a45c1      0x112 /tools/arm-gnu-toolchain-13.2.Rel1-x86_64-aarch64-none-elf/bin/../lib/gcc/aarch64-none-elf/13.2.1/../../../../aarch64-none-elf/lib/libg.a(libc_a-abort.o)
 .debug_str     0x00000000000a45c1      0x76a /tools/arm-gnu-toolchain-13.2.Rel1-x86_64-aarch64-none-elf/bin/../lib/gcc/aarch64-none-elf/13.2.1/../../../../aarch64-none-elf/lib/libg.a(libc_a-mbtowc_r.o)
 .debug_str     0x00000000000a45c1      0x119 /tools/arm-gnu-toolchain-13.2.Rel1-x86_64-aarch64-none-elf/bin/../lib/gcc/aarch64-none-elf/13.2.1/../../../../aarch64-none-elf/lib/libg.a(libc_a-strcat.o)
 .debug_str     0x00000000000a45c1      0x285 /tools/arm-gnu-toolchain-13.2.Rel1-x86_64-aarch64-none-elf/bin/../lib/gcc/aarch64-none-elf/13.2.1/../../../../aarch64-none-elf/lib/libg.a(libc_a-lock.o)
 .debug_str     0x00000000000a45c1      0x4e2 /tools/arm-gnu-toolchain-13.2.Rel1-x86_64-aarch64-none-elf/bin/../lib/gcc/aarch64-none-elf/13.2.1/../../../../aarch64-none-elf/lib/libg.a(libc_a-fclose.o)
 .debug_str     0x00000000000a45c1      0x450 /tools/arm-gnu-toolchain-13.2.Rel1-x86_64-aarch64-none-elf/bin/../lib/gcc/aarch64-none-elf/13.2.1/../../../../aarch64-none-elf/lib/libg.a(libc_a-wsetup.o)
 .debug_str     0x00000000000a45c1      0x5a1 /tools/arm-gnu-toolchain-13.2.Rel1-x86_64-aarch64-none-elf/bin/../lib/gcc/aarch64-none-elf/13.2.1/../../../../aarch64-none-elf/lib/libg.a(libc_a-makebuf.o)
 .debug_str     0x00000000000a45c1      0x4a6 /tools/arm-gnu-toolchain-13.2.Rel1-x86_64-aarch64-none-elf/bin/../lib/gcc/aarch64-none-elf/13.2.1/../../../../aarch64-none-elf/lib/libg.a(libc_a-putc.o)
 .debug_str     0x00000000000a45c1      0x666 /tools/arm-gnu-toolchain-13.2.Rel1-x86_64-aarch64-none-elf/bin/../lib/gcc/aarch64-none-elf/13.2.1/../../../../aarch64-none-elf/lib/libg.a(libc_a-wcsnrtombs.o)
 .debug_str     0x00000000000a45c1      0x415 /tools/arm-gnu-toolchain-13.2.Rel1-x86_64-aarch64-none-elf/bin/../lib/gcc/aarch64-none-elf/13.2.1/../../../../aarch64-none-elf/lib/libg.a(libc_a-closer.o)
 .debug_str     0x00000000000a45c1      0x4ea /tools/arm-gnu-toolchain-13.2.Rel1-x86_64-aarch64-none-elf/bin/../lib/gcc/aarch64-none-elf/13.2.1/../../../../aarch64-none-elf/lib/libg.a(libc_a-fflush.o)
 .debug_str     0x00000000000a45c1       0x96 /tools/arm-gnu-toolchain-13.2.Rel1-x86_64-aarch64-none-elf/bin/../lib/gcc/aarch64-none-elf/13.2.1/../../../../aarch64-none-elf/lib/libg.a(libc_a-environ.o)
 .debug_str     0x00000000000a45c1      0x50f /tools/arm-gnu-toolchain-13.2.Rel1-x86_64-aarch64-none-elf/bin/../lib/gcc/aarch64-none-elf/13.2.1/../../../../aarch64-none-elf/lib/libg.a(libc_a-reallocr.o)
 .debug_str     0x00000000000a45c1      0x495 /tools/arm-gnu-toolchain-13.2.Rel1-x86_64-aarch64-none-elf/bin/../lib/gcc/aarch64-none-elf/13.2.1/../../../../aarch64-none-elf/lib/libg.a(libc_a-envlock.o)
 .debug_str     0x00000000000a45c1      0x557 /tools/arm-gnu-toolchain-13.2.Rel1-x86_64-aarch64-none-elf/bin/../lib/gcc/aarch64-none-elf/13.2.1/../../../../aarch64-none-elf/lib/libg.a(libc_a-fstatr.o)
 .debug_str     0x00000000000a45c1      0x4a5 /tools/arm-gnu-toolchain-13.2.Rel1-x86_64-aarch64-none-elf/bin/../lib/gcc/aarch64-none-elf/13.2.1/../../../../aarch64-none-elf/lib/libg.a(libc_a-signal.o)
 .debug_str     0x00000000000a45c1      0x41e /tools/arm-gnu-toolchain-13.2.Rel1-x86_64-aarch64-none-elf/bin/../lib/gcc/aarch64-none-elf/13.2.1/../../../../aarch64-none-elf/lib/libg.a(libc_a-isattyr.o)
 .debug_str     0x00000000000a45c1      0x423 /tools/arm-gnu-toolchain-13.2.Rel1-x86_64-aarch64-none-elf/bin/../lib/gcc/aarch64-none-elf/13.2.1/../../../../aarch64-none-elf/lib/libg.a(libc_a-lseekr.o)
 .debug_str     0x00000000000a45c1      0x424 /tools/arm-gnu-toolchain-13.2.Rel1-x86_64-aarch64-none-elf/bin/../lib/gcc/aarch64-none-elf/13.2.1/../../../../aarch64-none-elf/lib/libg.a(libc_a-readr.o)
 .debug_str     0x00000000000a45c1      0x4e4 /tools/arm-gnu-toolchain-13.2.Rel1-x86_64-aarch64-none-elf/bin/../lib/gcc/aarch64-none-elf/13.2.1/../../../../aarch64-none-elf/lib/libg.a(libc_a-fputwc.o)
 .debug_str     0x00000000000a45c1      0x43a /tools/arm-gnu-toolchain-13.2.Rel1-x86_64-aarch64-none-elf/bin/../lib/gcc/aarch64-none-elf/13.2.1/../../../../aarch64-none-elf/lib/libg.a(libc_a-signalr.o)
 .debug_str     0x00000000000a45c1      0x457 /tools/arm-gnu-toolchain-13.2.Rel1-x86_64-aarch64-none-elf/bin/../lib/gcc/aarch64-none-elf/13.2.1/../../../../aarch64-none-elf/lib/libg.a(libc_a-wbuf.o)
 .debug_str     0x00000000000a45c1      0x252 /tools/arm-gnu-toolchain-13.2.Rel1-x86_64-aarch64-none-elf/bin/../lib/gcc/aarch64-none-elf/13.2.1/libgcc.a(trunctfdf2.o)
 .debug_str     0x00000000000a45c1      0x11c /tools/arm-gnu-toolchain-13.2.Rel1-x86_64-aarch64-none-elf/bin/../lib/gcc/aarch64-none-elf/13.2.1/libgcc.a(sfp-exceptions.o)

.debug_line_str
                0x0000000000000000     0xab8d
 .debug_line_str
                0x0000000000000000     0xab8d CMakeFiles/freertos_kernel.elf.dir/main.c.o
                                        0x693 (size before relaxing)
 .debug_line_str
                0x000000000000ab8d      0x21f gloss/CMakeFiles/freedom_metal.dir/freedom_metal.c.o
 .debug_line_str
                0x000000000000ab8d      0x1cf gloss/CMakeFiles/freedom_metal.dir/nanosleep.c.o
 .debug_line_str
                0x000000000000ab8d      0x1bb gloss/CMakeFiles/freedom_metal.dir/sys_access.c.o
 .debug_line_str
                0x000000000000ab8d      0x1b8 gloss/CMakeFiles/freedom_metal.dir/sys_chdir.c.o
 .debug_line_str
                0x000000000000ab8d      0x236 gloss/CMakeFiles/freedom_metal.dir/sys_chmod.c.o
 .debug_line_str
                0x000000000000ab8d      0x1c9 gloss/CMakeFiles/freedom_metal.dir/sys_chown.c.o
 .debug_line_str
                0x000000000000ab8d      0x253 gloss/CMakeFiles/freedom_metal.dir/sys_clock_gettime.c.o
 .debug_line_str
                0x000000000000ab8d      0x1b8 gloss/CMakeFiles/freedom_metal.dir/sys_close.c.o
 .debug_line_str
                0x000000000000ab8d      0x1bb gloss/CMakeFiles/freedom_metal.dir/sys_execve.c.o
 .debug_line_str
                0x000000000000ab8d      0x1b1 gloss/CMakeFiles/freedom_metal.dir/sys_exit.c.o
 .debug_line_str
                0x000000000000ab8d      0x1c4 gloss/CMakeFiles/freedom_metal.dir/sys_faccessat.c.o
 .debug_line_str
                0x000000000000ab8d      0x1b5 gloss/CMakeFiles/freedom_metal.dir/sys_fork.c.o
 .debug_line_str
                0x000000000000ab8d      0x254 gloss/CMakeFiles/freedom_metal.dir/sys_fstat.c.o
 .debug_line_str
                0x000000000000ab8d      0x25a gloss/CMakeFiles/freedom_metal.dir/sys_fstatat.c.o
 .debug_line_str
                0x000000000000ab8d      0x1cb gloss/CMakeFiles/freedom_metal.dir/sys_ftime.c.o
 .debug_line_str
                0x000000000000ab8d      0x227 gloss/CMakeFiles/freedom_metal.dir/sys_getcwd.c.o
 .debug_line_str
                0x000000000000ab8d      0x28f gloss/CMakeFiles/freedom_metal.dir/sys_getpid.c.o
 .debug_line_str
                0x000000000000ab8d      0x235 gloss/CMakeFiles/freedom_metal.dir/sys_gettimeofday.c.o
 .debug_line_str
                0x000000000000ab8d      0x15b gloss/CMakeFiles/freedom_metal.dir/sys_isatty.c.o
 .debug_line_str
                0x000000000000ab8d      0x1b5 gloss/CMakeFiles/freedom_metal.dir/sys_kill.c.o
 .debug_line_str
                0x000000000000ab8d      0x1b5 gloss/CMakeFiles/freedom_metal.dir/sys_link.c.o
 .debug_line_str
                0x000000000000ab8d      0x1c9 gloss/CMakeFiles/freedom_metal.dir/sys_lseek.c.o
 .debug_line_str
                0x000000000000ab8d      0x254 gloss/CMakeFiles/freedom_metal.dir/sys_lstat.c.o
 .debug_line_str
                0x000000000000ab8d      0x1b5 gloss/CMakeFiles/freedom_metal.dir/sys_open.c.o
 .debug_line_str
                0x000000000000ab8d      0x1bb gloss/CMakeFiles/freedom_metal.dir/sys_openat.c.o
 .debug_line_str
                0x000000000000ab8d      0x28e gloss/CMakeFiles/freedom_metal.dir/sys_read.c.o
 .debug_line_str
                0x000000000000ab8d      0x21d gloss/CMakeFiles/freedom_metal.dir/sys_sbrk.c.o
 .debug_line_str
                0x000000000000ab8d      0x15e gloss/CMakeFiles/freedom_metal.dir/sys_sysconf.c.o
 .debug_line_str
                0x000000000000ab8d      0x21c gloss/CMakeFiles/freedom_metal.dir/sys_times.c.o
 .debug_line_str
                0x000000000000ab8d      0x1bb gloss/CMakeFiles/freedom_metal.dir/sys_unlink.c.o
 .debug_line_str
                0x000000000000ab8d      0x1b8 gloss/CMakeFiles/freedom_metal.dir/sys_utime.c.o
 .debug_line_str
                0x000000000000ab8d      0x1b5 gloss/CMakeFiles/freedom_metal.dir/sys_wait.c.o
 .debug_line_str
                0x000000000000ab8d      0x2ed gloss/CMakeFiles/freedom_metal.dir/sys_write.c.o
 .debug_line_str
                0x000000000000ab8d      0x2e6 build/drivers/mailbox/CMakeFiles/mailbox.dir/mailbox.c.o
 .debug_line_str
                0x000000000000ab8d      0x42e build/drivers/mailbox/CMakeFiles/mailbox.dir/mailbox_cb.c.o
 .debug_line_str
                0x000000000000ab8d      0x217 build/drivers/pmu/CMakeFiles/pmu.dir/pmu.c.o
 .debug_line_str
                0x000000000000ab8d      0x2c0 build/drivers/uart/CMakeFiles/uart.dir/uart.c.o
 .debug_line_str
                0x000000000000ab8d      0x528 build/drivers/dma/CMakeFiles/dma.dir/pl330.c.o
 .debug_line_str
                0x000000000000ab8d      0x335 build/drivers/gpio/CMakeFiles/gpio.dir/gpio.c.o
 .debug_line_str
                0x000000000000ab8d      0x533 build/drivers/smmu/CMakeFiles/smmu.dir/smmu.c.o
 .debug_line_str
                0x000000000000ab8d      0x411 build/drivers/smmu/CMakeFiles/smmu.dir/smmu_pmu.c.o
 .debug_line_str
                0x000000000000ab8d      0x39b build/drivers/pvt_con/CMakeFiles/pvt_con.dir/pvt_con.c.o
 .debug_line_str
                0x000000000000ab8d      0x2da build/drivers/cmu/CMakeFiles/cmu.dir/cmu.c.o
 .debug_line_str
                0x000000000000ab8d      0x2ec build/drivers/watchdog/CMakeFiles/watchdog.dir/dw_apb_wdt.c.o
 .debug_line_str
                0x000000000000ab8d      0x3fe build/drivers/rbc/CMakeFiles/rbc.dir/aw_ucie.c.o
 .debug_line_str
                0x000000000000ab8d      0x4fc build/drivers/rbc/CMakeFiles/rbc.dir/rbc_driver.c.o
 .debug_line_str
                0x000000000000ab8d      0x289 build/drivers/rbc/CMakeFiles/rbc.dir/rbc_cmd.c.o
 .debug_line_str
                0x000000000000ab8d      0x422 build/drivers/rbcm/CMakeFiles/rbcm.dir/rbcm_core.c.o
 .debug_line_str
                0x000000000000ab8d      0x3a4 build/drivers/rbcm/CMakeFiles/rbcm.dir/rbcm_driver.c.o
 .debug_line_str
                0x000000000000ab8d      0x31a build/drivers/i2c/CMakeFiles/i2c.dir/i2c.c.o
 .debug_line_str
                0x000000000000ab8d      0x352 build/drivers/noc_logger/CMakeFiles/noc_logger.dir/noc_logger.c.o
 .debug_line_str
                0x000000000000ab8d      0x2e2 build/drivers/hbm3/CMakeFiles/hbm3.dir/hbm3.c.o
 .debug_line_str
                0x000000000000ab8d      0x2aa build/drivers/hbm3/CMakeFiles/hbm3.dir/tmrs.c.o
 .debug_line_str
                0x000000000000ab8d      0x2bb build/drivers/hbm3/CMakeFiles/hbm3.dir/icon.c.o
 .debug_line_str
                0x000000000000ab8d      0x3c0 build/drivers/hbm3/CMakeFiles/hbm3.dir/hbm3_irq.c.o
 .debug_line_str
                0x000000000000ab8d      0x29a build/drivers/hbm3/CMakeFiles/hbm3.dir/hbm3_am.c.o
 .debug_line_str
                0x000000000000ab8d      0x24d build/drivers/pmic/CMakeFiles/pmic.dir/ltc1427cs8.c.o
 .debug_line_str
                0x000000000000ab8d      0x22f build/drivers/pmic/CMakeFiles/pmic.dir/tca9548a.c.o
 .debug_line_str
                0x000000000000ab8d      0x229 build/drivers/pmic/CMakeFiles/pmic.dir/mp5998.c.o
 .debug_line_str
                0x000000000000ab8d      0x22c build/drivers/pmic/CMakeFiles/pmic.dir/mpq8785.c.o
 .debug_line_str
                0x000000000000ab8d      0x22f build/drivers/pmic/CMakeFiles/pmic.dir/mp29816a.c.o
 .debug_line_str
                0x000000000000ab8d      0x226 build/drivers/pmic/CMakeFiles/pmic.dir/g1505.c.o
 .debug_line_str
                0x000000000000ab8d      0x2b3 build/drivers/pmic/CMakeFiles/pmic.dir/pmic_mgr.c.o
 .debug_line_str
                0x000000000000ab8d      0x3f1 build/drivers/dvfs/CMakeFiles/dvfs.dir/dvfs.c.o
 .debug_line_str
                0x000000000000ab8d      0x2be build/drivers/sic/CMakeFiles/sic.dir/sic.c.o
 .debug_line_str
                0x000000000000ab8d      0x3db build/drivers/timer/dw_apb_timer/CMakeFiles/dw_apb_timer.dir/dw_apb_timer.c.o
 .debug_line_str
                0x000000000000ab8d      0x303 build/drivers/qspi/qspi_apb/CMakeFiles/qspi_apb.dir/qspi_apb.c.o
 .debug_line_str
                0x000000000000ab8d      0x27e build/drivers/flash/CMakeFiles/flash.dir/mt25q_flash.c.o
 .debug_line_str
                0x000000000000ab8d      0x3b7 build/tests/common/CMakeFiles/test_common.dir/test_mailbox_cb.c.o
 .debug_line_str
                0x000000000000ab8d      0x479 build/tests/interrupt_test_helper_example/CMakeFiles/interrupt_test_helper_example.dir/example_test.c.o
 .debug_line_str
                0x000000000000ab8d      0x1c3 build/tests/interrupt_test_helper_example/CMakeFiles/interrupt_test_helper_example.dir/example_driver.c.o
 .debug_line_str
                0x000000000000ab8d      0x40a build/tests/arch/CMakeFiles/test_arch.dir/test_cli.c.o
 .debug_line_str
                0x000000000000ab8d      0x45a build/tests/gpio/CMakeFiles/test_gpio.dir/test_gpio.c.o
 .debug_line_str
                0x000000000000ab8d      0x460 build/tests/dma/CMakeFiles/test_dma.dir/test_dma_main.c.o
 .debug_line_str
                0x000000000000ab8d      0x3c1 build/tests/mailbox/CMakeFiles/mailbox_test.dir/test_mailbox_main.c.o
 .debug_line_str
                0x000000000000ab8d      0x402 build/tests/pvt_con/CMakeFiles/test_pvt_con.dir/test_pvt_con.c.o
 .debug_line_str
                0x000000000000ab8d      0x4f5 build/tests/arch/arm64/CMakeFiles/test_arm64.dir/test_ca73.c.o
 .debug_line_str
                0x000000000000ab8d      0x449 build/tests/timer/dw_apb_timer/CMakeFiles/test_dw_apb_timer.dir/test_dw_apb_timer.c.o
 .debug_line_str
                0x000000000000ab8d      0x46a build/tests/cmu/CMakeFiles/test_cmu.dir/test_cmu_main.c.o
 .debug_line_str
                0x000000000000ab8d      0x3bb build/tests/smmu/CMakeFiles/test_mmu.dir/test_mmu_main.c.o
 .debug_line_str
                0x000000000000ab8d      0x2ef build/tests/log/CMakeFiles/show_log.dir/rebel_h_log.c.o
 .debug_line_str
                0x000000000000ab8d      0x418 build/tests/rbc/CMakeFiles/test_rbc.dir/test/all_test.c.o
 .debug_line_str
                0x000000000000ab8d      0x371 build/tests/rbc/CMakeFiles/test_rbc.dir/test/test_aw_ucie_init.c.o
 .debug_line_str
                0x000000000000ab8d      0x388 build/tests/rbc/CMakeFiles/test_rbc.dir/test/test_aw_ucie_d2d_comp.c.o
 .debug_line_str
                0x000000000000ab8d      0x3a0 build/tests/rbc/CMakeFiles/test_rbc.dir/test/test_aw_ucie_d2d_err_and_link.c.o
 .debug_line_str
                0x000000000000ab8d      0x38e build/tests/rbc/CMakeFiles/test_rbc.dir/test/test_aw_ucie_retraining.c.o
 .debug_line_str
                0x000000000000ab8d      0x3f4 build/tests/rbc/CMakeFiles/test_rbc.dir/test/test_aw_ucie_sideband.c.o
 .debug_line_str
                0x000000000000ab8d      0x388 build/tests/rbc/CMakeFiles/test_rbc.dir/test/test_aw_ucie_training.c.o
 .debug_line_str
                0x000000000000ab8d      0x3a3 build/tests/rbc/CMakeFiles/test_rbc.dir/test/test_aw_ucie_runtime_link_test.c.o
 .debug_line_str
                0x000000000000ab8d      0x3a9 build/tests/rbc/CMakeFiles/test_rbc.dir/test/test_aw_ucie_phy_compliance_test.c.o
 .debug_line_str
                0x000000000000ab8d      0x4f4 build/tests/rbc/CMakeFiles/test_rbc.dir/test/test_aw_ucie_exception.c.o
 .debug_line_str
                0x000000000000ab8d      0x397 build/tests/rbc/CMakeFiles/test_rbc.dir/test/test_aw_ucie_eye_of_margin.c.o
 .debug_line_str
                0x000000000000ab8d      0x3d7 build/tests/rbc/CMakeFiles/test_rbc.dir/test/test_aw_ucie_util.c.o
 .debug_line_str
                0x000000000000ab8d      0x33e build/tests/rbc/CMakeFiles/test_rbc.dir/test/test_fake_timer.c.o
 .debug_line_str
                0x000000000000ab8d      0x591 build/tests/rbc/CMakeFiles/test_rbc.dir/test/test_rbc_driver.c.o
 .debug_line_str
                0x000000000000ab8d      0x22a build/tests/rbc/CMakeFiles/test_rbc.dir/mocks/fake_timer.c.o
 .debug_line_str
                0x000000000000ab8d      0x279 build/tests/rbc/CMakeFiles/test_rbc.dir/mocks/fake_gic.c.o
 .debug_line_str
                0x000000000000ab8d      0x4ad build/tests/rbcm/CMakeFiles/test_rbcm.dir/rbcm_test.c.o
 .debug_line_str
                0x000000000000ab8d      0x3bf build/tests/rbcm/CMakeFiles/test_rbcm.dir/rbcm_reg_access_test.c.o
 .debug_line_str
                0x000000000000ab8d      0x39d build/tests/i2c/CMakeFiles/test_i2c.dir/test_i2c_main.c.o
 .debug_line_str
                0x000000000000ab8d      0x42e build/tests/hbm3/CMakeFiles/hbm3_test.dir/memtest.c.o
 .debug_line_str
                0x000000000000ab8d      0x533 build/tests/hbm3/CMakeFiles/hbm3_test.dir/hbm3_irq_test.c.o
 .debug_line_str
                0x000000000000ab8d      0x5ef build/tests/system_test/CMakeFiles/system_test.dir/test_system.c.o
 .debug_line_str
                0x000000000000ab8d      0x3b4 build/tests/system_test/CMakeFiles/system_test.dir/dma_transaction.c.o
 .debug_line_str
                0x000000000000ab8d      0x486 build/tests/system_test/CMakeFiles/system_test.dir/test_dma_transaction.c.o
 .debug_line_str
                0x000000000000ab8d      0x322 build/tests/system_test/CMakeFiles/system_test.dir/data_process.c.o
 .debug_line_str
                0x000000000000ab8d      0x414 build/tests/system_test/CMakeFiles/system_test.dir/test_data_process.c.o
 .debug_line_str
                0x000000000000ab8d      0x3a6 build/tests/dvfs/CMakeFiles/test_dvfs.dir/test_dvfs_main.c.o
 .debug_line_str
                0x000000000000ab8d      0x454 build/tests/pmic/CMakeFiles/test_pmic.dir/test_pmic_main.c.o
 .debug_line_str
                0x000000000000ab8d      0x337 build/tests/pvt_con/CMakeFiles/pvt_cli.dir/pvt_cli.c.o
 .debug_line_str
                0x000000000000ab8d      0x341 build/tests/pvt_con/CMakeFiles/pvt_cli.dir/pvt_cli_show.c.o
 .debug_line_str
                0x000000000000ab8d      0x2ce build/tests/pvt_con/CMakeFiles/pvt_cli.dir/pvt_cli_enable.c.o
 .debug_line_str
                0x000000000000ab8d      0x2d1 build/tests/pvt_con/CMakeFiles/pvt_cli.dir/pvt_cli_disable.c.o
 .debug_line_str
                0x000000000000ab8d      0x2cf build/tests/pvt_con/CMakeFiles/pvt_cli.dir/pvt_cli_set.c.o
 .debug_line_str
                0x000000000000ab8d      0x3dc build/tests/sic/CMakeFiles/test_sic.dir/test_sic.c.o
 .debug_line_str
                0x000000000000ab8d      0x2fb build/tests/chipid/CMakeFiles/test_chipid.dir/read_chipid.c.o
 .debug_line_str
                0x000000000000ab8d      0x39e build/tests/flash/CMakeFiles/test_flash.dir/test_flash.c.o
 .debug_line_str
                0x000000000000ab8d      0x3a4 build/tests/qspi/CMakeFiles/test_qspiapb.dir/test_qspiapb.c.o
 .debug_line_str
                0x000000000000ab8d      0x461 build/tests/rbdma/CMakeFiles/test_rbdma.dir/rbdma_tsync_test.c.o
 .debug_line_str
                0x000000000000ab8d      0x373 build/tests/rbdma/CMakeFiles/test_rbdma.dir/test_main_rbdma.c.o
 .debug_line_str
                0x000000000000ab8d      0x46b libfreertos_kernel.a(queue.c.o)
 .debug_line_str
                0x000000000000ab8d      0x4f4 libfreertos_kernel.a(tasks.c.o)
 .debug_line_str
                0x000000000000ab8d      0x41a libfreertos_kernel.a(timers.c.o)
 .debug_line_str
                0x000000000000ab8d      0x481 libfreertos_kernel.a(heap_4.c.o)
 .debug_line_str
                0x000000000000ab8d      0x30e libfreertos_kernel.a(list.c.o)
 .debug_line_str
                0x000000000000ab8d      0x4b3 portable/libfreertos_kernel_port.a(port.c.o)
 .debug_line_str
                0x000000000000ab8d      0x1cb build/drivers/common/libdriver.a(driver.c.o)
 .debug_line_str
                0x000000000000ab8d      0x2f4 build/drivers/common/libassert.a(assert.c.o)
 .debug_line_str
                0x000000000000ab8d      0x27c build/drivers/common/libinterrupt.a(interrupt.c.o)
 .debug_line_str
                0x000000000000ab8d      0x32f build/drivers/intc/libintc.a(gicv3.c.o)
 .debug_line_str
                0x000000000000ab8d      0x245 build/drivers/intc/libintc.a(bakery_lock.c.o)
 .debug_line_str
                0x000000000000ab8d      0x4c8 services/cli_service/libcli_service.a(cli_task.c.o)
 .debug_line_str
                0x000000000000ab8d      0x3cb services/cli_service/libcli_service.a(sys_command_line.c.o)
 .debug_line_str
                0x000000000000ab8d      0x375 services/terminal_service/libterminal_service.a(console_uart.c.o)
 .debug_line_str
                0x000000000000ab8d      0x46f services/terminal_service/libterminal_service.a(console.c.o)
 .debug_line_str
                0x000000000000ab8d      0x61b services/terminal_service/libterminal_service.a(terminal_task.c.o)
 .debug_line_str
                0x000000000000ab8d      0xbf2 services/replay_service/libreplay_service.a(replay.c.o)
 .debug_line_str
                0x000000000000ab8d      0x7a2 services/replay_service/libreplay_service.a(sub_function.c.o)
 .debug_line_str
                0x000000000000ab8d      0x4bc services/replay_service/libreplay_service.a(rush_cli.c.o)
 .debug_line_str
                0x000000000000ab8d      0x4b1 services/replay_service/libreplay_service.a(rush_cli_msg_buf.c.o)
 .debug_line_str
                0x000000000000ab8d      0x555 services/replay_service/libreplay_service.a(tpg_cli.c.o)
 .debug_line_str
                0x000000000000ab8d      0x5ae services/replay_service/libreplay_service.a(rbdma_cli.c.o)
 .debug_line_str
                0x000000000000ab8d      0x4c9 services/replay_service/libreplay_service.a(mem_cli.c.o)
 .debug_line_str
                0x000000000000ab8d      0x23b services/replay_service/libreplay_service.a(chiplet.c.o)
 .debug_line_str
                0x000000000000ab8d      0x628 services/replay_service/libreplay_service.a(cmgr_if.c.o)
 .debug_line_str
                0x000000000000ab8d      0xacd services/replay_service/libreplay_service.a(dnc_if.c.o)
 .debug_line_str
                0x000000000000ab8d      0x6c3 services/replay_service/libreplay_service.a(dnc_if_evt1.c.o)
 .debug_line_str
                0x000000000000ab8d      0x58e services/replay_service/libreplay_service.a(rdsn_if.c.o)
 .debug_line_str
                0x000000000000ab8d      0x6e3 services/replay_service/libreplay_service.a(ptw.c.o)
 .debug_line_str
                0x000000000000ab8d      0x8c6 services/replay_service/libreplay_service.a(rbdma_if.c.o)
 .debug_line_str
                0x000000000000ab8d      0x6e0 services/replay_service/libreplay_service.a(shm_if.c.o)
 .debug_line_str
                0x000000000000ab8d      0x4a3 services/replay_service/libreplay_service.a(tbu_wrapper.c.o)
 .debug_line_str
                0x000000000000ab8d      0x491 services/replay_service/libreplay_service.a(debug.c.o)
 .debug_line_str
                0x000000000000ab8d      0x6b8 services/replay_service/libreplay_service.a(ici.c.o)
 .debug_line_str
                0x000000000000ab8d      0x602 services/replay_service/libreplay_service.a(page_table_gen.c.o)
 .debug_line_str
                0x000000000000ab8d      0x643 services/replay_service/libreplay_service.a(profile.c.o)
 .debug_line_str
                0x000000000000ab8d      0x604 services/replay_service/libreplay_service.a(rl_queue.c.o)
 .debug_line_str
                0x000000000000ab8d      0x789 services/replay_service/libreplay_service.a(abort.c.o)
 .debug_line_str
                0x000000000000ab8d      0x2fc services/replay_service/libreplay_service.a(cpu_data.c.o)
 .debug_line_str
                0x000000000000ab8d      0x2fb services/replay_service/libreplay_service.a(spinlock.c.o)
 .debug_line_str
                0x000000000000ab8d      0x482 services/replay_service/libreplay_service.a(core.c.o)
 .debug_line_str
                0x000000000000ab8d      0x68e services/replay_service/libreplay_service.a(log.c.o)
 .debug_line_str
                0x000000000000ab8d      0x41a services/replay_service/libreplay_service.a(rand.c.o)
 .debug_line_str
                0x000000000000ab8d      0x481 services/replay_service/libreplay_service.a(backtrace.c.o)
 .debug_line_str
                0x000000000000ab8d      0x473 services/replay_service/libreplay_service.a(argparse.c.o)
 .debug_line_str
                0x000000000000ab8d      0x452 services/replay_service/libreplay_service.a(rush_cli_util.c.o)
 .debug_line_str
                0x000000000000ab8d      0x481 services/task_adder_service/libtask_adder_service.a(task_adder.c.o)
 .debug_line_str
                0x000000000000ab8d      0x2a9 portable/libfreertos_arch.a(prep_c.c.o)
 .debug_line_str
                0x000000000000ab8d      0x437 libfreertos_kernel_config.a(FreeRTOS_tick_config.c.o)
 .debug_line_str
                0x000000000000ab8d      0x3f2 portable/libsmp.a(smp.c.o)
 .debug_line_str
                0x000000000000ab8d      0x361 portable/libmmu.a(mmu.c.o)
 .debug_line_str
                0x000000000000ab8d      0x333 build/interrupt_test_helper/libinterrupt_test_helper.a(interrupt_test_helper.c.o)
 .debug_line_str
                0x000000000000ab8d      0x196 build/unity/libunity.a(unity.c.o)
 .debug_line_str
                0x000000000000ab8d      0x21d build/unity/libunity.a(unity_fixture.c.o)
 .debug_line_str
                0x000000000000ab8d      0x21f build/drivers/psci/libpsci.a(psci.c.o)
 .debug_line_str
                0x000000000000ab8d      0x428 libfreertos_kernel.a(event_groups.c.o)
 .debug_line_str
                0x000000000000ab8d      0x484 libfreertos_kernel.a(stream_buffer.c.o)
 .debug_line_str
                0x000000000000ab8d      0x2de build/common/arch/libcommon.a(printf.c.o)
 .debug_line_str
                0x000000000000ab8d      0x2e7 build/common/arch/libcommon.a(system_api.c.o)
 .debug_line_str
                0x000000000000ab8d      0x2bc build/drivers/timer/generic_timer/libgeneric_timer.a(generic_timer.c.o)
 .debug_line_str
                0x000000000000ab8d       0xb6 /tools/arm-gnu-toolchain-13.2.Rel1-x86_64-aarch64-none-elf/bin/../lib/gcc/aarch64-none-elf/13.2.1/libgcc.a(ldset_8_4.o)
 .debug_line_str
                0x000000000000ab8d      0x181 /tools/arm-gnu-toolchain-13.2.Rel1-x86_64-aarch64-none-elf/bin/../lib/gcc/aarch64-none-elf/13.2.1/libgcc.a(lse-init.o)
 .debug_line_str
                0x000000000000ab8d      0x3d1 /tools/arm-gnu-toolchain-13.2.Rel1-x86_64-aarch64-none-elf/bin/../lib/gcc/aarch64-none-elf/13.2.1/../../../../aarch64-none-elf/lib/libg.a(libc_a-strtod.o)
 .debug_line_str
                0x000000000000ab8d      0x34d /tools/arm-gnu-toolchain-13.2.Rel1-x86_64-aarch64-none-elf/bin/../lib/gcc/aarch64-none-elf/13.2.1/../../../../aarch64-none-elf/lib/libg.a(libc_a-strtol.o)
 .debug_line_str
                0x000000000000ab8d      0x3d4 /tools/arm-gnu-toolchain-13.2.Rel1-x86_64-aarch64-none-elf/bin/../lib/gcc/aarch64-none-elf/13.2.1/../../../../aarch64-none-elf/lib/libg.a(libc_a-gdtoa-gethex.o)
 .debug_line_str
                0x000000000000ab8d      0x348 /tools/arm-gnu-toolchain-13.2.Rel1-x86_64-aarch64-none-elf/bin/../lib/gcc/aarch64-none-elf/13.2.1/../../../../aarch64-none-elf/lib/libg.a(libc_a-strtoul.o)
 .debug_line_str
                0x000000000000ab8d      0x20e /tools/arm-gnu-toolchain-13.2.Rel1-x86_64-aarch64-none-elf/bin/../lib/gcc/aarch64-none-elf/13.2.1/../../../../aarch64-none-elf/lib/libg.a(libc_a-gdtoa-hexnan.o)
 .debug_line_str
                0x000000000000ab8d      0x348 /tools/arm-gnu-toolchain-13.2.Rel1-x86_64-aarch64-none-elf/bin/../lib/gcc/aarch64-none-elf/13.2.1/../../../../aarch64-none-elf/lib/libg.a(libc_a-strtoll.o)
 .debug_line_str
                0x000000000000ab8d      0x24e /tools/arm-gnu-toolchain-13.2.Rel1-x86_64-aarch64-none-elf/bin/../lib/gcc/aarch64-none-elf/13.2.1/../../../../aarch64-none-elf/lib/libg.a(libc_a-strncpy.o)
 .debug_line_str
                0x000000000000ab8d      0x34b /tools/arm-gnu-toolchain-13.2.Rel1-x86_64-aarch64-none-elf/bin/../lib/gcc/aarch64-none-elf/13.2.1/../../../../aarch64-none-elf/lib/libg.a(libc_a-strtoull.o)
 .debug_line_str
                0x000000000000ab8d       0xcb /tools/arm-gnu-toolchain-13.2.Rel1-x86_64-aarch64-none-elf/bin/../lib/gcc/aarch64-none-elf/13.2.1/../../../../aarch64-none-elf/lib/libg.a(libc_a-strchr.o)
 .debug_line_str
                0x000000000000ab8d       0xcb /tools/arm-gnu-toolchain-13.2.Rel1-x86_64-aarch64-none-elf/bin/../lib/gcc/aarch64-none-elf/13.2.1/../../../../aarch64-none-elf/lib/libg.a(libc_a-strcmp.o)
 .debug_line_str
                0x000000000000ab8d      0x2d6 /tools/arm-gnu-toolchain-13.2.Rel1-x86_64-aarch64-none-elf/bin/../lib/gcc/aarch64-none-elf/13.2.1/../../../../aarch64-none-elf/lib/libg.a(libc_a-sprintf.o)
 .debug_line_str
                0x000000000000ab8d       0xcb /tools/arm-gnu-toolchain-13.2.Rel1-x86_64-aarch64-none-elf/bin/../lib/gcc/aarch64-none-elf/13.2.1/../../../../aarch64-none-elf/lib/libg.a(libc_a-strlen.o)
 .debug_line_str
                0x000000000000ab8d      0x24b /tools/arm-gnu-toolchain-13.2.Rel1-x86_64-aarch64-none-elf/bin/../lib/gcc/aarch64-none-elf/13.2.1/../../../../aarch64-none-elf/lib/libg.a(libc_a-strspn.o)
 .debug_line_str
                0x000000000000ab8d      0x2ba /tools/arm-gnu-toolchain-13.2.Rel1-x86_64-aarch64-none-elf/bin/../lib/gcc/aarch64-none-elf/13.2.1/../../../../aarch64-none-elf/lib/libg.a(libc_a-strtok.o)
 .debug_line_str
                0x000000000000ab8d      0x1ef /tools/arm-gnu-toolchain-13.2.Rel1-x86_64-aarch64-none-elf/bin/../lib/gcc/aarch64-none-elf/13.2.1/../../../../aarch64-none-elf/lib/libg.a(libc_a-strtok_r.o)
 .debug_line_str
                0x000000000000ab8d      0x326 /tools/arm-gnu-toolchain-13.2.Rel1-x86_64-aarch64-none-elf/bin/../lib/gcc/aarch64-none-elf/13.2.1/../../../../aarch64-none-elf/lib/libg.a(libc_a-strstr.o)
 .debug_line_str
                0x000000000000ab8d      0x2d4 /tools/arm-gnu-toolchain-13.2.Rel1-x86_64-aarch64-none-elf/bin/../lib/gcc/aarch64-none-elf/13.2.1/../../../../aarch64-none-elf/lib/libg.a(libc_a-getopt.o)
 .debug_line_str
                0x000000000000ab8d      0x261 /tools/arm-gnu-toolchain-13.2.Rel1-x86_64-aarch64-none-elf/bin/../lib/gcc/aarch64-none-elf/13.2.1/../../../../aarch64-none-elf/lib/libg.a(libc_a-errno.o)
 .debug_line_str
                0x000000000000ab8d      0x401 /tools/arm-gnu-toolchain-13.2.Rel1-x86_64-aarch64-none-elf/bin/../lib/gcc/aarch64-none-elf/13.2.1/../../../../aarch64-none-elf/lib/libg.a(libc_a-svfprintf.o)
 .debug_line_str
                0x000000000000ab8d       0xcc /tools/arm-gnu-toolchain-13.2.Rel1-x86_64-aarch64-none-elf/bin/../lib/gcc/aarch64-none-elf/13.2.1/../../../../aarch64-none-elf/lib/libg.a(libc_a-strncmp.o)
 .debug_line_str
                0x000000000000ab8d       0xcc /tools/arm-gnu-toolchain-13.2.Rel1-x86_64-aarch64-none-elf/bin/../lib/gcc/aarch64-none-elf/13.2.1/../../../../aarch64-none-elf/lib/libg.a(libc_a-strnlen.o)
 .debug_line_str
                0x000000000000ab8d      0x2dc /tools/arm-gnu-toolchain-13.2.Rel1-x86_64-aarch64-none-elf/bin/../lib/gcc/aarch64-none-elf/13.2.1/../../../../aarch64-none-elf/lib/libg.a(libc_a-vsnprintf.o)
 .debug_line_str
                0x000000000000ab8d      0x2ba /tools/arm-gnu-toolchain-13.2.Rel1-x86_64-aarch64-none-elf/bin/../lib/gcc/aarch64-none-elf/13.2.1/../../../../aarch64-none-elf/lib/libg.a(libc_a-malloc.o)
 .debug_line_str
                0x000000000000ab8d      0x2bd /tools/arm-gnu-toolchain-13.2.Rel1-x86_64-aarch64-none-elf/bin/../lib/gcc/aarch64-none-elf/13.2.1/../../../../aarch64-none-elf/lib/libg.a(libc_a-mallocr.o)
 .debug_line_str
                0x000000000000ab8d      0x2cb /tools/arm-gnu-toolchain-13.2.Rel1-x86_64-aarch64-none-elf/bin/../lib/gcc/aarch64-none-elf/13.2.1/../../../../aarch64-none-elf/lib/libg.a(libc_a-assert.o)
 .debug_line_str
                0x000000000000ab8d      0x1fe /tools/arm-gnu-toolchain-13.2.Rel1-x86_64-aarch64-none-elf/bin/../lib/gcc/aarch64-none-elf/13.2.1/../../../../aarch64-none-elf/lib/libg.a(libc_a-strcasecmp.o)
 .debug_line_str
                0x000000000000ab8d      0x32d /tools/arm-gnu-toolchain-13.2.Rel1-x86_64-aarch64-none-elf/bin/../lib/gcc/aarch64-none-elf/13.2.1/../../../../aarch64-none-elf/lib/libg.a(libc_a-wcrtomb.o)
 .debug_line_str
                0x000000000000ab8d      0x356 /tools/arm-gnu-toolchain-13.2.Rel1-x86_64-aarch64-none-elf/bin/../lib/gcc/aarch64-none-elf/13.2.1/../../../../aarch64-none-elf/lib/libg.a(libc_a-locale.o)
 .debug_line_str
                0x000000000000ab8d      0x2da /tools/arm-gnu-toolchain-13.2.Rel1-x86_64-aarch64-none-elf/bin/../lib/gcc/aarch64-none-elf/13.2.1/../../../../aarch64-none-elf/lib/libg.a(libc_a-localeconv.o)
 .debug_line_str
                0x000000000000ab8d       0xcb /tools/arm-gnu-toolchain-13.2.Rel1-x86_64-aarch64-none-elf/bin/../lib/gcc/aarch64-none-elf/13.2.1/../../../../aarch64-none-elf/lib/libg.a(libc_a-memchr.o)
 .debug_line_str
                0x000000000000ab8d       0xcb /tools/arm-gnu-toolchain-13.2.Rel1-x86_64-aarch64-none-elf/bin/../lib/gcc/aarch64-none-elf/13.2.1/../../../../aarch64-none-elf/lib/libg.a(libc_a-memcmp.o)
 .debug_line_str
                0x000000000000ab8d      0x2cb /tools/arm-gnu-toolchain-13.2.Rel1-x86_64-aarch64-none-elf/bin/../lib/gcc/aarch64-none-elf/13.2.1/../../../../aarch64-none-elf/lib/libg.a(libc_a-printf.o)
 .debug_line_str
                0x000000000000ab8d       0xcb /tools/arm-gnu-toolchain-13.2.Rel1-x86_64-aarch64-none-elf/bin/../lib/gcc/aarch64-none-elf/13.2.1/../../../../aarch64-none-elf/lib/libg.a(libc_a-memcpy.o)
 .debug_line_str
                0x000000000000ab8d      0x2ba /tools/arm-gnu-toolchain-13.2.Rel1-x86_64-aarch64-none-elf/bin/../lib/gcc/aarch64-none-elf/13.2.1/../../../../aarch64-none-elf/lib/libg.a(libc_a-putchar.o)
 .debug_line_str
                0x000000000000ab8d      0x2cc /tools/arm-gnu-toolchain-13.2.Rel1-x86_64-aarch64-none-elf/bin/../lib/gcc/aarch64-none-elf/13.2.1/../../../../aarch64-none-elf/lib/libg.a(libc_a-puts.o)
 .debug_line_str
                0x000000000000ab8d      0x2b7 /tools/arm-gnu-toolchain-13.2.Rel1-x86_64-aarch64-none-elf/bin/../lib/gcc/aarch64-none-elf/13.2.1/../../../../aarch64-none-elf/lib/libg.a(libc_a-mlock.o)
 .debug_line_str
                0x000000000000ab8d      0x3b6 /tools/arm-gnu-toolchain-13.2.Rel1-x86_64-aarch64-none-elf/bin/../lib/gcc/aarch64-none-elf/13.2.1/../../../../aarch64-none-elf/lib/libg.a(libc_a-mprec.o)
 .debug_line_str
                0x000000000000ab8d      0x2b4 /tools/arm-gnu-toolchain-13.2.Rel1-x86_64-aarch64-none-elf/bin/../lib/gcc/aarch64-none-elf/13.2.1/../../../../aarch64-none-elf/lib/libg.a(libc_a-atoi.o)
 .debug_line_str
                0x000000000000ab8d      0x2b4 /tools/arm-gnu-toolchain-13.2.Rel1-x86_64-aarch64-none-elf/bin/../lib/gcc/aarch64-none-elf/13.2.1/../../../../aarch64-none-elf/lib/libg.a(libc_a-rand.o)
 .debug_line_str
                0x000000000000ab8d      0x26a /tools/arm-gnu-toolchain-13.2.Rel1-x86_64-aarch64-none-elf/bin/../lib/gcc/aarch64-none-elf/13.2.1/../../../../aarch64-none-elf/lib/libg.a(libc_a-callocr.o)
 .debug_line_str
                0x000000000000ab8d      0x2c2 /tools/arm-gnu-toolchain-13.2.Rel1-x86_64-aarch64-none-elf/bin/../lib/gcc/aarch64-none-elf/13.2.1/../../../../aarch64-none-elf/lib/libg.a(libc_a-wcsrtombs.o)
 .debug_line_str
                0x000000000000ab8d      0x3b3 /tools/arm-gnu-toolchain-13.2.Rel1-x86_64-aarch64-none-elf/bin/../lib/gcc/aarch64-none-elf/13.2.1/../../../../aarch64-none-elf/lib/libg.a(libc_a-dtoa.o)
 .debug_line_str
                0x000000000000ab8d      0x2ca /tools/arm-gnu-toolchain-13.2.Rel1-x86_64-aarch64-none-elf/bin/../lib/gcc/aarch64-none-elf/13.2.1/../../../../aarch64-none-elf/lib/libg.a(libc_a-strerror.o)
 .debug_line_str
                0x000000000000ab8d      0x32f /tools/arm-gnu-toolchain-13.2.Rel1-x86_64-aarch64-none-elf/bin/../lib/gcc/aarch64-none-elf/13.2.1/../../../../aarch64-none-elf/lib/libg.a(libc_a-ctype_.o)
 .debug_line_str
                0x000000000000ab8d      0x2b5 /tools/arm-gnu-toolchain-13.2.Rel1-x86_64-aarch64-none-elf/bin/../lib/gcc/aarch64-none-elf/13.2.1/../../../../aarch64-none-elf/lib/libg.a(libc_a-reent.o)
 .debug_line_str
                0x000000000000ab8d      0x253 /tools/arm-gnu-toolchain-13.2.Rel1-x86_64-aarch64-none-elf/bin/../lib/gcc/aarch64-none-elf/13.2.1/../../../../aarch64-none-elf/lib/libg.a(libc_a-impure.o)
 .debug_line_str
                0x000000000000ab8d      0x2d1 /tools/arm-gnu-toolchain-13.2.Rel1-x86_64-aarch64-none-elf/bin/../lib/gcc/aarch64-none-elf/13.2.1/../../../../aarch64-none-elf/lib/libg.a(libc_a-findfp.o)
 .debug_line_str
                0x000000000000ab8d       0xcb /tools/arm-gnu-toolchain-13.2.Rel1-x86_64-aarch64-none-elf/bin/../lib/gcc/aarch64-none-elf/13.2.1/../../../../aarch64-none-elf/lib/libg.a(libc_a-memset.o)
 .debug_line_str
                0x000000000000ab8d      0x1e4 /tools/arm-gnu-toolchain-13.2.Rel1-x86_64-aarch64-none-elf/bin/../lib/gcc/aarch64-none-elf/13.2.1/../../../../aarch64-none-elf/lib/libg.a(libm_a-s_nan.o)
 .debug_line_str
                0x000000000000ab8d      0x1e7 /tools/arm-gnu-toolchain-13.2.Rel1-x86_64-aarch64-none-elf/bin/../lib/gcc/aarch64-none-elf/13.2.1/../../../../aarch64-none-elf/lib/libg.a(libm_a-sf_nan.o)
 .debug_line_str
                0x000000000000ab8d      0x2ad /tools/arm-gnu-toolchain-13.2.Rel1-x86_64-aarch64-none-elf/bin/../lib/gcc/aarch64-none-elf/13.2.1/../../../../aarch64-none-elf/lib/libg.a(libm_a-s_frexp.o)
 .debug_line_str
                0x000000000000ab8d      0x24e /tools/arm-gnu-toolchain-13.2.Rel1-x86_64-aarch64-none-elf/bin/../lib/gcc/aarch64-none-elf/13.2.1/../../../../aarch64-none-elf/lib/libg.a(libc_a-strlcpy.o)
 .debug_line_str
                0x000000000000ab8d      0x2b9 /tools/arm-gnu-toolchain-13.2.Rel1-x86_64-aarch64-none-elf/bin/../lib/gcc/aarch64-none-elf/13.2.1/../../../../aarch64-none-elf/lib/libg.a(libc_a-freer.o)
 .debug_line_str
                0x000000000000ab8d      0x263 /tools/arm-gnu-toolchain-13.2.Rel1-x86_64-aarch64-none-elf/bin/../lib/gcc/aarch64-none-elf/13.2.1/../../../../aarch64-none-elf/lib/libg.a(libc_a-strncasecmp.o)
 .debug_line_str
                0x000000000000ab8d      0x2ba /tools/arm-gnu-toolchain-13.2.Rel1-x86_64-aarch64-none-elf/bin/../lib/gcc/aarch64-none-elf/13.2.1/../../../../aarch64-none-elf/lib/libg.a(libc_a-getenv.o)
 .debug_line_str
                0x000000000000ab8d      0x2d3 /tools/arm-gnu-toolchain-13.2.Rel1-x86_64-aarch64-none-elf/bin/../lib/gcc/aarch64-none-elf/13.2.1/../../../../aarch64-none-elf/lib/libg.a(libc_a-getenv_r.o)
 .debug_line_str
                0x000000000000ab8d      0x2bc /tools/arm-gnu-toolchain-13.2.Rel1-x86_64-aarch64-none-elf/bin/../lib/gcc/aarch64-none-elf/13.2.1/../../../../aarch64-none-elf/lib/libg.a(libc_a-fputc.o)
 .debug_line_str
                0x000000000000ab8d      0x2cf /tools/arm-gnu-toolchain-13.2.Rel1-x86_64-aarch64-none-elf/bin/../lib/gcc/aarch64-none-elf/13.2.1/../../../../aarch64-none-elf/lib/libg.a(libc_a-fputs.o)
 .debug_line_str
                0x000000000000ab8d      0x2d1 /tools/arm-gnu-toolchain-13.2.Rel1-x86_64-aarch64-none-elf/bin/../lib/gcc/aarch64-none-elf/13.2.1/../../../../aarch64-none-elf/lib/libg.a(libc_a-fiprintf.o)
 .debug_line_str
                0x000000000000ab8d       0xcb /tools/arm-gnu-toolchain-13.2.Rel1-x86_64-aarch64-none-elf/bin/../lib/gcc/aarch64-none-elf/13.2.1/../../../../aarch64-none-elf/lib/libg.a(libc_a-strcpy.o)
 .debug_line_str
                0x000000000000ab8d      0x341 /tools/arm-gnu-toolchain-13.2.Rel1-x86_64-aarch64-none-elf/bin/../lib/gcc/aarch64-none-elf/13.2.1/../../../../aarch64-none-elf/lib/libg.a(libc_a-stdio.o)
 .debug_line_str
                0x000000000000ab8d      0x339 /tools/arm-gnu-toolchain-13.2.Rel1-x86_64-aarch64-none-elf/bin/../lib/gcc/aarch64-none-elf/13.2.1/../../../../aarch64-none-elf/lib/libg.a(libc_a-wctomb_r.o)
 .debug_line_str
                0x000000000000ab8d      0x2bd /tools/arm-gnu-toolchain-13.2.Rel1-x86_64-aarch64-none-elf/bin/../lib/gcc/aarch64-none-elf/13.2.1/../../../../aarch64-none-elf/lib/libg.a(libc_a-sbrkr.o)
 .debug_line_str
                0x000000000000ab8d      0x2d6 /tools/arm-gnu-toolchain-13.2.Rel1-x86_64-aarch64-none-elf/bin/../lib/gcc/aarch64-none-elf/13.2.1/../../../../aarch64-none-elf/lib/libg.a(libc_a-fvwrite.o)
 .debug_line_str
                0x000000000000ab8d      0x2b4 /tools/arm-gnu-toolchain-13.2.Rel1-x86_64-aarch64-none-elf/bin/../lib/gcc/aarch64-none-elf/13.2.1/../../../../aarch64-none-elf/lib/libg.a(libc_a-fwalk.o)
 .debug_line_str
                0x000000000000ab8d      0x345 /tools/arm-gnu-toolchain-13.2.Rel1-x86_64-aarch64-none-elf/bin/../lib/gcc/aarch64-none-elf/13.2.1/../../../../aarch64-none-elf/lib/libg.a(libc_a-writer.o)
 .debug_line_str
                0x000000000000ab8d      0x3f1 /tools/arm-gnu-toolchain-13.2.Rel1-x86_64-aarch64-none-elf/bin/../lib/gcc/aarch64-none-elf/13.2.1/../../../../aarch64-none-elf/lib/libg.a(libc_a-svfiprintf.o)
 .debug_line_str
                0x000000000000ab8d      0x407 /tools/arm-gnu-toolchain-13.2.Rel1-x86_64-aarch64-none-elf/bin/../lib/gcc/aarch64-none-elf/13.2.1/../../../../aarch64-none-elf/lib/libg.a(libc_a-vfprintf.o)
 .debug_line_str
                0x000000000000ab8d      0x3f7 /tools/arm-gnu-toolchain-13.2.Rel1-x86_64-aarch64-none-elf/bin/../lib/gcc/aarch64-none-elf/13.2.1/../../../../aarch64-none-elf/lib/libg.a(libc_a-vfiprintf.o)
 .debug_line_str
                0x000000000000ab8d      0x193 /tools/arm-gnu-toolchain-13.2.Rel1-x86_64-aarch64-none-elf/bin/../lib/gcc/aarch64-none-elf/13.2.1/../../../../aarch64-none-elf/lib/libg.a(libc_a-u_strerr.o)
 .debug_line_str
                0x000000000000ab8d      0x24f /tools/arm-gnu-toolchain-13.2.Rel1-x86_64-aarch64-none-elf/bin/../lib/gcc/aarch64-none-elf/13.2.1/../../../../aarch64-none-elf/lib/libg.a(libc_a-abort.o)
 .debug_line_str
                0x000000000000ab8d      0x339 /tools/arm-gnu-toolchain-13.2.Rel1-x86_64-aarch64-none-elf/bin/../lib/gcc/aarch64-none-elf/13.2.1/../../../../aarch64-none-elf/lib/libg.a(libc_a-mbtowc_r.o)
 .debug_line_str
                0x000000000000ab8d      0x1e9 /tools/arm-gnu-toolchain-13.2.Rel1-x86_64-aarch64-none-elf/bin/../lib/gcc/aarch64-none-elf/13.2.1/../../../../aarch64-none-elf/lib/libg.a(libc_a-strcat.o)
 .debug_line_str
                0x000000000000ab8d      0x1e1 /tools/arm-gnu-toolchain-13.2.Rel1-x86_64-aarch64-none-elf/bin/../lib/gcc/aarch64-none-elf/13.2.1/../../../../aarch64-none-elf/lib/libg.a(libc_a-lock.o)
 .debug_line_str
                0x000000000000ab8d      0x2c8 /tools/arm-gnu-toolchain-13.2.Rel1-x86_64-aarch64-none-elf/bin/../lib/gcc/aarch64-none-elf/13.2.1/../../../../aarch64-none-elf/lib/libg.a(libc_a-fclose.o)
 .debug_line_str
                0x000000000000ab8d      0x2c8 /tools/arm-gnu-toolchain-13.2.Rel1-x86_64-aarch64-none-elf/bin/../lib/gcc/aarch64-none-elf/13.2.1/../../../../aarch64-none-elf/lib/libg.a(libc_a-wsetup.o)
 .debug_line_str
                0x000000000000ab8d      0x35d /tools/arm-gnu-toolchain-13.2.Rel1-x86_64-aarch64-none-elf/bin/../lib/gcc/aarch64-none-elf/13.2.1/../../../../aarch64-none-elf/lib/libg.a(libc_a-makebuf.o)
 .debug_line_str
                0x000000000000ab8d      0x2b9 /tools/arm-gnu-toolchain-13.2.Rel1-x86_64-aarch64-none-elf/bin/../lib/gcc/aarch64-none-elf/13.2.1/../../../../aarch64-none-elf/lib/libg.a(libc_a-putc.o)
 .debug_line_str
                0x000000000000ab8d      0x336 /tools/arm-gnu-toolchain-13.2.Rel1-x86_64-aarch64-none-elf/bin/../lib/gcc/aarch64-none-elf/13.2.1/../../../../aarch64-none-elf/lib/libg.a(libc_a-wcsnrtombs.o)
 .debug_line_str
                0x000000000000ab8d      0x2c0 /tools/arm-gnu-toolchain-13.2.Rel1-x86_64-aarch64-none-elf/bin/../lib/gcc/aarch64-none-elf/13.2.1/../../../../aarch64-none-elf/lib/libg.a(libc_a-closer.o)
 .debug_line_str
                0x000000000000ab8d      0x2c8 /tools/arm-gnu-toolchain-13.2.Rel1-x86_64-aarch64-none-elf/bin/../lib/gcc/aarch64-none-elf/13.2.1/../../../../aarch64-none-elf/lib/libg.a(libc_a-fflush.o)
 .debug_line_str
                0x000000000000ab8d      0x190 /tools/arm-gnu-toolchain-13.2.Rel1-x86_64-aarch64-none-elf/bin/../lib/gcc/aarch64-none-elf/13.2.1/../../../../aarch64-none-elf/lib/libg.a(libc_a-environ.o)
 .debug_line_str
                0x000000000000ab8d      0x264 /tools/arm-gnu-toolchain-13.2.Rel1-x86_64-aarch64-none-elf/bin/../lib/gcc/aarch64-none-elf/13.2.1/../../../../aarch64-none-elf/lib/libg.a(libc_a-reallocr.o)
 .debug_line_str
                0x000000000000ab8d      0x2be /tools/arm-gnu-toolchain-13.2.Rel1-x86_64-aarch64-none-elf/bin/../lib/gcc/aarch64-none-elf/13.2.1/../../../../aarch64-none-elf/lib/libg.a(libc_a-envlock.o)
 .debug_line_str
                0x000000000000ab8d      0x349 /tools/arm-gnu-toolchain-13.2.Rel1-x86_64-aarch64-none-elf/bin/../lib/gcc/aarch64-none-elf/13.2.1/../../../../aarch64-none-elf/lib/libg.a(libc_a-fstatr.o)
 .debug_line_str
                0x000000000000ab8d      0x2d4 /tools/arm-gnu-toolchain-13.2.Rel1-x86_64-aarch64-none-elf/bin/../lib/gcc/aarch64-none-elf/13.2.1/../../../../aarch64-none-elf/lib/libg.a(libc_a-signal.o)
 .debug_line_str
                0x000000000000ab8d      0x2c3 /tools/arm-gnu-toolchain-13.2.Rel1-x86_64-aarch64-none-elf/bin/../lib/gcc/aarch64-none-elf/13.2.1/../../../../aarch64-none-elf/lib/libg.a(libc_a-isattyr.o)
 .debug_line_str
                0x000000000000ab8d      0x2c0 /tools/arm-gnu-toolchain-13.2.Rel1-x86_64-aarch64-none-elf/bin/../lib/gcc/aarch64-none-elf/13.2.1/../../../../aarch64-none-elf/lib/libg.a(libc_a-lseekr.o)
 .debug_line_str
                0x000000000000ab8d      0x342 /tools/arm-gnu-toolchain-13.2.Rel1-x86_64-aarch64-none-elf/bin/../lib/gcc/aarch64-none-elf/13.2.1/../../../../aarch64-none-elf/lib/libg.a(libc_a-readr.o)
 .debug_line_str
                0x000000000000ab8d      0x2d0 /tools/arm-gnu-toolchain-13.2.Rel1-x86_64-aarch64-none-elf/bin/../lib/gcc/aarch64-none-elf/13.2.1/../../../../aarch64-none-elf/lib/libg.a(libc_a-fputwc.o)
 .debug_line_str
                0x000000000000ab8d      0x2d4 /tools/arm-gnu-toolchain-13.2.Rel1-x86_64-aarch64-none-elf/bin/../lib/gcc/aarch64-none-elf/13.2.1/../../../../aarch64-none-elf/lib/libg.a(libc_a-signalr.o)
 .debug_line_str
                0x000000000000ab8d      0x2c3 /tools/arm-gnu-toolchain-13.2.Rel1-x86_64-aarch64-none-elf/bin/../lib/gcc/aarch64-none-elf/13.2.1/../../../../aarch64-none-elf/lib/libg.a(libc_a-wbuf.o)
 .debug_line_str
                0x000000000000ab8d      0x199 /tools/arm-gnu-toolchain-13.2.Rel1-x86_64-aarch64-none-elf/bin/../lib/gcc/aarch64-none-elf/13.2.1/libgcc.a(trunctfdf2.o)
 .debug_line_str
                0x000000000000ab8d      0x193 /tools/arm-gnu-toolchain-13.2.Rel1-x86_64-aarch64-none-elf/bin/../lib/gcc/aarch64-none-elf/13.2.1/libgcc.a(sfp-exceptions.o)

.comment        0x0000000000000000       0x44
 .comment       0x0000000000000000       0x44 CMakeFiles/freertos_kernel.elf.dir/main.c.o
                                         0x45 (size before relaxing)
 .comment       0x0000000000000044       0x45 gloss/CMakeFiles/freedom_metal.dir/freedom_metal.c.o
 .comment       0x0000000000000044       0x45 gloss/CMakeFiles/freedom_metal.dir/nanosleep.c.o
 .comment       0x0000000000000044       0x45 gloss/CMakeFiles/freedom_metal.dir/sys_access.c.o
 .comment       0x0000000000000044       0x45 gloss/CMakeFiles/freedom_metal.dir/sys_chdir.c.o
 .comment       0x0000000000000044       0x45 gloss/CMakeFiles/freedom_metal.dir/sys_chmod.c.o
 .comment       0x0000000000000044       0x45 gloss/CMakeFiles/freedom_metal.dir/sys_chown.c.o
 .comment       0x0000000000000044       0x45 gloss/CMakeFiles/freedom_metal.dir/sys_clock_gettime.c.o
 .comment       0x0000000000000044       0x45 gloss/CMakeFiles/freedom_metal.dir/sys_close.c.o
 .comment       0x0000000000000044       0x45 gloss/CMakeFiles/freedom_metal.dir/sys_execve.c.o
 .comment       0x0000000000000044       0x45 gloss/CMakeFiles/freedom_metal.dir/sys_exit.c.o
 .comment       0x0000000000000044       0x45 gloss/CMakeFiles/freedom_metal.dir/sys_faccessat.c.o
 .comment       0x0000000000000044       0x45 gloss/CMakeFiles/freedom_metal.dir/sys_fork.c.o
 .comment       0x0000000000000044       0x45 gloss/CMakeFiles/freedom_metal.dir/sys_fstat.c.o
 .comment       0x0000000000000044       0x45 gloss/CMakeFiles/freedom_metal.dir/sys_fstatat.c.o
 .comment       0x0000000000000044       0x45 gloss/CMakeFiles/freedom_metal.dir/sys_ftime.c.o
 .comment       0x0000000000000044       0x45 gloss/CMakeFiles/freedom_metal.dir/sys_getcwd.c.o
 .comment       0x0000000000000044       0x45 gloss/CMakeFiles/freedom_metal.dir/sys_getpid.c.o
 .comment       0x0000000000000044       0x45 gloss/CMakeFiles/freedom_metal.dir/sys_gettimeofday.c.o
 .comment       0x0000000000000044       0x45 gloss/CMakeFiles/freedom_metal.dir/sys_isatty.c.o
 .comment       0x0000000000000044       0x45 gloss/CMakeFiles/freedom_metal.dir/sys_kill.c.o
 .comment       0x0000000000000044       0x45 gloss/CMakeFiles/freedom_metal.dir/sys_link.c.o
 .comment       0x0000000000000044       0x45 gloss/CMakeFiles/freedom_metal.dir/sys_lseek.c.o
 .comment       0x0000000000000044       0x45 gloss/CMakeFiles/freedom_metal.dir/sys_lstat.c.o
 .comment       0x0000000000000044       0x45 gloss/CMakeFiles/freedom_metal.dir/sys_open.c.o
 .comment       0x0000000000000044       0x45 gloss/CMakeFiles/freedom_metal.dir/sys_openat.c.o
 .comment       0x0000000000000044       0x45 gloss/CMakeFiles/freedom_metal.dir/sys_read.c.o
 .comment       0x0000000000000044       0x45 gloss/CMakeFiles/freedom_metal.dir/sys_sbrk.c.o
 .comment       0x0000000000000044       0x45 gloss/CMakeFiles/freedom_metal.dir/sys_sysconf.c.o
 .comment       0x0000000000000044       0x45 gloss/CMakeFiles/freedom_metal.dir/sys_times.c.o
 .comment       0x0000000000000044       0x45 gloss/CMakeFiles/freedom_metal.dir/sys_unlink.c.o
 .comment       0x0000000000000044       0x45 gloss/CMakeFiles/freedom_metal.dir/sys_utime.c.o
 .comment       0x0000000000000044       0x45 gloss/CMakeFiles/freedom_metal.dir/sys_wait.c.o
 .comment       0x0000000000000044       0x45 gloss/CMakeFiles/freedom_metal.dir/sys_write.c.o
 .comment       0x0000000000000044       0x45 build/drivers/mailbox/CMakeFiles/mailbox.dir/mailbox.c.o
 .comment       0x0000000000000044       0x45 build/drivers/mailbox/CMakeFiles/mailbox.dir/mailbox_cb.c.o
 .comment       0x0000000000000044       0x45 build/drivers/pmu/CMakeFiles/pmu.dir/pmu.c.o
 .comment       0x0000000000000044       0x45 build/drivers/uart/CMakeFiles/uart.dir/uart.c.o
 .comment       0x0000000000000044       0x45 build/drivers/dma/CMakeFiles/dma.dir/pl330.c.o
 .comment       0x0000000000000044       0x45 build/drivers/gpio/CMakeFiles/gpio.dir/gpio.c.o
 .comment       0x0000000000000044       0x45 build/drivers/smmu/CMakeFiles/smmu.dir/smmu.c.o
 .comment       0x0000000000000044       0x45 build/drivers/smmu/CMakeFiles/smmu.dir/smmu_pmu.c.o
 .comment       0x0000000000000044       0x45 build/drivers/pvt_con/CMakeFiles/pvt_con.dir/pvt_con.c.o
 .comment       0x0000000000000044       0x45 build/drivers/cmu/CMakeFiles/cmu.dir/cmu.c.o
 .comment       0x0000000000000044       0x45 build/drivers/watchdog/CMakeFiles/watchdog.dir/dw_apb_wdt.c.o
 .comment       0x0000000000000044       0x45 build/drivers/rbc/CMakeFiles/rbc.dir/aw_ucie.c.o
 .comment       0x0000000000000044       0x45 build/drivers/rbc/CMakeFiles/rbc.dir/rbc_driver.c.o
 .comment       0x0000000000000044       0x45 build/drivers/rbc/CMakeFiles/rbc.dir/rbc_cmd.c.o
 .comment       0x0000000000000044       0x45 build/drivers/rbcm/CMakeFiles/rbcm.dir/rbcm_core.c.o
 .comment       0x0000000000000044       0x45 build/drivers/rbcm/CMakeFiles/rbcm.dir/rbcm_driver.c.o
 .comment       0x0000000000000044       0x45 build/drivers/i2c/CMakeFiles/i2c.dir/i2c.c.o
 .comment       0x0000000000000044       0x45 build/drivers/noc_logger/CMakeFiles/noc_logger.dir/noc_logger.c.o
 .comment       0x0000000000000044       0x45 build/drivers/hbm3/CMakeFiles/hbm3.dir/hbm3.c.o
 .comment       0x0000000000000044       0x45 build/drivers/hbm3/CMakeFiles/hbm3.dir/tmrs.c.o
 .comment       0x0000000000000044       0x45 build/drivers/hbm3/CMakeFiles/hbm3.dir/icon.c.o
 .comment       0x0000000000000044       0x45 build/drivers/hbm3/CMakeFiles/hbm3.dir/hbm3_irq.c.o
 .comment       0x0000000000000044       0x45 build/drivers/hbm3/CMakeFiles/hbm3.dir/hbm3_am.c.o
 .comment       0x0000000000000044       0x45 build/drivers/pmic/CMakeFiles/pmic.dir/ltc1427cs8.c.o
 .comment       0x0000000000000044       0x45 build/drivers/pmic/CMakeFiles/pmic.dir/tca9548a.c.o
 .comment       0x0000000000000044       0x45 build/drivers/pmic/CMakeFiles/pmic.dir/mp5998.c.o
 .comment       0x0000000000000044       0x45 build/drivers/pmic/CMakeFiles/pmic.dir/mpq8785.c.o
 .comment       0x0000000000000044       0x45 build/drivers/pmic/CMakeFiles/pmic.dir/mp29816a.c.o
 .comment       0x0000000000000044       0x45 build/drivers/pmic/CMakeFiles/pmic.dir/g1505.c.o
 .comment       0x0000000000000044       0x45 build/drivers/pmic/CMakeFiles/pmic.dir/pmic_mgr.c.o
 .comment       0x0000000000000044       0x45 build/drivers/dvfs/CMakeFiles/dvfs.dir/dvfs.c.o
 .comment       0x0000000000000044       0x45 build/drivers/sic/CMakeFiles/sic.dir/sic.c.o
 .comment       0x0000000000000044       0x45 build/drivers/timer/dw_apb_timer/CMakeFiles/dw_apb_timer.dir/dw_apb_timer.c.o
 .comment       0x0000000000000044       0x45 build/drivers/qspi/qspi_apb/CMakeFiles/qspi_apb.dir/qspi_apb.c.o
 .comment       0x0000000000000044       0x45 build/drivers/flash/CMakeFiles/flash.dir/mt25q_flash.c.o
 .comment       0x0000000000000044       0x45 build/tests/common/CMakeFiles/test_common.dir/test_mailbox_cb.c.o
 .comment       0x0000000000000044       0x45 build/tests/interrupt_test_helper_example/CMakeFiles/interrupt_test_helper_example.dir/example_test.c.o
 .comment       0x0000000000000044       0x45 build/tests/interrupt_test_helper_example/CMakeFiles/interrupt_test_helper_example.dir/example_driver.c.o
 .comment       0x0000000000000044       0x45 build/tests/arch/CMakeFiles/test_arch.dir/test_cli.c.o
 .comment       0x0000000000000044       0x45 build/tests/gpio/CMakeFiles/test_gpio.dir/test_gpio.c.o
 .comment       0x0000000000000044       0x45 build/tests/dma/CMakeFiles/test_dma.dir/test_dma_main.c.o
 .comment       0x0000000000000044       0x45 build/tests/mailbox/CMakeFiles/mailbox_test.dir/test_mailbox_main.c.o
 .comment       0x0000000000000044       0x45 build/tests/pvt_con/CMakeFiles/test_pvt_con.dir/test_pvt_con.c.o
 .comment       0x0000000000000044       0x45 build/tests/arch/arm64/CMakeFiles/test_arm64.dir/test_ca73.c.o
 .comment       0x0000000000000044       0x45 build/tests/timer/dw_apb_timer/CMakeFiles/test_dw_apb_timer.dir/test_dw_apb_timer.c.o
 .comment       0x0000000000000044       0x45 build/tests/cmu/CMakeFiles/test_cmu.dir/test_cmu_main.c.o
 .comment       0x0000000000000044       0x45 build/tests/smmu/CMakeFiles/test_mmu.dir/test_mmu_main.c.o
 .comment       0x0000000000000044       0x45 build/tests/log/CMakeFiles/show_log.dir/rebel_h_log.c.o
 .comment       0x0000000000000044       0x45 build/tests/rbc/CMakeFiles/test_rbc.dir/test/all_test.c.o
 .comment       0x0000000000000044       0x45 build/tests/rbc/CMakeFiles/test_rbc.dir/test/test_aw_ucie_init.c.o
 .comment       0x0000000000000044       0x45 build/tests/rbc/CMakeFiles/test_rbc.dir/test/test_aw_ucie_d2d_comp.c.o
 .comment       0x0000000000000044       0x45 build/tests/rbc/CMakeFiles/test_rbc.dir/test/test_aw_ucie_d2d_err_and_link.c.o
 .comment       0x0000000000000044       0x45 build/tests/rbc/CMakeFiles/test_rbc.dir/test/test_aw_ucie_retraining.c.o
 .comment       0x0000000000000044       0x45 build/tests/rbc/CMakeFiles/test_rbc.dir/test/test_aw_ucie_sideband.c.o
 .comment       0x0000000000000044       0x45 build/tests/rbc/CMakeFiles/test_rbc.dir/test/test_aw_ucie_training.c.o
 .comment       0x0000000000000044       0x45 build/tests/rbc/CMakeFiles/test_rbc.dir/test/test_aw_ucie_runtime_link_test.c.o
 .comment       0x0000000000000044       0x45 build/tests/rbc/CMakeFiles/test_rbc.dir/test/test_aw_ucie_phy_compliance_test.c.o
 .comment       0x0000000000000044       0x45 build/tests/rbc/CMakeFiles/test_rbc.dir/test/test_aw_ucie_exception.c.o
 .comment       0x0000000000000044       0x45 build/tests/rbc/CMakeFiles/test_rbc.dir/test/test_aw_ucie_eye_of_margin.c.o
 .comment       0x0000000000000044       0x45 build/tests/rbc/CMakeFiles/test_rbc.dir/test/test_aw_ucie_util.c.o
 .comment       0x0000000000000044       0x45 build/tests/rbc/CMakeFiles/test_rbc.dir/test/test_fake_timer.c.o
 .comment       0x0000000000000044       0x45 build/tests/rbc/CMakeFiles/test_rbc.dir/test/test_rbc_driver.c.o
 .comment       0x0000000000000044       0x45 build/tests/rbc/CMakeFiles/test_rbc.dir/mocks/fake_timer.c.o
 .comment       0x0000000000000044       0x45 build/tests/rbc/CMakeFiles/test_rbc.dir/mocks/fake_gic.c.o
 .comment       0x0000000000000044       0x45 build/tests/rbcm/CMakeFiles/test_rbcm.dir/rbcm_test.c.o
 .comment       0x0000000000000044       0x45 build/tests/rbcm/CMakeFiles/test_rbcm.dir/rbcm_reg_access_test.c.o
 .comment       0x0000000000000044       0x45 build/tests/i2c/CMakeFiles/test_i2c.dir/test_i2c_main.c.o
 .comment       0x0000000000000044       0x45 build/tests/hbm3/CMakeFiles/hbm3_test.dir/memtest.c.o
 .comment       0x0000000000000044       0x45 build/tests/hbm3/CMakeFiles/hbm3_test.dir/hbm3_irq_test.c.o
 .comment       0x0000000000000044       0x45 build/tests/system_test/CMakeFiles/system_test.dir/test_system.c.o
 .comment       0x0000000000000044       0x45 build/tests/system_test/CMakeFiles/system_test.dir/dma_transaction.c.o
 .comment       0x0000000000000044       0x45 build/tests/system_test/CMakeFiles/system_test.dir/test_dma_transaction.c.o
 .comment       0x0000000000000044       0x45 build/tests/system_test/CMakeFiles/system_test.dir/data_process.c.o
 .comment       0x0000000000000044       0x45 build/tests/system_test/CMakeFiles/system_test.dir/test_data_process.c.o
 .comment       0x0000000000000044       0x45 build/tests/dvfs/CMakeFiles/test_dvfs.dir/test_dvfs_main.c.o
 .comment       0x0000000000000044       0x45 build/tests/pmic/CMakeFiles/test_pmic.dir/test_pmic_main.c.o
 .comment       0x0000000000000044       0x45 build/tests/pvt_con/CMakeFiles/pvt_cli.dir/pvt_cli.c.o
 .comment       0x0000000000000044       0x45 build/tests/pvt_con/CMakeFiles/pvt_cli.dir/pvt_cli_show.c.o
 .comment       0x0000000000000044       0x45 build/tests/pvt_con/CMakeFiles/pvt_cli.dir/pvt_cli_enable.c.o
 .comment       0x0000000000000044       0x45 build/tests/pvt_con/CMakeFiles/pvt_cli.dir/pvt_cli_disable.c.o
 .comment       0x0000000000000044       0x45 build/tests/pvt_con/CMakeFiles/pvt_cli.dir/pvt_cli_set.c.o
 .comment       0x0000000000000044       0x45 build/tests/sic/CMakeFiles/test_sic.dir/test_sic.c.o
 .comment       0x0000000000000044       0x45 build/tests/chipid/CMakeFiles/test_chipid.dir/read_chipid.c.o
 .comment       0x0000000000000044       0x45 build/tests/flash/CMakeFiles/test_flash.dir/test_flash.c.o
 .comment       0x0000000000000044       0x45 build/tests/qspi/CMakeFiles/test_qspiapb.dir/test_qspiapb.c.o
 .comment       0x0000000000000044       0x45 build/tests/rbdma/CMakeFiles/test_rbdma.dir/rbdma_tsync_test.c.o
 .comment       0x0000000000000044       0x45 build/tests/rbdma/CMakeFiles/test_rbdma.dir/test_main_rbdma.c.o
 .comment       0x0000000000000044       0x45 libfreertos_kernel.a(queue.c.o)
 .comment       0x0000000000000044       0x45 libfreertos_kernel.a(tasks.c.o)
 .comment       0x0000000000000044       0x45 libfreertos_kernel.a(timers.c.o)
 .comment       0x0000000000000044       0x45 libfreertos_kernel.a(heap_4.c.o)
 .comment       0x0000000000000044       0x45 libfreertos_kernel.a(list.c.o)
 .comment       0x0000000000000044       0x45 portable/libfreertos_kernel_port.a(port.c.o)
 .comment       0x0000000000000044       0x45 build/drivers/common/libdriver.a(driver.c.o)
 .comment       0x0000000000000044       0x45 build/drivers/common/libassert.a(assert.c.o)
 .comment       0x0000000000000044       0x45 build/drivers/common/libinterrupt.a(interrupt.c.o)
 .comment       0x0000000000000044       0x45 build/drivers/intc/libintc.a(gicv3.c.o)
 .comment       0x0000000000000044       0x45 build/drivers/intc/libintc.a(bakery_lock.c.o)
 .comment       0x0000000000000044       0x45 services/cli_service/libcli_service.a(cli_task.c.o)
 .comment       0x0000000000000044       0x45 services/cli_service/libcli_service.a(sys_command_line.c.o)
 .comment       0x0000000000000044       0x45 services/terminal_service/libterminal_service.a(console_uart.c.o)
 .comment       0x0000000000000044       0x45 services/terminal_service/libterminal_service.a(console.c.o)
 .comment       0x0000000000000044       0x45 services/terminal_service/libterminal_service.a(terminal_task.c.o)
 .comment       0x0000000000000044       0x45 services/replay_service/libreplay_service.a(replay.c.o)
 .comment       0x0000000000000044       0x45 services/replay_service/libreplay_service.a(sub_function.c.o)
 .comment       0x0000000000000044       0x45 services/replay_service/libreplay_service.a(rush_cli.c.o)
 .comment       0x0000000000000044       0x45 services/replay_service/libreplay_service.a(rush_cli_msg_buf.c.o)
 .comment       0x0000000000000044       0x45 services/replay_service/libreplay_service.a(tpg_cli.c.o)
 .comment       0x0000000000000044       0x45 services/replay_service/libreplay_service.a(rbdma_cli.c.o)
 .comment       0x0000000000000044       0x45 services/replay_service/libreplay_service.a(mem_cli.c.o)
 .comment       0x0000000000000044       0x45 services/replay_service/libreplay_service.a(chiplet.c.o)
 .comment       0x0000000000000044       0x45 services/replay_service/libreplay_service.a(cmgr_if.c.o)
 .comment       0x0000000000000044       0x45 services/replay_service/libreplay_service.a(dnc_if.c.o)
 .comment       0x0000000000000044       0x45 services/replay_service/libreplay_service.a(dnc_if_evt1.c.o)
 .comment       0x0000000000000044       0x45 services/replay_service/libreplay_service.a(rdsn_if.c.o)
 .comment       0x0000000000000044       0x45 services/replay_service/libreplay_service.a(ptw.c.o)
 .comment       0x0000000000000044       0x45 services/replay_service/libreplay_service.a(rbdma_if.c.o)
 .comment       0x0000000000000044       0x45 services/replay_service/libreplay_service.a(shm_if.c.o)
 .comment       0x0000000000000044       0x45 services/replay_service/libreplay_service.a(tbu_wrapper.c.o)
 .comment       0x0000000000000044       0x45 services/replay_service/libreplay_service.a(debug.c.o)
 .comment       0x0000000000000044       0x45 services/replay_service/libreplay_service.a(ici.c.o)
 .comment       0x0000000000000044       0x45 services/replay_service/libreplay_service.a(page_table_gen.c.o)
 .comment       0x0000000000000044       0x45 services/replay_service/libreplay_service.a(profile.c.o)
 .comment       0x0000000000000044       0x45 services/replay_service/libreplay_service.a(rl_queue.c.o)
 .comment       0x0000000000000044       0x45 services/replay_service/libreplay_service.a(abort.c.o)
 .comment       0x0000000000000044       0x45 services/replay_service/libreplay_service.a(cpu_data.c.o)
 .comment       0x0000000000000044       0x45 services/replay_service/libreplay_service.a(spinlock.c.o)
 .comment       0x0000000000000044       0x45 services/replay_service/libreplay_service.a(core.c.o)
 .comment       0x0000000000000044       0x45 services/replay_service/libreplay_service.a(log.c.o)
 .comment       0x0000000000000044       0x45 services/replay_service/libreplay_service.a(rand.c.o)
 .comment       0x0000000000000044       0x45 services/replay_service/libreplay_service.a(backtrace.c.o)
 .comment       0x0000000000000044       0x45 services/replay_service/libreplay_service.a(argparse.c.o)
 .comment       0x0000000000000044       0x45 services/replay_service/libreplay_service.a(rush_cli_util.c.o)
 .comment       0x0000000000000044       0x45 services/task_adder_service/libtask_adder_service.a(task_adder.c.o)
 .comment       0x0000000000000044       0x45 portable/libfreertos_arch.a(prep_c.c.o)
 .comment       0x0000000000000044       0x45 libfreertos_kernel_config.a(FreeRTOS_tick_config.c.o)
 .comment       0x0000000000000044       0x45 portable/libsmp.a(smp.c.o)
 .comment       0x0000000000000044       0x45 portable/libmmu.a(mmu.c.o)
 .comment       0x0000000000000044       0x45 build/interrupt_test_helper/libinterrupt_test_helper.a(interrupt_test_helper.c.o)
 .comment       0x0000000000000044       0x45 build/unity/libunity.a(unity.c.o)
 .comment       0x0000000000000044       0x45 build/unity/libunity.a(unity_fixture.c.o)
 .comment       0x0000000000000044       0x45 build/drivers/psci/libpsci.a(psci.c.o)
 .comment       0x0000000000000044       0x45 libfreertos_kernel.a(event_groups.c.o)
 .comment       0x0000000000000044       0x45 libfreertos_kernel.a(stream_buffer.c.o)
 .comment       0x0000000000000044       0x45 build/common/arch/libcommon.a(printf.c.o)
 .comment       0x0000000000000044       0x45 build/common/arch/libcommon.a(system_api.c.o)
 .comment       0x0000000000000044       0x45 build/drivers/timer/generic_timer/libgeneric_timer.a(generic_timer.c.o)
 .comment       0x0000000000000044       0x45 /tools/arm-gnu-toolchain-13.2.Rel1-x86_64-aarch64-none-elf/bin/../lib/gcc/aarch64-none-elf/13.2.1/libgcc.a(lse-init.o)
 .comment       0x0000000000000044       0x45 /tools/arm-gnu-toolchain-13.2.Rel1-x86_64-aarch64-none-elf/bin/../lib/gcc/aarch64-none-elf/13.2.1/../../../../aarch64-none-elf/lib/libg.a(libc_a-strtod.o)
 .comment       0x0000000000000044       0x45 /tools/arm-gnu-toolchain-13.2.Rel1-x86_64-aarch64-none-elf/bin/../lib/gcc/aarch64-none-elf/13.2.1/../../../../aarch64-none-elf/lib/libg.a(libc_a-strtol.o)
 .comment       0x0000000000000044       0x45 /tools/arm-gnu-toolchain-13.2.Rel1-x86_64-aarch64-none-elf/bin/../lib/gcc/aarch64-none-elf/13.2.1/../../../../aarch64-none-elf/lib/libg.a(libc_a-gdtoa-gethex.o)
 .comment       0x0000000000000044       0x45 /tools/arm-gnu-toolchain-13.2.Rel1-x86_64-aarch64-none-elf/bin/../lib/gcc/aarch64-none-elf/13.2.1/../../../../aarch64-none-elf/lib/libg.a(libc_a-strtoul.o)
 .comment       0x0000000000000044       0x45 /tools/arm-gnu-toolchain-13.2.Rel1-x86_64-aarch64-none-elf/bin/../lib/gcc/aarch64-none-elf/13.2.1/../../../../aarch64-none-elf/lib/libg.a(libc_a-gdtoa-hexnan.o)
 .comment       0x0000000000000044       0x45 /tools/arm-gnu-toolchain-13.2.Rel1-x86_64-aarch64-none-elf/bin/../lib/gcc/aarch64-none-elf/13.2.1/../../../../aarch64-none-elf/lib/libg.a(libc_a-strtoll.o)
 .comment       0x0000000000000044       0x45 /tools/arm-gnu-toolchain-13.2.Rel1-x86_64-aarch64-none-elf/bin/../lib/gcc/aarch64-none-elf/13.2.1/../../../../aarch64-none-elf/lib/libg.a(libc_a-strncpy.o)
 .comment       0x0000000000000044       0x45 /tools/arm-gnu-toolchain-13.2.Rel1-x86_64-aarch64-none-elf/bin/../lib/gcc/aarch64-none-elf/13.2.1/../../../../aarch64-none-elf/lib/libg.a(libc_a-strtoull.o)
 .comment       0x0000000000000044       0x45 /tools/arm-gnu-toolchain-13.2.Rel1-x86_64-aarch64-none-elf/bin/../lib/gcc/aarch64-none-elf/13.2.1/../../../../aarch64-none-elf/lib/libg.a(libc_a-sprintf.o)
 .comment       0x0000000000000044       0x45 /tools/arm-gnu-toolchain-13.2.Rel1-x86_64-aarch64-none-elf/bin/../lib/gcc/aarch64-none-elf/13.2.1/../../../../aarch64-none-elf/lib/libg.a(libc_a-strspn.o)
 .comment       0x0000000000000044       0x45 /tools/arm-gnu-toolchain-13.2.Rel1-x86_64-aarch64-none-elf/bin/../lib/gcc/aarch64-none-elf/13.2.1/../../../../aarch64-none-elf/lib/libg.a(libc_a-strtok.o)
 .comment       0x0000000000000044       0x45 /tools/arm-gnu-toolchain-13.2.Rel1-x86_64-aarch64-none-elf/bin/../lib/gcc/aarch64-none-elf/13.2.1/../../../../aarch64-none-elf/lib/libg.a(libc_a-strtok_r.o)
 .comment       0x0000000000000044       0x45 /tools/arm-gnu-toolchain-13.2.Rel1-x86_64-aarch64-none-elf/bin/../lib/gcc/aarch64-none-elf/13.2.1/../../../../aarch64-none-elf/lib/libg.a(libc_a-strstr.o)
 .comment       0x0000000000000044       0x45 /tools/arm-gnu-toolchain-13.2.Rel1-x86_64-aarch64-none-elf/bin/../lib/gcc/aarch64-none-elf/13.2.1/../../../../aarch64-none-elf/lib/libg.a(libc_a-getopt.o)
 .comment       0x0000000000000044       0x45 /tools/arm-gnu-toolchain-13.2.Rel1-x86_64-aarch64-none-elf/bin/../lib/gcc/aarch64-none-elf/13.2.1/../../../../aarch64-none-elf/lib/libg.a(libc_a-errno.o)
 .comment       0x0000000000000044       0x45 /tools/arm-gnu-toolchain-13.2.Rel1-x86_64-aarch64-none-elf/bin/../lib/gcc/aarch64-none-elf/13.2.1/../../../../aarch64-none-elf/lib/libg.a(libc_a-svfprintf.o)
 .comment       0x0000000000000044       0x45 /tools/arm-gnu-toolchain-13.2.Rel1-x86_64-aarch64-none-elf/bin/../lib/gcc/aarch64-none-elf/13.2.1/../../../../aarch64-none-elf/lib/libg.a(libc_a-vsnprintf.o)
 .comment       0x0000000000000044       0x45 /tools/arm-gnu-toolchain-13.2.Rel1-x86_64-aarch64-none-elf/bin/../lib/gcc/aarch64-none-elf/13.2.1/../../../../aarch64-none-elf/lib/libg.a(libc_a-malloc.o)
 .comment       0x0000000000000044       0x45 /tools/arm-gnu-toolchain-13.2.Rel1-x86_64-aarch64-none-elf/bin/../lib/gcc/aarch64-none-elf/13.2.1/../../../../aarch64-none-elf/lib/libg.a(libc_a-mallocr.o)
 .comment       0x0000000000000044       0x45 /tools/arm-gnu-toolchain-13.2.Rel1-x86_64-aarch64-none-elf/bin/../lib/gcc/aarch64-none-elf/13.2.1/../../../../aarch64-none-elf/lib/libg.a(libc_a-assert.o)
 .comment       0x0000000000000044       0x45 /tools/arm-gnu-toolchain-13.2.Rel1-x86_64-aarch64-none-elf/bin/../lib/gcc/aarch64-none-elf/13.2.1/../../../../aarch64-none-elf/lib/libg.a(libc_a-strcasecmp.o)
 .comment       0x0000000000000044       0x45 /tools/arm-gnu-toolchain-13.2.Rel1-x86_64-aarch64-none-elf/bin/../lib/gcc/aarch64-none-elf/13.2.1/../../../../aarch64-none-elf/lib/libg.a(libc_a-wcrtomb.o)
 .comment       0x0000000000000044       0x45 /tools/arm-gnu-toolchain-13.2.Rel1-x86_64-aarch64-none-elf/bin/../lib/gcc/aarch64-none-elf/13.2.1/../../../../aarch64-none-elf/lib/libg.a(libc_a-locale.o)
 .comment       0x0000000000000044       0x45 /tools/arm-gnu-toolchain-13.2.Rel1-x86_64-aarch64-none-elf/bin/../lib/gcc/aarch64-none-elf/13.2.1/../../../../aarch64-none-elf/lib/libg.a(libc_a-localeconv.o)
 .comment       0x0000000000000044       0x45 /tools/arm-gnu-toolchain-13.2.Rel1-x86_64-aarch64-none-elf/bin/../lib/gcc/aarch64-none-elf/13.2.1/../../../../aarch64-none-elf/lib/libg.a(libc_a-printf.o)
 .comment       0x0000000000000044       0x45 /tools/arm-gnu-toolchain-13.2.Rel1-x86_64-aarch64-none-elf/bin/../lib/gcc/aarch64-none-elf/13.2.1/../../../../aarch64-none-elf/lib/libg.a(libc_a-putchar.o)
 .comment       0x0000000000000044       0x45 /tools/arm-gnu-toolchain-13.2.Rel1-x86_64-aarch64-none-elf/bin/../lib/gcc/aarch64-none-elf/13.2.1/../../../../aarch64-none-elf/lib/libg.a(libc_a-puts.o)
 .comment       0x0000000000000044       0x45 /tools/arm-gnu-toolchain-13.2.Rel1-x86_64-aarch64-none-elf/bin/../lib/gcc/aarch64-none-elf/13.2.1/../../../../aarch64-none-elf/lib/libg.a(libc_a-mlock.o)
 .comment       0x0000000000000044       0x45 /tools/arm-gnu-toolchain-13.2.Rel1-x86_64-aarch64-none-elf/bin/../lib/gcc/aarch64-none-elf/13.2.1/../../../../aarch64-none-elf/lib/libg.a(libc_a-mprec.o)
 .comment       0x0000000000000044       0x45 /tools/arm-gnu-toolchain-13.2.Rel1-x86_64-aarch64-none-elf/bin/../lib/gcc/aarch64-none-elf/13.2.1/../../../../aarch64-none-elf/lib/libg.a(libc_a-atoi.o)
 .comment       0x0000000000000044       0x45 /tools/arm-gnu-toolchain-13.2.Rel1-x86_64-aarch64-none-elf/bin/../lib/gcc/aarch64-none-elf/13.2.1/../../../../aarch64-none-elf/lib/libg.a(libc_a-rand.o)
 .comment       0x0000000000000044       0x45 /tools/arm-gnu-toolchain-13.2.Rel1-x86_64-aarch64-none-elf/bin/../lib/gcc/aarch64-none-elf/13.2.1/../../../../aarch64-none-elf/lib/libg.a(libc_a-callocr.o)
 .comment       0x0000000000000044       0x45 /tools/arm-gnu-toolchain-13.2.Rel1-x86_64-aarch64-none-elf/bin/../lib/gcc/aarch64-none-elf/13.2.1/../../../../aarch64-none-elf/lib/libg.a(libc_a-wcsrtombs.o)
 .comment       0x0000000000000044       0x45 /tools/arm-gnu-toolchain-13.2.Rel1-x86_64-aarch64-none-elf/bin/../lib/gcc/aarch64-none-elf/13.2.1/../../../../aarch64-none-elf/lib/libg.a(libc_a-dtoa.o)
 .comment       0x0000000000000044       0x45 /tools/arm-gnu-toolchain-13.2.Rel1-x86_64-aarch64-none-elf/bin/../lib/gcc/aarch64-none-elf/13.2.1/../../../../aarch64-none-elf/lib/libg.a(libc_a-strerror.o)
 .comment       0x0000000000000044       0x45 /tools/arm-gnu-toolchain-13.2.Rel1-x86_64-aarch64-none-elf/bin/../lib/gcc/aarch64-none-elf/13.2.1/../../../../aarch64-none-elf/lib/libg.a(libc_a-ctype_.o)
 .comment       0x0000000000000044       0x45 /tools/arm-gnu-toolchain-13.2.Rel1-x86_64-aarch64-none-elf/bin/../lib/gcc/aarch64-none-elf/13.2.1/../../../../aarch64-none-elf/lib/libg.a(libc_a-reent.o)
 .comment       0x0000000000000044       0x45 /tools/arm-gnu-toolchain-13.2.Rel1-x86_64-aarch64-none-elf/bin/../lib/gcc/aarch64-none-elf/13.2.1/../../../../aarch64-none-elf/lib/libg.a(libc_a-impure.o)
 .comment       0x0000000000000044       0x45 /tools/arm-gnu-toolchain-13.2.Rel1-x86_64-aarch64-none-elf/bin/../lib/gcc/aarch64-none-elf/13.2.1/../../../../aarch64-none-elf/lib/libg.a(libc_a-findfp.o)
 .comment       0x0000000000000044       0x45 /tools/arm-gnu-toolchain-13.2.Rel1-x86_64-aarch64-none-elf/bin/../lib/gcc/aarch64-none-elf/13.2.1/../../../../aarch64-none-elf/lib/libg.a(libm_a-s_nan.o)
 .comment       0x0000000000000044       0x45 /tools/arm-gnu-toolchain-13.2.Rel1-x86_64-aarch64-none-elf/bin/../lib/gcc/aarch64-none-elf/13.2.1/../../../../aarch64-none-elf/lib/libg.a(libm_a-sf_nan.o)
 .comment       0x0000000000000044       0x45 /tools/arm-gnu-toolchain-13.2.Rel1-x86_64-aarch64-none-elf/bin/../lib/gcc/aarch64-none-elf/13.2.1/../../../../aarch64-none-elf/lib/libg.a(libm_a-s_frexp.o)
 .comment       0x0000000000000044       0x45 /tools/arm-gnu-toolchain-13.2.Rel1-x86_64-aarch64-none-elf/bin/../lib/gcc/aarch64-none-elf/13.2.1/../../../../aarch64-none-elf/lib/libg.a(libc_a-strlcpy.o)
 .comment       0x0000000000000044       0x45 /tools/arm-gnu-toolchain-13.2.Rel1-x86_64-aarch64-none-elf/bin/../lib/gcc/aarch64-none-elf/13.2.1/../../../../aarch64-none-elf/lib/libg.a(libc_a-freer.o)
 .comment       0x0000000000000044       0x45 /tools/arm-gnu-toolchain-13.2.Rel1-x86_64-aarch64-none-elf/bin/../lib/gcc/aarch64-none-elf/13.2.1/../../../../aarch64-none-elf/lib/libg.a(libc_a-strncasecmp.o)
 .comment       0x0000000000000044       0x45 /tools/arm-gnu-toolchain-13.2.Rel1-x86_64-aarch64-none-elf/bin/../lib/gcc/aarch64-none-elf/13.2.1/../../../../aarch64-none-elf/lib/libg.a(libc_a-getenv.o)
 .comment       0x0000000000000044       0x45 /tools/arm-gnu-toolchain-13.2.Rel1-x86_64-aarch64-none-elf/bin/../lib/gcc/aarch64-none-elf/13.2.1/../../../../aarch64-none-elf/lib/libg.a(libc_a-getenv_r.o)
 .comment       0x0000000000000044       0x45 /tools/arm-gnu-toolchain-13.2.Rel1-x86_64-aarch64-none-elf/bin/../lib/gcc/aarch64-none-elf/13.2.1/../../../../aarch64-none-elf/lib/libg.a(libc_a-fputc.o)
 .comment       0x0000000000000044       0x45 /tools/arm-gnu-toolchain-13.2.Rel1-x86_64-aarch64-none-elf/bin/../lib/gcc/aarch64-none-elf/13.2.1/../../../../aarch64-none-elf/lib/libg.a(libc_a-fputs.o)
 .comment       0x0000000000000044       0x45 /tools/arm-gnu-toolchain-13.2.Rel1-x86_64-aarch64-none-elf/bin/../lib/gcc/aarch64-none-elf/13.2.1/../../../../aarch64-none-elf/lib/libg.a(libc_a-fiprintf.o)
 .comment       0x0000000000000044       0x45 /tools/arm-gnu-toolchain-13.2.Rel1-x86_64-aarch64-none-elf/bin/../lib/gcc/aarch64-none-elf/13.2.1/../../../../aarch64-none-elf/lib/libg.a(libc_a-stdio.o)
 .comment       0x0000000000000044       0x45 /tools/arm-gnu-toolchain-13.2.Rel1-x86_64-aarch64-none-elf/bin/../lib/gcc/aarch64-none-elf/13.2.1/../../../../aarch64-none-elf/lib/libg.a(libc_a-wctomb_r.o)
 .comment       0x0000000000000044       0x45 /tools/arm-gnu-toolchain-13.2.Rel1-x86_64-aarch64-none-elf/bin/../lib/gcc/aarch64-none-elf/13.2.1/../../../../aarch64-none-elf/lib/libg.a(libc_a-sbrkr.o)
 .comment       0x0000000000000044       0x45 /tools/arm-gnu-toolchain-13.2.Rel1-x86_64-aarch64-none-elf/bin/../lib/gcc/aarch64-none-elf/13.2.1/../../../../aarch64-none-elf/lib/libg.a(libc_a-fvwrite.o)
 .comment       0x0000000000000044       0x45 /tools/arm-gnu-toolchain-13.2.Rel1-x86_64-aarch64-none-elf/bin/../lib/gcc/aarch64-none-elf/13.2.1/../../../../aarch64-none-elf/lib/libg.a(libc_a-fwalk.o)
 .comment       0x0000000000000044       0x45 /tools/arm-gnu-toolchain-13.2.Rel1-x86_64-aarch64-none-elf/bin/../lib/gcc/aarch64-none-elf/13.2.1/../../../../aarch64-none-elf/lib/libg.a(libc_a-writer.o)
 .comment       0x0000000000000044       0x45 /tools/arm-gnu-toolchain-13.2.Rel1-x86_64-aarch64-none-elf/bin/../lib/gcc/aarch64-none-elf/13.2.1/../../../../aarch64-none-elf/lib/libg.a(libc_a-svfiprintf.o)
 .comment       0x0000000000000044       0x45 /tools/arm-gnu-toolchain-13.2.Rel1-x86_64-aarch64-none-elf/bin/../lib/gcc/aarch64-none-elf/13.2.1/../../../../aarch64-none-elf/lib/libg.a(libc_a-vfprintf.o)
 .comment       0x0000000000000044       0x45 /tools/arm-gnu-toolchain-13.2.Rel1-x86_64-aarch64-none-elf/bin/../lib/gcc/aarch64-none-elf/13.2.1/../../../../aarch64-none-elf/lib/libg.a(libc_a-vfiprintf.o)
 .comment       0x0000000000000044       0x45 /tools/arm-gnu-toolchain-13.2.Rel1-x86_64-aarch64-none-elf/bin/../lib/gcc/aarch64-none-elf/13.2.1/../../../../aarch64-none-elf/lib/libg.a(libc_a-u_strerr.o)
 .comment       0x0000000000000044       0x45 /tools/arm-gnu-toolchain-13.2.Rel1-x86_64-aarch64-none-elf/bin/../lib/gcc/aarch64-none-elf/13.2.1/../../../../aarch64-none-elf/lib/libg.a(libc_a-abort.o)
 .comment       0x0000000000000044       0x45 /tools/arm-gnu-toolchain-13.2.Rel1-x86_64-aarch64-none-elf/bin/../lib/gcc/aarch64-none-elf/13.2.1/../../../../aarch64-none-elf/lib/libg.a(libc_a-mbtowc_r.o)
 .comment       0x0000000000000044       0x45 /tools/arm-gnu-toolchain-13.2.Rel1-x86_64-aarch64-none-elf/bin/../lib/gcc/aarch64-none-elf/13.2.1/../../../../aarch64-none-elf/lib/libg.a(libc_a-strcat.o)
 .comment       0x0000000000000044       0x45 /tools/arm-gnu-toolchain-13.2.Rel1-x86_64-aarch64-none-elf/bin/../lib/gcc/aarch64-none-elf/13.2.1/../../../../aarch64-none-elf/lib/libg.a(libc_a-lock.o)
 .comment       0x0000000000000044       0x45 /tools/arm-gnu-toolchain-13.2.Rel1-x86_64-aarch64-none-elf/bin/../lib/gcc/aarch64-none-elf/13.2.1/../../../../aarch64-none-elf/lib/libg.a(libc_a-fclose.o)
 .comment       0x0000000000000044       0x45 /tools/arm-gnu-toolchain-13.2.Rel1-x86_64-aarch64-none-elf/bin/../lib/gcc/aarch64-none-elf/13.2.1/../../../../aarch64-none-elf/lib/libg.a(libc_a-wsetup.o)
 .comment       0x0000000000000044       0x45 /tools/arm-gnu-toolchain-13.2.Rel1-x86_64-aarch64-none-elf/bin/../lib/gcc/aarch64-none-elf/13.2.1/../../../../aarch64-none-elf/lib/libg.a(libc_a-makebuf.o)
 .comment       0x0000000000000044       0x45 /tools/arm-gnu-toolchain-13.2.Rel1-x86_64-aarch64-none-elf/bin/../lib/gcc/aarch64-none-elf/13.2.1/../../../../aarch64-none-elf/lib/libg.a(libc_a-putc.o)
 .comment       0x0000000000000044       0x45 /tools/arm-gnu-toolchain-13.2.Rel1-x86_64-aarch64-none-elf/bin/../lib/gcc/aarch64-none-elf/13.2.1/../../../../aarch64-none-elf/lib/libg.a(libc_a-wcsnrtombs.o)
 .comment       0x0000000000000044       0x45 /tools/arm-gnu-toolchain-13.2.Rel1-x86_64-aarch64-none-elf/bin/../lib/gcc/aarch64-none-elf/13.2.1/../../../../aarch64-none-elf/lib/libg.a(libc_a-closer.o)
 .comment       0x0000000000000044       0x45 /tools/arm-gnu-toolchain-13.2.Rel1-x86_64-aarch64-none-elf/bin/../lib/gcc/aarch64-none-elf/13.2.1/../../../../aarch64-none-elf/lib/libg.a(libc_a-fflush.o)
 .comment       0x0000000000000044       0x45 /tools/arm-gnu-toolchain-13.2.Rel1-x86_64-aarch64-none-elf/bin/../lib/gcc/aarch64-none-elf/13.2.1/../../../../aarch64-none-elf/lib/libg.a(libc_a-environ.o)
 .comment       0x0000000000000044       0x45 /tools/arm-gnu-toolchain-13.2.Rel1-x86_64-aarch64-none-elf/bin/../lib/gcc/aarch64-none-elf/13.2.1/../../../../aarch64-none-elf/lib/libg.a(libc_a-reallocr.o)
 .comment       0x0000000000000044       0x45 /tools/arm-gnu-toolchain-13.2.Rel1-x86_64-aarch64-none-elf/bin/../lib/gcc/aarch64-none-elf/13.2.1/../../../../aarch64-none-elf/lib/libg.a(libc_a-envlock.o)
 .comment       0x0000000000000044       0x45 /tools/arm-gnu-toolchain-13.2.Rel1-x86_64-aarch64-none-elf/bin/../lib/gcc/aarch64-none-elf/13.2.1/../../../../aarch64-none-elf/lib/libg.a(libc_a-fstatr.o)
 .comment       0x0000000000000044       0x45 /tools/arm-gnu-toolchain-13.2.Rel1-x86_64-aarch64-none-elf/bin/../lib/gcc/aarch64-none-elf/13.2.1/../../../../aarch64-none-elf/lib/libg.a(libc_a-signal.o)
 .comment       0x0000000000000044       0x45 /tools/arm-gnu-toolchain-13.2.Rel1-x86_64-aarch64-none-elf/bin/../lib/gcc/aarch64-none-elf/13.2.1/../../../../aarch64-none-elf/lib/libg.a(libc_a-isattyr.o)
 .comment       0x0000000000000044       0x45 /tools/arm-gnu-toolchain-13.2.Rel1-x86_64-aarch64-none-elf/bin/../lib/gcc/aarch64-none-elf/13.2.1/../../../../aarch64-none-elf/lib/libg.a(libc_a-lseekr.o)
 .comment       0x0000000000000044       0x45 /tools/arm-gnu-toolchain-13.2.Rel1-x86_64-aarch64-none-elf/bin/../lib/gcc/aarch64-none-elf/13.2.1/../../../../aarch64-none-elf/lib/libg.a(libc_a-readr.o)
 .comment       0x0000000000000044       0x45 /tools/arm-gnu-toolchain-13.2.Rel1-x86_64-aarch64-none-elf/bin/../lib/gcc/aarch64-none-elf/13.2.1/../../../../aarch64-none-elf/lib/libg.a(libc_a-fputwc.o)
 .comment       0x0000000000000044       0x45 /tools/arm-gnu-toolchain-13.2.Rel1-x86_64-aarch64-none-elf/bin/../lib/gcc/aarch64-none-elf/13.2.1/../../../../aarch64-none-elf/lib/libg.a(libc_a-signalr.o)
 .comment       0x0000000000000044       0x45 /tools/arm-gnu-toolchain-13.2.Rel1-x86_64-aarch64-none-elf/bin/../lib/gcc/aarch64-none-elf/13.2.1/../../../../aarch64-none-elf/lib/libg.a(libc_a-wbuf.o)
 .comment       0x0000000000000044       0x45 /tools/arm-gnu-toolchain-13.2.Rel1-x86_64-aarch64-none-elf/bin/../lib/gcc/aarch64-none-elf/13.2.1/libgcc.a(trunctfdf2.o)
 .comment       0x0000000000000044       0x45 /tools/arm-gnu-toolchain-13.2.Rel1-x86_64-aarch64-none-elf/bin/../lib/gcc/aarch64-none-elf/13.2.1/libgcc.a(sfp-exceptions.o)

.debug_frame    0x0000000000000000    0x1ead8
 .debug_frame   0x0000000000000000       0x80 CMakeFiles/freertos_kernel.elf.dir/main.c.o
 .debug_frame   0x0000000000000080       0xc0 gloss/CMakeFiles/freedom_metal.dir/freedom_metal.c.o
 .debug_frame   0x0000000000000140       0x38 gloss/CMakeFiles/freedom_metal.dir/nanosleep.c.o
 .debug_frame   0x0000000000000178       0x38 gloss/CMakeFiles/freedom_metal.dir/sys_access.c.o
 .debug_frame   0x00000000000001b0       0x38 gloss/CMakeFiles/freedom_metal.dir/sys_chdir.c.o
 .debug_frame   0x00000000000001e8       0x38 gloss/CMakeFiles/freedom_metal.dir/sys_chmod.c.o
 .debug_frame   0x0000000000000220       0x38 gloss/CMakeFiles/freedom_metal.dir/sys_chown.c.o
 .debug_frame   0x0000000000000258       0x88 gloss/CMakeFiles/freedom_metal.dir/sys_clock_gettime.c.o
 .debug_frame   0x00000000000002e0       0x38 gloss/CMakeFiles/freedom_metal.dir/sys_close.c.o
 .debug_frame   0x0000000000000318       0x38 gloss/CMakeFiles/freedom_metal.dir/sys_execve.c.o
 .debug_frame   0x0000000000000350       0x30 gloss/CMakeFiles/freedom_metal.dir/sys_exit.c.o
 .debug_frame   0x0000000000000380       0x38 gloss/CMakeFiles/freedom_metal.dir/sys_faccessat.c.o
 .debug_frame   0x00000000000003b8       0x38 gloss/CMakeFiles/freedom_metal.dir/sys_fork.c.o
 .debug_frame   0x00000000000003f0       0x38 gloss/CMakeFiles/freedom_metal.dir/sys_fstat.c.o
 .debug_frame   0x0000000000000428       0x38 gloss/CMakeFiles/freedom_metal.dir/sys_fstatat.c.o
 .debug_frame   0x0000000000000460       0x38 gloss/CMakeFiles/freedom_metal.dir/sys_ftime.c.o
 .debug_frame   0x0000000000000498       0x38 gloss/CMakeFiles/freedom_metal.dir/sys_getcwd.c.o
 .debug_frame   0x00000000000004d0       0x28 gloss/CMakeFiles/freedom_metal.dir/sys_getpid.c.o
 .debug_frame   0x00000000000004f8       0x40 gloss/CMakeFiles/freedom_metal.dir/sys_gettimeofday.c.o
 .debug_frame   0x0000000000000538       0x28 gloss/CMakeFiles/freedom_metal.dir/sys_isatty.c.o
 .debug_frame   0x0000000000000560       0x38 gloss/CMakeFiles/freedom_metal.dir/sys_kill.c.o
 .debug_frame   0x0000000000000598       0x38 gloss/CMakeFiles/freedom_metal.dir/sys_link.c.o
 .debug_frame   0x00000000000005d0       0x38 gloss/CMakeFiles/freedom_metal.dir/sys_lseek.c.o
 .debug_frame   0x0000000000000608       0x38 gloss/CMakeFiles/freedom_metal.dir/sys_lstat.c.o
 .debug_frame   0x0000000000000640       0x38 gloss/CMakeFiles/freedom_metal.dir/sys_open.c.o
 .debug_frame   0x0000000000000678       0x38 gloss/CMakeFiles/freedom_metal.dir/sys_openat.c.o
 .debug_frame   0x00000000000006b0       0x38 gloss/CMakeFiles/freedom_metal.dir/sys_read.c.o
 .debug_frame   0x00000000000006e8       0x60 gloss/CMakeFiles/freedom_metal.dir/sys_sbrk.c.o
 .debug_frame   0x0000000000000748       0x28 gloss/CMakeFiles/freedom_metal.dir/sys_sysconf.c.o
 .debug_frame   0x0000000000000770       0x40 gloss/CMakeFiles/freedom_metal.dir/sys_times.c.o
 .debug_frame   0x00000000000007b0       0x38 gloss/CMakeFiles/freedom_metal.dir/sys_unlink.c.o
 .debug_frame   0x00000000000007e8       0x38 gloss/CMakeFiles/freedom_metal.dir/sys_utime.c.o
 .debug_frame   0x0000000000000820       0x38 gloss/CMakeFiles/freedom_metal.dir/sys_wait.c.o
 .debug_frame   0x0000000000000858       0x48 gloss/CMakeFiles/freedom_metal.dir/sys_write.c.o
 .debug_frame   0x00000000000008a0       0xf0 build/drivers/mailbox/CMakeFiles/mailbox.dir/mailbox.c.o
 .debug_frame   0x0000000000000990       0xa0 build/drivers/mailbox/CMakeFiles/mailbox.dir/mailbox_cb.c.o
 .debug_frame   0x0000000000000a30       0x88 build/drivers/pmu/CMakeFiles/pmu.dir/pmu.c.o
 .debug_frame   0x0000000000000ab8      0x1c0 build/drivers/uart/CMakeFiles/uart.dir/uart.c.o
 .debug_frame   0x0000000000000c78      0x1e0 build/drivers/dma/CMakeFiles/dma.dir/pl330.c.o
 .debug_frame   0x0000000000000e58      0x400 build/drivers/gpio/CMakeFiles/gpio.dir/gpio.c.o
 .debug_frame   0x0000000000001258      0x3f0 build/drivers/smmu/CMakeFiles/smmu.dir/smmu.c.o
 .debug_frame   0x0000000000001648      0x168 build/drivers/smmu/CMakeFiles/smmu.dir/smmu_pmu.c.o
 .debug_frame   0x00000000000017b0      0x3a0 build/drivers/pvt_con/CMakeFiles/pvt_con.dir/pvt_con.c.o
 .debug_frame   0x0000000000001b50      0x388 build/drivers/cmu/CMakeFiles/cmu.dir/cmu.c.o
 .debug_frame   0x0000000000001ed8      0x100 build/drivers/watchdog/CMakeFiles/watchdog.dir/dw_apb_wdt.c.o
 .debug_frame   0x0000000000001fd8      0xe00 build/drivers/rbc/CMakeFiles/rbc.dir/aw_ucie.c.o
 .debug_frame   0x0000000000002dd8      0x1e8 build/drivers/rbc/CMakeFiles/rbc.dir/rbc_driver.c.o
 .debug_frame   0x0000000000002fc0       0xd8 build/drivers/rbc/CMakeFiles/rbc.dir/rbc_cmd.c.o
 .debug_frame   0x0000000000003098      0x580 build/drivers/rbcm/CMakeFiles/rbcm.dir/rbcm_core.c.o
 .debug_frame   0x0000000000003618      0x280 build/drivers/rbcm/CMakeFiles/rbcm.dir/rbcm_driver.c.o
 .debug_frame   0x0000000000003898      0x268 build/drivers/i2c/CMakeFiles/i2c.dir/i2c.c.o
 .debug_frame   0x0000000000003b00       0x80 build/drivers/noc_logger/CMakeFiles/noc_logger.dir/noc_logger.c.o
 .debug_frame   0x0000000000003b80      0x258 build/drivers/hbm3/CMakeFiles/hbm3.dir/hbm3.c.o
 .debug_frame   0x0000000000003dd8       0x88 build/drivers/hbm3/CMakeFiles/hbm3.dir/tmrs.c.o
 .debug_frame   0x0000000000003e60      0x6f8 build/drivers/hbm3/CMakeFiles/hbm3.dir/icon.c.o
 .debug_frame   0x0000000000004558      0x120 build/drivers/hbm3/CMakeFiles/hbm3.dir/hbm3_irq.c.o
 .debug_frame   0x0000000000004678       0xb8 build/drivers/hbm3/CMakeFiles/hbm3.dir/hbm3_am.c.o
 .debug_frame   0x0000000000004730       0xd8 build/drivers/pmic/CMakeFiles/pmic.dir/ltc1427cs8.c.o
 .debug_frame   0x0000000000004808       0x98 build/drivers/pmic/CMakeFiles/pmic.dir/tca9548a.c.o
 .debug_frame   0x00000000000048a0      0x2a0 build/drivers/pmic/CMakeFiles/pmic.dir/mp5998.c.o
 .debug_frame   0x0000000000004b40      0x2e0 build/drivers/pmic/CMakeFiles/pmic.dir/mpq8785.c.o
 .debug_frame   0x0000000000004e20      0x3d0 build/drivers/pmic/CMakeFiles/pmic.dir/mp29816a.c.o
 .debug_frame   0x00000000000051f0      0x1d0 build/drivers/pmic/CMakeFiles/pmic.dir/g1505.c.o
 .debug_frame   0x00000000000053c0      0x210 build/drivers/pmic/CMakeFiles/pmic.dir/pmic_mgr.c.o
 .debug_frame   0x00000000000055d0       0xf8 build/drivers/dvfs/CMakeFiles/dvfs.dir/dvfs.c.o
 .debug_frame   0x00000000000056c8       0x70 build/drivers/sic/CMakeFiles/sic.dir/sic.c.o
 .debug_frame   0x0000000000005738      0x220 build/drivers/timer/dw_apb_timer/CMakeFiles/dw_apb_timer.dir/dw_apb_timer.c.o
 .debug_frame   0x0000000000005958       0x88 build/drivers/qspi/qspi_apb/CMakeFiles/qspi_apb.dir/qspi_apb.c.o
 .debug_frame   0x00000000000059e0       0x88 build/drivers/flash/CMakeFiles/flash.dir/mt25q_flash.c.o
 .debug_frame   0x0000000000005a68       0x78 build/tests/common/CMakeFiles/test_common.dir/test_mailbox_cb.c.o
 .debug_frame   0x0000000000005ae0      0x258 build/tests/interrupt_test_helper_example/CMakeFiles/interrupt_test_helper_example.dir/example_test.c.o
 .debug_frame   0x0000000000005d38       0x88 build/tests/interrupt_test_helper_example/CMakeFiles/interrupt_test_helper_example.dir/example_driver.c.o
 .debug_frame   0x0000000000005dc0       0x58 build/tests/arch/CMakeFiles/test_arch.dir/test_cli.c.o
 .debug_frame   0x0000000000005e18      0x600 build/tests/gpio/CMakeFiles/test_gpio.dir/test_gpio.c.o
 .debug_frame   0x0000000000006418       0x88 build/tests/dma/CMakeFiles/test_dma.dir/test_dma_main.c.o
 .debug_frame   0x00000000000064a0      0x118 build/tests/mailbox/CMakeFiles/mailbox_test.dir/test_mailbox_main.c.o
 .debug_frame   0x00000000000065b8       0x70 build/tests/pvt_con/CMakeFiles/test_pvt_con.dir/test_pvt_con.c.o
 .debug_frame   0x0000000000006628       0x90 build/tests/arch/arm64/CMakeFiles/test_arm64.dir/test_ca73.c.o
 .debug_frame   0x00000000000066b8       0xb8 build/tests/timer/dw_apb_timer/CMakeFiles/test_dw_apb_timer.dir/test_dw_apb_timer.c.o
 .debug_frame   0x0000000000006770      0x630 build/tests/cmu/CMakeFiles/test_cmu.dir/test_cmu_main.c.o
 .debug_frame   0x0000000000006da0       0x60 build/tests/smmu/CMakeFiles/test_mmu.dir/test_mmu_main.c.o
 .debug_frame   0x0000000000006e00       0xa0 build/tests/log/CMakeFiles/show_log.dir/rebel_h_log.c.o
 .debug_frame   0x0000000000006ea0      0x1c8 build/tests/rbc/CMakeFiles/test_rbc.dir/test/all_test.c.o
 .debug_frame   0x0000000000007068      0x760 build/tests/rbc/CMakeFiles/test_rbc.dir/test/test_aw_ucie_init.c.o
 .debug_frame   0x00000000000077c8      0xec8 build/tests/rbc/CMakeFiles/test_rbc.dir/test/test_aw_ucie_d2d_comp.c.o
 .debug_frame   0x0000000000008690      0x3c8 build/tests/rbc/CMakeFiles/test_rbc.dir/test/test_aw_ucie_d2d_err_and_link.c.o
 .debug_frame   0x0000000000008a58      0x210 build/tests/rbc/CMakeFiles/test_rbc.dir/test/test_aw_ucie_retraining.c.o
 .debug_frame   0x0000000000008c68      0x458 build/tests/rbc/CMakeFiles/test_rbc.dir/test/test_aw_ucie_sideband.c.o
 .debug_frame   0x00000000000090c0      0x850 build/tests/rbc/CMakeFiles/test_rbc.dir/test/test_aw_ucie_training.c.o
 .debug_frame   0x0000000000009910     0x2410 build/tests/rbc/CMakeFiles/test_rbc.dir/test/test_aw_ucie_runtime_link_test.c.o
 .debug_frame   0x000000000000bd20     0x1650 build/tests/rbc/CMakeFiles/test_rbc.dir/test/test_aw_ucie_phy_compliance_test.c.o
 .debug_frame   0x000000000000d370      0x918 build/tests/rbc/CMakeFiles/test_rbc.dir/test/test_aw_ucie_exception.c.o
 .debug_frame   0x000000000000dc88      0x480 build/tests/rbc/CMakeFiles/test_rbc.dir/test/test_aw_ucie_eye_of_margin.c.o
 .debug_frame   0x000000000000e108      0x208 build/tests/rbc/CMakeFiles/test_rbc.dir/test/test_aw_ucie_util.c.o
 .debug_frame   0x000000000000e310       0xc0 build/tests/rbc/CMakeFiles/test_rbc.dir/test/test_fake_timer.c.o
 .debug_frame   0x000000000000e3d0      0x2c0 build/tests/rbc/CMakeFiles/test_rbc.dir/test/test_rbc_driver.c.o
 .debug_frame   0x000000000000e690       0x58 build/tests/rbc/CMakeFiles/test_rbc.dir/mocks/fake_timer.c.o
 .debug_frame   0x000000000000e6e8       0x28 build/tests/rbc/CMakeFiles/test_rbc.dir/mocks/fake_gic.c.o
 .debug_frame   0x000000000000e710      0x6a0 build/tests/rbcm/CMakeFiles/test_rbcm.dir/rbcm_test.c.o
 .debug_frame   0x000000000000edb0       0xa0 build/tests/rbcm/CMakeFiles/test_rbcm.dir/rbcm_reg_access_test.c.o
 .debug_frame   0x000000000000ee50       0xd8 build/tests/i2c/CMakeFiles/test_i2c.dir/test_i2c_main.c.o
 .debug_frame   0x000000000000ef28      0x508 build/tests/hbm3/CMakeFiles/hbm3_test.dir/memtest.c.o
 .debug_frame   0x000000000000f430       0x68 build/tests/hbm3/CMakeFiles/hbm3_test.dir/hbm3_irq_test.c.o
 .debug_frame   0x000000000000f498      0x1f8 build/tests/system_test/CMakeFiles/system_test.dir/test_system.c.o
 .debug_frame   0x000000000000f690       0x60 build/tests/system_test/CMakeFiles/system_test.dir/dma_transaction.c.o
 .debug_frame   0x000000000000f6f0      0x290 build/tests/system_test/CMakeFiles/system_test.dir/test_dma_transaction.c.o
 .debug_frame   0x000000000000f980      0x2b0 build/tests/system_test/CMakeFiles/system_test.dir/data_process.c.o
 .debug_frame   0x000000000000fc30      0x3b0 build/tests/system_test/CMakeFiles/system_test.dir/test_data_process.c.o
 .debug_frame   0x000000000000ffe0       0x88 build/tests/dvfs/CMakeFiles/test_dvfs.dir/test_dvfs_main.c.o
 .debug_frame   0x0000000000010068      0x118 build/tests/pmic/CMakeFiles/test_pmic.dir/test_pmic_main.c.o
 .debug_frame   0x0000000000010180       0x78 build/tests/pvt_con/CMakeFiles/pvt_cli.dir/pvt_cli.c.o
 .debug_frame   0x00000000000101f8      0x1b8 build/tests/pvt_con/CMakeFiles/pvt_cli.dir/pvt_cli_show.c.o
 .debug_frame   0x00000000000103b0       0x88 build/tests/pvt_con/CMakeFiles/pvt_cli.dir/pvt_cli_enable.c.o
 .debug_frame   0x0000000000010438       0x88 build/tests/pvt_con/CMakeFiles/pvt_cli.dir/pvt_cli_disable.c.o
 .debug_frame   0x00000000000104c0       0x60 build/tests/pvt_con/CMakeFiles/pvt_cli.dir/pvt_cli_set.c.o
 .debug_frame   0x0000000000010520       0x68 build/tests/sic/CMakeFiles/test_sic.dir/test_sic.c.o
 .debug_frame   0x0000000000010588       0x50 build/tests/chipid/CMakeFiles/test_chipid.dir/read_chipid.c.o
 .debug_frame   0x00000000000105d8       0x70 build/tests/flash/CMakeFiles/test_flash.dir/test_flash.c.o
 .debug_frame   0x0000000000010648       0x60 build/tests/qspi/CMakeFiles/test_qspiapb.dir/test_qspiapb.c.o
 .debug_frame   0x00000000000106a8      0x220 build/tests/rbdma/CMakeFiles/test_rbdma.dir/rbdma_tsync_test.c.o
 .debug_frame   0x00000000000108c8       0x78 build/tests/rbdma/CMakeFiles/test_rbdma.dir/test_main_rbdma.c.o
 .debug_frame   0x0000000000010940       0x58 build/tests/rbdma/CMakeFiles/test_rbdma.dir/cache.S.o
 .debug_frame   0x0000000000010998      0x670 libfreertos_kernel.a(queue.c.o)
 .debug_frame   0x0000000000011008     0x1058 libfreertos_kernel.a(tasks.c.o)
 .debug_frame   0x0000000000012060      0x500 libfreertos_kernel.a(timers.c.o)
 .debug_frame   0x0000000000012560      0x1b0 libfreertos_kernel.a(heap_4.c.o)
 .debug_frame   0x0000000000012710       0x88 libfreertos_kernel.a(list.c.o)
 .debug_frame   0x0000000000012798      0x1c8 portable/libfreertos_kernel_port.a(port.c.o)
 .debug_frame   0x0000000000012960       0x60 build/drivers/common/libdriver.a(driver.c.o)
 .debug_frame   0x00000000000129c0       0xa0 build/drivers/common/libassert.a(assert.c.o)
 .debug_frame   0x0000000000012a60       0xd8 build/drivers/common/libinterrupt.a(interrupt.c.o)
 .debug_frame   0x0000000000012b38      0x1d8 build/drivers/intc/libintc.a(gicv3.c.o)
 .debug_frame   0x0000000000012d10       0x58 build/drivers/intc/libintc.a(bakery_lock.c.o)
 .debug_frame   0x0000000000012d68       0xa8 services/cli_service/libcli_service.a(cli_task.c.o)
 .debug_frame   0x0000000000012e10      0x238 services/cli_service/libcli_service.a(sys_command_line.c.o)
 .debug_frame   0x0000000000013048       0xc8 services/terminal_service/libterminal_service.a(console_uart.c.o)
 .debug_frame   0x0000000000013110      0x1a0 services/terminal_service/libterminal_service.a(console.c.o)
 .debug_frame   0x00000000000132b0      0x170 services/terminal_service/libterminal_service.a(terminal_task.c.o)
 .debug_frame   0x0000000000013420     0x2310 services/replay_service/libreplay_service.a(replay.c.o)
 .debug_frame   0x0000000000015730      0x710 services/replay_service/libreplay_service.a(sub_function.c.o)
 .debug_frame   0x0000000000015e40      0x130 services/replay_service/libreplay_service.a(rush_cli.c.o)
 .debug_frame   0x0000000000015f70       0xe0 services/replay_service/libreplay_service.a(rush_cli_msg_buf.c.o)
 .debug_frame   0x0000000000016050      0x1c0 services/replay_service/libreplay_service.a(tpg_cli.c.o)
 .debug_frame   0x0000000000016210      0x258 services/replay_service/libreplay_service.a(rbdma_cli.c.o)
 .debug_frame   0x0000000000016468      0x190 services/replay_service/libreplay_service.a(mem_cli.c.o)
 .debug_frame   0x00000000000165f8       0x28 services/replay_service/libreplay_service.a(chiplet.c.o)
 .debug_frame   0x0000000000016620      0x138 services/replay_service/libreplay_service.a(cmgr_if.c.o)
 .debug_frame   0x0000000000016758     0x1398 services/replay_service/libreplay_service.a(dnc_if.c.o)
 .debug_frame   0x0000000000017af0       0x78 services/replay_service/libreplay_service.a(dnc_if_evt1.c.o)
 .debug_frame   0x0000000000017b68      0x240 services/replay_service/libreplay_service.a(rdsn_if.c.o)
 .debug_frame   0x0000000000017da8      0x298 services/replay_service/libreplay_service.a(ptw.c.o)
 .debug_frame   0x0000000000018040      0x528 services/replay_service/libreplay_service.a(rbdma_if.c.o)
 .debug_frame   0x0000000000018568      0x308 services/replay_service/libreplay_service.a(shm_if.c.o)
 .debug_frame   0x0000000000018870      0x110 services/replay_service/libreplay_service.a(tbu_wrapper.c.o)
 .debug_frame   0x0000000000018980       0xa0 services/replay_service/libreplay_service.a(debug.c.o)
 .debug_frame   0x0000000000018a20      0x3e0 services/replay_service/libreplay_service.a(ici.c.o)
 .debug_frame   0x0000000000018e00      0x100 services/replay_service/libreplay_service.a(page_table_gen.c.o)
 .debug_frame   0x0000000000018f00      0x140 services/replay_service/libreplay_service.a(profile.c.o)
 .debug_frame   0x0000000000019040      0x240 services/replay_service/libreplay_service.a(rl_queue.c.o)
 .debug_frame   0x0000000000019280      0x200 services/replay_service/libreplay_service.a(abort.c.o)
 .debug_frame   0x0000000000019480       0xb8 services/replay_service/libreplay_service.a(context.S.o)
 .debug_frame   0x0000000000019538       0x28 services/replay_service/libreplay_service.a(cpu_data.c.o)
 .debug_frame   0x0000000000019560       0x60 services/replay_service/libreplay_service.a(spinlock.c.o)
 .debug_frame   0x00000000000195c0      0x1a0 services/replay_service/libreplay_service.a(core.c.o)
 .debug_frame   0x0000000000019760       0x68 services/replay_service/libreplay_service.a(log.c.o)
 .debug_frame   0x00000000000197c8       0x50 services/replay_service/libreplay_service.a(rand.c.o)
 .debug_frame   0x0000000000019818       0x90 services/replay_service/libreplay_service.a(backtrace.c.o)
 .debug_frame   0x00000000000198a8      0x1e0 services/replay_service/libreplay_service.a(argparse.c.o)
 .debug_frame   0x0000000000019a88       0xb0 services/replay_service/libreplay_service.a(rush_cli_util.c.o)
 .debug_frame   0x0000000000019b38       0x40 services/replay_service/libreplay_service.a(spinlock.S.o)
 .debug_frame   0x0000000000019b78       0xa0 services/task_adder_service/libtask_adder_service.a(task_adder.c.o)
 .debug_frame   0x0000000000019c18       0x38 portable/libfreertos_arch.a(prep_c.c.o)
 .debug_frame   0x0000000000019c50       0x80 libfreertos_kernel_config.a(FreeRTOS_tick_config.c.o)
 .debug_frame   0x0000000000019cd0       0x90 portable/libsmp.a(smp.c.o)
 .debug_frame   0x0000000000019d60      0x1e8 portable/libmmu.a(mmu.c.o)
 .debug_frame   0x0000000000019f48       0xd0 build/interrupt_test_helper/libinterrupt_test_helper.a(interrupt_test_helper.c.o)
 .debug_frame   0x000000000001a018      0xc20 build/unity/libunity.a(unity.c.o)
 .debug_frame   0x000000000001ac38      0x228 build/unity/libunity.a(unity_fixture.c.o)
 .debug_frame   0x000000000001ae60       0x60 build/drivers/psci/libpsci.a(psci.c.o)
 .debug_frame   0x000000000001aec0      0x240 libfreertos_kernel.a(event_groups.c.o)
 .debug_frame   0x000000000001b100      0x4f8 libfreertos_kernel.a(stream_buffer.c.o)
 .debug_frame   0x000000000001b5f8      0x328 build/common/arch/libcommon.a(printf.c.o)
 .debug_frame   0x000000000001b920       0x70 build/common/arch/libcommon.a(system_api.c.o)
 .debug_frame   0x000000000001b990       0x50 build/drivers/timer/generic_timer/libgeneric_timer.a(generic_timer.c.o)
 .debug_frame   0x000000000001b9e0      0x250 /tools/arm-gnu-toolchain-13.2.Rel1-x86_64-aarch64-none-elf/bin/../lib/gcc/aarch64-none-elf/13.2.1/../../../../aarch64-none-elf/lib/libg.a(libc_a-strtod.o)
 .debug_frame   0x000000000001bc30       0xa0 /tools/arm-gnu-toolchain-13.2.Rel1-x86_64-aarch64-none-elf/bin/../lib/gcc/aarch64-none-elf/13.2.1/../../../../aarch64-none-elf/lib/libg.a(libc_a-strtol.o)
 .debug_frame   0x000000000001bcd0       0xa0 /tools/arm-gnu-toolchain-13.2.Rel1-x86_64-aarch64-none-elf/bin/../lib/gcc/aarch64-none-elf/13.2.1/../../../../aarch64-none-elf/lib/libg.a(libc_a-gdtoa-gethex.o)
 .debug_frame   0x000000000001bd70       0x70 /tools/arm-gnu-toolchain-13.2.Rel1-x86_64-aarch64-none-elf/bin/../lib/gcc/aarch64-none-elf/13.2.1/../../../../aarch64-none-elf/lib/libg.a(libc_a-strtoul.o)
 .debug_frame   0x000000000001bde0       0x40 /tools/arm-gnu-toolchain-13.2.Rel1-x86_64-aarch64-none-elf/bin/../lib/gcc/aarch64-none-elf/13.2.1/../../../../aarch64-none-elf/lib/libg.a(libc_a-gdtoa-hexnan.o)
 .debug_frame   0x000000000001be20       0x70 /tools/arm-gnu-toolchain-13.2.Rel1-x86_64-aarch64-none-elf/bin/../lib/gcc/aarch64-none-elf/13.2.1/../../../../aarch64-none-elf/lib/libg.a(libc_a-strtoll.o)
 .debug_frame   0x000000000001be90       0x28 /tools/arm-gnu-toolchain-13.2.Rel1-x86_64-aarch64-none-elf/bin/../lib/gcc/aarch64-none-elf/13.2.1/../../../../aarch64-none-elf/lib/libg.a(libc_a-strncpy.o)
 .debug_frame   0x000000000001beb8       0x70 /tools/arm-gnu-toolchain-13.2.Rel1-x86_64-aarch64-none-elf/bin/../lib/gcc/aarch64-none-elf/13.2.1/../../../../aarch64-none-elf/lib/libg.a(libc_a-strtoull.o)
 .debug_frame   0x000000000001bf28       0x60 /tools/arm-gnu-toolchain-13.2.Rel1-x86_64-aarch64-none-elf/bin/../lib/gcc/aarch64-none-elf/13.2.1/../../../../aarch64-none-elf/lib/libg.a(libc_a-sprintf.o)
 .debug_frame   0x000000000001bf88       0x28 /tools/arm-gnu-toolchain-13.2.Rel1-x86_64-aarch64-none-elf/bin/../lib/gcc/aarch64-none-elf/13.2.1/../../../../aarch64-none-elf/lib/libg.a(libc_a-strspn.o)
 .debug_frame   0x000000000001bfb0       0x28 /tools/arm-gnu-toolchain-13.2.Rel1-x86_64-aarch64-none-elf/bin/../lib/gcc/aarch64-none-elf/13.2.1/../../../../aarch64-none-elf/lib/libg.a(libc_a-strtok.o)
 .debug_frame   0x000000000001bfd8       0x40 /tools/arm-gnu-toolchain-13.2.Rel1-x86_64-aarch64-none-elf/bin/../lib/gcc/aarch64-none-elf/13.2.1/../../../../aarch64-none-elf/lib/libg.a(libc_a-strtok_r.o)
 .debug_frame   0x000000000001c018      0x198 /tools/arm-gnu-toolchain-13.2.Rel1-x86_64-aarch64-none-elf/bin/../lib/gcc/aarch64-none-elf/13.2.1/../../../../aarch64-none-elf/lib/libg.a(libc_a-strstr.o)
 .debug_frame   0x000000000001c1b0      0x1f0 /tools/arm-gnu-toolchain-13.2.Rel1-x86_64-aarch64-none-elf/bin/../lib/gcc/aarch64-none-elf/13.2.1/../../../../aarch64-none-elf/lib/libg.a(libc_a-getopt.o)
 .debug_frame   0x000000000001c3a0       0x28 /tools/arm-gnu-toolchain-13.2.Rel1-x86_64-aarch64-none-elf/bin/../lib/gcc/aarch64-none-elf/13.2.1/../../../../aarch64-none-elf/lib/libg.a(libc_a-errno.o)
 .debug_frame   0x000000000001c3c8       0xe0 /tools/arm-gnu-toolchain-13.2.Rel1-x86_64-aarch64-none-elf/bin/../lib/gcc/aarch64-none-elf/13.2.1/../../../../aarch64-none-elf/lib/libg.a(libc_a-svfprintf.o)
 .debug_frame   0x000000000001c4a8       0x80 /tools/arm-gnu-toolchain-13.2.Rel1-x86_64-aarch64-none-elf/bin/../lib/gcc/aarch64-none-elf/13.2.1/../../../../aarch64-none-elf/lib/libg.a(libc_a-vsnprintf.o)
 .debug_frame   0x000000000001c528       0x40 /tools/arm-gnu-toolchain-13.2.Rel1-x86_64-aarch64-none-elf/bin/../lib/gcc/aarch64-none-elf/13.2.1/../../../../aarch64-none-elf/lib/libg.a(libc_a-malloc.o)
 .debug_frame   0x000000000001c568       0xf8 /tools/arm-gnu-toolchain-13.2.Rel1-x86_64-aarch64-none-elf/bin/../lib/gcc/aarch64-none-elf/13.2.1/../../../../aarch64-none-elf/lib/libg.a(libc_a-mallocr.o)
 .debug_frame   0x000000000001c660       0x50 /tools/arm-gnu-toolchain-13.2.Rel1-x86_64-aarch64-none-elf/bin/../lib/gcc/aarch64-none-elf/13.2.1/../../../../aarch64-none-elf/lib/libg.a(libc_a-assert.o)
 .debug_frame   0x000000000001c6b0       0x28 /tools/arm-gnu-toolchain-13.2.Rel1-x86_64-aarch64-none-elf/bin/../lib/gcc/aarch64-none-elf/13.2.1/../../../../aarch64-none-elf/lib/libg.a(libc_a-strcasecmp.o)
 .debug_frame   0x000000000001c6d8       0x80 /tools/arm-gnu-toolchain-13.2.Rel1-x86_64-aarch64-none-elf/bin/../lib/gcc/aarch64-none-elf/13.2.1/../../../../aarch64-none-elf/lib/libg.a(libc_a-wcrtomb.o)
 .debug_frame   0x000000000001c758      0x1f0 /tools/arm-gnu-toolchain-13.2.Rel1-x86_64-aarch64-none-elf/bin/../lib/gcc/aarch64-none-elf/13.2.1/../../../../aarch64-none-elf/lib/libg.a(libc_a-locale.o)
 .debug_frame   0x000000000001c948       0x58 /tools/arm-gnu-toolchain-13.2.Rel1-x86_64-aarch64-none-elf/bin/../lib/gcc/aarch64-none-elf/13.2.1/../../../../aarch64-none-elf/lib/libg.a(libc_a-localeconv.o)
 .debug_frame   0x000000000001c9a0       0x60 /tools/arm-gnu-toolchain-13.2.Rel1-x86_64-aarch64-none-elf/bin/../lib/gcc/aarch64-none-elf/13.2.1/../../../../aarch64-none-elf/lib/libg.a(libc_a-printf.o)
 .debug_frame   0x000000000001ca00       0x40 /tools/arm-gnu-toolchain-13.2.Rel1-x86_64-aarch64-none-elf/bin/../lib/gcc/aarch64-none-elf/13.2.1/../../../../aarch64-none-elf/lib/libg.a(libc_a-putchar.o)
 .debug_frame   0x000000000001ca40       0x60 /tools/arm-gnu-toolchain-13.2.Rel1-x86_64-aarch64-none-elf/bin/../lib/gcc/aarch64-none-elf/13.2.1/../../../../aarch64-none-elf/lib/libg.a(libc_a-puts.o)
 .debug_frame   0x000000000001caa0       0x40 /tools/arm-gnu-toolchain-13.2.Rel1-x86_64-aarch64-none-elf/bin/../lib/gcc/aarch64-none-elf/13.2.1/../../../../aarch64-none-elf/lib/libg.a(libc_a-mlock.o)
 .debug_frame   0x000000000001cae0      0x360 /tools/arm-gnu-toolchain-13.2.Rel1-x86_64-aarch64-none-elf/bin/../lib/gcc/aarch64-none-elf/13.2.1/../../../../aarch64-none-elf/lib/libg.a(libc_a-mprec.o)
 .debug_frame   0x000000000001ce40       0x60 /tools/arm-gnu-toolchain-13.2.Rel1-x86_64-aarch64-none-elf/bin/../lib/gcc/aarch64-none-elf/13.2.1/../../../../aarch64-none-elf/lib/libg.a(libc_a-atoi.o)
 .debug_frame   0x000000000001cea0       0x40 /tools/arm-gnu-toolchain-13.2.Rel1-x86_64-aarch64-none-elf/bin/../lib/gcc/aarch64-none-elf/13.2.1/../../../../aarch64-none-elf/lib/libg.a(libc_a-rand.o)
 .debug_frame   0x000000000001cee0       0x50 /tools/arm-gnu-toolchain-13.2.Rel1-x86_64-aarch64-none-elf/bin/../lib/gcc/aarch64-none-elf/13.2.1/../../../../aarch64-none-elf/lib/libg.a(libc_a-callocr.o)
 .debug_frame   0x000000000001cf30       0x40 /tools/arm-gnu-toolchain-13.2.Rel1-x86_64-aarch64-none-elf/bin/../lib/gcc/aarch64-none-elf/13.2.1/../../../../aarch64-none-elf/lib/libg.a(libc_a-wcsrtombs.o)
 .debug_frame   0x000000000001cf70       0xc0 /tools/arm-gnu-toolchain-13.2.Rel1-x86_64-aarch64-none-elf/bin/../lib/gcc/aarch64-none-elf/13.2.1/../../../../aarch64-none-elf/lib/libg.a(libc_a-dtoa.o)
 .debug_frame   0x000000000001d030       0x68 /tools/arm-gnu-toolchain-13.2.Rel1-x86_64-aarch64-none-elf/bin/../lib/gcc/aarch64-none-elf/13.2.1/../../../../aarch64-none-elf/lib/libg.a(libc_a-strerror.o)
 .debug_frame   0x000000000001d098       0x28 /tools/arm-gnu-toolchain-13.2.Rel1-x86_64-aarch64-none-elf/bin/../lib/gcc/aarch64-none-elf/13.2.1/../../../../aarch64-none-elf/lib/libg.a(libc_a-ctype_.o)
 .debug_frame   0x000000000001d0c0       0x50 /tools/arm-gnu-toolchain-13.2.Rel1-x86_64-aarch64-none-elf/bin/../lib/gcc/aarch64-none-elf/13.2.1/../../../../aarch64-none-elf/lib/libg.a(libc_a-reent.o)
 .debug_frame   0x000000000001d110      0x1d8 /tools/arm-gnu-toolchain-13.2.Rel1-x86_64-aarch64-none-elf/bin/../lib/gcc/aarch64-none-elf/13.2.1/../../../../aarch64-none-elf/lib/libg.a(libc_a-findfp.o)
 .debug_frame   0x000000000001d2e8       0x28 /tools/arm-gnu-toolchain-13.2.Rel1-x86_64-aarch64-none-elf/bin/../lib/gcc/aarch64-none-elf/13.2.1/../../../../aarch64-none-elf/lib/libg.a(libm_a-s_nan.o)
 .debug_frame   0x000000000001d310       0x28 /tools/arm-gnu-toolchain-13.2.Rel1-x86_64-aarch64-none-elf/bin/../lib/gcc/aarch64-none-elf/13.2.1/../../../../aarch64-none-elf/lib/libg.a(libm_a-sf_nan.o)
 .debug_frame   0x000000000001d338       0x28 /tools/arm-gnu-toolchain-13.2.Rel1-x86_64-aarch64-none-elf/bin/../lib/gcc/aarch64-none-elf/13.2.1/../../../../aarch64-none-elf/lib/libg.a(libm_a-s_frexp.o)
 .debug_frame   0x000000000001d360       0x28 /tools/arm-gnu-toolchain-13.2.Rel1-x86_64-aarch64-none-elf/bin/../lib/gcc/aarch64-none-elf/13.2.1/../../../../aarch64-none-elf/lib/libg.a(libc_a-strlcpy.o)
 .debug_frame   0x000000000001d388       0xa0 /tools/arm-gnu-toolchain-13.2.Rel1-x86_64-aarch64-none-elf/bin/../lib/gcc/aarch64-none-elf/13.2.1/../../../../aarch64-none-elf/lib/libg.a(libc_a-freer.o)
 .debug_frame   0x000000000001d428       0x28 /tools/arm-gnu-toolchain-13.2.Rel1-x86_64-aarch64-none-elf/bin/../lib/gcc/aarch64-none-elf/13.2.1/../../../../aarch64-none-elf/lib/libg.a(libc_a-strncasecmp.o)
 .debug_frame   0x000000000001d450       0x50 /tools/arm-gnu-toolchain-13.2.Rel1-x86_64-aarch64-none-elf/bin/../lib/gcc/aarch64-none-elf/13.2.1/../../../../aarch64-none-elf/lib/libg.a(libc_a-getenv.o)
 .debug_frame   0x000000000001d4a0       0x98 /tools/arm-gnu-toolchain-13.2.Rel1-x86_64-aarch64-none-elf/bin/../lib/gcc/aarch64-none-elf/13.2.1/../../../../aarch64-none-elf/lib/libg.a(libc_a-getenv_r.o)
 .debug_frame   0x000000000001d538       0x88 /tools/arm-gnu-toolchain-13.2.Rel1-x86_64-aarch64-none-elf/bin/../lib/gcc/aarch64-none-elf/13.2.1/../../../../aarch64-none-elf/lib/libg.a(libc_a-fputc.o)
 .debug_frame   0x000000000001d5c0       0x60 /tools/arm-gnu-toolchain-13.2.Rel1-x86_64-aarch64-none-elf/bin/../lib/gcc/aarch64-none-elf/13.2.1/../../../../aarch64-none-elf/lib/libg.a(libc_a-fputs.o)
 .debug_frame   0x000000000001d620       0x60 /tools/arm-gnu-toolchain-13.2.Rel1-x86_64-aarch64-none-elf/bin/../lib/gcc/aarch64-none-elf/13.2.1/../../../../aarch64-none-elf/lib/libg.a(libc_a-fiprintf.o)
 .debug_frame   0x000000000001d680       0xe8 /tools/arm-gnu-toolchain-13.2.Rel1-x86_64-aarch64-none-elf/bin/../lib/gcc/aarch64-none-elf/13.2.1/../../../../aarch64-none-elf/lib/libg.a(libc_a-stdio.o)
 .debug_frame   0x000000000001d768       0xa0 /tools/arm-gnu-toolchain-13.2.Rel1-x86_64-aarch64-none-elf/bin/../lib/gcc/aarch64-none-elf/13.2.1/../../../../aarch64-none-elf/lib/libg.a(libc_a-wctomb_r.o)
 .debug_frame   0x000000000001d808       0x48 /tools/arm-gnu-toolchain-13.2.Rel1-x86_64-aarch64-none-elf/bin/../lib/gcc/aarch64-none-elf/13.2.1/../../../../aarch64-none-elf/lib/libg.a(libc_a-sbrkr.o)
 .debug_frame   0x000000000001d850       0xc8 /tools/arm-gnu-toolchain-13.2.Rel1-x86_64-aarch64-none-elf/bin/../lib/gcc/aarch64-none-elf/13.2.1/../../../../aarch64-none-elf/lib/libg.a(libc_a-fvwrite.o)
 .debug_frame   0x000000000001d918       0x50 /tools/arm-gnu-toolchain-13.2.Rel1-x86_64-aarch64-none-elf/bin/../lib/gcc/aarch64-none-elf/13.2.1/../../../../aarch64-none-elf/lib/libg.a(libc_a-fwalk.o)
 .debug_frame   0x000000000001d968       0x48 /tools/arm-gnu-toolchain-13.2.Rel1-x86_64-aarch64-none-elf/bin/../lib/gcc/aarch64-none-elf/13.2.1/../../../../aarch64-none-elf/lib/libg.a(libc_a-writer.o)
 .debug_frame   0x000000000001d9b0      0x108 /tools/arm-gnu-toolchain-13.2.Rel1-x86_64-aarch64-none-elf/bin/../lib/gcc/aarch64-none-elf/13.2.1/../../../../aarch64-none-elf/lib/libg.a(libc_a-svfiprintf.o)
 .debug_frame   0x000000000001dab8      0x198 /tools/arm-gnu-toolchain-13.2.Rel1-x86_64-aarch64-none-elf/bin/../lib/gcc/aarch64-none-elf/13.2.1/../../../../aarch64-none-elf/lib/libg.a(libc_a-vfprintf.o)
 .debug_frame   0x000000000001dc50      0x1c0 /tools/arm-gnu-toolchain-13.2.Rel1-x86_64-aarch64-none-elf/bin/../lib/gcc/aarch64-none-elf/13.2.1/../../../../aarch64-none-elf/lib/libg.a(libc_a-vfiprintf.o)
 .debug_frame   0x000000000001de10       0x28 /tools/arm-gnu-toolchain-13.2.Rel1-x86_64-aarch64-none-elf/bin/../lib/gcc/aarch64-none-elf/13.2.1/../../../../aarch64-none-elf/lib/libg.a(libc_a-u_strerr.o)
 .debug_frame   0x000000000001de38       0x30 /tools/arm-gnu-toolchain-13.2.Rel1-x86_64-aarch64-none-elf/bin/../lib/gcc/aarch64-none-elf/13.2.1/../../../../aarch64-none-elf/lib/libg.a(libc_a-abort.o)
 .debug_frame   0x000000000001de68      0x128 /tools/arm-gnu-toolchain-13.2.Rel1-x86_64-aarch64-none-elf/bin/../lib/gcc/aarch64-none-elf/13.2.1/../../../../aarch64-none-elf/lib/libg.a(libc_a-mbtowc_r.o)
 .debug_frame   0x000000000001df90       0x38 /tools/arm-gnu-toolchain-13.2.Rel1-x86_64-aarch64-none-elf/bin/../lib/gcc/aarch64-none-elf/13.2.1/../../../../aarch64-none-elf/lib/libg.a(libc_a-strcat.o)
 .debug_frame   0x000000000001dfc8      0x100 /tools/arm-gnu-toolchain-13.2.Rel1-x86_64-aarch64-none-elf/bin/../lib/gcc/aarch64-none-elf/13.2.1/../../../../aarch64-none-elf/lib/libg.a(libc_a-lock.o)
 .debug_frame   0x000000000001e0c8       0x78 /tools/arm-gnu-toolchain-13.2.Rel1-x86_64-aarch64-none-elf/bin/../lib/gcc/aarch64-none-elf/13.2.1/../../../../aarch64-none-elf/lib/libg.a(libc_a-fclose.o)
 .debug_frame   0x000000000001e140       0x40 /tools/arm-gnu-toolchain-13.2.Rel1-x86_64-aarch64-none-elf/bin/../lib/gcc/aarch64-none-elf/13.2.1/../../../../aarch64-none-elf/lib/libg.a(libc_a-wsetup.o)
 .debug_frame   0x000000000001e180       0xa8 /tools/arm-gnu-toolchain-13.2.Rel1-x86_64-aarch64-none-elf/bin/../lib/gcc/aarch64-none-elf/13.2.1/../../../../aarch64-none-elf/lib/libg.a(libc_a-makebuf.o)
 .debug_frame   0x000000000001e228       0x90 /tools/arm-gnu-toolchain-13.2.Rel1-x86_64-aarch64-none-elf/bin/../lib/gcc/aarch64-none-elf/13.2.1/../../../../aarch64-none-elf/lib/libg.a(libc_a-putc.o)
 .debug_frame   0x000000000001e2b8       0xb0 /tools/arm-gnu-toolchain-13.2.Rel1-x86_64-aarch64-none-elf/bin/../lib/gcc/aarch64-none-elf/13.2.1/../../../../aarch64-none-elf/lib/libg.a(libc_a-wcsnrtombs.o)
 .debug_frame   0x000000000001e368       0x48 /tools/arm-gnu-toolchain-13.2.Rel1-x86_64-aarch64-none-elf/bin/../lib/gcc/aarch64-none-elf/13.2.1/../../../../aarch64-none-elf/lib/libg.a(libc_a-closer.o)
 .debug_frame   0x000000000001e3b0       0xd8 /tools/arm-gnu-toolchain-13.2.Rel1-x86_64-aarch64-none-elf/bin/../lib/gcc/aarch64-none-elf/13.2.1/../../../../aarch64-none-elf/lib/libg.a(libc_a-fflush.o)
 .debug_frame   0x000000000001e488       0xf0 /tools/arm-gnu-toolchain-13.2.Rel1-x86_64-aarch64-none-elf/bin/../lib/gcc/aarch64-none-elf/13.2.1/../../../../aarch64-none-elf/lib/libg.a(libc_a-reallocr.o)
 .debug_frame   0x000000000001e578       0x40 /tools/arm-gnu-toolchain-13.2.Rel1-x86_64-aarch64-none-elf/bin/../lib/gcc/aarch64-none-elf/13.2.1/../../../../aarch64-none-elf/lib/libg.a(libc_a-envlock.o)
 .debug_frame   0x000000000001e5b8       0x48 /tools/arm-gnu-toolchain-13.2.Rel1-x86_64-aarch64-none-elf/bin/../lib/gcc/aarch64-none-elf/13.2.1/../../../../aarch64-none-elf/lib/libg.a(libc_a-fstatr.o)
 .debug_frame   0x000000000001e600      0x200 /tools/arm-gnu-toolchain-13.2.Rel1-x86_64-aarch64-none-elf/bin/../lib/gcc/aarch64-none-elf/13.2.1/../../../../aarch64-none-elf/lib/libg.a(libc_a-signal.o)
 .debug_frame   0x000000000001e800       0x48 /tools/arm-gnu-toolchain-13.2.Rel1-x86_64-aarch64-none-elf/bin/../lib/gcc/aarch64-none-elf/13.2.1/../../../../aarch64-none-elf/lib/libg.a(libc_a-isattyr.o)
 .debug_frame   0x000000000001e848       0x48 /tools/arm-gnu-toolchain-13.2.Rel1-x86_64-aarch64-none-elf/bin/../lib/gcc/aarch64-none-elf/13.2.1/../../../../aarch64-none-elf/lib/libg.a(libc_a-lseekr.o)
 .debug_frame   0x000000000001e890       0x48 /tools/arm-gnu-toolchain-13.2.Rel1-x86_64-aarch64-none-elf/bin/../lib/gcc/aarch64-none-elf/13.2.1/../../../../aarch64-none-elf/lib/libg.a(libc_a-readr.o)
 .debug_frame   0x000000000001e8d8       0xc8 /tools/arm-gnu-toolchain-13.2.Rel1-x86_64-aarch64-none-elf/bin/../lib/gcc/aarch64-none-elf/13.2.1/../../../../aarch64-none-elf/lib/libg.a(libc_a-fputwc.o)
 .debug_frame   0x000000000001e9a0       0x60 /tools/arm-gnu-toolchain-13.2.Rel1-x86_64-aarch64-none-elf/bin/../lib/gcc/aarch64-none-elf/13.2.1/../../../../aarch64-none-elf/lib/libg.a(libc_a-signalr.o)
 .debug_frame   0x000000000001ea00       0x60 /tools/arm-gnu-toolchain-13.2.Rel1-x86_64-aarch64-none-elf/bin/../lib/gcc/aarch64-none-elf/13.2.1/../../../../aarch64-none-elf/lib/libg.a(libc_a-wbuf.o)
 .debug_frame   0x000000000001ea60       0x50 /tools/arm-gnu-toolchain-13.2.Rel1-x86_64-aarch64-none-elf/bin/../lib/gcc/aarch64-none-elf/13.2.1/libgcc.a(trunctfdf2.o)
 .debug_frame   0x000000000001eab0       0x28 /tools/arm-gnu-toolchain-13.2.Rel1-x86_64-aarch64-none-elf/bin/../lib/gcc/aarch64-none-elf/13.2.1/libgcc.a(sfp-exceptions.o)
